(lp0
(dp1
S'user_id'
p2
S'35530'
p3
sS'data_id'
p4
S'3150'
p5
sS'ip'
p6
S'7424a490a049e5ce539b9db9fea35724'
p7
sS'phone_B'
p8
S'xxe56c7bfb761d587bcffc49693391d999'
p9
sS'phone_C'
p10
S'xxf6eeab0785428485236b0dd501e77e76'
p11
sS'phone_A'
p12
S'xx0025991fb7dd299e5c1119d702575a85'
p13
sS'user_agent'
p14
S'Mozilla/5.0 (Linux; Android 4.4.4; Coolpad 8712 Build/KTU84P) AppleWebKit/537.36 (KHTML, like Gecko) Version/4.0 Chrome/37.0.0.0 Mobile MQQBrowser/6.8 TBS/036849 Safari/537.36 MicroMessenger/6.3.27.880 NetType/WIFI Language/zh_CN'
p15
sS'ua'
p16
S'c3f9a8dc5e4e34ce73ee2d7bca07d55d'
p17
sa(dp18
g2
S'35530'
p19
sg4
S'3161'
p20
sg6
S'7424a490a049e5ce539b9db9fea35724'
p21
sg8
S'xxe56c7bfb761d587bcffc49693391d999'
p22
sg10
S'xxf6eeab0785428485236b0dd501e77e76'
p23
sg12
S'xx0025991fb7dd299e5c1119d702575a85'
p24
sg14
S'Mozilla/5.0 (Linux; Android 4.4.4; Coolpad 8712 Build/KTU84P) AppleWebKit/537.36 (KHTML, like Gecko) Version/4.0 Chrome/37.0.0.0 Mobile MQQBrowser/6.8 TBS/036849 Safari/537.36 MicroMessenger/6.3.27.880 NetType/WIFI Language/zh_CN'
p25
sg16
S'c3f9a8dc5e4e34ce73ee2d7bca07d55d'
p26
sa(dp27
g2
S'35530'
p28
sg4
S'4479'
p29
sg6
S'7424a490a049e5ce539b9db9fea35724'
p30
sg8
S'xxe56c7bfb761d587bcffc49693391d999'
p31
sg10
S'xxf6eeab0785428485236b0dd501e77e76'
p32
sg12
S'xx0025991fb7dd299e5c1119d702575a85'
p33
sg14
S'Mozilla/5.0 (Linux; Android 4.4.4; Coolpad 8712 Build/KTU84P) AppleWebKit/537.36 (KHTML, like Gecko) Version/4.0 Chrome/37.0.0.0 Mobile MQQBrowser/6.8 TBS/036849 Safari/537.36 MicroMessenger/6.3.27.880 NetType/WIFI Language/zh_CN'
p34
sg16
S'c3f9a8dc5e4e34ce73ee2d7bca07d55d'
p35
sa(dp36
g2
S'35530'
p37
sg4
S'4498'
p38
sg6
S'7424a490a049e5ce539b9db9fea35724'
p39
sg8
S'xxe56c7bfb761d587bcffc49693391d999'
p40
sg10
S'xxf6eeab0785428485236b0dd501e77e76'
p41
sg12
S'xx0025991fb7dd299e5c1119d702575a85'
p42
sg14
S'Mozilla/5.0 (Linux; Android 4.4.4; Coolpad 8712 Build/KTU84P) AppleWebKit/537.36 (KHTML, like Gecko) Version/4.0 Chrome/37.0.0.0 Mobile MQQBrowser/6.8 TBS/036849 Safari/537.36 MicroMessenger/6.3.27.880 NetType/WIFI Language/zh_CN'
p43
sg16
S'c3f9a8dc5e4e34ce73ee2d7bca07d55d'
p44
sa(dp45
g2
S'35530'
p46
sg4
S'4516'
p47
sg6
S'7424a490a049e5ce539b9db9fea35724'
p48
sg8
S'xxe56c7bfb761d587bcffc49693391d999'
p49
sg10
S'xxf6eeab0785428485236b0dd501e77e76'
p50
sg12
S'xx0025991fb7dd299e5c1119d702575a85'
p51
sg14
S'Mozilla/5.0 (Linux; Android 4.4.4; Coolpad 8712 Build/KTU84P) AppleWebKit/537.36 (KHTML, like Gecko) Version/4.0 Chrome/37.0.0.0 Mobile MQQBrowser/6.8 TBS/036849 Safari/537.36 MicroMessenger/6.3.27.880 NetType/WIFI Language/zh_CN'
p52
sg16
S'c3f9a8dc5e4e34ce73ee2d7bca07d55d'
p53
sa(dp54
g2
S'35530'
p55
sg4
S'4546'
p56
sg6
S'7424a490a049e5ce539b9db9fea35724'
p57
sg8
S'xxe56c7bfb761d587bcffc49693391d999'
p58
sg10
S'xxf6eeab0785428485236b0dd501e77e76'
p59
sg12
S'xx0025991fb7dd299e5c1119d702575a85'
p60
sg14
S'Mozilla/5.0 (Linux; Android 4.4.4; Coolpad 8712 Build/KTU84P) AppleWebKit/537.36 (KHTML, like Gecko) Version/4.0 Chrome/37.0.0.0 Mobile MQQBrowser/6.8 TBS/036849 Safari/537.36 MicroMessenger/6.3.27.880 NetType/WIFI Language/zh_CN'
p61
sg16
S'c3f9a8dc5e4e34ce73ee2d7bca07d55d'
p62
sa(dp63
g2
S'35530'
p64
sg4
S'6703'
p65
sg6
S'1b935dd9f20d067667bb85ac1cd1e4d6'
p66
sg8
S'xxe56c7bfb761d587bcffc49693391d999'
p67
sg10
S'xxf6eeab0785428485236b0dd501e77e76'
p68
sg12
S'xx0025991fb7dd299e5c1119d702575a85'
p69
sg14
S'Mozilla/5.0 (Linux; Android 4.4.4; Coolpad 8712 Build/KTU84P) AppleWebKit/537.36 (KHTML, like Gecko) Version/4.0 Chrome/37.0.0.0 Mobile MQQBrowser/6.8 TBS/036849 Safari/537.36 MicroMessenger/6.3.27.880 NetType/WIFI Language/zh_CN'
p70
sg16
S'c3f9a8dc5e4e34ce73ee2d7bca07d55d'
p71
sa(dp72
g2
S'35530'
p73
sg4
S'6723'
p74
sg6
S'1b935dd9f20d067667bb85ac1cd1e4d6'
p75
sg8
S'xxe56c7bfb761d587bcffc49693391d999'
p76
sg10
S'xxf6eeab0785428485236b0dd501e77e76'
p77
sg12
S'xx0025991fb7dd299e5c1119d702575a85'
p78
sg14
S'Mozilla/5.0 (Linux; Android 4.4.4; Coolpad 8712 Build/KTU84P) AppleWebKit/537.36 (KHTML, like Gecko) Version/4.0 Chrome/37.0.0.0 Mobile MQQBrowser/6.8 TBS/036849 Safari/537.36 MicroMessenger/6.3.27.880 NetType/WIFI Language/zh_CN'
p79
sg16
S'c3f9a8dc5e4e34ce73ee2d7bca07d55d'
p80
sa(dp81
g2
S'35530'
p82
sg4
S'6739'
p83
sg6
S'1b935dd9f20d067667bb85ac1cd1e4d6'
p84
sg8
S'xxe56c7bfb761d587bcffc49693391d999'
p85
sg10
S'xxf6eeab0785428485236b0dd501e77e76'
p86
sg12
S'xx0025991fb7dd299e5c1119d702575a85'
p87
sg14
S'Mozilla/5.0 (Linux; Android 4.4.4; Coolpad 8712 Build/KTU84P) AppleWebKit/537.36 (KHTML, like Gecko) Version/4.0 Chrome/37.0.0.0 Mobile MQQBrowser/6.8 TBS/036849 Safari/537.36 MicroMessenger/6.3.27.880 NetType/WIFI Language/zh_CN'
p88
sg16
S'c3f9a8dc5e4e34ce73ee2d7bca07d55d'
p89
sa.