(lp0
(dp1
S'user_id'
p2
S'6359'
p3
sS'data_id'
p4
S'1185'
p5
sS'ip'
p6
S'd869918b3075266d8d2dcc2b621cb33b'
p7
sS'phone_B'
p8
S'xx3890790738addedfba369e17e2bbad6e'
p9
sS'phone_C'
p10
S'xx42d1a44173d7a6a800dfa045273a09a5'
p11
sS'phone_A'
p12
S'xx0089a73e52682ac5cb41e16f556c27ff'
p13
sS'user_agent'
p14
S'Mozilla/5.0 (Linux; Android 4.3; HUAWEI Y610-U00 Build/HUAWEIY610-U00) AppleWebKit/537.36 (KHTML, like Gecko) Version/4.0 Chrome/37.0.0.0 Mobile MQQBrowser/6.8 TBS/036849 Safari/537.36 MicroMessenger/6.3.27.880 NetType/cmwap Language/zh_CN'
p15
sS'ua'
p16
S'0d794cab7a998b1c7a9e2c615e390adb'
p17
sa(dp18
g2
S'6359'
p19
sg4
S'1196'
p20
sg6
S'd869918b3075266d8d2dcc2b621cb33b'
p21
sg8
S'xx3890790738addedfba369e17e2bbad6e'
p22
sg10
S'xx42d1a44173d7a6a800dfa045273a09a5'
p23
sg12
S'xx0089a73e52682ac5cb41e16f556c27ff'
p24
sg14
S'Mozilla/5.0 (Linux; Android 4.3; HUAWEI Y610-U00 Build/HUAWEIY610-U00) AppleWebKit/537.36 (KHTML, like Gecko) Version/4.0 Chrome/37.0.0.0 Mobile MQQBrowser/6.8 TBS/036849 Safari/537.36 MicroMessenger/6.3.27.880 NetType/cmwap Language/zh_CN'
p25
sg16
S'0d794cab7a998b1c7a9e2c615e390adb'
p26
sa.