(lp0
(dp1
S'user_id'
p2
S'46642'
p3
sS'data_id'
p4
S'5312'
p5
sS'ip'
p6
S'11ffdbdf2e035adf2b06791a8af0422b'
p7
sS'phone_B'
p8
S'xx1e7c513e3402181da5f89626025357a4'
p9
sS'phone_C'
p10
S'xx9aae67933c73a5ef2f0fa1dfb08afdd9'
p11
sS'phone_A'
p12
S'xx01a27f14d71b56a5a250e73d2a7cd13c'
p13
sS'user_agent'
p14
S'Mozilla/5.0 (Linux; Android 4.4.4; Coolpad Y75 Build/KTU84P) AppleWebKit/537.36 (KHTML, like Gecko) Version/4.0 Chrome/37.0.0.0 Mobile MQQBrowser/6.8 TBS/036849 Safari/537.36 MicroMessenger/6.3.27.880 NetType/WIFI Language/zh_CN'
p15
sS'ua'
p16
S'bc5eb9f00e07358443c2124fddb12a1d'
p17
sa(dp18
g2
S'46642'
p19
sg4
S'5328'
p20
sg6
S'11ffdbdf2e035adf2b06791a8af0422b'
p21
sg8
S'xx1e7c513e3402181da5f89626025357a4'
p22
sg10
S'xx9aae67933c73a5ef2f0fa1dfb08afdd9'
p23
sg12
S'xx01a27f14d71b56a5a250e73d2a7cd13c'
p24
sg14
S'Mozilla/5.0 (Linux; Android 4.4.4; Coolpad Y75 Build/KTU84P) AppleWebKit/537.36 (KHTML, like Gecko) Version/4.0 Chrome/37.0.0.0 Mobile MQQBrowser/6.8 TBS/036849 Safari/537.36 MicroMessenger/6.3.27.880 NetType/WIFI Language/zh_CN'
p25
sg16
S'bc5eb9f00e07358443c2124fddb12a1d'
p26
sa(dp27
g2
S'23463'
p28
sg4
S'6380'
p29
sg6
S'3b0a364b75b2ceaca8a3ea3ad4841d45'
p30
sg8
S'xxeafcc84b843ff5c940c31f5a7965927e'
p31
sg10
S'xx9aae67933c73a5ef2f0fa1dfb08afdd9'
p32
sg12
S'xx01a27f14d71b56a5a250e73d2a7cd13c'
p33
sg14
S'Mozilla/5.0 (Linux; Android 4.4.4; Coolpad Y75 Build/KTU84P) AppleWebKit/537.36 (KHTML, like Gecko) Version/4.0 Chrome/37.0.0.0 Mobile MQQBrowser/6.8 TBS/036869 Safari/537.36 MicroMessenger/6.3.27.880 NetType/WIFI Language/zh_CN'
p34
sg16
S'546115915fe02d67df0d5c2052ce08cf'
p35
sa(dp36
g2
S'23463'
p37
sg4
S'6398'
p38
sg6
S'3b0a364b75b2ceaca8a3ea3ad4841d45'
p39
sg8
S'xxeafcc84b843ff5c940c31f5a7965927e'
p40
sg10
S'xx9aae67933c73a5ef2f0fa1dfb08afdd9'
p41
sg12
S'xx01a27f14d71b56a5a250e73d2a7cd13c'
p42
sg14
S'Mozilla/5.0 (Linux; Android 4.4.4; Coolpad Y75 Build/KTU84P) AppleWebKit/537.36 (KHTML, like Gecko) Version/4.0 Chrome/37.0.0.0 Mobile MQQBrowser/6.8 TBS/036869 Safari/537.36 MicroMessenger/6.3.27.880 NetType/WIFI Language/zh_CN'
p43
sg16
S'546115915fe02d67df0d5c2052ce08cf'
p44
sa.