(lp0
(dp1
S'user_id'
p2
S'38122'
p3
sS'data_id'
p4
S'798'
p5
sS'ip'
p6
S'fb75425f8a0d8b24b31b7ef844d6f0bd'
p7
sS'phone_B'
p8
S'xxd10ea6b316a6a01b169b8618d86084cc'
p9
sS'phone_C'
p10
S'xx5ba6e83ab19ca3a94d39ebfc36eb8d6b'
p11
sS'phone_A'
p12
S'xx02b86cb6518c3907435e49c1787afa13'
p13
sS'user_agent'
p14
S'Mozilla/5.0 (Linux; Android 4.4.4; HUAWEI C8817E Build/HuaweiC8817E) AppleWebKit/537.36 (KHTML, like Gecko) Version/4.0 Chrome/37.0.0.0 Mobile MQQBrowser/6.8 TBS/036849 Safari/537.36 MicroMessenger/6.3.25.861 NetType/ctwap Language/zh_CN'
p15
sS'ua'
p16
S'793db16e500fe8165e0f3107a3a54915'
p17
sa(dp18
g2
S'38122'
p19
sg4
S'815'
p20
sg6
S'fb75425f8a0d8b24b31b7ef844d6f0bd'
p21
sg8
S'xxd10ea6b316a6a01b169b8618d86084cc'
p22
sg10
S'xx5ba6e83ab19ca3a94d39ebfc36eb8d6b'
p23
sg12
S'xx02b86cb6518c3907435e49c1787afa13'
p24
sg14
S'Mozilla/5.0 (Linux; Android 4.4.4; HUAWEI C8817E Build/HuaweiC8817E) AppleWebKit/537.36 (KHTML, like Gecko) Version/4.0 Chrome/37.0.0.0 Mobile MQQBrowser/6.8 TBS/036849 Safari/537.36 MicroMessenger/6.3.25.861 NetType/ctwap Language/zh_CN'
p25
sg16
S'793db16e500fe8165e0f3107a3a54915'
p26
sa(dp27
g2
S'38122'
p28
sg4
S'1472'
p29
sg6
S'fb75425f8a0d8b24b31b7ef844d6f0bd'
p30
sg8
S'xxd10ea6b316a6a01b169b8618d86084cc'
p31
sg10
S'xx5ba6e83ab19ca3a94d39ebfc36eb8d6b'
p32
sg12
S'xx02b86cb6518c3907435e49c1787afa13'
p33
sg14
S'Mozilla/5.0 (Linux; Android 4.4.4; HUAWEI C8817E Build/HuaweiC8817E) AppleWebKit/537.36 (KHTML, like Gecko) Version/4.0 Chrome/37.0.0.0 Mobile MQQBrowser/6.8 TBS/036849 Safari/537.36 MicroMessenger/6.3.25.861 NetType/ctwap Language/zh_CN'
p34
sg16
S'793db16e500fe8165e0f3107a3a54915'
p35
sa(dp36
g2
S'38122'
p37
sg4
S'1493'
p38
sg6
S'fb75425f8a0d8b24b31b7ef844d6f0bd'
p39
sg8
S'xxd10ea6b316a6a01b169b8618d86084cc'
p40
sg10
S'xx5ba6e83ab19ca3a94d39ebfc36eb8d6b'
p41
sg12
S'xx02b86cb6518c3907435e49c1787afa13'
p42
sg14
S'Mozilla/5.0 (Linux; Android 4.4.4; HUAWEI C8817E Build/HuaweiC8817E) AppleWebKit/537.36 (KHTML, like Gecko) Version/4.0 Chrome/37.0.0.0 Mobile MQQBrowser/6.8 TBS/036849 Safari/537.36 MicroMessenger/6.3.25.861 NetType/ctwap Language/zh_CN'
p43
sg16
S'793db16e500fe8165e0f3107a3a54915'
p44
sa(dp45
g2
S'38122'
p46
sg4
S'2147'
p47
sg6
S'fb75425f8a0d8b24b31b7ef844d6f0bd'
p48
sg8
S'xxd10ea6b316a6a01b169b8618d86084cc'
p49
sg10
S'xx5ba6e83ab19ca3a94d39ebfc36eb8d6b'
p50
sg12
S'xx02b86cb6518c3907435e49c1787afa13'
p51
sg14
S'Mozilla/5.0 (Linux; Android 4.4.4; HUAWEI C8817E Build/HuaweiC8817E) AppleWebKit/537.36 (KHTML, like Gecko) Version/4.0 Chrome/37.0.0.0 Mobile MQQBrowser/6.8 TBS/036849 Safari/537.36 MicroMessenger/6.3.25.861 NetType/ctwap Language/zh_CN'
p52
sg16
S'793db16e500fe8165e0f3107a3a54915'
p53
sa(dp54
g2
S'38122'
p55
sg4
S'2156'
p56
sg6
S'fb75425f8a0d8b24b31b7ef844d6f0bd'
p57
sg8
S'xxd10ea6b316a6a01b169b8618d86084cc'
p58
sg10
S'xx5ba6e83ab19ca3a94d39ebfc36eb8d6b'
p59
sg12
S'xx02b86cb6518c3907435e49c1787afa13'
p60
sg14
S'Mozilla/5.0 (Linux; Android 4.4.4; HUAWEI C8817E Build/HuaweiC8817E) AppleWebKit/537.36 (KHTML, like Gecko) Version/4.0 Chrome/37.0.0.0 Mobile MQQBrowser/6.8 TBS/036849 Safari/537.36 MicroMessenger/6.3.25.861 NetType/ctwap Language/zh_CN'
p61
sg16
S'793db16e500fe8165e0f3107a3a54915'
p62
sa(dp63
g2
S'38122'
p64
sg4
S'2492'
p65
sg6
S'fb75425f8a0d8b24b31b7ef844d6f0bd'
p66
sg8
S'xxd10ea6b316a6a01b169b8618d86084cc'
p67
sg10
S'xx5ba6e83ab19ca3a94d39ebfc36eb8d6b'
p68
sg12
S'xx02b86cb6518c3907435e49c1787afa13'
p69
sg14
S'Mozilla/5.0 (Linux; Android 4.4.4; HUAWEI C8817E Build/HuaweiC8817E) AppleWebKit/537.36 (KHTML, like Gecko) Version/4.0 Chrome/37.0.0.0 Mobile MQQBrowser/6.8 TBS/036849 Safari/537.36 MicroMessenger/6.3.25.861 NetType/ctwap Language/zh_CN'
p70
sg16
S'793db16e500fe8165e0f3107a3a54915'
p71
sa(dp72
g2
S'38122'
p73
sg4
S'2538'
p74
sg6
S'fb75425f8a0d8b24b31b7ef844d6f0bd'
p75
sg8
S'xxd10ea6b316a6a01b169b8618d86084cc'
p76
sg10
S'xx5ba6e83ab19ca3a94d39ebfc36eb8d6b'
p77
sg12
S'xx02b86cb6518c3907435e49c1787afa13'
p78
sg14
S'Mozilla/5.0 (Linux; Android 4.4.4; HUAWEI C8817E Build/HuaweiC8817E) AppleWebKit/537.36 (KHTML, like Gecko) Version/4.0 Chrome/37.0.0.0 Mobile MQQBrowser/6.8 TBS/036849 Safari/537.36 MicroMessenger/6.3.25.861 NetType/ctwap Language/zh_CN'
p79
sg16
S'793db16e500fe8165e0f3107a3a54915'
p80
sa(dp81
g2
S'38122'
p82
sg4
S'2564'
p83
sg6
S'fb75425f8a0d8b24b31b7ef844d6f0bd'
p84
sg8
S'xxd10ea6b316a6a01b169b8618d86084cc'
p85
sg10
S'xx5ba6e83ab19ca3a94d39ebfc36eb8d6b'
p86
sg12
S'xx02b86cb6518c3907435e49c1787afa13'
p87
sg14
S'Mozilla/5.0 (Linux; Android 4.4.4; HUAWEI C8817E Build/HuaweiC8817E) AppleWebKit/537.36 (KHTML, like Gecko) Version/4.0 Chrome/37.0.0.0 Mobile MQQBrowser/6.8 TBS/036849 Safari/537.36 MicroMessenger/6.3.25.861 NetType/ctwap Language/zh_CN'
p88
sg16
S'793db16e500fe8165e0f3107a3a54915'
p89
sa(dp90
g2
S'38122'
p91
sg4
S'2602'
p92
sg6
S'fb75425f8a0d8b24b31b7ef844d6f0bd'
p93
sg8
S'xxd10ea6b316a6a01b169b8618d86084cc'
p94
sg10
S'xx5ba6e83ab19ca3a94d39ebfc36eb8d6b'
p95
sg12
S'xx02b86cb6518c3907435e49c1787afa13'
p96
sg14
S'Mozilla/5.0 (Linux; Android 4.4.4; HUAWEI C8817E Build/HuaweiC8817E) AppleWebKit/537.36 (KHTML, like Gecko) Version/4.0 Chrome/37.0.0.0 Mobile MQQBrowser/6.8 TBS/036849 Safari/537.36 MicroMessenger/6.3.25.861 NetType/ctwap Language/zh_CN'
p97
sg16
S'793db16e500fe8165e0f3107a3a54915'
p98
sa(dp99
g2
S'38122'
p100
sg4
S'2664'
p101
sg6
S'fb75425f8a0d8b24b31b7ef844d6f0bd'
p102
sg8
S'xxd10ea6b316a6a01b169b8618d86084cc'
p103
sg10
S'xx5ba6e83ab19ca3a94d39ebfc36eb8d6b'
p104
sg12
S'xx02b86cb6518c3907435e49c1787afa13'
p105
sg14
S'Mozilla/5.0 (Linux; Android 4.4.4; HUAWEI C8817E Build/HuaweiC8817E) AppleWebKit/537.36 (KHTML, like Gecko) Version/4.0 Chrome/37.0.0.0 Mobile MQQBrowser/6.8 TBS/036849 Safari/537.36 MicroMessenger/6.3.25.861 NetType/ctwap Language/zh_CN'
p106
sg16
S'793db16e500fe8165e0f3107a3a54915'
p107
sa(dp108
g2
S'38122'
p109
sg4
S'2739'
p110
sg6
S'fb75425f8a0d8b24b31b7ef844d6f0bd'
p111
sg8
S'xxd10ea6b316a6a01b169b8618d86084cc'
p112
sg10
S'xx5ba6e83ab19ca3a94d39ebfc36eb8d6b'
p113
sg12
S'xx02b86cb6518c3907435e49c1787afa13'
p114
sg14
S'Mozilla/5.0 (Linux; Android 4.4.4; HUAWEI C8817E Build/HuaweiC8817E) AppleWebKit/537.36 (KHTML, like Gecko) Version/4.0 Chrome/37.0.0.0 Mobile MQQBrowser/6.8 TBS/036849 Safari/537.36 MicroMessenger/6.3.25.861 NetType/ctwap Language/zh_CN'
p115
sg16
S'793db16e500fe8165e0f3107a3a54915'
p116
sa(dp117
g2
S'38122'
p118
sg4
S'2761'
p119
sg6
S'fb75425f8a0d8b24b31b7ef844d6f0bd'
p120
sg8
S'xxd10ea6b316a6a01b169b8618d86084cc'
p121
sg10
S'xx5ba6e83ab19ca3a94d39ebfc36eb8d6b'
p122
sg12
S'xx02b86cb6518c3907435e49c1787afa13'
p123
sg14
S'Mozilla/5.0 (Linux; Android 4.4.4; HUAWEI C8817E Build/HuaweiC8817E) AppleWebKit/537.36 (KHTML, like Gecko) Version/4.0 Chrome/37.0.0.0 Mobile MQQBrowser/6.8 TBS/036849 Safari/537.36 MicroMessenger/6.3.25.861 NetType/ctwap Language/zh_CN'
p124
sg16
S'793db16e500fe8165e0f3107a3a54915'
p125
sa.