(lp0
(dp1
S'user_id'
p2
S'38321'
p3
sS'data_id'
p4
S'3211'
p5
sS'ip'
p6
S'75cb0be92dfe4e164a05a394b3b3d58c'
p7
sS'phone_B'
p8
S'xxf96f3fb2142f06e7229ba071b6c66884'
p9
sS'phone_C'
p10
S'xxa1eddb067d69156b5a420a68e90e67cd'
p11
sS'phone_A'
p12
S'xx0264a058bf3f981644f30af214c91cae'
p13
sS'user_agent'
p14
S'Mozilla/5.0 (Linux; Android 4.4.2; HONOR H30-L01M Build/HonorH30-L01M) AppleWebKit/537.36 (KHTML, like Gecko) Version/4.0 Chrome/37.0.0.0 Mobile MQQBrowser/6.8 TBS/036849 Safari/537.36 MicroMessenger/6.3.27.880 NetType/cmnet Language/zh_CN'
p15
sS'ua'
p16
S'967f9877ef7976fb14d3d945ac9372d7'
p17
sa(dp18
g2
S'38321'
p19
sg4
S'3225'
p20
sg6
S'75cb0be92dfe4e164a05a394b3b3d58c'
p21
sg8
S'xxf96f3fb2142f06e7229ba071b6c66884'
p22
sg10
S'xxa1eddb067d69156b5a420a68e90e67cd'
p23
sg12
S'xx0264a058bf3f981644f30af214c91cae'
p24
sg14
S'Mozilla/5.0 (Linux; Android 4.4.2; HONOR H30-L01M Build/HonorH30-L01M) AppleWebKit/537.36 (KHTML, like Gecko) Version/4.0 Chrome/37.0.0.0 Mobile MQQBrowser/6.8 TBS/036849 Safari/537.36 MicroMessenger/6.3.27.880 NetType/cmnet Language/zh_CN'
p25
sg16
S'967f9877ef7976fb14d3d945ac9372d7'
p26
sa(dp27
g2
S'38321'
p28
sg4
S'3240'
p29
sg6
S'75cb0be92dfe4e164a05a394b3b3d58c'
p30
sg8
S'xxf96f3fb2142f06e7229ba071b6c66884'
p31
sg10
S'xxa1eddb067d69156b5a420a68e90e67cd'
p32
sg12
S'xx0264a058bf3f981644f30af214c91cae'
p33
sg14
S'Mozilla/5.0 (Linux; Android 4.4.2; HONOR H30-L01M Build/HonorH30-L01M) AppleWebKit/537.36 (KHTML, like Gecko) Version/4.0 Chrome/37.0.0.0 Mobile MQQBrowser/6.8 TBS/036849 Safari/537.36 MicroMessenger/6.3.27.880 NetType/cmnet Language/zh_CN'
p34
sg16
S'967f9877ef7976fb14d3d945ac9372d7'
p35
sa(dp36
g2
S'38321'
p37
sg4
S'3253'
p38
sg6
S'75cb0be92dfe4e164a05a394b3b3d58c'
p39
sg8
S'xxf96f3fb2142f06e7229ba071b6c66884'
p40
sg10
S'xxa1eddb067d69156b5a420a68e90e67cd'
p41
sg12
S'xx0264a058bf3f981644f30af214c91cae'
p42
sg14
S'Mozilla/5.0 (Linux; Android 4.4.2; HONOR H30-L01M Build/HonorH30-L01M) AppleWebKit/537.36 (KHTML, like Gecko) Version/4.0 Chrome/37.0.0.0 Mobile MQQBrowser/6.8 TBS/036849 Safari/537.36 MicroMessenger/6.3.27.880 NetType/cmnet Language/zh_CN'
p43
sg16
S'967f9877ef7976fb14d3d945ac9372d7'
p44
sa(dp45
g2
S'38321'
p46
sg4
S'3272'
p47
sg6
S'75cb0be92dfe4e164a05a394b3b3d58c'
p48
sg8
S'xxf96f3fb2142f06e7229ba071b6c66884'
p49
sg10
S'xxa1eddb067d69156b5a420a68e90e67cd'
p50
sg12
S'xx0264a058bf3f981644f30af214c91cae'
p51
sg14
S'Mozilla/5.0 (Linux; Android 4.4.2; HONOR H30-L01M Build/HonorH30-L01M) AppleWebKit/537.36 (KHTML, like Gecko) Version/4.0 Chrome/37.0.0.0 Mobile MQQBrowser/6.8 TBS/036849 Safari/537.36 MicroMessenger/6.3.27.880 NetType/cmnet Language/zh_CN'
p52
sg16
S'967f9877ef7976fb14d3d945ac9372d7'
p53
sa(dp54
g2
S'40089'
p55
sg4
S'4335'
p56
sg6
S'8f7e5329568bfba15b6d1bba023d4313'
p57
sg8
S'xx5e9a9db9250c110d047ca3ee82605472'
p58
sg10
S'xxb47a9352f7bd5d04e19d5d2a5b6d92a0'
p59
sg12
S'xx0264a058bf3f981644f30af214c91cae'
p60
sg14
S'Mozilla/5.0 (Linux; Android 4.4.2; HONOR H30-L01M Build/HonorH30-L01M) AppleWebKit/537.36 (KHTML, like Gecko) Version/4.0 Chrome/37.0.0.0 Mobile MQQBrowser/6.8 TBS/036824 Safari/537.36 MicroMessenger/6.3.27.880 NetType/cmnet Language/zh_CN'
p61
sg16
S'5ba39a3fd39dd306f43e705cd12bdfd6'
p62
sa(dp63
g2
S'40089'
p64
sg4
S'4355'
p65
sg6
S'8f7e5329568bfba15b6d1bba023d4313'
p66
sg8
S'xx5e9a9db9250c110d047ca3ee82605472'
p67
sg10
S'xxb47a9352f7bd5d04e19d5d2a5b6d92a0'
p68
sg12
S'xx0264a058bf3f981644f30af214c91cae'
p69
sg14
S'Mozilla/5.0 (Linux; Android 4.4.2; HONOR H30-L01M Build/HonorH30-L01M) AppleWebKit/537.36 (KHTML, like Gecko) Version/4.0 Chrome/37.0.0.0 Mobile MQQBrowser/6.8 TBS/036824 Safari/537.36 MicroMessenger/6.3.27.880 NetType/cmnet Language/zh_CN'
p70
sg16
S'5ba39a3fd39dd306f43e705cd12bdfd6'
p71
sa(dp72
g2
S'40089'
p73
sg4
S'4376'
p74
sg6
S'8f7e5329568bfba15b6d1bba023d4313'
p75
sg8
S'xx5e9a9db9250c110d047ca3ee82605472'
p76
sg10
S'xxb47a9352f7bd5d04e19d5d2a5b6d92a0'
p77
sg12
S'xx0264a058bf3f981644f30af214c91cae'
p78
sg14
S'Mozilla/5.0 (Linux; Android 4.4.2; HONOR H30-L01M Build/HonorH30-L01M) AppleWebKit/537.36 (KHTML, like Gecko) Version/4.0 Chrome/37.0.0.0 Mobile MQQBrowser/6.8 TBS/036824 Safari/537.36 MicroMessenger/6.3.27.880 NetType/cmnet Language/zh_CN'
p79
sg16
S'5ba39a3fd39dd306f43e705cd12bdfd6'
p80
sa(dp81
g2
S'33139'
p82
sg4
S'4885'
p83
sg6
S'c890385654dfb9f5920d030394e9670a'
p84
sg8
S'xx9e77a1279f4bde0f12dd7a0f81ab5482'
p85
sg10
S'xxa1eddb067d69156b5a420a68e90e67cd'
p86
sg12
S'xx0264a058bf3f981644f30af214c91cae'
p87
sg14
S'Mozilla/5.0 (Linux; Android 4.4.2; HONOR H30-L01M Build/HonorH30-L01M) AppleWebKit/537.36 (KHTML, like Gecko) Version/4.0 Chrome/37.0.0.0 Mobile MQQBrowser/6.8 TBS/036849 Safari/537.36 MicroMessenger/6.3.27.880 NetType/cmwap Language/zh_CN'
p88
sg16
S'52462286396b1bece828073cffda4ab2'
p89
sa(dp90
g2
S'33139'
p91
sg4
S'4903'
p92
sg6
S'c890385654dfb9f5920d030394e9670a'
p93
sg8
S'xx9e77a1279f4bde0f12dd7a0f81ab5482'
p94
sg10
S'xxa1eddb067d69156b5a420a68e90e67cd'
p95
sg12
S'xx0264a058bf3f981644f30af214c91cae'
p96
sg14
S'Mozilla/5.0 (Linux; Android 4.4.2; HONOR H30-L01M Build/HonorH30-L01M) AppleWebKit/537.36 (KHTML, like Gecko) Version/4.0 Chrome/37.0.0.0 Mobile MQQBrowser/6.8 TBS/036849 Safari/537.36 MicroMessenger/6.3.27.880 NetType/cmwap Language/zh_CN'
p97
sg16
S'52462286396b1bece828073cffda4ab2'
p98
sa(dp99
g2
S'33139'
p100
sg4
S'5478'
p101
sg6
S'c890385654dfb9f5920d030394e9670a'
p102
sg8
S'xx9e77a1279f4bde0f12dd7a0f81ab5482'
p103
sg10
S'xxa1eddb067d69156b5a420a68e90e67cd'
p104
sg12
S'xx0264a058bf3f981644f30af214c91cae'
p105
sg14
S'Mozilla/5.0 (Linux; Android 4.4.2; HONOR H30-L01M Build/HonorH30-L01M) AppleWebKit/537.36 (KHTML, like Gecko) Version/4.0 Chrome/37.0.0.0 Mobile MQQBrowser/6.8 TBS/036849 Safari/537.36 MicroMessenger/6.3.27.880 NetType/cmwap Language/zh_CN'
p106
sg16
S'52462286396b1bece828073cffda4ab2'
p107
sa(dp108
g2
S'33139'
p109
sg4
S'5495'
p110
sg6
S'c890385654dfb9f5920d030394e9670a'
p111
sg8
S'xx9e77a1279f4bde0f12dd7a0f81ab5482'
p112
sg10
S'xxa1eddb067d69156b5a420a68e90e67cd'
p113
sg12
S'xx0264a058bf3f981644f30af214c91cae'
p114
sg14
S'Mozilla/5.0 (Linux; Android 4.4.2; HONOR H30-L01M Build/HonorH30-L01M) AppleWebKit/537.36 (KHTML, like Gecko) Version/4.0 Chrome/37.0.0.0 Mobile MQQBrowser/6.8 TBS/036849 Safari/537.36 MicroMessenger/6.3.27.880 NetType/cmwap Language/zh_CN'
p115
sg16
S'52462286396b1bece828073cffda4ab2'
p116
sa(dp117
g2
S'33139'
p118
sg4
S'5792'
p119
sg6
S'c890385654dfb9f5920d030394e9670a'
p120
sg8
S'xx9e77a1279f4bde0f12dd7a0f81ab5482'
p121
sg10
S'xxa1eddb067d69156b5a420a68e90e67cd'
p122
sg12
S'xx0264a058bf3f981644f30af214c91cae'
p123
sg14
S'Mozilla/5.0 (Linux; Android 4.4.2; HONOR H30-L01M Build/HonorH30-L01M) AppleWebKit/537.36 (KHTML, like Gecko) Version/4.0 Chrome/37.0.0.0 Mobile MQQBrowser/6.8 TBS/036849 Safari/537.36 MicroMessenger/6.3.27.880 NetType/cmwap Language/zh_CN'
p124
sg16
S'52462286396b1bece828073cffda4ab2'
p125
sa(dp126
g2
S'33139'
p127
sg4
S'5807'
p128
sg6
S'c890385654dfb9f5920d030394e9670a'
p129
sg8
S'xx9e77a1279f4bde0f12dd7a0f81ab5482'
p130
sg10
S'xxa1eddb067d69156b5a420a68e90e67cd'
p131
sg12
S'xx0264a058bf3f981644f30af214c91cae'
p132
sg14
S'Mozilla/5.0 (Linux; Android 4.4.2; HONOR H30-L01M Build/HonorH30-L01M) AppleWebKit/537.36 (KHTML, like Gecko) Version/4.0 Chrome/37.0.0.0 Mobile MQQBrowser/6.8 TBS/036849 Safari/537.36 MicroMessenger/6.3.27.880 NetType/cmwap Language/zh_CN'
p133
sg16
S'52462286396b1bece828073cffda4ab2'
p134
sa(dp135
g2
S'33139'
p136
sg4
S'5825'
p137
sg6
S'c890385654dfb9f5920d030394e9670a'
p138
sg8
S'xx9e77a1279f4bde0f12dd7a0f81ab5482'
p139
sg10
S'xxa1eddb067d69156b5a420a68e90e67cd'
p140
sg12
S'xx0264a058bf3f981644f30af214c91cae'
p141
sg14
S'Mozilla/5.0 (Linux; Android 4.4.2; HONOR H30-L01M Build/HonorH30-L01M) AppleWebKit/537.36 (KHTML, like Gecko) Version/4.0 Chrome/37.0.0.0 Mobile MQQBrowser/6.8 TBS/036849 Safari/537.36 MicroMessenger/6.3.27.880 NetType/cmwap Language/zh_CN'
p142
sg16
S'52462286396b1bece828073cffda4ab2'
p143
sa(dp144
g2
S'33139'
p145
sg4
S'5909'
p146
sg6
S'c890385654dfb9f5920d030394e9670a'
p147
sg8
S'xx9e77a1279f4bde0f12dd7a0f81ab5482'
p148
sg10
S'xxa1eddb067d69156b5a420a68e90e67cd'
p149
sg12
S'xx0264a058bf3f981644f30af214c91cae'
p150
sg14
S'Mozilla/5.0 (Linux; Android 4.4.2; HONOR H30-L01M Build/HonorH30-L01M) AppleWebKit/537.36 (KHTML, like Gecko) Version/4.0 Chrome/37.0.0.0 Mobile MQQBrowser/6.8 TBS/036849 Safari/537.36 MicroMessenger/6.3.27.880 NetType/cmwap Language/zh_CN'
p151
sg16
S'52462286396b1bece828073cffda4ab2'
p152
sa(dp153
g2
S'33139'
p154
sg4
S'6012'
p155
sg6
S'c890385654dfb9f5920d030394e9670a'
p156
sg8
S'xx9e77a1279f4bde0f12dd7a0f81ab5482'
p157
sg10
S'xxa1eddb067d69156b5a420a68e90e67cd'
p158
sg12
S'xx0264a058bf3f981644f30af214c91cae'
p159
sg14
S'Mozilla/5.0 (Linux; Android 4.4.2; HONOR H30-L01M Build/HonorH30-L01M) AppleWebKit/537.36 (KHTML, like Gecko) Version/4.0 Chrome/37.0.0.0 Mobile MQQBrowser/6.8 TBS/036849 Safari/537.36 MicroMessenger/6.3.27.880 NetType/cmwap Language/zh_CN'
p160
sg16
S'52462286396b1bece828073cffda4ab2'
p161
sa(dp162
g2
S'33139'
p163
sg4
S'6024'
p164
sg6
S'c890385654dfb9f5920d030394e9670a'
p165
sg8
S'xx9e77a1279f4bde0f12dd7a0f81ab5482'
p166
sg10
S'xxa1eddb067d69156b5a420a68e90e67cd'
p167
sg12
S'xx0264a058bf3f981644f30af214c91cae'
p168
sg14
S'Mozilla/5.0 (Linux; Android 4.4.2; HONOR H30-L01M Build/HonorH30-L01M) AppleWebKit/537.36 (KHTML, like Gecko) Version/4.0 Chrome/37.0.0.0 Mobile MQQBrowser/6.8 TBS/036849 Safari/537.36 MicroMessenger/6.3.27.880 NetType/cmwap Language/zh_CN'
p169
sg16
S'52462286396b1bece828073cffda4ab2'
p170
sa(dp171
g2
S'33139'
p172
sg4
S'6083'
p173
sg6
S'c890385654dfb9f5920d030394e9670a'
p174
sg8
S'xx9e77a1279f4bde0f12dd7a0f81ab5482'
p175
sg10
S'xxa1eddb067d69156b5a420a68e90e67cd'
p176
sg12
S'xx0264a058bf3f981644f30af214c91cae'
p177
sg14
S'Mozilla/5.0 (Linux; Android 4.4.2; HONOR H30-L01M Build/HonorH30-L01M) AppleWebKit/537.36 (KHTML, like Gecko) Version/4.0 Chrome/37.0.0.0 Mobile MQQBrowser/6.8 TBS/036849 Safari/537.36 MicroMessenger/6.3.27.880 NetType/cmwap Language/zh_CN'
p178
sg16
S'52462286396b1bece828073cffda4ab2'
p179
sa(dp180
g2
S'33139'
p181
sg4
S'6100'
p182
sg6
S'c890385654dfb9f5920d030394e9670a'
p183
sg8
S'xx9e77a1279f4bde0f12dd7a0f81ab5482'
p184
sg10
S'xxa1eddb067d69156b5a420a68e90e67cd'
p185
sg12
S'xx0264a058bf3f981644f30af214c91cae'
p186
sg14
S'Mozilla/5.0 (Linux; Android 4.4.2; HONOR H30-L01M Build/HonorH30-L01M) AppleWebKit/537.36 (KHTML, like Gecko) Version/4.0 Chrome/37.0.0.0 Mobile MQQBrowser/6.8 TBS/036849 Safari/537.36 MicroMessenger/6.3.27.880 NetType/cmwap Language/zh_CN'
p187
sg16
S'52462286396b1bece828073cffda4ab2'
p188
sa(dp189
g2
S'33139'
p190
sg4
S'6125'
p191
sg6
S'c890385654dfb9f5920d030394e9670a'
p192
sg8
S'xx9e77a1279f4bde0f12dd7a0f81ab5482'
p193
sg10
S'xxa1eddb067d69156b5a420a68e90e67cd'
p194
sg12
S'xx0264a058bf3f981644f30af214c91cae'
p195
sg14
S'Mozilla/5.0 (Linux; Android 4.4.2; HONOR H30-L01M Build/HonorH30-L01M) AppleWebKit/537.36 (KHTML, like Gecko) Version/4.0 Chrome/37.0.0.0 Mobile MQQBrowser/6.8 TBS/036849 Safari/537.36 MicroMessenger/6.3.27.880 NetType/cmwap Language/zh_CN'
p196
sg16
S'52462286396b1bece828073cffda4ab2'
p197
sa(dp198
g2
S'33139'
p199
sg4
S'6142'
p200
sg6
S'c890385654dfb9f5920d030394e9670a'
p201
sg8
S'xx9e77a1279f4bde0f12dd7a0f81ab5482'
p202
sg10
S'xxa1eddb067d69156b5a420a68e90e67cd'
p203
sg12
S'xx0264a058bf3f981644f30af214c91cae'
p204
sg14
S'Mozilla/5.0 (Linux; Android 4.4.2; HONOR H30-L01M Build/HonorH30-L01M) AppleWebKit/537.36 (KHTML, like Gecko) Version/4.0 Chrome/37.0.0.0 Mobile MQQBrowser/6.8 TBS/036849 Safari/537.36 MicroMessenger/6.3.27.880 NetType/cmwap Language/zh_CN'
p205
sg16
S'52462286396b1bece828073cffda4ab2'
p206
sa(dp207
g2
S'33139'
p208
sg4
S'6295'
p209
sg6
S'c890385654dfb9f5920d030394e9670a'
p210
sg8
S'xx9e77a1279f4bde0f12dd7a0f81ab5482'
p211
sg10
S'xxa1eddb067d69156b5a420a68e90e67cd'
p212
sg12
S'xx0264a058bf3f981644f30af214c91cae'
p213
sg14
S'Mozilla/5.0 (Linux; Android 4.4.2; HONOR H30-L01M Build/HonorH30-L01M) AppleWebKit/537.36 (KHTML, like Gecko) Version/4.0 Chrome/37.0.0.0 Mobile MQQBrowser/6.8 TBS/036849 Safari/537.36 MicroMessenger/6.3.27.880 NetType/cmwap Language/zh_CN'
p214
sg16
S'52462286396b1bece828073cffda4ab2'
p215
sa(dp216
g2
S'33139'
p217
sg4
S'6308'
p218
sg6
S'c890385654dfb9f5920d030394e9670a'
p219
sg8
S'xx9e77a1279f4bde0f12dd7a0f81ab5482'
p220
sg10
S'xxa1eddb067d69156b5a420a68e90e67cd'
p221
sg12
S'xx0264a058bf3f981644f30af214c91cae'
p222
sg14
S'Mozilla/5.0 (Linux; Android 4.4.2; HONOR H30-L01M Build/HonorH30-L01M) AppleWebKit/537.36 (KHTML, like Gecko) Version/4.0 Chrome/37.0.0.0 Mobile MQQBrowser/6.8 TBS/036849 Safari/537.36 MicroMessenger/6.3.27.880 NetType/cmwap Language/zh_CN'
p223
sg16
S'52462286396b1bece828073cffda4ab2'
p224
sa(dp225
g2
S'33139'
p226
sg4
S'6321'
p227
sg6
S'c890385654dfb9f5920d030394e9670a'
p228
sg8
S'xx9e77a1279f4bde0f12dd7a0f81ab5482'
p229
sg10
S'xxa1eddb067d69156b5a420a68e90e67cd'
p230
sg12
S'xx0264a058bf3f981644f30af214c91cae'
p231
sg14
S'Mozilla/5.0 (Linux; Android 4.4.2; HONOR H30-L01M Build/HonorH30-L01M) AppleWebKit/537.36 (KHTML, like Gecko) Version/4.0 Chrome/37.0.0.0 Mobile MQQBrowser/6.8 TBS/036849 Safari/537.36 MicroMessenger/6.3.27.880 NetType/cmwap Language/zh_CN'
p232
sg16
S'52462286396b1bece828073cffda4ab2'
p233
sa(dp234
g2
S'33139'
p235
sg4
S'6339'
p236
sg6
S'c890385654dfb9f5920d030394e9670a'
p237
sg8
S'xx9e77a1279f4bde0f12dd7a0f81ab5482'
p238
sg10
S'xxa1eddb067d69156b5a420a68e90e67cd'
p239
sg12
S'xx0264a058bf3f981644f30af214c91cae'
p240
sg14
S'Mozilla/5.0 (Linux; Android 4.4.2; HONOR H30-L01M Build/HonorH30-L01M) AppleWebKit/537.36 (KHTML, like Gecko) Version/4.0 Chrome/37.0.0.0 Mobile MQQBrowser/6.8 TBS/036849 Safari/537.36 MicroMessenger/6.3.27.880 NetType/cmwap Language/zh_CN'
p241
sg16
S'52462286396b1bece828073cffda4ab2'
p242
sa(dp243
g2
S'33139'
p244
sg4
S'6358'
p245
sg6
S'c890385654dfb9f5920d030394e9670a'
p246
sg8
S'xx9e77a1279f4bde0f12dd7a0f81ab5482'
p247
sg10
S'xxa1eddb067d69156b5a420a68e90e67cd'
p248
sg12
S'xx0264a058bf3f981644f30af214c91cae'
p249
sg14
S'Mozilla/5.0 (Linux; Android 4.4.2; HONOR H30-L01M Build/HonorH30-L01M) AppleWebKit/537.36 (KHTML, like Gecko) Version/4.0 Chrome/37.0.0.0 Mobile MQQBrowser/6.8 TBS/036849 Safari/537.36 MicroMessenger/6.3.27.880 NetType/cmwap Language/zh_CN'
p250
sg16
S'52462286396b1bece828073cffda4ab2'
p251
sa(dp252
g2
S'33139'
p253
sg4
S'6387'
p254
sg6
S'c890385654dfb9f5920d030394e9670a'
p255
sg8
S'xx9e77a1279f4bde0f12dd7a0f81ab5482'
p256
sg10
S'xxa1eddb067d69156b5a420a68e90e67cd'
p257
sg12
S'xx0264a058bf3f981644f30af214c91cae'
p258
sg14
S'Mozilla/5.0 (Linux; Android 4.4.2; HONOR H30-L01M Build/HonorH30-L01M) AppleWebKit/537.36 (KHTML, like Gecko) Version/4.0 Chrome/37.0.0.0 Mobile MQQBrowser/6.8 TBS/036849 Safari/537.36 MicroMessenger/6.3.27.880 NetType/cmwap Language/zh_CN'
p259
sg16
S'52462286396b1bece828073cffda4ab2'
p260
sa(dp261
g2
S'33139'
p262
sg4
S'6406'
p263
sg6
S'c890385654dfb9f5920d030394e9670a'
p264
sg8
S'xx9e77a1279f4bde0f12dd7a0f81ab5482'
p265
sg10
S'xxa1eddb067d69156b5a420a68e90e67cd'
p266
sg12
S'xx0264a058bf3f981644f30af214c91cae'
p267
sg14
S'Mozilla/5.0 (Linux; Android 4.4.2; HONOR H30-L01M Build/HonorH30-L01M) AppleWebKit/537.36 (KHTML, like Gecko) Version/4.0 Chrome/37.0.0.0 Mobile MQQBrowser/6.8 TBS/036849 Safari/537.36 MicroMessenger/6.3.27.880 NetType/cmwap Language/zh_CN'
p268
sg16
S'52462286396b1bece828073cffda4ab2'
p269
sa(dp270
g2
S'33139'
p271
sg4
S'6433'
p272
sg6
S'c890385654dfb9f5920d030394e9670a'
p273
sg8
S'xx9e77a1279f4bde0f12dd7a0f81ab5482'
p274
sg10
S'xxa1eddb067d69156b5a420a68e90e67cd'
p275
sg12
S'xx0264a058bf3f981644f30af214c91cae'
p276
sg14
S'Mozilla/5.0 (Linux; Android 4.4.2; HONOR H30-L01M Build/HonorH30-L01M) AppleWebKit/537.36 (KHTML, like Gecko) Version/4.0 Chrome/37.0.0.0 Mobile MQQBrowser/6.8 TBS/036849 Safari/537.36 MicroMessenger/6.3.27.880 NetType/cmwap Language/zh_CN'
p277
sg16
S'52462286396b1bece828073cffda4ab2'
p278
sa(dp279
g2
S'33139'
p280
sg4
S'6453'
p281
sg6
S'c890385654dfb9f5920d030394e9670a'
p282
sg8
S'xx9e77a1279f4bde0f12dd7a0f81ab5482'
p283
sg10
S'xxa1eddb067d69156b5a420a68e90e67cd'
p284
sg12
S'xx0264a058bf3f981644f30af214c91cae'
p285
sg14
S'Mozilla/5.0 (Linux; Android 4.4.2; HONOR H30-L01M Build/HonorH30-L01M) AppleWebKit/537.36 (KHTML, like Gecko) Version/4.0 Chrome/37.0.0.0 Mobile MQQBrowser/6.8 TBS/036849 Safari/537.36 MicroMessenger/6.3.27.880 NetType/cmwap Language/zh_CN'
p286
sg16
S'52462286396b1bece828073cffda4ab2'
p287
sa(dp288
g2
S'33139'
p289
sg4
S'6469'
p290
sg6
S'c890385654dfb9f5920d030394e9670a'
p291
sg8
S'xx9e77a1279f4bde0f12dd7a0f81ab5482'
p292
sg10
S'xxa1eddb067d69156b5a420a68e90e67cd'
p293
sg12
S'xx0264a058bf3f981644f30af214c91cae'
p294
sg14
S'Mozilla/5.0 (Linux; Android 4.4.2; HONOR H30-L01M Build/HonorH30-L01M) AppleWebKit/537.36 (KHTML, like Gecko) Version/4.0 Chrome/37.0.0.0 Mobile MQQBrowser/6.8 TBS/036849 Safari/537.36 MicroMessenger/6.3.27.880 NetType/cmwap Language/zh_CN'
p295
sg16
S'52462286396b1bece828073cffda4ab2'
p296
sa(dp297
g2
S'33139'
p298
sg4
S'6484'
p299
sg6
S'c890385654dfb9f5920d030394e9670a'
p300
sg8
S'xx9e77a1279f4bde0f12dd7a0f81ab5482'
p301
sg10
S'xxa1eddb067d69156b5a420a68e90e67cd'
p302
sg12
S'xx0264a058bf3f981644f30af214c91cae'
p303
sg14
S'Mozilla/5.0 (Linux; Android 4.4.2; HONOR H30-L01M Build/HonorH30-L01M) AppleWebKit/537.36 (KHTML, like Gecko) Version/4.0 Chrome/37.0.0.0 Mobile MQQBrowser/6.8 TBS/036849 Safari/537.36 MicroMessenger/6.3.27.880 NetType/cmwap Language/zh_CN'
p304
sg16
S'52462286396b1bece828073cffda4ab2'
p305
sa(dp306
g2
S'33139'
p307
sg4
S'6496'
p308
sg6
S'c890385654dfb9f5920d030394e9670a'
p309
sg8
S'xx9e77a1279f4bde0f12dd7a0f81ab5482'
p310
sg10
S'xxa1eddb067d69156b5a420a68e90e67cd'
p311
sg12
S'xx0264a058bf3f981644f30af214c91cae'
p312
sg14
S'Mozilla/5.0 (Linux; Android 4.4.2; HONOR H30-L01M Build/HonorH30-L01M) AppleWebKit/537.36 (KHTML, like Gecko) Version/4.0 Chrome/37.0.0.0 Mobile MQQBrowser/6.8 TBS/036849 Safari/537.36 MicroMessenger/6.3.27.880 NetType/cmwap Language/zh_CN'
p313
sg16
S'52462286396b1bece828073cffda4ab2'
p314
sa(dp315
g2
S'33139'
p316
sg4
S'6510'
p317
sg6
S'c890385654dfb9f5920d030394e9670a'
p318
sg8
S'xx9e77a1279f4bde0f12dd7a0f81ab5482'
p319
sg10
S'xxa1eddb067d69156b5a420a68e90e67cd'
p320
sg12
S'xx0264a058bf3f981644f30af214c91cae'
p321
sg14
S'Mozilla/5.0 (Linux; Android 4.4.2; HONOR H30-L01M Build/HonorH30-L01M) AppleWebKit/537.36 (KHTML, like Gecko) Version/4.0 Chrome/37.0.0.0 Mobile MQQBrowser/6.8 TBS/036849 Safari/537.36 MicroMessenger/6.3.27.880 NetType/cmwap Language/zh_CN'
p322
sg16
S'52462286396b1bece828073cffda4ab2'
p323
sa(dp324
g2
S'33139'
p325
sg4
S'6589'
p326
sg6
S'c890385654dfb9f5920d030394e9670a'
p327
sg8
S'xx9e77a1279f4bde0f12dd7a0f81ab5482'
p328
sg10
S'xxa1eddb067d69156b5a420a68e90e67cd'
p329
sg12
S'xx0264a058bf3f981644f30af214c91cae'
p330
sg14
S'Mozilla/5.0 (Linux; Android 4.4.2; HONOR H30-L01M Build/HonorH30-L01M) AppleWebKit/537.36 (KHTML, like Gecko) Version/4.0 Chrome/37.0.0.0 Mobile MQQBrowser/6.8 TBS/036849 Safari/537.36 MicroMessenger/6.3.27.880 NetType/cmwap Language/zh_CN'
p331
sg16
S'52462286396b1bece828073cffda4ab2'
p332
sa(dp333
g2
S'49844'
p334
sg4
S'7842'
p335
sg6
S'ffc9b3936a3facb8844495bd69bbc29e'
p336
sg8
S'xxde80f4e343a83b42ebc9f139e48f6372'
p337
sg10
S'xxfa1d68e77d66e42794cd40f28b49de56'
p338
sg12
S'xx0264a058bf3f981644f30af214c91cae'
p339
sg14
S'Mozilla/5.0 (Linux; Android 4.4.2; HONOR H30-L01M Build/HonorH30-L01M) AppleWebKit/537.36 (KHTML, like Gecko) Version/4.0 Chrome/30.0.0.0 Mobile Safari/537.36 MicroMessenger/6.3.27.880 NetType/cmnet Language/zh_CN'
p340
sg16
S'3f83f3c2a0ed833343edccc3b4d65041'
p341
sa(dp342
g2
S'49844'
p343
sg4
S'7856'
p344
sg6
S'ffc9b3936a3facb8844495bd69bbc29e'
p345
sg8
S'xxde80f4e343a83b42ebc9f139e48f6372'
p346
sg10
S'xxfa1d68e77d66e42794cd40f28b49de56'
p347
sg12
S'xx0264a058bf3f981644f30af214c91cae'
p348
sg14
S'Mozilla/5.0 (Linux; Android 4.4.2; HONOR H30-L01M Build/HonorH30-L01M) AppleWebKit/537.36 (KHTML, like Gecko) Version/4.0 Chrome/30.0.0.0 Mobile Safari/537.36 MicroMessenger/6.3.27.880 NetType/cmnet Language/zh_CN'
p349
sg16
S'3f83f3c2a0ed833343edccc3b4d65041'
p350
sa.