(lp0
(dp1
S'user_id'
p2
S'30545'
p3
sS'data_id'
p4
S'406'
p5
sS'ip'
p6
S'8c45aec587d8586e0964fb81b7ce4547'
p7
sS'phone_B'
p8
S'xxaa925d66d36df306dbc0802f63abf60c'
p9
sS'phone_C'
p10
S'xxb1202aacbc5b43cdee052d7e5703b597'
p11
sS'phone_A'
p12
S'xx03c82ba40319198f6a2edbe1a6ca8a5e'
p13
sS'user_agent'
p14
S'Mozilla/5.0 (Linux; Android 5.0.2; vivo X5Pro V Build/LRX22G) AppleWebKit/537.36 (KHTML, like Gecko) Version/4.0 Chrome/37.0.0.0 Mobile MQQBrowser/6.8 TBS/036849 Safari/537.36 MicroMessenger/6.3.27.880 NetType/WIFI Language/zh_CN'
p15
sS'ua'
p16
S'9afe03ef142172a9515d906d9dcc912e'
p17
sa(dp18
g2
S'30545'
p19
sg4
S'419'
p20
sg6
S'8c45aec587d8586e0964fb81b7ce4547'
p21
sg8
S'xxaa925d66d36df306dbc0802f63abf60c'
p22
sg10
S'xxb1202aacbc5b43cdee052d7e5703b597'
p23
sg12
S'xx03c82ba40319198f6a2edbe1a6ca8a5e'
p24
sg14
S'Mozilla/5.0 (Linux; Android 5.0.2; vivo X5Pro V Build/LRX22G) AppleWebKit/537.36 (KHTML, like Gecko) Version/4.0 Chrome/37.0.0.0 Mobile MQQBrowser/6.8 TBS/036849 Safari/537.36 MicroMessenger/6.3.27.880 NetType/WIFI Language/zh_CN'
p25
sg16
S'9afe03ef142172a9515d906d9dcc912e'
p26
sa(dp27
g2
S'30545'
p28
sg4
S'429'
p29
sg6
S'8c45aec587d8586e0964fb81b7ce4547'
p30
sg8
S'xxaa925d66d36df306dbc0802f63abf60c'
p31
sg10
S'xxb1202aacbc5b43cdee052d7e5703b597'
p32
sg12
S'xx03c82ba40319198f6a2edbe1a6ca8a5e'
p33
sg14
S'Mozilla/5.0 (Linux; Android 5.0.2; vivo X5Pro V Build/LRX22G) AppleWebKit/537.36 (KHTML, like Gecko) Version/4.0 Chrome/37.0.0.0 Mobile MQQBrowser/6.8 TBS/036849 Safari/537.36 MicroMessenger/6.3.27.880 NetType/WIFI Language/zh_CN'
p34
sg16
S'9afe03ef142172a9515d906d9dcc912e'
p35
sa(dp36
g2
S'30545'
p37
sg4
S'438'
p38
sg6
S'8c45aec587d8586e0964fb81b7ce4547'
p39
sg8
S'xxaa925d66d36df306dbc0802f63abf60c'
p40
sg10
S'xxb1202aacbc5b43cdee052d7e5703b597'
p41
sg12
S'xx03c82ba40319198f6a2edbe1a6ca8a5e'
p42
sg14
S'Mozilla/5.0 (Linux; Android 5.0.2; vivo X5Pro V Build/LRX22G) AppleWebKit/537.36 (KHTML, like Gecko) Version/4.0 Chrome/37.0.0.0 Mobile MQQBrowser/6.8 TBS/036849 Safari/537.36 MicroMessenger/6.3.27.880 NetType/WIFI Language/zh_CN'
p43
sg16
S'9afe03ef142172a9515d906d9dcc912e'
p44
sa.