(lp0
(dp1
S'user_id'
p2
S'5376'
p3
sS'data_id'
p4
S'78'
p5
sS'ip'
p6
S'9a3bb90ea999051f1b5a6584aa020244'
p7
sS'phone_B'
p8
S'xx6167b391b7e97497497cd47433b9e3cc'
p9
sS'phone_C'
p10
S'xx7c11889d568b644595fc506dc352723e'
p11
sS'phone_A'
p12
S'xx03a578a7a7a96e7ff20390a07263c7fe'
p13
sS'user_agent'
p14
S'Mozilla/5.0 (Linux; Android 4.4.4; 1107 Build/KTU84P) AppleWebKit/537.36 (KHTML, like Gecko) Version/4.0 Chrome/37.0.0.0 Mobile MQQBrowser/6.8 TBS/036824 Safari/537.36 MicroMessenger/6.3.25.861 NetType/WIFI Language/zh_CN'
p15
sS'ua'
p16
S'a99ab370e64d24f26be3f68dcc313bb1'
p17
sa(dp18
g2
S'27332'
p19
sg4
S'989'
p20
sg6
S'b354c8f417ebf127170f36a663c5efb7'
p21
sg8
S'xxcaf3da58b5cfaefbe11c82f78efaa0f2'
p22
sg10
S'xx7c11889d568b644595fc506dc352723e'
p23
sg12
S'xx03a578a7a7a96e7ff20390a07263c7fe'
p24
sg14
S'Mozilla/5.0 (Linux; Android 4.4.4; 1107 Build/KTU84P) AppleWebKit/537.36 (KHTML, like Gecko) Version/4.0 Chrome/37.0.0.0 Mobile MQQBrowser/6.8 TBS/036849 Safari/537.36 MicroMessenger/6.3.25.861 NetType/cmnet Language/zh_CN'
p25
sg16
S'7ba194226888aa24427f599122d0c440'
p26
sa(dp27
g2
S'27332'
p28
sg4
S'1006'
p29
sg6
S'b354c8f417ebf127170f36a663c5efb7'
p30
sg8
S'xxcaf3da58b5cfaefbe11c82f78efaa0f2'
p31
sg10
S'xx7c11889d568b644595fc506dc352723e'
p32
sg12
S'xx03a578a7a7a96e7ff20390a07263c7fe'
p33
sg14
S'Mozilla/5.0 (Linux; Android 4.4.4; 1107 Build/KTU84P) AppleWebKit/537.36 (KHTML, like Gecko) Version/4.0 Chrome/37.0.0.0 Mobile MQQBrowser/6.8 TBS/036849 Safari/537.36 MicroMessenger/6.3.25.861 NetType/cmnet Language/zh_CN'
p34
sg16
S'7ba194226888aa24427f599122d0c440'
p35
sa(dp36
g2
S'5376'
p37
sg4
S'1606'
p38
sg6
S'9a3bb90ea999051f1b5a6584aa020244'
p39
sg8
S'xx6167b391b7e97497497cd47433b9e3cc'
p40
sg10
S'xx7c11889d568b644595fc506dc352723e'
p41
sg12
S'xx03a578a7a7a96e7ff20390a07263c7fe'
p42
sg14
S'Mozilla/5.0 (Linux; Android 4.4.4; 1107 Build/KTU84P) AppleWebKit/537.36 (KHTML, like Gecko) Version/4.0 Chrome/37.0.0.0 Mobile MQQBrowser/6.8 TBS/036824 Safari/537.36 MicroMessenger/6.3.25.861 NetType/WIFI Language/zh_CN'
p43
sg16
S'a99ab370e64d24f26be3f68dcc313bb1'
p44
sa(dp45
g2
S'5376'
p46
sg4
S'1620'
p47
sg6
S'9a3bb90ea999051f1b5a6584aa020244'
p48
sg8
S'xx6167b391b7e97497497cd47433b9e3cc'
p49
sg10
S'xx7c11889d568b644595fc506dc352723e'
p50
sg12
S'xx03a578a7a7a96e7ff20390a07263c7fe'
p51
sg14
S'Mozilla/5.0 (Linux; Android 4.4.4; 1107 Build/KTU84P) AppleWebKit/537.36 (KHTML, like Gecko) Version/4.0 Chrome/37.0.0.0 Mobile MQQBrowser/6.8 TBS/036824 Safari/537.36 MicroMessenger/6.3.25.861 NetType/WIFI Language/zh_CN'
p52
sg16
S'a99ab370e64d24f26be3f68dcc313bb1'
p53
sa(dp54
g2
S'5376'
p55
sg4
S'2005'
p56
sg6
S'9a3bb90ea999051f1b5a6584aa020244'
p57
sg8
S'xx6167b391b7e97497497cd47433b9e3cc'
p58
sg10
S'xx7c11889d568b644595fc506dc352723e'
p59
sg12
S'xx03a578a7a7a96e7ff20390a07263c7fe'
p60
sg14
S'Mozilla/5.0 (Linux; Android 4.4.4; 1107 Build/KTU84P) AppleWebKit/537.36 (KHTML, like Gecko) Version/4.0 Chrome/37.0.0.0 Mobile MQQBrowser/6.8 TBS/036824 Safari/537.36 MicroMessenger/6.3.25.861 NetType/WIFI Language/zh_CN'
p61
sg16
S'a99ab370e64d24f26be3f68dcc313bb1'
p62
sa(dp63
g2
S'5376'
p64
sg4
S'2015'
p65
sg6
S'9a3bb90ea999051f1b5a6584aa020244'
p66
sg8
S'xx6167b391b7e97497497cd47433b9e3cc'
p67
sg10
S'xx7c11889d568b644595fc506dc352723e'
p68
sg12
S'xx03a578a7a7a96e7ff20390a07263c7fe'
p69
sg14
S'Mozilla/5.0 (Linux; Android 4.4.4; 1107 Build/KTU84P) AppleWebKit/537.36 (KHTML, like Gecko) Version/4.0 Chrome/37.0.0.0 Mobile MQQBrowser/6.8 TBS/036824 Safari/537.36 MicroMessenger/6.3.25.861 NetType/WIFI Language/zh_CN'
p70
sg16
S'a99ab370e64d24f26be3f68dcc313bb1'
p71
sa(dp72
g2
S'5376'
p73
sg4
S'2023'
p74
sg6
S'9a3bb90ea999051f1b5a6584aa020244'
p75
sg8
S'xx6167b391b7e97497497cd47433b9e3cc'
p76
sg10
S'xx7c11889d568b644595fc506dc352723e'
p77
sg12
S'xx03a578a7a7a96e7ff20390a07263c7fe'
p78
sg14
S'Mozilla/5.0 (Linux; Android 4.4.4; 1107 Build/KTU84P) AppleWebKit/537.36 (KHTML, like Gecko) Version/4.0 Chrome/37.0.0.0 Mobile MQQBrowser/6.8 TBS/036824 Safari/537.36 MicroMessenger/6.3.25.861 NetType/WIFI Language/zh_CN'
p79
sg16
S'a99ab370e64d24f26be3f68dcc313bb1'
p80
sa(dp81
g2
S'5376'
p82
sg4
S'2030'
p83
sg6
S'9a3bb90ea999051f1b5a6584aa020244'
p84
sg8
S'xx6167b391b7e97497497cd47433b9e3cc'
p85
sg10
S'xx7c11889d568b644595fc506dc352723e'
p86
sg12
S'xx03a578a7a7a96e7ff20390a07263c7fe'
p87
sg14
S'Mozilla/5.0 (Linux; Android 4.4.4; 1107 Build/KTU84P) AppleWebKit/537.36 (KHTML, like Gecko) Version/4.0 Chrome/37.0.0.0 Mobile MQQBrowser/6.8 TBS/036824 Safari/537.36 MicroMessenger/6.3.25.861 NetType/WIFI Language/zh_CN'
p88
sg16
S'a99ab370e64d24f26be3f68dcc313bb1'
p89
sa(dp90
g2
S'33277'
p91
sg4
S'2841'
p92
sg6
S'34c156f810d734131375eac471ebece3'
p93
sg8
S'xxda11fdd5ad79d03de8033bbc9b9ec4d5'
p94
sg10
S'xx7c11889d568b644595fc506dc352723e'
p95
sg12
S'xx03a578a7a7a96e7ff20390a07263c7fe'
p96
sg14
S'Mozilla/5.0 (Linux; Android 4.4.4; 1107 Build/KTU84P) AppleWebKit/537.36 (KHTML, like Gecko) Version/4.0 Chrome/37.0.0.0 Mobile MQQBrowser/6.8 TBS/036849 Safari/537.36 MicroMessenger/6.3.25.861 NetType/WIFI Language/zh_CN'
p97
sg16
S'c4dfa7856e1d5df47e8bf14aefe90fbf'
p98
sa(dp99
g2
S'33277'
p100
sg4
S'2860'
p101
sg6
S'34c156f810d734131375eac471ebece3'
p102
sg8
S'xxda11fdd5ad79d03de8033bbc9b9ec4d5'
p103
sg10
S'xx7c11889d568b644595fc506dc352723e'
p104
sg12
S'xx03a578a7a7a96e7ff20390a07263c7fe'
p105
sg14
S'Mozilla/5.0 (Linux; Android 4.4.4; 1107 Build/KTU84P) AppleWebKit/537.36 (KHTML, like Gecko) Version/4.0 Chrome/37.0.0.0 Mobile MQQBrowser/6.8 TBS/036849 Safari/537.36 MicroMessenger/6.3.25.861 NetType/WIFI Language/zh_CN'
p106
sg16
S'c4dfa7856e1d5df47e8bf14aefe90fbf'
p107
sa(dp108
g2
S'33277'
p109
sg4
S'2881'
p110
sg6
S'34c156f810d734131375eac471ebece3'
p111
sg8
S'xxda11fdd5ad79d03de8033bbc9b9ec4d5'
p112
sg10
S'xx7c11889d568b644595fc506dc352723e'
p113
sg12
S'xx03a578a7a7a96e7ff20390a07263c7fe'
p114
sg14
S'Mozilla/5.0 (Linux; Android 4.4.4; 1107 Build/KTU84P) AppleWebKit/537.36 (KHTML, like Gecko) Version/4.0 Chrome/37.0.0.0 Mobile MQQBrowser/6.8 TBS/036849 Safari/537.36 MicroMessenger/6.3.25.861 NetType/WIFI Language/zh_CN'
p115
sg16
S'c4dfa7856e1d5df47e8bf14aefe90fbf'
p116
sa(dp117
g2
S'33277'
p118
sg4
S'2902'
p119
sg6
S'34c156f810d734131375eac471ebece3'
p120
sg8
S'xxda11fdd5ad79d03de8033bbc9b9ec4d5'
p121
sg10
S'xx7c11889d568b644595fc506dc352723e'
p122
sg12
S'xx03a578a7a7a96e7ff20390a07263c7fe'
p123
sg14
S'Mozilla/5.0 (Linux; Android 4.4.4; 1107 Build/KTU84P) AppleWebKit/537.36 (KHTML, like Gecko) Version/4.0 Chrome/37.0.0.0 Mobile MQQBrowser/6.8 TBS/036849 Safari/537.36 MicroMessenger/6.3.25.861 NetType/WIFI Language/zh_CN'
p124
sg16
S'c4dfa7856e1d5df47e8bf14aefe90fbf'
p125
sa(dp126
g2
S'33277'
p127
sg4
S'2918'
p128
sg6
S'34c156f810d734131375eac471ebece3'
p129
sg8
S'xxda11fdd5ad79d03de8033bbc9b9ec4d5'
p130
sg10
S'xx7c11889d568b644595fc506dc352723e'
p131
sg12
S'xx03a578a7a7a96e7ff20390a07263c7fe'
p132
sg14
S'Mozilla/5.0 (Linux; Android 4.4.4; 1107 Build/KTU84P) AppleWebKit/537.36 (KHTML, like Gecko) Version/4.0 Chrome/37.0.0.0 Mobile MQQBrowser/6.8 TBS/036849 Safari/537.36 MicroMessenger/6.3.25.861 NetType/WIFI Language/zh_CN'
p133
sg16
S'c4dfa7856e1d5df47e8bf14aefe90fbf'
p134
sa(dp135
g2
S'33277'
p136
sg4
S'2937'
p137
sg6
S'34c156f810d734131375eac471ebece3'
p138
sg8
S'xxda11fdd5ad79d03de8033bbc9b9ec4d5'
p139
sg10
S'xx7c11889d568b644595fc506dc352723e'
p140
sg12
S'xx03a578a7a7a96e7ff20390a07263c7fe'
p141
sg14
S'Mozilla/5.0 (Linux; Android 4.4.4; 1107 Build/KTU84P) AppleWebKit/537.36 (KHTML, like Gecko) Version/4.0 Chrome/37.0.0.0 Mobile MQQBrowser/6.8 TBS/036849 Safari/537.36 MicroMessenger/6.3.25.861 NetType/WIFI Language/zh_CN'
p142
sg16
S'c4dfa7856e1d5df47e8bf14aefe90fbf'
p143
sa(dp144
g2
S'33277'
p145
sg4
S'3005'
p146
sg6
S'34c156f810d734131375eac471ebece3'
p147
sg8
S'xxda11fdd5ad79d03de8033bbc9b9ec4d5'
p148
sg10
S'xx7c11889d568b644595fc506dc352723e'
p149
sg12
S'xx03a578a7a7a96e7ff20390a07263c7fe'
p150
sg14
S'Mozilla/5.0 (Linux; Android 4.4.4; 1107 Build/KTU84P) AppleWebKit/537.36 (KHTML, like Gecko) Version/4.0 Chrome/37.0.0.0 Mobile MQQBrowser/6.8 TBS/036849 Safari/537.36 MicroMessenger/6.3.25.861 NetType/WIFI Language/zh_CN'
p151
sg16
S'c4dfa7856e1d5df47e8bf14aefe90fbf'
p152
sa(dp153
g2
S'33277'
p154
sg4
S'3037'
p155
sg6
S'34c156f810d734131375eac471ebece3'
p156
sg8
S'xxda11fdd5ad79d03de8033bbc9b9ec4d5'
p157
sg10
S'xx7c11889d568b644595fc506dc352723e'
p158
sg12
S'xx03a578a7a7a96e7ff20390a07263c7fe'
p159
sg14
S'Mozilla/5.0 (Linux; Android 4.4.4; 1107 Build/KTU84P) AppleWebKit/537.36 (KHTML, like Gecko) Version/4.0 Chrome/37.0.0.0 Mobile MQQBrowser/6.8 TBS/036849 Safari/537.36 MicroMessenger/6.3.25.861 NetType/WIFI Language/zh_CN'
p160
sg16
S'c4dfa7856e1d5df47e8bf14aefe90fbf'
p161
sa(dp162
g2
S'33277'
p163
sg4
S'3057'
p164
sg6
S'34c156f810d734131375eac471ebece3'
p165
sg8
S'xxda11fdd5ad79d03de8033bbc9b9ec4d5'
p166
sg10
S'xx7c11889d568b644595fc506dc352723e'
p167
sg12
S'xx03a578a7a7a96e7ff20390a07263c7fe'
p168
sg14
S'Mozilla/5.0 (Linux; Android 4.4.4; 1107 Build/KTU84P) AppleWebKit/537.36 (KHTML, like Gecko) Version/4.0 Chrome/37.0.0.0 Mobile MQQBrowser/6.8 TBS/036849 Safari/537.36 MicroMessenger/6.3.25.861 NetType/WIFI Language/zh_CN'
p169
sg16
S'c4dfa7856e1d5df47e8bf14aefe90fbf'
p170
sa(dp171
g2
S'49790'
p172
sg4
S'4839'
p173
sg6
S'7ad6ba29c8e2117fc5d1ce0cf6043119'
p174
sg8
S'xxc826f07ff110e2d5b1ee840f9a7dac0b'
p175
sg10
S'xx7c11889d568b644595fc506dc352723e'
p176
sg12
S'xx03a578a7a7a96e7ff20390a07263c7fe'
p177
sg14
S'Mozilla/5.0 (Linux; Android 4.4.4; 1107 Build/KTU84P) AppleWebKit/537.36 (KHTML, like Gecko) Version/4.0 Chrome/37.0.0.0 Mobile MQQBrowser/6.8 TBS/036865 Safari/537.36 MicroMessenger/6.3.25.861 NetType/WIFI Language/zh_CN'
p178
sg16
S'bb56f344eb187380f48fdac4b6980ba5'
p179
sa(dp180
g2
S'49790'
p181
sg4
S'4858'
p182
sg6
S'7ad6ba29c8e2117fc5d1ce0cf6043119'
p183
sg8
S'xxc826f07ff110e2d5b1ee840f9a7dac0b'
p184
sg10
S'xx7c11889d568b644595fc506dc352723e'
p185
sg12
S'xx03a578a7a7a96e7ff20390a07263c7fe'
p186
sg14
S'Mozilla/5.0 (Linux; Android 4.4.4; 1107 Build/KTU84P) AppleWebKit/537.36 (KHTML, like Gecko) Version/4.0 Chrome/37.0.0.0 Mobile MQQBrowser/6.8 TBS/036865 Safari/537.36 MicroMessenger/6.3.25.861 NetType/WIFI Language/zh_CN'
p187
sg16
S'bb56f344eb187380f48fdac4b6980ba5'
p188
sa(dp189
g2
S'5376'
p190
sg4
S'5781'
p191
sg6
S'9a3bb90ea999051f1b5a6584aa020244'
p192
sg8
S'xx6167b391b7e97497497cd47433b9e3cc'
p193
sg10
S'xx7c11889d568b644595fc506dc352723e'
p194
sg12
S'xx03a578a7a7a96e7ff20390a07263c7fe'
p195
sg14
S'Mozilla/5.0 (Linux; Android 4.4.4; 1107 Build/KTU84P) AppleWebKit/537.36 (KHTML, like Gecko) Version/4.0 Chrome/37.0.0.0 Mobile MQQBrowser/6.8 TBS/036824 Safari/537.36 MicroMessenger/6.3.25.861 NetType/WIFI Language/zh_CN'
p196
sg16
S'a99ab370e64d24f26be3f68dcc313bb1'
p197
sa(dp198
g2
S'5376'
p199
sg4
S'5799'
p200
sg6
S'9a3bb90ea999051f1b5a6584aa020244'
p201
sg8
S'xx6167b391b7e97497497cd47433b9e3cc'
p202
sg10
S'xx7c11889d568b644595fc506dc352723e'
p203
sg12
S'xx03a578a7a7a96e7ff20390a07263c7fe'
p204
sg14
S'Mozilla/5.0 (Linux; Android 4.4.4; 1107 Build/KTU84P) AppleWebKit/537.36 (KHTML, like Gecko) Version/4.0 Chrome/37.0.0.0 Mobile MQQBrowser/6.8 TBS/036824 Safari/537.36 MicroMessenger/6.3.25.861 NetType/WIFI Language/zh_CN'
p205
sg16
S'a99ab370e64d24f26be3f68dcc313bb1'
p206
sa(dp207
g2
S'30468'
p208
sg4
S'5861'
p209
sg6
S'951ddfb533939e78289404d2b29d65c9'
p210
sg8
S'xx175a84e69bbd5904984fe51b74bd588e'
p211
sg10
S'xx7c11889d568b644595fc506dc352723e'
p212
sg12
S'xx03a578a7a7a96e7ff20390a07263c7fe'
p213
sg14
S'Mozilla/5.0 (Linux; Android 4.4.4; 1107 Build/KTU84P) AppleWebKit/537.36 (KHTML, like Gecko) Version/4.0 Chrome/37.0.0.0 Mobile MQQBrowser/6.8 TBS/036849 Safari/537.36 MicroMessenger/6.3.27.880 NetType/WIFI Language/zh_CN'
p214
sg16
S'e321727c5423db95e9494777e43bab0f'
p215
sa(dp216
g2
S'30468'
p217
sg4
S'5878'
p218
sg6
S'951ddfb533939e78289404d2b29d65c9'
p219
sg8
S'xx175a84e69bbd5904984fe51b74bd588e'
p220
sg10
S'xx7c11889d568b644595fc506dc352723e'
p221
sg12
S'xx03a578a7a7a96e7ff20390a07263c7fe'
p222
sg14
S'Mozilla/5.0 (Linux; Android 4.4.4; 1107 Build/KTU84P) AppleWebKit/537.36 (KHTML, like Gecko) Version/4.0 Chrome/37.0.0.0 Mobile MQQBrowser/6.8 TBS/036849 Safari/537.36 MicroMessenger/6.3.27.880 NetType/WIFI Language/zh_CN'
p223
sg16
S'e321727c5423db95e9494777e43bab0f'
p224
sa(dp225
g2
S'5376'
p226
sg4
S'6247'
p227
sg6
S'9a3bb90ea999051f1b5a6584aa020244'
p228
sg8
S'xx6167b391b7e97497497cd47433b9e3cc'
p229
sg10
S'xx7c11889d568b644595fc506dc352723e'
p230
sg12
S'xx03a578a7a7a96e7ff20390a07263c7fe'
p231
sg14
S'Mozilla/5.0 (Linux; Android 4.4.4; 1107 Build/KTU84P) AppleWebKit/537.36 (KHTML, like Gecko) Version/4.0 Chrome/37.0.0.0 Mobile MQQBrowser/6.8 TBS/036824 Safari/537.36 MicroMessenger/6.3.25.861 NetType/WIFI Language/zh_CN'
p232
sg16
S'a99ab370e64d24f26be3f68dcc313bb1'
p233
sa(dp234
g2
S'5376'
p235
sg4
S'6259'
p236
sg6
S'9a3bb90ea999051f1b5a6584aa020244'
p237
sg8
S'xx6167b391b7e97497497cd47433b9e3cc'
p238
sg10
S'xx7c11889d568b644595fc506dc352723e'
p239
sg12
S'xx03a578a7a7a96e7ff20390a07263c7fe'
p240
sg14
S'Mozilla/5.0 (Linux; Android 4.4.4; 1107 Build/KTU84P) AppleWebKit/537.36 (KHTML, like Gecko) Version/4.0 Chrome/37.0.0.0 Mobile MQQBrowser/6.8 TBS/036824 Safari/537.36 MicroMessenger/6.3.25.861 NetType/WIFI Language/zh_CN'
p241
sg16
S'a99ab370e64d24f26be3f68dcc313bb1'
p242
sa(dp243
g2
S'5376'
p244
sg4
S'6270'
p245
sg6
S'9a3bb90ea999051f1b5a6584aa020244'
p246
sg8
S'xx6167b391b7e97497497cd47433b9e3cc'
p247
sg10
S'xx7c11889d568b644595fc506dc352723e'
p248
sg12
S'xx03a578a7a7a96e7ff20390a07263c7fe'
p249
sg14
S'Mozilla/5.0 (Linux; Android 4.4.4; 1107 Build/KTU84P) AppleWebKit/537.36 (KHTML, like Gecko) Version/4.0 Chrome/37.0.0.0 Mobile MQQBrowser/6.8 TBS/036824 Safari/537.36 MicroMessenger/6.3.25.861 NetType/WIFI Language/zh_CN'
p250
sg16
S'a99ab370e64d24f26be3f68dcc313bb1'
p251
sa(dp252
g2
S'5376'
p253
sg4
S'6281'
p254
sg6
S'9a3bb90ea999051f1b5a6584aa020244'
p255
sg8
S'xx6167b391b7e97497497cd47433b9e3cc'
p256
sg10
S'xx7c11889d568b644595fc506dc352723e'
p257
sg12
S'xx03a578a7a7a96e7ff20390a07263c7fe'
p258
sg14
S'Mozilla/5.0 (Linux; Android 4.4.4; 1107 Build/KTU84P) AppleWebKit/537.36 (KHTML, like Gecko) Version/4.0 Chrome/37.0.0.0 Mobile MQQBrowser/6.8 TBS/036824 Safari/537.36 MicroMessenger/6.3.25.861 NetType/WIFI Language/zh_CN'
p259
sg16
S'a99ab370e64d24f26be3f68dcc313bb1'
p260
sa(dp261
g2
S'5376'
p262
sg4
S'6293'
p263
sg6
S'9a3bb90ea999051f1b5a6584aa020244'
p264
sg8
S'xx6167b391b7e97497497cd47433b9e3cc'
p265
sg10
S'xx7c11889d568b644595fc506dc352723e'
p266
sg12
S'xx03a578a7a7a96e7ff20390a07263c7fe'
p267
sg14
S'Mozilla/5.0 (Linux; Android 4.4.4; 1107 Build/KTU84P) AppleWebKit/537.36 (KHTML, like Gecko) Version/4.0 Chrome/37.0.0.0 Mobile MQQBrowser/6.8 TBS/036824 Safari/537.36 MicroMessenger/6.3.25.861 NetType/WIFI Language/zh_CN'
p268
sg16
S'a99ab370e64d24f26be3f68dcc313bb1'
p269
sa(dp270
g2
S'5376'
p271
sg4
S'6307'
p272
sg6
S'9a3bb90ea999051f1b5a6584aa020244'
p273
sg8
S'xx6167b391b7e97497497cd47433b9e3cc'
p274
sg10
S'xx7c11889d568b644595fc506dc352723e'
p275
sg12
S'xx03a578a7a7a96e7ff20390a07263c7fe'
p276
sg14
S'Mozilla/5.0 (Linux; Android 4.4.4; 1107 Build/KTU84P) AppleWebKit/537.36 (KHTML, like Gecko) Version/4.0 Chrome/37.0.0.0 Mobile MQQBrowser/6.8 TBS/036824 Safari/537.36 MicroMessenger/6.3.25.861 NetType/WIFI Language/zh_CN'
p277
sg16
S'a99ab370e64d24f26be3f68dcc313bb1'
p278
sa(dp279
g2
S'5376'
p280
sg4
S'6323'
p281
sg6
S'9a3bb90ea999051f1b5a6584aa020244'
p282
sg8
S'xx6167b391b7e97497497cd47433b9e3cc'
p283
sg10
S'xx7c11889d568b644595fc506dc352723e'
p284
sg12
S'xx03a578a7a7a96e7ff20390a07263c7fe'
p285
sg14
S'Mozilla/5.0 (Linux; Android 4.4.4; 1107 Build/KTU84P) AppleWebKit/537.36 (KHTML, like Gecko) Version/4.0 Chrome/37.0.0.0 Mobile MQQBrowser/6.8 TBS/036824 Safari/537.36 MicroMessenger/6.3.25.861 NetType/WIFI Language/zh_CN'
p286
sg16
S'a99ab370e64d24f26be3f68dcc313bb1'
p287
sa(dp288
g2
S'5376'
p289
sg4
S'6719'
p290
sg6
S'9a3bb90ea999051f1b5a6584aa020244'
p291
sg8
S'xx6167b391b7e97497497cd47433b9e3cc'
p292
sg10
S'xx7c11889d568b644595fc506dc352723e'
p293
sg12
S'xx03a578a7a7a96e7ff20390a07263c7fe'
p294
sg14
S'Mozilla/5.0 (Linux; Android 4.4.4; 1107 Build/KTU84P) AppleWebKit/537.36 (KHTML, like Gecko) Version/4.0 Chrome/37.0.0.0 Mobile MQQBrowser/6.8 TBS/036824 Safari/537.36 MicroMessenger/6.3.25.861 NetType/WIFI Language/zh_CN'
p295
sg16
S'a99ab370e64d24f26be3f68dcc313bb1'
p296
sa(dp297
g2
S'5376'
p298
sg4
S'7075'
p299
sg6
S'9a3bb90ea999051f1b5a6584aa020244'
p300
sg8
S'xx6167b391b7e97497497cd47433b9e3cc'
p301
sg10
S'xx7c11889d568b644595fc506dc352723e'
p302
sg12
S'xx03a578a7a7a96e7ff20390a07263c7fe'
p303
sg14
S'Mozilla/5.0 (Linux; Android 4.4.4; 1107 Build/KTU84P) AppleWebKit/537.36 (KHTML, like Gecko) Version/4.0 Chrome/37.0.0.0 Mobile MQQBrowser/6.8 TBS/036824 Safari/537.36 MicroMessenger/6.3.25.861 NetType/WIFI Language/zh_CN'
p304
sg16
S'a99ab370e64d24f26be3f68dcc313bb1'
p305
sa(dp306
g2
S'5376'
p307
sg4
S'7086'
p308
sg6
S'9a3bb90ea999051f1b5a6584aa020244'
p309
sg8
S'xx6167b391b7e97497497cd47433b9e3cc'
p310
sg10
S'xx7c11889d568b644595fc506dc352723e'
p311
sg12
S'xx03a578a7a7a96e7ff20390a07263c7fe'
p312
sg14
S'Mozilla/5.0 (Linux; Android 4.4.4; 1107 Build/KTU84P) AppleWebKit/537.36 (KHTML, like Gecko) Version/4.0 Chrome/37.0.0.0 Mobile MQQBrowser/6.8 TBS/036824 Safari/537.36 MicroMessenger/6.3.25.861 NetType/WIFI Language/zh_CN'
p313
sg16
S'a99ab370e64d24f26be3f68dcc313bb1'
p314
sa(dp315
g2
S'5376'
p316
sg4
S'7096'
p317
sg6
S'9a3bb90ea999051f1b5a6584aa020244'
p318
sg8
S'xx6167b391b7e97497497cd47433b9e3cc'
p319
sg10
S'xx7c11889d568b644595fc506dc352723e'
p320
sg12
S'xx03a578a7a7a96e7ff20390a07263c7fe'
p321
sg14
S'Mozilla/5.0 (Linux; Android 4.4.4; 1107 Build/KTU84P) AppleWebKit/537.36 (KHTML, like Gecko) Version/4.0 Chrome/37.0.0.0 Mobile MQQBrowser/6.8 TBS/036824 Safari/537.36 MicroMessenger/6.3.25.861 NetType/WIFI Language/zh_CN'
p322
sg16
S'a99ab370e64d24f26be3f68dcc313bb1'
p323
sa(dp324
g2
S'5376'
p325
sg4
S'7471'
p326
sg6
S'9a3bb90ea999051f1b5a6584aa020244'
p327
sg8
S'xx6167b391b7e97497497cd47433b9e3cc'
p328
sg10
S'xx7c11889d568b644595fc506dc352723e'
p329
sg12
S'xx03a578a7a7a96e7ff20390a07263c7fe'
p330
sg14
S'Mozilla/5.0 (Linux; Android 4.4.4; 1107 Build/KTU84P) AppleWebKit/537.36 (KHTML, like Gecko) Version/4.0 Chrome/37.0.0.0 Mobile MQQBrowser/6.8 TBS/036824 Safari/537.36 MicroMessenger/6.3.25.861 NetType/WIFI Language/zh_CN'
p331
sg16
S'a99ab370e64d24f26be3f68dcc313bb1'
p332
sa(dp333
g2
S'5376'
p334
sg4
S'7682'
p335
sg6
S'9a3bb90ea999051f1b5a6584aa020244'
p336
sg8
S'xx6167b391b7e97497497cd47433b9e3cc'
p337
sg10
S'xx7c11889d568b644595fc506dc352723e'
p338
sg12
S'xx03a578a7a7a96e7ff20390a07263c7fe'
p339
sg14
S'Mozilla/5.0 (Linux; Android 4.4.4; 1107 Build/KTU84P) AppleWebKit/537.36 (KHTML, like Gecko) Version/4.0 Chrome/37.0.0.0 Mobile MQQBrowser/6.8 TBS/036824 Safari/537.36 MicroMessenger/6.3.25.861 NetType/WIFI Language/zh_CN'
p340
sg16
S'a99ab370e64d24f26be3f68dcc313bb1'
p341
sa(dp342
g2
S'5376'
p343
sg4
S'7691'
p344
sg6
S'9a3bb90ea999051f1b5a6584aa020244'
p345
sg8
S'xx6167b391b7e97497497cd47433b9e3cc'
p346
sg10
S'xx7c11889d568b644595fc506dc352723e'
p347
sg12
S'xx03a578a7a7a96e7ff20390a07263c7fe'
p348
sg14
S'Mozilla/5.0 (Linux; Android 4.4.4; 1107 Build/KTU84P) AppleWebKit/537.36 (KHTML, like Gecko) Version/4.0 Chrome/37.0.0.0 Mobile MQQBrowser/6.8 TBS/036824 Safari/537.36 MicroMessenger/6.3.25.861 NetType/WIFI Language/zh_CN'
p349
sg16
S'a99ab370e64d24f26be3f68dcc313bb1'
p350
sa(dp351
g2
S'49840'
p352
sg4
S'7695'
p353
sg6
S'83f5d8cfcd78f29466dca6167994ebe7'
p354
sg8
S'xxda11fdd5ad79d03de8033bbc9b9ec4d5'
p355
sg10
S'xx7c11889d568b644595fc506dc352723e'
p356
sg12
S'xx03a578a7a7a96e7ff20390a07263c7fe'
p357
sg14
S'Mozilla/5.0 (Linux; Android 4.4.4; 1107 Build/KTU84P) AppleWebKit/537.36 (KHTML, like Gecko) Version/4.0 Chrome/37.0.0.0 Mobile MQQBrowser/6.8 TBS/036849 Safari/537.36 MicroMessenger/6.3.25.861 NetType/WIFI Language/zh_CN'
p358
sg16
S'c4dfa7856e1d5df47e8bf14aefe90fbf'
p359
sa(dp360
g2
S'5376'
p361
sg4
S'7948'
p362
sg6
S'9a3bb90ea999051f1b5a6584aa020244'
p363
sg8
S'xx6167b391b7e97497497cd47433b9e3cc'
p364
sg10
S'xx7c11889d568b644595fc506dc352723e'
p365
sg12
S'xx03a578a7a7a96e7ff20390a07263c7fe'
p366
sg14
S'Mozilla/5.0 (Linux; Android 4.4.4; 1107 Build/KTU84P) AppleWebKit/537.36 (KHTML, like Gecko) Version/4.0 Chrome/37.0.0.0 Mobile MQQBrowser/6.8 TBS/036824 Safari/537.36 MicroMessenger/6.3.25.861 NetType/WIFI Language/zh_CN'
p367
sg16
S'a99ab370e64d24f26be3f68dcc313bb1'
p368
sa(dp369
g2
S'5376'
p370
sg4
S'8192'
p371
sg6
S'9a3bb90ea999051f1b5a6584aa020244'
p372
sg8
S'xx6167b391b7e97497497cd47433b9e3cc'
p373
sg10
S'xx7c11889d568b644595fc506dc352723e'
p374
sg12
S'xx03a578a7a7a96e7ff20390a07263c7fe'
p375
sg14
S'Mozilla/5.0 (Linux; Android 4.4.4; 1107 Build/KTU84P) AppleWebKit/537.36 (KHTML, like Gecko) Version/4.0 Chrome/37.0.0.0 Mobile MQQBrowser/6.8 TBS/036824 Safari/537.36 MicroMessenger/6.3.25.861 NetType/WIFI Language/zh_CN'
p376
sg16
S'a99ab370e64d24f26be3f68dcc313bb1'
p377
sa(dp378
g2
S'5376'
p379
sg4
S'8206'
p380
sg6
S'9a3bb90ea999051f1b5a6584aa020244'
p381
sg8
S'xx6167b391b7e97497497cd47433b9e3cc'
p382
sg10
S'xx7c11889d568b644595fc506dc352723e'
p383
sg12
S'xx03a578a7a7a96e7ff20390a07263c7fe'
p384
sg14
S'Mozilla/5.0 (Linux; Android 4.4.4; 1107 Build/KTU84P) AppleWebKit/537.36 (KHTML, like Gecko) Version/4.0 Chrome/37.0.0.0 Mobile MQQBrowser/6.8 TBS/036824 Safari/537.36 MicroMessenger/6.3.25.861 NetType/WIFI Language/zh_CN'
p385
sg16
S'a99ab370e64d24f26be3f68dcc313bb1'
p386
sa(dp387
g2
S'31447'
p388
sg4
S'8286'
p389
sg6
S'10d6e9ba5a7f89e5422202990b7f2ea2'
p390
sg8
S'xx248442dfb89a00590952737e46fc9a32'
p391
sg10
S'xx7c11889d568b644595fc506dc352723e'
p392
sg12
S'xx03a578a7a7a96e7ff20390a07263c7fe'
p393
sg14
S'Mozilla/5.0 (Linux; Android 4.4.4; 1107 Build/KTU84P) AppleWebKit/537.36 (KHTML, like Gecko) Version/4.0 Chrome/37.0.0.0 Mobile MQQBrowser/6.8 TBS/036869 Safari/537.36 MicroMessenger/6.3.27.880 NetType/WIFI Language/zh_CN'
p394
sg16
S'458fa508ced7536648835697fe2a45b6'
p395
sa(dp396
g2
S'31447'
p397
sg4
S'8299'
p398
sg6
S'10d6e9ba5a7f89e5422202990b7f2ea2'
p399
sg8
S'xx248442dfb89a00590952737e46fc9a32'
p400
sg10
S'xx7c11889d568b644595fc506dc352723e'
p401
sg12
S'xx03a578a7a7a96e7ff20390a07263c7fe'
p402
sg14
S'Mozilla/5.0 (Linux; Android 4.4.4; 1107 Build/KTU84P) AppleWebKit/537.36 (KHTML, like Gecko) Version/4.0 Chrome/37.0.0.0 Mobile MQQBrowser/6.8 TBS/036869 Safari/537.36 MicroMessenger/6.3.27.880 NetType/WIFI Language/zh_CN'
p403
sg16
S'458fa508ced7536648835697fe2a45b6'
p404
sa(dp405
g2
S'5376'
p406
sg4
S'8615'
p407
sg6
S'9a3bb90ea999051f1b5a6584aa020244'
p408
sg8
S'xx6167b391b7e97497497cd47433b9e3cc'
p409
sg10
S'xx7c11889d568b644595fc506dc352723e'
p410
sg12
S'xx03a578a7a7a96e7ff20390a07263c7fe'
p411
sg14
S'Mozilla/5.0 (Linux; Android 4.4.4; 1107 Build/KTU84P) AppleWebKit/537.36 (KHTML, like Gecko) Version/4.0 Chrome/37.0.0.0 Mobile MQQBrowser/6.8 TBS/036824 Safari/537.36 MicroMessenger/6.3.25.861 NetType/WIFI Language/zh_CN'
p412
sg16
S'a99ab370e64d24f26be3f68dcc313bb1'
p413
sa(dp414
g2
S'5376'
p415
sg4
S'8634'
p416
sg6
S'9a3bb90ea999051f1b5a6584aa020244'
p417
sg8
S'xx6167b391b7e97497497cd47433b9e3cc'
p418
sg10
S'xx7c11889d568b644595fc506dc352723e'
p419
sg12
S'xx03a578a7a7a96e7ff20390a07263c7fe'
p420
sg14
S'Mozilla/5.0 (Linux; Android 4.4.4; 1107 Build/KTU84P) AppleWebKit/537.36 (KHTML, like Gecko) Version/4.0 Chrome/37.0.0.0 Mobile MQQBrowser/6.8 TBS/036824 Safari/537.36 MicroMessenger/6.3.25.861 NetType/WIFI Language/zh_CN'
p421
sg16
S'a99ab370e64d24f26be3f68dcc313bb1'
p422
sa(dp423
g2
S'32447'
p424
sg4
S'8664'
p425
sg6
S'1537e900b1b6ba3d5ce5c92ff8a89779'
p426
sg8
S'xx227bfd37b35c55fbbf09f50563f8394a'
p427
sg10
S'xx5238f37c535cff86b8355230f1604fa5'
p428
sg12
S'xx03a578a7a7a96e7ff20390a07263c7fe'
p429
sg14
S'Mozilla/5.0 (Linux; Android 4.4.4; 1107 Build/KTU84P) AppleWebKit/537.36 (KHTML, like Gecko) Version/4.0 Chrome/37.0.0.0 Mobile MQQBrowser/6.8 TBS/036865 Safari/537.36 MicroMessenger/6.3.27.880 NetType/WIFI Language/zh_CN'
p430
sg16
S'bd9238cf66bb6d9e32550fe29321a014'
p431
sa(dp432
g2
S'5376'
p433
sg4
S'8671'
p434
sg6
S'9a3bb90ea999051f1b5a6584aa020244'
p435
sg8
S'xx6167b391b7e97497497cd47433b9e3cc'
p436
sg10
S'xx7c11889d568b644595fc506dc352723e'
p437
sg12
S'xx03a578a7a7a96e7ff20390a07263c7fe'
p438
sg14
S'Mozilla/5.0 (Linux; Android 4.4.4; 1107 Build/KTU84P) AppleWebKit/537.36 (KHTML, like Gecko) Version/4.0 Chrome/37.0.0.0 Mobile MQQBrowser/6.8 TBS/036824 Safari/537.36 MicroMessenger/6.3.25.861 NetType/WIFI Language/zh_CN'
p439
sg16
S'a99ab370e64d24f26be3f68dcc313bb1'
p440
sa(dp441
g2
S'32447'
p442
sg4
S'8686'
p443
sg6
S'1537e900b1b6ba3d5ce5c92ff8a89779'
p444
sg8
S'xx227bfd37b35c55fbbf09f50563f8394a'
p445
sg10
S'xx5238f37c535cff86b8355230f1604fa5'
p446
sg12
S'xx03a578a7a7a96e7ff20390a07263c7fe'
p447
sg14
S'Mozilla/5.0 (Linux; Android 4.4.4; 1107 Build/KTU84P) AppleWebKit/537.36 (KHTML, like Gecko) Version/4.0 Chrome/37.0.0.0 Mobile MQQBrowser/6.8 TBS/036865 Safari/537.36 MicroMessenger/6.3.27.880 NetType/WIFI Language/zh_CN'
p448
sg16
S'bd9238cf66bb6d9e32550fe29321a014'
p449
sa(dp450
g2
S'32447'
p451
sg4
S'8703'
p452
sg6
S'1537e900b1b6ba3d5ce5c92ff8a89779'
p453
sg8
S'xx227bfd37b35c55fbbf09f50563f8394a'
p454
sg10
S'xx5238f37c535cff86b8355230f1604fa5'
p455
sg12
S'xx03a578a7a7a96e7ff20390a07263c7fe'
p456
sg14
S'Mozilla/5.0 (Linux; Android 4.4.4; 1107 Build/KTU84P) AppleWebKit/537.36 (KHTML, like Gecko) Version/4.0 Chrome/37.0.0.0 Mobile MQQBrowser/6.8 TBS/036865 Safari/537.36 MicroMessenger/6.3.27.880 NetType/WIFI Language/zh_CN'
p457
sg16
S'bd9238cf66bb6d9e32550fe29321a014'
p458
sa.