(lp0
(dp1
S'user_id'
p2
S'35658'
p3
sS'data_id'
p4
S'1825'
p5
sS'ip'
p6
S'b7755fddefce9a0832f5c58fd3b91ae5'
p7
sS'phone_B'
p8
S'xx5f93bb231bdc9b4f5efc83452456beef'
p9
sS'phone_C'
p10
S'xx5ba6e83ab19ca3a94d39ebfc36eb8d6b'
p11
sS'phone_A'
p12
S'xx03d1b544e7a0b82fb5f32f273a38d73a'
p13
sS'user_agent'
p14
S'Mozilla/5.0 (Linux; Android 4.4.4; gucci Build/KTU84P) AppleWebKit/537.36 (KHTML, like Gecko) Version/4.0 Chrome/37.0.0.0 Mobile MQQBrowser/6.8 TBS/036849 Safari/537.36 MicroMessenger/6.3.27.880 NetType/ctnet Language/zh_CN'
p15
sS'ua'
p16
S'8b7a61281167ea90394571d6de24f85d'
p17
sa(dp18
g2
S'35658'
p19
sg4
S'1837'
p20
sg6
S'b7755fddefce9a0832f5c58fd3b91ae5'
p21
sg8
S'xx5f93bb231bdc9b4f5efc83452456beef'
p22
sg10
S'xx5ba6e83ab19ca3a94d39ebfc36eb8d6b'
p23
sg12
S'xx03d1b544e7a0b82fb5f32f273a38d73a'
p24
sg14
S'Mozilla/5.0 (Linux; Android 4.4.4; gucci Build/KTU84P) AppleWebKit/537.36 (KHTML, like Gecko) Version/4.0 Chrome/37.0.0.0 Mobile MQQBrowser/6.8 TBS/036849 Safari/537.36 MicroMessenger/6.3.27.880 NetType/ctnet Language/zh_CN'
p25
sg16
S'8b7a61281167ea90394571d6de24f85d'
p26
sa.