(lp0
(dp1
S'user_id'
p2
S'29244'
p3
sS'data_id'
p4
S'8544'
p5
sS'ip'
p6
S'03f52a4f7e66c7ccc384ce91e7bd50e9'
p7
sS'phone_B'
p8
S'xx21cc13e11e7ec7784b8ba539288e4bf2'
p9
sS'phone_C'
p10
S'xx52151d64d779d05003cb50bd155cc58b'
p11
sS'phone_A'
p12
S'xx043ce510667d8d84eff7327d2d0e98bf'
p13
sS'user_agent'
p14
S'Mozilla/5.0 (Linux; Android 4.3; SM-G7106 Build/JLS36C) AppleWebKit/537.36 (KHTML, like Gecko) Version/4.0 Chrome/37.0.0.0 Mobile MQQBrowser/6.8 TBS/036869 Safari/537.36 MicroMessenger/6.3.27.880 NetType/WIFI Language/zh_CN'
p15
sS'ua'
p16
S'aed0d65cb465953e69feaa133850cab7'
p17
sa(dp18
g2
S'29244'
p19
sg4
S'8560'
p20
sg6
S'03f52a4f7e66c7ccc384ce91e7bd50e9'
p21
sg8
S'xx21cc13e11e7ec7784b8ba539288e4bf2'
p22
sg10
S'xx52151d64d779d05003cb50bd155cc58b'
p23
sg12
S'xx043ce510667d8d84eff7327d2d0e98bf'
p24
sg14
S'Mozilla/5.0 (Linux; Android 4.3; SM-G7106 Build/JLS36C) AppleWebKit/537.36 (KHTML, like Gecko) Version/4.0 Chrome/37.0.0.0 Mobile MQQBrowser/6.8 TBS/036869 Safari/537.36 MicroMessenger/6.3.27.880 NetType/WIFI Language/zh_CN'
p25
sg16
S'aed0d65cb465953e69feaa133850cab7'
p26
sa.