(lp0
(dp1
S'user_id'
p2
S'39895'
p3
sS'data_id'
p4
S'883'
p5
sS'ip'
p6
S'5b48c78089c6f21a864d9e71cbaf0c9d'
p7
sS'phone_B'
p8
S'xxed9c58388c0ca14db920ce6bc2ac6a8d'
p9
sS'phone_C'
p10
S'xxf74adb47125fcfaa0b2929aa433fcb5b'
p11
sS'phone_A'
p12
S'xx04d406bdb9111e31da402046d12860ad'
p13
sS'user_agent'
p14
S'Mozilla/5.0 (Linux; Android 5.1; SM-J7008 Build/LMY47O) AppleWebKit/537.36 (KHTML, like Gecko) Version/4.0 Chrome/37.0.0.0 Mobile MQQBrowser/6.8 TBS/036824 Safari/537.36 MicroMessenger/6.3.27.880 NetType/WIFI Language/zh_CN'
p15
sS'ua'
p16
S'432108ae3ab300685e4492c332448608'
p17
sa(dp18
g2
S'39895'
p19
sg4
S'901'
p20
sg6
S'5b48c78089c6f21a864d9e71cbaf0c9d'
p21
sg8
S'xxed9c58388c0ca14db920ce6bc2ac6a8d'
p22
sg10
S'xxf74adb47125fcfaa0b2929aa433fcb5b'
p23
sg12
S'xx04d406bdb9111e31da402046d12860ad'
p24
sg14
S'Mozilla/5.0 (Linux; Android 5.1; SM-J7008 Build/LMY47O) AppleWebKit/537.36 (KHTML, like Gecko) Version/4.0 Chrome/37.0.0.0 Mobile MQQBrowser/6.8 TBS/036824 Safari/537.36 MicroMessenger/6.3.27.880 NetType/WIFI Language/zh_CN'
p25
sg16
S'432108ae3ab300685e4492c332448608'
p26
sa(dp27
g2
S'39895'
p28
sg4
S'962'
p29
sg6
S'5b48c78089c6f21a864d9e71cbaf0c9d'
p30
sg8
S'xxed9c58388c0ca14db920ce6bc2ac6a8d'
p31
sg10
S'xxf74adb47125fcfaa0b2929aa433fcb5b'
p32
sg12
S'xx04d406bdb9111e31da402046d12860ad'
p33
sg14
S'Mozilla/5.0 (Linux; Android 5.1; SM-J7008 Build/LMY47O) AppleWebKit/537.36 (KHTML, like Gecko) Version/4.0 Chrome/37.0.0.0 Mobile MQQBrowser/6.8 TBS/036824 Safari/537.36 MicroMessenger/6.3.27.880 NetType/WIFI Language/zh_CN'
p34
sg16
S'432108ae3ab300685e4492c332448608'
p35
sa(dp36
g2
S'42393'
p37
sg4
S'1306'
p38
sg6
S'5b48c78089c6f21a864d9e71cbaf0c9d'
p39
sg8
S'xxed9c58388c0ca14db920ce6bc2ac6a8d'
p40
sg10
S'xxf74adb47125fcfaa0b2929aa433fcb5b'
p41
sg12
S'xx04d406bdb9111e31da402046d12860ad'
p42
sg14
S'Mozilla/5.0 (Linux; Android 5.1; SM-J7008 Build/LMY47O) AppleWebKit/537.36 (KHTML, like Gecko) Version/4.0 Chrome/37.0.0.0 Mobile MQQBrowser/6.8 TBS/036824 Safari/537.36 MicroMessenger/6.3.27.880 NetType/WIFI Language/zh_CN'
p43
sg16
S'432108ae3ab300685e4492c332448608'
p44
sa(dp45
g2
S'42393'
p46
sg4
S'1320'
p47
sg6
S'5b48c78089c6f21a864d9e71cbaf0c9d'
p48
sg8
S'xxed9c58388c0ca14db920ce6bc2ac6a8d'
p49
sg10
S'xxf74adb47125fcfaa0b2929aa433fcb5b'
p50
sg12
S'xx04d406bdb9111e31da402046d12860ad'
p51
sg14
S'Mozilla/5.0 (Linux; Android 5.1; SM-J7008 Build/LMY47O) AppleWebKit/537.36 (KHTML, like Gecko) Version/4.0 Chrome/37.0.0.0 Mobile MQQBrowser/6.8 TBS/036824 Safari/537.36 MicroMessenger/6.3.27.880 NetType/WIFI Language/zh_CN'
p52
sg16
S'432108ae3ab300685e4492c332448608'
p53
sa(dp54
g2
S'42393'
p55
sg4
S'1332'
p56
sg6
S'5b48c78089c6f21a864d9e71cbaf0c9d'
p57
sg8
S'xxed9c58388c0ca14db920ce6bc2ac6a8d'
p58
sg10
S'xxf74adb47125fcfaa0b2929aa433fcb5b'
p59
sg12
S'xx04d406bdb9111e31da402046d12860ad'
p60
sg14
S'Mozilla/5.0 (Linux; Android 5.1; SM-J7008 Build/LMY47O) AppleWebKit/537.36 (KHTML, like Gecko) Version/4.0 Chrome/37.0.0.0 Mobile MQQBrowser/6.8 TBS/036824 Safari/537.36 MicroMessenger/6.3.27.880 NetType/WIFI Language/zh_CN'
p61
sg16
S'432108ae3ab300685e4492c332448608'
p62
sa(dp63
g2
S'42393'
p64
sg4
S'2371'
p65
sg6
S'5b48c78089c6f21a864d9e71cbaf0c9d'
p66
sg8
S'xxed9c58388c0ca14db920ce6bc2ac6a8d'
p67
sg10
S'xxf74adb47125fcfaa0b2929aa433fcb5b'
p68
sg12
S'xx04d406bdb9111e31da402046d12860ad'
p69
sg14
S'Mozilla/5.0 (Linux; Android 5.1; SM-J7008 Build/LMY47O) AppleWebKit/537.36 (KHTML, like Gecko) Version/4.0 Chrome/37.0.0.0 Mobile MQQBrowser/6.8 TBS/036824 Safari/537.36 MicroMessenger/6.3.27.880 NetType/WIFI Language/zh_CN'
p70
sg16
S'432108ae3ab300685e4492c332448608'
p71
sa(dp72
g2
S'42393'
p73
sg4
S'2388'
p74
sg6
S'5b48c78089c6f21a864d9e71cbaf0c9d'
p75
sg8
S'xxed9c58388c0ca14db920ce6bc2ac6a8d'
p76
sg10
S'xxf74adb47125fcfaa0b2929aa433fcb5b'
p77
sg12
S'xx04d406bdb9111e31da402046d12860ad'
p78
sg14
S'Mozilla/5.0 (Linux; Android 5.1; SM-J7008 Build/LMY47O) AppleWebKit/537.36 (KHTML, like Gecko) Version/4.0 Chrome/37.0.0.0 Mobile MQQBrowser/6.8 TBS/036824 Safari/537.36 MicroMessenger/6.3.27.880 NetType/WIFI Language/zh_CN'
p79
sg16
S'432108ae3ab300685e4492c332448608'
p80
sa(dp81
g2
S'39895'
p82
sg4
S'2465'
p83
sg6
S'5b48c78089c6f21a864d9e71cbaf0c9d'
p84
sg8
S'xxdb22f878ebe8a1b0b36ff54f2406130e'
p85
sg10
S'xxf74adb47125fcfaa0b2929aa433fcb5b'
p86
sg12
S'xx04d406bdb9111e31da402046d12860ad'
p87
sg14
S'Mozilla/5.0 (Linux; Android 5.1; SM-J7008 Build/LMY47O) AppleWebKit/537.36 (KHTML, like Gecko) Version/4.0 Chrome/37.0.0.0 Mobile MQQBrowser/6.8 TBS/036849 Safari/537.36 MicroMessenger/6.3.27.880 NetType/WIFI Language/zh_CN'
p88
sg16
S'11357e55a7115feb61c59461a1b49ee5'
p89
sa(dp90
g2
S'42393'
p91
sg4
S'2561'
p92
sg6
S'5b48c78089c6f21a864d9e71cbaf0c9d'
p93
sg8
S'xxed9c58388c0ca14db920ce6bc2ac6a8d'
p94
sg10
S'xxf74adb47125fcfaa0b2929aa433fcb5b'
p95
sg12
S'xx04d406bdb9111e31da402046d12860ad'
p96
sg14
S'Mozilla/5.0 (Linux; Android 5.1; SM-J7008 Build/LMY47O) AppleWebKit/537.36 (KHTML, like Gecko) Version/4.0 Chrome/37.0.0.0 Mobile MQQBrowser/6.8 TBS/036824 Safari/537.36 MicroMessenger/6.3.27.880 NetType/WIFI Language/zh_CN'
p97
sg16
S'432108ae3ab300685e4492c332448608'
p98
sa(dp99
g2
S'42393'
p100
sg4
S'2579'
p101
sg6
S'5b48c78089c6f21a864d9e71cbaf0c9d'
p102
sg8
S'xxed9c58388c0ca14db920ce6bc2ac6a8d'
p103
sg10
S'xxf74adb47125fcfaa0b2929aa433fcb5b'
p104
sg12
S'xx04d406bdb9111e31da402046d12860ad'
p105
sg14
S'Mozilla/5.0 (Linux; Android 5.1; SM-J7008 Build/LMY47O) AppleWebKit/537.36 (KHTML, like Gecko) Version/4.0 Chrome/37.0.0.0 Mobile MQQBrowser/6.8 TBS/036824 Safari/537.36 MicroMessenger/6.3.27.880 NetType/WIFI Language/zh_CN'
p106
sg16
S'432108ae3ab300685e4492c332448608'
p107
sa(dp108
g2
S'39895'
p109
sg4
S'2590'
p110
sg6
S'5b48c78089c6f21a864d9e71cbaf0c9d'
p111
sg8
S'xxdb22f878ebe8a1b0b36ff54f2406130e'
p112
sg10
S'xxf74adb47125fcfaa0b2929aa433fcb5b'
p113
sg12
S'xx04d406bdb9111e31da402046d12860ad'
p114
sg14
S'Mozilla/5.0 (Linux; Android 5.1; SM-J7008 Build/LMY47O) AppleWebKit/537.36 (KHTML, like Gecko) Version/4.0 Chrome/37.0.0.0 Mobile MQQBrowser/6.8 TBS/036849 Safari/537.36 MicroMessenger/6.3.27.880 NetType/WIFI Language/zh_CN'
p115
sg16
S'11357e55a7115feb61c59461a1b49ee5'
p116
sa(dp117
g2
S'42393'
p118
sg4
S'2597'
p119
sg6
S'5b48c78089c6f21a864d9e71cbaf0c9d'
p120
sg8
S'xxed9c58388c0ca14db920ce6bc2ac6a8d'
p121
sg10
S'xxf74adb47125fcfaa0b2929aa433fcb5b'
p122
sg12
S'xx04d406bdb9111e31da402046d12860ad'
p123
sg14
S'Mozilla/5.0 (Linux; Android 5.1; SM-J7008 Build/LMY47O) AppleWebKit/537.36 (KHTML, like Gecko) Version/4.0 Chrome/37.0.0.0 Mobile MQQBrowser/6.8 TBS/036824 Safari/537.36 MicroMessenger/6.3.27.880 NetType/WIFI Language/zh_CN'
p124
sg16
S'432108ae3ab300685e4492c332448608'
p125
sa(dp126
g2
S'39895'
p127
sg4
S'2604'
p128
sg6
S'5b48c78089c6f21a864d9e71cbaf0c9d'
p129
sg8
S'xxdb22f878ebe8a1b0b36ff54f2406130e'
p130
sg10
S'xxf74adb47125fcfaa0b2929aa433fcb5b'
p131
sg12
S'xx04d406bdb9111e31da402046d12860ad'
p132
sg14
S'Mozilla/5.0 (Linux; Android 5.1; SM-J7008 Build/LMY47O) AppleWebKit/537.36 (KHTML, like Gecko) Version/4.0 Chrome/37.0.0.0 Mobile MQQBrowser/6.8 TBS/036849 Safari/537.36 MicroMessenger/6.3.27.880 NetType/WIFI Language/zh_CN'
p133
sg16
S'11357e55a7115feb61c59461a1b49ee5'
p134
sa(dp135
g2
S'42393'
p136
sg4
S'2612'
p137
sg6
S'5b48c78089c6f21a864d9e71cbaf0c9d'
p138
sg8
S'xxed9c58388c0ca14db920ce6bc2ac6a8d'
p139
sg10
S'xxf74adb47125fcfaa0b2929aa433fcb5b'
p140
sg12
S'xx04d406bdb9111e31da402046d12860ad'
p141
sg14
S'Mozilla/5.0 (Linux; Android 5.1; SM-J7008 Build/LMY47O) AppleWebKit/537.36 (KHTML, like Gecko) Version/4.0 Chrome/37.0.0.0 Mobile MQQBrowser/6.8 TBS/036824 Safari/537.36 MicroMessenger/6.3.27.880 NetType/WIFI Language/zh_CN'
p142
sg16
S'432108ae3ab300685e4492c332448608'
p143
sa(dp144
g2
S'39895'
p145
sg4
S'2618'
p146
sg6
S'5b48c78089c6f21a864d9e71cbaf0c9d'
p147
sg8
S'xxdb22f878ebe8a1b0b36ff54f2406130e'
p148
sg10
S'xxf74adb47125fcfaa0b2929aa433fcb5b'
p149
sg12
S'xx04d406bdb9111e31da402046d12860ad'
p150
sg14
S'Mozilla/5.0 (Linux; Android 5.1; SM-J7008 Build/LMY47O) AppleWebKit/537.36 (KHTML, like Gecko) Version/4.0 Chrome/37.0.0.0 Mobile MQQBrowser/6.8 TBS/036849 Safari/537.36 MicroMessenger/6.3.27.880 NetType/WIFI Language/zh_CN'
p151
sg16
S'11357e55a7115feb61c59461a1b49ee5'
p152
sa(dp153
g2
S'39895'
p154
sg4
S'2637'
p155
sg6
S'5b48c78089c6f21a864d9e71cbaf0c9d'
p156
sg8
S'xxdb22f878ebe8a1b0b36ff54f2406130e'
p157
sg10
S'xxf74adb47125fcfaa0b2929aa433fcb5b'
p158
sg12
S'xx04d406bdb9111e31da402046d12860ad'
p159
sg14
S'Mozilla/5.0 (Linux; Android 5.1; SM-J7008 Build/LMY47O) AppleWebKit/537.36 (KHTML, like Gecko) Version/4.0 Chrome/37.0.0.0 Mobile MQQBrowser/6.8 TBS/036849 Safari/537.36 MicroMessenger/6.3.27.880 NetType/WIFI Language/zh_CN'
p160
sg16
S'11357e55a7115feb61c59461a1b49ee5'
p161
sa(dp162
g2
S'42393'
p163
sg4
S'2645'
p164
sg6
S'5b48c78089c6f21a864d9e71cbaf0c9d'
p165
sg8
S'xxed9c58388c0ca14db920ce6bc2ac6a8d'
p166
sg10
S'xxf74adb47125fcfaa0b2929aa433fcb5b'
p167
sg12
S'xx04d406bdb9111e31da402046d12860ad'
p168
sg14
S'Mozilla/5.0 (Linux; Android 5.1; SM-J7008 Build/LMY47O) AppleWebKit/537.36 (KHTML, like Gecko) Version/4.0 Chrome/37.0.0.0 Mobile MQQBrowser/6.8 TBS/036824 Safari/537.36 MicroMessenger/6.3.27.880 NetType/WIFI Language/zh_CN'
p169
sg16
S'432108ae3ab300685e4492c332448608'
p170
sa(dp171
g2
S'39895'
p172
sg4
S'2658'
p173
sg6
S'5b48c78089c6f21a864d9e71cbaf0c9d'
p174
sg8
S'xxdb22f878ebe8a1b0b36ff54f2406130e'
p175
sg10
S'xxf74adb47125fcfaa0b2929aa433fcb5b'
p176
sg12
S'xx04d406bdb9111e31da402046d12860ad'
p177
sg14
S'Mozilla/5.0 (Linux; Android 5.1; SM-J7008 Build/LMY47O) AppleWebKit/537.36 (KHTML, like Gecko) Version/4.0 Chrome/37.0.0.0 Mobile MQQBrowser/6.8 TBS/036849 Safari/537.36 MicroMessenger/6.3.27.880 NetType/WIFI Language/zh_CN'
p178
sg16
S'11357e55a7115feb61c59461a1b49ee5'
p179
sa(dp180
g2
S'42393'
p181
sg4
S'2661'
p182
sg6
S'5b48c78089c6f21a864d9e71cbaf0c9d'
p183
sg8
S'xxed9c58388c0ca14db920ce6bc2ac6a8d'
p184
sg10
S'xxf74adb47125fcfaa0b2929aa433fcb5b'
p185
sg12
S'xx04d406bdb9111e31da402046d12860ad'
p186
sg14
S'Mozilla/5.0 (Linux; Android 5.1; SM-J7008 Build/LMY47O) AppleWebKit/537.36 (KHTML, like Gecko) Version/4.0 Chrome/37.0.0.0 Mobile MQQBrowser/6.8 TBS/036824 Safari/537.36 MicroMessenger/6.3.27.880 NetType/WIFI Language/zh_CN'
p187
sg16
S'432108ae3ab300685e4492c332448608'
p188
sa(dp189
g2
S'39895'
p190
sg4
S'2680'
p191
sg6
S'5b48c78089c6f21a864d9e71cbaf0c9d'
p192
sg8
S'xxdb22f878ebe8a1b0b36ff54f2406130e'
p193
sg10
S'xxf74adb47125fcfaa0b2929aa433fcb5b'
p194
sg12
S'xx04d406bdb9111e31da402046d12860ad'
p195
sg14
S'Mozilla/5.0 (Linux; Android 5.1; SM-J7008 Build/LMY47O) AppleWebKit/537.36 (KHTML, like Gecko) Version/4.0 Chrome/37.0.0.0 Mobile MQQBrowser/6.8 TBS/036849 Safari/537.36 MicroMessenger/6.3.27.880 NetType/WIFI Language/zh_CN'
p196
sg16
S'11357e55a7115feb61c59461a1b49ee5'
p197
sa(dp198
g2
S'42393'
p199
sg4
S'2685'
p200
sg6
S'5b48c78089c6f21a864d9e71cbaf0c9d'
p201
sg8
S'xxed9c58388c0ca14db920ce6bc2ac6a8d'
p202
sg10
S'xxf74adb47125fcfaa0b2929aa433fcb5b'
p203
sg12
S'xx04d406bdb9111e31da402046d12860ad'
p204
sg14
S'Mozilla/5.0 (Linux; Android 5.1; SM-J7008 Build/LMY47O) AppleWebKit/537.36 (KHTML, like Gecko) Version/4.0 Chrome/37.0.0.0 Mobile MQQBrowser/6.8 TBS/036824 Safari/537.36 MicroMessenger/6.3.27.880 NetType/WIFI Language/zh_CN'
p205
sg16
S'432108ae3ab300685e4492c332448608'
p206
sa(dp207
g2
S'42393'
p208
sg4
S'2704'
p209
sg6
S'5b48c78089c6f21a864d9e71cbaf0c9d'
p210
sg8
S'xxed9c58388c0ca14db920ce6bc2ac6a8d'
p211
sg10
S'xxf74adb47125fcfaa0b2929aa433fcb5b'
p212
sg12
S'xx04d406bdb9111e31da402046d12860ad'
p213
sg14
S'Mozilla/5.0 (Linux; Android 5.1; SM-J7008 Build/LMY47O) AppleWebKit/537.36 (KHTML, like Gecko) Version/4.0 Chrome/37.0.0.0 Mobile MQQBrowser/6.8 TBS/036824 Safari/537.36 MicroMessenger/6.3.27.880 NetType/WIFI Language/zh_CN'
p214
sg16
S'432108ae3ab300685e4492c332448608'
p215
sa(dp216
g2
S'39895'
p217
sg4
S'2709'
p218
sg6
S'5b48c78089c6f21a864d9e71cbaf0c9d'
p219
sg8
S'xxdb22f878ebe8a1b0b36ff54f2406130e'
p220
sg10
S'xxf74adb47125fcfaa0b2929aa433fcb5b'
p221
sg12
S'xx04d406bdb9111e31da402046d12860ad'
p222
sg14
S'Mozilla/5.0 (Linux; Android 5.1; SM-J7008 Build/LMY47O) AppleWebKit/537.36 (KHTML, like Gecko) Version/4.0 Chrome/37.0.0.0 Mobile MQQBrowser/6.8 TBS/036849 Safari/537.36 MicroMessenger/6.3.27.880 NetType/WIFI Language/zh_CN'
p223
sg16
S'11357e55a7115feb61c59461a1b49ee5'
p224
sa(dp225
g2
S'42393'
p226
sg4
S'2725'
p227
sg6
S'5b48c78089c6f21a864d9e71cbaf0c9d'
p228
sg8
S'xxed9c58388c0ca14db920ce6bc2ac6a8d'
p229
sg10
S'xxf74adb47125fcfaa0b2929aa433fcb5b'
p230
sg12
S'xx04d406bdb9111e31da402046d12860ad'
p231
sg14
S'Mozilla/5.0 (Linux; Android 5.1; SM-J7008 Build/LMY47O) AppleWebKit/537.36 (KHTML, like Gecko) Version/4.0 Chrome/37.0.0.0 Mobile MQQBrowser/6.8 TBS/036824 Safari/537.36 MicroMessenger/6.3.27.880 NetType/WIFI Language/zh_CN'
p232
sg16
S'432108ae3ab300685e4492c332448608'
p233
sa(dp234
g2
S'42393'
p235
sg4
S'2758'
p236
sg6
S'5b48c78089c6f21a864d9e71cbaf0c9d'
p237
sg8
S'xxed9c58388c0ca14db920ce6bc2ac6a8d'
p238
sg10
S'xxf74adb47125fcfaa0b2929aa433fcb5b'
p239
sg12
S'xx04d406bdb9111e31da402046d12860ad'
p240
sg14
S'Mozilla/5.0 (Linux; Android 5.1; SM-J7008 Build/LMY47O) AppleWebKit/537.36 (KHTML, like Gecko) Version/4.0 Chrome/37.0.0.0 Mobile MQQBrowser/6.8 TBS/036824 Safari/537.36 MicroMessenger/6.3.27.880 NetType/WIFI Language/zh_CN'
p241
sg16
S'432108ae3ab300685e4492c332448608'
p242
sa(dp243
g2
S'42393'
p244
sg4
S'2811'
p245
sg6
S'5b48c78089c6f21a864d9e71cbaf0c9d'
p246
sg8
S'xxed9c58388c0ca14db920ce6bc2ac6a8d'
p247
sg10
S'xxf74adb47125fcfaa0b2929aa433fcb5b'
p248
sg12
S'xx04d406bdb9111e31da402046d12860ad'
p249
sg14
S'Mozilla/5.0 (Linux; Android 5.1; SM-J7008 Build/LMY47O) AppleWebKit/537.36 (KHTML, like Gecko) Version/4.0 Chrome/37.0.0.0 Mobile MQQBrowser/6.8 TBS/036824 Safari/537.36 MicroMessenger/6.3.27.880 NetType/WIFI Language/zh_CN'
p250
sg16
S'432108ae3ab300685e4492c332448608'
p251
sa(dp252
g2
S'42393'
p253
sg4
S'2845'
p254
sg6
S'5b48c78089c6f21a864d9e71cbaf0c9d'
p255
sg8
S'xxed9c58388c0ca14db920ce6bc2ac6a8d'
p256
sg10
S'xxf74adb47125fcfaa0b2929aa433fcb5b'
p257
sg12
S'xx04d406bdb9111e31da402046d12860ad'
p258
sg14
S'Mozilla/5.0 (Linux; Android 5.1; SM-J7008 Build/LMY47O) AppleWebKit/537.36 (KHTML, like Gecko) Version/4.0 Chrome/37.0.0.0 Mobile MQQBrowser/6.8 TBS/036824 Safari/537.36 MicroMessenger/6.3.27.880 NetType/WIFI Language/zh_CN'
p259
sg16
S'432108ae3ab300685e4492c332448608'
p260
sa(dp261
g2
S'39895'
p262
sg4
S'2878'
p263
sg6
S'5b48c78089c6f21a864d9e71cbaf0c9d'
p264
sg8
S'xxdb22f878ebe8a1b0b36ff54f2406130e'
p265
sg10
S'xxf74adb47125fcfaa0b2929aa433fcb5b'
p266
sg12
S'xx04d406bdb9111e31da402046d12860ad'
p267
sg14
S'Mozilla/5.0 (Linux; Android 5.1; SM-J7008 Build/LMY47O) AppleWebKit/537.36 (KHTML, like Gecko) Version/4.0 Chrome/37.0.0.0 Mobile MQQBrowser/6.8 TBS/036849 Safari/537.36 MicroMessenger/6.3.27.880 NetType/WIFI Language/zh_CN'
p268
sg16
S'11357e55a7115feb61c59461a1b49ee5'
p269
sa(dp270
g2
S'39895'
p271
sg4
S'2900'
p272
sg6
S'5b48c78089c6f21a864d9e71cbaf0c9d'
p273
sg8
S'xxdb22f878ebe8a1b0b36ff54f2406130e'
p274
sg10
S'xxf74adb47125fcfaa0b2929aa433fcb5b'
p275
sg12
S'xx04d406bdb9111e31da402046d12860ad'
p276
sg14
S'Mozilla/5.0 (Linux; Android 5.1; SM-J7008 Build/LMY47O) AppleWebKit/537.36 (KHTML, like Gecko) Version/4.0 Chrome/37.0.0.0 Mobile MQQBrowser/6.8 TBS/036849 Safari/537.36 MicroMessenger/6.3.27.880 NetType/WIFI Language/zh_CN'
p277
sg16
S'11357e55a7115feb61c59461a1b49ee5'
p278
sa(dp279
g2
S'39895'
p280
sg4
S'2917'
p281
sg6
S'5b48c78089c6f21a864d9e71cbaf0c9d'
p282
sg8
S'xxdb22f878ebe8a1b0b36ff54f2406130e'
p283
sg10
S'xxf74adb47125fcfaa0b2929aa433fcb5b'
p284
sg12
S'xx04d406bdb9111e31da402046d12860ad'
p285
sg14
S'Mozilla/5.0 (Linux; Android 5.1; SM-J7008 Build/LMY47O) AppleWebKit/537.36 (KHTML, like Gecko) Version/4.0 Chrome/37.0.0.0 Mobile MQQBrowser/6.8 TBS/036849 Safari/537.36 MicroMessenger/6.3.27.880 NetType/WIFI Language/zh_CN'
p286
sg16
S'11357e55a7115feb61c59461a1b49ee5'
p287
sa(dp288
g2
S'39895'
p289
sg4
S'2936'
p290
sg6
S'5b48c78089c6f21a864d9e71cbaf0c9d'
p291
sg8
S'xxdb22f878ebe8a1b0b36ff54f2406130e'
p292
sg10
S'xxf74adb47125fcfaa0b2929aa433fcb5b'
p293
sg12
S'xx04d406bdb9111e31da402046d12860ad'
p294
sg14
S'Mozilla/5.0 (Linux; Android 5.1; SM-J7008 Build/LMY47O) AppleWebKit/537.36 (KHTML, like Gecko) Version/4.0 Chrome/37.0.0.0 Mobile MQQBrowser/6.8 TBS/036849 Safari/537.36 MicroMessenger/6.3.27.880 NetType/WIFI Language/zh_CN'
p295
sg16
S'11357e55a7115feb61c59461a1b49ee5'
p296
sa(dp297
g2
S'42393'
p298
sg4
S'2943'
p299
sg6
S'5b48c78089c6f21a864d9e71cbaf0c9d'
p300
sg8
S'xxed9c58388c0ca14db920ce6bc2ac6a8d'
p301
sg10
S'xxf74adb47125fcfaa0b2929aa433fcb5b'
p302
sg12
S'xx04d406bdb9111e31da402046d12860ad'
p303
sg14
S'Mozilla/5.0 (Linux; Android 5.1; SM-J7008 Build/LMY47O) AppleWebKit/537.36 (KHTML, like Gecko) Version/4.0 Chrome/37.0.0.0 Mobile MQQBrowser/6.8 TBS/036824 Safari/537.36 MicroMessenger/6.3.27.880 NetType/WIFI Language/zh_CN'
p304
sg16
S'432108ae3ab300685e4492c332448608'
p305
sa(dp306
g2
S'39895'
p307
sg4
S'2957'
p308
sg6
S'5b48c78089c6f21a864d9e71cbaf0c9d'
p309
sg8
S'xxdb22f878ebe8a1b0b36ff54f2406130e'
p310
sg10
S'xxf74adb47125fcfaa0b2929aa433fcb5b'
p311
sg12
S'xx04d406bdb9111e31da402046d12860ad'
p312
sg14
S'Mozilla/5.0 (Linux; Android 5.1; SM-J7008 Build/LMY47O) AppleWebKit/537.36 (KHTML, like Gecko) Version/4.0 Chrome/37.0.0.0 Mobile MQQBrowser/6.8 TBS/036849 Safari/537.36 MicroMessenger/6.3.27.880 NetType/WIFI Language/zh_CN'
p313
sg16
S'11357e55a7115feb61c59461a1b49ee5'
p314
sa(dp315
g2
S'42393'
p316
sg4
S'2962'
p317
sg6
S'5b48c78089c6f21a864d9e71cbaf0c9d'
p318
sg8
S'xxed9c58388c0ca14db920ce6bc2ac6a8d'
p319
sg10
S'xxf74adb47125fcfaa0b2929aa433fcb5b'
p320
sg12
S'xx04d406bdb9111e31da402046d12860ad'
p321
sg14
S'Mozilla/5.0 (Linux; Android 5.1; SM-J7008 Build/LMY47O) AppleWebKit/537.36 (KHTML, like Gecko) Version/4.0 Chrome/37.0.0.0 Mobile MQQBrowser/6.8 TBS/036824 Safari/537.36 MicroMessenger/6.3.27.880 NetType/WIFI Language/zh_CN'
p322
sg16
S'432108ae3ab300685e4492c332448608'
p323
sa(dp324
g2
S'39895'
p325
sg4
S'2974'
p326
sg6
S'5b48c78089c6f21a864d9e71cbaf0c9d'
p327
sg8
S'xxdb22f878ebe8a1b0b36ff54f2406130e'
p328
sg10
S'xxf74adb47125fcfaa0b2929aa433fcb5b'
p329
sg12
S'xx04d406bdb9111e31da402046d12860ad'
p330
sg14
S'Mozilla/5.0 (Linux; Android 5.1; SM-J7008 Build/LMY47O) AppleWebKit/537.36 (KHTML, like Gecko) Version/4.0 Chrome/37.0.0.0 Mobile MQQBrowser/6.8 TBS/036849 Safari/537.36 MicroMessenger/6.3.27.880 NetType/WIFI Language/zh_CN'
p331
sg16
S'11357e55a7115feb61c59461a1b49ee5'
p332
sa(dp333
g2
S'42393'
p334
sg4
S'2977'
p335
sg6
S'5b48c78089c6f21a864d9e71cbaf0c9d'
p336
sg8
S'xxed9c58388c0ca14db920ce6bc2ac6a8d'
p337
sg10
S'xxf74adb47125fcfaa0b2929aa433fcb5b'
p338
sg12
S'xx04d406bdb9111e31da402046d12860ad'
p339
sg14
S'Mozilla/5.0 (Linux; Android 5.1; SM-J7008 Build/LMY47O) AppleWebKit/537.36 (KHTML, like Gecko) Version/4.0 Chrome/37.0.0.0 Mobile MQQBrowser/6.8 TBS/036824 Safari/537.36 MicroMessenger/6.3.27.880 NetType/WIFI Language/zh_CN'
p340
sg16
S'432108ae3ab300685e4492c332448608'
p341
sa(dp342
g2
S'39895'
p343
sg4
S'3009'
p344
sg6
S'5b48c78089c6f21a864d9e71cbaf0c9d'
p345
sg8
S'xxdb22f878ebe8a1b0b36ff54f2406130e'
p346
sg10
S'xxf74adb47125fcfaa0b2929aa433fcb5b'
p347
sg12
S'xx04d406bdb9111e31da402046d12860ad'
p348
sg14
S'Mozilla/5.0 (Linux; Android 5.1; SM-J7008 Build/LMY47O) AppleWebKit/537.36 (KHTML, like Gecko) Version/4.0 Chrome/37.0.0.0 Mobile MQQBrowser/6.8 TBS/036849 Safari/537.36 MicroMessenger/6.3.27.880 NetType/WIFI Language/zh_CN'
p349
sg16
S'11357e55a7115feb61c59461a1b49ee5'
p350
sa(dp351
g2
S'42393'
p352
sg4
S'3010'
p353
sg6
S'5b48c78089c6f21a864d9e71cbaf0c9d'
p354
sg8
S'xxed9c58388c0ca14db920ce6bc2ac6a8d'
p355
sg10
S'xxf74adb47125fcfaa0b2929aa433fcb5b'
p356
sg12
S'xx04d406bdb9111e31da402046d12860ad'
p357
sg14
S'Mozilla/5.0 (Linux; Android 5.1; SM-J7008 Build/LMY47O) AppleWebKit/537.36 (KHTML, like Gecko) Version/4.0 Chrome/37.0.0.0 Mobile MQQBrowser/6.8 TBS/036824 Safari/537.36 MicroMessenger/6.3.27.880 NetType/WIFI Language/zh_CN'
p358
sg16
S'432108ae3ab300685e4492c332448608'
p359
sa(dp360
g2
S'39895'
p361
sg4
S'3050'
p362
sg6
S'5b48c78089c6f21a864d9e71cbaf0c9d'
p363
sg8
S'xxdb22f878ebe8a1b0b36ff54f2406130e'
p364
sg10
S'xxf74adb47125fcfaa0b2929aa433fcb5b'
p365
sg12
S'xx04d406bdb9111e31da402046d12860ad'
p366
sg14
S'Mozilla/5.0 (Linux; Android 5.1; SM-J7008 Build/LMY47O) AppleWebKit/537.36 (KHTML, like Gecko) Version/4.0 Chrome/37.0.0.0 Mobile MQQBrowser/6.8 TBS/036849 Safari/537.36 MicroMessenger/6.3.27.880 NetType/WIFI Language/zh_CN'
p367
sg16
S'11357e55a7115feb61c59461a1b49ee5'
p368
sa(dp369
g2
S'42393'
p370
sg4
S'3053'
p371
sg6
S'5b48c78089c6f21a864d9e71cbaf0c9d'
p372
sg8
S'xxed9c58388c0ca14db920ce6bc2ac6a8d'
p373
sg10
S'xxf74adb47125fcfaa0b2929aa433fcb5b'
p374
sg12
S'xx04d406bdb9111e31da402046d12860ad'
p375
sg14
S'Mozilla/5.0 (Linux; Android 5.1; SM-J7008 Build/LMY47O) AppleWebKit/537.36 (KHTML, like Gecko) Version/4.0 Chrome/37.0.0.0 Mobile MQQBrowser/6.8 TBS/036824 Safari/537.36 MicroMessenger/6.3.27.880 NetType/WIFI Language/zh_CN'
p376
sg16
S'432108ae3ab300685e4492c332448608'
p377
sa(dp378
g2
S'39895'
p379
sg4
S'3070'
p380
sg6
S'5b48c78089c6f21a864d9e71cbaf0c9d'
p381
sg8
S'xxdb22f878ebe8a1b0b36ff54f2406130e'
p382
sg10
S'xxf74adb47125fcfaa0b2929aa433fcb5b'
p383
sg12
S'xx04d406bdb9111e31da402046d12860ad'
p384
sg14
S'Mozilla/5.0 (Linux; Android 5.1; SM-J7008 Build/LMY47O) AppleWebKit/537.36 (KHTML, like Gecko) Version/4.0 Chrome/37.0.0.0 Mobile MQQBrowser/6.8 TBS/036849 Safari/537.36 MicroMessenger/6.3.27.880 NetType/WIFI Language/zh_CN'
p385
sg16
S'11357e55a7115feb61c59461a1b49ee5'
p386
sa(dp387
g2
S'39895'
p388
sg4
S'3092'
p389
sg6
S'5b48c78089c6f21a864d9e71cbaf0c9d'
p390
sg8
S'xxdb22f878ebe8a1b0b36ff54f2406130e'
p391
sg10
S'xxf74adb47125fcfaa0b2929aa433fcb5b'
p392
sg12
S'xx04d406bdb9111e31da402046d12860ad'
p393
sg14
S'Mozilla/5.0 (Linux; Android 5.1; SM-J7008 Build/LMY47O) AppleWebKit/537.36 (KHTML, like Gecko) Version/4.0 Chrome/37.0.0.0 Mobile MQQBrowser/6.8 TBS/036849 Safari/537.36 MicroMessenger/6.3.27.880 NetType/WIFI Language/zh_CN'
p394
sg16
S'11357e55a7115feb61c59461a1b49ee5'
p395
sa(dp396
g2
S'39895'
p397
sg4
S'3107'
p398
sg6
S'5b48c78089c6f21a864d9e71cbaf0c9d'
p399
sg8
S'xxdb22f878ebe8a1b0b36ff54f2406130e'
p400
sg10
S'xxf74adb47125fcfaa0b2929aa433fcb5b'
p401
sg12
S'xx04d406bdb9111e31da402046d12860ad'
p402
sg14
S'Mozilla/5.0 (Linux; Android 5.1; SM-J7008 Build/LMY47O) AppleWebKit/537.36 (KHTML, like Gecko) Version/4.0 Chrome/37.0.0.0 Mobile MQQBrowser/6.8 TBS/036849 Safari/537.36 MicroMessenger/6.3.27.880 NetType/WIFI Language/zh_CN'
p403
sg16
S'11357e55a7115feb61c59461a1b49ee5'
p404
sa(dp405
g2
S'39895'
p406
sg4
S'3127'
p407
sg6
S'5b48c78089c6f21a864d9e71cbaf0c9d'
p408
sg8
S'xxdb22f878ebe8a1b0b36ff54f2406130e'
p409
sg10
S'xxf74adb47125fcfaa0b2929aa433fcb5b'
p410
sg12
S'xx04d406bdb9111e31da402046d12860ad'
p411
sg14
S'Mozilla/5.0 (Linux; Android 5.1; SM-J7008 Build/LMY47O) AppleWebKit/537.36 (KHTML, like Gecko) Version/4.0 Chrome/37.0.0.0 Mobile MQQBrowser/6.8 TBS/036849 Safari/537.36 MicroMessenger/6.3.27.880 NetType/WIFI Language/zh_CN'
p412
sg16
S'11357e55a7115feb61c59461a1b49ee5'
p413
sa(dp414
g2
S'39895'
p415
sg4
S'3146'
p416
sg6
S'5b48c78089c6f21a864d9e71cbaf0c9d'
p417
sg8
S'xxdb22f878ebe8a1b0b36ff54f2406130e'
p418
sg10
S'xxf74adb47125fcfaa0b2929aa433fcb5b'
p419
sg12
S'xx04d406bdb9111e31da402046d12860ad'
p420
sg14
S'Mozilla/5.0 (Linux; Android 5.1; SM-J7008 Build/LMY47O) AppleWebKit/537.36 (KHTML, like Gecko) Version/4.0 Chrome/37.0.0.0 Mobile MQQBrowser/6.8 TBS/036849 Safari/537.36 MicroMessenger/6.3.27.880 NetType/WIFI Language/zh_CN'
p421
sg16
S'11357e55a7115feb61c59461a1b49ee5'
p422
sa(dp423
g2
S'39895'
p424
sg4
S'3159'
p425
sg6
S'5b48c78089c6f21a864d9e71cbaf0c9d'
p426
sg8
S'xxdb22f878ebe8a1b0b36ff54f2406130e'
p427
sg10
S'xxf74adb47125fcfaa0b2929aa433fcb5b'
p428
sg12
S'xx04d406bdb9111e31da402046d12860ad'
p429
sg14
S'Mozilla/5.0 (Linux; Android 5.1; SM-J7008 Build/LMY47O) AppleWebKit/537.36 (KHTML, like Gecko) Version/4.0 Chrome/37.0.0.0 Mobile MQQBrowser/6.8 TBS/036849 Safari/537.36 MicroMessenger/6.3.27.880 NetType/WIFI Language/zh_CN'
p430
sg16
S'11357e55a7115feb61c59461a1b49ee5'
p431
sa(dp432
g2
S'39895'
p433
sg4
S'3180'
p434
sg6
S'5b48c78089c6f21a864d9e71cbaf0c9d'
p435
sg8
S'xxdb22f878ebe8a1b0b36ff54f2406130e'
p436
sg10
S'xxf74adb47125fcfaa0b2929aa433fcb5b'
p437
sg12
S'xx04d406bdb9111e31da402046d12860ad'
p438
sg14
S'Mozilla/5.0 (Linux; Android 5.1; SM-J7008 Build/LMY47O) AppleWebKit/537.36 (KHTML, like Gecko) Version/4.0 Chrome/37.0.0.0 Mobile MQQBrowser/6.8 TBS/036849 Safari/537.36 MicroMessenger/6.3.27.880 NetType/WIFI Language/zh_CN'
p439
sg16
S'11357e55a7115feb61c59461a1b49ee5'
p440
sa(dp441
g2
S'39895'
p442
sg4
S'3195'
p443
sg6
S'5b48c78089c6f21a864d9e71cbaf0c9d'
p444
sg8
S'xxdb22f878ebe8a1b0b36ff54f2406130e'
p445
sg10
S'xxf74adb47125fcfaa0b2929aa433fcb5b'
p446
sg12
S'xx04d406bdb9111e31da402046d12860ad'
p447
sg14
S'Mozilla/5.0 (Linux; Android 5.1; SM-J7008 Build/LMY47O) AppleWebKit/537.36 (KHTML, like Gecko) Version/4.0 Chrome/37.0.0.0 Mobile MQQBrowser/6.8 TBS/036849 Safari/537.36 MicroMessenger/6.3.27.880 NetType/WIFI Language/zh_CN'
p448
sg16
S'11357e55a7115feb61c59461a1b49ee5'
p449
sa(dp450
g2
S'39895'
p451
sg4
S'3210'
p452
sg6
S'5b48c78089c6f21a864d9e71cbaf0c9d'
p453
sg8
S'xxdb22f878ebe8a1b0b36ff54f2406130e'
p454
sg10
S'xxf74adb47125fcfaa0b2929aa433fcb5b'
p455
sg12
S'xx04d406bdb9111e31da402046d12860ad'
p456
sg14
S'Mozilla/5.0 (Linux; Android 5.1; SM-J7008 Build/LMY47O) AppleWebKit/537.36 (KHTML, like Gecko) Version/4.0 Chrome/37.0.0.0 Mobile MQQBrowser/6.8 TBS/036849 Safari/537.36 MicroMessenger/6.3.27.880 NetType/WIFI Language/zh_CN'
p457
sg16
S'11357e55a7115feb61c59461a1b49ee5'
p458
sa(dp459
g2
S'39895'
p460
sg4
S'3226'
p461
sg6
S'5b48c78089c6f21a864d9e71cbaf0c9d'
p462
sg8
S'xxdb22f878ebe8a1b0b36ff54f2406130e'
p463
sg10
S'xxf74adb47125fcfaa0b2929aa433fcb5b'
p464
sg12
S'xx04d406bdb9111e31da402046d12860ad'
p465
sg14
S'Mozilla/5.0 (Linux; Android 5.1; SM-J7008 Build/LMY47O) AppleWebKit/537.36 (KHTML, like Gecko) Version/4.0 Chrome/37.0.0.0 Mobile MQQBrowser/6.8 TBS/036849 Safari/537.36 MicroMessenger/6.3.27.880 NetType/WIFI Language/zh_CN'
p466
sg16
S'11357e55a7115feb61c59461a1b49ee5'
p467
sa(dp468
g2
S'42393'
p469
sg4
S'3236'
p470
sg6
S'5b48c78089c6f21a864d9e71cbaf0c9d'
p471
sg8
S'xxed9c58388c0ca14db920ce6bc2ac6a8d'
p472
sg10
S'xxf74adb47125fcfaa0b2929aa433fcb5b'
p473
sg12
S'xx04d406bdb9111e31da402046d12860ad'
p474
sg14
S'Mozilla/5.0 (Linux; Android 5.1; SM-J7008 Build/LMY47O) AppleWebKit/537.36 (KHTML, like Gecko) Version/4.0 Chrome/37.0.0.0 Mobile MQQBrowser/6.8 TBS/036824 Safari/537.36 MicroMessenger/6.3.27.880 NetType/WIFI Language/zh_CN'
p475
sg16
S'432108ae3ab300685e4492c332448608'
p476
sa(dp477
g2
S'39895'
p478
sg4
S'3241'
p479
sg6
S'5b48c78089c6f21a864d9e71cbaf0c9d'
p480
sg8
S'xxdb22f878ebe8a1b0b36ff54f2406130e'
p481
sg10
S'xxf74adb47125fcfaa0b2929aa433fcb5b'
p482
sg12
S'xx04d406bdb9111e31da402046d12860ad'
p483
sg14
S'Mozilla/5.0 (Linux; Android 5.1; SM-J7008 Build/LMY47O) AppleWebKit/537.36 (KHTML, like Gecko) Version/4.0 Chrome/37.0.0.0 Mobile MQQBrowser/6.8 TBS/036849 Safari/537.36 MicroMessenger/6.3.27.880 NetType/WIFI Language/zh_CN'
p484
sg16
S'11357e55a7115feb61c59461a1b49ee5'
p485
sa(dp486
g2
S'42393'
p487
sg4
S'3251'
p488
sg6
S'5b48c78089c6f21a864d9e71cbaf0c9d'
p489
sg8
S'xxed9c58388c0ca14db920ce6bc2ac6a8d'
p490
sg10
S'xxf74adb47125fcfaa0b2929aa433fcb5b'
p491
sg12
S'xx04d406bdb9111e31da402046d12860ad'
p492
sg14
S'Mozilla/5.0 (Linux; Android 5.1; SM-J7008 Build/LMY47O) AppleWebKit/537.36 (KHTML, like Gecko) Version/4.0 Chrome/37.0.0.0 Mobile MQQBrowser/6.8 TBS/036824 Safari/537.36 MicroMessenger/6.3.27.880 NetType/WIFI Language/zh_CN'
p493
sg16
S'432108ae3ab300685e4492c332448608'
p494
sa(dp495
g2
S'39895'
p496
sg4
S'3256'
p497
sg6
S'5b48c78089c6f21a864d9e71cbaf0c9d'
p498
sg8
S'xxdb22f878ebe8a1b0b36ff54f2406130e'
p499
sg10
S'xxf74adb47125fcfaa0b2929aa433fcb5b'
p500
sg12
S'xx04d406bdb9111e31da402046d12860ad'
p501
sg14
S'Mozilla/5.0 (Linux; Android 5.1; SM-J7008 Build/LMY47O) AppleWebKit/537.36 (KHTML, like Gecko) Version/4.0 Chrome/37.0.0.0 Mobile MQQBrowser/6.8 TBS/036849 Safari/537.36 MicroMessenger/6.3.27.880 NetType/WIFI Language/zh_CN'
p502
sg16
S'11357e55a7115feb61c59461a1b49ee5'
p503
sa(dp504
g2
S'42393'
p505
sg4
S'3268'
p506
sg6
S'5b48c78089c6f21a864d9e71cbaf0c9d'
p507
sg8
S'xxed9c58388c0ca14db920ce6bc2ac6a8d'
p508
sg10
S'xxf74adb47125fcfaa0b2929aa433fcb5b'
p509
sg12
S'xx04d406bdb9111e31da402046d12860ad'
p510
sg14
S'Mozilla/5.0 (Linux; Android 5.1; SM-J7008 Build/LMY47O) AppleWebKit/537.36 (KHTML, like Gecko) Version/4.0 Chrome/37.0.0.0 Mobile MQQBrowser/6.8 TBS/036824 Safari/537.36 MicroMessenger/6.3.27.880 NetType/WIFI Language/zh_CN'
p511
sg16
S'432108ae3ab300685e4492c332448608'
p512
sa(dp513
g2
S'39895'
p514
sg4
S'3274'
p515
sg6
S'5b48c78089c6f21a864d9e71cbaf0c9d'
p516
sg8
S'xxdb22f878ebe8a1b0b36ff54f2406130e'
p517
sg10
S'xxf74adb47125fcfaa0b2929aa433fcb5b'
p518
sg12
S'xx04d406bdb9111e31da402046d12860ad'
p519
sg14
S'Mozilla/5.0 (Linux; Android 5.1; SM-J7008 Build/LMY47O) AppleWebKit/537.36 (KHTML, like Gecko) Version/4.0 Chrome/37.0.0.0 Mobile MQQBrowser/6.8 TBS/036849 Safari/537.36 MicroMessenger/6.3.27.880 NetType/WIFI Language/zh_CN'
p520
sg16
S'11357e55a7115feb61c59461a1b49ee5'
p521
sa(dp522
g2
S'39895'
p523
sg4
S'3328'
p524
sg6
S'5b48c78089c6f21a864d9e71cbaf0c9d'
p525
sg8
S'xxdb22f878ebe8a1b0b36ff54f2406130e'
p526
sg10
S'xxf74adb47125fcfaa0b2929aa433fcb5b'
p527
sg12
S'xx04d406bdb9111e31da402046d12860ad'
p528
sg14
S'Mozilla/5.0 (Linux; Android 5.1; SM-J7008 Build/LMY47O) AppleWebKit/537.36 (KHTML, like Gecko) Version/4.0 Chrome/37.0.0.0 Mobile MQQBrowser/6.8 TBS/036849 Safari/537.36 MicroMessenger/6.3.27.880 NetType/WIFI Language/zh_CN'
p529
sg16
S'11357e55a7115feb61c59461a1b49ee5'
p530
sa(dp531
g2
S'39895'
p532
sg4
S'3339'
p533
sg6
S'5b48c78089c6f21a864d9e71cbaf0c9d'
p534
sg8
S'xxdb22f878ebe8a1b0b36ff54f2406130e'
p535
sg10
S'xxf74adb47125fcfaa0b2929aa433fcb5b'
p536
sg12
S'xx04d406bdb9111e31da402046d12860ad'
p537
sg14
S'Mozilla/5.0 (Linux; Android 5.1; SM-J7008 Build/LMY47O) AppleWebKit/537.36 (KHTML, like Gecko) Version/4.0 Chrome/37.0.0.0 Mobile MQQBrowser/6.8 TBS/036849 Safari/537.36 MicroMessenger/6.3.27.880 NetType/WIFI Language/zh_CN'
p538
sg16
S'11357e55a7115feb61c59461a1b49ee5'
p539
sa(dp540
g2
S'39895'
p541
sg4
S'3355'
p542
sg6
S'5b48c78089c6f21a864d9e71cbaf0c9d'
p543
sg8
S'xxdb22f878ebe8a1b0b36ff54f2406130e'
p544
sg10
S'xxf74adb47125fcfaa0b2929aa433fcb5b'
p545
sg12
S'xx04d406bdb9111e31da402046d12860ad'
p546
sg14
S'Mozilla/5.0 (Linux; Android 5.1; SM-J7008 Build/LMY47O) AppleWebKit/537.36 (KHTML, like Gecko) Version/4.0 Chrome/37.0.0.0 Mobile MQQBrowser/6.8 TBS/036849 Safari/537.36 MicroMessenger/6.3.27.880 NetType/WIFI Language/zh_CN'
p547
sg16
S'11357e55a7115feb61c59461a1b49ee5'
p548
sa(dp549
g2
S'39895'
p550
sg4
S'3379'
p551
sg6
S'5b48c78089c6f21a864d9e71cbaf0c9d'
p552
sg8
S'xxdb22f878ebe8a1b0b36ff54f2406130e'
p553
sg10
S'xxf74adb47125fcfaa0b2929aa433fcb5b'
p554
sg12
S'xx04d406bdb9111e31da402046d12860ad'
p555
sg14
S'Mozilla/5.0 (Linux; Android 5.1; SM-J7008 Build/LMY47O) AppleWebKit/537.36 (KHTML, like Gecko) Version/4.0 Chrome/37.0.0.0 Mobile MQQBrowser/6.8 TBS/036849 Safari/537.36 MicroMessenger/6.3.27.880 NetType/WIFI Language/zh_CN'
p556
sg16
S'11357e55a7115feb61c59461a1b49ee5'
p557
sa(dp558
g2
S'42393'
p559
sg4
S'3380'
p560
sg6
S'5b48c78089c6f21a864d9e71cbaf0c9d'
p561
sg8
S'xxed9c58388c0ca14db920ce6bc2ac6a8d'
p562
sg10
S'xxf74adb47125fcfaa0b2929aa433fcb5b'
p563
sg12
S'xx04d406bdb9111e31da402046d12860ad'
p564
sg14
S'Mozilla/5.0 (Linux; Android 5.1; SM-J7008 Build/LMY47O) AppleWebKit/537.36 (KHTML, like Gecko) Version/4.0 Chrome/37.0.0.0 Mobile MQQBrowser/6.8 TBS/036824 Safari/537.36 MicroMessenger/6.3.27.880 NetType/WIFI Language/zh_CN'
p565
sg16
S'432108ae3ab300685e4492c332448608'
p566
sa(dp567
g2
S'39895'
p568
sg4
S'3400'
p569
sg6
S'5b48c78089c6f21a864d9e71cbaf0c9d'
p570
sg8
S'xxdb22f878ebe8a1b0b36ff54f2406130e'
p571
sg10
S'xxf74adb47125fcfaa0b2929aa433fcb5b'
p572
sg12
S'xx04d406bdb9111e31da402046d12860ad'
p573
sg14
S'Mozilla/5.0 (Linux; Android 5.1; SM-J7008 Build/LMY47O) AppleWebKit/537.36 (KHTML, like Gecko) Version/4.0 Chrome/37.0.0.0 Mobile MQQBrowser/6.8 TBS/036849 Safari/537.36 MicroMessenger/6.3.27.880 NetType/WIFI Language/zh_CN'
p574
sg16
S'11357e55a7115feb61c59461a1b49ee5'
p575
sa(dp576
g2
S'39895'
p577
sg4
S'3416'
p578
sg6
S'5b48c78089c6f21a864d9e71cbaf0c9d'
p579
sg8
S'xxdb22f878ebe8a1b0b36ff54f2406130e'
p580
sg10
S'xxf74adb47125fcfaa0b2929aa433fcb5b'
p581
sg12
S'xx04d406bdb9111e31da402046d12860ad'
p582
sg14
S'Mozilla/5.0 (Linux; Android 5.1; SM-J7008 Build/LMY47O) AppleWebKit/537.36 (KHTML, like Gecko) Version/4.0 Chrome/37.0.0.0 Mobile MQQBrowser/6.8 TBS/036849 Safari/537.36 MicroMessenger/6.3.27.880 NetType/WIFI Language/zh_CN'
p583
sg16
S'11357e55a7115feb61c59461a1b49ee5'
p584
sa(dp585
g2
S'39895'
p586
sg4
S'3432'
p587
sg6
S'5b48c78089c6f21a864d9e71cbaf0c9d'
p588
sg8
S'xxdb22f878ebe8a1b0b36ff54f2406130e'
p589
sg10
S'xxf74adb47125fcfaa0b2929aa433fcb5b'
p590
sg12
S'xx04d406bdb9111e31da402046d12860ad'
p591
sg14
S'Mozilla/5.0 (Linux; Android 5.1; SM-J7008 Build/LMY47O) AppleWebKit/537.36 (KHTML, like Gecko) Version/4.0 Chrome/37.0.0.0 Mobile MQQBrowser/6.8 TBS/036849 Safari/537.36 MicroMessenger/6.3.27.880 NetType/WIFI Language/zh_CN'
p592
sg16
S'11357e55a7115feb61c59461a1b49ee5'
p593
sa(dp594
g2
S'39895'
p595
sg4
S'3450'
p596
sg6
S'5b48c78089c6f21a864d9e71cbaf0c9d'
p597
sg8
S'xxdb22f878ebe8a1b0b36ff54f2406130e'
p598
sg10
S'xxf74adb47125fcfaa0b2929aa433fcb5b'
p599
sg12
S'xx04d406bdb9111e31da402046d12860ad'
p600
sg14
S'Mozilla/5.0 (Linux; Android 5.1; SM-J7008 Build/LMY47O) AppleWebKit/537.36 (KHTML, like Gecko) Version/4.0 Chrome/37.0.0.0 Mobile MQQBrowser/6.8 TBS/036849 Safari/537.36 MicroMessenger/6.3.27.880 NetType/WIFI Language/zh_CN'
p601
sg16
S'11357e55a7115feb61c59461a1b49ee5'
p602
sa(dp603
g2
S'39895'
p604
sg4
S'3463'
p605
sg6
S'5b48c78089c6f21a864d9e71cbaf0c9d'
p606
sg8
S'xxdb22f878ebe8a1b0b36ff54f2406130e'
p607
sg10
S'xxf74adb47125fcfaa0b2929aa433fcb5b'
p608
sg12
S'xx04d406bdb9111e31da402046d12860ad'
p609
sg14
S'Mozilla/5.0 (Linux; Android 5.1; SM-J7008 Build/LMY47O) AppleWebKit/537.36 (KHTML, like Gecko) Version/4.0 Chrome/37.0.0.0 Mobile MQQBrowser/6.8 TBS/036849 Safari/537.36 MicroMessenger/6.3.27.880 NetType/WIFI Language/zh_CN'
p610
sg16
S'11357e55a7115feb61c59461a1b49ee5'
p611
sa(dp612
g2
S'39895'
p613
sg4
S'3482'
p614
sg6
S'5b48c78089c6f21a864d9e71cbaf0c9d'
p615
sg8
S'xxdb22f878ebe8a1b0b36ff54f2406130e'
p616
sg10
S'xxf74adb47125fcfaa0b2929aa433fcb5b'
p617
sg12
S'xx04d406bdb9111e31da402046d12860ad'
p618
sg14
S'Mozilla/5.0 (Linux; Android 5.1; SM-J7008 Build/LMY47O) AppleWebKit/537.36 (KHTML, like Gecko) Version/4.0 Chrome/37.0.0.0 Mobile MQQBrowser/6.8 TBS/036849 Safari/537.36 MicroMessenger/6.3.27.880 NetType/WIFI Language/zh_CN'
p619
sg16
S'11357e55a7115feb61c59461a1b49ee5'
p620
sa(dp621
g2
S'42393'
p622
sg4
S'3498'
p623
sg6
S'5b48c78089c6f21a864d9e71cbaf0c9d'
p624
sg8
S'xxed9c58388c0ca14db920ce6bc2ac6a8d'
p625
sg10
S'xxf74adb47125fcfaa0b2929aa433fcb5b'
p626
sg12
S'xx04d406bdb9111e31da402046d12860ad'
p627
sg14
S'Mozilla/5.0 (Linux; Android 5.1; SM-J7008 Build/LMY47O) AppleWebKit/537.36 (KHTML, like Gecko) Version/4.0 Chrome/37.0.0.0 Mobile MQQBrowser/6.8 TBS/036824 Safari/537.36 MicroMessenger/6.3.27.880 NetType/WIFI Language/zh_CN'
p628
sg16
S'432108ae3ab300685e4492c332448608'
p629
sa(dp630
g2
S'39895'
p631
sg4
S'3499'
p632
sg6
S'5b48c78089c6f21a864d9e71cbaf0c9d'
p633
sg8
S'xxdb22f878ebe8a1b0b36ff54f2406130e'
p634
sg10
S'xxf74adb47125fcfaa0b2929aa433fcb5b'
p635
sg12
S'xx04d406bdb9111e31da402046d12860ad'
p636
sg14
S'Mozilla/5.0 (Linux; Android 5.1; SM-J7008 Build/LMY47O) AppleWebKit/537.36 (KHTML, like Gecko) Version/4.0 Chrome/37.0.0.0 Mobile MQQBrowser/6.8 TBS/036849 Safari/537.36 MicroMessenger/6.3.27.880 NetType/WIFI Language/zh_CN'
p637
sg16
S'11357e55a7115feb61c59461a1b49ee5'
p638
sa(dp639
g2
S'42393'
p640
sg4
S'3510'
p641
sg6
S'5b48c78089c6f21a864d9e71cbaf0c9d'
p642
sg8
S'xxed9c58388c0ca14db920ce6bc2ac6a8d'
p643
sg10
S'xxf74adb47125fcfaa0b2929aa433fcb5b'
p644
sg12
S'xx04d406bdb9111e31da402046d12860ad'
p645
sg14
S'Mozilla/5.0 (Linux; Android 5.1; SM-J7008 Build/LMY47O) AppleWebKit/537.36 (KHTML, like Gecko) Version/4.0 Chrome/37.0.0.0 Mobile MQQBrowser/6.8 TBS/036824 Safari/537.36 MicroMessenger/6.3.27.880 NetType/WIFI Language/zh_CN'
p646
sg16
S'432108ae3ab300685e4492c332448608'
p647
sa(dp648
g2
S'39895'
p649
sg4
S'3514'
p650
sg6
S'5b48c78089c6f21a864d9e71cbaf0c9d'
p651
sg8
S'xxdb22f878ebe8a1b0b36ff54f2406130e'
p652
sg10
S'xxf74adb47125fcfaa0b2929aa433fcb5b'
p653
sg12
S'xx04d406bdb9111e31da402046d12860ad'
p654
sg14
S'Mozilla/5.0 (Linux; Android 5.1; SM-J7008 Build/LMY47O) AppleWebKit/537.36 (KHTML, like Gecko) Version/4.0 Chrome/37.0.0.0 Mobile MQQBrowser/6.8 TBS/036849 Safari/537.36 MicroMessenger/6.3.27.880 NetType/WIFI Language/zh_CN'
p655
sg16
S'11357e55a7115feb61c59461a1b49ee5'
p656
sa(dp657
g2
S'42393'
p658
sg4
S'3518'
p659
sg6
S'5b48c78089c6f21a864d9e71cbaf0c9d'
p660
sg8
S'xxed9c58388c0ca14db920ce6bc2ac6a8d'
p661
sg10
S'xxf74adb47125fcfaa0b2929aa433fcb5b'
p662
sg12
S'xx04d406bdb9111e31da402046d12860ad'
p663
sg14
S'Mozilla/5.0 (Linux; Android 5.1; SM-J7008 Build/LMY47O) AppleWebKit/537.36 (KHTML, like Gecko) Version/4.0 Chrome/37.0.0.0 Mobile MQQBrowser/6.8 TBS/036824 Safari/537.36 MicroMessenger/6.3.27.880 NetType/WIFI Language/zh_CN'
p664
sg16
S'432108ae3ab300685e4492c332448608'
p665
sa(dp666
g2
S'42393'
p667
sg4
S'3531'
p668
sg6
S'5b48c78089c6f21a864d9e71cbaf0c9d'
p669
sg8
S'xxed9c58388c0ca14db920ce6bc2ac6a8d'
p670
sg10
S'xxf74adb47125fcfaa0b2929aa433fcb5b'
p671
sg12
S'xx04d406bdb9111e31da402046d12860ad'
p672
sg14
S'Mozilla/5.0 (Linux; Android 5.1; SM-J7008 Build/LMY47O) AppleWebKit/537.36 (KHTML, like Gecko) Version/4.0 Chrome/37.0.0.0 Mobile MQQBrowser/6.8 TBS/036824 Safari/537.36 MicroMessenger/6.3.27.880 NetType/WIFI Language/zh_CN'
p673
sg16
S'432108ae3ab300685e4492c332448608'
p674
sa(dp675
g2
S'39895'
p676
sg4
S'3534'
p677
sg6
S'5b48c78089c6f21a864d9e71cbaf0c9d'
p678
sg8
S'xxdb22f878ebe8a1b0b36ff54f2406130e'
p679
sg10
S'xxf74adb47125fcfaa0b2929aa433fcb5b'
p680
sg12
S'xx04d406bdb9111e31da402046d12860ad'
p681
sg14
S'Mozilla/5.0 (Linux; Android 5.1; SM-J7008 Build/LMY47O) AppleWebKit/537.36 (KHTML, like Gecko) Version/4.0 Chrome/37.0.0.0 Mobile MQQBrowser/6.8 TBS/036849 Safari/537.36 MicroMessenger/6.3.27.880 NetType/WIFI Language/zh_CN'
p682
sg16
S'11357e55a7115feb61c59461a1b49ee5'
p683
sa(dp684
g2
S'42393'
p685
sg4
S'3544'
p686
sg6
S'5b48c78089c6f21a864d9e71cbaf0c9d'
p687
sg8
S'xxed9c58388c0ca14db920ce6bc2ac6a8d'
p688
sg10
S'xxf74adb47125fcfaa0b2929aa433fcb5b'
p689
sg12
S'xx04d406bdb9111e31da402046d12860ad'
p690
sg14
S'Mozilla/5.0 (Linux; Android 5.1; SM-J7008 Build/LMY47O) AppleWebKit/537.36 (KHTML, like Gecko) Version/4.0 Chrome/37.0.0.0 Mobile MQQBrowser/6.8 TBS/036824 Safari/537.36 MicroMessenger/6.3.27.880 NetType/WIFI Language/zh_CN'
p691
sg16
S'432108ae3ab300685e4492c332448608'
p692
sa(dp693
g2
S'39895'
p694
sg4
S'3548'
p695
sg6
S'5b48c78089c6f21a864d9e71cbaf0c9d'
p696
sg8
S'xxdb22f878ebe8a1b0b36ff54f2406130e'
p697
sg10
S'xxf74adb47125fcfaa0b2929aa433fcb5b'
p698
sg12
S'xx04d406bdb9111e31da402046d12860ad'
p699
sg14
S'Mozilla/5.0 (Linux; Android 5.1; SM-J7008 Build/LMY47O) AppleWebKit/537.36 (KHTML, like Gecko) Version/4.0 Chrome/37.0.0.0 Mobile MQQBrowser/6.8 TBS/036849 Safari/537.36 MicroMessenger/6.3.27.880 NetType/WIFI Language/zh_CN'
p700
sg16
S'11357e55a7115feb61c59461a1b49ee5'
p701
sa(dp702
g2
S'42393'
p703
sg4
S'3561'
p704
sg6
S'5b48c78089c6f21a864d9e71cbaf0c9d'
p705
sg8
S'xxed9c58388c0ca14db920ce6bc2ac6a8d'
p706
sg10
S'xxf74adb47125fcfaa0b2929aa433fcb5b'
p707
sg12
S'xx04d406bdb9111e31da402046d12860ad'
p708
sg14
S'Mozilla/5.0 (Linux; Android 5.1; SM-J7008 Build/LMY47O) AppleWebKit/537.36 (KHTML, like Gecko) Version/4.0 Chrome/37.0.0.0 Mobile MQQBrowser/6.8 TBS/036824 Safari/537.36 MicroMessenger/6.3.27.880 NetType/WIFI Language/zh_CN'
p709
sg16
S'432108ae3ab300685e4492c332448608'
p710
sa(dp711
g2
S'42393'
p712
sg4
S'3576'
p713
sg6
S'5b48c78089c6f21a864d9e71cbaf0c9d'
p714
sg8
S'xxed9c58388c0ca14db920ce6bc2ac6a8d'
p715
sg10
S'xxf74adb47125fcfaa0b2929aa433fcb5b'
p716
sg12
S'xx04d406bdb9111e31da402046d12860ad'
p717
sg14
S'Mozilla/5.0 (Linux; Android 5.1; SM-J7008 Build/LMY47O) AppleWebKit/537.36 (KHTML, like Gecko) Version/4.0 Chrome/37.0.0.0 Mobile MQQBrowser/6.8 TBS/036824 Safari/537.36 MicroMessenger/6.3.27.880 NetType/WIFI Language/zh_CN'
p718
sg16
S'432108ae3ab300685e4492c332448608'
p719
sa(dp720
g2
S'42393'
p721
sg4
S'3603'
p722
sg6
S'5b48c78089c6f21a864d9e71cbaf0c9d'
p723
sg8
S'xxed9c58388c0ca14db920ce6bc2ac6a8d'
p724
sg10
S'xxf74adb47125fcfaa0b2929aa433fcb5b'
p725
sg12
S'xx04d406bdb9111e31da402046d12860ad'
p726
sg14
S'Mozilla/5.0 (Linux; Android 5.1; SM-J7008 Build/LMY47O) AppleWebKit/537.36 (KHTML, like Gecko) Version/4.0 Chrome/37.0.0.0 Mobile MQQBrowser/6.8 TBS/036824 Safari/537.36 MicroMessenger/6.3.27.880 NetType/WIFI Language/zh_CN'
p727
sg16
S'432108ae3ab300685e4492c332448608'
p728
sa(dp729
g2
S'42393'
p730
sg4
S'3619'
p731
sg6
S'5b48c78089c6f21a864d9e71cbaf0c9d'
p732
sg8
S'xxed9c58388c0ca14db920ce6bc2ac6a8d'
p733
sg10
S'xxf74adb47125fcfaa0b2929aa433fcb5b'
p734
sg12
S'xx04d406bdb9111e31da402046d12860ad'
p735
sg14
S'Mozilla/5.0 (Linux; Android 5.1; SM-J7008 Build/LMY47O) AppleWebKit/537.36 (KHTML, like Gecko) Version/4.0 Chrome/37.0.0.0 Mobile MQQBrowser/6.8 TBS/036824 Safari/537.36 MicroMessenger/6.3.27.880 NetType/WIFI Language/zh_CN'
p736
sg16
S'432108ae3ab300685e4492c332448608'
p737
sa(dp738
g2
S'42393'
p739
sg4
S'3658'
p740
sg6
S'5b48c78089c6f21a864d9e71cbaf0c9d'
p741
sg8
S'xxed9c58388c0ca14db920ce6bc2ac6a8d'
p742
sg10
S'xxf74adb47125fcfaa0b2929aa433fcb5b'
p743
sg12
S'xx04d406bdb9111e31da402046d12860ad'
p744
sg14
S'Mozilla/5.0 (Linux; Android 5.1; SM-J7008 Build/LMY47O) AppleWebKit/537.36 (KHTML, like Gecko) Version/4.0 Chrome/37.0.0.0 Mobile MQQBrowser/6.8 TBS/036824 Safari/537.36 MicroMessenger/6.3.27.880 NetType/WIFI Language/zh_CN'
p745
sg16
S'432108ae3ab300685e4492c332448608'
p746
sa(dp747
g2
S'42393'
p748
sg4
S'3673'
p749
sg6
S'5b48c78089c6f21a864d9e71cbaf0c9d'
p750
sg8
S'xxed9c58388c0ca14db920ce6bc2ac6a8d'
p751
sg10
S'xxf74adb47125fcfaa0b2929aa433fcb5b'
p752
sg12
S'xx04d406bdb9111e31da402046d12860ad'
p753
sg14
S'Mozilla/5.0 (Linux; Android 5.1; SM-J7008 Build/LMY47O) AppleWebKit/537.36 (KHTML, like Gecko) Version/4.0 Chrome/37.0.0.0 Mobile MQQBrowser/6.8 TBS/036824 Safari/537.36 MicroMessenger/6.3.27.880 NetType/WIFI Language/zh_CN'
p754
sg16
S'432108ae3ab300685e4492c332448608'
p755
sa(dp756
g2
S'42393'
p757
sg4
S'3687'
p758
sg6
S'5b48c78089c6f21a864d9e71cbaf0c9d'
p759
sg8
S'xxed9c58388c0ca14db920ce6bc2ac6a8d'
p760
sg10
S'xxf74adb47125fcfaa0b2929aa433fcb5b'
p761
sg12
S'xx04d406bdb9111e31da402046d12860ad'
p762
sg14
S'Mozilla/5.0 (Linux; Android 5.1; SM-J7008 Build/LMY47O) AppleWebKit/537.36 (KHTML, like Gecko) Version/4.0 Chrome/37.0.0.0 Mobile MQQBrowser/6.8 TBS/036824 Safari/537.36 MicroMessenger/6.3.27.880 NetType/WIFI Language/zh_CN'
p763
sg16
S'432108ae3ab300685e4492c332448608'
p764
sa(dp765
g2
S'42393'
p766
sg4
S'3703'
p767
sg6
S'5b48c78089c6f21a864d9e71cbaf0c9d'
p768
sg8
S'xxed9c58388c0ca14db920ce6bc2ac6a8d'
p769
sg10
S'xxf74adb47125fcfaa0b2929aa433fcb5b'
p770
sg12
S'xx04d406bdb9111e31da402046d12860ad'
p771
sg14
S'Mozilla/5.0 (Linux; Android 5.1; SM-J7008 Build/LMY47O) AppleWebKit/537.36 (KHTML, like Gecko) Version/4.0 Chrome/37.0.0.0 Mobile MQQBrowser/6.8 TBS/036824 Safari/537.36 MicroMessenger/6.3.27.880 NetType/WIFI Language/zh_CN'
p772
sg16
S'432108ae3ab300685e4492c332448608'
p773
sa(dp774
g2
S'39895'
p775
sg4
S'3755'
p776
sg6
S'5b48c78089c6f21a864d9e71cbaf0c9d'
p777
sg8
S'xxdb22f878ebe8a1b0b36ff54f2406130e'
p778
sg10
S'xxf74adb47125fcfaa0b2929aa433fcb5b'
p779
sg12
S'xx04d406bdb9111e31da402046d12860ad'
p780
sg14
S'Mozilla/5.0 (Linux; Android 5.1; SM-J7008 Build/LMY47O) AppleWebKit/537.36 (KHTML, like Gecko) Version/4.0 Chrome/37.0.0.0 Mobile MQQBrowser/6.8 TBS/036849 Safari/537.36 MicroMessenger/6.3.27.880 NetType/WIFI Language/zh_CN'
p781
sg16
S'11357e55a7115feb61c59461a1b49ee5'
p782
sa(dp783
g2
S'39895'
p784
sg4
S'3773'
p785
sg6
S'5b48c78089c6f21a864d9e71cbaf0c9d'
p786
sg8
S'xxdb22f878ebe8a1b0b36ff54f2406130e'
p787
sg10
S'xxf74adb47125fcfaa0b2929aa433fcb5b'
p788
sg12
S'xx04d406bdb9111e31da402046d12860ad'
p789
sg14
S'Mozilla/5.0 (Linux; Android 5.1; SM-J7008 Build/LMY47O) AppleWebKit/537.36 (KHTML, like Gecko) Version/4.0 Chrome/37.0.0.0 Mobile MQQBrowser/6.8 TBS/036849 Safari/537.36 MicroMessenger/6.3.27.880 NetType/WIFI Language/zh_CN'
p790
sg16
S'11357e55a7115feb61c59461a1b49ee5'
p791
sa(dp792
g2
S'39895'
p793
sg4
S'3779'
p794
sg6
S'5b48c78089c6f21a864d9e71cbaf0c9d'
p795
sg8
S'xxdb22f878ebe8a1b0b36ff54f2406130e'
p796
sg10
S'xxf74adb47125fcfaa0b2929aa433fcb5b'
p797
sg12
S'xx04d406bdb9111e31da402046d12860ad'
p798
sg14
S'Mozilla/5.0 (Linux; Android 5.1; SM-J7008 Build/LMY47O) AppleWebKit/537.36 (KHTML, like Gecko) Version/4.0 Chrome/37.0.0.0 Mobile MQQBrowser/6.8 TBS/036849 Safari/537.36 MicroMessenger/6.3.27.880 NetType/WIFI Language/zh_CN'
p799
sg16
S'11357e55a7115feb61c59461a1b49ee5'
p800
sa(dp801
g2
S'39895'
p802
sg4
S'3794'
p803
sg6
S'5b48c78089c6f21a864d9e71cbaf0c9d'
p804
sg8
S'xxdb22f878ebe8a1b0b36ff54f2406130e'
p805
sg10
S'xxf74adb47125fcfaa0b2929aa433fcb5b'
p806
sg12
S'xx04d406bdb9111e31da402046d12860ad'
p807
sg14
S'Mozilla/5.0 (Linux; Android 5.1; SM-J7008 Build/LMY47O) AppleWebKit/537.36 (KHTML, like Gecko) Version/4.0 Chrome/37.0.0.0 Mobile MQQBrowser/6.8 TBS/036849 Safari/537.36 MicroMessenger/6.3.27.880 NetType/WIFI Language/zh_CN'
p808
sg16
S'11357e55a7115feb61c59461a1b49ee5'
p809
sa(dp810
g2
S'39895'
p811
sg4
S'3811'
p812
sg6
S'5b48c78089c6f21a864d9e71cbaf0c9d'
p813
sg8
S'xxdb22f878ebe8a1b0b36ff54f2406130e'
p814
sg10
S'xxf74adb47125fcfaa0b2929aa433fcb5b'
p815
sg12
S'xx04d406bdb9111e31da402046d12860ad'
p816
sg14
S'Mozilla/5.0 (Linux; Android 5.1; SM-J7008 Build/LMY47O) AppleWebKit/537.36 (KHTML, like Gecko) Version/4.0 Chrome/37.0.0.0 Mobile MQQBrowser/6.8 TBS/036849 Safari/537.36 MicroMessenger/6.3.27.880 NetType/WIFI Language/zh_CN'
p817
sg16
S'11357e55a7115feb61c59461a1b49ee5'
p818
sa(dp819
g2
S'39895'
p820
sg4
S'3832'
p821
sg6
S'5b48c78089c6f21a864d9e71cbaf0c9d'
p822
sg8
S'xxdb22f878ebe8a1b0b36ff54f2406130e'
p823
sg10
S'xxf74adb47125fcfaa0b2929aa433fcb5b'
p824
sg12
S'xx04d406bdb9111e31da402046d12860ad'
p825
sg14
S'Mozilla/5.0 (Linux; Android 5.1; SM-J7008 Build/LMY47O) AppleWebKit/537.36 (KHTML, like Gecko) Version/4.0 Chrome/37.0.0.0 Mobile MQQBrowser/6.8 TBS/036849 Safari/537.36 MicroMessenger/6.3.27.880 NetType/WIFI Language/zh_CN'
p826
sg16
S'11357e55a7115feb61c59461a1b49ee5'
p827
sa(dp828
g2
S'39895'
p829
sg4
S'3856'
p830
sg6
S'5b48c78089c6f21a864d9e71cbaf0c9d'
p831
sg8
S'xxdb22f878ebe8a1b0b36ff54f2406130e'
p832
sg10
S'xxf74adb47125fcfaa0b2929aa433fcb5b'
p833
sg12
S'xx04d406bdb9111e31da402046d12860ad'
p834
sg14
S'Mozilla/5.0 (Linux; Android 5.1; SM-J7008 Build/LMY47O) AppleWebKit/537.36 (KHTML, like Gecko) Version/4.0 Chrome/37.0.0.0 Mobile MQQBrowser/6.8 TBS/036849 Safari/537.36 MicroMessenger/6.3.27.880 NetType/WIFI Language/zh_CN'
p835
sg16
S'11357e55a7115feb61c59461a1b49ee5'
p836
sa(dp837
g2
S'42393'
p838
sg4
S'3858'
p839
sg6
S'5b48c78089c6f21a864d9e71cbaf0c9d'
p840
sg8
S'xxed9c58388c0ca14db920ce6bc2ac6a8d'
p841
sg10
S'xxf74adb47125fcfaa0b2929aa433fcb5b'
p842
sg12
S'xx04d406bdb9111e31da402046d12860ad'
p843
sg14
S'Mozilla/5.0 (Linux; Android 5.1; SM-J7008 Build/LMY47O) AppleWebKit/537.36 (KHTML, like Gecko) Version/4.0 Chrome/37.0.0.0 Mobile MQQBrowser/6.8 TBS/036824 Safari/537.36 MicroMessenger/6.3.27.880 NetType/WIFI Language/zh_CN'
p844
sg16
S'432108ae3ab300685e4492c332448608'
p845
sa(dp846
g2
S'42393'
p847
sg4
S'3875'
p848
sg6
S'5b48c78089c6f21a864d9e71cbaf0c9d'
p849
sg8
S'xxed9c58388c0ca14db920ce6bc2ac6a8d'
p850
sg10
S'xxf74adb47125fcfaa0b2929aa433fcb5b'
p851
sg12
S'xx04d406bdb9111e31da402046d12860ad'
p852
sg14
S'Mozilla/5.0 (Linux; Android 5.1; SM-J7008 Build/LMY47O) AppleWebKit/537.36 (KHTML, like Gecko) Version/4.0 Chrome/37.0.0.0 Mobile MQQBrowser/6.8 TBS/036824 Safari/537.36 MicroMessenger/6.3.27.880 NetType/WIFI Language/zh_CN'
p853
sg16
S'432108ae3ab300685e4492c332448608'
p854
sa(dp855
g2
S'39895'
p856
sg4
S'3876'
p857
sg6
S'5b48c78089c6f21a864d9e71cbaf0c9d'
p858
sg8
S'xxdb22f878ebe8a1b0b36ff54f2406130e'
p859
sg10
S'xxf74adb47125fcfaa0b2929aa433fcb5b'
p860
sg12
S'xx04d406bdb9111e31da402046d12860ad'
p861
sg14
S'Mozilla/5.0 (Linux; Android 5.1; SM-J7008 Build/LMY47O) AppleWebKit/537.36 (KHTML, like Gecko) Version/4.0 Chrome/37.0.0.0 Mobile MQQBrowser/6.8 TBS/036849 Safari/537.36 MicroMessenger/6.3.27.880 NetType/WIFI Language/zh_CN'
p862
sg16
S'11357e55a7115feb61c59461a1b49ee5'
p863
sa(dp864
g2
S'39895'
p865
sg4
S'3898'
p866
sg6
S'5b48c78089c6f21a864d9e71cbaf0c9d'
p867
sg8
S'xxdb22f878ebe8a1b0b36ff54f2406130e'
p868
sg10
S'xxf74adb47125fcfaa0b2929aa433fcb5b'
p869
sg12
S'xx04d406bdb9111e31da402046d12860ad'
p870
sg14
S'Mozilla/5.0 (Linux; Android 5.1; SM-J7008 Build/LMY47O) AppleWebKit/537.36 (KHTML, like Gecko) Version/4.0 Chrome/37.0.0.0 Mobile MQQBrowser/6.8 TBS/036849 Safari/537.36 MicroMessenger/6.3.27.880 NetType/WIFI Language/zh_CN'
p871
sg16
S'11357e55a7115feb61c59461a1b49ee5'
p872
sa(dp873
g2
S'39895'
p874
sg4
S'3917'
p875
sg6
S'5b48c78089c6f21a864d9e71cbaf0c9d'
p876
sg8
S'xxdb22f878ebe8a1b0b36ff54f2406130e'
p877
sg10
S'xxf74adb47125fcfaa0b2929aa433fcb5b'
p878
sg12
S'xx04d406bdb9111e31da402046d12860ad'
p879
sg14
S'Mozilla/5.0 (Linux; Android 5.1; SM-J7008 Build/LMY47O) AppleWebKit/537.36 (KHTML, like Gecko) Version/4.0 Chrome/37.0.0.0 Mobile MQQBrowser/6.8 TBS/036849 Safari/537.36 MicroMessenger/6.3.27.880 NetType/WIFI Language/zh_CN'
p880
sg16
S'11357e55a7115feb61c59461a1b49ee5'
p881
sa(dp882
g2
S'39895'
p883
sg4
S'3938'
p884
sg6
S'5b48c78089c6f21a864d9e71cbaf0c9d'
p885
sg8
S'xxdb22f878ebe8a1b0b36ff54f2406130e'
p886
sg10
S'xxf74adb47125fcfaa0b2929aa433fcb5b'
p887
sg12
S'xx04d406bdb9111e31da402046d12860ad'
p888
sg14
S'Mozilla/5.0 (Linux; Android 5.1; SM-J7008 Build/LMY47O) AppleWebKit/537.36 (KHTML, like Gecko) Version/4.0 Chrome/37.0.0.0 Mobile MQQBrowser/6.8 TBS/036849 Safari/537.36 MicroMessenger/6.3.27.880 NetType/WIFI Language/zh_CN'
p889
sg16
S'11357e55a7115feb61c59461a1b49ee5'
p890
sa(dp891
g2
S'39895'
p892
sg4
S'3969'
p893
sg6
S'5b48c78089c6f21a864d9e71cbaf0c9d'
p894
sg8
S'xxdb22f878ebe8a1b0b36ff54f2406130e'
p895
sg10
S'xxf74adb47125fcfaa0b2929aa433fcb5b'
p896
sg12
S'xx04d406bdb9111e31da402046d12860ad'
p897
sg14
S'Mozilla/5.0 (Linux; Android 5.1; SM-J7008 Build/LMY47O) AppleWebKit/537.36 (KHTML, like Gecko) Version/4.0 Chrome/37.0.0.0 Mobile MQQBrowser/6.8 TBS/036849 Safari/537.36 MicroMessenger/6.3.27.880 NetType/WIFI Language/zh_CN'
p898
sg16
S'11357e55a7115feb61c59461a1b49ee5'
p899
sa(dp900
g2
S'39895'
p901
sg4
S'3986'
p902
sg6
S'5b48c78089c6f21a864d9e71cbaf0c9d'
p903
sg8
S'xxdb22f878ebe8a1b0b36ff54f2406130e'
p904
sg10
S'xxf74adb47125fcfaa0b2929aa433fcb5b'
p905
sg12
S'xx04d406bdb9111e31da402046d12860ad'
p906
sg14
S'Mozilla/5.0 (Linux; Android 5.1; SM-J7008 Build/LMY47O) AppleWebKit/537.36 (KHTML, like Gecko) Version/4.0 Chrome/37.0.0.0 Mobile MQQBrowser/6.8 TBS/036849 Safari/537.36 MicroMessenger/6.3.27.880 NetType/WIFI Language/zh_CN'
p907
sg16
S'11357e55a7115feb61c59461a1b49ee5'
p908
sa(dp909
g2
S'39895'
p910
sg4
S'4033'
p911
sg6
S'5b48c78089c6f21a864d9e71cbaf0c9d'
p912
sg8
S'xxdb22f878ebe8a1b0b36ff54f2406130e'
p913
sg10
S'xxf74adb47125fcfaa0b2929aa433fcb5b'
p914
sg12
S'xx04d406bdb9111e31da402046d12860ad'
p915
sg14
S'Mozilla/5.0 (Linux; Android 5.1; SM-J7008 Build/LMY47O) AppleWebKit/537.36 (KHTML, like Gecko) Version/4.0 Chrome/37.0.0.0 Mobile MQQBrowser/6.8 TBS/036849 Safari/537.36 MicroMessenger/6.3.27.880 NetType/WIFI Language/zh_CN'
p916
sg16
S'11357e55a7115feb61c59461a1b49ee5'
p917
sa(dp918
g2
S'39895'
p919
sg4
S'4048'
p920
sg6
S'5b48c78089c6f21a864d9e71cbaf0c9d'
p921
sg8
S'xxdb22f878ebe8a1b0b36ff54f2406130e'
p922
sg10
S'xxf74adb47125fcfaa0b2929aa433fcb5b'
p923
sg12
S'xx04d406bdb9111e31da402046d12860ad'
p924
sg14
S'Mozilla/5.0 (Linux; Android 5.1; SM-J7008 Build/LMY47O) AppleWebKit/537.36 (KHTML, like Gecko) Version/4.0 Chrome/37.0.0.0 Mobile MQQBrowser/6.8 TBS/036849 Safari/537.36 MicroMessenger/6.3.27.880 NetType/WIFI Language/zh_CN'
p925
sg16
S'11357e55a7115feb61c59461a1b49ee5'
p926
sa(dp927
g2
S'39895'
p928
sg4
S'4071'
p929
sg6
S'5b48c78089c6f21a864d9e71cbaf0c9d'
p930
sg8
S'xxdb22f878ebe8a1b0b36ff54f2406130e'
p931
sg10
S'xxf74adb47125fcfaa0b2929aa433fcb5b'
p932
sg12
S'xx04d406bdb9111e31da402046d12860ad'
p933
sg14
S'Mozilla/5.0 (Linux; Android 5.1; SM-J7008 Build/LMY47O) AppleWebKit/537.36 (KHTML, like Gecko) Version/4.0 Chrome/37.0.0.0 Mobile MQQBrowser/6.8 TBS/036849 Safari/537.36 MicroMessenger/6.3.27.880 NetType/WIFI Language/zh_CN'
p934
sg16
S'11357e55a7115feb61c59461a1b49ee5'
p935
sa(dp936
g2
S'42393'
p937
sg4
S'4091'
p938
sg6
S'5b48c78089c6f21a864d9e71cbaf0c9d'
p939
sg8
S'xxed9c58388c0ca14db920ce6bc2ac6a8d'
p940
sg10
S'xxf74adb47125fcfaa0b2929aa433fcb5b'
p941
sg12
S'xx04d406bdb9111e31da402046d12860ad'
p942
sg14
S'Mozilla/5.0 (Linux; Android 5.1; SM-J7008 Build/LMY47O) AppleWebKit/537.36 (KHTML, like Gecko) Version/4.0 Chrome/37.0.0.0 Mobile MQQBrowser/6.8 TBS/036824 Safari/537.36 MicroMessenger/6.3.27.880 NetType/WIFI Language/zh_CN'
p943
sg16
S'432108ae3ab300685e4492c332448608'
p944
sa(dp945
g2
S'39895'
p946
sg4
S'4101'
p947
sg6
S'5b48c78089c6f21a864d9e71cbaf0c9d'
p948
sg8
S'xxdb22f878ebe8a1b0b36ff54f2406130e'
p949
sg10
S'xxf74adb47125fcfaa0b2929aa433fcb5b'
p950
sg12
S'xx04d406bdb9111e31da402046d12860ad'
p951
sg14
S'Mozilla/5.0 (Linux; Android 5.1; SM-J7008 Build/LMY47O) AppleWebKit/537.36 (KHTML, like Gecko) Version/4.0 Chrome/37.0.0.0 Mobile MQQBrowser/6.8 TBS/036849 Safari/537.36 MicroMessenger/6.3.27.880 NetType/WIFI Language/zh_CN'
p952
sg16
S'11357e55a7115feb61c59461a1b49ee5'
p953
sa(dp954
g2
S'42393'
p955
sg4
S'4117'
p956
sg6
S'5b48c78089c6f21a864d9e71cbaf0c9d'
p957
sg8
S'xxed9c58388c0ca14db920ce6bc2ac6a8d'
p958
sg10
S'xxf74adb47125fcfaa0b2929aa433fcb5b'
p959
sg12
S'xx04d406bdb9111e31da402046d12860ad'
p960
sg14
S'Mozilla/5.0 (Linux; Android 5.1; SM-J7008 Build/LMY47O) AppleWebKit/537.36 (KHTML, like Gecko) Version/4.0 Chrome/37.0.0.0 Mobile MQQBrowser/6.8 TBS/036824 Safari/537.36 MicroMessenger/6.3.27.880 NetType/WIFI Language/zh_CN'
p961
sg16
S'432108ae3ab300685e4492c332448608'
p962
sa(dp963
g2
S'39895'
p964
sg4
S'4129'
p965
sg6
S'5b48c78089c6f21a864d9e71cbaf0c9d'
p966
sg8
S'xxdb22f878ebe8a1b0b36ff54f2406130e'
p967
sg10
S'xxf74adb47125fcfaa0b2929aa433fcb5b'
p968
sg12
S'xx04d406bdb9111e31da402046d12860ad'
p969
sg14
S'Mozilla/5.0 (Linux; Android 5.1; SM-J7008 Build/LMY47O) AppleWebKit/537.36 (KHTML, like Gecko) Version/4.0 Chrome/37.0.0.0 Mobile MQQBrowser/6.8 TBS/036849 Safari/537.36 MicroMessenger/6.3.27.880 NetType/WIFI Language/zh_CN'
p970
sg16
S'11357e55a7115feb61c59461a1b49ee5'
p971
sa(dp972
g2
S'42393'
p973
sg4
S'4147'
p974
sg6
S'5b48c78089c6f21a864d9e71cbaf0c9d'
p975
sg8
S'xxed9c58388c0ca14db920ce6bc2ac6a8d'
p976
sg10
S'xxf74adb47125fcfaa0b2929aa433fcb5b'
p977
sg12
S'xx04d406bdb9111e31da402046d12860ad'
p978
sg14
S'Mozilla/5.0 (Linux; Android 5.1; SM-J7008 Build/LMY47O) AppleWebKit/537.36 (KHTML, like Gecko) Version/4.0 Chrome/37.0.0.0 Mobile MQQBrowser/6.8 TBS/036824 Safari/537.36 MicroMessenger/6.3.27.880 NetType/WIFI Language/zh_CN'
p979
sg16
S'432108ae3ab300685e4492c332448608'
p980
sa(dp981
g2
S'39895'
p982
sg4
S'4153'
p983
sg6
S'5b48c78089c6f21a864d9e71cbaf0c9d'
p984
sg8
S'xxdb22f878ebe8a1b0b36ff54f2406130e'
p985
sg10
S'xxf74adb47125fcfaa0b2929aa433fcb5b'
p986
sg12
S'xx04d406bdb9111e31da402046d12860ad'
p987
sg14
S'Mozilla/5.0 (Linux; Android 5.1; SM-J7008 Build/LMY47O) AppleWebKit/537.36 (KHTML, like Gecko) Version/4.0 Chrome/37.0.0.0 Mobile MQQBrowser/6.8 TBS/036849 Safari/537.36 MicroMessenger/6.3.27.880 NetType/WIFI Language/zh_CN'
p988
sg16
S'11357e55a7115feb61c59461a1b49ee5'
p989
sa(dp990
g2
S'42393'
p991
sg4
S'4167'
p992
sg6
S'5b48c78089c6f21a864d9e71cbaf0c9d'
p993
sg8
S'xxed9c58388c0ca14db920ce6bc2ac6a8d'
p994
sg10
S'xxf74adb47125fcfaa0b2929aa433fcb5b'
p995
sg12
S'xx04d406bdb9111e31da402046d12860ad'
p996
sg14
S'Mozilla/5.0 (Linux; Android 5.1; SM-J7008 Build/LMY47O) AppleWebKit/537.36 (KHTML, like Gecko) Version/4.0 Chrome/37.0.0.0 Mobile MQQBrowser/6.8 TBS/036824 Safari/537.36 MicroMessenger/6.3.27.880 NetType/WIFI Language/zh_CN'
p997
sg16
S'432108ae3ab300685e4492c332448608'
p998
sa(dp999
g2
S'39895'
p1000
sg4
S'4170'
p1001
sg6
S'5b48c78089c6f21a864d9e71cbaf0c9d'
p1002
sg8
S'xxdb22f878ebe8a1b0b36ff54f2406130e'
p1003
sg10
S'xxf74adb47125fcfaa0b2929aa433fcb5b'
p1004
sg12
S'xx04d406bdb9111e31da402046d12860ad'
p1005
sg14
S'Mozilla/5.0 (Linux; Android 5.1; SM-J7008 Build/LMY47O) AppleWebKit/537.36 (KHTML, like Gecko) Version/4.0 Chrome/37.0.0.0 Mobile MQQBrowser/6.8 TBS/036849 Safari/537.36 MicroMessenger/6.3.27.880 NetType/WIFI Language/zh_CN'
p1006
sg16
S'11357e55a7115feb61c59461a1b49ee5'
p1007
sa(dp1008
g2
S'42393'
p1009
sg4
S'4189'
p1010
sg6
S'5b48c78089c6f21a864d9e71cbaf0c9d'
p1011
sg8
S'xxed9c58388c0ca14db920ce6bc2ac6a8d'
p1012
sg10
S'xxf74adb47125fcfaa0b2929aa433fcb5b'
p1013
sg12
S'xx04d406bdb9111e31da402046d12860ad'
p1014
sg14
S'Mozilla/5.0 (Linux; Android 5.1; SM-J7008 Build/LMY47O) AppleWebKit/537.36 (KHTML, like Gecko) Version/4.0 Chrome/37.0.0.0 Mobile MQQBrowser/6.8 TBS/036824 Safari/537.36 MicroMessenger/6.3.27.880 NetType/WIFI Language/zh_CN'
p1015
sg16
S'432108ae3ab300685e4492c332448608'
p1016
sa(dp1017
g2
S'39895'
p1018
sg4
S'4193'
p1019
sg6
S'5b48c78089c6f21a864d9e71cbaf0c9d'
p1020
sg8
S'xxdb22f878ebe8a1b0b36ff54f2406130e'
p1021
sg10
S'xxf74adb47125fcfaa0b2929aa433fcb5b'
p1022
sg12
S'xx04d406bdb9111e31da402046d12860ad'
p1023
sg14
S'Mozilla/5.0 (Linux; Android 5.1; SM-J7008 Build/LMY47O) AppleWebKit/537.36 (KHTML, like Gecko) Version/4.0 Chrome/37.0.0.0 Mobile MQQBrowser/6.8 TBS/036849 Safari/537.36 MicroMessenger/6.3.27.880 NetType/WIFI Language/zh_CN'
p1024
sg16
S'11357e55a7115feb61c59461a1b49ee5'
p1025
sa(dp1026
g2
S'42393'
p1027
sg4
S'4216'
p1028
sg6
S'5b48c78089c6f21a864d9e71cbaf0c9d'
p1029
sg8
S'xxed9c58388c0ca14db920ce6bc2ac6a8d'
p1030
sg10
S'xxf74adb47125fcfaa0b2929aa433fcb5b'
p1031
sg12
S'xx04d406bdb9111e31da402046d12860ad'
p1032
sg14
S'Mozilla/5.0 (Linux; Android 5.1; SM-J7008 Build/LMY47O) AppleWebKit/537.36 (KHTML, like Gecko) Version/4.0 Chrome/37.0.0.0 Mobile MQQBrowser/6.8 TBS/036824 Safari/537.36 MicroMessenger/6.3.27.880 NetType/WIFI Language/zh_CN'
p1033
sg16
S'432108ae3ab300685e4492c332448608'
p1034
sa(dp1035
g2
S'42393'
p1036
sg4
S'4240'
p1037
sg6
S'5b48c78089c6f21a864d9e71cbaf0c9d'
p1038
sg8
S'xxed9c58388c0ca14db920ce6bc2ac6a8d'
p1039
sg10
S'xxf74adb47125fcfaa0b2929aa433fcb5b'
p1040
sg12
S'xx04d406bdb9111e31da402046d12860ad'
p1041
sg14
S'Mozilla/5.0 (Linux; Android 5.1; SM-J7008 Build/LMY47O) AppleWebKit/537.36 (KHTML, like Gecko) Version/4.0 Chrome/37.0.0.0 Mobile MQQBrowser/6.8 TBS/036824 Safari/537.36 MicroMessenger/6.3.27.880 NetType/WIFI Language/zh_CN'
p1042
sg16
S'432108ae3ab300685e4492c332448608'
p1043
sa(dp1044
g2
S'39895'
p1045
sg4
S'4251'
p1046
sg6
S'5b48c78089c6f21a864d9e71cbaf0c9d'
p1047
sg8
S'xxdb22f878ebe8a1b0b36ff54f2406130e'
p1048
sg10
S'xxf74adb47125fcfaa0b2929aa433fcb5b'
p1049
sg12
S'xx04d406bdb9111e31da402046d12860ad'
p1050
sg14
S'Mozilla/5.0 (Linux; Android 5.1; SM-J7008 Build/LMY47O) AppleWebKit/537.36 (KHTML, like Gecko) Version/4.0 Chrome/37.0.0.0 Mobile MQQBrowser/6.8 TBS/036849 Safari/537.36 MicroMessenger/6.3.27.880 NetType/WIFI Language/zh_CN'
p1051
sg16
S'11357e55a7115feb61c59461a1b49ee5'
p1052
sa(dp1053
g2
S'42393'
p1054
sg4
S'4264'
p1055
sg6
S'5b48c78089c6f21a864d9e71cbaf0c9d'
p1056
sg8
S'xxed9c58388c0ca14db920ce6bc2ac6a8d'
p1057
sg10
S'xxf74adb47125fcfaa0b2929aa433fcb5b'
p1058
sg12
S'xx04d406bdb9111e31da402046d12860ad'
p1059
sg14
S'Mozilla/5.0 (Linux; Android 5.1; SM-J7008 Build/LMY47O) AppleWebKit/537.36 (KHTML, like Gecko) Version/4.0 Chrome/37.0.0.0 Mobile MQQBrowser/6.8 TBS/036824 Safari/537.36 MicroMessenger/6.3.27.880 NetType/WIFI Language/zh_CN'
p1060
sg16
S'432108ae3ab300685e4492c332448608'
p1061
sa(dp1062
g2
S'39895'
p1063
sg4
S'4275'
p1064
sg6
S'5b48c78089c6f21a864d9e71cbaf0c9d'
p1065
sg8
S'xxdb22f878ebe8a1b0b36ff54f2406130e'
p1066
sg10
S'xxf74adb47125fcfaa0b2929aa433fcb5b'
p1067
sg12
S'xx04d406bdb9111e31da402046d12860ad'
p1068
sg14
S'Mozilla/5.0 (Linux; Android 5.1; SM-J7008 Build/LMY47O) AppleWebKit/537.36 (KHTML, like Gecko) Version/4.0 Chrome/37.0.0.0 Mobile MQQBrowser/6.8 TBS/036849 Safari/537.36 MicroMessenger/6.3.27.880 NetType/WIFI Language/zh_CN'
p1069
sg16
S'11357e55a7115feb61c59461a1b49ee5'
p1070
sa(dp1071
g2
S'42393'
p1072
sg4
S'4285'
p1073
sg6
S'5b48c78089c6f21a864d9e71cbaf0c9d'
p1074
sg8
S'xxed9c58388c0ca14db920ce6bc2ac6a8d'
p1075
sg10
S'xxf74adb47125fcfaa0b2929aa433fcb5b'
p1076
sg12
S'xx04d406bdb9111e31da402046d12860ad'
p1077
sg14
S'Mozilla/5.0 (Linux; Android 5.1; SM-J7008 Build/LMY47O) AppleWebKit/537.36 (KHTML, like Gecko) Version/4.0 Chrome/37.0.0.0 Mobile MQQBrowser/6.8 TBS/036824 Safari/537.36 MicroMessenger/6.3.27.880 NetType/WIFI Language/zh_CN'
p1078
sg16
S'432108ae3ab300685e4492c332448608'
p1079
sa(dp1080
g2
S'39895'
p1081
sg4
S'4294'
p1082
sg6
S'5b48c78089c6f21a864d9e71cbaf0c9d'
p1083
sg8
S'xxdb22f878ebe8a1b0b36ff54f2406130e'
p1084
sg10
S'xxf74adb47125fcfaa0b2929aa433fcb5b'
p1085
sg12
S'xx04d406bdb9111e31da402046d12860ad'
p1086
sg14
S'Mozilla/5.0 (Linux; Android 5.1; SM-J7008 Build/LMY47O) AppleWebKit/537.36 (KHTML, like Gecko) Version/4.0 Chrome/37.0.0.0 Mobile MQQBrowser/6.8 TBS/036849 Safari/537.36 MicroMessenger/6.3.27.880 NetType/WIFI Language/zh_CN'
p1087
sg16
S'11357e55a7115feb61c59461a1b49ee5'
p1088
sa(dp1089
g2
S'39895'
p1090
sg4
S'4309'
p1091
sg6
S'5b48c78089c6f21a864d9e71cbaf0c9d'
p1092
sg8
S'xxdb22f878ebe8a1b0b36ff54f2406130e'
p1093
sg10
S'xxf74adb47125fcfaa0b2929aa433fcb5b'
p1094
sg12
S'xx04d406bdb9111e31da402046d12860ad'
p1095
sg14
S'Mozilla/5.0 (Linux; Android 5.1; SM-J7008 Build/LMY47O) AppleWebKit/537.36 (KHTML, like Gecko) Version/4.0 Chrome/37.0.0.0 Mobile MQQBrowser/6.8 TBS/036849 Safari/537.36 MicroMessenger/6.3.27.880 NetType/WIFI Language/zh_CN'
p1096
sg16
S'11357e55a7115feb61c59461a1b49ee5'
p1097
sa(dp1098
g2
S'42393'
p1099
sg4
S'4313'
p1100
sg6
S'5b48c78089c6f21a864d9e71cbaf0c9d'
p1101
sg8
S'xxed9c58388c0ca14db920ce6bc2ac6a8d'
p1102
sg10
S'xxf74adb47125fcfaa0b2929aa433fcb5b'
p1103
sg12
S'xx04d406bdb9111e31da402046d12860ad'
p1104
sg14
S'Mozilla/5.0 (Linux; Android 5.1; SM-J7008 Build/LMY47O) AppleWebKit/537.36 (KHTML, like Gecko) Version/4.0 Chrome/37.0.0.0 Mobile MQQBrowser/6.8 TBS/036824 Safari/537.36 MicroMessenger/6.3.27.880 NetType/WIFI Language/zh_CN'
p1105
sg16
S'432108ae3ab300685e4492c332448608'
p1106
sa(dp1107
g2
S'39895'
p1108
sg4
S'4326'
p1109
sg6
S'5b48c78089c6f21a864d9e71cbaf0c9d'
p1110
sg8
S'xxdb22f878ebe8a1b0b36ff54f2406130e'
p1111
sg10
S'xxf74adb47125fcfaa0b2929aa433fcb5b'
p1112
sg12
S'xx04d406bdb9111e31da402046d12860ad'
p1113
sg14
S'Mozilla/5.0 (Linux; Android 5.1; SM-J7008 Build/LMY47O) AppleWebKit/537.36 (KHTML, like Gecko) Version/4.0 Chrome/37.0.0.0 Mobile MQQBrowser/6.8 TBS/036849 Safari/537.36 MicroMessenger/6.3.27.880 NetType/WIFI Language/zh_CN'
p1114
sg16
S'11357e55a7115feb61c59461a1b49ee5'
p1115
sa(dp1116
g2
S'42393'
p1117
sg4
S'4334'
p1118
sg6
S'5b48c78089c6f21a864d9e71cbaf0c9d'
p1119
sg8
S'xxed9c58388c0ca14db920ce6bc2ac6a8d'
p1120
sg10
S'xxf74adb47125fcfaa0b2929aa433fcb5b'
p1121
sg12
S'xx04d406bdb9111e31da402046d12860ad'
p1122
sg14
S'Mozilla/5.0 (Linux; Android 5.1; SM-J7008 Build/LMY47O) AppleWebKit/537.36 (KHTML, like Gecko) Version/4.0 Chrome/37.0.0.0 Mobile MQQBrowser/6.8 TBS/036824 Safari/537.36 MicroMessenger/6.3.27.880 NetType/WIFI Language/zh_CN'
p1123
sg16
S'432108ae3ab300685e4492c332448608'
p1124
sa(dp1125
g2
S'39895'
p1126
sg4
S'4348'
p1127
sg6
S'5b48c78089c6f21a864d9e71cbaf0c9d'
p1128
sg8
S'xxdb22f878ebe8a1b0b36ff54f2406130e'
p1129
sg10
S'xxf74adb47125fcfaa0b2929aa433fcb5b'
p1130
sg12
S'xx04d406bdb9111e31da402046d12860ad'
p1131
sg14
S'Mozilla/5.0 (Linux; Android 5.1; SM-J7008 Build/LMY47O) AppleWebKit/537.36 (KHTML, like Gecko) Version/4.0 Chrome/37.0.0.0 Mobile MQQBrowser/6.8 TBS/036849 Safari/537.36 MicroMessenger/6.3.27.880 NetType/WIFI Language/zh_CN'
p1132
sg16
S'11357e55a7115feb61c59461a1b49ee5'
p1133
sa(dp1134
g2
S'42393'
p1135
sg4
S'4357'
p1136
sg6
S'5b48c78089c6f21a864d9e71cbaf0c9d'
p1137
sg8
S'xxed9c58388c0ca14db920ce6bc2ac6a8d'
p1138
sg10
S'xxf74adb47125fcfaa0b2929aa433fcb5b'
p1139
sg12
S'xx04d406bdb9111e31da402046d12860ad'
p1140
sg14
S'Mozilla/5.0 (Linux; Android 5.1; SM-J7008 Build/LMY47O) AppleWebKit/537.36 (KHTML, like Gecko) Version/4.0 Chrome/37.0.0.0 Mobile MQQBrowser/6.8 TBS/036824 Safari/537.36 MicroMessenger/6.3.27.880 NetType/WIFI Language/zh_CN'
p1141
sg16
S'432108ae3ab300685e4492c332448608'
p1142
sa(dp1143
g2
S'39895'
p1144
sg4
S'4372'
p1145
sg6
S'5b48c78089c6f21a864d9e71cbaf0c9d'
p1146
sg8
S'xxdb22f878ebe8a1b0b36ff54f2406130e'
p1147
sg10
S'xxf74adb47125fcfaa0b2929aa433fcb5b'
p1148
sg12
S'xx04d406bdb9111e31da402046d12860ad'
p1149
sg14
S'Mozilla/5.0 (Linux; Android 5.1; SM-J7008 Build/LMY47O) AppleWebKit/537.36 (KHTML, like Gecko) Version/4.0 Chrome/37.0.0.0 Mobile MQQBrowser/6.8 TBS/036849 Safari/537.36 MicroMessenger/6.3.27.880 NetType/WIFI Language/zh_CN'
p1150
sg16
S'11357e55a7115feb61c59461a1b49ee5'
p1151
sa(dp1152
g2
S'39895'
p1153
sg4
S'4402'
p1154
sg6
S'5b48c78089c6f21a864d9e71cbaf0c9d'
p1155
sg8
S'xxdb22f878ebe8a1b0b36ff54f2406130e'
p1156
sg10
S'xxf74adb47125fcfaa0b2929aa433fcb5b'
p1157
sg12
S'xx04d406bdb9111e31da402046d12860ad'
p1158
sg14
S'Mozilla/5.0 (Linux; Android 5.1; SM-J7008 Build/LMY47O) AppleWebKit/537.36 (KHTML, like Gecko) Version/4.0 Chrome/37.0.0.0 Mobile MQQBrowser/6.8 TBS/036849 Safari/537.36 MicroMessenger/6.3.27.880 NetType/WIFI Language/zh_CN'
p1159
sg16
S'11357e55a7115feb61c59461a1b49ee5'
p1160
sa(dp1161
g2
S'39895'
p1162
sg4
S'4428'
p1163
sg6
S'5b48c78089c6f21a864d9e71cbaf0c9d'
p1164
sg8
S'xxdb22f878ebe8a1b0b36ff54f2406130e'
p1165
sg10
S'xxf74adb47125fcfaa0b2929aa433fcb5b'
p1166
sg12
S'xx04d406bdb9111e31da402046d12860ad'
p1167
sg14
S'Mozilla/5.0 (Linux; Android 5.1; SM-J7008 Build/LMY47O) AppleWebKit/537.36 (KHTML, like Gecko) Version/4.0 Chrome/37.0.0.0 Mobile MQQBrowser/6.8 TBS/036849 Safari/537.36 MicroMessenger/6.3.27.880 NetType/WIFI Language/zh_CN'
p1168
sg16
S'11357e55a7115feb61c59461a1b49ee5'
p1169
sa(dp1170
g2
S'42393'
p1171
sg4
S'4441'
p1172
sg6
S'5b48c78089c6f21a864d9e71cbaf0c9d'
p1173
sg8
S'xxed9c58388c0ca14db920ce6bc2ac6a8d'
p1174
sg10
S'xxf74adb47125fcfaa0b2929aa433fcb5b'
p1175
sg12
S'xx04d406bdb9111e31da402046d12860ad'
p1176
sg14
S'Mozilla/5.0 (Linux; Android 5.1; SM-J7008 Build/LMY47O) AppleWebKit/537.36 (KHTML, like Gecko) Version/4.0 Chrome/37.0.0.0 Mobile MQQBrowser/6.8 TBS/036824 Safari/537.36 MicroMessenger/6.3.27.880 NetType/WIFI Language/zh_CN'
p1177
sg16
S'432108ae3ab300685e4492c332448608'
p1178
sa(dp1179
g2
S'39895'
p1180
sg4
S'4446'
p1181
sg6
S'5b48c78089c6f21a864d9e71cbaf0c9d'
p1182
sg8
S'xxdb22f878ebe8a1b0b36ff54f2406130e'
p1183
sg10
S'xxf74adb47125fcfaa0b2929aa433fcb5b'
p1184
sg12
S'xx04d406bdb9111e31da402046d12860ad'
p1185
sg14
S'Mozilla/5.0 (Linux; Android 5.1; SM-J7008 Build/LMY47O) AppleWebKit/537.36 (KHTML, like Gecko) Version/4.0 Chrome/37.0.0.0 Mobile MQQBrowser/6.8 TBS/036849 Safari/537.36 MicroMessenger/6.3.27.880 NetType/WIFI Language/zh_CN'
p1186
sg16
S'11357e55a7115feb61c59461a1b49ee5'
p1187
sa(dp1188
g2
S'39895'
p1189
sg4
S'4467'
p1190
sg6
S'5b48c78089c6f21a864d9e71cbaf0c9d'
p1191
sg8
S'xxdb22f878ebe8a1b0b36ff54f2406130e'
p1192
sg10
S'xxf74adb47125fcfaa0b2929aa433fcb5b'
p1193
sg12
S'xx04d406bdb9111e31da402046d12860ad'
p1194
sg14
S'Mozilla/5.0 (Linux; Android 5.1; SM-J7008 Build/LMY47O) AppleWebKit/537.36 (KHTML, like Gecko) Version/4.0 Chrome/37.0.0.0 Mobile MQQBrowser/6.8 TBS/036849 Safari/537.36 MicroMessenger/6.3.27.880 NetType/WIFI Language/zh_CN'
p1195
sg16
S'11357e55a7115feb61c59461a1b49ee5'
p1196
sa(dp1197
g2
S'39895'
p1198
sg4
S'4487'
p1199
sg6
S'5b48c78089c6f21a864d9e71cbaf0c9d'
p1200
sg8
S'xxdb22f878ebe8a1b0b36ff54f2406130e'
p1201
sg10
S'xxf74adb47125fcfaa0b2929aa433fcb5b'
p1202
sg12
S'xx04d406bdb9111e31da402046d12860ad'
p1203
sg14
S'Mozilla/5.0 (Linux; Android 5.1; SM-J7008 Build/LMY47O) AppleWebKit/537.36 (KHTML, like Gecko) Version/4.0 Chrome/37.0.0.0 Mobile MQQBrowser/6.8 TBS/036849 Safari/537.36 MicroMessenger/6.3.27.880 NetType/WIFI Language/zh_CN'
p1204
sg16
S'11357e55a7115feb61c59461a1b49ee5'
p1205
sa(dp1206
g2
S'39895'
p1207
sg4
S'4505'
p1208
sg6
S'5b48c78089c6f21a864d9e71cbaf0c9d'
p1209
sg8
S'xxdb22f878ebe8a1b0b36ff54f2406130e'
p1210
sg10
S'xxf74adb47125fcfaa0b2929aa433fcb5b'
p1211
sg12
S'xx04d406bdb9111e31da402046d12860ad'
p1212
sg14
S'Mozilla/5.0 (Linux; Android 5.1; SM-J7008 Build/LMY47O) AppleWebKit/537.36 (KHTML, like Gecko) Version/4.0 Chrome/37.0.0.0 Mobile MQQBrowser/6.8 TBS/036849 Safari/537.36 MicroMessenger/6.3.27.880 NetType/WIFI Language/zh_CN'
p1213
sg16
S'11357e55a7115feb61c59461a1b49ee5'
p1214
sa(dp1215
g2
S'42393'
p1216
sg4
S'4508'
p1217
sg6
S'5b48c78089c6f21a864d9e71cbaf0c9d'
p1218
sg8
S'xxed9c58388c0ca14db920ce6bc2ac6a8d'
p1219
sg10
S'xxf74adb47125fcfaa0b2929aa433fcb5b'
p1220
sg12
S'xx04d406bdb9111e31da402046d12860ad'
p1221
sg14
S'Mozilla/5.0 (Linux; Android 5.1; SM-J7008 Build/LMY47O) AppleWebKit/537.36 (KHTML, like Gecko) Version/4.0 Chrome/37.0.0.0 Mobile MQQBrowser/6.8 TBS/036824 Safari/537.36 MicroMessenger/6.3.27.880 NetType/WIFI Language/zh_CN'
p1222
sg16
S'432108ae3ab300685e4492c332448608'
p1223
sa(dp1224
g2
S'42393'
p1225
sg4
S'4523'
p1226
sg6
S'5b48c78089c6f21a864d9e71cbaf0c9d'
p1227
sg8
S'xxed9c58388c0ca14db920ce6bc2ac6a8d'
p1228
sg10
S'xxf74adb47125fcfaa0b2929aa433fcb5b'
p1229
sg12
S'xx04d406bdb9111e31da402046d12860ad'
p1230
sg14
S'Mozilla/5.0 (Linux; Android 5.1; SM-J7008 Build/LMY47O) AppleWebKit/537.36 (KHTML, like Gecko) Version/4.0 Chrome/37.0.0.0 Mobile MQQBrowser/6.8 TBS/036824 Safari/537.36 MicroMessenger/6.3.27.880 NetType/WIFI Language/zh_CN'
p1231
sg16
S'432108ae3ab300685e4492c332448608'
p1232
sa(dp1233
g2
S'39895'
p1234
sg4
S'4526'
p1235
sg6
S'5b48c78089c6f21a864d9e71cbaf0c9d'
p1236
sg8
S'xxdb22f878ebe8a1b0b36ff54f2406130e'
p1237
sg10
S'xxf74adb47125fcfaa0b2929aa433fcb5b'
p1238
sg12
S'xx04d406bdb9111e31da402046d12860ad'
p1239
sg14
S'Mozilla/5.0 (Linux; Android 5.1; SM-J7008 Build/LMY47O) AppleWebKit/537.36 (KHTML, like Gecko) Version/4.0 Chrome/37.0.0.0 Mobile MQQBrowser/6.8 TBS/036849 Safari/537.36 MicroMessenger/6.3.27.880 NetType/WIFI Language/zh_CN'
p1240
sg16
S'11357e55a7115feb61c59461a1b49ee5'
p1241
sa(dp1242
g2
S'42393'
p1243
sg4
S'4553'
p1244
sg6
S'5b48c78089c6f21a864d9e71cbaf0c9d'
p1245
sg8
S'xxed9c58388c0ca14db920ce6bc2ac6a8d'
p1246
sg10
S'xxf74adb47125fcfaa0b2929aa433fcb5b'
p1247
sg12
S'xx04d406bdb9111e31da402046d12860ad'
p1248
sg14
S'Mozilla/5.0 (Linux; Android 5.1; SM-J7008 Build/LMY47O) AppleWebKit/537.36 (KHTML, like Gecko) Version/4.0 Chrome/37.0.0.0 Mobile MQQBrowser/6.8 TBS/036824 Safari/537.36 MicroMessenger/6.3.27.880 NetType/WIFI Language/zh_CN'
p1249
sg16
S'432108ae3ab300685e4492c332448608'
p1250
sa(dp1251
g2
S'39895'
p1252
sg4
S'4567'
p1253
sg6
S'5b48c78089c6f21a864d9e71cbaf0c9d'
p1254
sg8
S'xxdb22f878ebe8a1b0b36ff54f2406130e'
p1255
sg10
S'xxf74adb47125fcfaa0b2929aa433fcb5b'
p1256
sg12
S'xx04d406bdb9111e31da402046d12860ad'
p1257
sg14
S'Mozilla/5.0 (Linux; Android 5.1; SM-J7008 Build/LMY47O) AppleWebKit/537.36 (KHTML, like Gecko) Version/4.0 Chrome/37.0.0.0 Mobile MQQBrowser/6.8 TBS/036849 Safari/537.36 MicroMessenger/6.3.27.880 NetType/WIFI Language/zh_CN'
p1258
sg16
S'11357e55a7115feb61c59461a1b49ee5'
p1259
sa(dp1260
g2
S'42393'
p1261
sg4
S'4577'
p1262
sg6
S'5b48c78089c6f21a864d9e71cbaf0c9d'
p1263
sg8
S'xxed9c58388c0ca14db920ce6bc2ac6a8d'
p1264
sg10
S'xxf74adb47125fcfaa0b2929aa433fcb5b'
p1265
sg12
S'xx04d406bdb9111e31da402046d12860ad'
p1266
sg14
S'Mozilla/5.0 (Linux; Android 5.1; SM-J7008 Build/LMY47O) AppleWebKit/537.36 (KHTML, like Gecko) Version/4.0 Chrome/37.0.0.0 Mobile MQQBrowser/6.8 TBS/036824 Safari/537.36 MicroMessenger/6.3.27.880 NetType/WIFI Language/zh_CN'
p1267
sg16
S'432108ae3ab300685e4492c332448608'
p1268
sa(dp1269
g2
S'39895'
p1270
sg4
S'4591'
p1271
sg6
S'5b48c78089c6f21a864d9e71cbaf0c9d'
p1272
sg8
S'xxdb22f878ebe8a1b0b36ff54f2406130e'
p1273
sg10
S'xxf74adb47125fcfaa0b2929aa433fcb5b'
p1274
sg12
S'xx04d406bdb9111e31da402046d12860ad'
p1275
sg14
S'Mozilla/5.0 (Linux; Android 5.1; SM-J7008 Build/LMY47O) AppleWebKit/537.36 (KHTML, like Gecko) Version/4.0 Chrome/37.0.0.0 Mobile MQQBrowser/6.8 TBS/036849 Safari/537.36 MicroMessenger/6.3.27.880 NetType/WIFI Language/zh_CN'
p1276
sg16
S'11357e55a7115feb61c59461a1b49ee5'
p1277
sa(dp1278
g2
S'42393'
p1279
sg4
S'4596'
p1280
sg6
S'5b48c78089c6f21a864d9e71cbaf0c9d'
p1281
sg8
S'xxed9c58388c0ca14db920ce6bc2ac6a8d'
p1282
sg10
S'xxf74adb47125fcfaa0b2929aa433fcb5b'
p1283
sg12
S'xx04d406bdb9111e31da402046d12860ad'
p1284
sg14
S'Mozilla/5.0 (Linux; Android 5.1; SM-J7008 Build/LMY47O) AppleWebKit/537.36 (KHTML, like Gecko) Version/4.0 Chrome/37.0.0.0 Mobile MQQBrowser/6.8 TBS/036824 Safari/537.36 MicroMessenger/6.3.27.880 NetType/WIFI Language/zh_CN'
p1285
sg16
S'432108ae3ab300685e4492c332448608'
p1286
sa(dp1287
g2
S'39895'
p1288
sg4
S'4610'
p1289
sg6
S'5b48c78089c6f21a864d9e71cbaf0c9d'
p1290
sg8
S'xxdb22f878ebe8a1b0b36ff54f2406130e'
p1291
sg10
S'xxf74adb47125fcfaa0b2929aa433fcb5b'
p1292
sg12
S'xx04d406bdb9111e31da402046d12860ad'
p1293
sg14
S'Mozilla/5.0 (Linux; Android 5.1; SM-J7008 Build/LMY47O) AppleWebKit/537.36 (KHTML, like Gecko) Version/4.0 Chrome/37.0.0.0 Mobile MQQBrowser/6.8 TBS/036849 Safari/537.36 MicroMessenger/6.3.27.880 NetType/WIFI Language/zh_CN'
p1294
sg16
S'11357e55a7115feb61c59461a1b49ee5'
p1295
sa(dp1296
g2
S'39895'
p1297
sg4
S'4622'
p1298
sg6
S'5b48c78089c6f21a864d9e71cbaf0c9d'
p1299
sg8
S'xxdb22f878ebe8a1b0b36ff54f2406130e'
p1300
sg10
S'xxf74adb47125fcfaa0b2929aa433fcb5b'
p1301
sg12
S'xx04d406bdb9111e31da402046d12860ad'
p1302
sg14
S'Mozilla/5.0 (Linux; Android 5.1; SM-J7008 Build/LMY47O) AppleWebKit/537.36 (KHTML, like Gecko) Version/4.0 Chrome/37.0.0.0 Mobile MQQBrowser/6.8 TBS/036849 Safari/537.36 MicroMessenger/6.3.27.880 NetType/WIFI Language/zh_CN'
p1303
sg16
S'11357e55a7115feb61c59461a1b49ee5'
p1304
sa(dp1305
g2
S'39895'
p1306
sg4
S'4636'
p1307
sg6
S'5b48c78089c6f21a864d9e71cbaf0c9d'
p1308
sg8
S'xxdb22f878ebe8a1b0b36ff54f2406130e'
p1309
sg10
S'xxf74adb47125fcfaa0b2929aa433fcb5b'
p1310
sg12
S'xx04d406bdb9111e31da402046d12860ad'
p1311
sg14
S'Mozilla/5.0 (Linux; Android 5.1; SM-J7008 Build/LMY47O) AppleWebKit/537.36 (KHTML, like Gecko) Version/4.0 Chrome/37.0.0.0 Mobile MQQBrowser/6.8 TBS/036849 Safari/537.36 MicroMessenger/6.3.27.880 NetType/WIFI Language/zh_CN'
p1312
sg16
S'11357e55a7115feb61c59461a1b49ee5'
p1313
sa(dp1314
g2
S'39895'
p1315
sg4
S'4655'
p1316
sg6
S'5b48c78089c6f21a864d9e71cbaf0c9d'
p1317
sg8
S'xxdb22f878ebe8a1b0b36ff54f2406130e'
p1318
sg10
S'xxf74adb47125fcfaa0b2929aa433fcb5b'
p1319
sg12
S'xx04d406bdb9111e31da402046d12860ad'
p1320
sg14
S'Mozilla/5.0 (Linux; Android 5.1; SM-J7008 Build/LMY47O) AppleWebKit/537.36 (KHTML, like Gecko) Version/4.0 Chrome/37.0.0.0 Mobile MQQBrowser/6.8 TBS/036849 Safari/537.36 MicroMessenger/6.3.27.880 NetType/WIFI Language/zh_CN'
p1321
sg16
S'11357e55a7115feb61c59461a1b49ee5'
p1322
sa(dp1323
g2
S'39895'
p1324
sg4
S'4671'
p1325
sg6
S'5b48c78089c6f21a864d9e71cbaf0c9d'
p1326
sg8
S'xxdb22f878ebe8a1b0b36ff54f2406130e'
p1327
sg10
S'xxf74adb47125fcfaa0b2929aa433fcb5b'
p1328
sg12
S'xx04d406bdb9111e31da402046d12860ad'
p1329
sg14
S'Mozilla/5.0 (Linux; Android 5.1; SM-J7008 Build/LMY47O) AppleWebKit/537.36 (KHTML, like Gecko) Version/4.0 Chrome/37.0.0.0 Mobile MQQBrowser/6.8 TBS/036849 Safari/537.36 MicroMessenger/6.3.27.880 NetType/WIFI Language/zh_CN'
p1330
sg16
S'11357e55a7115feb61c59461a1b49ee5'
p1331
sa(dp1332
g2
S'39895'
p1333
sg4
S'4687'
p1334
sg6
S'5b48c78089c6f21a864d9e71cbaf0c9d'
p1335
sg8
S'xxdb22f878ebe8a1b0b36ff54f2406130e'
p1336
sg10
S'xxf74adb47125fcfaa0b2929aa433fcb5b'
p1337
sg12
S'xx04d406bdb9111e31da402046d12860ad'
p1338
sg14
S'Mozilla/5.0 (Linux; Android 5.1; SM-J7008 Build/LMY47O) AppleWebKit/537.36 (KHTML, like Gecko) Version/4.0 Chrome/37.0.0.0 Mobile MQQBrowser/6.8 TBS/036849 Safari/537.36 MicroMessenger/6.3.27.880 NetType/WIFI Language/zh_CN'
p1339
sg16
S'11357e55a7115feb61c59461a1b49ee5'
p1340
sa(dp1341
g2
S'39895'
p1342
sg4
S'4699'
p1343
sg6
S'5b48c78089c6f21a864d9e71cbaf0c9d'
p1344
sg8
S'xxdb22f878ebe8a1b0b36ff54f2406130e'
p1345
sg10
S'xxf74adb47125fcfaa0b2929aa433fcb5b'
p1346
sg12
S'xx04d406bdb9111e31da402046d12860ad'
p1347
sg14
S'Mozilla/5.0 (Linux; Android 5.1; SM-J7008 Build/LMY47O) AppleWebKit/537.36 (KHTML, like Gecko) Version/4.0 Chrome/37.0.0.0 Mobile MQQBrowser/6.8 TBS/036849 Safari/537.36 MicroMessenger/6.3.27.880 NetType/WIFI Language/zh_CN'
p1348
sg16
S'11357e55a7115feb61c59461a1b49ee5'
p1349
sa(dp1350
g2
S'39895'
p1351
sg4
S'4714'
p1352
sg6
S'5b48c78089c6f21a864d9e71cbaf0c9d'
p1353
sg8
S'xxdb22f878ebe8a1b0b36ff54f2406130e'
p1354
sg10
S'xxf74adb47125fcfaa0b2929aa433fcb5b'
p1355
sg12
S'xx04d406bdb9111e31da402046d12860ad'
p1356
sg14
S'Mozilla/5.0 (Linux; Android 5.1; SM-J7008 Build/LMY47O) AppleWebKit/537.36 (KHTML, like Gecko) Version/4.0 Chrome/37.0.0.0 Mobile MQQBrowser/6.8 TBS/036849 Safari/537.36 MicroMessenger/6.3.27.880 NetType/WIFI Language/zh_CN'
p1357
sg16
S'11357e55a7115feb61c59461a1b49ee5'
p1358
sa(dp1359
g2
S'39895'
p1360
sg4
S'4781'
p1361
sg6
S'5b48c78089c6f21a864d9e71cbaf0c9d'
p1362
sg8
S'xxdb22f878ebe8a1b0b36ff54f2406130e'
p1363
sg10
S'xxf74adb47125fcfaa0b2929aa433fcb5b'
p1364
sg12
S'xx04d406bdb9111e31da402046d12860ad'
p1365
sg14
S'Mozilla/5.0 (Linux; Android 5.1; SM-J7008 Build/LMY47O) AppleWebKit/537.36 (KHTML, like Gecko) Version/4.0 Chrome/37.0.0.0 Mobile MQQBrowser/6.8 TBS/036849 Safari/537.36 MicroMessenger/6.3.27.880 NetType/WIFI Language/zh_CN'
p1366
sg16
S'11357e55a7115feb61c59461a1b49ee5'
p1367
sa(dp1368
g2
S'39895'
p1369
sg4
S'4793'
p1370
sg6
S'5b48c78089c6f21a864d9e71cbaf0c9d'
p1371
sg8
S'xxdb22f878ebe8a1b0b36ff54f2406130e'
p1372
sg10
S'xxf74adb47125fcfaa0b2929aa433fcb5b'
p1373
sg12
S'xx04d406bdb9111e31da402046d12860ad'
p1374
sg14
S'Mozilla/5.0 (Linux; Android 5.1; SM-J7008 Build/LMY47O) AppleWebKit/537.36 (KHTML, like Gecko) Version/4.0 Chrome/37.0.0.0 Mobile MQQBrowser/6.8 TBS/036849 Safari/537.36 MicroMessenger/6.3.27.880 NetType/WIFI Language/zh_CN'
p1375
sg16
S'11357e55a7115feb61c59461a1b49ee5'
p1376
sa(dp1377
g2
S'39895'
p1378
sg4
S'4807'
p1379
sg6
S'5b48c78089c6f21a864d9e71cbaf0c9d'
p1380
sg8
S'xxdb22f878ebe8a1b0b36ff54f2406130e'
p1381
sg10
S'xxf74adb47125fcfaa0b2929aa433fcb5b'
p1382
sg12
S'xx04d406bdb9111e31da402046d12860ad'
p1383
sg14
S'Mozilla/5.0 (Linux; Android 5.1; SM-J7008 Build/LMY47O) AppleWebKit/537.36 (KHTML, like Gecko) Version/4.0 Chrome/37.0.0.0 Mobile MQQBrowser/6.8 TBS/036849 Safari/537.36 MicroMessenger/6.3.27.880 NetType/WIFI Language/zh_CN'
p1384
sg16
S'11357e55a7115feb61c59461a1b49ee5'
p1385
sa(dp1386
g2
S'39895'
p1387
sg4
S'4827'
p1388
sg6
S'5b48c78089c6f21a864d9e71cbaf0c9d'
p1389
sg8
S'xxdb22f878ebe8a1b0b36ff54f2406130e'
p1390
sg10
S'xxf74adb47125fcfaa0b2929aa433fcb5b'
p1391
sg12
S'xx04d406bdb9111e31da402046d12860ad'
p1392
sg14
S'Mozilla/5.0 (Linux; Android 5.1; SM-J7008 Build/LMY47O) AppleWebKit/537.36 (KHTML, like Gecko) Version/4.0 Chrome/37.0.0.0 Mobile MQQBrowser/6.8 TBS/036849 Safari/537.36 MicroMessenger/6.3.27.880 NetType/WIFI Language/zh_CN'
p1393
sg16
S'11357e55a7115feb61c59461a1b49ee5'
p1394
sa(dp1395
g2
S'39895'
p1396
sg4
S'4844'
p1397
sg6
S'5b48c78089c6f21a864d9e71cbaf0c9d'
p1398
sg8
S'xxdb22f878ebe8a1b0b36ff54f2406130e'
p1399
sg10
S'xxf74adb47125fcfaa0b2929aa433fcb5b'
p1400
sg12
S'xx04d406bdb9111e31da402046d12860ad'
p1401
sg14
S'Mozilla/5.0 (Linux; Android 5.1; SM-J7008 Build/LMY47O) AppleWebKit/537.36 (KHTML, like Gecko) Version/4.0 Chrome/37.0.0.0 Mobile MQQBrowser/6.8 TBS/036849 Safari/537.36 MicroMessenger/6.3.27.880 NetType/WIFI Language/zh_CN'
p1402
sg16
S'11357e55a7115feb61c59461a1b49ee5'
p1403
sa(dp1404
g2
S'39895'
p1405
sg4
S'4863'
p1406
sg6
S'5b48c78089c6f21a864d9e71cbaf0c9d'
p1407
sg8
S'xxdb22f878ebe8a1b0b36ff54f2406130e'
p1408
sg10
S'xxf74adb47125fcfaa0b2929aa433fcb5b'
p1409
sg12
S'xx04d406bdb9111e31da402046d12860ad'
p1410
sg14
S'Mozilla/5.0 (Linux; Android 5.1; SM-J7008 Build/LMY47O) AppleWebKit/537.36 (KHTML, like Gecko) Version/4.0 Chrome/37.0.0.0 Mobile MQQBrowser/6.8 TBS/036849 Safari/537.36 MicroMessenger/6.3.27.880 NetType/WIFI Language/zh_CN'
p1411
sg16
S'11357e55a7115feb61c59461a1b49ee5'
p1412
sa(dp1413
g2
S'39895'
p1414
sg4
S'4879'
p1415
sg6
S'5b48c78089c6f21a864d9e71cbaf0c9d'
p1416
sg8
S'xxdb22f878ebe8a1b0b36ff54f2406130e'
p1417
sg10
S'xxf74adb47125fcfaa0b2929aa433fcb5b'
p1418
sg12
S'xx04d406bdb9111e31da402046d12860ad'
p1419
sg14
S'Mozilla/5.0 (Linux; Android 5.1; SM-J7008 Build/LMY47O) AppleWebKit/537.36 (KHTML, like Gecko) Version/4.0 Chrome/37.0.0.0 Mobile MQQBrowser/6.8 TBS/036849 Safari/537.36 MicroMessenger/6.3.27.880 NetType/WIFI Language/zh_CN'
p1420
sg16
S'11357e55a7115feb61c59461a1b49ee5'
p1421
sa(dp1422
g2
S'39895'
p1423
sg4
S'4896'
p1424
sg6
S'5b48c78089c6f21a864d9e71cbaf0c9d'
p1425
sg8
S'xxdb22f878ebe8a1b0b36ff54f2406130e'
p1426
sg10
S'xxf74adb47125fcfaa0b2929aa433fcb5b'
p1427
sg12
S'xx04d406bdb9111e31da402046d12860ad'
p1428
sg14
S'Mozilla/5.0 (Linux; Android 5.1; SM-J7008 Build/LMY47O) AppleWebKit/537.36 (KHTML, like Gecko) Version/4.0 Chrome/37.0.0.0 Mobile MQQBrowser/6.8 TBS/036849 Safari/537.36 MicroMessenger/6.3.27.880 NetType/WIFI Language/zh_CN'
p1429
sg16
S'11357e55a7115feb61c59461a1b49ee5'
p1430
sa(dp1431
g2
S'39895'
p1432
sg4
S'4912'
p1433
sg6
S'5b48c78089c6f21a864d9e71cbaf0c9d'
p1434
sg8
S'xxdb22f878ebe8a1b0b36ff54f2406130e'
p1435
sg10
S'xxf74adb47125fcfaa0b2929aa433fcb5b'
p1436
sg12
S'xx04d406bdb9111e31da402046d12860ad'
p1437
sg14
S'Mozilla/5.0 (Linux; Android 5.1; SM-J7008 Build/LMY47O) AppleWebKit/537.36 (KHTML, like Gecko) Version/4.0 Chrome/37.0.0.0 Mobile MQQBrowser/6.8 TBS/036849 Safari/537.36 MicroMessenger/6.3.27.880 NetType/WIFI Language/zh_CN'
p1438
sg16
S'11357e55a7115feb61c59461a1b49ee5'
p1439
sa(dp1440
g2
S'39895'
p1441
sg4
S'4925'
p1442
sg6
S'5b48c78089c6f21a864d9e71cbaf0c9d'
p1443
sg8
S'xxdb22f878ebe8a1b0b36ff54f2406130e'
p1444
sg10
S'xxf74adb47125fcfaa0b2929aa433fcb5b'
p1445
sg12
S'xx04d406bdb9111e31da402046d12860ad'
p1446
sg14
S'Mozilla/5.0 (Linux; Android 5.1; SM-J7008 Build/LMY47O) AppleWebKit/537.36 (KHTML, like Gecko) Version/4.0 Chrome/37.0.0.0 Mobile MQQBrowser/6.8 TBS/036849 Safari/537.36 MicroMessenger/6.3.27.880 NetType/WIFI Language/zh_CN'
p1447
sg16
S'11357e55a7115feb61c59461a1b49ee5'
p1448
sa(dp1449
g2
S'39895'
p1450
sg4
S'4940'
p1451
sg6
S'5b48c78089c6f21a864d9e71cbaf0c9d'
p1452
sg8
S'xxdb22f878ebe8a1b0b36ff54f2406130e'
p1453
sg10
S'xxf74adb47125fcfaa0b2929aa433fcb5b'
p1454
sg12
S'xx04d406bdb9111e31da402046d12860ad'
p1455
sg14
S'Mozilla/5.0 (Linux; Android 5.1; SM-J7008 Build/LMY47O) AppleWebKit/537.36 (KHTML, like Gecko) Version/4.0 Chrome/37.0.0.0 Mobile MQQBrowser/6.8 TBS/036849 Safari/537.36 MicroMessenger/6.3.27.880 NetType/WIFI Language/zh_CN'
p1456
sg16
S'11357e55a7115feb61c59461a1b49ee5'
p1457
sa(dp1458
g2
S'39895'
p1459
sg4
S'4954'
p1460
sg6
S'5b48c78089c6f21a864d9e71cbaf0c9d'
p1461
sg8
S'xxdb22f878ebe8a1b0b36ff54f2406130e'
p1462
sg10
S'xxf74adb47125fcfaa0b2929aa433fcb5b'
p1463
sg12
S'xx04d406bdb9111e31da402046d12860ad'
p1464
sg14
S'Mozilla/5.0 (Linux; Android 5.1; SM-J7008 Build/LMY47O) AppleWebKit/537.36 (KHTML, like Gecko) Version/4.0 Chrome/37.0.0.0 Mobile MQQBrowser/6.8 TBS/036849 Safari/537.36 MicroMessenger/6.3.27.880 NetType/WIFI Language/zh_CN'
p1465
sg16
S'11357e55a7115feb61c59461a1b49ee5'
p1466
sa(dp1467
g2
S'39895'
p1468
sg4
S'4971'
p1469
sg6
S'5b48c78089c6f21a864d9e71cbaf0c9d'
p1470
sg8
S'xxdb22f878ebe8a1b0b36ff54f2406130e'
p1471
sg10
S'xxf74adb47125fcfaa0b2929aa433fcb5b'
p1472
sg12
S'xx04d406bdb9111e31da402046d12860ad'
p1473
sg14
S'Mozilla/5.0 (Linux; Android 5.1; SM-J7008 Build/LMY47O) AppleWebKit/537.36 (KHTML, like Gecko) Version/4.0 Chrome/37.0.0.0 Mobile MQQBrowser/6.8 TBS/036849 Safari/537.36 MicroMessenger/6.3.27.880 NetType/WIFI Language/zh_CN'
p1474
sg16
S'11357e55a7115feb61c59461a1b49ee5'
p1475
sa(dp1476
g2
S'39895'
p1477
sg4
S'5233'
p1478
sg6
S'5b48c78089c6f21a864d9e71cbaf0c9d'
p1479
sg8
S'xxdb22f878ebe8a1b0b36ff54f2406130e'
p1480
sg10
S'xxf74adb47125fcfaa0b2929aa433fcb5b'
p1481
sg12
S'xx04d406bdb9111e31da402046d12860ad'
p1482
sg14
S'Mozilla/5.0 (Linux; Android 5.1; SM-J7008 Build/LMY47O) AppleWebKit/537.36 (KHTML, like Gecko) Version/4.0 Chrome/37.0.0.0 Mobile MQQBrowser/6.8 TBS/036849 Safari/537.36 MicroMessenger/6.3.27.880 NetType/WIFI Language/zh_CN'
p1483
sg16
S'11357e55a7115feb61c59461a1b49ee5'
p1484
sa(dp1485
g2
S'39895'
p1486
sg4
S'5245'
p1487
sg6
S'5b48c78089c6f21a864d9e71cbaf0c9d'
p1488
sg8
S'xxdb22f878ebe8a1b0b36ff54f2406130e'
p1489
sg10
S'xxf74adb47125fcfaa0b2929aa433fcb5b'
p1490
sg12
S'xx04d406bdb9111e31da402046d12860ad'
p1491
sg14
S'Mozilla/5.0 (Linux; Android 5.1; SM-J7008 Build/LMY47O) AppleWebKit/537.36 (KHTML, like Gecko) Version/4.0 Chrome/37.0.0.0 Mobile MQQBrowser/6.8 TBS/036849 Safari/537.36 MicroMessenger/6.3.27.880 NetType/WIFI Language/zh_CN'
p1492
sg16
S'11357e55a7115feb61c59461a1b49ee5'
p1493
sa(dp1494
g2
S'39895'
p1495
sg4
S'5264'
p1496
sg6
S'5b48c78089c6f21a864d9e71cbaf0c9d'
p1497
sg8
S'xxdb22f878ebe8a1b0b36ff54f2406130e'
p1498
sg10
S'xxf74adb47125fcfaa0b2929aa433fcb5b'
p1499
sg12
S'xx04d406bdb9111e31da402046d12860ad'
p1500
sg14
S'Mozilla/5.0 (Linux; Android 5.1; SM-J7008 Build/LMY47O) AppleWebKit/537.36 (KHTML, like Gecko) Version/4.0 Chrome/37.0.0.0 Mobile MQQBrowser/6.8 TBS/036849 Safari/537.36 MicroMessenger/6.3.27.880 NetType/WIFI Language/zh_CN'
p1501
sg16
S'11357e55a7115feb61c59461a1b49ee5'
p1502
sa(dp1503
g2
S'39895'
p1504
sg4
S'5284'
p1505
sg6
S'5b48c78089c6f21a864d9e71cbaf0c9d'
p1506
sg8
S'xxdb22f878ebe8a1b0b36ff54f2406130e'
p1507
sg10
S'xxf74adb47125fcfaa0b2929aa433fcb5b'
p1508
sg12
S'xx04d406bdb9111e31da402046d12860ad'
p1509
sg14
S'Mozilla/5.0 (Linux; Android 5.1; SM-J7008 Build/LMY47O) AppleWebKit/537.36 (KHTML, like Gecko) Version/4.0 Chrome/37.0.0.0 Mobile MQQBrowser/6.8 TBS/036849 Safari/537.36 MicroMessenger/6.3.27.880 NetType/WIFI Language/zh_CN'
p1510
sg16
S'11357e55a7115feb61c59461a1b49ee5'
p1511
sa(dp1512
g2
S'39895'
p1513
sg4
S'5302'
p1514
sg6
S'5b48c78089c6f21a864d9e71cbaf0c9d'
p1515
sg8
S'xxdb22f878ebe8a1b0b36ff54f2406130e'
p1516
sg10
S'xxf74adb47125fcfaa0b2929aa433fcb5b'
p1517
sg12
S'xx04d406bdb9111e31da402046d12860ad'
p1518
sg14
S'Mozilla/5.0 (Linux; Android 5.1; SM-J7008 Build/LMY47O) AppleWebKit/537.36 (KHTML, like Gecko) Version/4.0 Chrome/37.0.0.0 Mobile MQQBrowser/6.8 TBS/036849 Safari/537.36 MicroMessenger/6.3.27.880 NetType/WIFI Language/zh_CN'
p1519
sg16
S'11357e55a7115feb61c59461a1b49ee5'
p1520
sa(dp1521
g2
S'39895'
p1522
sg4
S'5315'
p1523
sg6
S'5b48c78089c6f21a864d9e71cbaf0c9d'
p1524
sg8
S'xxdb22f878ebe8a1b0b36ff54f2406130e'
p1525
sg10
S'xxf74adb47125fcfaa0b2929aa433fcb5b'
p1526
sg12
S'xx04d406bdb9111e31da402046d12860ad'
p1527
sg14
S'Mozilla/5.0 (Linux; Android 5.1; SM-J7008 Build/LMY47O) AppleWebKit/537.36 (KHTML, like Gecko) Version/4.0 Chrome/37.0.0.0 Mobile MQQBrowser/6.8 TBS/036849 Safari/537.36 MicroMessenger/6.3.27.880 NetType/WIFI Language/zh_CN'
p1528
sg16
S'11357e55a7115feb61c59461a1b49ee5'
p1529
sa(dp1530
g2
S'42393'
p1531
sg4
S'5319'
p1532
sg6
S'5b48c78089c6f21a864d9e71cbaf0c9d'
p1533
sg8
S'xxed9c58388c0ca14db920ce6bc2ac6a8d'
p1534
sg10
S'xxf74adb47125fcfaa0b2929aa433fcb5b'
p1535
sg12
S'xx04d406bdb9111e31da402046d12860ad'
p1536
sg14
S'Mozilla/5.0 (Linux; Android 5.1; SM-J7008 Build/LMY47O) AppleWebKit/537.36 (KHTML, like Gecko) Version/4.0 Chrome/37.0.0.0 Mobile MQQBrowser/6.8 TBS/036824 Safari/537.36 MicroMessenger/6.3.27.880 NetType/WIFI Language/zh_CN'
p1537
sg16
S'432108ae3ab300685e4492c332448608'
p1538
sa(dp1539
g2
S'39895'
p1540
sg4
S'5332'
p1541
sg6
S'5b48c78089c6f21a864d9e71cbaf0c9d'
p1542
sg8
S'xxdb22f878ebe8a1b0b36ff54f2406130e'
p1543
sg10
S'xxf74adb47125fcfaa0b2929aa433fcb5b'
p1544
sg12
S'xx04d406bdb9111e31da402046d12860ad'
p1545
sg14
S'Mozilla/5.0 (Linux; Android 5.1; SM-J7008 Build/LMY47O) AppleWebKit/537.36 (KHTML, like Gecko) Version/4.0 Chrome/37.0.0.0 Mobile MQQBrowser/6.8 TBS/036849 Safari/537.36 MicroMessenger/6.3.27.880 NetType/WIFI Language/zh_CN'
p1546
sg16
S'11357e55a7115feb61c59461a1b49ee5'
p1547
sa(dp1548
g2
S'42393'
p1549
sg4
S'5335'
p1550
sg6
S'5b48c78089c6f21a864d9e71cbaf0c9d'
p1551
sg8
S'xxed9c58388c0ca14db920ce6bc2ac6a8d'
p1552
sg10
S'xxf74adb47125fcfaa0b2929aa433fcb5b'
p1553
sg12
S'xx04d406bdb9111e31da402046d12860ad'
p1554
sg14
S'Mozilla/5.0 (Linux; Android 5.1; SM-J7008 Build/LMY47O) AppleWebKit/537.36 (KHTML, like Gecko) Version/4.0 Chrome/37.0.0.0 Mobile MQQBrowser/6.8 TBS/036824 Safari/537.36 MicroMessenger/6.3.27.880 NetType/WIFI Language/zh_CN'
p1555
sg16
S'432108ae3ab300685e4492c332448608'
p1556
sa(dp1557
g2
S'39895'
p1558
sg4
S'5347'
p1559
sg6
S'5b48c78089c6f21a864d9e71cbaf0c9d'
p1560
sg8
S'xxdb22f878ebe8a1b0b36ff54f2406130e'
p1561
sg10
S'xxf74adb47125fcfaa0b2929aa433fcb5b'
p1562
sg12
S'xx04d406bdb9111e31da402046d12860ad'
p1563
sg14
S'Mozilla/5.0 (Linux; Android 5.1; SM-J7008 Build/LMY47O) AppleWebKit/537.36 (KHTML, like Gecko) Version/4.0 Chrome/37.0.0.0 Mobile MQQBrowser/6.8 TBS/036849 Safari/537.36 MicroMessenger/6.3.27.880 NetType/WIFI Language/zh_CN'
p1564
sg16
S'11357e55a7115feb61c59461a1b49ee5'
p1565
sa(dp1566
g2
S'42393'
p1567
sg4
S'5352'
p1568
sg6
S'5b48c78089c6f21a864d9e71cbaf0c9d'
p1569
sg8
S'xxed9c58388c0ca14db920ce6bc2ac6a8d'
p1570
sg10
S'xxf74adb47125fcfaa0b2929aa433fcb5b'
p1571
sg12
S'xx04d406bdb9111e31da402046d12860ad'
p1572
sg14
S'Mozilla/5.0 (Linux; Android 5.1; SM-J7008 Build/LMY47O) AppleWebKit/537.36 (KHTML, like Gecko) Version/4.0 Chrome/37.0.0.0 Mobile MQQBrowser/6.8 TBS/036824 Safari/537.36 MicroMessenger/6.3.27.880 NetType/WIFI Language/zh_CN'
p1573
sg16
S'432108ae3ab300685e4492c332448608'
p1574
sa(dp1575
g2
S'39895'
p1576
sg4
S'5366'
p1577
sg6
S'5b48c78089c6f21a864d9e71cbaf0c9d'
p1578
sg8
S'xxdb22f878ebe8a1b0b36ff54f2406130e'
p1579
sg10
S'xxf74adb47125fcfaa0b2929aa433fcb5b'
p1580
sg12
S'xx04d406bdb9111e31da402046d12860ad'
p1581
sg14
S'Mozilla/5.0 (Linux; Android 5.1; SM-J7008 Build/LMY47O) AppleWebKit/537.36 (KHTML, like Gecko) Version/4.0 Chrome/37.0.0.0 Mobile MQQBrowser/6.8 TBS/036849 Safari/537.36 MicroMessenger/6.3.27.880 NetType/WIFI Language/zh_CN'
p1582
sg16
S'11357e55a7115feb61c59461a1b49ee5'
p1583
sa(dp1584
g2
S'42393'
p1585
sg4
S'5369'
p1586
sg6
S'5b48c78089c6f21a864d9e71cbaf0c9d'
p1587
sg8
S'xxed9c58388c0ca14db920ce6bc2ac6a8d'
p1588
sg10
S'xxf74adb47125fcfaa0b2929aa433fcb5b'
p1589
sg12
S'xx04d406bdb9111e31da402046d12860ad'
p1590
sg14
S'Mozilla/5.0 (Linux; Android 5.1; SM-J7008 Build/LMY47O) AppleWebKit/537.36 (KHTML, like Gecko) Version/4.0 Chrome/37.0.0.0 Mobile MQQBrowser/6.8 TBS/036824 Safari/537.36 MicroMessenger/6.3.27.880 NetType/WIFI Language/zh_CN'
p1591
sg16
S'432108ae3ab300685e4492c332448608'
p1592
sa(dp1593
g2
S'39895'
p1594
sg4
S'5380'
p1595
sg6
S'5b48c78089c6f21a864d9e71cbaf0c9d'
p1596
sg8
S'xxdb22f878ebe8a1b0b36ff54f2406130e'
p1597
sg10
S'xxf74adb47125fcfaa0b2929aa433fcb5b'
p1598
sg12
S'xx04d406bdb9111e31da402046d12860ad'
p1599
sg14
S'Mozilla/5.0 (Linux; Android 5.1; SM-J7008 Build/LMY47O) AppleWebKit/537.36 (KHTML, like Gecko) Version/4.0 Chrome/37.0.0.0 Mobile MQQBrowser/6.8 TBS/036849 Safari/537.36 MicroMessenger/6.3.27.880 NetType/WIFI Language/zh_CN'
p1600
sg16
S'11357e55a7115feb61c59461a1b49ee5'
p1601
sa(dp1602
g2
S'42393'
p1603
sg4
S'5385'
p1604
sg6
S'5b48c78089c6f21a864d9e71cbaf0c9d'
p1605
sg8
S'xxed9c58388c0ca14db920ce6bc2ac6a8d'
p1606
sg10
S'xxf74adb47125fcfaa0b2929aa433fcb5b'
p1607
sg12
S'xx04d406bdb9111e31da402046d12860ad'
p1608
sg14
S'Mozilla/5.0 (Linux; Android 5.1; SM-J7008 Build/LMY47O) AppleWebKit/537.36 (KHTML, like Gecko) Version/4.0 Chrome/37.0.0.0 Mobile MQQBrowser/6.8 TBS/036824 Safari/537.36 MicroMessenger/6.3.27.880 NetType/WIFI Language/zh_CN'
p1609
sg16
S'432108ae3ab300685e4492c332448608'
p1610
sa(dp1611
g2
S'39895'
p1612
sg4
S'5398'
p1613
sg6
S'5b48c78089c6f21a864d9e71cbaf0c9d'
p1614
sg8
S'xxdb22f878ebe8a1b0b36ff54f2406130e'
p1615
sg10
S'xxf74adb47125fcfaa0b2929aa433fcb5b'
p1616
sg12
S'xx04d406bdb9111e31da402046d12860ad'
p1617
sg14
S'Mozilla/5.0 (Linux; Android 5.1; SM-J7008 Build/LMY47O) AppleWebKit/537.36 (KHTML, like Gecko) Version/4.0 Chrome/37.0.0.0 Mobile MQQBrowser/6.8 TBS/036849 Safari/537.36 MicroMessenger/6.3.27.880 NetType/WIFI Language/zh_CN'
p1618
sg16
S'11357e55a7115feb61c59461a1b49ee5'
p1619
sa(dp1620
g2
S'42393'
p1621
sg4
S'5401'
p1622
sg6
S'5b48c78089c6f21a864d9e71cbaf0c9d'
p1623
sg8
S'xxed9c58388c0ca14db920ce6bc2ac6a8d'
p1624
sg10
S'xxf74adb47125fcfaa0b2929aa433fcb5b'
p1625
sg12
S'xx04d406bdb9111e31da402046d12860ad'
p1626
sg14
S'Mozilla/5.0 (Linux; Android 5.1; SM-J7008 Build/LMY47O) AppleWebKit/537.36 (KHTML, like Gecko) Version/4.0 Chrome/37.0.0.0 Mobile MQQBrowser/6.8 TBS/036824 Safari/537.36 MicroMessenger/6.3.27.880 NetType/WIFI Language/zh_CN'
p1627
sg16
S'432108ae3ab300685e4492c332448608'
p1628
sa(dp1629
g2
S'39895'
p1630
sg4
S'5415'
p1631
sg6
S'5b48c78089c6f21a864d9e71cbaf0c9d'
p1632
sg8
S'xxdb22f878ebe8a1b0b36ff54f2406130e'
p1633
sg10
S'xxf74adb47125fcfaa0b2929aa433fcb5b'
p1634
sg12
S'xx04d406bdb9111e31da402046d12860ad'
p1635
sg14
S'Mozilla/5.0 (Linux; Android 5.1; SM-J7008 Build/LMY47O) AppleWebKit/537.36 (KHTML, like Gecko) Version/4.0 Chrome/37.0.0.0 Mobile MQQBrowser/6.8 TBS/036849 Safari/537.36 MicroMessenger/6.3.27.880 NetType/WIFI Language/zh_CN'
p1636
sg16
S'11357e55a7115feb61c59461a1b49ee5'
p1637
sa(dp1638
g2
S'39895'
p1639
sg4
S'5451'
p1640
sg6
S'5b48c78089c6f21a864d9e71cbaf0c9d'
p1641
sg8
S'xxdb22f878ebe8a1b0b36ff54f2406130e'
p1642
sg10
S'xxf74adb47125fcfaa0b2929aa433fcb5b'
p1643
sg12
S'xx04d406bdb9111e31da402046d12860ad'
p1644
sg14
S'Mozilla/5.0 (Linux; Android 5.1; SM-J7008 Build/LMY47O) AppleWebKit/537.36 (KHTML, like Gecko) Version/4.0 Chrome/37.0.0.0 Mobile MQQBrowser/6.8 TBS/036849 Safari/537.36 MicroMessenger/6.3.27.880 NetType/WIFI Language/zh_CN'
p1645
sg16
S'11357e55a7115feb61c59461a1b49ee5'
p1646
sa(dp1647
g2
S'39895'
p1648
sg4
S'5466'
p1649
sg6
S'5b48c78089c6f21a864d9e71cbaf0c9d'
p1650
sg8
S'xxdb22f878ebe8a1b0b36ff54f2406130e'
p1651
sg10
S'xxf74adb47125fcfaa0b2929aa433fcb5b'
p1652
sg12
S'xx04d406bdb9111e31da402046d12860ad'
p1653
sg14
S'Mozilla/5.0 (Linux; Android 5.1; SM-J7008 Build/LMY47O) AppleWebKit/537.36 (KHTML, like Gecko) Version/4.0 Chrome/37.0.0.0 Mobile MQQBrowser/6.8 TBS/036849 Safari/537.36 MicroMessenger/6.3.27.880 NetType/WIFI Language/zh_CN'
p1654
sg16
S'11357e55a7115feb61c59461a1b49ee5'
p1655
sa(dp1656
g2
S'39895'
p1657
sg4
S'5482'
p1658
sg6
S'5b48c78089c6f21a864d9e71cbaf0c9d'
p1659
sg8
S'xxdb22f878ebe8a1b0b36ff54f2406130e'
p1660
sg10
S'xxf74adb47125fcfaa0b2929aa433fcb5b'
p1661
sg12
S'xx04d406bdb9111e31da402046d12860ad'
p1662
sg14
S'Mozilla/5.0 (Linux; Android 5.1; SM-J7008 Build/LMY47O) AppleWebKit/537.36 (KHTML, like Gecko) Version/4.0 Chrome/37.0.0.0 Mobile MQQBrowser/6.8 TBS/036849 Safari/537.36 MicroMessenger/6.3.27.880 NetType/WIFI Language/zh_CN'
p1663
sg16
S'11357e55a7115feb61c59461a1b49ee5'
p1664
sa(dp1665
g2
S'39895'
p1666
sg4
S'5502'
p1667
sg6
S'5b48c78089c6f21a864d9e71cbaf0c9d'
p1668
sg8
S'xxdb22f878ebe8a1b0b36ff54f2406130e'
p1669
sg10
S'xxf74adb47125fcfaa0b2929aa433fcb5b'
p1670
sg12
S'xx04d406bdb9111e31da402046d12860ad'
p1671
sg14
S'Mozilla/5.0 (Linux; Android 5.1; SM-J7008 Build/LMY47O) AppleWebKit/537.36 (KHTML, like Gecko) Version/4.0 Chrome/37.0.0.0 Mobile MQQBrowser/6.8 TBS/036849 Safari/537.36 MicroMessenger/6.3.27.880 NetType/WIFI Language/zh_CN'
p1672
sg16
S'11357e55a7115feb61c59461a1b49ee5'
p1673
sa(dp1674
g2
S'39895'
p1675
sg4
S'5522'
p1676
sg6
S'5b48c78089c6f21a864d9e71cbaf0c9d'
p1677
sg8
S'xxdb22f878ebe8a1b0b36ff54f2406130e'
p1678
sg10
S'xxf74adb47125fcfaa0b2929aa433fcb5b'
p1679
sg12
S'xx04d406bdb9111e31da402046d12860ad'
p1680
sg14
S'Mozilla/5.0 (Linux; Android 5.1; SM-J7008 Build/LMY47O) AppleWebKit/537.36 (KHTML, like Gecko) Version/4.0 Chrome/37.0.0.0 Mobile MQQBrowser/6.8 TBS/036849 Safari/537.36 MicroMessenger/6.3.27.880 NetType/WIFI Language/zh_CN'
p1681
sg16
S'11357e55a7115feb61c59461a1b49ee5'
p1682
sa(dp1683
g2
S'39895'
p1684
sg4
S'5542'
p1685
sg6
S'5b48c78089c6f21a864d9e71cbaf0c9d'
p1686
sg8
S'xxdb22f878ebe8a1b0b36ff54f2406130e'
p1687
sg10
S'xxf74adb47125fcfaa0b2929aa433fcb5b'
p1688
sg12
S'xx04d406bdb9111e31da402046d12860ad'
p1689
sg14
S'Mozilla/5.0 (Linux; Android 5.1; SM-J7008 Build/LMY47O) AppleWebKit/537.36 (KHTML, like Gecko) Version/4.0 Chrome/37.0.0.0 Mobile MQQBrowser/6.8 TBS/036849 Safari/537.36 MicroMessenger/6.3.27.880 NetType/WIFI Language/zh_CN'
p1690
sg16
S'11357e55a7115feb61c59461a1b49ee5'
p1691
sa(dp1692
g2
S'39895'
p1693
sg4
S'5559'
p1694
sg6
S'5b48c78089c6f21a864d9e71cbaf0c9d'
p1695
sg8
S'xxdb22f878ebe8a1b0b36ff54f2406130e'
p1696
sg10
S'xxf74adb47125fcfaa0b2929aa433fcb5b'
p1697
sg12
S'xx04d406bdb9111e31da402046d12860ad'
p1698
sg14
S'Mozilla/5.0 (Linux; Android 5.1; SM-J7008 Build/LMY47O) AppleWebKit/537.36 (KHTML, like Gecko) Version/4.0 Chrome/37.0.0.0 Mobile MQQBrowser/6.8 TBS/036849 Safari/537.36 MicroMessenger/6.3.27.880 NetType/WIFI Language/zh_CN'
p1699
sg16
S'11357e55a7115feb61c59461a1b49ee5'
p1700
sa(dp1701
g2
S'39895'
p1702
sg4
S'5576'
p1703
sg6
S'5b48c78089c6f21a864d9e71cbaf0c9d'
p1704
sg8
S'xxdb22f878ebe8a1b0b36ff54f2406130e'
p1705
sg10
S'xxf74adb47125fcfaa0b2929aa433fcb5b'
p1706
sg12
S'xx04d406bdb9111e31da402046d12860ad'
p1707
sg14
S'Mozilla/5.0 (Linux; Android 5.1; SM-J7008 Build/LMY47O) AppleWebKit/537.36 (KHTML, like Gecko) Version/4.0 Chrome/37.0.0.0 Mobile MQQBrowser/6.8 TBS/036849 Safari/537.36 MicroMessenger/6.3.27.880 NetType/WIFI Language/zh_CN'
p1708
sg16
S'11357e55a7115feb61c59461a1b49ee5'
p1709
sa(dp1710
g2
S'39895'
p1711
sg4
S'5597'
p1712
sg6
S'5b48c78089c6f21a864d9e71cbaf0c9d'
p1713
sg8
S'xxdb22f878ebe8a1b0b36ff54f2406130e'
p1714
sg10
S'xxf74adb47125fcfaa0b2929aa433fcb5b'
p1715
sg12
S'xx04d406bdb9111e31da402046d12860ad'
p1716
sg14
S'Mozilla/5.0 (Linux; Android 5.1; SM-J7008 Build/LMY47O) AppleWebKit/537.36 (KHTML, like Gecko) Version/4.0 Chrome/37.0.0.0 Mobile MQQBrowser/6.8 TBS/036849 Safari/537.36 MicroMessenger/6.3.27.880 NetType/WIFI Language/zh_CN'
p1717
sg16
S'11357e55a7115feb61c59461a1b49ee5'
p1718
sa(dp1719
g2
S'39895'
p1720
sg4
S'5611'
p1721
sg6
S'5b48c78089c6f21a864d9e71cbaf0c9d'
p1722
sg8
S'xxdb22f878ebe8a1b0b36ff54f2406130e'
p1723
sg10
S'xxf74adb47125fcfaa0b2929aa433fcb5b'
p1724
sg12
S'xx04d406bdb9111e31da402046d12860ad'
p1725
sg14
S'Mozilla/5.0 (Linux; Android 5.1; SM-J7008 Build/LMY47O) AppleWebKit/537.36 (KHTML, like Gecko) Version/4.0 Chrome/37.0.0.0 Mobile MQQBrowser/6.8 TBS/036849 Safari/537.36 MicroMessenger/6.3.27.880 NetType/WIFI Language/zh_CN'
p1726
sg16
S'11357e55a7115feb61c59461a1b49ee5'
p1727
sa(dp1728
g2
S'39895'
p1729
sg4
S'5627'
p1730
sg6
S'5b48c78089c6f21a864d9e71cbaf0c9d'
p1731
sg8
S'xxdb22f878ebe8a1b0b36ff54f2406130e'
p1732
sg10
S'xxf74adb47125fcfaa0b2929aa433fcb5b'
p1733
sg12
S'xx04d406bdb9111e31da402046d12860ad'
p1734
sg14
S'Mozilla/5.0 (Linux; Android 5.1; SM-J7008 Build/LMY47O) AppleWebKit/537.36 (KHTML, like Gecko) Version/4.0 Chrome/37.0.0.0 Mobile MQQBrowser/6.8 TBS/036849 Safari/537.36 MicroMessenger/6.3.27.880 NetType/WIFI Language/zh_CN'
p1735
sg16
S'11357e55a7115feb61c59461a1b49ee5'
p1736
sa(dp1737
g2
S'39895'
p1738
sg4
S'5646'
p1739
sg6
S'5b48c78089c6f21a864d9e71cbaf0c9d'
p1740
sg8
S'xxdb22f878ebe8a1b0b36ff54f2406130e'
p1741
sg10
S'xxf74adb47125fcfaa0b2929aa433fcb5b'
p1742
sg12
S'xx04d406bdb9111e31da402046d12860ad'
p1743
sg14
S'Mozilla/5.0 (Linux; Android 5.1; SM-J7008 Build/LMY47O) AppleWebKit/537.36 (KHTML, like Gecko) Version/4.0 Chrome/37.0.0.0 Mobile MQQBrowser/6.8 TBS/036849 Safari/537.36 MicroMessenger/6.3.27.880 NetType/WIFI Language/zh_CN'
p1744
sg16
S'11357e55a7115feb61c59461a1b49ee5'
p1745
sa(dp1746
g2
S'39895'
p1747
sg4
S'5662'
p1748
sg6
S'5b48c78089c6f21a864d9e71cbaf0c9d'
p1749
sg8
S'xxdb22f878ebe8a1b0b36ff54f2406130e'
p1750
sg10
S'xxf74adb47125fcfaa0b2929aa433fcb5b'
p1751
sg12
S'xx04d406bdb9111e31da402046d12860ad'
p1752
sg14
S'Mozilla/5.0 (Linux; Android 5.1; SM-J7008 Build/LMY47O) AppleWebKit/537.36 (KHTML, like Gecko) Version/4.0 Chrome/37.0.0.0 Mobile MQQBrowser/6.8 TBS/036849 Safari/537.36 MicroMessenger/6.3.27.880 NetType/WIFI Language/zh_CN'
p1753
sg16
S'11357e55a7115feb61c59461a1b49ee5'
p1754
sa(dp1755
g2
S'39895'
p1756
sg4
S'5677'
p1757
sg6
S'5b48c78089c6f21a864d9e71cbaf0c9d'
p1758
sg8
S'xxdb22f878ebe8a1b0b36ff54f2406130e'
p1759
sg10
S'xxf74adb47125fcfaa0b2929aa433fcb5b'
p1760
sg12
S'xx04d406bdb9111e31da402046d12860ad'
p1761
sg14
S'Mozilla/5.0 (Linux; Android 5.1; SM-J7008 Build/LMY47O) AppleWebKit/537.36 (KHTML, like Gecko) Version/4.0 Chrome/37.0.0.0 Mobile MQQBrowser/6.8 TBS/036849 Safari/537.36 MicroMessenger/6.3.27.880 NetType/WIFI Language/zh_CN'
p1762
sg16
S'11357e55a7115feb61c59461a1b49ee5'
p1763
sa(dp1764
g2
S'39895'
p1765
sg4
S'5694'
p1766
sg6
S'5b48c78089c6f21a864d9e71cbaf0c9d'
p1767
sg8
S'xxdb22f878ebe8a1b0b36ff54f2406130e'
p1768
sg10
S'xxf74adb47125fcfaa0b2929aa433fcb5b'
p1769
sg12
S'xx04d406bdb9111e31da402046d12860ad'
p1770
sg14
S'Mozilla/5.0 (Linux; Android 5.1; SM-J7008 Build/LMY47O) AppleWebKit/537.36 (KHTML, like Gecko) Version/4.0 Chrome/37.0.0.0 Mobile MQQBrowser/6.8 TBS/036849 Safari/537.36 MicroMessenger/6.3.27.880 NetType/WIFI Language/zh_CN'
p1771
sg16
S'11357e55a7115feb61c59461a1b49ee5'
p1772
sa(dp1773
g2
S'39895'
p1774
sg4
S'5714'
p1775
sg6
S'5b48c78089c6f21a864d9e71cbaf0c9d'
p1776
sg8
S'xxdb22f878ebe8a1b0b36ff54f2406130e'
p1777
sg10
S'xxf74adb47125fcfaa0b2929aa433fcb5b'
p1778
sg12
S'xx04d406bdb9111e31da402046d12860ad'
p1779
sg14
S'Mozilla/5.0 (Linux; Android 5.1; SM-J7008 Build/LMY47O) AppleWebKit/537.36 (KHTML, like Gecko) Version/4.0 Chrome/37.0.0.0 Mobile MQQBrowser/6.8 TBS/036849 Safari/537.36 MicroMessenger/6.3.27.880 NetType/WIFI Language/zh_CN'
p1780
sg16
S'11357e55a7115feb61c59461a1b49ee5'
p1781
sa(dp1782
g2
S'39895'
p1783
sg4
S'5729'
p1784
sg6
S'5b48c78089c6f21a864d9e71cbaf0c9d'
p1785
sg8
S'xxdb22f878ebe8a1b0b36ff54f2406130e'
p1786
sg10
S'xxf74adb47125fcfaa0b2929aa433fcb5b'
p1787
sg12
S'xx04d406bdb9111e31da402046d12860ad'
p1788
sg14
S'Mozilla/5.0 (Linux; Android 5.1; SM-J7008 Build/LMY47O) AppleWebKit/537.36 (KHTML, like Gecko) Version/4.0 Chrome/37.0.0.0 Mobile MQQBrowser/6.8 TBS/036849 Safari/537.36 MicroMessenger/6.3.27.880 NetType/WIFI Language/zh_CN'
p1789
sg16
S'11357e55a7115feb61c59461a1b49ee5'
p1790
sa(dp1791
g2
S'39895'
p1792
sg4
S'5744'
p1793
sg6
S'5b48c78089c6f21a864d9e71cbaf0c9d'
p1794
sg8
S'xxdb22f878ebe8a1b0b36ff54f2406130e'
p1795
sg10
S'xxf74adb47125fcfaa0b2929aa433fcb5b'
p1796
sg12
S'xx04d406bdb9111e31da402046d12860ad'
p1797
sg14
S'Mozilla/5.0 (Linux; Android 5.1; SM-J7008 Build/LMY47O) AppleWebKit/537.36 (KHTML, like Gecko) Version/4.0 Chrome/37.0.0.0 Mobile MQQBrowser/6.8 TBS/036849 Safari/537.36 MicroMessenger/6.3.27.880 NetType/WIFI Language/zh_CN'
p1798
sg16
S'11357e55a7115feb61c59461a1b49ee5'
p1799
sa(dp1800
g2
S'39895'
p1801
sg4
S'5765'
p1802
sg6
S'5b48c78089c6f21a864d9e71cbaf0c9d'
p1803
sg8
S'xxdb22f878ebe8a1b0b36ff54f2406130e'
p1804
sg10
S'xxf74adb47125fcfaa0b2929aa433fcb5b'
p1805
sg12
S'xx04d406bdb9111e31da402046d12860ad'
p1806
sg14
S'Mozilla/5.0 (Linux; Android 5.1; SM-J7008 Build/LMY47O) AppleWebKit/537.36 (KHTML, like Gecko) Version/4.0 Chrome/37.0.0.0 Mobile MQQBrowser/6.8 TBS/036849 Safari/537.36 MicroMessenger/6.3.27.880 NetType/WIFI Language/zh_CN'
p1807
sg16
S'11357e55a7115feb61c59461a1b49ee5'
p1808
sa(dp1809
g2
S'39895'
p1810
sg4
S'5786'
p1811
sg6
S'5b48c78089c6f21a864d9e71cbaf0c9d'
p1812
sg8
S'xxdb22f878ebe8a1b0b36ff54f2406130e'
p1813
sg10
S'xxf74adb47125fcfaa0b2929aa433fcb5b'
p1814
sg12
S'xx04d406bdb9111e31da402046d12860ad'
p1815
sg14
S'Mozilla/5.0 (Linux; Android 5.1; SM-J7008 Build/LMY47O) AppleWebKit/537.36 (KHTML, like Gecko) Version/4.0 Chrome/37.0.0.0 Mobile MQQBrowser/6.8 TBS/036849 Safari/537.36 MicroMessenger/6.3.27.880 NetType/WIFI Language/zh_CN'
p1816
sg16
S'11357e55a7115feb61c59461a1b49ee5'
p1817
sa(dp1818
g2
S'39895'
p1819
sg4
S'5803'
p1820
sg6
S'5b48c78089c6f21a864d9e71cbaf0c9d'
p1821
sg8
S'xxdb22f878ebe8a1b0b36ff54f2406130e'
p1822
sg10
S'xxf74adb47125fcfaa0b2929aa433fcb5b'
p1823
sg12
S'xx04d406bdb9111e31da402046d12860ad'
p1824
sg14
S'Mozilla/5.0 (Linux; Android 5.1; SM-J7008 Build/LMY47O) AppleWebKit/537.36 (KHTML, like Gecko) Version/4.0 Chrome/37.0.0.0 Mobile MQQBrowser/6.8 TBS/036849 Safari/537.36 MicroMessenger/6.3.27.880 NetType/WIFI Language/zh_CN'
p1825
sg16
S'11357e55a7115feb61c59461a1b49ee5'
p1826
sa(dp1827
g2
S'39895'
p1828
sg4
S'5822'
p1829
sg6
S'5b48c78089c6f21a864d9e71cbaf0c9d'
p1830
sg8
S'xxdb22f878ebe8a1b0b36ff54f2406130e'
p1831
sg10
S'xxf74adb47125fcfaa0b2929aa433fcb5b'
p1832
sg12
S'xx04d406bdb9111e31da402046d12860ad'
p1833
sg14
S'Mozilla/5.0 (Linux; Android 5.1; SM-J7008 Build/LMY47O) AppleWebKit/537.36 (KHTML, like Gecko) Version/4.0 Chrome/37.0.0.0 Mobile MQQBrowser/6.8 TBS/036849 Safari/537.36 MicroMessenger/6.3.27.880 NetType/WIFI Language/zh_CN'
p1834
sg16
S'11357e55a7115feb61c59461a1b49ee5'
p1835
sa(dp1836
g2
S'39895'
p1837
sg4
S'5837'
p1838
sg6
S'5b48c78089c6f21a864d9e71cbaf0c9d'
p1839
sg8
S'xxdb22f878ebe8a1b0b36ff54f2406130e'
p1840
sg10
S'xxf74adb47125fcfaa0b2929aa433fcb5b'
p1841
sg12
S'xx04d406bdb9111e31da402046d12860ad'
p1842
sg14
S'Mozilla/5.0 (Linux; Android 5.1; SM-J7008 Build/LMY47O) AppleWebKit/537.36 (KHTML, like Gecko) Version/4.0 Chrome/37.0.0.0 Mobile MQQBrowser/6.8 TBS/036849 Safari/537.36 MicroMessenger/6.3.27.880 NetType/WIFI Language/zh_CN'
p1843
sg16
S'11357e55a7115feb61c59461a1b49ee5'
p1844
sa(dp1845
g2
S'39895'
p1846
sg4
S'5850'
p1847
sg6
S'5b48c78089c6f21a864d9e71cbaf0c9d'
p1848
sg8
S'xxdb22f878ebe8a1b0b36ff54f2406130e'
p1849
sg10
S'xxf74adb47125fcfaa0b2929aa433fcb5b'
p1850
sg12
S'xx04d406bdb9111e31da402046d12860ad'
p1851
sg14
S'Mozilla/5.0 (Linux; Android 5.1; SM-J7008 Build/LMY47O) AppleWebKit/537.36 (KHTML, like Gecko) Version/4.0 Chrome/37.0.0.0 Mobile MQQBrowser/6.8 TBS/036849 Safari/537.36 MicroMessenger/6.3.27.880 NetType/WIFI Language/zh_CN'
p1852
sg16
S'11357e55a7115feb61c59461a1b49ee5'
p1853
sa(dp1854
g2
S'39895'
p1855
sg4
S'5871'
p1856
sg6
S'5b48c78089c6f21a864d9e71cbaf0c9d'
p1857
sg8
S'xxdb22f878ebe8a1b0b36ff54f2406130e'
p1858
sg10
S'xxf74adb47125fcfaa0b2929aa433fcb5b'
p1859
sg12
S'xx04d406bdb9111e31da402046d12860ad'
p1860
sg14
S'Mozilla/5.0 (Linux; Android 5.1; SM-J7008 Build/LMY47O) AppleWebKit/537.36 (KHTML, like Gecko) Version/4.0 Chrome/37.0.0.0 Mobile MQQBrowser/6.8 TBS/036849 Safari/537.36 MicroMessenger/6.3.27.880 NetType/WIFI Language/zh_CN'
p1861
sg16
S'11357e55a7115feb61c59461a1b49ee5'
p1862
sa(dp1863
g2
S'39895'
p1864
sg4
S'5890'
p1865
sg6
S'5b48c78089c6f21a864d9e71cbaf0c9d'
p1866
sg8
S'xxdb22f878ebe8a1b0b36ff54f2406130e'
p1867
sg10
S'xxf74adb47125fcfaa0b2929aa433fcb5b'
p1868
sg12
S'xx04d406bdb9111e31da402046d12860ad'
p1869
sg14
S'Mozilla/5.0 (Linux; Android 5.1; SM-J7008 Build/LMY47O) AppleWebKit/537.36 (KHTML, like Gecko) Version/4.0 Chrome/37.0.0.0 Mobile MQQBrowser/6.8 TBS/036849 Safari/537.36 MicroMessenger/6.3.27.880 NetType/WIFI Language/zh_CN'
p1870
sg16
S'11357e55a7115feb61c59461a1b49ee5'
p1871
sa(dp1872
g2
S'39895'
p1873
sg4
S'6488'
p1874
sg6
S'03f52a4f7e66c7ccc384ce91e7bd50e9'
p1875
sg8
S'xxdb22f878ebe8a1b0b36ff54f2406130e'
p1876
sg10
S'xxf74adb47125fcfaa0b2929aa433fcb5b'
p1877
sg12
S'xx04d406bdb9111e31da402046d12860ad'
p1878
sg14
S'Mozilla/5.0 (Linux; Android 5.1; SM-J7008 Build/LMY47O) AppleWebKit/537.36 (KHTML, like Gecko) Version/4.0 Chrome/37.0.0.0 Mobile MQQBrowser/6.8 TBS/036849 Safari/537.36 MicroMessenger/6.3.27.880 NetType/WIFI Language/zh_CN'
p1879
sg16
S'11357e55a7115feb61c59461a1b49ee5'
p1880
sa(dp1881
g2
S'39895'
p1882
sg4
S'6504'
p1883
sg6
S'03f52a4f7e66c7ccc384ce91e7bd50e9'
p1884
sg8
S'xxdb22f878ebe8a1b0b36ff54f2406130e'
p1885
sg10
S'xxf74adb47125fcfaa0b2929aa433fcb5b'
p1886
sg12
S'xx04d406bdb9111e31da402046d12860ad'
p1887
sg14
S'Mozilla/5.0 (Linux; Android 5.1; SM-J7008 Build/LMY47O) AppleWebKit/537.36 (KHTML, like Gecko) Version/4.0 Chrome/37.0.0.0 Mobile MQQBrowser/6.8 TBS/036849 Safari/537.36 MicroMessenger/6.3.27.880 NetType/WIFI Language/zh_CN'
p1888
sg16
S'11357e55a7115feb61c59461a1b49ee5'
p1889
sa(dp1890
g2
S'39895'
p1891
sg4
S'6522'
p1892
sg6
S'03f52a4f7e66c7ccc384ce91e7bd50e9'
p1893
sg8
S'xxdb22f878ebe8a1b0b36ff54f2406130e'
p1894
sg10
S'xxf74adb47125fcfaa0b2929aa433fcb5b'
p1895
sg12
S'xx04d406bdb9111e31da402046d12860ad'
p1896
sg14
S'Mozilla/5.0 (Linux; Android 5.1; SM-J7008 Build/LMY47O) AppleWebKit/537.36 (KHTML, like Gecko) Version/4.0 Chrome/37.0.0.0 Mobile MQQBrowser/6.8 TBS/036849 Safari/537.36 MicroMessenger/6.3.27.880 NetType/WIFI Language/zh_CN'
p1897
sg16
S'11357e55a7115feb61c59461a1b49ee5'
p1898
sa(dp1899
g2
S'39895'
p1900
sg4
S'6546'
p1901
sg6
S'03f52a4f7e66c7ccc384ce91e7bd50e9'
p1902
sg8
S'xxdb22f878ebe8a1b0b36ff54f2406130e'
p1903
sg10
S'xxf74adb47125fcfaa0b2929aa433fcb5b'
p1904
sg12
S'xx04d406bdb9111e31da402046d12860ad'
p1905
sg14
S'Mozilla/5.0 (Linux; Android 5.1; SM-J7008 Build/LMY47O) AppleWebKit/537.36 (KHTML, like Gecko) Version/4.0 Chrome/37.0.0.0 Mobile MQQBrowser/6.8 TBS/036849 Safari/537.36 MicroMessenger/6.3.27.880 NetType/WIFI Language/zh_CN'
p1906
sg16
S'11357e55a7115feb61c59461a1b49ee5'
p1907
sa(dp1908
g2
S'39895'
p1909
sg4
S'6564'
p1910
sg6
S'03f52a4f7e66c7ccc384ce91e7bd50e9'
p1911
sg8
S'xxdb22f878ebe8a1b0b36ff54f2406130e'
p1912
sg10
S'xxf74adb47125fcfaa0b2929aa433fcb5b'
p1913
sg12
S'xx04d406bdb9111e31da402046d12860ad'
p1914
sg14
S'Mozilla/5.0 (Linux; Android 5.1; SM-J7008 Build/LMY47O) AppleWebKit/537.36 (KHTML, like Gecko) Version/4.0 Chrome/37.0.0.0 Mobile MQQBrowser/6.8 TBS/036849 Safari/537.36 MicroMessenger/6.3.27.880 NetType/WIFI Language/zh_CN'
p1915
sg16
S'11357e55a7115feb61c59461a1b49ee5'
p1916
sa(dp1917
g2
S'39895'
p1918
sg4
S'6583'
p1919
sg6
S'03f52a4f7e66c7ccc384ce91e7bd50e9'
p1920
sg8
S'xxdb22f878ebe8a1b0b36ff54f2406130e'
p1921
sg10
S'xxf74adb47125fcfaa0b2929aa433fcb5b'
p1922
sg12
S'xx04d406bdb9111e31da402046d12860ad'
p1923
sg14
S'Mozilla/5.0 (Linux; Android 5.1; SM-J7008 Build/LMY47O) AppleWebKit/537.36 (KHTML, like Gecko) Version/4.0 Chrome/37.0.0.0 Mobile MQQBrowser/6.8 TBS/036849 Safari/537.36 MicroMessenger/6.3.27.880 NetType/WIFI Language/zh_CN'
p1924
sg16
S'11357e55a7115feb61c59461a1b49ee5'
p1925
sa(dp1926
g2
S'39895'
p1927
sg4
S'6600'
p1928
sg6
S'03f52a4f7e66c7ccc384ce91e7bd50e9'
p1929
sg8
S'xxdb22f878ebe8a1b0b36ff54f2406130e'
p1930
sg10
S'xxf74adb47125fcfaa0b2929aa433fcb5b'
p1931
sg12
S'xx04d406bdb9111e31da402046d12860ad'
p1932
sg14
S'Mozilla/5.0 (Linux; Android 5.1; SM-J7008 Build/LMY47O) AppleWebKit/537.36 (KHTML, like Gecko) Version/4.0 Chrome/37.0.0.0 Mobile MQQBrowser/6.8 TBS/036849 Safari/537.36 MicroMessenger/6.3.27.880 NetType/WIFI Language/zh_CN'
p1933
sg16
S'11357e55a7115feb61c59461a1b49ee5'
p1934
sa(dp1935
g2
S'42393'
p1936
sg4
S'6608'
p1937
sg6
S'03f52a4f7e66c7ccc384ce91e7bd50e9'
p1938
sg8
S'xxed9c58388c0ca14db920ce6bc2ac6a8d'
p1939
sg10
S'xxf74adb47125fcfaa0b2929aa433fcb5b'
p1940
sg12
S'xx04d406bdb9111e31da402046d12860ad'
p1941
sg14
S'Mozilla/5.0 (Linux; Android 5.1; SM-J7008 Build/LMY47O) AppleWebKit/537.36 (KHTML, like Gecko) Version/4.0 Chrome/37.0.0.0 Mobile MQQBrowser/6.8 TBS/036824 Safari/537.36 MicroMessenger/6.3.27.880 NetType/WIFI Language/zh_CN'
p1942
sg16
S'432108ae3ab300685e4492c332448608'
p1943
sa(dp1944
g2
S'39895'
p1945
sg4
S'6617'
p1946
sg6
S'03f52a4f7e66c7ccc384ce91e7bd50e9'
p1947
sg8
S'xxdb22f878ebe8a1b0b36ff54f2406130e'
p1948
sg10
S'xxf74adb47125fcfaa0b2929aa433fcb5b'
p1949
sg12
S'xx04d406bdb9111e31da402046d12860ad'
p1950
sg14
S'Mozilla/5.0 (Linux; Android 5.1; SM-J7008 Build/LMY47O) AppleWebKit/537.36 (KHTML, like Gecko) Version/4.0 Chrome/37.0.0.0 Mobile MQQBrowser/6.8 TBS/036849 Safari/537.36 MicroMessenger/6.3.27.880 NetType/WIFI Language/zh_CN'
p1951
sg16
S'11357e55a7115feb61c59461a1b49ee5'
p1952
sa(dp1953
g2
S'42393'
p1954
sg4
S'6624'
p1955
sg6
S'03f52a4f7e66c7ccc384ce91e7bd50e9'
p1956
sg8
S'xxed9c58388c0ca14db920ce6bc2ac6a8d'
p1957
sg10
S'xxf74adb47125fcfaa0b2929aa433fcb5b'
p1958
sg12
S'xx04d406bdb9111e31da402046d12860ad'
p1959
sg14
S'Mozilla/5.0 (Linux; Android 5.1; SM-J7008 Build/LMY47O) AppleWebKit/537.36 (KHTML, like Gecko) Version/4.0 Chrome/37.0.0.0 Mobile MQQBrowser/6.8 TBS/036824 Safari/537.36 MicroMessenger/6.3.27.880 NetType/WIFI Language/zh_CN'
p1960
sg16
S'432108ae3ab300685e4492c332448608'
p1961
sa(dp1962
g2
S'39895'
p1963
sg4
S'6634'
p1964
sg6
S'03f52a4f7e66c7ccc384ce91e7bd50e9'
p1965
sg8
S'xxdb22f878ebe8a1b0b36ff54f2406130e'
p1966
sg10
S'xxf74adb47125fcfaa0b2929aa433fcb5b'
p1967
sg12
S'xx04d406bdb9111e31da402046d12860ad'
p1968
sg14
S'Mozilla/5.0 (Linux; Android 5.1; SM-J7008 Build/LMY47O) AppleWebKit/537.36 (KHTML, like Gecko) Version/4.0 Chrome/37.0.0.0 Mobile MQQBrowser/6.8 TBS/036849 Safari/537.36 MicroMessenger/6.3.27.880 NetType/WIFI Language/zh_CN'
p1969
sg16
S'11357e55a7115feb61c59461a1b49ee5'
p1970
sa(dp1971
g2
S'39895'
p1972
sg4
S'6656'
p1973
sg6
S'03f52a4f7e66c7ccc384ce91e7bd50e9'
p1974
sg8
S'xxdb22f878ebe8a1b0b36ff54f2406130e'
p1975
sg10
S'xxf74adb47125fcfaa0b2929aa433fcb5b'
p1976
sg12
S'xx04d406bdb9111e31da402046d12860ad'
p1977
sg14
S'Mozilla/5.0 (Linux; Android 5.1; SM-J7008 Build/LMY47O) AppleWebKit/537.36 (KHTML, like Gecko) Version/4.0 Chrome/37.0.0.0 Mobile MQQBrowser/6.8 TBS/036849 Safari/537.36 MicroMessenger/6.3.27.880 NetType/WIFI Language/zh_CN'
p1978
sg16
S'11357e55a7115feb61c59461a1b49ee5'
p1979
sa(dp1980
g2
S'39895'
p1981
sg4
S'6676'
p1982
sg6
S'03f52a4f7e66c7ccc384ce91e7bd50e9'
p1983
sg8
S'xxdb22f878ebe8a1b0b36ff54f2406130e'
p1984
sg10
S'xxf74adb47125fcfaa0b2929aa433fcb5b'
p1985
sg12
S'xx04d406bdb9111e31da402046d12860ad'
p1986
sg14
S'Mozilla/5.0 (Linux; Android 5.1; SM-J7008 Build/LMY47O) AppleWebKit/537.36 (KHTML, like Gecko) Version/4.0 Chrome/37.0.0.0 Mobile MQQBrowser/6.8 TBS/036849 Safari/537.36 MicroMessenger/6.3.27.880 NetType/WIFI Language/zh_CN'
p1987
sg16
S'11357e55a7115feb61c59461a1b49ee5'
p1988
sa(dp1989
g2
S'39895'
p1990
sg4
S'6694'
p1991
sg6
S'03f52a4f7e66c7ccc384ce91e7bd50e9'
p1992
sg8
S'xxdb22f878ebe8a1b0b36ff54f2406130e'
p1993
sg10
S'xxf74adb47125fcfaa0b2929aa433fcb5b'
p1994
sg12
S'xx04d406bdb9111e31da402046d12860ad'
p1995
sg14
S'Mozilla/5.0 (Linux; Android 5.1; SM-J7008 Build/LMY47O) AppleWebKit/537.36 (KHTML, like Gecko) Version/4.0 Chrome/37.0.0.0 Mobile MQQBrowser/6.8 TBS/036849 Safari/537.36 MicroMessenger/6.3.27.880 NetType/WIFI Language/zh_CN'
p1996
sg16
S'11357e55a7115feb61c59461a1b49ee5'
p1997
sa(dp1998
g2
S'39895'
p1999
sg4
S'6722'
p2000
sg6
S'03f52a4f7e66c7ccc384ce91e7bd50e9'
p2001
sg8
S'xxdb22f878ebe8a1b0b36ff54f2406130e'
p2002
sg10
S'xxf74adb47125fcfaa0b2929aa433fcb5b'
p2003
sg12
S'xx04d406bdb9111e31da402046d12860ad'
p2004
sg14
S'Mozilla/5.0 (Linux; Android 5.1; SM-J7008 Build/LMY47O) AppleWebKit/537.36 (KHTML, like Gecko) Version/4.0 Chrome/37.0.0.0 Mobile MQQBrowser/6.8 TBS/036849 Safari/537.36 MicroMessenger/6.3.27.880 NetType/WIFI Language/zh_CN'
p2005
sg16
S'11357e55a7115feb61c59461a1b49ee5'
p2006
sa(dp2007
g2
S'39895'
p2008
sg4
S'6836'
p2009
sg6
S'03f52a4f7e66c7ccc384ce91e7bd50e9'
p2010
sg8
S'xxdb22f878ebe8a1b0b36ff54f2406130e'
p2011
sg10
S'xxf74adb47125fcfaa0b2929aa433fcb5b'
p2012
sg12
S'xx04d406bdb9111e31da402046d12860ad'
p2013
sg14
S'Mozilla/5.0 (Linux; Android 5.1; SM-J7008 Build/LMY47O) AppleWebKit/537.36 (KHTML, like Gecko) Version/4.0 Chrome/37.0.0.0 Mobile MQQBrowser/6.8 TBS/036849 Safari/537.36 MicroMessenger/6.3.27.880 NetType/WIFI Language/zh_CN'
p2014
sg16
S'11357e55a7115feb61c59461a1b49ee5'
p2015
sa(dp2016
g2
S'39895'
p2017
sg4
S'6847'
p2018
sg6
S'03f52a4f7e66c7ccc384ce91e7bd50e9'
p2019
sg8
S'xxdb22f878ebe8a1b0b36ff54f2406130e'
p2020
sg10
S'xxf74adb47125fcfaa0b2929aa433fcb5b'
p2021
sg12
S'xx04d406bdb9111e31da402046d12860ad'
p2022
sg14
S'Mozilla/5.0 (Linux; Android 5.1; SM-J7008 Build/LMY47O) AppleWebKit/537.36 (KHTML, like Gecko) Version/4.0 Chrome/37.0.0.0 Mobile MQQBrowser/6.8 TBS/036849 Safari/537.36 MicroMessenger/6.3.27.880 NetType/WIFI Language/zh_CN'
p2023
sg16
S'11357e55a7115feb61c59461a1b49ee5'
p2024
sa(dp2025
g2
S'39895'
p2026
sg4
S'6870'
p2027
sg6
S'03f52a4f7e66c7ccc384ce91e7bd50e9'
p2028
sg8
S'xxdb22f878ebe8a1b0b36ff54f2406130e'
p2029
sg10
S'xxf74adb47125fcfaa0b2929aa433fcb5b'
p2030
sg12
S'xx04d406bdb9111e31da402046d12860ad'
p2031
sg14
S'Mozilla/5.0 (Linux; Android 5.1; SM-J7008 Build/LMY47O) AppleWebKit/537.36 (KHTML, like Gecko) Version/4.0 Chrome/37.0.0.0 Mobile MQQBrowser/6.8 TBS/036849 Safari/537.36 MicroMessenger/6.3.27.880 NetType/WIFI Language/zh_CN'
p2032
sg16
S'11357e55a7115feb61c59461a1b49ee5'
p2033
sa(dp2034
g2
S'39895'
p2035
sg4
S'6901'
p2036
sg6
S'03f52a4f7e66c7ccc384ce91e7bd50e9'
p2037
sg8
S'xxdb22f878ebe8a1b0b36ff54f2406130e'
p2038
sg10
S'xxf74adb47125fcfaa0b2929aa433fcb5b'
p2039
sg12
S'xx04d406bdb9111e31da402046d12860ad'
p2040
sg14
S'Mozilla/5.0 (Linux; Android 5.1; SM-J7008 Build/LMY47O) AppleWebKit/537.36 (KHTML, like Gecko) Version/4.0 Chrome/37.0.0.0 Mobile MQQBrowser/6.8 TBS/036849 Safari/537.36 MicroMessenger/6.3.27.880 NetType/WIFI Language/zh_CN'
p2041
sg16
S'11357e55a7115feb61c59461a1b49ee5'
p2042
sa(dp2043
g2
S'39895'
p2044
sg4
S'6919'
p2045
sg6
S'03f52a4f7e66c7ccc384ce91e7bd50e9'
p2046
sg8
S'xxdb22f878ebe8a1b0b36ff54f2406130e'
p2047
sg10
S'xxf74adb47125fcfaa0b2929aa433fcb5b'
p2048
sg12
S'xx04d406bdb9111e31da402046d12860ad'
p2049
sg14
S'Mozilla/5.0 (Linux; Android 5.1; SM-J7008 Build/LMY47O) AppleWebKit/537.36 (KHTML, like Gecko) Version/4.0 Chrome/37.0.0.0 Mobile MQQBrowser/6.8 TBS/036849 Safari/537.36 MicroMessenger/6.3.27.880 NetType/WIFI Language/zh_CN'
p2050
sg16
S'11357e55a7115feb61c59461a1b49ee5'
p2051
sa(dp2052
g2
S'39895'
p2053
sg4
S'6934'
p2054
sg6
S'03f52a4f7e66c7ccc384ce91e7bd50e9'
p2055
sg8
S'xxdb22f878ebe8a1b0b36ff54f2406130e'
p2056
sg10
S'xxf74adb47125fcfaa0b2929aa433fcb5b'
p2057
sg12
S'xx04d406bdb9111e31da402046d12860ad'
p2058
sg14
S'Mozilla/5.0 (Linux; Android 5.1; SM-J7008 Build/LMY47O) AppleWebKit/537.36 (KHTML, like Gecko) Version/4.0 Chrome/37.0.0.0 Mobile MQQBrowser/6.8 TBS/036849 Safari/537.36 MicroMessenger/6.3.27.880 NetType/WIFI Language/zh_CN'
p2059
sg16
S'11357e55a7115feb61c59461a1b49ee5'
p2060
sa(dp2061
g2
S'39895'
p2062
sg4
S'6957'
p2063
sg6
S'03f52a4f7e66c7ccc384ce91e7bd50e9'
p2064
sg8
S'xxdb22f878ebe8a1b0b36ff54f2406130e'
p2065
sg10
S'xxf74adb47125fcfaa0b2929aa433fcb5b'
p2066
sg12
S'xx04d406bdb9111e31da402046d12860ad'
p2067
sg14
S'Mozilla/5.0 (Linux; Android 5.1; SM-J7008 Build/LMY47O) AppleWebKit/537.36 (KHTML, like Gecko) Version/4.0 Chrome/37.0.0.0 Mobile MQQBrowser/6.8 TBS/036849 Safari/537.36 MicroMessenger/6.3.27.880 NetType/WIFI Language/zh_CN'
p2068
sg16
S'11357e55a7115feb61c59461a1b49ee5'
p2069
sa(dp2070
g2
S'39895'
p2071
sg4
S'6985'
p2072
sg6
S'03f52a4f7e66c7ccc384ce91e7bd50e9'
p2073
sg8
S'xxdb22f878ebe8a1b0b36ff54f2406130e'
p2074
sg10
S'xxf74adb47125fcfaa0b2929aa433fcb5b'
p2075
sg12
S'xx04d406bdb9111e31da402046d12860ad'
p2076
sg14
S'Mozilla/5.0 (Linux; Android 5.1; SM-J7008 Build/LMY47O) AppleWebKit/537.36 (KHTML, like Gecko) Version/4.0 Chrome/37.0.0.0 Mobile MQQBrowser/6.8 TBS/036849 Safari/537.36 MicroMessenger/6.3.27.880 NetType/WIFI Language/zh_CN'
p2077
sg16
S'11357e55a7115feb61c59461a1b49ee5'
p2078
sa(dp2079
g2
S'39895'
p2080
sg4
S'6996'
p2081
sg6
S'03f52a4f7e66c7ccc384ce91e7bd50e9'
p2082
sg8
S'xxdb22f878ebe8a1b0b36ff54f2406130e'
p2083
sg10
S'xxf74adb47125fcfaa0b2929aa433fcb5b'
p2084
sg12
S'xx04d406bdb9111e31da402046d12860ad'
p2085
sg14
S'Mozilla/5.0 (Linux; Android 5.1; SM-J7008 Build/LMY47O) AppleWebKit/537.36 (KHTML, like Gecko) Version/4.0 Chrome/37.0.0.0 Mobile MQQBrowser/6.8 TBS/036849 Safari/537.36 MicroMessenger/6.3.27.880 NetType/WIFI Language/zh_CN'
p2086
sg16
S'11357e55a7115feb61c59461a1b49ee5'
p2087
sa(dp2088
g2
S'39895'
p2089
sg4
S'7010'
p2090
sg6
S'03f52a4f7e66c7ccc384ce91e7bd50e9'
p2091
sg8
S'xxdb22f878ebe8a1b0b36ff54f2406130e'
p2092
sg10
S'xxf74adb47125fcfaa0b2929aa433fcb5b'
p2093
sg12
S'xx04d406bdb9111e31da402046d12860ad'
p2094
sg14
S'Mozilla/5.0 (Linux; Android 5.1; SM-J7008 Build/LMY47O) AppleWebKit/537.36 (KHTML, like Gecko) Version/4.0 Chrome/37.0.0.0 Mobile MQQBrowser/6.8 TBS/036849 Safari/537.36 MicroMessenger/6.3.27.880 NetType/WIFI Language/zh_CN'
p2095
sg16
S'11357e55a7115feb61c59461a1b49ee5'
p2096
sa(dp2097
g2
S'39895'
p2098
sg4
S'7027'
p2099
sg6
S'03f52a4f7e66c7ccc384ce91e7bd50e9'
p2100
sg8
S'xxdb22f878ebe8a1b0b36ff54f2406130e'
p2101
sg10
S'xxf74adb47125fcfaa0b2929aa433fcb5b'
p2102
sg12
S'xx04d406bdb9111e31da402046d12860ad'
p2103
sg14
S'Mozilla/5.0 (Linux; Android 5.1; SM-J7008 Build/LMY47O) AppleWebKit/537.36 (KHTML, like Gecko) Version/4.0 Chrome/37.0.0.0 Mobile MQQBrowser/6.8 TBS/036849 Safari/537.36 MicroMessenger/6.3.27.880 NetType/WIFI Language/zh_CN'
p2104
sg16
S'11357e55a7115feb61c59461a1b49ee5'
p2105
sa(dp2106
g2
S'39895'
p2107
sg4
S'7042'
p2108
sg6
S'03f52a4f7e66c7ccc384ce91e7bd50e9'
p2109
sg8
S'xxdb22f878ebe8a1b0b36ff54f2406130e'
p2110
sg10
S'xxf74adb47125fcfaa0b2929aa433fcb5b'
p2111
sg12
S'xx04d406bdb9111e31da402046d12860ad'
p2112
sg14
S'Mozilla/5.0 (Linux; Android 5.1; SM-J7008 Build/LMY47O) AppleWebKit/537.36 (KHTML, like Gecko) Version/4.0 Chrome/37.0.0.0 Mobile MQQBrowser/6.8 TBS/036849 Safari/537.36 MicroMessenger/6.3.27.880 NetType/WIFI Language/zh_CN'
p2113
sg16
S'11357e55a7115feb61c59461a1b49ee5'
p2114
sa(dp2115
g2
S'39895'
p2116
sg4
S'7058'
p2117
sg6
S'03f52a4f7e66c7ccc384ce91e7bd50e9'
p2118
sg8
S'xxdb22f878ebe8a1b0b36ff54f2406130e'
p2119
sg10
S'xxf74adb47125fcfaa0b2929aa433fcb5b'
p2120
sg12
S'xx04d406bdb9111e31da402046d12860ad'
p2121
sg14
S'Mozilla/5.0 (Linux; Android 5.1; SM-J7008 Build/LMY47O) AppleWebKit/537.36 (KHTML, like Gecko) Version/4.0 Chrome/37.0.0.0 Mobile MQQBrowser/6.8 TBS/036849 Safari/537.36 MicroMessenger/6.3.27.880 NetType/WIFI Language/zh_CN'
p2122
sg16
S'11357e55a7115feb61c59461a1b49ee5'
p2123
sa(dp2124
g2
S'39895'
p2125
sg4
S'7071'
p2126
sg6
S'03f52a4f7e66c7ccc384ce91e7bd50e9'
p2127
sg8
S'xxdb22f878ebe8a1b0b36ff54f2406130e'
p2128
sg10
S'xxf74adb47125fcfaa0b2929aa433fcb5b'
p2129
sg12
S'xx04d406bdb9111e31da402046d12860ad'
p2130
sg14
S'Mozilla/5.0 (Linux; Android 5.1; SM-J7008 Build/LMY47O) AppleWebKit/537.36 (KHTML, like Gecko) Version/4.0 Chrome/37.0.0.0 Mobile MQQBrowser/6.8 TBS/036849 Safari/537.36 MicroMessenger/6.3.27.880 NetType/WIFI Language/zh_CN'
p2131
sg16
S'11357e55a7115feb61c59461a1b49ee5'
p2132
sa(dp2133
g2
S'42393'
p2134
sg4
S'7274'
p2135
sg6
S'03f52a4f7e66c7ccc384ce91e7bd50e9'
p2136
sg8
S'xxed9c58388c0ca14db920ce6bc2ac6a8d'
p2137
sg10
S'xxf74adb47125fcfaa0b2929aa433fcb5b'
p2138
sg12
S'xx04d406bdb9111e31da402046d12860ad'
p2139
sg14
S'Mozilla/5.0 (Linux; Android 5.1; SM-J7008 Build/LMY47O) AppleWebKit/537.36 (KHTML, like Gecko) Version/4.0 Chrome/37.0.0.0 Mobile MQQBrowser/6.8 TBS/036824 Safari/537.36 MicroMessenger/6.3.27.880 NetType/WIFI Language/zh_CN'
p2140
sg16
S'432108ae3ab300685e4492c332448608'
p2141
sa(dp2142
g2
S'42393'
p2143
sg4
S'7294'
p2144
sg6
S'03f52a4f7e66c7ccc384ce91e7bd50e9'
p2145
sg8
S'xxed9c58388c0ca14db920ce6bc2ac6a8d'
p2146
sg10
S'xxf74adb47125fcfaa0b2929aa433fcb5b'
p2147
sg12
S'xx04d406bdb9111e31da402046d12860ad'
p2148
sg14
S'Mozilla/5.0 (Linux; Android 5.1; SM-J7008 Build/LMY47O) AppleWebKit/537.36 (KHTML, like Gecko) Version/4.0 Chrome/37.0.0.0 Mobile MQQBrowser/6.8 TBS/036824 Safari/537.36 MicroMessenger/6.3.27.880 NetType/WIFI Language/zh_CN'
p2149
sg16
S'432108ae3ab300685e4492c332448608'
p2150
sa(dp2151
g2
S'39895'
p2152
sg4
S'7438'
p2153
sg6
S'03f52a4f7e66c7ccc384ce91e7bd50e9'
p2154
sg8
S'xxdb22f878ebe8a1b0b36ff54f2406130e'
p2155
sg10
S'xxf74adb47125fcfaa0b2929aa433fcb5b'
p2156
sg12
S'xx04d406bdb9111e31da402046d12860ad'
p2157
sg14
S'Mozilla/5.0 (Linux; Android 5.1; SM-J7008 Build/LMY47O) AppleWebKit/537.36 (KHTML, like Gecko) Version/4.0 Chrome/37.0.0.0 Mobile MQQBrowser/6.8 TBS/036849 Safari/537.36 MicroMessenger/6.3.27.880 NetType/WIFI Language/zh_CN'
p2158
sg16
S'11357e55a7115feb61c59461a1b49ee5'
p2159
sa(dp2160
g2
S'39895'
p2161
sg4
S'7453'
p2162
sg6
S'03f52a4f7e66c7ccc384ce91e7bd50e9'
p2163
sg8
S'xxdb22f878ebe8a1b0b36ff54f2406130e'
p2164
sg10
S'xxf74adb47125fcfaa0b2929aa433fcb5b'
p2165
sg12
S'xx04d406bdb9111e31da402046d12860ad'
p2166
sg14
S'Mozilla/5.0 (Linux; Android 5.1; SM-J7008 Build/LMY47O) AppleWebKit/537.36 (KHTML, like Gecko) Version/4.0 Chrome/37.0.0.0 Mobile MQQBrowser/6.8 TBS/036849 Safari/537.36 MicroMessenger/6.3.27.880 NetType/WIFI Language/zh_CN'
p2167
sg16
S'11357e55a7115feb61c59461a1b49ee5'
p2168
sa(dp2169
g2
S'39895'
p2170
sg4
S'7466'
p2171
sg6
S'03f52a4f7e66c7ccc384ce91e7bd50e9'
p2172
sg8
S'xxdb22f878ebe8a1b0b36ff54f2406130e'
p2173
sg10
S'xxf74adb47125fcfaa0b2929aa433fcb5b'
p2174
sg12
S'xx04d406bdb9111e31da402046d12860ad'
p2175
sg14
S'Mozilla/5.0 (Linux; Android 5.1; SM-J7008 Build/LMY47O) AppleWebKit/537.36 (KHTML, like Gecko) Version/4.0 Chrome/37.0.0.0 Mobile MQQBrowser/6.8 TBS/036849 Safari/537.36 MicroMessenger/6.3.27.880 NetType/WIFI Language/zh_CN'
p2176
sg16
S'11357e55a7115feb61c59461a1b49ee5'
p2177
sa(dp2178
g2
S'39895'
p2179
sg4
S'7479'
p2180
sg6
S'03f52a4f7e66c7ccc384ce91e7bd50e9'
p2181
sg8
S'xxdb22f878ebe8a1b0b36ff54f2406130e'
p2182
sg10
S'xxf74adb47125fcfaa0b2929aa433fcb5b'
p2183
sg12
S'xx04d406bdb9111e31da402046d12860ad'
p2184
sg14
S'Mozilla/5.0 (Linux; Android 5.1; SM-J7008 Build/LMY47O) AppleWebKit/537.36 (KHTML, like Gecko) Version/4.0 Chrome/37.0.0.0 Mobile MQQBrowser/6.8 TBS/036849 Safari/537.36 MicroMessenger/6.3.27.880 NetType/WIFI Language/zh_CN'
p2185
sg16
S'11357e55a7115feb61c59461a1b49ee5'
p2186
sa(dp2187
g2
S'39895'
p2188
sg4
S'7494'
p2189
sg6
S'03f52a4f7e66c7ccc384ce91e7bd50e9'
p2190
sg8
S'xxdb22f878ebe8a1b0b36ff54f2406130e'
p2191
sg10
S'xxf74adb47125fcfaa0b2929aa433fcb5b'
p2192
sg12
S'xx04d406bdb9111e31da402046d12860ad'
p2193
sg14
S'Mozilla/5.0 (Linux; Android 5.1; SM-J7008 Build/LMY47O) AppleWebKit/537.36 (KHTML, like Gecko) Version/4.0 Chrome/37.0.0.0 Mobile MQQBrowser/6.8 TBS/036849 Safari/537.36 MicroMessenger/6.3.27.880 NetType/WIFI Language/zh_CN'
p2194
sg16
S'11357e55a7115feb61c59461a1b49ee5'
p2195
sa(dp2196
g2
S'39895'
p2197
sg4
S'7498'
p2198
sg6
S'03f52a4f7e66c7ccc384ce91e7bd50e9'
p2199
sg8
S'xxdb22f878ebe8a1b0b36ff54f2406130e'
p2200
sg10
S'xxf74adb47125fcfaa0b2929aa433fcb5b'
p2201
sg12
S'xx04d406bdb9111e31da402046d12860ad'
p2202
sg14
S'Mozilla/5.0 (Linux; Android 5.1; SM-J7008 Build/LMY47O) AppleWebKit/537.36 (KHTML, like Gecko) Version/4.0 Chrome/37.0.0.0 Mobile MQQBrowser/6.8 TBS/036849 Safari/537.36 MicroMessenger/6.3.27.880 NetType/WIFI Language/zh_CN'
p2203
sg16
S'11357e55a7115feb61c59461a1b49ee5'
p2204
sa(dp2205
g2
S'39895'
p2206
sg4
S'7510'
p2207
sg6
S'03f52a4f7e66c7ccc384ce91e7bd50e9'
p2208
sg8
S'xxdb22f878ebe8a1b0b36ff54f2406130e'
p2209
sg10
S'xxf74adb47125fcfaa0b2929aa433fcb5b'
p2210
sg12
S'xx04d406bdb9111e31da402046d12860ad'
p2211
sg14
S'Mozilla/5.0 (Linux; Android 5.1; SM-J7008 Build/LMY47O) AppleWebKit/537.36 (KHTML, like Gecko) Version/4.0 Chrome/37.0.0.0 Mobile MQQBrowser/6.8 TBS/036849 Safari/537.36 MicroMessenger/6.3.27.880 NetType/WIFI Language/zh_CN'
p2212
sg16
S'11357e55a7115feb61c59461a1b49ee5'
p2213
sa(dp2214
g2
S'42393'
p2215
sg4
S'7514'
p2216
sg6
S'03f52a4f7e66c7ccc384ce91e7bd50e9'
p2217
sg8
S'xxed9c58388c0ca14db920ce6bc2ac6a8d'
p2218
sg10
S'xxf74adb47125fcfaa0b2929aa433fcb5b'
p2219
sg12
S'xx04d406bdb9111e31da402046d12860ad'
p2220
sg14
S'Mozilla/5.0 (Linux; Android 5.1; SM-J7008 Build/LMY47O) AppleWebKit/537.36 (KHTML, like Gecko) Version/4.0 Chrome/37.0.0.0 Mobile MQQBrowser/6.8 TBS/036824 Safari/537.36 MicroMessenger/6.3.27.880 NetType/WIFI Language/zh_CN'
p2221
sg16
S'432108ae3ab300685e4492c332448608'
p2222
sa(dp2223
g2
S'39895'
p2224
sg4
S'7523'
p2225
sg6
S'03f52a4f7e66c7ccc384ce91e7bd50e9'
p2226
sg8
S'xxdb22f878ebe8a1b0b36ff54f2406130e'
p2227
sg10
S'xxf74adb47125fcfaa0b2929aa433fcb5b'
p2228
sg12
S'xx04d406bdb9111e31da402046d12860ad'
p2229
sg14
S'Mozilla/5.0 (Linux; Android 5.1; SM-J7008 Build/LMY47O) AppleWebKit/537.36 (KHTML, like Gecko) Version/4.0 Chrome/37.0.0.0 Mobile MQQBrowser/6.8 TBS/036849 Safari/537.36 MicroMessenger/6.3.27.880 NetType/WIFI Language/zh_CN'
p2230
sg16
S'11357e55a7115feb61c59461a1b49ee5'
p2231
sa(dp2232
g2
S'42393'
p2233
sg4
S'7529'
p2234
sg6
S'03f52a4f7e66c7ccc384ce91e7bd50e9'
p2235
sg8
S'xxed9c58388c0ca14db920ce6bc2ac6a8d'
p2236
sg10
S'xxf74adb47125fcfaa0b2929aa433fcb5b'
p2237
sg12
S'xx04d406bdb9111e31da402046d12860ad'
p2238
sg14
S'Mozilla/5.0 (Linux; Android 5.1; SM-J7008 Build/LMY47O) AppleWebKit/537.36 (KHTML, like Gecko) Version/4.0 Chrome/37.0.0.0 Mobile MQQBrowser/6.8 TBS/036824 Safari/537.36 MicroMessenger/6.3.27.880 NetType/WIFI Language/zh_CN'
p2239
sg16
S'432108ae3ab300685e4492c332448608'
p2240
sa(dp2241
g2
S'42393'
p2242
sg4
S'7541'
p2243
sg6
S'03f52a4f7e66c7ccc384ce91e7bd50e9'
p2244
sg8
S'xxed9c58388c0ca14db920ce6bc2ac6a8d'
p2245
sg10
S'xxf74adb47125fcfaa0b2929aa433fcb5b'
p2246
sg12
S'xx04d406bdb9111e31da402046d12860ad'
p2247
sg14
S'Mozilla/5.0 (Linux; Android 5.1; SM-J7008 Build/LMY47O) AppleWebKit/537.36 (KHTML, like Gecko) Version/4.0 Chrome/37.0.0.0 Mobile MQQBrowser/6.8 TBS/036824 Safari/537.36 MicroMessenger/6.3.27.880 NetType/WIFI Language/zh_CN'
p2248
sg16
S'432108ae3ab300685e4492c332448608'
p2249
sa(dp2250
g2
S'42393'
p2251
sg4
S'7553'
p2252
sg6
S'03f52a4f7e66c7ccc384ce91e7bd50e9'
p2253
sg8
S'xxed9c58388c0ca14db920ce6bc2ac6a8d'
p2254
sg10
S'xxf74adb47125fcfaa0b2929aa433fcb5b'
p2255
sg12
S'xx04d406bdb9111e31da402046d12860ad'
p2256
sg14
S'Mozilla/5.0 (Linux; Android 5.1; SM-J7008 Build/LMY47O) AppleWebKit/537.36 (KHTML, like Gecko) Version/4.0 Chrome/37.0.0.0 Mobile MQQBrowser/6.8 TBS/036824 Safari/537.36 MicroMessenger/6.3.27.880 NetType/WIFI Language/zh_CN'
p2257
sg16
S'432108ae3ab300685e4492c332448608'
p2258
sa(dp2259
g2
S'42393'
p2260
sg4
S'7566'
p2261
sg6
S'03f52a4f7e66c7ccc384ce91e7bd50e9'
p2262
sg8
S'xxed9c58388c0ca14db920ce6bc2ac6a8d'
p2263
sg10
S'xxf74adb47125fcfaa0b2929aa433fcb5b'
p2264
sg12
S'xx04d406bdb9111e31da402046d12860ad'
p2265
sg14
S'Mozilla/5.0 (Linux; Android 5.1; SM-J7008 Build/LMY47O) AppleWebKit/537.36 (KHTML, like Gecko) Version/4.0 Chrome/37.0.0.0 Mobile MQQBrowser/6.8 TBS/036824 Safari/537.36 MicroMessenger/6.3.27.880 NetType/WIFI Language/zh_CN'
p2266
sg16
S'432108ae3ab300685e4492c332448608'
p2267
sa(dp2268
g2
S'42393'
p2269
sg4
S'7581'
p2270
sg6
S'03f52a4f7e66c7ccc384ce91e7bd50e9'
p2271
sg8
S'xxed9c58388c0ca14db920ce6bc2ac6a8d'
p2272
sg10
S'xxf74adb47125fcfaa0b2929aa433fcb5b'
p2273
sg12
S'xx04d406bdb9111e31da402046d12860ad'
p2274
sg14
S'Mozilla/5.0 (Linux; Android 5.1; SM-J7008 Build/LMY47O) AppleWebKit/537.36 (KHTML, like Gecko) Version/4.0 Chrome/37.0.0.0 Mobile MQQBrowser/6.8 TBS/036824 Safari/537.36 MicroMessenger/6.3.27.880 NetType/WIFI Language/zh_CN'
p2275
sg16
S'432108ae3ab300685e4492c332448608'
p2276
sa(dp2277
g2
S'42393'
p2278
sg4
S'7593'
p2279
sg6
S'03f52a4f7e66c7ccc384ce91e7bd50e9'
p2280
sg8
S'xxed9c58388c0ca14db920ce6bc2ac6a8d'
p2281
sg10
S'xxf74adb47125fcfaa0b2929aa433fcb5b'
p2282
sg12
S'xx04d406bdb9111e31da402046d12860ad'
p2283
sg14
S'Mozilla/5.0 (Linux; Android 5.1; SM-J7008 Build/LMY47O) AppleWebKit/537.36 (KHTML, like Gecko) Version/4.0 Chrome/37.0.0.0 Mobile MQQBrowser/6.8 TBS/036824 Safari/537.36 MicroMessenger/6.3.27.880 NetType/WIFI Language/zh_CN'
p2284
sg16
S'432108ae3ab300685e4492c332448608'
p2285
sa(dp2286
g2
S'42393'
p2287
sg4
S'7602'
p2288
sg6
S'03f52a4f7e66c7ccc384ce91e7bd50e9'
p2289
sg8
S'xxed9c58388c0ca14db920ce6bc2ac6a8d'
p2290
sg10
S'xxf74adb47125fcfaa0b2929aa433fcb5b'
p2291
sg12
S'xx04d406bdb9111e31da402046d12860ad'
p2292
sg14
S'Mozilla/5.0 (Linux; Android 5.1; SM-J7008 Build/LMY47O) AppleWebKit/537.36 (KHTML, like Gecko) Version/4.0 Chrome/37.0.0.0 Mobile MQQBrowser/6.8 TBS/036824 Safari/537.36 MicroMessenger/6.3.27.880 NetType/WIFI Language/zh_CN'
p2293
sg16
S'432108ae3ab300685e4492c332448608'
p2294
sa(dp2295
g2
S'42393'
p2296
sg4
S'7612'
p2297
sg6
S'03f52a4f7e66c7ccc384ce91e7bd50e9'
p2298
sg8
S'xxed9c58388c0ca14db920ce6bc2ac6a8d'
p2299
sg10
S'xxf74adb47125fcfaa0b2929aa433fcb5b'
p2300
sg12
S'xx04d406bdb9111e31da402046d12860ad'
p2301
sg14
S'Mozilla/5.0 (Linux; Android 5.1; SM-J7008 Build/LMY47O) AppleWebKit/537.36 (KHTML, like Gecko) Version/4.0 Chrome/37.0.0.0 Mobile MQQBrowser/6.8 TBS/036824 Safari/537.36 MicroMessenger/6.3.27.880 NetType/WIFI Language/zh_CN'
p2302
sg16
S'432108ae3ab300685e4492c332448608'
p2303
sa(dp2304
g2
S'42393'
p2305
sg4
S'7632'
p2306
sg6
S'03f52a4f7e66c7ccc384ce91e7bd50e9'
p2307
sg8
S'xxed9c58388c0ca14db920ce6bc2ac6a8d'
p2308
sg10
S'xxf74adb47125fcfaa0b2929aa433fcb5b'
p2309
sg12
S'xx04d406bdb9111e31da402046d12860ad'
p2310
sg14
S'Mozilla/5.0 (Linux; Android 5.1; SM-J7008 Build/LMY47O) AppleWebKit/537.36 (KHTML, like Gecko) Version/4.0 Chrome/37.0.0.0 Mobile MQQBrowser/6.8 TBS/036824 Safari/537.36 MicroMessenger/6.3.27.880 NetType/WIFI Language/zh_CN'
p2311
sg16
S'432108ae3ab300685e4492c332448608'
p2312
sa(dp2313
g2
S'42393'
p2314
sg4
S'7645'
p2315
sg6
S'03f52a4f7e66c7ccc384ce91e7bd50e9'
p2316
sg8
S'xxed9c58388c0ca14db920ce6bc2ac6a8d'
p2317
sg10
S'xxf74adb47125fcfaa0b2929aa433fcb5b'
p2318
sg12
S'xx04d406bdb9111e31da402046d12860ad'
p2319
sg14
S'Mozilla/5.0 (Linux; Android 5.1; SM-J7008 Build/LMY47O) AppleWebKit/537.36 (KHTML, like Gecko) Version/4.0 Chrome/37.0.0.0 Mobile MQQBrowser/6.8 TBS/036824 Safari/537.36 MicroMessenger/6.3.27.880 NetType/WIFI Language/zh_CN'
p2320
sg16
S'432108ae3ab300685e4492c332448608'
p2321
sa(dp2322
g2
S'42393'
p2323
sg4
S'7663'
p2324
sg6
S'03f52a4f7e66c7ccc384ce91e7bd50e9'
p2325
sg8
S'xxed9c58388c0ca14db920ce6bc2ac6a8d'
p2326
sg10
S'xxf74adb47125fcfaa0b2929aa433fcb5b'
p2327
sg12
S'xx04d406bdb9111e31da402046d12860ad'
p2328
sg14
S'Mozilla/5.0 (Linux; Android 5.1; SM-J7008 Build/LMY47O) AppleWebKit/537.36 (KHTML, like Gecko) Version/4.0 Chrome/37.0.0.0 Mobile MQQBrowser/6.8 TBS/036824 Safari/537.36 MicroMessenger/6.3.27.880 NetType/WIFI Language/zh_CN'
p2329
sg16
S'432108ae3ab300685e4492c332448608'
p2330
sa.