(lp0
(dp1
S'user_id'
p2
S'36707'
p3
sS'data_id'
p4
S'159'
p5
sS'ip'
p6
S'716045ac0a643389933fb93fd735fce7'
p7
sS'phone_B'
p8
S'xx7ce99c05f90e1498d99592426171d009'
p9
sS'phone_C'
p10
S'xx8601ce131e6e5e19eff7e99d40353041'
p11
sS'phone_A'
p12
S'xx061cf2504f95ea3f48ce7edc48a35f92'
p13
sS'user_agent'
p14
S'Mozilla/5.0 (Linux; Android 6.0; CAM-AL00 Build/HONORCAM-AL00) AppleWebKit/537.36 (KHTML, like Gecko) Version/4.0 Chrome/37.0.0.0 Mobile MQQBrowser/6.8 TBS/036869 Safari/537.36 MicroMessenger/6.3.27.880 NetType/WIFI Language/zh_CN'
p15
sS'ua'
p16
S'e7568f8b109179c40fce357c326d0db0'
p17
sa(dp18
g2
S'36707'
p19
sg4
S'175'
p20
sg6
S'716045ac0a643389933fb93fd735fce7'
p21
sg8
S'xx7ce99c05f90e1498d99592426171d009'
p22
sg10
S'xx8601ce131e6e5e19eff7e99d40353041'
p23
sg12
S'xx061cf2504f95ea3f48ce7edc48a35f92'
p24
sg14
S'Mozilla/5.0 (Linux; Android 6.0; CAM-AL00 Build/HONORCAM-AL00) AppleWebKit/537.36 (KHTML, like Gecko) Version/4.0 Chrome/37.0.0.0 Mobile MQQBrowser/6.8 TBS/036869 Safari/537.36 MicroMessenger/6.3.27.880 NetType/WIFI Language/zh_CN'
p25
sg16
S'e7568f8b109179c40fce357c326d0db0'
p26
sa(dp27
g2
S'36707'
p28
sg4
S'198'
p29
sg6
S'716045ac0a643389933fb93fd735fce7'
p30
sg8
S'xx7ce99c05f90e1498d99592426171d009'
p31
sg10
S'xx8601ce131e6e5e19eff7e99d40353041'
p32
sg12
S'xx061cf2504f95ea3f48ce7edc48a35f92'
p33
sg14
S'Mozilla/5.0 (Linux; Android 6.0; CAM-AL00 Build/HONORCAM-AL00) AppleWebKit/537.36 (KHTML, like Gecko) Version/4.0 Chrome/37.0.0.0 Mobile MQQBrowser/6.8 TBS/036869 Safari/537.36 MicroMessenger/6.3.27.880 NetType/WIFI Language/zh_CN'
p34
sg16
S'e7568f8b109179c40fce357c326d0db0'
p35
sa(dp36
g2
S'36707'
p37
sg4
S'212'
p38
sg6
S'716045ac0a643389933fb93fd735fce7'
p39
sg8
S'xx7ce99c05f90e1498d99592426171d009'
p40
sg10
S'xx8601ce131e6e5e19eff7e99d40353041'
p41
sg12
S'xx061cf2504f95ea3f48ce7edc48a35f92'
p42
sg14
S'Mozilla/5.0 (Linux; Android 6.0; CAM-AL00 Build/HONORCAM-AL00) AppleWebKit/537.36 (KHTML, like Gecko) Version/4.0 Chrome/37.0.0.0 Mobile MQQBrowser/6.8 TBS/036869 Safari/537.36 MicroMessenger/6.3.27.880 NetType/WIFI Language/zh_CN'
p43
sg16
S'e7568f8b109179c40fce357c326d0db0'
p44
sa(dp45
g2
S'36707'
p46
sg4
S'224'
p47
sg6
S'716045ac0a643389933fb93fd735fce7'
p48
sg8
S'xx7ce99c05f90e1498d99592426171d009'
p49
sg10
S'xx8601ce131e6e5e19eff7e99d40353041'
p50
sg12
S'xx061cf2504f95ea3f48ce7edc48a35f92'
p51
sg14
S'Mozilla/5.0 (Linux; Android 6.0; CAM-AL00 Build/HONORCAM-AL00) AppleWebKit/537.36 (KHTML, like Gecko) Version/4.0 Chrome/37.0.0.0 Mobile MQQBrowser/6.8 TBS/036869 Safari/537.36 MicroMessenger/6.3.27.880 NetType/WIFI Language/zh_CN'
p52
sg16
S'e7568f8b109179c40fce357c326d0db0'
p53
sa(dp54
g2
S'36707'
p55
sg4
S'236'
p56
sg6
S'716045ac0a643389933fb93fd735fce7'
p57
sg8
S'xx7ce99c05f90e1498d99592426171d009'
p58
sg10
S'xx8601ce131e6e5e19eff7e99d40353041'
p59
sg12
S'xx061cf2504f95ea3f48ce7edc48a35f92'
p60
sg14
S'Mozilla/5.0 (Linux; Android 6.0; CAM-AL00 Build/HONORCAM-AL00) AppleWebKit/537.36 (KHTML, like Gecko) Version/4.0 Chrome/37.0.0.0 Mobile MQQBrowser/6.8 TBS/036869 Safari/537.36 MicroMessenger/6.3.27.880 NetType/WIFI Language/zh_CN'
p61
sg16
S'e7568f8b109179c40fce357c326d0db0'
p62
sa(dp63
g2
S'36707'
p64
sg4
S'247'
p65
sg6
S'716045ac0a643389933fb93fd735fce7'
p66
sg8
S'xx7ce99c05f90e1498d99592426171d009'
p67
sg10
S'xx8601ce131e6e5e19eff7e99d40353041'
p68
sg12
S'xx061cf2504f95ea3f48ce7edc48a35f92'
p69
sg14
S'Mozilla/5.0 (Linux; Android 6.0; CAM-AL00 Build/HONORCAM-AL00) AppleWebKit/537.36 (KHTML, like Gecko) Version/4.0 Chrome/37.0.0.0 Mobile MQQBrowser/6.8 TBS/036869 Safari/537.36 MicroMessenger/6.3.27.880 NetType/WIFI Language/zh_CN'
p70
sg16
S'e7568f8b109179c40fce357c326d0db0'
p71
sa(dp72
g2
S'36707'
p73
sg4
S'265'
p74
sg6
S'716045ac0a643389933fb93fd735fce7'
p75
sg8
S'xx7ce99c05f90e1498d99592426171d009'
p76
sg10
S'xx8601ce131e6e5e19eff7e99d40353041'
p77
sg12
S'xx061cf2504f95ea3f48ce7edc48a35f92'
p78
sg14
S'Mozilla/5.0 (Linux; Android 6.0; CAM-AL00 Build/HONORCAM-AL00) AppleWebKit/537.36 (KHTML, like Gecko) Version/4.0 Chrome/37.0.0.0 Mobile MQQBrowser/6.8 TBS/036869 Safari/537.36 MicroMessenger/6.3.27.880 NetType/WIFI Language/zh_CN'
p79
sg16
S'e7568f8b109179c40fce357c326d0db0'
p80
sa(dp81
g2
S'36707'
p82
sg4
S'283'
p83
sg6
S'716045ac0a643389933fb93fd735fce7'
p84
sg8
S'xx7ce99c05f90e1498d99592426171d009'
p85
sg10
S'xx8601ce131e6e5e19eff7e99d40353041'
p86
sg12
S'xx061cf2504f95ea3f48ce7edc48a35f92'
p87
sg14
S'Mozilla/5.0 (Linux; Android 6.0; CAM-AL00 Build/HONORCAM-AL00) AppleWebKit/537.36 (KHTML, like Gecko) Version/4.0 Chrome/37.0.0.0 Mobile MQQBrowser/6.8 TBS/036869 Safari/537.36 MicroMessenger/6.3.27.880 NetType/WIFI Language/zh_CN'
p88
sg16
S'e7568f8b109179c40fce357c326d0db0'
p89
sa(dp90
g2
S'36707'
p91
sg4
S'302'
p92
sg6
S'716045ac0a643389933fb93fd735fce7'
p93
sg8
S'xx7ce99c05f90e1498d99592426171d009'
p94
sg10
S'xx8601ce131e6e5e19eff7e99d40353041'
p95
sg12
S'xx061cf2504f95ea3f48ce7edc48a35f92'
p96
sg14
S'Mozilla/5.0 (Linux; Android 6.0; CAM-AL00 Build/HONORCAM-AL00) AppleWebKit/537.36 (KHTML, like Gecko) Version/4.0 Chrome/37.0.0.0 Mobile MQQBrowser/6.8 TBS/036869 Safari/537.36 MicroMessenger/6.3.27.880 NetType/WIFI Language/zh_CN'
p97
sg16
S'e7568f8b109179c40fce357c326d0db0'
p98
sa(dp99
g2
S'36707'
p100
sg4
S'319'
p101
sg6
S'716045ac0a643389933fb93fd735fce7'
p102
sg8
S'xx7ce99c05f90e1498d99592426171d009'
p103
sg10
S'xx8601ce131e6e5e19eff7e99d40353041'
p104
sg12
S'xx061cf2504f95ea3f48ce7edc48a35f92'
p105
sg14
S'Mozilla/5.0 (Linux; Android 6.0; CAM-AL00 Build/HONORCAM-AL00) AppleWebKit/537.36 (KHTML, like Gecko) Version/4.0 Chrome/37.0.0.0 Mobile MQQBrowser/6.8 TBS/036869 Safari/537.36 MicroMessenger/6.3.27.880 NetType/WIFI Language/zh_CN'
p106
sg16
S'e7568f8b109179c40fce357c326d0db0'
p107
sa(dp108
g2
S'36707'
p109
sg4
S'333'
p110
sg6
S'716045ac0a643389933fb93fd735fce7'
p111
sg8
S'xx7ce99c05f90e1498d99592426171d009'
p112
sg10
S'xx8601ce131e6e5e19eff7e99d40353041'
p113
sg12
S'xx061cf2504f95ea3f48ce7edc48a35f92'
p114
sg14
S'Mozilla/5.0 (Linux; Android 6.0; CAM-AL00 Build/HONORCAM-AL00) AppleWebKit/537.36 (KHTML, like Gecko) Version/4.0 Chrome/37.0.0.0 Mobile MQQBrowser/6.8 TBS/036869 Safari/537.36 MicroMessenger/6.3.27.880 NetType/WIFI Language/zh_CN'
p115
sg16
S'e7568f8b109179c40fce357c326d0db0'
p116
sa(dp117
g2
S'36707'
p118
sg4
S'365'
p119
sg6
S'716045ac0a643389933fb93fd735fce7'
p120
sg8
S'xx7ce99c05f90e1498d99592426171d009'
p121
sg10
S'xx8601ce131e6e5e19eff7e99d40353041'
p122
sg12
S'xx061cf2504f95ea3f48ce7edc48a35f92'
p123
sg14
S'Mozilla/5.0 (Linux; Android 6.0; CAM-AL00 Build/HONORCAM-AL00) AppleWebKit/537.36 (KHTML, like Gecko) Version/4.0 Chrome/37.0.0.0 Mobile MQQBrowser/6.8 TBS/036869 Safari/537.36 MicroMessenger/6.3.27.880 NetType/WIFI Language/zh_CN'
p124
sg16
S'e7568f8b109179c40fce357c326d0db0'
p125
sa(dp126
g2
S'36707'
p127
sg4
S'379'
p128
sg6
S'716045ac0a643389933fb93fd735fce7'
p129
sg8
S'xx7ce99c05f90e1498d99592426171d009'
p130
sg10
S'xx8601ce131e6e5e19eff7e99d40353041'
p131
sg12
S'xx061cf2504f95ea3f48ce7edc48a35f92'
p132
sg14
S'Mozilla/5.0 (Linux; Android 6.0; CAM-AL00 Build/HONORCAM-AL00) AppleWebKit/537.36 (KHTML, like Gecko) Version/4.0 Chrome/37.0.0.0 Mobile MQQBrowser/6.8 TBS/036869 Safari/537.36 MicroMessenger/6.3.27.880 NetType/WIFI Language/zh_CN'
p133
sg16
S'e7568f8b109179c40fce357c326d0db0'
p134
sa(dp135
g2
S'36707'
p136
sg4
S'388'
p137
sg6
S'716045ac0a643389933fb93fd735fce7'
p138
sg8
S'xx7ce99c05f90e1498d99592426171d009'
p139
sg10
S'xx8601ce131e6e5e19eff7e99d40353041'
p140
sg12
S'xx061cf2504f95ea3f48ce7edc48a35f92'
p141
sg14
S'Mozilla/5.0 (Linux; Android 6.0; CAM-AL00 Build/HONORCAM-AL00) AppleWebKit/537.36 (KHTML, like Gecko) Version/4.0 Chrome/37.0.0.0 Mobile MQQBrowser/6.8 TBS/036869 Safari/537.36 MicroMessenger/6.3.27.880 NetType/WIFI Language/zh_CN'
p142
sg16
S'e7568f8b109179c40fce357c326d0db0'
p143
sa(dp144
g2
S'36707'
p145
sg4
S'402'
p146
sg6
S'716045ac0a643389933fb93fd735fce7'
p147
sg8
S'xx7ce99c05f90e1498d99592426171d009'
p148
sg10
S'xx8601ce131e6e5e19eff7e99d40353041'
p149
sg12
S'xx061cf2504f95ea3f48ce7edc48a35f92'
p150
sg14
S'Mozilla/5.0 (Linux; Android 6.0; CAM-AL00 Build/HONORCAM-AL00) AppleWebKit/537.36 (KHTML, like Gecko) Version/4.0 Chrome/37.0.0.0 Mobile MQQBrowser/6.8 TBS/036869 Safari/537.36 MicroMessenger/6.3.27.880 NetType/WIFI Language/zh_CN'
p151
sg16
S'e7568f8b109179c40fce357c326d0db0'
p152
sa(dp153
g2
S'36707'
p154
sg4
S'417'
p155
sg6
S'716045ac0a643389933fb93fd735fce7'
p156
sg8
S'xx7ce99c05f90e1498d99592426171d009'
p157
sg10
S'xx8601ce131e6e5e19eff7e99d40353041'
p158
sg12
S'xx061cf2504f95ea3f48ce7edc48a35f92'
p159
sg14
S'Mozilla/5.0 (Linux; Android 6.0; CAM-AL00 Build/HONORCAM-AL00) AppleWebKit/537.36 (KHTML, like Gecko) Version/4.0 Chrome/37.0.0.0 Mobile MQQBrowser/6.8 TBS/036869 Safari/537.36 MicroMessenger/6.3.27.880 NetType/WIFI Language/zh_CN'
p160
sg16
S'e7568f8b109179c40fce357c326d0db0'
p161
sa(dp162
g2
S'36707'
p163
sg4
S'454'
p164
sg6
S'716045ac0a643389933fb93fd735fce7'
p165
sg8
S'xx7ce99c05f90e1498d99592426171d009'
p166
sg10
S'xx8601ce131e6e5e19eff7e99d40353041'
p167
sg12
S'xx061cf2504f95ea3f48ce7edc48a35f92'
p168
sg14
S'Mozilla/5.0 (Linux; Android 6.0; CAM-AL00 Build/HONORCAM-AL00) AppleWebKit/537.36 (KHTML, like Gecko) Version/4.0 Chrome/37.0.0.0 Mobile MQQBrowser/6.8 TBS/036869 Safari/537.36 MicroMessenger/6.3.27.880 NetType/WIFI Language/zh_CN'
p169
sg16
S'e7568f8b109179c40fce357c326d0db0'
p170
sa(dp171
g2
S'36707'
p172
sg4
S'477'
p173
sg6
S'716045ac0a643389933fb93fd735fce7'
p174
sg8
S'xx7ce99c05f90e1498d99592426171d009'
p175
sg10
S'xx8601ce131e6e5e19eff7e99d40353041'
p176
sg12
S'xx061cf2504f95ea3f48ce7edc48a35f92'
p177
sg14
S'Mozilla/5.0 (Linux; Android 6.0; CAM-AL00 Build/HONORCAM-AL00) AppleWebKit/537.36 (KHTML, like Gecko) Version/4.0 Chrome/37.0.0.0 Mobile MQQBrowser/6.8 TBS/036869 Safari/537.36 MicroMessenger/6.3.27.880 NetType/WIFI Language/zh_CN'
p178
sg16
S'e7568f8b109179c40fce357c326d0db0'
p179
sa(dp180
g2
S'36707'
p181
sg4
S'489'
p182
sg6
S'716045ac0a643389933fb93fd735fce7'
p183
sg8
S'xx7ce99c05f90e1498d99592426171d009'
p184
sg10
S'xx8601ce131e6e5e19eff7e99d40353041'
p185
sg12
S'xx061cf2504f95ea3f48ce7edc48a35f92'
p186
sg14
S'Mozilla/5.0 (Linux; Android 6.0; CAM-AL00 Build/HONORCAM-AL00) AppleWebKit/537.36 (KHTML, like Gecko) Version/4.0 Chrome/37.0.0.0 Mobile MQQBrowser/6.8 TBS/036869 Safari/537.36 MicroMessenger/6.3.27.880 NetType/WIFI Language/zh_CN'
p187
sg16
S'e7568f8b109179c40fce357c326d0db0'
p188
sa(dp189
g2
S'36707'
p190
sg4
S'510'
p191
sg6
S'716045ac0a643389933fb93fd735fce7'
p192
sg8
S'xx7ce99c05f90e1498d99592426171d009'
p193
sg10
S'xx8601ce131e6e5e19eff7e99d40353041'
p194
sg12
S'xx061cf2504f95ea3f48ce7edc48a35f92'
p195
sg14
S'Mozilla/5.0 (Linux; Android 6.0; CAM-AL00 Build/HONORCAM-AL00) AppleWebKit/537.36 (KHTML, like Gecko) Version/4.0 Chrome/37.0.0.0 Mobile MQQBrowser/6.8 TBS/036869 Safari/537.36 MicroMessenger/6.3.27.880 NetType/WIFI Language/zh_CN'
p196
sg16
S'e7568f8b109179c40fce357c326d0db0'
p197
sa(dp198
g2
S'36707'
p199
sg4
S'524'
p200
sg6
S'716045ac0a643389933fb93fd735fce7'
p201
sg8
S'xx7ce99c05f90e1498d99592426171d009'
p202
sg10
S'xx8601ce131e6e5e19eff7e99d40353041'
p203
sg12
S'xx061cf2504f95ea3f48ce7edc48a35f92'
p204
sg14
S'Mozilla/5.0 (Linux; Android 6.0; CAM-AL00 Build/HONORCAM-AL00) AppleWebKit/537.36 (KHTML, like Gecko) Version/4.0 Chrome/37.0.0.0 Mobile MQQBrowser/6.8 TBS/036869 Safari/537.36 MicroMessenger/6.3.27.880 NetType/WIFI Language/zh_CN'
p205
sg16
S'e7568f8b109179c40fce357c326d0db0'
p206
sa(dp207
g2
S'36707'
p208
sg4
S'538'
p209
sg6
S'716045ac0a643389933fb93fd735fce7'
p210
sg8
S'xx7ce99c05f90e1498d99592426171d009'
p211
sg10
S'xx8601ce131e6e5e19eff7e99d40353041'
p212
sg12
S'xx061cf2504f95ea3f48ce7edc48a35f92'
p213
sg14
S'Mozilla/5.0 (Linux; Android 6.0; CAM-AL00 Build/HONORCAM-AL00) AppleWebKit/537.36 (KHTML, like Gecko) Version/4.0 Chrome/37.0.0.0 Mobile MQQBrowser/6.8 TBS/036869 Safari/537.36 MicroMessenger/6.3.27.880 NetType/WIFI Language/zh_CN'
p214
sg16
S'e7568f8b109179c40fce357c326d0db0'
p215
sa(dp216
g2
S'36707'
p217
sg4
S'549'
p218
sg6
S'716045ac0a643389933fb93fd735fce7'
p219
sg8
S'xx7ce99c05f90e1498d99592426171d009'
p220
sg10
S'xx8601ce131e6e5e19eff7e99d40353041'
p221
sg12
S'xx061cf2504f95ea3f48ce7edc48a35f92'
p222
sg14
S'Mozilla/5.0 (Linux; Android 6.0; CAM-AL00 Build/HONORCAM-AL00) AppleWebKit/537.36 (KHTML, like Gecko) Version/4.0 Chrome/37.0.0.0 Mobile MQQBrowser/6.8 TBS/036869 Safari/537.36 MicroMessenger/6.3.27.880 NetType/WIFI Language/zh_CN'
p223
sg16
S'e7568f8b109179c40fce357c326d0db0'
p224
sa(dp225
g2
S'36707'
p226
sg4
S'568'
p227
sg6
S'716045ac0a643389933fb93fd735fce7'
p228
sg8
S'xx7ce99c05f90e1498d99592426171d009'
p229
sg10
S'xx8601ce131e6e5e19eff7e99d40353041'
p230
sg12
S'xx061cf2504f95ea3f48ce7edc48a35f92'
p231
sg14
S'Mozilla/5.0 (Linux; Android 6.0; CAM-AL00 Build/HONORCAM-AL00) AppleWebKit/537.36 (KHTML, like Gecko) Version/4.0 Chrome/37.0.0.0 Mobile MQQBrowser/6.8 TBS/036869 Safari/537.36 MicroMessenger/6.3.27.880 NetType/WIFI Language/zh_CN'
p232
sg16
S'e7568f8b109179c40fce357c326d0db0'
p233
sa(dp234
g2
S'36707'
p235
sg4
S'584'
p236
sg6
S'716045ac0a643389933fb93fd735fce7'
p237
sg8
S'xx7ce99c05f90e1498d99592426171d009'
p238
sg10
S'xx8601ce131e6e5e19eff7e99d40353041'
p239
sg12
S'xx061cf2504f95ea3f48ce7edc48a35f92'
p240
sg14
S'Mozilla/5.0 (Linux; Android 6.0; CAM-AL00 Build/HONORCAM-AL00) AppleWebKit/537.36 (KHTML, like Gecko) Version/4.0 Chrome/37.0.0.0 Mobile MQQBrowser/6.8 TBS/036869 Safari/537.36 MicroMessenger/6.3.27.880 NetType/WIFI Language/zh_CN'
p241
sg16
S'e7568f8b109179c40fce357c326d0db0'
p242
sa(dp243
g2
S'36707'
p244
sg4
S'600'
p245
sg6
S'716045ac0a643389933fb93fd735fce7'
p246
sg8
S'xx7ce99c05f90e1498d99592426171d009'
p247
sg10
S'xx8601ce131e6e5e19eff7e99d40353041'
p248
sg12
S'xx061cf2504f95ea3f48ce7edc48a35f92'
p249
sg14
S'Mozilla/5.0 (Linux; Android 6.0; CAM-AL00 Build/HONORCAM-AL00) AppleWebKit/537.36 (KHTML, like Gecko) Version/4.0 Chrome/37.0.0.0 Mobile MQQBrowser/6.8 TBS/036869 Safari/537.36 MicroMessenger/6.3.27.880 NetType/WIFI Language/zh_CN'
p250
sg16
S'e7568f8b109179c40fce357c326d0db0'
p251
sa(dp252
g2
S'36707'
p253
sg4
S'615'
p254
sg6
S'716045ac0a643389933fb93fd735fce7'
p255
sg8
S'xx7ce99c05f90e1498d99592426171d009'
p256
sg10
S'xx8601ce131e6e5e19eff7e99d40353041'
p257
sg12
S'xx061cf2504f95ea3f48ce7edc48a35f92'
p258
sg14
S'Mozilla/5.0 (Linux; Android 6.0; CAM-AL00 Build/HONORCAM-AL00) AppleWebKit/537.36 (KHTML, like Gecko) Version/4.0 Chrome/37.0.0.0 Mobile MQQBrowser/6.8 TBS/036869 Safari/537.36 MicroMessenger/6.3.27.880 NetType/WIFI Language/zh_CN'
p259
sg16
S'e7568f8b109179c40fce357c326d0db0'
p260
sa(dp261
g2
S'36707'
p262
sg4
S'631'
p263
sg6
S'716045ac0a643389933fb93fd735fce7'
p264
sg8
S'xx7ce99c05f90e1498d99592426171d009'
p265
sg10
S'xx8601ce131e6e5e19eff7e99d40353041'
p266
sg12
S'xx061cf2504f95ea3f48ce7edc48a35f92'
p267
sg14
S'Mozilla/5.0 (Linux; Android 6.0; CAM-AL00 Build/HONORCAM-AL00) AppleWebKit/537.36 (KHTML, like Gecko) Version/4.0 Chrome/37.0.0.0 Mobile MQQBrowser/6.8 TBS/036869 Safari/537.36 MicroMessenger/6.3.27.880 NetType/WIFI Language/zh_CN'
p268
sg16
S'e7568f8b109179c40fce357c326d0db0'
p269
sa(dp270
g2
S'36707'
p271
sg4
S'649'
p272
sg6
S'716045ac0a643389933fb93fd735fce7'
p273
sg8
S'xx7ce99c05f90e1498d99592426171d009'
p274
sg10
S'xx8601ce131e6e5e19eff7e99d40353041'
p275
sg12
S'xx061cf2504f95ea3f48ce7edc48a35f92'
p276
sg14
S'Mozilla/5.0 (Linux; Android 6.0; CAM-AL00 Build/HONORCAM-AL00) AppleWebKit/537.36 (KHTML, like Gecko) Version/4.0 Chrome/37.0.0.0 Mobile MQQBrowser/6.8 TBS/036869 Safari/537.36 MicroMessenger/6.3.27.880 NetType/WIFI Language/zh_CN'
p277
sg16
S'e7568f8b109179c40fce357c326d0db0'
p278
sa(dp279
g2
S'36707'
p280
sg4
S'664'
p281
sg6
S'716045ac0a643389933fb93fd735fce7'
p282
sg8
S'xx7ce99c05f90e1498d99592426171d009'
p283
sg10
S'xx8601ce131e6e5e19eff7e99d40353041'
p284
sg12
S'xx061cf2504f95ea3f48ce7edc48a35f92'
p285
sg14
S'Mozilla/5.0 (Linux; Android 6.0; CAM-AL00 Build/HONORCAM-AL00) AppleWebKit/537.36 (KHTML, like Gecko) Version/4.0 Chrome/37.0.0.0 Mobile MQQBrowser/6.8 TBS/036869 Safari/537.36 MicroMessenger/6.3.27.880 NetType/WIFI Language/zh_CN'
p286
sg16
S'e7568f8b109179c40fce357c326d0db0'
p287
sa(dp288
g2
S'36707'
p289
sg4
S'702'
p290
sg6
S'716045ac0a643389933fb93fd735fce7'
p291
sg8
S'xx7ce99c05f90e1498d99592426171d009'
p292
sg10
S'xx8601ce131e6e5e19eff7e99d40353041'
p293
sg12
S'xx061cf2504f95ea3f48ce7edc48a35f92'
p294
sg14
S'Mozilla/5.0 (Linux; Android 6.0; CAM-AL00 Build/HONORCAM-AL00) AppleWebKit/537.36 (KHTML, like Gecko) Version/4.0 Chrome/37.0.0.0 Mobile MQQBrowser/6.8 TBS/036869 Safari/537.36 MicroMessenger/6.3.27.880 NetType/WIFI Language/zh_CN'
p295
sg16
S'e7568f8b109179c40fce357c326d0db0'
p296
sa(dp297
g2
S'36707'
p298
sg4
S'760'
p299
sg6
S'716045ac0a643389933fb93fd735fce7'
p300
sg8
S'xx7ce99c05f90e1498d99592426171d009'
p301
sg10
S'xx8601ce131e6e5e19eff7e99d40353041'
p302
sg12
S'xx061cf2504f95ea3f48ce7edc48a35f92'
p303
sg14
S'Mozilla/5.0 (Linux; Android 6.0; CAM-AL00 Build/HONORCAM-AL00) AppleWebKit/537.36 (KHTML, like Gecko) Version/4.0 Chrome/37.0.0.0 Mobile MQQBrowser/6.8 TBS/036869 Safari/537.36 MicroMessenger/6.3.27.880 NetType/WIFI Language/zh_CN'
p304
sg16
S'e7568f8b109179c40fce357c326d0db0'
p305
sa(dp306
g2
S'36707'
p307
sg4
S'770'
p308
sg6
S'716045ac0a643389933fb93fd735fce7'
p309
sg8
S'xx7ce99c05f90e1498d99592426171d009'
p310
sg10
S'xx8601ce131e6e5e19eff7e99d40353041'
p311
sg12
S'xx061cf2504f95ea3f48ce7edc48a35f92'
p312
sg14
S'Mozilla/5.0 (Linux; Android 6.0; CAM-AL00 Build/HONORCAM-AL00) AppleWebKit/537.36 (KHTML, like Gecko) Version/4.0 Chrome/37.0.0.0 Mobile MQQBrowser/6.8 TBS/036869 Safari/537.36 MicroMessenger/6.3.27.880 NetType/WIFI Language/zh_CN'
p313
sg16
S'e7568f8b109179c40fce357c326d0db0'
p314
sa(dp315
g2
S'36707'
p316
sg4
S'787'
p317
sg6
S'716045ac0a643389933fb93fd735fce7'
p318
sg8
S'xx7ce99c05f90e1498d99592426171d009'
p319
sg10
S'xx8601ce131e6e5e19eff7e99d40353041'
p320
sg12
S'xx061cf2504f95ea3f48ce7edc48a35f92'
p321
sg14
S'Mozilla/5.0 (Linux; Android 6.0; CAM-AL00 Build/HONORCAM-AL00) AppleWebKit/537.36 (KHTML, like Gecko) Version/4.0 Chrome/37.0.0.0 Mobile MQQBrowser/6.8 TBS/036869 Safari/537.36 MicroMessenger/6.3.27.880 NetType/WIFI Language/zh_CN'
p322
sg16
S'e7568f8b109179c40fce357c326d0db0'
p323
sa(dp324
g2
S'36707'
p325
sg4
S'803'
p326
sg6
S'716045ac0a643389933fb93fd735fce7'
p327
sg8
S'xx7ce99c05f90e1498d99592426171d009'
p328
sg10
S'xx8601ce131e6e5e19eff7e99d40353041'
p329
sg12
S'xx061cf2504f95ea3f48ce7edc48a35f92'
p330
sg14
S'Mozilla/5.0 (Linux; Android 6.0; CAM-AL00 Build/HONORCAM-AL00) AppleWebKit/537.36 (KHTML, like Gecko) Version/4.0 Chrome/37.0.0.0 Mobile MQQBrowser/6.8 TBS/036869 Safari/537.36 MicroMessenger/6.3.27.880 NetType/WIFI Language/zh_CN'
p331
sg16
S'e7568f8b109179c40fce357c326d0db0'
p332
sa(dp333
g2
S'36707'
p334
sg4
S'818'
p335
sg6
S'716045ac0a643389933fb93fd735fce7'
p336
sg8
S'xx7ce99c05f90e1498d99592426171d009'
p337
sg10
S'xx8601ce131e6e5e19eff7e99d40353041'
p338
sg12
S'xx061cf2504f95ea3f48ce7edc48a35f92'
p339
sg14
S'Mozilla/5.0 (Linux; Android 6.0; CAM-AL00 Build/HONORCAM-AL00) AppleWebKit/537.36 (KHTML, like Gecko) Version/4.0 Chrome/37.0.0.0 Mobile MQQBrowser/6.8 TBS/036869 Safari/537.36 MicroMessenger/6.3.27.880 NetType/WIFI Language/zh_CN'
p340
sg16
S'e7568f8b109179c40fce357c326d0db0'
p341
sa(dp342
g2
S'36707'
p343
sg4
S'831'
p344
sg6
S'716045ac0a643389933fb93fd735fce7'
p345
sg8
S'xx7ce99c05f90e1498d99592426171d009'
p346
sg10
S'xx8601ce131e6e5e19eff7e99d40353041'
p347
sg12
S'xx061cf2504f95ea3f48ce7edc48a35f92'
p348
sg14
S'Mozilla/5.0 (Linux; Android 6.0; CAM-AL00 Build/HONORCAM-AL00) AppleWebKit/537.36 (KHTML, like Gecko) Version/4.0 Chrome/37.0.0.0 Mobile MQQBrowser/6.8 TBS/036869 Safari/537.36 MicroMessenger/6.3.27.880 NetType/WIFI Language/zh_CN'
p349
sg16
S'e7568f8b109179c40fce357c326d0db0'
p350
sa(dp351
g2
S'36707'
p352
sg4
S'872'
p353
sg6
S'716045ac0a643389933fb93fd735fce7'
p354
sg8
S'xx7ce99c05f90e1498d99592426171d009'
p355
sg10
S'xx8601ce131e6e5e19eff7e99d40353041'
p356
sg12
S'xx061cf2504f95ea3f48ce7edc48a35f92'
p357
sg14
S'Mozilla/5.0 (Linux; Android 6.0; CAM-AL00 Build/HONORCAM-AL00) AppleWebKit/537.36 (KHTML, like Gecko) Version/4.0 Chrome/37.0.0.0 Mobile MQQBrowser/6.8 TBS/036869 Safari/537.36 MicroMessenger/6.3.27.880 NetType/WIFI Language/zh_CN'
p358
sg16
S'e7568f8b109179c40fce357c326d0db0'
p359
sa(dp360
g2
S'36707'
p361
sg4
S'1300'
p362
sg6
S'716045ac0a643389933fb93fd735fce7'
p363
sg8
S'xx08b5d456842c6a69ff9b90bcbcc5afdf'
p364
sg10
S'xx7352d0022cc98241f3307c3b2eef0180'
p365
sg12
S'xx061cf2504f95ea3f48ce7edc48a35f92'
p366
sg14
S'Mozilla/5.0 (Linux; Android 6.0; CAM-AL00 Build/HONORCAM-AL00) AppleWebKit/537.36 (KHTML, like Gecko) Version/4.0 Chrome/37.0.0.0 Mobile MQQBrowser/6.8 TBS/036869 Safari/537.36 MicroMessenger/6.3.27.880 NetType/WIFI Language/zh_CN'
p367
sg16
S'e7568f8b109179c40fce357c326d0db0'
p368
sa(dp369
g2
S'36707'
p370
sg4
S'1308'
p371
sg6
S'716045ac0a643389933fb93fd735fce7'
p372
sg8
S'xx08b5d456842c6a69ff9b90bcbcc5afdf'
p373
sg10
S'xx7352d0022cc98241f3307c3b2eef0180'
p374
sg12
S'xx061cf2504f95ea3f48ce7edc48a35f92'
p375
sg14
S'Mozilla/5.0 (Linux; Android 6.0; CAM-AL00 Build/HONORCAM-AL00) AppleWebKit/537.36 (KHTML, like Gecko) Version/4.0 Chrome/37.0.0.0 Mobile MQQBrowser/6.8 TBS/036869 Safari/537.36 MicroMessenger/6.3.27.880 NetType/WIFI Language/zh_CN'
p376
sg16
S'e7568f8b109179c40fce357c326d0db0'
p377
sa(dp378
g2
S'36707'
p379
sg4
S'1321'
p380
sg6
S'716045ac0a643389933fb93fd735fce7'
p381
sg8
S'xx08b5d456842c6a69ff9b90bcbcc5afdf'
p382
sg10
S'xx7352d0022cc98241f3307c3b2eef0180'
p383
sg12
S'xx061cf2504f95ea3f48ce7edc48a35f92'
p384
sg14
S'Mozilla/5.0 (Linux; Android 6.0; CAM-AL00 Build/HONORCAM-AL00) AppleWebKit/537.36 (KHTML, like Gecko) Version/4.0 Chrome/37.0.0.0 Mobile MQQBrowser/6.8 TBS/036869 Safari/537.36 MicroMessenger/6.3.27.880 NetType/WIFI Language/zh_CN'
p385
sg16
S'e7568f8b109179c40fce357c326d0db0'
p386
sa(dp387
g2
S'36707'
p388
sg4
S'1334'
p389
sg6
S'716045ac0a643389933fb93fd735fce7'
p390
sg8
S'xx08b5d456842c6a69ff9b90bcbcc5afdf'
p391
sg10
S'xx7352d0022cc98241f3307c3b2eef0180'
p392
sg12
S'xx061cf2504f95ea3f48ce7edc48a35f92'
p393
sg14
S'Mozilla/5.0 (Linux; Android 6.0; CAM-AL00 Build/HONORCAM-AL00) AppleWebKit/537.36 (KHTML, like Gecko) Version/4.0 Chrome/37.0.0.0 Mobile MQQBrowser/6.8 TBS/036869 Safari/537.36 MicroMessenger/6.3.27.880 NetType/WIFI Language/zh_CN'
p394
sg16
S'e7568f8b109179c40fce357c326d0db0'
p395
sa(dp396
g2
S'36707'
p397
sg4
S'1346'
p398
sg6
S'716045ac0a643389933fb93fd735fce7'
p399
sg8
S'xx08b5d456842c6a69ff9b90bcbcc5afdf'
p400
sg10
S'xx7352d0022cc98241f3307c3b2eef0180'
p401
sg12
S'xx061cf2504f95ea3f48ce7edc48a35f92'
p402
sg14
S'Mozilla/5.0 (Linux; Android 6.0; CAM-AL00 Build/HONORCAM-AL00) AppleWebKit/537.36 (KHTML, like Gecko) Version/4.0 Chrome/37.0.0.0 Mobile MQQBrowser/6.8 TBS/036869 Safari/537.36 MicroMessenger/6.3.27.880 NetType/WIFI Language/zh_CN'
p403
sg16
S'e7568f8b109179c40fce357c326d0db0'
p404
sa(dp405
g2
S'36735'
p406
sg4
S'1434'
p407
sg6
S'716045ac0a643389933fb93fd735fce7'
p408
sg8
S'xxeea8429a143064172e4d06f4092bee8e'
p409
sg10
S'xx7352d0022cc98241f3307c3b2eef0180'
p410
sg12
S'xx061cf2504f95ea3f48ce7edc48a35f92'
p411
sg14
S'Mozilla/5.0 (Linux; Android 6.0; CAM-AL00 Build/HONORCAM-AL00) AppleWebKit/537.36 (KHTML, like Gecko) Version/4.0 Chrome/37.0.0.0 Mobile MQQBrowser/6.8 TBS/036865 Safari/537.36 MicroMessenger/6.3.27.880 NetType/WIFI Language/zh_CN'
p412
sg16
S'89db1e12a42db3bb3826aac897a5c9dd'
p413
sa(dp414
g2
S'36735'
p415
sg4
S'1453'
p416
sg6
S'716045ac0a643389933fb93fd735fce7'
p417
sg8
S'xxeea8429a143064172e4d06f4092bee8e'
p418
sg10
S'xx7352d0022cc98241f3307c3b2eef0180'
p419
sg12
S'xx061cf2504f95ea3f48ce7edc48a35f92'
p420
sg14
S'Mozilla/5.0 (Linux; Android 6.0; CAM-AL00 Build/HONORCAM-AL00) AppleWebKit/537.36 (KHTML, like Gecko) Version/4.0 Chrome/37.0.0.0 Mobile MQQBrowser/6.8 TBS/036865 Safari/537.36 MicroMessenger/6.3.27.880 NetType/WIFI Language/zh_CN'
p421
sg16
S'89db1e12a42db3bb3826aac897a5c9dd'
p422
sa(dp423
g2
S'36735'
p424
sg4
S'1467'
p425
sg6
S'716045ac0a643389933fb93fd735fce7'
p426
sg8
S'xxeea8429a143064172e4d06f4092bee8e'
p427
sg10
S'xx7352d0022cc98241f3307c3b2eef0180'
p428
sg12
S'xx061cf2504f95ea3f48ce7edc48a35f92'
p429
sg14
S'Mozilla/5.0 (Linux; Android 6.0; CAM-AL00 Build/HONORCAM-AL00) AppleWebKit/537.36 (KHTML, like Gecko) Version/4.0 Chrome/37.0.0.0 Mobile MQQBrowser/6.8 TBS/036865 Safari/537.36 MicroMessenger/6.3.27.880 NetType/WIFI Language/zh_CN'
p430
sg16
S'89db1e12a42db3bb3826aac897a5c9dd'
p431
sa(dp432
g2
S'36707'
p433
sg4
S'1578'
p434
sg6
S'716045ac0a643389933fb93fd735fce7'
p435
sg8
S'xx08b5d456842c6a69ff9b90bcbcc5afdf'
p436
sg10
S'xx7352d0022cc98241f3307c3b2eef0180'
p437
sg12
S'xx061cf2504f95ea3f48ce7edc48a35f92'
p438
sg14
S'Mozilla/5.0 (Linux; Android 6.0; CAM-AL00 Build/HONORCAM-AL00) AppleWebKit/537.36 (KHTML, like Gecko) Version/4.0 Chrome/37.0.0.0 Mobile MQQBrowser/6.8 TBS/036869 Safari/537.36 MicroMessenger/6.3.27.880 NetType/WIFI Language/zh_CN'
p439
sg16
S'e7568f8b109179c40fce357c326d0db0'
p440
sa(dp441
g2
S'3810'
p442
sg4
S'3801'
p443
sg6
S'74324515379fe0d969c782a22ae294dc'
p444
sg8
S'xx6fcd5b7f5fb06b7f434d67cbe091926a'
p445
sg10
S'xx7352d0022cc98241f3307c3b2eef0180'
p446
sg12
S'xx061cf2504f95ea3f48ce7edc48a35f92'
p447
sg14
S'Mozilla/5.0 (Linux; Android 6.0; CAM-AL00 Build/HONORCAM-AL00) AppleWebKit/537.36 (KHTML, like Gecko) Version/4.0 Chrome/37.0.0.0 Mobile MQQBrowser/6.8 TBS/036869 Safari/537.36 MicroMessenger/6.3.27.880 NetType/ctnet Language/zh_CN'
p448
sg16
S'01bb307cd504b9d5d94d4b0142809319'
p449
sa(dp450
g2
S'3810'
p451
sg4
S'3877'
p452
sg6
S'74324515379fe0d969c782a22ae294dc'
p453
sg8
S'xx6fcd5b7f5fb06b7f434d67cbe091926a'
p454
sg10
S'xx7352d0022cc98241f3307c3b2eef0180'
p455
sg12
S'xx061cf2504f95ea3f48ce7edc48a35f92'
p456
sg14
S'Mozilla/5.0 (Linux; Android 6.0; CAM-AL00 Build/HONORCAM-AL00) AppleWebKit/537.36 (KHTML, like Gecko) Version/4.0 Chrome/37.0.0.0 Mobile MQQBrowser/6.8 TBS/036869 Safari/537.36 MicroMessenger/6.3.27.880 NetType/ctnet Language/zh_CN'
p457
sg16
S'01bb307cd504b9d5d94d4b0142809319'
p458
sa(dp459
g2
S'3810'
p460
sg4
S'3900'
p461
sg6
S'74324515379fe0d969c782a22ae294dc'
p462
sg8
S'xx6fcd5b7f5fb06b7f434d67cbe091926a'
p463
sg10
S'xx7352d0022cc98241f3307c3b2eef0180'
p464
sg12
S'xx061cf2504f95ea3f48ce7edc48a35f92'
p465
sg14
S'Mozilla/5.0 (Linux; Android 6.0; CAM-AL00 Build/HONORCAM-AL00) AppleWebKit/537.36 (KHTML, like Gecko) Version/4.0 Chrome/37.0.0.0 Mobile MQQBrowser/6.8 TBS/036869 Safari/537.36 MicroMessenger/6.3.27.880 NetType/ctnet Language/zh_CN'
p466
sg16
S'01bb307cd504b9d5d94d4b0142809319'
p467
sa(dp468
g2
S'3810'
p469
sg4
S'4015'
p470
sg6
S'74324515379fe0d969c782a22ae294dc'
p471
sg8
S'xx6fcd5b7f5fb06b7f434d67cbe091926a'
p472
sg10
S'xx7352d0022cc98241f3307c3b2eef0180'
p473
sg12
S'xx061cf2504f95ea3f48ce7edc48a35f92'
p474
sg14
S'Mozilla/5.0 (Linux; Android 6.0; CAM-AL00 Build/HONORCAM-AL00) AppleWebKit/537.36 (KHTML, like Gecko) Version/4.0 Chrome/37.0.0.0 Mobile MQQBrowser/6.8 TBS/036869 Safari/537.36 MicroMessenger/6.3.27.880 NetType/ctnet Language/zh_CN'
p475
sg16
S'01bb307cd504b9d5d94d4b0142809319'
p476
sa(dp477
g2
S'3810'
p478
sg4
S'4036'
p479
sg6
S'74324515379fe0d969c782a22ae294dc'
p480
sg8
S'xx6fcd5b7f5fb06b7f434d67cbe091926a'
p481
sg10
S'xx7352d0022cc98241f3307c3b2eef0180'
p482
sg12
S'xx061cf2504f95ea3f48ce7edc48a35f92'
p483
sg14
S'Mozilla/5.0 (Linux; Android 6.0; CAM-AL00 Build/HONORCAM-AL00) AppleWebKit/537.36 (KHTML, like Gecko) Version/4.0 Chrome/37.0.0.0 Mobile MQQBrowser/6.8 TBS/036869 Safari/537.36 MicroMessenger/6.3.27.880 NetType/ctnet Language/zh_CN'
p484
sg16
S'01bb307cd504b9d5d94d4b0142809319'
p485
sa(dp486
g2
S'3810'
p487
sg4
S'4077'
p488
sg6
S'74324515379fe0d969c782a22ae294dc'
p489
sg8
S'xx6fcd5b7f5fb06b7f434d67cbe091926a'
p490
sg10
S'xx7352d0022cc98241f3307c3b2eef0180'
p491
sg12
S'xx061cf2504f95ea3f48ce7edc48a35f92'
p492
sg14
S'Mozilla/5.0 (Linux; Android 6.0; CAM-AL00 Build/HONORCAM-AL00) AppleWebKit/537.36 (KHTML, like Gecko) Version/4.0 Chrome/37.0.0.0 Mobile MQQBrowser/6.8 TBS/036869 Safari/537.36 MicroMessenger/6.3.27.880 NetType/ctnet Language/zh_CN'
p493
sg16
S'01bb307cd504b9d5d94d4b0142809319'
p494
sa(dp495
g2
S'3810'
p496
sg4
S'4120'
p497
sg6
S'74324515379fe0d969c782a22ae294dc'
p498
sg8
S'xx6fcd5b7f5fb06b7f434d67cbe091926a'
p499
sg10
S'xx7352d0022cc98241f3307c3b2eef0180'
p500
sg12
S'xx061cf2504f95ea3f48ce7edc48a35f92'
p501
sg14
S'Mozilla/5.0 (Linux; Android 6.0; CAM-AL00 Build/HONORCAM-AL00) AppleWebKit/537.36 (KHTML, like Gecko) Version/4.0 Chrome/37.0.0.0 Mobile MQQBrowser/6.8 TBS/036869 Safari/537.36 MicroMessenger/6.3.27.880 NetType/ctnet Language/zh_CN'
p502
sg16
S'01bb307cd504b9d5d94d4b0142809319'
p503
sa(dp504
g2
S'3810'
p505
sg4
S'4198'
p506
sg6
S'74324515379fe0d969c782a22ae294dc'
p507
sg8
S'xx6fcd5b7f5fb06b7f434d67cbe091926a'
p508
sg10
S'xx7352d0022cc98241f3307c3b2eef0180'
p509
sg12
S'xx061cf2504f95ea3f48ce7edc48a35f92'
p510
sg14
S'Mozilla/5.0 (Linux; Android 6.0; CAM-AL00 Build/HONORCAM-AL00) AppleWebKit/537.36 (KHTML, like Gecko) Version/4.0 Chrome/37.0.0.0 Mobile MQQBrowser/6.8 TBS/036869 Safari/537.36 MicroMessenger/6.3.27.880 NetType/ctnet Language/zh_CN'
p511
sg16
S'01bb307cd504b9d5d94d4b0142809319'
p512
sa(dp513
g2
S'3810'
p514
sg4
S'4233'
p515
sg6
S'74324515379fe0d969c782a22ae294dc'
p516
sg8
S'xx6fcd5b7f5fb06b7f434d67cbe091926a'
p517
sg10
S'xx7352d0022cc98241f3307c3b2eef0180'
p518
sg12
S'xx061cf2504f95ea3f48ce7edc48a35f92'
p519
sg14
S'Mozilla/5.0 (Linux; Android 6.0; CAM-AL00 Build/HONORCAM-AL00) AppleWebKit/537.36 (KHTML, like Gecko) Version/4.0 Chrome/37.0.0.0 Mobile MQQBrowser/6.8 TBS/036869 Safari/537.36 MicroMessenger/6.3.27.880 NetType/ctnet Language/zh_CN'
p520
sg16
S'01bb307cd504b9d5d94d4b0142809319'
p521
sa(dp522
g2
S'3810'
p523
sg4
S'4262'
p524
sg6
S'74324515379fe0d969c782a22ae294dc'
p525
sg8
S'xx6fcd5b7f5fb06b7f434d67cbe091926a'
p526
sg10
S'xx7352d0022cc98241f3307c3b2eef0180'
p527
sg12
S'xx061cf2504f95ea3f48ce7edc48a35f92'
p528
sg14
S'Mozilla/5.0 (Linux; Android 6.0; CAM-AL00 Build/HONORCAM-AL00) AppleWebKit/537.36 (KHTML, like Gecko) Version/4.0 Chrome/37.0.0.0 Mobile MQQBrowser/6.8 TBS/036869 Safari/537.36 MicroMessenger/6.3.27.880 NetType/ctnet Language/zh_CN'
p529
sg16
S'01bb307cd504b9d5d94d4b0142809319'
p530
sa(dp531
g2
S'3810'
p532
sg4
S'4331'
p533
sg6
S'74324515379fe0d969c782a22ae294dc'
p534
sg8
S'xx6fcd5b7f5fb06b7f434d67cbe091926a'
p535
sg10
S'xx7352d0022cc98241f3307c3b2eef0180'
p536
sg12
S'xx061cf2504f95ea3f48ce7edc48a35f92'
p537
sg14
S'Mozilla/5.0 (Linux; Android 6.0; CAM-AL00 Build/HONORCAM-AL00) AppleWebKit/537.36 (KHTML, like Gecko) Version/4.0 Chrome/37.0.0.0 Mobile MQQBrowser/6.8 TBS/036869 Safari/537.36 MicroMessenger/6.3.27.880 NetType/ctnet Language/zh_CN'
p538
sg16
S'01bb307cd504b9d5d94d4b0142809319'
p539
sa.