(lp0
(dp1
S'user_id'
p2
S'36684'
p3
sS'data_id'
p4
S'7957'
p5
sS'ip'
p6
S'aea28f6bf95529622670c1f9ff20c61a'
p7
sS'phone_B'
p8
S'xxbaf68804d1a2013e7282afc0bee6ed26'
p9
sS'phone_C'
p10
S'xx5ba6e83ab19ca3a94d39ebfc36eb8d6b'
p11
sS'phone_A'
p12
S'xx07e32c7075236b6751141c34a7d3f099'
p13
sS'user_agent'
p14
S'Mozilla/5.0 (Linux; Android 4.4.4; Che1-CL20 Build/Che1-CL20) AppleWebKit/537.36 (KHTML, like Gecko) Version/4.0 Chrome/37.0.0.0 Mobile MQQBrowser/6.8 TBS/036824 Safari/537.36 MicroMessenger/6.3.27.880 NetType/3gnet Language/zh_CN'
p15
sS'ua'
p16
S'44d5cf9b4e3b7917063481c868afbdd1'
p17
sa(dp18
g2
S'36684'
p19
sg4
S'7974'
p20
sg6
S'aea28f6bf95529622670c1f9ff20c61a'
p21
sg8
S'xxbaf68804d1a2013e7282afc0bee6ed26'
p22
sg10
S'xx5ba6e83ab19ca3a94d39ebfc36eb8d6b'
p23
sg12
S'xx07e32c7075236b6751141c34a7d3f099'
p24
sg14
S'Mozilla/5.0 (Linux; Android 4.4.4; Che1-CL20 Build/Che1-CL20) AppleWebKit/537.36 (KHTML, like Gecko) Version/4.0 Chrome/37.0.0.0 Mobile MQQBrowser/6.8 TBS/036824 Safari/537.36 MicroMessenger/6.3.27.880 NetType/3gnet Language/zh_CN'
p25
sg16
S'44d5cf9b4e3b7917063481c868afbdd1'
p26
sa.