(lp0
(dp1
S'user_id'
p2
S'49738'
p3
sS'data_id'
p4
S'520'
p5
sS'ip'
p6
S'd869918b3075266d8d2dcc2b621cb33b'
p7
sS'phone_B'
p8
S'xxf33866cb385bfad32d8558718c577c70'
p9
sS'phone_C'
p10
S'xx52151d64d779d05003cb50bd155cc58b'
p11
sS'phone_A'
p12
S'xx07d180623e0edfc912c9bd146d42eae7'
p13
sS'user_agent'
p14
S'Mozilla/5.0 (Linux; Android 4.3; R8007 Build/JLS36C) AppleWebKit/537.36 (KHTML, like Gecko) Version/4.0 Chrome/37.0.0.0 Mobile MQQBrowser/6.8 TBS/036849 Safari/537.36 MicroMessenger/6.3.27.880 NetType/cmwap Language/zh_CN'
p15
sS'ua'
p16
S'4aea011eb881c11d13e08c042171a065'
p17
sa(dp18
g2
S'49738'
p19
sg4
S'534'
p20
sg6
S'd869918b3075266d8d2dcc2b621cb33b'
p21
sg8
S'xxf33866cb385bfad32d8558718c577c70'
p22
sg10
S'xx52151d64d779d05003cb50bd155cc58b'
p23
sg12
S'xx07d180623e0edfc912c9bd146d42eae7'
p24
sg14
S'Mozilla/5.0 (Linux; Android 4.3; R8007 Build/JLS36C) AppleWebKit/537.36 (KHTML, like Gecko) Version/4.0 Chrome/37.0.0.0 Mobile MQQBrowser/6.8 TBS/036849 Safari/537.36 MicroMessenger/6.3.27.880 NetType/cmwap Language/zh_CN'
p25
sg16
S'4aea011eb881c11d13e08c042171a065'
p26
sa(dp27
g2
S'49738'
p28
sg4
S'551'
p29
sg6
S'd869918b3075266d8d2dcc2b621cb33b'
p30
sg8
S'xxf33866cb385bfad32d8558718c577c70'
p31
sg10
S'xx52151d64d779d05003cb50bd155cc58b'
p32
sg12
S'xx07d180623e0edfc912c9bd146d42eae7'
p33
sg14
S'Mozilla/5.0 (Linux; Android 4.3; R8007 Build/JLS36C) AppleWebKit/537.36 (KHTML, like Gecko) Version/4.0 Chrome/37.0.0.0 Mobile MQQBrowser/6.8 TBS/036849 Safari/537.36 MicroMessenger/6.3.27.880 NetType/cmwap Language/zh_CN'
p34
sg16
S'4aea011eb881c11d13e08c042171a065'
p35
sa(dp36
g2
S'49738'
p37
sg4
S'688'
p38
sg6
S'd869918b3075266d8d2dcc2b621cb33b'
p39
sg8
S'xxf33866cb385bfad32d8558718c577c70'
p40
sg10
S'xx52151d64d779d05003cb50bd155cc58b'
p41
sg12
S'xx07d180623e0edfc912c9bd146d42eae7'
p42
sg14
S'Mozilla/5.0 (Linux; Android 4.3; R8007 Build/JLS36C) AppleWebKit/537.36 (KHTML, like Gecko) Version/4.0 Chrome/37.0.0.0 Mobile MQQBrowser/6.8 TBS/036849 Safari/537.36 MicroMessenger/6.3.27.880 NetType/cmwap Language/zh_CN'
p43
sg16
S'4aea011eb881c11d13e08c042171a065'
p44
sa(dp45
g2
S'49738'
p46
sg4
S'699'
p47
sg6
S'd869918b3075266d8d2dcc2b621cb33b'
p48
sg8
S'xxf33866cb385bfad32d8558718c577c70'
p49
sg10
S'xx52151d64d779d05003cb50bd155cc58b'
p50
sg12
S'xx07d180623e0edfc912c9bd146d42eae7'
p51
sg14
S'Mozilla/5.0 (Linux; Android 4.3; R8007 Build/JLS36C) AppleWebKit/537.36 (KHTML, like Gecko) Version/4.0 Chrome/37.0.0.0 Mobile MQQBrowser/6.8 TBS/036849 Safari/537.36 MicroMessenger/6.3.27.880 NetType/cmwap Language/zh_CN'
p52
sg16
S'4aea011eb881c11d13e08c042171a065'
p53
sa(dp54
g2
S'49738'
p55
sg4
S'714'
p56
sg6
S'd869918b3075266d8d2dcc2b621cb33b'
p57
sg8
S'xxf33866cb385bfad32d8558718c577c70'
p58
sg10
S'xx52151d64d779d05003cb50bd155cc58b'
p59
sg12
S'xx07d180623e0edfc912c9bd146d42eae7'
p60
sg14
S'Mozilla/5.0 (Linux; Android 4.3; R8007 Build/JLS36C) AppleWebKit/537.36 (KHTML, like Gecko) Version/4.0 Chrome/37.0.0.0 Mobile MQQBrowser/6.8 TBS/036849 Safari/537.36 MicroMessenger/6.3.27.880 NetType/cmwap Language/zh_CN'
p61
sg16
S'4aea011eb881c11d13e08c042171a065'
p62
sa(dp63
g2
S'49738'
p64
sg4
S'727'
p65
sg6
S'd869918b3075266d8d2dcc2b621cb33b'
p66
sg8
S'xxf33866cb385bfad32d8558718c577c70'
p67
sg10
S'xx52151d64d779d05003cb50bd155cc58b'
p68
sg12
S'xx07d180623e0edfc912c9bd146d42eae7'
p69
sg14
S'Mozilla/5.0 (Linux; Android 4.3; R8007 Build/JLS36C) AppleWebKit/537.36 (KHTML, like Gecko) Version/4.0 Chrome/37.0.0.0 Mobile MQQBrowser/6.8 TBS/036849 Safari/537.36 MicroMessenger/6.3.27.880 NetType/cmwap Language/zh_CN'
p70
sg16
S'4aea011eb881c11d13e08c042171a065'
p71
sa(dp72
g2
S'49738'
p73
sg4
S'739'
p74
sg6
S'd869918b3075266d8d2dcc2b621cb33b'
p75
sg8
S'xxf33866cb385bfad32d8558718c577c70'
p76
sg10
S'xx52151d64d779d05003cb50bd155cc58b'
p77
sg12
S'xx07d180623e0edfc912c9bd146d42eae7'
p78
sg14
S'Mozilla/5.0 (Linux; Android 4.3; R8007 Build/JLS36C) AppleWebKit/537.36 (KHTML, like Gecko) Version/4.0 Chrome/37.0.0.0 Mobile MQQBrowser/6.8 TBS/036849 Safari/537.36 MicroMessenger/6.3.27.880 NetType/cmwap Language/zh_CN'
p79
sg16
S'4aea011eb881c11d13e08c042171a065'
p80
sa(dp81
g2
S'49738'
p82
sg4
S'752'
p83
sg6
S'd869918b3075266d8d2dcc2b621cb33b'
p84
sg8
S'xxf33866cb385bfad32d8558718c577c70'
p85
sg10
S'xx52151d64d779d05003cb50bd155cc58b'
p86
sg12
S'xx07d180623e0edfc912c9bd146d42eae7'
p87
sg14
S'Mozilla/5.0 (Linux; Android 4.3; R8007 Build/JLS36C) AppleWebKit/537.36 (KHTML, like Gecko) Version/4.0 Chrome/37.0.0.0 Mobile MQQBrowser/6.8 TBS/036849 Safari/537.36 MicroMessenger/6.3.27.880 NetType/cmwap Language/zh_CN'
p88
sg16
S'4aea011eb881c11d13e08c042171a065'
p89
sa(dp90
g2
S'49738'
p91
sg4
S'825'
p92
sg6
S'd869918b3075266d8d2dcc2b621cb33b'
p93
sg8
S'xxf33866cb385bfad32d8558718c577c70'
p94
sg10
S'xx52151d64d779d05003cb50bd155cc58b'
p95
sg12
S'xx07d180623e0edfc912c9bd146d42eae7'
p96
sg14
S'Mozilla/5.0 (Linux; Android 4.3; R8007 Build/JLS36C) AppleWebKit/537.36 (KHTML, like Gecko) Version/4.0 Chrome/37.0.0.0 Mobile MQQBrowser/6.8 TBS/036849 Safari/537.36 MicroMessenger/6.3.27.880 NetType/cmwap Language/zh_CN'
p97
sg16
S'4aea011eb881c11d13e08c042171a065'
p98
sa(dp99
g2
S'49738'
p100
sg4
S'1402'
p101
sg6
S'd869918b3075266d8d2dcc2b621cb33b'
p102
sg8
S'xxf33866cb385bfad32d8558718c577c70'
p103
sg10
S'xx52151d64d779d05003cb50bd155cc58b'
p104
sg12
S'xx07d180623e0edfc912c9bd146d42eae7'
p105
sg14
S'Mozilla/5.0 (Linux; Android 4.3; R8007 Build/JLS36C) AppleWebKit/537.36 (KHTML, like Gecko) Version/4.0 Chrome/37.0.0.0 Mobile MQQBrowser/6.8 TBS/036849 Safari/537.36 MicroMessenger/6.3.27.880 NetType/cmwap Language/zh_CN'
p106
sg16
S'4aea011eb881c11d13e08c042171a065'
p107
sa(dp108
g2
S'49738'
p109
sg4
S'1423'
p110
sg6
S'd869918b3075266d8d2dcc2b621cb33b'
p111
sg8
S'xxf33866cb385bfad32d8558718c577c70'
p112
sg10
S'xx52151d64d779d05003cb50bd155cc58b'
p113
sg12
S'xx07d180623e0edfc912c9bd146d42eae7'
p114
sg14
S'Mozilla/5.0 (Linux; Android 4.3; R8007 Build/JLS36C) AppleWebKit/537.36 (KHTML, like Gecko) Version/4.0 Chrome/37.0.0.0 Mobile MQQBrowser/6.8 TBS/036849 Safari/537.36 MicroMessenger/6.3.27.880 NetType/cmwap Language/zh_CN'
p115
sg16
S'4aea011eb881c11d13e08c042171a065'
p116
sa(dp117
g2
S'49738'
p118
sg4
S'1441'
p119
sg6
S'd869918b3075266d8d2dcc2b621cb33b'
p120
sg8
S'xxf33866cb385bfad32d8558718c577c70'
p121
sg10
S'xx52151d64d779d05003cb50bd155cc58b'
p122
sg12
S'xx07d180623e0edfc912c9bd146d42eae7'
p123
sg14
S'Mozilla/5.0 (Linux; Android 4.3; R8007 Build/JLS36C) AppleWebKit/537.36 (KHTML, like Gecko) Version/4.0 Chrome/37.0.0.0 Mobile MQQBrowser/6.8 TBS/036849 Safari/537.36 MicroMessenger/6.3.27.880 NetType/cmwap Language/zh_CN'
p124
sg16
S'4aea011eb881c11d13e08c042171a065'
p125
sa(dp126
g2
S'49738'
p127
sg4
S'2355'
p128
sg6
S'd869918b3075266d8d2dcc2b621cb33b'
p129
sg8
S'xxf33866cb385bfad32d8558718c577c70'
p130
sg10
S'xx52151d64d779d05003cb50bd155cc58b'
p131
sg12
S'xx07d180623e0edfc912c9bd146d42eae7'
p132
sg14
S'Mozilla/5.0 (Linux; Android 4.3; R8007 Build/JLS36C) AppleWebKit/537.36 (KHTML, like Gecko) Version/4.0 Chrome/37.0.0.0 Mobile MQQBrowser/6.8 TBS/036849 Safari/537.36 MicroMessenger/6.3.27.880 NetType/cmwap Language/zh_CN'
p133
sg16
S'4aea011eb881c11d13e08c042171a065'
p134
sa(dp135
g2
S'49738'
p136
sg4
S'2377'
p137
sg6
S'd869918b3075266d8d2dcc2b621cb33b'
p138
sg8
S'xxf33866cb385bfad32d8558718c577c70'
p139
sg10
S'xx52151d64d779d05003cb50bd155cc58b'
p140
sg12
S'xx07d180623e0edfc912c9bd146d42eae7'
p141
sg14
S'Mozilla/5.0 (Linux; Android 4.3; R8007 Build/JLS36C) AppleWebKit/537.36 (KHTML, like Gecko) Version/4.0 Chrome/37.0.0.0 Mobile MQQBrowser/6.8 TBS/036849 Safari/537.36 MicroMessenger/6.3.27.880 NetType/cmwap Language/zh_CN'
p142
sg16
S'4aea011eb881c11d13e08c042171a065'
p143
sa(dp144
g2
S'49738'
p145
sg4
S'2428'
p146
sg6
S'd869918b3075266d8d2dcc2b621cb33b'
p147
sg8
S'xxf33866cb385bfad32d8558718c577c70'
p148
sg10
S'xx52151d64d779d05003cb50bd155cc58b'
p149
sg12
S'xx07d180623e0edfc912c9bd146d42eae7'
p150
sg14
S'Mozilla/5.0 (Linux; Android 4.3; R8007 Build/JLS36C) AppleWebKit/537.36 (KHTML, like Gecko) Version/4.0 Chrome/37.0.0.0 Mobile MQQBrowser/6.8 TBS/036849 Safari/537.36 MicroMessenger/6.3.27.880 NetType/cmwap Language/zh_CN'
p151
sg16
S'4aea011eb881c11d13e08c042171a065'
p152
sa(dp153
g2
S'49738'
p154
sg4
S'2448'
p155
sg6
S'd869918b3075266d8d2dcc2b621cb33b'
p156
sg8
S'xxf33866cb385bfad32d8558718c577c70'
p157
sg10
S'xx52151d64d779d05003cb50bd155cc58b'
p158
sg12
S'xx07d180623e0edfc912c9bd146d42eae7'
p159
sg14
S'Mozilla/5.0 (Linux; Android 4.3; R8007 Build/JLS36C) AppleWebKit/537.36 (KHTML, like Gecko) Version/4.0 Chrome/37.0.0.0 Mobile MQQBrowser/6.8 TBS/036849 Safari/537.36 MicroMessenger/6.3.27.880 NetType/cmwap Language/zh_CN'
p160
sg16
S'4aea011eb881c11d13e08c042171a065'
p161
sa(dp162
g2
S'49738'
p163
sg4
S'2466'
p164
sg6
S'd869918b3075266d8d2dcc2b621cb33b'
p165
sg8
S'xxf33866cb385bfad32d8558718c577c70'
p166
sg10
S'xx52151d64d779d05003cb50bd155cc58b'
p167
sg12
S'xx07d180623e0edfc912c9bd146d42eae7'
p168
sg14
S'Mozilla/5.0 (Linux; Android 4.3; R8007 Build/JLS36C) AppleWebKit/537.36 (KHTML, like Gecko) Version/4.0 Chrome/37.0.0.0 Mobile MQQBrowser/6.8 TBS/036849 Safari/537.36 MicroMessenger/6.3.27.880 NetType/cmwap Language/zh_CN'
p169
sg16
S'4aea011eb881c11d13e08c042171a065'
p170
sa(dp171
g2
S'49738'
p172
sg4
S'2477'
p173
sg6
S'd869918b3075266d8d2dcc2b621cb33b'
p174
sg8
S'xxf33866cb385bfad32d8558718c577c70'
p175
sg10
S'xx52151d64d779d05003cb50bd155cc58b'
p176
sg12
S'xx07d180623e0edfc912c9bd146d42eae7'
p177
sg14
S'Mozilla/5.0 (Linux; Android 4.3; R8007 Build/JLS36C) AppleWebKit/537.36 (KHTML, like Gecko) Version/4.0 Chrome/37.0.0.0 Mobile MQQBrowser/6.8 TBS/036849 Safari/537.36 MicroMessenger/6.3.27.880 NetType/cmwap Language/zh_CN'
p178
sg16
S'4aea011eb881c11d13e08c042171a065'
p179
sa(dp180
g2
S'49738'
p181
sg4
S'2499'
p182
sg6
S'd869918b3075266d8d2dcc2b621cb33b'
p183
sg8
S'xxf33866cb385bfad32d8558718c577c70'
p184
sg10
S'xx52151d64d779d05003cb50bd155cc58b'
p185
sg12
S'xx07d180623e0edfc912c9bd146d42eae7'
p186
sg14
S'Mozilla/5.0 (Linux; Android 4.3; R8007 Build/JLS36C) AppleWebKit/537.36 (KHTML, like Gecko) Version/4.0 Chrome/37.0.0.0 Mobile MQQBrowser/6.8 TBS/036849 Safari/537.36 MicroMessenger/6.3.27.880 NetType/cmwap Language/zh_CN'
p187
sg16
S'4aea011eb881c11d13e08c042171a065'
p188
sa.