(lp0
(dp1
S'user_id'
p2
S'36803'
p3
sS'data_id'
p4
S'4514'
p5
sS'ip'
p6
S'b1613acba67c184f84174c485eb1e1ec'
p7
sS'phone_B'
p8
S'xx4c1f4be36e29562e7d88e02efd2399e5'
p9
sS'phone_C'
p10
S'xx631361e845f1f19485b650e74f9e36e2'
p11
sS'phone_A'
p12
S'xx07c9de5b6bc547f51d0205e319d435de'
p13
sS'user_agent'
p14
S'Mozilla/5.0 (Linux; Android 6.0; Letv X500 Build/DBXCNOP5801810092S) AppleWebKit/537.36 (KHTML, like Gecko) Version/4.0 Chrome/37.0.0.0 Mobile MQQBrowser/6.8 TBS/036849 Safari/537.36 MicroMessenger/6.3.27.880 NetType/WIFI Language/zh_CN'
p15
sS'ua'
p16
S'0bb8de8d991094eaae9e058b7842359c'
p17
sa(dp18
g2
S'36803'
p19
sg4
S'4543'
p20
sg6
S'b1613acba67c184f84174c485eb1e1ec'
p21
sg8
S'xx4c1f4be36e29562e7d88e02efd2399e5'
p22
sg10
S'xx631361e845f1f19485b650e74f9e36e2'
p23
sg12
S'xx07c9de5b6bc547f51d0205e319d435de'
p24
sg14
S'Mozilla/5.0 (Linux; Android 6.0; Letv X500 Build/DBXCNOP5801810092S) AppleWebKit/537.36 (KHTML, like Gecko) Version/4.0 Chrome/37.0.0.0 Mobile MQQBrowser/6.8 TBS/036849 Safari/537.36 MicroMessenger/6.3.27.880 NetType/WIFI Language/zh_CN'
p25
sg16
S'0bb8de8d991094eaae9e058b7842359c'
p26
sa(dp27
g2
S'36803'
p28
sg4
S'4570'
p29
sg6
S'b1613acba67c184f84174c485eb1e1ec'
p30
sg8
S'xx4c1f4be36e29562e7d88e02efd2399e5'
p31
sg10
S'xx631361e845f1f19485b650e74f9e36e2'
p32
sg12
S'xx07c9de5b6bc547f51d0205e319d435de'
p33
sg14
S'Mozilla/5.0 (Linux; Android 6.0; Letv X500 Build/DBXCNOP5801810092S) AppleWebKit/537.36 (KHTML, like Gecko) Version/4.0 Chrome/37.0.0.0 Mobile MQQBrowser/6.8 TBS/036849 Safari/537.36 MicroMessenger/6.3.27.880 NetType/WIFI Language/zh_CN'
p34
sg16
S'0bb8de8d991094eaae9e058b7842359c'
p35
sa(dp36
g2
S'39998'
p37
sg4
S'4705'
p38
sg6
S'9456ec99a7e198b0a641da4d51a5a8a9'
p39
sg8
S'xx556fc25f000322ba3404e69e6cf74f75'
p40
sg10
S'xx631361e845f1f19485b650e74f9e36e2'
p41
sg12
S'xx07c9de5b6bc547f51d0205e319d435de'
p42
sg14
S'Mozilla/5.0 (Linux; Android 6.0; Letv X500 Build/DBXCNOP5801810092S) AppleWebKit/537.36 (KHTML, like Gecko) Version/4.0 Chrome/37.0.0.0 Mobile MQQBrowser/6.8 TBS/036824 Safari/537.36 MicroMessenger/6.3.27.880 NetType/WIFI Language/zh_CN'
p43
sg16
S'1f45705eb9d98971fc79932a70a10f65'
p44
sa(dp45
g2
S'39998'
p46
sg4
S'4722'
p47
sg6
S'9456ec99a7e198b0a641da4d51a5a8a9'
p48
sg8
S'xx556fc25f000322ba3404e69e6cf74f75'
p49
sg10
S'xx631361e845f1f19485b650e74f9e36e2'
p50
sg12
S'xx07c9de5b6bc547f51d0205e319d435de'
p51
sg14
S'Mozilla/5.0 (Linux; Android 6.0; Letv X500 Build/DBXCNOP5801810092S) AppleWebKit/537.36 (KHTML, like Gecko) Version/4.0 Chrome/37.0.0.0 Mobile MQQBrowser/6.8 TBS/036824 Safari/537.36 MicroMessenger/6.3.27.880 NetType/WIFI Language/zh_CN'
p52
sg16
S'1f45705eb9d98971fc79932a70a10f65'
p53
sa(dp54
g2
S'39998'
p55
sg4
S'4740'
p56
sg6
S'9456ec99a7e198b0a641da4d51a5a8a9'
p57
sg8
S'xx556fc25f000322ba3404e69e6cf74f75'
p58
sg10
S'xx631361e845f1f19485b650e74f9e36e2'
p59
sg12
S'xx07c9de5b6bc547f51d0205e319d435de'
p60
sg14
S'Mozilla/5.0 (Linux; Android 6.0; Letv X500 Build/DBXCNOP5801810092S) AppleWebKit/537.36 (KHTML, like Gecko) Version/4.0 Chrome/37.0.0.0 Mobile MQQBrowser/6.8 TBS/036824 Safari/537.36 MicroMessenger/6.3.27.880 NetType/WIFI Language/zh_CN'
p61
sg16
S'1f45705eb9d98971fc79932a70a10f65'
p62
sa(dp63
g2
S'36803'
p64
sg4
S'6405'
p65
sg6
S'b1613acba67c184f84174c485eb1e1ec'
p66
sg8
S'xx4c1f4be36e29562e7d88e02efd2399e5'
p67
sg10
S'xx631361e845f1f19485b650e74f9e36e2'
p68
sg12
S'xx07c9de5b6bc547f51d0205e319d435de'
p69
sg14
S'Mozilla/5.0 (Linux; Android 6.0; Letv X500 Build/DBXCNOP5801810092S) AppleWebKit/537.36 (KHTML, like Gecko) Version/4.0 Chrome/37.0.0.0 Mobile MQQBrowser/6.8 TBS/036849 Safari/537.36 MicroMessenger/6.3.27.880 NetType/WIFI Language/zh_CN'
p70
sg16
S'0bb8de8d991094eaae9e058b7842359c'
p71
sa(dp72
g2
S'36803'
p73
sg4
S'6419'
p74
sg6
S'b1613acba67c184f84174c485eb1e1ec'
p75
sg8
S'xx4c1f4be36e29562e7d88e02efd2399e5'
p76
sg10
S'xx631361e845f1f19485b650e74f9e36e2'
p77
sg12
S'xx07c9de5b6bc547f51d0205e319d435de'
p78
sg14
S'Mozilla/5.0 (Linux; Android 6.0; Letv X500 Build/DBXCNOP5801810092S) AppleWebKit/537.36 (KHTML, like Gecko) Version/4.0 Chrome/37.0.0.0 Mobile MQQBrowser/6.8 TBS/036849 Safari/537.36 MicroMessenger/6.3.27.880 NetType/WIFI Language/zh_CN'
p79
sg16
S'0bb8de8d991094eaae9e058b7842359c'
p80
sa(dp81
g2
S'30497'
p82
sg4
S'6740'
p83
sg6
S'f3f27f95678f861ebdc986239eef0b2a'
p84
sg8
S'xx4c1f4be36e29562e7d88e02efd2399e5'
p85
sg10
S'xx631361e845f1f19485b650e74f9e36e2'
p86
sg12
S'xx07c9de5b6bc547f51d0205e319d435de'
p87
sg14
S'Mozilla/5.0 (Linux; Android 6.0; Letv X500 Build/DBXCNOP5801810092S) AppleWebKit/537.36 (KHTML, like Gecko) Version/4.0 Chrome/37.0.0.0 Mobile MQQBrowser/6.8 TBS/036849 Safari/537.36 MicroMessenger/6.3.27.880 NetType/WIFI Language/zh_CN'
p88
sg16
S'0bb8de8d991094eaae9e058b7842359c'
p89
sa(dp90
g2
S'30497'
p91
sg4
S'6756'
p92
sg6
S'f3f27f95678f861ebdc986239eef0b2a'
p93
sg8
S'xx4c1f4be36e29562e7d88e02efd2399e5'
p94
sg10
S'xx631361e845f1f19485b650e74f9e36e2'
p95
sg12
S'xx07c9de5b6bc547f51d0205e319d435de'
p96
sg14
S'Mozilla/5.0 (Linux; Android 6.0; Letv X500 Build/DBXCNOP5801810092S) AppleWebKit/537.36 (KHTML, like Gecko) Version/4.0 Chrome/37.0.0.0 Mobile MQQBrowser/6.8 TBS/036849 Safari/537.36 MicroMessenger/6.3.27.880 NetType/WIFI Language/zh_CN'
p97
sg16
S'0bb8de8d991094eaae9e058b7842359c'
p98
sa(dp99
g2
S'12521'
p100
sg4
S'8440'
p101
sg6
S'd37ea9e9d048159344a734894c21c0c6'
p102
sg8
S'xx4c1f4be36e29562e7d88e02efd2399e5'
p103
sg10
S'xx631361e845f1f19485b650e74f9e36e2'
p104
sg12
S'xx07c9de5b6bc547f51d0205e319d435de'
p105
sg14
S'Mozilla/5.0 (Linux; Android 6.0; Letv X500 Build/DBXCNOP5801810092S) AppleWebKit/537.36 (KHTML, like Gecko) Version/4.0 Chrome/37.0.0.0 Mobile MQQBrowser/6.8 TBS/036849 Safari/537.36 MicroMessenger/6.3.27.880 NetType/WIFI Language/zh_CN'
p106
sg16
S'0bb8de8d991094eaae9e058b7842359c'
p107
sa(dp108
g2
S'12521'
p109
sg4
S'8455'
p110
sg6
S'd37ea9e9d048159344a734894c21c0c6'
p111
sg8
S'xx4c1f4be36e29562e7d88e02efd2399e5'
p112
sg10
S'xx631361e845f1f19485b650e74f9e36e2'
p113
sg12
S'xx07c9de5b6bc547f51d0205e319d435de'
p114
sg14
S'Mozilla/5.0 (Linux; Android 6.0; Letv X500 Build/DBXCNOP5801810092S) AppleWebKit/537.36 (KHTML, like Gecko) Version/4.0 Chrome/37.0.0.0 Mobile MQQBrowser/6.8 TBS/036849 Safari/537.36 MicroMessenger/6.3.27.880 NetType/WIFI Language/zh_CN'
p115
sg16
S'0bb8de8d991094eaae9e058b7842359c'
p116
sa(dp117
g2
S'12521'
p118
sg4
S'8469'
p119
sg6
S'd37ea9e9d048159344a734894c21c0c6'
p120
sg8
S'xx4c1f4be36e29562e7d88e02efd2399e5'
p121
sg10
S'xx631361e845f1f19485b650e74f9e36e2'
p122
sg12
S'xx07c9de5b6bc547f51d0205e319d435de'
p123
sg14
S'Mozilla/5.0 (Linux; Android 6.0; Letv X500 Build/DBXCNOP5801810092S) AppleWebKit/537.36 (KHTML, like Gecko) Version/4.0 Chrome/37.0.0.0 Mobile MQQBrowser/6.8 TBS/036849 Safari/537.36 MicroMessenger/6.3.27.880 NetType/WIFI Language/zh_CN'
p124
sg16
S'0bb8de8d991094eaae9e058b7842359c'
p125
sa(dp126
g2
S'12521'
p127
sg4
S'8476'
p128
sg6
S'd37ea9e9d048159344a734894c21c0c6'
p129
sg8
S'xx4c1f4be36e29562e7d88e02efd2399e5'
p130
sg10
S'xx631361e845f1f19485b650e74f9e36e2'
p131
sg12
S'xx07c9de5b6bc547f51d0205e319d435de'
p132
sg14
S'Mozilla/5.0 (Linux; Android 6.0; Letv X500 Build/DBXCNOP5801810092S) AppleWebKit/537.36 (KHTML, like Gecko) Version/4.0 Chrome/37.0.0.0 Mobile MQQBrowser/6.8 TBS/036849 Safari/537.36 MicroMessenger/6.3.27.880 NetType/WIFI Language/zh_CN'
p133
sg16
S'0bb8de8d991094eaae9e058b7842359c'
p134
sa.