(lp0
(dp1
S'user_id'
p2
S'30438'
p3
sS'data_id'
p4
S'5244'
p5
sS'ip'
p6
S'5faf64e62724dc419683ce2a10013026'
p7
sS'phone_B'
p8
S'xxd3e60779bbe140afdc0a9fbf1a215ba0'
p9
sS'phone_C'
p10
S'xx0cd7a6f2e85b8e05fb014b9b634a62b4'
p11
sS'phone_A'
p12
S'xx08fb70d6ba74a37787e3461e7ed68668'
p13
sS'user_agent'
p14
S'Mozilla/5.0 (Linux; Android 5.1; T1 Build/LMY47D) AppleWebKit/537.36 (KHTML, like Gecko) Version/4.0 Chrome/37.0.0.0 Mobile MQQBrowser/6.8 TBS/036869 Safari/537.36 MicroMessenger/6.3.27.880 NetType/cmnet Language/zh_CN'
p15
sS'ua'
p16
S'514abcb3a235947dba086c1b1dc86ab3'
p17
sa.