(lp0
(dp1
S'user_id'
p2
S'35766'
p3
sS'data_id'
p4
S'7329'
p5
sS'ip'
p6
S'6a4ebe4c9d45e931c3432187c42df18b'
p7
sS'phone_B'
p8
S'xx189cc523c3785bfcd3b71b13cd9cb2a9'
p9
sS'phone_C'
p10
S'xxa0a897545828b819c57b43fd483e4c66'
p11
sS'phone_A'
p12
S'xx099deeb35115768d30cf2ff2eb36cbbc'
p13
sS'user_agent'
p14
S'Mozilla/5.0 (Linux; Android 5.1; HUAWEI TIT-CL10 Build/HUAWEITIT-CL10) AppleWebKit/537.36 (KHTML, like Gecko) Version/4.0 Chrome/37.0.0.0 Mobile MQQBrowser/6.8 TBS/036824 Safari/537.36 MicroMessenger/6.3.27.880 NetType/ctlte Language/zh_CN'
p15
sS'ua'
p16
S'd210dd9c72ec708d04b3f36f033069ce'
p17
sa(dp18
g2
S'35766'
p19
sg4
S'7343'
p20
sg6
S'6a4ebe4c9d45e931c3432187c42df18b'
p21
sg8
S'xx189cc523c3785bfcd3b71b13cd9cb2a9'
p22
sg10
S'xxa0a897545828b819c57b43fd483e4c66'
p23
sg12
S'xx099deeb35115768d30cf2ff2eb36cbbc'
p24
sg14
S'Mozilla/5.0 (Linux; Android 5.1; HUAWEI TIT-CL10 Build/HUAWEITIT-CL10) AppleWebKit/537.36 (KHTML, like Gecko) Version/4.0 Chrome/37.0.0.0 Mobile MQQBrowser/6.8 TBS/036824 Safari/537.36 MicroMessenger/6.3.27.880 NetType/ctlte Language/zh_CN'
p25
sg16
S'd210dd9c72ec708d04b3f36f033069ce'
p26
sa(dp27
g2
S'35766'
p28
sg4
S'7355'
p29
sg6
S'6a4ebe4c9d45e931c3432187c42df18b'
p30
sg8
S'xx189cc523c3785bfcd3b71b13cd9cb2a9'
p31
sg10
S'xxa0a897545828b819c57b43fd483e4c66'
p32
sg12
S'xx099deeb35115768d30cf2ff2eb36cbbc'
p33
sg14
S'Mozilla/5.0 (Linux; Android 5.1; HUAWEI TIT-CL10 Build/HUAWEITIT-CL10) AppleWebKit/537.36 (KHTML, like Gecko) Version/4.0 Chrome/37.0.0.0 Mobile MQQBrowser/6.8 TBS/036824 Safari/537.36 MicroMessenger/6.3.27.880 NetType/ctlte Language/zh_CN'
p34
sg16
S'd210dd9c72ec708d04b3f36f033069ce'
p35
sa.