(lp0
(dp1
S'user_id'
p2
S'18112'
p3
sS'data_id'
p4
S'2078'
p5
sS'ip'
p6
S'045680fa2d27a957708daf88a34cda2d'
p7
sS'phone_B'
p8
S'xxfd680252ac02528330f70231594537f4'
p9
sS'phone_C'
p10
S'xx5ba6e83ab19ca3a94d39ebfc36eb8d6b'
p11
sS'phone_A'
p12
S'xx09fee501086b91d31ae063fcedc6a124'
p13
sS'user_agent'
p14
S'Mozilla/5.0 (Linux; Android 4.4.4; Lenovo K30-T Build/KTU84P) AppleWebKit/537.36 (KHTML, like Gecko) Version/4.0 Chrome/37.0.0.0 Mobile MQQBrowser/6.8 TBS/036849 Safari/537.36 MicroMessenger/6.3.27.880 NetType/WIFI Language/zh_CN'
p15
sS'ua'
p16
S'a2b449eb4324922323893550fa39973f'
p17
sa(dp18
g2
S'18112'
p19
sg4
S'2090'
p20
sg6
S'045680fa2d27a957708daf88a34cda2d'
p21
sg8
S'xxfd680252ac02528330f70231594537f4'
p22
sg10
S'xx5ba6e83ab19ca3a94d39ebfc36eb8d6b'
p23
sg12
S'xx09fee501086b91d31ae063fcedc6a124'
p24
sg14
S'Mozilla/5.0 (Linux; Android 4.4.4; Lenovo K30-T Build/KTU84P) AppleWebKit/537.36 (KHTML, like Gecko) Version/4.0 Chrome/37.0.0.0 Mobile MQQBrowser/6.8 TBS/036849 Safari/537.36 MicroMessenger/6.3.27.880 NetType/WIFI Language/zh_CN'
p25
sg16
S'a2b449eb4324922323893550fa39973f'
p26
sa(dp27
g2
S'31278'
p28
sg4
S'2673'
p29
sg6
S'ce007e11f3a51fcd3cd90d7ea97dda2d'
p30
sg8
S'xx7963991161a006260279b0de703acab2'
p31
sg10
S'xx5ba6e83ab19ca3a94d39ebfc36eb8d6b'
p32
sg12
S'xx09fee501086b91d31ae063fcedc6a124'
p33
sg14
S'Mozilla/5.0 (Linux; Android 4.4.4; Lenovo K30-T Build/KTU84P) AppleWebKit/537.36 (KHTML, like Gecko) Version/4.0 Chrome/37.0.0.0 Mobile MQQBrowser/6.8 TBS/036824 Safari/537.36 MicroMessenger/6.3.27.880 NetType/WIFI Language/zh_CN'
p34
sg16
S'19974fcf154f58347b65cb13074681b7'
p35
sa(dp36
g2
S'31278'
p37
sg4
S'2693'
p38
sg6
S'ce007e11f3a51fcd3cd90d7ea97dda2d'
p39
sg8
S'xx7963991161a006260279b0de703acab2'
p40
sg10
S'xx5ba6e83ab19ca3a94d39ebfc36eb8d6b'
p41
sg12
S'xx09fee501086b91d31ae063fcedc6a124'
p42
sg14
S'Mozilla/5.0 (Linux; Android 4.4.4; Lenovo K30-T Build/KTU84P) AppleWebKit/537.36 (KHTML, like Gecko) Version/4.0 Chrome/37.0.0.0 Mobile MQQBrowser/6.8 TBS/036824 Safari/537.36 MicroMessenger/6.3.27.880 NetType/WIFI Language/zh_CN'
p43
sg16
S'19974fcf154f58347b65cb13074681b7'
p44
sa.