(lp0
(dp1
S'user_id'
p2
S'33110'
p3
sS'data_id'
p4
S'4519'
p5
sS'ip'
p6
S'df2766913dd3470402ba9cd542f52b86'
p7
sS'phone_B'
p8
S'xx7f005411b1794d85b466fb4ce82663e7'
p9
sS'phone_C'
p10
S'xx25b9c4d3cf875d99deb0ef3da931407e'
p11
sS'phone_A'
p12
S'xx0a2527a78489272d9cda20f76e351beb'
p13
sS'user_agent'
p14
S'Mozilla/5.0 (Linux; Android 4.4.4; vivo X5Max V Build/KTU84P) AppleWebKit/537.36 (KHTML, like Gecko) Version/4.0 Chrome/37.0.0.0 Mobile MQQBrowser/6.8 TBS/036869 Safari/537.36 MicroMessenger/6.3.27.880 NetType/ctlte Language/zh_CN'
p15
sS'ua'
p16
S'34c1e956f9b21d8bfe5580e311574453'
p17
sa(dp18
g2
S'33110'
p19
sg4
S'4550'
p20
sg6
S'df2766913dd3470402ba9cd542f52b86'
p21
sg8
S'xx7f005411b1794d85b466fb4ce82663e7'
p22
sg10
S'xx25b9c4d3cf875d99deb0ef3da931407e'
p23
sg12
S'xx0a2527a78489272d9cda20f76e351beb'
p24
sg14
S'Mozilla/5.0 (Linux; Android 4.4.4; vivo X5Max V Build/KTU84P) AppleWebKit/537.36 (KHTML, like Gecko) Version/4.0 Chrome/37.0.0.0 Mobile MQQBrowser/6.8 TBS/036869 Safari/537.36 MicroMessenger/6.3.27.880 NetType/ctlte Language/zh_CN'
p25
sg16
S'34c1e956f9b21d8bfe5580e311574453'
p26
sa.