(lp0
(dp1
S'user_id'
p2
S'48855'
p3
sS'data_id'
p4
S'5'
p5
sS'ip'
p6
S'716045ac0a643389933fb93fd735fce7'
p7
sS'phone_B'
p8
S'xx8cd226afa6d24cd2259521eec88cea02'
p9
sS'phone_C'
p10
S'xx0e27c2739a9e64e56e4cfb56ddfa318e'
p11
sS'phone_A'
p12
S'xx0a5cd9816c001af23c761742fd77e4cd'
p13
sS'user_agent'
p14
S'Mozilla/5.0 (Linux; Android 6.0.1; MI NOTE LTE Build/MMB29M) AppleWebKit/537.36 (KHTML, like Gecko) Version/4.0 Chrome/37.0.0.0 Mobile MQQBrowser/6.8 TBS/036824 Safari/537.36 MicroMessenger/6.3.27.880 NetType/WIFI Language/zh_CN'
p15
sS'ua'
p16
S'f15a8d1bd88ffbaea754242ad33af05b'
p17
sa(dp18
g2
S'48855'
p19
sg4
S'43'
p20
sg6
S'716045ac0a643389933fb93fd735fce7'
p21
sg8
S'xx8cd226afa6d24cd2259521eec88cea02'
p22
sg10
S'xx0e27c2739a9e64e56e4cfb56ddfa318e'
p23
sg12
S'xx0a5cd9816c001af23c761742fd77e4cd'
p24
sg14
S'Mozilla/5.0 (Linux; Android 6.0.1; MI NOTE LTE Build/MMB29M) AppleWebKit/537.36 (KHTML, like Gecko) Version/4.0 Chrome/37.0.0.0 Mobile MQQBrowser/6.8 TBS/036824 Safari/537.36 MicroMessenger/6.3.27.880 NetType/WIFI Language/zh_CN'
p25
sg16
S'f15a8d1bd88ffbaea754242ad33af05b'
p26
sa(dp27
g2
S'48855'
p28
sg4
S'67'
p29
sg6
S'716045ac0a643389933fb93fd735fce7'
p30
sg8
S'xx8cd226afa6d24cd2259521eec88cea02'
p31
sg10
S'xx0e27c2739a9e64e56e4cfb56ddfa318e'
p32
sg12
S'xx0a5cd9816c001af23c761742fd77e4cd'
p33
sg14
S'Mozilla/5.0 (Linux; Android 6.0.1; MI NOTE LTE Build/MMB29M) AppleWebKit/537.36 (KHTML, like Gecko) Version/4.0 Chrome/37.0.0.0 Mobile MQQBrowser/6.8 TBS/036824 Safari/537.36 MicroMessenger/6.3.27.880 NetType/WIFI Language/zh_CN'
p34
sg16
S'f15a8d1bd88ffbaea754242ad33af05b'
p35
sa(dp36
g2
S'48855'
p37
sg4
S'101'
p38
sg6
S'716045ac0a643389933fb93fd735fce7'
p39
sg8
S'xx8cd226afa6d24cd2259521eec88cea02'
p40
sg10
S'xx0e27c2739a9e64e56e4cfb56ddfa318e'
p41
sg12
S'xx0a5cd9816c001af23c761742fd77e4cd'
p42
sg14
S'Mozilla/5.0 (Linux; Android 6.0.1; MI NOTE LTE Build/MMB29M) AppleWebKit/537.36 (KHTML, like Gecko) Version/4.0 Chrome/37.0.0.0 Mobile MQQBrowser/6.8 TBS/036824 Safari/537.36 MicroMessenger/6.3.27.880 NetType/WIFI Language/zh_CN'
p43
sg16
S'f15a8d1bd88ffbaea754242ad33af05b'
p44
sa(dp45
g2
S'48855'
p46
sg4
S'180'
p47
sg6
S'716045ac0a643389933fb93fd735fce7'
p48
sg8
S'xx8cd226afa6d24cd2259521eec88cea02'
p49
sg10
S'xx0e27c2739a9e64e56e4cfb56ddfa318e'
p50
sg12
S'xx0a5cd9816c001af23c761742fd77e4cd'
p51
sg14
S'Mozilla/5.0 (Linux; Android 6.0.1; MI NOTE LTE Build/MMB29M) AppleWebKit/537.36 (KHTML, like Gecko) Version/4.0 Chrome/37.0.0.0 Mobile MQQBrowser/6.8 TBS/036824 Safari/537.36 MicroMessenger/6.3.27.880 NetType/WIFI Language/zh_CN'
p52
sg16
S'f15a8d1bd88ffbaea754242ad33af05b'
p53
sa(dp54
g2
S'48855'
p55
sg4
S'201'
p56
sg6
S'716045ac0a643389933fb93fd735fce7'
p57
sg8
S'xx8cd226afa6d24cd2259521eec88cea02'
p58
sg10
S'xx0e27c2739a9e64e56e4cfb56ddfa318e'
p59
sg12
S'xx0a5cd9816c001af23c761742fd77e4cd'
p60
sg14
S'Mozilla/5.0 (Linux; Android 6.0.1; MI NOTE LTE Build/MMB29M) AppleWebKit/537.36 (KHTML, like Gecko) Version/4.0 Chrome/37.0.0.0 Mobile MQQBrowser/6.8 TBS/036824 Safari/537.36 MicroMessenger/6.3.27.880 NetType/WIFI Language/zh_CN'
p61
sg16
S'f15a8d1bd88ffbaea754242ad33af05b'
p62
sa(dp63
g2
S'48855'
p64
sg4
S'341'
p65
sg6
S'716045ac0a643389933fb93fd735fce7'
p66
sg8
S'xx8cd226afa6d24cd2259521eec88cea02'
p67
sg10
S'xx0e27c2739a9e64e56e4cfb56ddfa318e'
p68
sg12
S'xx0a5cd9816c001af23c761742fd77e4cd'
p69
sg14
S'Mozilla/5.0 (Linux; Android 6.0.1; MI NOTE LTE Build/MMB29M) AppleWebKit/537.36 (KHTML, like Gecko) Version/4.0 Chrome/37.0.0.0 Mobile MQQBrowser/6.8 TBS/036824 Safari/537.36 MicroMessenger/6.3.27.880 NetType/WIFI Language/zh_CN'
p70
sg16
S'f15a8d1bd88ffbaea754242ad33af05b'
p71
sa(dp72
g2
S'48855'
p73
sg4
S'358'
p74
sg6
S'716045ac0a643389933fb93fd735fce7'
p75
sg8
S'xx8cd226afa6d24cd2259521eec88cea02'
p76
sg10
S'xx0e27c2739a9e64e56e4cfb56ddfa318e'
p77
sg12
S'xx0a5cd9816c001af23c761742fd77e4cd'
p78
sg14
S'Mozilla/5.0 (Linux; Android 6.0.1; MI NOTE LTE Build/MMB29M) AppleWebKit/537.36 (KHTML, like Gecko) Version/4.0 Chrome/37.0.0.0 Mobile MQQBrowser/6.8 TBS/036824 Safari/537.36 MicroMessenger/6.3.27.880 NetType/WIFI Language/zh_CN'
p79
sg16
S'f15a8d1bd88ffbaea754242ad33af05b'
p80
sa(dp81
g2
S'48855'
p82
sg4
S'437'
p83
sg6
S'716045ac0a643389933fb93fd735fce7'
p84
sg8
S'xx8cd226afa6d24cd2259521eec88cea02'
p85
sg10
S'xx0e27c2739a9e64e56e4cfb56ddfa318e'
p86
sg12
S'xx0a5cd9816c001af23c761742fd77e4cd'
p87
sg14
S'Mozilla/5.0 (Linux; Android 6.0.1; MI NOTE LTE Build/MMB29M) AppleWebKit/537.36 (KHTML, like Gecko) Version/4.0 Chrome/37.0.0.0 Mobile MQQBrowser/6.8 TBS/036824 Safari/537.36 MicroMessenger/6.3.27.880 NetType/WIFI Language/zh_CN'
p88
sg16
S'f15a8d1bd88ffbaea754242ad33af05b'
p89
sa(dp90
g2
S'48855'
p91
sg4
S'486'
p92
sg6
S'716045ac0a643389933fb93fd735fce7'
p93
sg8
S'xx8cd226afa6d24cd2259521eec88cea02'
p94
sg10
S'xx0e27c2739a9e64e56e4cfb56ddfa318e'
p95
sg12
S'xx0a5cd9816c001af23c761742fd77e4cd'
p96
sg14
S'Mozilla/5.0 (Linux; Android 6.0.1; MI NOTE LTE Build/MMB29M) AppleWebKit/537.36 (KHTML, like Gecko) Version/4.0 Chrome/37.0.0.0 Mobile MQQBrowser/6.8 TBS/036824 Safari/537.36 MicroMessenger/6.3.27.880 NetType/WIFI Language/zh_CN'
p97
sg16
S'f15a8d1bd88ffbaea754242ad33af05b'
p98
sa(dp99
g2
S'48855'
p100
sg4
S'500'
p101
sg6
S'716045ac0a643389933fb93fd735fce7'
p102
sg8
S'xx8cd226afa6d24cd2259521eec88cea02'
p103
sg10
S'xx0e27c2739a9e64e56e4cfb56ddfa318e'
p104
sg12
S'xx0a5cd9816c001af23c761742fd77e4cd'
p105
sg14
S'Mozilla/5.0 (Linux; Android 6.0.1; MI NOTE LTE Build/MMB29M) AppleWebKit/537.36 (KHTML, like Gecko) Version/4.0 Chrome/37.0.0.0 Mobile MQQBrowser/6.8 TBS/036824 Safari/537.36 MicroMessenger/6.3.27.880 NetType/WIFI Language/zh_CN'
p106
sg16
S'f15a8d1bd88ffbaea754242ad33af05b'
p107
sa(dp108
g2
S'48855'
p109
sg4
S'514'
p110
sg6
S'716045ac0a643389933fb93fd735fce7'
p111
sg8
S'xx8cd226afa6d24cd2259521eec88cea02'
p112
sg10
S'xx0e27c2739a9e64e56e4cfb56ddfa318e'
p113
sg12
S'xx0a5cd9816c001af23c761742fd77e4cd'
p114
sg14
S'Mozilla/5.0 (Linux; Android 6.0.1; MI NOTE LTE Build/MMB29M) AppleWebKit/537.36 (KHTML, like Gecko) Version/4.0 Chrome/37.0.0.0 Mobile MQQBrowser/6.8 TBS/036824 Safari/537.36 MicroMessenger/6.3.27.880 NetType/WIFI Language/zh_CN'
p115
sg16
S'f15a8d1bd88ffbaea754242ad33af05b'
p116
sa(dp117
g2
S'48855'
p118
sg4
S'529'
p119
sg6
S'716045ac0a643389933fb93fd735fce7'
p120
sg8
S'xx8cd226afa6d24cd2259521eec88cea02'
p121
sg10
S'xx0e27c2739a9e64e56e4cfb56ddfa318e'
p122
sg12
S'xx0a5cd9816c001af23c761742fd77e4cd'
p123
sg14
S'Mozilla/5.0 (Linux; Android 6.0.1; MI NOTE LTE Build/MMB29M) AppleWebKit/537.36 (KHTML, like Gecko) Version/4.0 Chrome/37.0.0.0 Mobile MQQBrowser/6.8 TBS/036824 Safari/537.36 MicroMessenger/6.3.27.880 NetType/WIFI Language/zh_CN'
p124
sg16
S'f15a8d1bd88ffbaea754242ad33af05b'
p125
sa(dp126
g2
S'48855'
p127
sg4
S'586'
p128
sg6
S'716045ac0a643389933fb93fd735fce7'
p129
sg8
S'xx8cd226afa6d24cd2259521eec88cea02'
p130
sg10
S'xx0e27c2739a9e64e56e4cfb56ddfa318e'
p131
sg12
S'xx0a5cd9816c001af23c761742fd77e4cd'
p132
sg14
S'Mozilla/5.0 (Linux; Android 6.0.1; MI NOTE LTE Build/MMB29M) AppleWebKit/537.36 (KHTML, like Gecko) Version/4.0 Chrome/37.0.0.0 Mobile MQQBrowser/6.8 TBS/036824 Safari/537.36 MicroMessenger/6.3.27.880 NetType/WIFI Language/zh_CN'
p133
sg16
S'f15a8d1bd88ffbaea754242ad33af05b'
p134
sa(dp135
g2
S'48855'
p136
sg4
S'602'
p137
sg6
S'716045ac0a643389933fb93fd735fce7'
p138
sg8
S'xx8cd226afa6d24cd2259521eec88cea02'
p139
sg10
S'xx0e27c2739a9e64e56e4cfb56ddfa318e'
p140
sg12
S'xx0a5cd9816c001af23c761742fd77e4cd'
p141
sg14
S'Mozilla/5.0 (Linux; Android 6.0.1; MI NOTE LTE Build/MMB29M) AppleWebKit/537.36 (KHTML, like Gecko) Version/4.0 Chrome/37.0.0.0 Mobile MQQBrowser/6.8 TBS/036824 Safari/537.36 MicroMessenger/6.3.27.880 NetType/WIFI Language/zh_CN'
p142
sg16
S'f15a8d1bd88ffbaea754242ad33af05b'
p143
sa(dp144
g2
S'24895'
p145
sg4
S'666'
p146
sg6
S'699a9570432b9430ebb13c5ee5d4cf8d'
p147
sg8
S'xxe62fada6948b14de03c49f022fe0e423'
p148
sg10
S'xx0e27c2739a9e64e56e4cfb56ddfa318e'
p149
sg12
S'xx0a5cd9816c001af23c761742fd77e4cd'
p150
sg14
S'Mozilla/5.0 (Linux; Android 6.0.1; MI NOTE LTE Build/MMB29M) AppleWebKit/537.36 (KHTML, like Gecko) Version/4.0 Chrome/37.0.0.0 Mobile MQQBrowser/6.8 TBS/036869 Safari/537.36 MicroMessenger/6.3.27.880 NetType/WIFI Language/zh_CN'
p151
sg16
S'e624b7470f530fe1b1d37d1291e62b26'
p152
sa(dp153
g2
S'24895'
p154
sg4
S'677'
p155
sg6
S'699a9570432b9430ebb13c5ee5d4cf8d'
p156
sg8
S'xxe62fada6948b14de03c49f022fe0e423'
p157
sg10
S'xx0e27c2739a9e64e56e4cfb56ddfa318e'
p158
sg12
S'xx0a5cd9816c001af23c761742fd77e4cd'
p159
sg14
S'Mozilla/5.0 (Linux; Android 6.0.1; MI NOTE LTE Build/MMB29M) AppleWebKit/537.36 (KHTML, like Gecko) Version/4.0 Chrome/37.0.0.0 Mobile MQQBrowser/6.8 TBS/036869 Safari/537.36 MicroMessenger/6.3.27.880 NetType/WIFI Language/zh_CN'
p160
sg16
S'e624b7470f530fe1b1d37d1291e62b26'
p161
sa(dp162
g2
S'48855'
p163
sg4
S'769'
p164
sg6
S'716045ac0a643389933fb93fd735fce7'
p165
sg8
S'xx8cd226afa6d24cd2259521eec88cea02'
p166
sg10
S'xx0e27c2739a9e64e56e4cfb56ddfa318e'
p167
sg12
S'xx0a5cd9816c001af23c761742fd77e4cd'
p168
sg14
S'Mozilla/5.0 (Linux; Android 6.0.1; MI NOTE LTE Build/MMB29M) AppleWebKit/537.36 (KHTML, like Gecko) Version/4.0 Chrome/37.0.0.0 Mobile MQQBrowser/6.8 TBS/036824 Safari/537.36 MicroMessenger/6.3.27.880 NetType/WIFI Language/zh_CN'
p169
sg16
S'f15a8d1bd88ffbaea754242ad33af05b'
p170
sa(dp171
g2
S'48855'
p172
sg4
S'963'
p173
sg6
S'716045ac0a643389933fb93fd735fce7'
p174
sg8
S'xx8cd226afa6d24cd2259521eec88cea02'
p175
sg10
S'xx0e27c2739a9e64e56e4cfb56ddfa318e'
p176
sg12
S'xx0a5cd9816c001af23c761742fd77e4cd'
p177
sg14
S'Mozilla/5.0 (Linux; Android 6.0.1; MI NOTE LTE Build/MMB29M) AppleWebKit/537.36 (KHTML, like Gecko) Version/4.0 Chrome/37.0.0.0 Mobile MQQBrowser/6.8 TBS/036824 Safari/537.36 MicroMessenger/6.3.27.880 NetType/WIFI Language/zh_CN'
p178
sg16
S'f15a8d1bd88ffbaea754242ad33af05b'
p179
sa(dp180
g2
S'48855'
p181
sg4
S'979'
p182
sg6
S'716045ac0a643389933fb93fd735fce7'
p183
sg8
S'xx8cd226afa6d24cd2259521eec88cea02'
p184
sg10
S'xx0e27c2739a9e64e56e4cfb56ddfa318e'
p185
sg12
S'xx0a5cd9816c001af23c761742fd77e4cd'
p186
sg14
S'Mozilla/5.0 (Linux; Android 6.0.1; MI NOTE LTE Build/MMB29M) AppleWebKit/537.36 (KHTML, like Gecko) Version/4.0 Chrome/37.0.0.0 Mobile MQQBrowser/6.8 TBS/036824 Safari/537.36 MicroMessenger/6.3.27.880 NetType/WIFI Language/zh_CN'
p187
sg16
S'f15a8d1bd88ffbaea754242ad33af05b'
p188
sa(dp189
g2
S'48855'
p190
sg4
S'1047'
p191
sg6
S'716045ac0a643389933fb93fd735fce7'
p192
sg8
S'xx8cd226afa6d24cd2259521eec88cea02'
p193
sg10
S'xx0e27c2739a9e64e56e4cfb56ddfa318e'
p194
sg12
S'xx0a5cd9816c001af23c761742fd77e4cd'
p195
sg14
S'Mozilla/5.0 (Linux; Android 6.0.1; MI NOTE LTE Build/MMB29M) AppleWebKit/537.36 (KHTML, like Gecko) Version/4.0 Chrome/37.0.0.0 Mobile MQQBrowser/6.8 TBS/036824 Safari/537.36 MicroMessenger/6.3.27.880 NetType/WIFI Language/zh_CN'
p196
sg16
S'f15a8d1bd88ffbaea754242ad33af05b'
p197
sa(dp198
g2
S'48855'
p199
sg4
S'1066'
p200
sg6
S'716045ac0a643389933fb93fd735fce7'
p201
sg8
S'xx8cd226afa6d24cd2259521eec88cea02'
p202
sg10
S'xx0e27c2739a9e64e56e4cfb56ddfa318e'
p203
sg12
S'xx0a5cd9816c001af23c761742fd77e4cd'
p204
sg14
S'Mozilla/5.0 (Linux; Android 6.0.1; MI NOTE LTE Build/MMB29M) AppleWebKit/537.36 (KHTML, like Gecko) Version/4.0 Chrome/37.0.0.0 Mobile MQQBrowser/6.8 TBS/036824 Safari/537.36 MicroMessenger/6.3.27.880 NetType/WIFI Language/zh_CN'
p205
sg16
S'f15a8d1bd88ffbaea754242ad33af05b'
p206
sa(dp207
g2
S'48855'
p208
sg4
S'1084'
p209
sg6
S'716045ac0a643389933fb93fd735fce7'
p210
sg8
S'xx8cd226afa6d24cd2259521eec88cea02'
p211
sg10
S'xx0e27c2739a9e64e56e4cfb56ddfa318e'
p212
sg12
S'xx0a5cd9816c001af23c761742fd77e4cd'
p213
sg14
S'Mozilla/5.0 (Linux; Android 6.0.1; MI NOTE LTE Build/MMB29M) AppleWebKit/537.36 (KHTML, like Gecko) Version/4.0 Chrome/37.0.0.0 Mobile MQQBrowser/6.8 TBS/036824 Safari/537.36 MicroMessenger/6.3.27.880 NetType/WIFI Language/zh_CN'
p214
sg16
S'f15a8d1bd88ffbaea754242ad33af05b'
p215
sa(dp216
g2
S'48855'
p217
sg4
S'1101'
p218
sg6
S'716045ac0a643389933fb93fd735fce7'
p219
sg8
S'xx8cd226afa6d24cd2259521eec88cea02'
p220
sg10
S'xx0e27c2739a9e64e56e4cfb56ddfa318e'
p221
sg12
S'xx0a5cd9816c001af23c761742fd77e4cd'
p222
sg14
S'Mozilla/5.0 (Linux; Android 6.0.1; MI NOTE LTE Build/MMB29M) AppleWebKit/537.36 (KHTML, like Gecko) Version/4.0 Chrome/37.0.0.0 Mobile MQQBrowser/6.8 TBS/036824 Safari/537.36 MicroMessenger/6.3.27.880 NetType/WIFI Language/zh_CN'
p223
sg16
S'f15a8d1bd88ffbaea754242ad33af05b'
p224
sa(dp225
g2
S'48855'
p226
sg4
S'1117'
p227
sg6
S'716045ac0a643389933fb93fd735fce7'
p228
sg8
S'xx8cd226afa6d24cd2259521eec88cea02'
p229
sg10
S'xx0e27c2739a9e64e56e4cfb56ddfa318e'
p230
sg12
S'xx0a5cd9816c001af23c761742fd77e4cd'
p231
sg14
S'Mozilla/5.0 (Linux; Android 6.0.1; MI NOTE LTE Build/MMB29M) AppleWebKit/537.36 (KHTML, like Gecko) Version/4.0 Chrome/37.0.0.0 Mobile MQQBrowser/6.8 TBS/036824 Safari/537.36 MicroMessenger/6.3.27.880 NetType/WIFI Language/zh_CN'
p232
sg16
S'f15a8d1bd88ffbaea754242ad33af05b'
p233
sa(dp234
g2
S'48855'
p235
sg4
S'1135'
p236
sg6
S'716045ac0a643389933fb93fd735fce7'
p237
sg8
S'xx8cd226afa6d24cd2259521eec88cea02'
p238
sg10
S'xx0e27c2739a9e64e56e4cfb56ddfa318e'
p239
sg12
S'xx0a5cd9816c001af23c761742fd77e4cd'
p240
sg14
S'Mozilla/5.0 (Linux; Android 6.0.1; MI NOTE LTE Build/MMB29M) AppleWebKit/537.36 (KHTML, like Gecko) Version/4.0 Chrome/37.0.0.0 Mobile MQQBrowser/6.8 TBS/036824 Safari/537.36 MicroMessenger/6.3.27.880 NetType/WIFI Language/zh_CN'
p241
sg16
S'f15a8d1bd88ffbaea754242ad33af05b'
p242
sa(dp243
g2
S'48855'
p244
sg4
S'1153'
p245
sg6
S'716045ac0a643389933fb93fd735fce7'
p246
sg8
S'xx8cd226afa6d24cd2259521eec88cea02'
p247
sg10
S'xx0e27c2739a9e64e56e4cfb56ddfa318e'
p248
sg12
S'xx0a5cd9816c001af23c761742fd77e4cd'
p249
sg14
S'Mozilla/5.0 (Linux; Android 6.0.1; MI NOTE LTE Build/MMB29M) AppleWebKit/537.36 (KHTML, like Gecko) Version/4.0 Chrome/37.0.0.0 Mobile MQQBrowser/6.8 TBS/036824 Safari/537.36 MicroMessenger/6.3.27.880 NetType/WIFI Language/zh_CN'
p250
sg16
S'f15a8d1bd88ffbaea754242ad33af05b'
p251
sa(dp252
g2
S'48855'
p253
sg4
S'1170'
p254
sg6
S'716045ac0a643389933fb93fd735fce7'
p255
sg8
S'xx8cd226afa6d24cd2259521eec88cea02'
p256
sg10
S'xx0e27c2739a9e64e56e4cfb56ddfa318e'
p257
sg12
S'xx0a5cd9816c001af23c761742fd77e4cd'
p258
sg14
S'Mozilla/5.0 (Linux; Android 6.0.1; MI NOTE LTE Build/MMB29M) AppleWebKit/537.36 (KHTML, like Gecko) Version/4.0 Chrome/37.0.0.0 Mobile MQQBrowser/6.8 TBS/036824 Safari/537.36 MicroMessenger/6.3.27.880 NetType/WIFI Language/zh_CN'
p259
sg16
S'f15a8d1bd88ffbaea754242ad33af05b'
p260
sa(dp261
g2
S'48855'
p262
sg4
S'1341'
p263
sg6
S'716045ac0a643389933fb93fd735fce7'
p264
sg8
S'xx8cd226afa6d24cd2259521eec88cea02'
p265
sg10
S'xx0e27c2739a9e64e56e4cfb56ddfa318e'
p266
sg12
S'xx0a5cd9816c001af23c761742fd77e4cd'
p267
sg14
S'Mozilla/5.0 (Linux; Android 6.0.1; MI NOTE LTE Build/MMB29M) AppleWebKit/537.36 (KHTML, like Gecko) Version/4.0 Chrome/37.0.0.0 Mobile MQQBrowser/6.8 TBS/036824 Safari/537.36 MicroMessenger/6.3.27.880 NetType/WIFI Language/zh_CN'
p268
sg16
S'f15a8d1bd88ffbaea754242ad33af05b'
p269
sa(dp270
g2
S'48855'
p271
sg4
S'1352'
p272
sg6
S'716045ac0a643389933fb93fd735fce7'
p273
sg8
S'xx8cd226afa6d24cd2259521eec88cea02'
p274
sg10
S'xx0e27c2739a9e64e56e4cfb56ddfa318e'
p275
sg12
S'xx0a5cd9816c001af23c761742fd77e4cd'
p276
sg14
S'Mozilla/5.0 (Linux; Android 6.0.1; MI NOTE LTE Build/MMB29M) AppleWebKit/537.36 (KHTML, like Gecko) Version/4.0 Chrome/37.0.0.0 Mobile MQQBrowser/6.8 TBS/036824 Safari/537.36 MicroMessenger/6.3.27.880 NetType/WIFI Language/zh_CN'
p277
sg16
S'f15a8d1bd88ffbaea754242ad33af05b'
p278
sa(dp279
g2
S'48855'
p280
sg4
S'1431'
p281
sg6
S'716045ac0a643389933fb93fd735fce7'
p282
sg8
S'xx8cd226afa6d24cd2259521eec88cea02'
p283
sg10
S'xx0e27c2739a9e64e56e4cfb56ddfa318e'
p284
sg12
S'xx0a5cd9816c001af23c761742fd77e4cd'
p285
sg14
S'Mozilla/5.0 (Linux; Android 6.0.1; MI NOTE LTE Build/MMB29M) AppleWebKit/537.36 (KHTML, like Gecko) Version/4.0 Chrome/37.0.0.0 Mobile MQQBrowser/6.8 TBS/036824 Safari/537.36 MicroMessenger/6.3.27.880 NetType/WIFI Language/zh_CN'
p286
sg16
S'f15a8d1bd88ffbaea754242ad33af05b'
p287
sa(dp288
g2
S'48855'
p289
sg4
S'1494'
p290
sg6
S'716045ac0a643389933fb93fd735fce7'
p291
sg8
S'xx8cd226afa6d24cd2259521eec88cea02'
p292
sg10
S'xx0e27c2739a9e64e56e4cfb56ddfa318e'
p293
sg12
S'xx0a5cd9816c001af23c761742fd77e4cd'
p294
sg14
S'Mozilla/5.0 (Linux; Android 6.0.1; MI NOTE LTE Build/MMB29M) AppleWebKit/537.36 (KHTML, like Gecko) Version/4.0 Chrome/37.0.0.0 Mobile MQQBrowser/6.8 TBS/036824 Safari/537.36 MicroMessenger/6.3.27.880 NetType/WIFI Language/zh_CN'
p295
sg16
S'f15a8d1bd88ffbaea754242ad33af05b'
p296
sa(dp297
g2
S'48855'
p298
sg4
S'1510'
p299
sg6
S'716045ac0a643389933fb93fd735fce7'
p300
sg8
S'xx8cd226afa6d24cd2259521eec88cea02'
p301
sg10
S'xx0e27c2739a9e64e56e4cfb56ddfa318e'
p302
sg12
S'xx0a5cd9816c001af23c761742fd77e4cd'
p303
sg14
S'Mozilla/5.0 (Linux; Android 6.0.1; MI NOTE LTE Build/MMB29M) AppleWebKit/537.36 (KHTML, like Gecko) Version/4.0 Chrome/37.0.0.0 Mobile MQQBrowser/6.8 TBS/036824 Safari/537.36 MicroMessenger/6.3.27.880 NetType/WIFI Language/zh_CN'
p304
sg16
S'f15a8d1bd88ffbaea754242ad33af05b'
p305
sa(dp306
g2
S'48855'
p307
sg4
S'1547'
p308
sg6
S'716045ac0a643389933fb93fd735fce7'
p309
sg8
S'xx8cd226afa6d24cd2259521eec88cea02'
p310
sg10
S'xx0e27c2739a9e64e56e4cfb56ddfa318e'
p311
sg12
S'xx0a5cd9816c001af23c761742fd77e4cd'
p312
sg14
S'Mozilla/5.0 (Linux; Android 6.0.1; MI NOTE LTE Build/MMB29M) AppleWebKit/537.36 (KHTML, like Gecko) Version/4.0 Chrome/37.0.0.0 Mobile MQQBrowser/6.8 TBS/036824 Safari/537.36 MicroMessenger/6.3.27.880 NetType/WIFI Language/zh_CN'
p313
sg16
S'f15a8d1bd88ffbaea754242ad33af05b'
p314
sa(dp315
g2
S'48855'
p316
sg4
S'1559'
p317
sg6
S'716045ac0a643389933fb93fd735fce7'
p318
sg8
S'xx8cd226afa6d24cd2259521eec88cea02'
p319
sg10
S'xx0e27c2739a9e64e56e4cfb56ddfa318e'
p320
sg12
S'xx0a5cd9816c001af23c761742fd77e4cd'
p321
sg14
S'Mozilla/5.0 (Linux; Android 6.0.1; MI NOTE LTE Build/MMB29M) AppleWebKit/537.36 (KHTML, like Gecko) Version/4.0 Chrome/37.0.0.0 Mobile MQQBrowser/6.8 TBS/036824 Safari/537.36 MicroMessenger/6.3.27.880 NetType/WIFI Language/zh_CN'
p322
sg16
S'f15a8d1bd88ffbaea754242ad33af05b'
p323
sa(dp324
g2
S'48855'
p325
sg4
S'1577'
p326
sg6
S'716045ac0a643389933fb93fd735fce7'
p327
sg8
S'xx8cd226afa6d24cd2259521eec88cea02'
p328
sg10
S'xx0e27c2739a9e64e56e4cfb56ddfa318e'
p329
sg12
S'xx0a5cd9816c001af23c761742fd77e4cd'
p330
sg14
S'Mozilla/5.0 (Linux; Android 6.0.1; MI NOTE LTE Build/MMB29M) AppleWebKit/537.36 (KHTML, like Gecko) Version/4.0 Chrome/37.0.0.0 Mobile MQQBrowser/6.8 TBS/036824 Safari/537.36 MicroMessenger/6.3.27.880 NetType/WIFI Language/zh_CN'
p331
sg16
S'f15a8d1bd88ffbaea754242ad33af05b'
p332
sa(dp333
g2
S'48855'
p334
sg4
S'1595'
p335
sg6
S'716045ac0a643389933fb93fd735fce7'
p336
sg8
S'xx8cd226afa6d24cd2259521eec88cea02'
p337
sg10
S'xx0e27c2739a9e64e56e4cfb56ddfa318e'
p338
sg12
S'xx0a5cd9816c001af23c761742fd77e4cd'
p339
sg14
S'Mozilla/5.0 (Linux; Android 6.0.1; MI NOTE LTE Build/MMB29M) AppleWebKit/537.36 (KHTML, like Gecko) Version/4.0 Chrome/37.0.0.0 Mobile MQQBrowser/6.8 TBS/036824 Safari/537.36 MicroMessenger/6.3.27.880 NetType/WIFI Language/zh_CN'
p340
sg16
S'f15a8d1bd88ffbaea754242ad33af05b'
p341
sa(dp342
g2
S'48855'
p343
sg4
S'1612'
p344
sg6
S'716045ac0a643389933fb93fd735fce7'
p345
sg8
S'xx8cd226afa6d24cd2259521eec88cea02'
p346
sg10
S'xx0e27c2739a9e64e56e4cfb56ddfa318e'
p347
sg12
S'xx0a5cd9816c001af23c761742fd77e4cd'
p348
sg14
S'Mozilla/5.0 (Linux; Android 6.0.1; MI NOTE LTE Build/MMB29M) AppleWebKit/537.36 (KHTML, like Gecko) Version/4.0 Chrome/37.0.0.0 Mobile MQQBrowser/6.8 TBS/036824 Safari/537.36 MicroMessenger/6.3.27.880 NetType/WIFI Language/zh_CN'
p349
sg16
S'f15a8d1bd88ffbaea754242ad33af05b'
p350
sa(dp351
g2
S'48855'
p352
sg4
S'1626'
p353
sg6
S'716045ac0a643389933fb93fd735fce7'
p354
sg8
S'xx8cd226afa6d24cd2259521eec88cea02'
p355
sg10
S'xx0e27c2739a9e64e56e4cfb56ddfa318e'
p356
sg12
S'xx0a5cd9816c001af23c761742fd77e4cd'
p357
sg14
S'Mozilla/5.0 (Linux; Android 6.0.1; MI NOTE LTE Build/MMB29M) AppleWebKit/537.36 (KHTML, like Gecko) Version/4.0 Chrome/37.0.0.0 Mobile MQQBrowser/6.8 TBS/036824 Safari/537.36 MicroMessenger/6.3.27.880 NetType/WIFI Language/zh_CN'
p358
sg16
S'f15a8d1bd88ffbaea754242ad33af05b'
p359
sa(dp360
g2
S'48855'
p361
sg4
S'1638'
p362
sg6
S'716045ac0a643389933fb93fd735fce7'
p363
sg8
S'xx8cd226afa6d24cd2259521eec88cea02'
p364
sg10
S'xx0e27c2739a9e64e56e4cfb56ddfa318e'
p365
sg12
S'xx0a5cd9816c001af23c761742fd77e4cd'
p366
sg14
S'Mozilla/5.0 (Linux; Android 6.0.1; MI NOTE LTE Build/MMB29M) AppleWebKit/537.36 (KHTML, like Gecko) Version/4.0 Chrome/37.0.0.0 Mobile MQQBrowser/6.8 TBS/036824 Safari/537.36 MicroMessenger/6.3.27.880 NetType/WIFI Language/zh_CN'
p367
sg16
S'f15a8d1bd88ffbaea754242ad33af05b'
p368
sa(dp369
g2
S'48855'
p370
sg4
S'1648'
p371
sg6
S'716045ac0a643389933fb93fd735fce7'
p372
sg8
S'xx8cd226afa6d24cd2259521eec88cea02'
p373
sg10
S'xx0e27c2739a9e64e56e4cfb56ddfa318e'
p374
sg12
S'xx0a5cd9816c001af23c761742fd77e4cd'
p375
sg14
S'Mozilla/5.0 (Linux; Android 6.0.1; MI NOTE LTE Build/MMB29M) AppleWebKit/537.36 (KHTML, like Gecko) Version/4.0 Chrome/37.0.0.0 Mobile MQQBrowser/6.8 TBS/036824 Safari/537.36 MicroMessenger/6.3.27.880 NetType/WIFI Language/zh_CN'
p376
sg16
S'f15a8d1bd88ffbaea754242ad33af05b'
p377
sa(dp378
g2
S'48855'
p379
sg4
S'1701'
p380
sg6
S'716045ac0a643389933fb93fd735fce7'
p381
sg8
S'xx8cd226afa6d24cd2259521eec88cea02'
p382
sg10
S'xx0e27c2739a9e64e56e4cfb56ddfa318e'
p383
sg12
S'xx0a5cd9816c001af23c761742fd77e4cd'
p384
sg14
S'Mozilla/5.0 (Linux; Android 6.0.1; MI NOTE LTE Build/MMB29M) AppleWebKit/537.36 (KHTML, like Gecko) Version/4.0 Chrome/37.0.0.0 Mobile MQQBrowser/6.8 TBS/036824 Safari/537.36 MicroMessenger/6.3.27.880 NetType/WIFI Language/zh_CN'
p385
sg16
S'f15a8d1bd88ffbaea754242ad33af05b'
p386
sa(dp387
g2
S'48855'
p388
sg4
S'1787'
p389
sg6
S'716045ac0a643389933fb93fd735fce7'
p390
sg8
S'xx8cd226afa6d24cd2259521eec88cea02'
p391
sg10
S'xx0e27c2739a9e64e56e4cfb56ddfa318e'
p392
sg12
S'xx0a5cd9816c001af23c761742fd77e4cd'
p393
sg14
S'Mozilla/5.0 (Linux; Android 6.0.1; MI NOTE LTE Build/MMB29M) AppleWebKit/537.36 (KHTML, like Gecko) Version/4.0 Chrome/37.0.0.0 Mobile MQQBrowser/6.8 TBS/036824 Safari/537.36 MicroMessenger/6.3.27.880 NetType/WIFI Language/zh_CN'
p394
sg16
S'f15a8d1bd88ffbaea754242ad33af05b'
p395
sa(dp396
g2
S'48855'
p397
sg4
S'1801'
p398
sg6
S'716045ac0a643389933fb93fd735fce7'
p399
sg8
S'xx8cd226afa6d24cd2259521eec88cea02'
p400
sg10
S'xx0e27c2739a9e64e56e4cfb56ddfa318e'
p401
sg12
S'xx0a5cd9816c001af23c761742fd77e4cd'
p402
sg14
S'Mozilla/5.0 (Linux; Android 6.0.1; MI NOTE LTE Build/MMB29M) AppleWebKit/537.36 (KHTML, like Gecko) Version/4.0 Chrome/37.0.0.0 Mobile MQQBrowser/6.8 TBS/036824 Safari/537.36 MicroMessenger/6.3.27.880 NetType/WIFI Language/zh_CN'
p403
sg16
S'f15a8d1bd88ffbaea754242ad33af05b'
p404
sa(dp405
g2
S'48855'
p406
sg4
S'1850'
p407
sg6
S'716045ac0a643389933fb93fd735fce7'
p408
sg8
S'xx8cd226afa6d24cd2259521eec88cea02'
p409
sg10
S'xx0e27c2739a9e64e56e4cfb56ddfa318e'
p410
sg12
S'xx0a5cd9816c001af23c761742fd77e4cd'
p411
sg14
S'Mozilla/5.0 (Linux; Android 6.0.1; MI NOTE LTE Build/MMB29M) AppleWebKit/537.36 (KHTML, like Gecko) Version/4.0 Chrome/37.0.0.0 Mobile MQQBrowser/6.8 TBS/036824 Safari/537.36 MicroMessenger/6.3.27.880 NetType/WIFI Language/zh_CN'
p412
sg16
S'f15a8d1bd88ffbaea754242ad33af05b'
p413
sa(dp414
g2
S'48855'
p415
sg4
S'1860'
p416
sg6
S'716045ac0a643389933fb93fd735fce7'
p417
sg8
S'xx8cd226afa6d24cd2259521eec88cea02'
p418
sg10
S'xx0e27c2739a9e64e56e4cfb56ddfa318e'
p419
sg12
S'xx0a5cd9816c001af23c761742fd77e4cd'
p420
sg14
S'Mozilla/5.0 (Linux; Android 6.0.1; MI NOTE LTE Build/MMB29M) AppleWebKit/537.36 (KHTML, like Gecko) Version/4.0 Chrome/37.0.0.0 Mobile MQQBrowser/6.8 TBS/036824 Safari/537.36 MicroMessenger/6.3.27.880 NetType/WIFI Language/zh_CN'
p421
sg16
S'f15a8d1bd88ffbaea754242ad33af05b'
p422
sa(dp423
g2
S'48855'
p424
sg4
S'1874'
p425
sg6
S'716045ac0a643389933fb93fd735fce7'
p426
sg8
S'xx8cd226afa6d24cd2259521eec88cea02'
p427
sg10
S'xx0e27c2739a9e64e56e4cfb56ddfa318e'
p428
sg12
S'xx0a5cd9816c001af23c761742fd77e4cd'
p429
sg14
S'Mozilla/5.0 (Linux; Android 6.0.1; MI NOTE LTE Build/MMB29M) AppleWebKit/537.36 (KHTML, like Gecko) Version/4.0 Chrome/37.0.0.0 Mobile MQQBrowser/6.8 TBS/036824 Safari/537.36 MicroMessenger/6.3.27.880 NetType/WIFI Language/zh_CN'
p430
sg16
S'f15a8d1bd88ffbaea754242ad33af05b'
p431
sa(dp432
g2
S'48855'
p433
sg4
S'2270'
p434
sg6
S'716045ac0a643389933fb93fd735fce7'
p435
sg8
S'xx8cd226afa6d24cd2259521eec88cea02'
p436
sg10
S'xx0e27c2739a9e64e56e4cfb56ddfa318e'
p437
sg12
S'xx0a5cd9816c001af23c761742fd77e4cd'
p438
sg14
S'Mozilla/5.0 (Linux; Android 6.0.1; MI NOTE LTE Build/MMB29M) AppleWebKit/537.36 (KHTML, like Gecko) Version/4.0 Chrome/37.0.0.0 Mobile MQQBrowser/6.8 TBS/036824 Safari/537.36 MicroMessenger/6.3.27.880 NetType/WIFI Language/zh_CN'
p439
sg16
S'f15a8d1bd88ffbaea754242ad33af05b'
p440
sa(dp441
g2
S'48855'
p442
sg4
S'2283'
p443
sg6
S'716045ac0a643389933fb93fd735fce7'
p444
sg8
S'xx8cd226afa6d24cd2259521eec88cea02'
p445
sg10
S'xx0e27c2739a9e64e56e4cfb56ddfa318e'
p446
sg12
S'xx0a5cd9816c001af23c761742fd77e4cd'
p447
sg14
S'Mozilla/5.0 (Linux; Android 6.0.1; MI NOTE LTE Build/MMB29M) AppleWebKit/537.36 (KHTML, like Gecko) Version/4.0 Chrome/37.0.0.0 Mobile MQQBrowser/6.8 TBS/036824 Safari/537.36 MicroMessenger/6.3.27.880 NetType/WIFI Language/zh_CN'
p448
sg16
S'f15a8d1bd88ffbaea754242ad33af05b'
p449
sa(dp450
g2
S'48855'
p451
sg4
S'2510'
p452
sg6
S'716045ac0a643389933fb93fd735fce7'
p453
sg8
S'xx8cd226afa6d24cd2259521eec88cea02'
p454
sg10
S'xx0e27c2739a9e64e56e4cfb56ddfa318e'
p455
sg12
S'xx0a5cd9816c001af23c761742fd77e4cd'
p456
sg14
S'Mozilla/5.0 (Linux; Android 6.0.1; MI NOTE LTE Build/MMB29M) AppleWebKit/537.36 (KHTML, like Gecko) Version/4.0 Chrome/37.0.0.0 Mobile MQQBrowser/6.8 TBS/036824 Safari/537.36 MicroMessenger/6.3.27.880 NetType/WIFI Language/zh_CN'
p457
sg16
S'f15a8d1bd88ffbaea754242ad33af05b'
p458
sa(dp459
g2
S'48855'
p460
sg4
S'2532'
p461
sg6
S'716045ac0a643389933fb93fd735fce7'
p462
sg8
S'xx8cd226afa6d24cd2259521eec88cea02'
p463
sg10
S'xx0e27c2739a9e64e56e4cfb56ddfa318e'
p464
sg12
S'xx0a5cd9816c001af23c761742fd77e4cd'
p465
sg14
S'Mozilla/5.0 (Linux; Android 6.0.1; MI NOTE LTE Build/MMB29M) AppleWebKit/537.36 (KHTML, like Gecko) Version/4.0 Chrome/37.0.0.0 Mobile MQQBrowser/6.8 TBS/036824 Safari/537.36 MicroMessenger/6.3.27.880 NetType/WIFI Language/zh_CN'
p466
sg16
S'f15a8d1bd88ffbaea754242ad33af05b'
p467
sa(dp468
g2
S'48855'
p469
sg4
S'2542'
p470
sg6
S'716045ac0a643389933fb93fd735fce7'
p471
sg8
S'xx8cd226afa6d24cd2259521eec88cea02'
p472
sg10
S'xx0e27c2739a9e64e56e4cfb56ddfa318e'
p473
sg12
S'xx0a5cd9816c001af23c761742fd77e4cd'
p474
sg14
S'Mozilla/5.0 (Linux; Android 6.0.1; MI NOTE LTE Build/MMB29M) AppleWebKit/537.36 (KHTML, like Gecko) Version/4.0 Chrome/37.0.0.0 Mobile MQQBrowser/6.8 TBS/036824 Safari/537.36 MicroMessenger/6.3.27.880 NetType/WIFI Language/zh_CN'
p475
sg16
S'f15a8d1bd88ffbaea754242ad33af05b'
p476
sa(dp477
g2
S'48855'
p478
sg4
S'2809'
p479
sg6
S'716045ac0a643389933fb93fd735fce7'
p480
sg8
S'xx8cd226afa6d24cd2259521eec88cea02'
p481
sg10
S'xx0e27c2739a9e64e56e4cfb56ddfa318e'
p482
sg12
S'xx0a5cd9816c001af23c761742fd77e4cd'
p483
sg14
S'Mozilla/5.0 (Linux; Android 6.0.1; MI NOTE LTE Build/MMB29M) AppleWebKit/537.36 (KHTML, like Gecko) Version/4.0 Chrome/37.0.0.0 Mobile MQQBrowser/6.8 TBS/036824 Safari/537.36 MicroMessenger/6.3.27.880 NetType/WIFI Language/zh_CN'
p484
sg16
S'f15a8d1bd88ffbaea754242ad33af05b'
p485
sa(dp486
g2
S'48855'
p487
sg4
S'2823'
p488
sg6
S'716045ac0a643389933fb93fd735fce7'
p489
sg8
S'xx8cd226afa6d24cd2259521eec88cea02'
p490
sg10
S'xx0e27c2739a9e64e56e4cfb56ddfa318e'
p491
sg12
S'xx0a5cd9816c001af23c761742fd77e4cd'
p492
sg14
S'Mozilla/5.0 (Linux; Android 6.0.1; MI NOTE LTE Build/MMB29M) AppleWebKit/537.36 (KHTML, like Gecko) Version/4.0 Chrome/37.0.0.0 Mobile MQQBrowser/6.8 TBS/036824 Safari/537.36 MicroMessenger/6.3.27.880 NetType/WIFI Language/zh_CN'
p493
sg16
S'f15a8d1bd88ffbaea754242ad33af05b'
p494
sa(dp495
g2
S'48855'
p496
sg4
S'3298'
p497
sg6
S'716045ac0a643389933fb93fd735fce7'
p498
sg8
S'xx8cd226afa6d24cd2259521eec88cea02'
p499
sg10
S'xx0e27c2739a9e64e56e4cfb56ddfa318e'
p500
sg12
S'xx0a5cd9816c001af23c761742fd77e4cd'
p501
sg14
S'Mozilla/5.0 (Linux; Android 6.0.1; MI NOTE LTE Build/MMB29M) AppleWebKit/537.36 (KHTML, like Gecko) Version/4.0 Chrome/37.0.0.0 Mobile MQQBrowser/6.8 TBS/036824 Safari/537.36 MicroMessenger/6.3.27.880 NetType/WIFI Language/zh_CN'
p502
sg16
S'f15a8d1bd88ffbaea754242ad33af05b'
p503
sa(dp504
g2
S'48855'
p505
sg4
S'3308'
p506
sg6
S'716045ac0a643389933fb93fd735fce7'
p507
sg8
S'xx8cd226afa6d24cd2259521eec88cea02'
p508
sg10
S'xx0e27c2739a9e64e56e4cfb56ddfa318e'
p509
sg12
S'xx0a5cd9816c001af23c761742fd77e4cd'
p510
sg14
S'Mozilla/5.0 (Linux; Android 6.0.1; MI NOTE LTE Build/MMB29M) AppleWebKit/537.36 (KHTML, like Gecko) Version/4.0 Chrome/37.0.0.0 Mobile MQQBrowser/6.8 TBS/036824 Safari/537.36 MicroMessenger/6.3.27.880 NetType/WIFI Language/zh_CN'
p511
sg16
S'f15a8d1bd88ffbaea754242ad33af05b'
p512
sa(dp513
g2
S'37370'
p514
sg4
S'6621'
p515
sg6
S'567a48f383bf8ae54546d6f84c4dd08c'
p516
sg8
S'xx8cd226afa6d24cd2259521eec88cea02'
p517
sg10
S'xx0e27c2739a9e64e56e4cfb56ddfa318e'
p518
sg12
S'xx0a5cd9816c001af23c761742fd77e4cd'
p519
sg14
S'Mozilla/5.0 (Linux; Android 6.0.1; MI NOTE LTE Build/MMB29M) AppleWebKit/537.36 (KHTML, like Gecko) Version/4.0 Chrome/37.0.0.0 Mobile MQQBrowser/6.8 TBS/036824 Safari/537.36 MicroMessenger/6.3.27.880 NetType/WIFI Language/zh_CN'
p520
sg16
S'f15a8d1bd88ffbaea754242ad33af05b'
p521
sa(dp522
g2
S'37370'
p523
sg4
S'6637'
p524
sg6
S'567a48f383bf8ae54546d6f84c4dd08c'
p525
sg8
S'xx8cd226afa6d24cd2259521eec88cea02'
p526
sg10
S'xx0e27c2739a9e64e56e4cfb56ddfa318e'
p527
sg12
S'xx0a5cd9816c001af23c761742fd77e4cd'
p528
sg14
S'Mozilla/5.0 (Linux; Android 6.0.1; MI NOTE LTE Build/MMB29M) AppleWebKit/537.36 (KHTML, like Gecko) Version/4.0 Chrome/37.0.0.0 Mobile MQQBrowser/6.8 TBS/036824 Safari/537.36 MicroMessenger/6.3.27.880 NetType/WIFI Language/zh_CN'
p529
sg16
S'f15a8d1bd88ffbaea754242ad33af05b'
p530
sa.