(lp0
(dp1
S'user_id'
p2
S'44517'
p3
sS'data_id'
p4
S'4131'
p5
sS'ip'
p6
S'c4c0a6a204d535761a4c01bcc47331e3'
p7
sS'phone_B'
p8
S'xx8d646bea8bf8ec156c36ab73fd203a2f'
p9
sS'phone_C'
p10
S'xx467da043853f9b80d15d2fbbc1107bdb'
p11
sS'phone_A'
p12
S'xx0d0b8d04d6e9f2f16b5a53080290205b'
p13
sS'user_agent'
p14
S'Mozilla/5.0 (Linux; Android 5.1.1; vivo Xplay5A Build/LMY47V) AppleWebKit/537.36 (KHTML, like Gecko) Version/4.0 Chrome/37.0.0.0 Mobile MQQBrowser/6.8 TBS/036865 Safari/537.36 MicroMessenger/6.3.27.880 NetType/WIFI Language/zh_CN'
p15
sS'ua'
p16
S'04e71dbc5043d7c734b37bbe0531c8e8'
p17
sa(dp18
g2
S'44517'
p19
sg4
S'4156'
p20
sg6
S'c4c0a6a204d535761a4c01bcc47331e3'
p21
sg8
S'xx8d646bea8bf8ec156c36ab73fd203a2f'
p22
sg10
S'xx467da043853f9b80d15d2fbbc1107bdb'
p23
sg12
S'xx0d0b8d04d6e9f2f16b5a53080290205b'
p24
sg14
S'Mozilla/5.0 (Linux; Android 5.1.1; vivo Xplay5A Build/LMY47V) AppleWebKit/537.36 (KHTML, like Gecko) Version/4.0 Chrome/37.0.0.0 Mobile MQQBrowser/6.8 TBS/036865 Safari/537.36 MicroMessenger/6.3.27.880 NetType/WIFI Language/zh_CN'
p25
sg16
S'04e71dbc5043d7c734b37bbe0531c8e8'
p26
sa(dp27
g2
S'44517'
p28
sg4
S'4174'
p29
sg6
S'c4c0a6a204d535761a4c01bcc47331e3'
p30
sg8
S'xx8d646bea8bf8ec156c36ab73fd203a2f'
p31
sg10
S'xx467da043853f9b80d15d2fbbc1107bdb'
p32
sg12
S'xx0d0b8d04d6e9f2f16b5a53080290205b'
p33
sg14
S'Mozilla/5.0 (Linux; Android 5.1.1; vivo Xplay5A Build/LMY47V) AppleWebKit/537.36 (KHTML, like Gecko) Version/4.0 Chrome/37.0.0.0 Mobile MQQBrowser/6.8 TBS/036865 Safari/537.36 MicroMessenger/6.3.27.880 NetType/WIFI Language/zh_CN'
p34
sg16
S'04e71dbc5043d7c734b37bbe0531c8e8'
p35
sa(dp36
g2
S'44517'
p37
sg4
S'4188'
p38
sg6
S'c4c0a6a204d535761a4c01bcc47331e3'
p39
sg8
S'xx8d646bea8bf8ec156c36ab73fd203a2f'
p40
sg10
S'xx467da043853f9b80d15d2fbbc1107bdb'
p41
sg12
S'xx0d0b8d04d6e9f2f16b5a53080290205b'
p42
sg14
S'Mozilla/5.0 (Linux; Android 5.1.1; vivo Xplay5A Build/LMY47V) AppleWebKit/537.36 (KHTML, like Gecko) Version/4.0 Chrome/37.0.0.0 Mobile MQQBrowser/6.8 TBS/036865 Safari/537.36 MicroMessenger/6.3.27.880 NetType/WIFI Language/zh_CN'
p43
sg16
S'04e71dbc5043d7c734b37bbe0531c8e8'
p44
sa(dp45
g2
S'44517'
p46
sg4
S'4214'
p47
sg6
S'c4c0a6a204d535761a4c01bcc47331e3'
p48
sg8
S'xx8d646bea8bf8ec156c36ab73fd203a2f'
p49
sg10
S'xx467da043853f9b80d15d2fbbc1107bdb'
p50
sg12
S'xx0d0b8d04d6e9f2f16b5a53080290205b'
p51
sg14
S'Mozilla/5.0 (Linux; Android 5.1.1; vivo Xplay5A Build/LMY47V) AppleWebKit/537.36 (KHTML, like Gecko) Version/4.0 Chrome/37.0.0.0 Mobile MQQBrowser/6.8 TBS/036865 Safari/537.36 MicroMessenger/6.3.27.880 NetType/WIFI Language/zh_CN'
p52
sg16
S'04e71dbc5043d7c734b37bbe0531c8e8'
p53
sa(dp54
g2
S'44517'
p55
sg4
S'4238'
p56
sg6
S'c4c0a6a204d535761a4c01bcc47331e3'
p57
sg8
S'xx8d646bea8bf8ec156c36ab73fd203a2f'
p58
sg10
S'xx467da043853f9b80d15d2fbbc1107bdb'
p59
sg12
S'xx0d0b8d04d6e9f2f16b5a53080290205b'
p60
sg14
S'Mozilla/5.0 (Linux; Android 5.1.1; vivo Xplay5A Build/LMY47V) AppleWebKit/537.36 (KHTML, like Gecko) Version/4.0 Chrome/37.0.0.0 Mobile MQQBrowser/6.8 TBS/036865 Safari/537.36 MicroMessenger/6.3.27.880 NetType/WIFI Language/zh_CN'
p61
sg16
S'04e71dbc5043d7c734b37bbe0531c8e8'
p62
sa(dp63
g2
S'44517'
p64
sg4
S'4263'
p65
sg6
S'c4c0a6a204d535761a4c01bcc47331e3'
p66
sg8
S'xx8d646bea8bf8ec156c36ab73fd203a2f'
p67
sg10
S'xx467da043853f9b80d15d2fbbc1107bdb'
p68
sg12
S'xx0d0b8d04d6e9f2f16b5a53080290205b'
p69
sg14
S'Mozilla/5.0 (Linux; Android 5.1.1; vivo Xplay5A Build/LMY47V) AppleWebKit/537.36 (KHTML, like Gecko) Version/4.0 Chrome/37.0.0.0 Mobile MQQBrowser/6.8 TBS/036865 Safari/537.36 MicroMessenger/6.3.27.880 NetType/WIFI Language/zh_CN'
p70
sg16
S'04e71dbc5043d7c734b37bbe0531c8e8'
p71
sa(dp72
g2
S'44517'
p73
sg4
S'4284'
p74
sg6
S'c4c0a6a204d535761a4c01bcc47331e3'
p75
sg8
S'xx8d646bea8bf8ec156c36ab73fd203a2f'
p76
sg10
S'xx467da043853f9b80d15d2fbbc1107bdb'
p77
sg12
S'xx0d0b8d04d6e9f2f16b5a53080290205b'
p78
sg14
S'Mozilla/5.0 (Linux; Android 5.1.1; vivo Xplay5A Build/LMY47V) AppleWebKit/537.36 (KHTML, like Gecko) Version/4.0 Chrome/37.0.0.0 Mobile MQQBrowser/6.8 TBS/036865 Safari/537.36 MicroMessenger/6.3.27.880 NetType/WIFI Language/zh_CN'
p79
sg16
S'04e71dbc5043d7c734b37bbe0531c8e8'
p80
sa.