(lp0
(dp1
S'user_id'
p2
S'46368'
p3
sS'data_id'
p4
S'3'
p5
sS'ip'
p6
S'5b48c78089c6f21a864d9e71cbaf0c9d'
p7
sS'phone_B'
p8
S'xx6624824b3125246ce459a89e2b136524'
p9
sS'phone_C'
p10
S'xxa1eddb067d69156b5a420a68e90e67cd'
p11
sS'phone_A'
p12
S'xx1011b6f016676dcb23369c6891f867ff'
p13
sS'user_agent'
p14
S'Mozilla/5.0 (Linux; Android 4.4.2; 2014501 Build/KOT49H) AppleWebKit/537.36 (KHTML, like Gecko) Version/4.0 Chrome/37.0.0.0 Mobile MQQBrowser/6.8 TBS/036865 Safari/537.36 MicroMessenger/6.3.27.880 NetType/WIFI Language/zh_CN'
p15
sS'ua'
p16
S'43a67fe540fa06c10e828faf1e889394'
p17
sa(dp18
g2
S'46368'
p19
sg4
S'12'
p20
sg6
S'5b48c78089c6f21a864d9e71cbaf0c9d'
p21
sg8
S'xx6624824b3125246ce459a89e2b136524'
p22
sg10
S'xxa1eddb067d69156b5a420a68e90e67cd'
p23
sg12
S'xx1011b6f016676dcb23369c6891f867ff'
p24
sg14
S'Mozilla/5.0 (Linux; Android 4.4.2; 2014501 Build/KOT49H) AppleWebKit/537.36 (KHTML, like Gecko) Version/4.0 Chrome/37.0.0.0 Mobile MQQBrowser/6.8 TBS/036865 Safari/537.36 MicroMessenger/6.3.27.880 NetType/WIFI Language/zh_CN'
p25
sg16
S'43a67fe540fa06c10e828faf1e889394'
p26
sa(dp27
g2
S'46368'
p28
sg4
S'24'
p29
sg6
S'5b48c78089c6f21a864d9e71cbaf0c9d'
p30
sg8
S'xx6624824b3125246ce459a89e2b136524'
p31
sg10
S'xxa1eddb067d69156b5a420a68e90e67cd'
p32
sg12
S'xx1011b6f016676dcb23369c6891f867ff'
p33
sg14
S'Mozilla/5.0 (Linux; Android 4.4.2; 2014501 Build/KOT49H) AppleWebKit/537.36 (KHTML, like Gecko) Version/4.0 Chrome/37.0.0.0 Mobile MQQBrowser/6.8 TBS/036865 Safari/537.36 MicroMessenger/6.3.27.880 NetType/WIFI Language/zh_CN'
p34
sg16
S'43a67fe540fa06c10e828faf1e889394'
p35
sa(dp36
g2
S'46368'
p37
sg4
S'35'
p38
sg6
S'5b48c78089c6f21a864d9e71cbaf0c9d'
p39
sg8
S'xx6624824b3125246ce459a89e2b136524'
p40
sg10
S'xxa1eddb067d69156b5a420a68e90e67cd'
p41
sg12
S'xx1011b6f016676dcb23369c6891f867ff'
p42
sg14
S'Mozilla/5.0 (Linux; Android 4.4.2; 2014501 Build/KOT49H) AppleWebKit/537.36 (KHTML, like Gecko) Version/4.0 Chrome/37.0.0.0 Mobile MQQBrowser/6.8 TBS/036865 Safari/537.36 MicroMessenger/6.3.27.880 NetType/WIFI Language/zh_CN'
p43
sg16
S'43a67fe540fa06c10e828faf1e889394'
p44
sa(dp45
g2
S'46368'
p46
sg4
S'131'
p47
sg6
S'438d58b6cfbee48006a9bc087237f75a'
p48
sg8
S'xxc81ed5840439af5c57271779b6652ab8'
p49
sg10
S'xxa1eddb067d69156b5a420a68e90e67cd'
p50
sg12
S'xx1011b6f016676dcb23369c6891f867ff'
p51
sg14
S'Mozilla/5.0 (Linux; Android 4.4.2; 2014501 Build/KOT49H) AppleWebKit/537.36 (KHTML, like Gecko) Version/4.0 Chrome/37.0.0.0 Mobile MQQBrowser/6.8 TBS/036869 Safari/537.36 MicroMessenger/6.3.27.880 NetType/WIFI Language/zh_CN'
p52
sg16
S'9061f7b601e438042d449f25a294de59'
p53
sa(dp54
g2
S'46368'
p55
sg4
S'144'
p56
sg6
S'438d58b6cfbee48006a9bc087237f75a'
p57
sg8
S'xxc81ed5840439af5c57271779b6652ab8'
p58
sg10
S'xxa1eddb067d69156b5a420a68e90e67cd'
p59
sg12
S'xx1011b6f016676dcb23369c6891f867ff'
p60
sg14
S'Mozilla/5.0 (Linux; Android 4.4.2; 2014501 Build/KOT49H) AppleWebKit/537.36 (KHTML, like Gecko) Version/4.0 Chrome/37.0.0.0 Mobile MQQBrowser/6.8 TBS/036869 Safari/537.36 MicroMessenger/6.3.27.880 NetType/WIFI Language/zh_CN'
p61
sg16
S'9061f7b601e438042d449f25a294de59'
p62
sa(dp63
g2
S'46368'
p64
sg4
S'157'
p65
sg6
S'438d58b6cfbee48006a9bc087237f75a'
p66
sg8
S'xxc81ed5840439af5c57271779b6652ab8'
p67
sg10
S'xxa1eddb067d69156b5a420a68e90e67cd'
p68
sg12
S'xx1011b6f016676dcb23369c6891f867ff'
p69
sg14
S'Mozilla/5.0 (Linux; Android 4.4.2; 2014501 Build/KOT49H) AppleWebKit/537.36 (KHTML, like Gecko) Version/4.0 Chrome/37.0.0.0 Mobile MQQBrowser/6.8 TBS/036869 Safari/537.36 MicroMessenger/6.3.27.880 NetType/WIFI Language/zh_CN'
p70
sg16
S'9061f7b601e438042d449f25a294de59'
p71
sa(dp72
g2
S'46368'
p73
sg4
S'194'
p74
sg6
S'438d58b6cfbee48006a9bc087237f75a'
p75
sg8
S'xxc81ed5840439af5c57271779b6652ab8'
p76
sg10
S'xxa1eddb067d69156b5a420a68e90e67cd'
p77
sg12
S'xx1011b6f016676dcb23369c6891f867ff'
p78
sg14
S'Mozilla/5.0 (Linux; Android 4.4.2; 2014501 Build/KOT49H) AppleWebKit/537.36 (KHTML, like Gecko) Version/4.0 Chrome/37.0.0.0 Mobile MQQBrowser/6.8 TBS/036869 Safari/537.36 MicroMessenger/6.3.27.880 NetType/WIFI Language/zh_CN'
p79
sg16
S'9061f7b601e438042d449f25a294de59'
p80
sa(dp81
g2
S'46368'
p82
sg4
S'207'
p83
sg6
S'438d58b6cfbee48006a9bc087237f75a'
p84
sg8
S'xxc81ed5840439af5c57271779b6652ab8'
p85
sg10
S'xxa1eddb067d69156b5a420a68e90e67cd'
p86
sg12
S'xx1011b6f016676dcb23369c6891f867ff'
p87
sg14
S'Mozilla/5.0 (Linux; Android 4.4.2; 2014501 Build/KOT49H) AppleWebKit/537.36 (KHTML, like Gecko) Version/4.0 Chrome/37.0.0.0 Mobile MQQBrowser/6.8 TBS/036869 Safari/537.36 MicroMessenger/6.3.27.880 NetType/WIFI Language/zh_CN'
p88
sg16
S'9061f7b601e438042d449f25a294de59'
p89
sa(dp90
g2
S'46368'
p91
sg4
S'217'
p92
sg6
S'438d58b6cfbee48006a9bc087237f75a'
p93
sg8
S'xxc81ed5840439af5c57271779b6652ab8'
p94
sg10
S'xxa1eddb067d69156b5a420a68e90e67cd'
p95
sg12
S'xx1011b6f016676dcb23369c6891f867ff'
p96
sg14
S'Mozilla/5.0 (Linux; Android 4.4.2; 2014501 Build/KOT49H) AppleWebKit/537.36 (KHTML, like Gecko) Version/4.0 Chrome/37.0.0.0 Mobile MQQBrowser/6.8 TBS/036869 Safari/537.36 MicroMessenger/6.3.27.880 NetType/WIFI Language/zh_CN'
p97
sg16
S'9061f7b601e438042d449f25a294de59'
p98
sa(dp99
g2
S'46368'
p100
sg4
S'226'
p101
sg6
S'438d58b6cfbee48006a9bc087237f75a'
p102
sg8
S'xxc81ed5840439af5c57271779b6652ab8'
p103
sg10
S'xxa1eddb067d69156b5a420a68e90e67cd'
p104
sg12
S'xx1011b6f016676dcb23369c6891f867ff'
p105
sg14
S'Mozilla/5.0 (Linux; Android 4.4.2; 2014501 Build/KOT49H) AppleWebKit/537.36 (KHTML, like Gecko) Version/4.0 Chrome/37.0.0.0 Mobile MQQBrowser/6.8 TBS/036869 Safari/537.36 MicroMessenger/6.3.27.880 NetType/WIFI Language/zh_CN'
p106
sg16
S'9061f7b601e438042d449f25a294de59'
p107
sa(dp108
g2
S'46368'
p109
sg4
S'238'
p110
sg6
S'438d58b6cfbee48006a9bc087237f75a'
p111
sg8
S'xxc81ed5840439af5c57271779b6652ab8'
p112
sg10
S'xxa1eddb067d69156b5a420a68e90e67cd'
p113
sg12
S'xx1011b6f016676dcb23369c6891f867ff'
p114
sg14
S'Mozilla/5.0 (Linux; Android 4.4.2; 2014501 Build/KOT49H) AppleWebKit/537.36 (KHTML, like Gecko) Version/4.0 Chrome/37.0.0.0 Mobile MQQBrowser/6.8 TBS/036869 Safari/537.36 MicroMessenger/6.3.27.880 NetType/WIFI Language/zh_CN'
p115
sg16
S'9061f7b601e438042d449f25a294de59'
p116
sa(dp117
g2
S'46368'
p118
sg4
S'249'
p119
sg6
S'438d58b6cfbee48006a9bc087237f75a'
p120
sg8
S'xxc81ed5840439af5c57271779b6652ab8'
p121
sg10
S'xxa1eddb067d69156b5a420a68e90e67cd'
p122
sg12
S'xx1011b6f016676dcb23369c6891f867ff'
p123
sg14
S'Mozilla/5.0 (Linux; Android 4.4.2; 2014501 Build/KOT49H) AppleWebKit/537.36 (KHTML, like Gecko) Version/4.0 Chrome/37.0.0.0 Mobile MQQBrowser/6.8 TBS/036869 Safari/537.36 MicroMessenger/6.3.27.880 NetType/WIFI Language/zh_CN'
p124
sg16
S'9061f7b601e438042d449f25a294de59'
p125
sa(dp126
g2
S'24969'
p127
sg4
S'255'
p128
sg6
S'a5b44b593f8f8dbc9d4ef18a119f70cf'
p129
sg8
S'xxef34f79277a861144535087ba570315c'
p130
sg10
S'xxa1eddb067d69156b5a420a68e90e67cd'
p131
sg12
S'xx1011b6f016676dcb23369c6891f867ff'
p132
sg14
S'Mozilla/5.0 (Linux; Android 4.4.2; 2014501 Build/KOT49H) AppleWebKit/537.36 (KHTML, like Gecko) Version/4.0 Chrome/37.0.0.0 Mobile MQQBrowser/6.8 TBS/036824 Safari/537.36 MicroMessenger/6.3.27.880 NetType/WIFI Language/zh_CN'
p133
sg16
S'ab78f16992970dc9efc9d6628858763c'
p134
sa(dp135
g2
S'46368'
p136
sg4
S'261'
p137
sg6
S'438d58b6cfbee48006a9bc087237f75a'
p138
sg8
S'xxc81ed5840439af5c57271779b6652ab8'
p139
sg10
S'xxa1eddb067d69156b5a420a68e90e67cd'
p140
sg12
S'xx1011b6f016676dcb23369c6891f867ff'
p141
sg14
S'Mozilla/5.0 (Linux; Android 4.4.2; 2014501 Build/KOT49H) AppleWebKit/537.36 (KHTML, like Gecko) Version/4.0 Chrome/37.0.0.0 Mobile MQQBrowser/6.8 TBS/036869 Safari/537.36 MicroMessenger/6.3.27.880 NetType/WIFI Language/zh_CN'
p142
sg16
S'9061f7b601e438042d449f25a294de59'
p143
sa(dp144
g2
S'24969'
p145
sg4
S'267'
p146
sg6
S'a5b44b593f8f8dbc9d4ef18a119f70cf'
p147
sg8
S'xxef34f79277a861144535087ba570315c'
p148
sg10
S'xxa1eddb067d69156b5a420a68e90e67cd'
p149
sg12
S'xx1011b6f016676dcb23369c6891f867ff'
p150
sg14
S'Mozilla/5.0 (Linux; Android 4.4.2; 2014501 Build/KOT49H) AppleWebKit/537.36 (KHTML, like Gecko) Version/4.0 Chrome/37.0.0.0 Mobile MQQBrowser/6.8 TBS/036824 Safari/537.36 MicroMessenger/6.3.27.880 NetType/WIFI Language/zh_CN'
p151
sg16
S'ab78f16992970dc9efc9d6628858763c'
p152
sa(dp153
g2
S'46368'
p154
sg4
S'339'
p155
sg6
S'438d58b6cfbee48006a9bc087237f75a'
p156
sg8
S'xxc81ed5840439af5c57271779b6652ab8'
p157
sg10
S'xxa1eddb067d69156b5a420a68e90e67cd'
p158
sg12
S'xx1011b6f016676dcb23369c6891f867ff'
p159
sg14
S'Mozilla/5.0 (Linux; Android 4.4.2; 2014501 Build/KOT49H) AppleWebKit/537.36 (KHTML, like Gecko) Version/4.0 Chrome/37.0.0.0 Mobile MQQBrowser/6.8 TBS/036869 Safari/537.36 MicroMessenger/6.3.27.880 NetType/WIFI Language/zh_CN'
p160
sg16
S'9061f7b601e438042d449f25a294de59'
p161
sa(dp162
g2
S'33854'
p163
sg4
S'562'
p164
sg6
S'c06e95c18c2b0edd3df702e269c11330'
p165
sg8
S'xxb03f0c4ac4a88b1c3c51ce4a028f4c6d'
p166
sg10
S'xxa1eddb067d69156b5a420a68e90e67cd'
p167
sg12
S'xx1011b6f016676dcb23369c6891f867ff'
p168
sg14
S'Mozilla/5.0 (Linux; Android 4.4.2; 2014501 Build/KOT49H) AppleWebKit/537.36 (KHTML, like Gecko) Version/4.0 Chrome/37.0.0.0 Mobile MQQBrowser/6.8 TBS/036869 Safari/537.36 MicroMessenger/6.3.27.880 NetType/cmnet Language/zh_CN'
p169
sg16
S'0797d47fd7f6fdceaa24fe55fc2318e0'
p170
sa(dp171
g2
S'33854'
p172
sg4
S'578'
p173
sg6
S'c06e95c18c2b0edd3df702e269c11330'
p174
sg8
S'xxb03f0c4ac4a88b1c3c51ce4a028f4c6d'
p175
sg10
S'xxa1eddb067d69156b5a420a68e90e67cd'
p176
sg12
S'xx1011b6f016676dcb23369c6891f867ff'
p177
sg14
S'Mozilla/5.0 (Linux; Android 4.4.2; 2014501 Build/KOT49H) AppleWebKit/537.36 (KHTML, like Gecko) Version/4.0 Chrome/37.0.0.0 Mobile MQQBrowser/6.8 TBS/036869 Safari/537.36 MicroMessenger/6.3.27.880 NetType/cmnet Language/zh_CN'
p178
sg16
S'0797d47fd7f6fdceaa24fe55fc2318e0'
p179
sa(dp180
g2
S'33854'
p181
sg4
S'597'
p182
sg6
S'c06e95c18c2b0edd3df702e269c11330'
p183
sg8
S'xxb03f0c4ac4a88b1c3c51ce4a028f4c6d'
p184
sg10
S'xxa1eddb067d69156b5a420a68e90e67cd'
p185
sg12
S'xx1011b6f016676dcb23369c6891f867ff'
p186
sg14
S'Mozilla/5.0 (Linux; Android 4.4.2; 2014501 Build/KOT49H) AppleWebKit/537.36 (KHTML, like Gecko) Version/4.0 Chrome/37.0.0.0 Mobile MQQBrowser/6.8 TBS/036869 Safari/537.36 MicroMessenger/6.3.27.880 NetType/cmnet Language/zh_CN'
p187
sg16
S'0797d47fd7f6fdceaa24fe55fc2318e0'
p188
sa(dp189
g2
S'46368'
p190
sg4
S'660'
p191
sg6
S'438d58b6cfbee48006a9bc087237f75a'
p192
sg8
S'xxc81ed5840439af5c57271779b6652ab8'
p193
sg10
S'xxa1eddb067d69156b5a420a68e90e67cd'
p194
sg12
S'xx1011b6f016676dcb23369c6891f867ff'
p195
sg14
S'Mozilla/5.0 (Linux; Android 4.4.2; 2014501 Build/KOT49H) AppleWebKit/537.36 (KHTML, like Gecko) Version/4.0 Chrome/37.0.0.0 Mobile MQQBrowser/6.8 TBS/036869 Safari/537.36 MicroMessenger/6.3.27.880 NetType/WIFI Language/zh_CN'
p196
sg16
S'9061f7b601e438042d449f25a294de59'
p197
sa(dp198
g2
S'33854'
p199
sg4
S'747'
p200
sg6
S'c06e95c18c2b0edd3df702e269c11330'
p201
sg8
S'xxb03f0c4ac4a88b1c3c51ce4a028f4c6d'
p202
sg10
S'xxa1eddb067d69156b5a420a68e90e67cd'
p203
sg12
S'xx1011b6f016676dcb23369c6891f867ff'
p204
sg14
S'Mozilla/5.0 (Linux; Android 4.4.2; 2014501 Build/KOT49H) AppleWebKit/537.36 (KHTML, like Gecko) Version/4.0 Chrome/37.0.0.0 Mobile MQQBrowser/6.8 TBS/036869 Safari/537.36 MicroMessenger/6.3.27.880 NetType/cmnet Language/zh_CN'
p205
sg16
S'0797d47fd7f6fdceaa24fe55fc2318e0'
p206
sa(dp207
g2
S'33854'
p208
sg4
S'759'
p209
sg6
S'c06e95c18c2b0edd3df702e269c11330'
p210
sg8
S'xxb03f0c4ac4a88b1c3c51ce4a028f4c6d'
p211
sg10
S'xxa1eddb067d69156b5a420a68e90e67cd'
p212
sg12
S'xx1011b6f016676dcb23369c6891f867ff'
p213
sg14
S'Mozilla/5.0 (Linux; Android 4.4.2; 2014501 Build/KOT49H) AppleWebKit/537.36 (KHTML, like Gecko) Version/4.0 Chrome/37.0.0.0 Mobile MQQBrowser/6.8 TBS/036869 Safari/537.36 MicroMessenger/6.3.27.880 NetType/cmnet Language/zh_CN'
p214
sg16
S'0797d47fd7f6fdceaa24fe55fc2318e0'
p215
sa(dp216
g2
S'33854'
p217
sg4
S'799'
p218
sg6
S'c06e95c18c2b0edd3df702e269c11330'
p219
sg8
S'xxb03f0c4ac4a88b1c3c51ce4a028f4c6d'
p220
sg10
S'xxa1eddb067d69156b5a420a68e90e67cd'
p221
sg12
S'xx1011b6f016676dcb23369c6891f867ff'
p222
sg14
S'Mozilla/5.0 (Linux; Android 4.4.2; 2014501 Build/KOT49H) AppleWebKit/537.36 (KHTML, like Gecko) Version/4.0 Chrome/37.0.0.0 Mobile MQQBrowser/6.8 TBS/036869 Safari/537.36 MicroMessenger/6.3.27.880 NetType/cmnet Language/zh_CN'
p223
sg16
S'0797d47fd7f6fdceaa24fe55fc2318e0'
p224
sa(dp225
g2
S'33854'
p226
sg4
S'816'
p227
sg6
S'c06e95c18c2b0edd3df702e269c11330'
p228
sg8
S'xxb03f0c4ac4a88b1c3c51ce4a028f4c6d'
p229
sg10
S'xxa1eddb067d69156b5a420a68e90e67cd'
p230
sg12
S'xx1011b6f016676dcb23369c6891f867ff'
p231
sg14
S'Mozilla/5.0 (Linux; Android 4.4.2; 2014501 Build/KOT49H) AppleWebKit/537.36 (KHTML, like Gecko) Version/4.0 Chrome/37.0.0.0 Mobile MQQBrowser/6.8 TBS/036869 Safari/537.36 MicroMessenger/6.3.27.880 NetType/cmnet Language/zh_CN'
p232
sg16
S'0797d47fd7f6fdceaa24fe55fc2318e0'
p233
sa(dp234
g2
S'33854'
p235
sg4
S'867'
p236
sg6
S'c06e95c18c2b0edd3df702e269c11330'
p237
sg8
S'xxb03f0c4ac4a88b1c3c51ce4a028f4c6d'
p238
sg10
S'xxa1eddb067d69156b5a420a68e90e67cd'
p239
sg12
S'xx1011b6f016676dcb23369c6891f867ff'
p240
sg14
S'Mozilla/5.0 (Linux; Android 4.4.2; 2014501 Build/KOT49H) AppleWebKit/537.36 (KHTML, like Gecko) Version/4.0 Chrome/37.0.0.0 Mobile MQQBrowser/6.8 TBS/036869 Safari/537.36 MicroMessenger/6.3.27.880 NetType/cmnet Language/zh_CN'
p241
sg16
S'0797d47fd7f6fdceaa24fe55fc2318e0'
p242
sa(dp243
g2
S'33854'
p244
sg4
S'938'
p245
sg6
S'c06e95c18c2b0edd3df702e269c11330'
p246
sg8
S'xxb03f0c4ac4a88b1c3c51ce4a028f4c6d'
p247
sg10
S'xxa1eddb067d69156b5a420a68e90e67cd'
p248
sg12
S'xx1011b6f016676dcb23369c6891f867ff'
p249
sg14
S'Mozilla/5.0 (Linux; Android 4.4.2; 2014501 Build/KOT49H) AppleWebKit/537.36 (KHTML, like Gecko) Version/4.0 Chrome/37.0.0.0 Mobile MQQBrowser/6.8 TBS/036869 Safari/537.36 MicroMessenger/6.3.27.880 NetType/cmnet Language/zh_CN'
p250
sg16
S'0797d47fd7f6fdceaa24fe55fc2318e0'
p251
sa(dp252
g2
S'33854'
p253
sg4
S'952'
p254
sg6
S'c06e95c18c2b0edd3df702e269c11330'
p255
sg8
S'xxb03f0c4ac4a88b1c3c51ce4a028f4c6d'
p256
sg10
S'xxa1eddb067d69156b5a420a68e90e67cd'
p257
sg12
S'xx1011b6f016676dcb23369c6891f867ff'
p258
sg14
S'Mozilla/5.0 (Linux; Android 4.4.2; 2014501 Build/KOT49H) AppleWebKit/537.36 (KHTML, like Gecko) Version/4.0 Chrome/37.0.0.0 Mobile MQQBrowser/6.8 TBS/036869 Safari/537.36 MicroMessenger/6.3.27.880 NetType/cmnet Language/zh_CN'
p259
sg16
S'0797d47fd7f6fdceaa24fe55fc2318e0'
p260
sa(dp261
g2
S'33854'
p262
sg4
S'980'
p263
sg6
S'c06e95c18c2b0edd3df702e269c11330'
p264
sg8
S'xxb03f0c4ac4a88b1c3c51ce4a028f4c6d'
p265
sg10
S'xxa1eddb067d69156b5a420a68e90e67cd'
p266
sg12
S'xx1011b6f016676dcb23369c6891f867ff'
p267
sg14
S'Mozilla/5.0 (Linux; Android 4.4.2; 2014501 Build/KOT49H) AppleWebKit/537.36 (KHTML, like Gecko) Version/4.0 Chrome/37.0.0.0 Mobile MQQBrowser/6.8 TBS/036869 Safari/537.36 MicroMessenger/6.3.27.880 NetType/cmnet Language/zh_CN'
p268
sg16
S'0797d47fd7f6fdceaa24fe55fc2318e0'
p269
sa(dp270
g2
S'33854'
p271
sg4
S'997'
p272
sg6
S'c06e95c18c2b0edd3df702e269c11330'
p273
sg8
S'xxb03f0c4ac4a88b1c3c51ce4a028f4c6d'
p274
sg10
S'xxa1eddb067d69156b5a420a68e90e67cd'
p275
sg12
S'xx1011b6f016676dcb23369c6891f867ff'
p276
sg14
S'Mozilla/5.0 (Linux; Android 4.4.2; 2014501 Build/KOT49H) AppleWebKit/537.36 (KHTML, like Gecko) Version/4.0 Chrome/37.0.0.0 Mobile MQQBrowser/6.8 TBS/036869 Safari/537.36 MicroMessenger/6.3.27.880 NetType/cmnet Language/zh_CN'
p277
sg16
S'0797d47fd7f6fdceaa24fe55fc2318e0'
p278
sa(dp279
g2
S'33854'
p280
sg4
S'1013'
p281
sg6
S'c06e95c18c2b0edd3df702e269c11330'
p282
sg8
S'xxb03f0c4ac4a88b1c3c51ce4a028f4c6d'
p283
sg10
S'xxa1eddb067d69156b5a420a68e90e67cd'
p284
sg12
S'xx1011b6f016676dcb23369c6891f867ff'
p285
sg14
S'Mozilla/5.0 (Linux; Android 4.4.2; 2014501 Build/KOT49H) AppleWebKit/537.36 (KHTML, like Gecko) Version/4.0 Chrome/37.0.0.0 Mobile MQQBrowser/6.8 TBS/036869 Safari/537.36 MicroMessenger/6.3.27.880 NetType/cmnet Language/zh_CN'
p286
sg16
S'0797d47fd7f6fdceaa24fe55fc2318e0'
p287
sa(dp288
g2
S'33854'
p289
sg4
S'1026'
p290
sg6
S'c06e95c18c2b0edd3df702e269c11330'
p291
sg8
S'xxb03f0c4ac4a88b1c3c51ce4a028f4c6d'
p292
sg10
S'xxa1eddb067d69156b5a420a68e90e67cd'
p293
sg12
S'xx1011b6f016676dcb23369c6891f867ff'
p294
sg14
S'Mozilla/5.0 (Linux; Android 4.4.2; 2014501 Build/KOT49H) AppleWebKit/537.36 (KHTML, like Gecko) Version/4.0 Chrome/37.0.0.0 Mobile MQQBrowser/6.8 TBS/036869 Safari/537.36 MicroMessenger/6.3.27.880 NetType/cmnet Language/zh_CN'
p295
sg16
S'0797d47fd7f6fdceaa24fe55fc2318e0'
p296
sa(dp297
g2
S'33854'
p298
sg4
S'1060'
p299
sg6
S'c06e95c18c2b0edd3df702e269c11330'
p300
sg8
S'xxb03f0c4ac4a88b1c3c51ce4a028f4c6d'
p301
sg10
S'xxa1eddb067d69156b5a420a68e90e67cd'
p302
sg12
S'xx1011b6f016676dcb23369c6891f867ff'
p303
sg14
S'Mozilla/5.0 (Linux; Android 4.4.2; 2014501 Build/KOT49H) AppleWebKit/537.36 (KHTML, like Gecko) Version/4.0 Chrome/37.0.0.0 Mobile MQQBrowser/6.8 TBS/036869 Safari/537.36 MicroMessenger/6.3.27.880 NetType/cmnet Language/zh_CN'
p304
sg16
S'0797d47fd7f6fdceaa24fe55fc2318e0'
p305
sa(dp306
g2
S'33854'
p307
sg4
S'1082'
p308
sg6
S'c06e95c18c2b0edd3df702e269c11330'
p309
sg8
S'xxb03f0c4ac4a88b1c3c51ce4a028f4c6d'
p310
sg10
S'xxa1eddb067d69156b5a420a68e90e67cd'
p311
sg12
S'xx1011b6f016676dcb23369c6891f867ff'
p312
sg14
S'Mozilla/5.0 (Linux; Android 4.4.2; 2014501 Build/KOT49H) AppleWebKit/537.36 (KHTML, like Gecko) Version/4.0 Chrome/37.0.0.0 Mobile MQQBrowser/6.8 TBS/036869 Safari/537.36 MicroMessenger/6.3.27.880 NetType/cmnet Language/zh_CN'
p313
sg16
S'0797d47fd7f6fdceaa24fe55fc2318e0'
p314
sa(dp315
g2
S'46368'
p316
sg4
S'1198'
p317
sg6
S'438d58b6cfbee48006a9bc087237f75a'
p318
sg8
S'xxc81ed5840439af5c57271779b6652ab8'
p319
sg10
S'xxa1eddb067d69156b5a420a68e90e67cd'
p320
sg12
S'xx1011b6f016676dcb23369c6891f867ff'
p321
sg14
S'Mozilla/5.0 (Linux; Android 4.4.2; 2014501 Build/KOT49H) AppleWebKit/537.36 (KHTML, like Gecko) Version/4.0 Chrome/37.0.0.0 Mobile MQQBrowser/6.8 TBS/036869 Safari/537.36 MicroMessenger/6.3.27.880 NetType/WIFI Language/zh_CN'
p322
sg16
S'9061f7b601e438042d449f25a294de59'
p323
sa(dp324
g2
S'46368'
p325
sg4
S'1646'
p326
sg6
S'438d58b6cfbee48006a9bc087237f75a'
p327
sg8
S'xxc81ed5840439af5c57271779b6652ab8'
p328
sg10
S'xxa1eddb067d69156b5a420a68e90e67cd'
p329
sg12
S'xx1011b6f016676dcb23369c6891f867ff'
p330
sg14
S'Mozilla/5.0 (Linux; Android 4.4.2; 2014501 Build/KOT49H) AppleWebKit/537.36 (KHTML, like Gecko) Version/4.0 Chrome/37.0.0.0 Mobile MQQBrowser/6.8 TBS/036869 Safari/537.36 MicroMessenger/6.3.27.880 NetType/WIFI Language/zh_CN'
p331
sg16
S'9061f7b601e438042d449f25a294de59'
p332
sa(dp333
g2
S'46368'
p334
sg4
S'2137'
p335
sg6
S'438d58b6cfbee48006a9bc087237f75a'
p336
sg8
S'xxc81ed5840439af5c57271779b6652ab8'
p337
sg10
S'xxa1eddb067d69156b5a420a68e90e67cd'
p338
sg12
S'xx1011b6f016676dcb23369c6891f867ff'
p339
sg14
S'Mozilla/5.0 (Linux; Android 4.4.2; 2014501 Build/KOT49H) AppleWebKit/537.36 (KHTML, like Gecko) Version/4.0 Chrome/37.0.0.0 Mobile MQQBrowser/6.8 TBS/036869 Safari/537.36 MicroMessenger/6.3.27.880 NetType/WIFI Language/zh_CN'
p340
sg16
S'9061f7b601e438042d449f25a294de59'
p341
sa(dp342
g2
S'24971'
p343
sg4
S'2228'
p344
sg6
S'3cecce787d9c5f6e8a8de315e4ff3ee3'
p345
sg8
S'xxc1bfb3b94b102661f75615a5ce1e7bfc'
p346
sg10
S'xxa1eddb067d69156b5a420a68e90e67cd'
p347
sg12
S'xx1011b6f016676dcb23369c6891f867ff'
p348
sg14
S'Mozilla/5.0 (Linux; Android 4.4.2; 2014501 Build/KOT49H) AppleWebKit/537.36 (KHTML, like Gecko) Version/4.0 Chrome/37.0.0.0 Mobile MQQBrowser/6.8 TBS/036824 Safari/537.36 MicroMessenger/6.3.27.880 NetType/cmnet Language/zh_CN'
p349
sg16
S'afbba824350f0e42f5e0474ce6eeb508'
p350
sa(dp351
g2
S'24971'
p352
sg4
S'2248'
p353
sg6
S'3cecce787d9c5f6e8a8de315e4ff3ee3'
p354
sg8
S'xxc1bfb3b94b102661f75615a5ce1e7bfc'
p355
sg10
S'xxa1eddb067d69156b5a420a68e90e67cd'
p356
sg12
S'xx1011b6f016676dcb23369c6891f867ff'
p357
sg14
S'Mozilla/5.0 (Linux; Android 4.4.2; 2014501 Build/KOT49H) AppleWebKit/537.36 (KHTML, like Gecko) Version/4.0 Chrome/37.0.0.0 Mobile MQQBrowser/6.8 TBS/036824 Safari/537.36 MicroMessenger/6.3.27.880 NetType/cmnet Language/zh_CN'
p358
sg16
S'afbba824350f0e42f5e0474ce6eeb508'
p359
sa(dp360
g2
S'33854'
p361
sg4
S'2468'
p362
sg6
S'c06e95c18c2b0edd3df702e269c11330'
p363
sg8
S'xxb03f0c4ac4a88b1c3c51ce4a028f4c6d'
p364
sg10
S'xxa1eddb067d69156b5a420a68e90e67cd'
p365
sg12
S'xx1011b6f016676dcb23369c6891f867ff'
p366
sg14
S'Mozilla/5.0 (Linux; Android 4.4.2; 2014501 Build/KOT49H) AppleWebKit/537.36 (KHTML, like Gecko) Version/4.0 Chrome/37.0.0.0 Mobile MQQBrowser/6.8 TBS/036869 Safari/537.36 MicroMessenger/6.3.27.880 NetType/cmnet Language/zh_CN'
p367
sg16
S'0797d47fd7f6fdceaa24fe55fc2318e0'
p368
sa(dp369
g2
S'33854'
p370
sg4
S'2489'
p371
sg6
S'c06e95c18c2b0edd3df702e269c11330'
p372
sg8
S'xxb03f0c4ac4a88b1c3c51ce4a028f4c6d'
p373
sg10
S'xxa1eddb067d69156b5a420a68e90e67cd'
p374
sg12
S'xx1011b6f016676dcb23369c6891f867ff'
p375
sg14
S'Mozilla/5.0 (Linux; Android 4.4.2; 2014501 Build/KOT49H) AppleWebKit/537.36 (KHTML, like Gecko) Version/4.0 Chrome/37.0.0.0 Mobile MQQBrowser/6.8 TBS/036869 Safari/537.36 MicroMessenger/6.3.27.880 NetType/cmnet Language/zh_CN'
p376
sg16
S'0797d47fd7f6fdceaa24fe55fc2318e0'
p377
sa(dp378
g2
S'33854'
p379
sg4
S'2511'
p380
sg6
S'c06e95c18c2b0edd3df702e269c11330'
p381
sg8
S'xxb03f0c4ac4a88b1c3c51ce4a028f4c6d'
p382
sg10
S'xxa1eddb067d69156b5a420a68e90e67cd'
p383
sg12
S'xx1011b6f016676dcb23369c6891f867ff'
p384
sg14
S'Mozilla/5.0 (Linux; Android 4.4.2; 2014501 Build/KOT49H) AppleWebKit/537.36 (KHTML, like Gecko) Version/4.0 Chrome/37.0.0.0 Mobile MQQBrowser/6.8 TBS/036869 Safari/537.36 MicroMessenger/6.3.27.880 NetType/cmnet Language/zh_CN'
p385
sg16
S'0797d47fd7f6fdceaa24fe55fc2318e0'
p386
sa(dp387
g2
S'24971'
p388
sg4
S'2926'
p389
sg6
S'3cecce787d9c5f6e8a8de315e4ff3ee3'
p390
sg8
S'xxc1bfb3b94b102661f75615a5ce1e7bfc'
p391
sg10
S'xxa1eddb067d69156b5a420a68e90e67cd'
p392
sg12
S'xx1011b6f016676dcb23369c6891f867ff'
p393
sg14
S'Mozilla/5.0 (Linux; Android 4.4.2; 2014501 Build/KOT49H) AppleWebKit/537.36 (KHTML, like Gecko) Version/4.0 Chrome/37.0.0.0 Mobile MQQBrowser/6.8 TBS/036824 Safari/537.36 MicroMessenger/6.3.27.880 NetType/cmnet Language/zh_CN'
p394
sg16
S'afbba824350f0e42f5e0474ce6eeb508'
p395
sa(dp396
g2
S'24971'
p397
sg4
S'2946'
p398
sg6
S'3cecce787d9c5f6e8a8de315e4ff3ee3'
p399
sg8
S'xxc1bfb3b94b102661f75615a5ce1e7bfc'
p400
sg10
S'xxa1eddb067d69156b5a420a68e90e67cd'
p401
sg12
S'xx1011b6f016676dcb23369c6891f867ff'
p402
sg14
S'Mozilla/5.0 (Linux; Android 4.4.2; 2014501 Build/KOT49H) AppleWebKit/537.36 (KHTML, like Gecko) Version/4.0 Chrome/37.0.0.0 Mobile MQQBrowser/6.8 TBS/036824 Safari/537.36 MicroMessenger/6.3.27.880 NetType/cmnet Language/zh_CN'
p403
sg16
S'afbba824350f0e42f5e0474ce6eeb508'
p404
sa(dp405
g2
S'46368'
p406
sg4
S'3169'
p407
sg6
S'438d58b6cfbee48006a9bc087237f75a'
p408
sg8
S'xxc81ed5840439af5c57271779b6652ab8'
p409
sg10
S'xxa1eddb067d69156b5a420a68e90e67cd'
p410
sg12
S'xx1011b6f016676dcb23369c6891f867ff'
p411
sg14
S'Mozilla/5.0 (Linux; Android 4.4.2; 2014501 Build/KOT49H) AppleWebKit/537.36 (KHTML, like Gecko) Version/4.0 Chrome/37.0.0.0 Mobile MQQBrowser/6.8 TBS/036869 Safari/537.36 MicroMessenger/6.3.27.880 NetType/WIFI Language/zh_CN'
p412
sg16
S'9061f7b601e438042d449f25a294de59'
p413
sa(dp414
g2
S'33854'
p415
sg4
S'3170'
p416
sg6
S'c06e95c18c2b0edd3df702e269c11330'
p417
sg8
S'xxb03f0c4ac4a88b1c3c51ce4a028f4c6d'
p418
sg10
S'xxa1eddb067d69156b5a420a68e90e67cd'
p419
sg12
S'xx1011b6f016676dcb23369c6891f867ff'
p420
sg14
S'Mozilla/5.0 (Linux; Android 4.4.2; 2014501 Build/KOT49H) AppleWebKit/537.36 (KHTML, like Gecko) Version/4.0 Chrome/37.0.0.0 Mobile MQQBrowser/6.8 TBS/036869 Safari/537.36 MicroMessenger/6.3.27.880 NetType/cmnet Language/zh_CN'
p421
sg16
S'0797d47fd7f6fdceaa24fe55fc2318e0'
p422
sa(dp423
g2
S'33854'
p424
sg4
S'3184'
p425
sg6
S'c06e95c18c2b0edd3df702e269c11330'
p426
sg8
S'xxb03f0c4ac4a88b1c3c51ce4a028f4c6d'
p427
sg10
S'xxa1eddb067d69156b5a420a68e90e67cd'
p428
sg12
S'xx1011b6f016676dcb23369c6891f867ff'
p429
sg14
S'Mozilla/5.0 (Linux; Android 4.4.2; 2014501 Build/KOT49H) AppleWebKit/537.36 (KHTML, like Gecko) Version/4.0 Chrome/37.0.0.0 Mobile MQQBrowser/6.8 TBS/036869 Safari/537.36 MicroMessenger/6.3.27.880 NetType/cmnet Language/zh_CN'
p430
sg16
S'0797d47fd7f6fdceaa24fe55fc2318e0'
p431
sa(dp432
g2
S'46368'
p433
sg4
S'3232'
p434
sg6
S'438d58b6cfbee48006a9bc087237f75a'
p435
sg8
S'xxc81ed5840439af5c57271779b6652ab8'
p436
sg10
S'xxa1eddb067d69156b5a420a68e90e67cd'
p437
sg12
S'xx1011b6f016676dcb23369c6891f867ff'
p438
sg14
S'Mozilla/5.0 (Linux; Android 4.4.2; 2014501 Build/KOT49H) AppleWebKit/537.36 (KHTML, like Gecko) Version/4.0 Chrome/37.0.0.0 Mobile MQQBrowser/6.8 TBS/036869 Safari/537.36 MicroMessenger/6.3.27.880 NetType/WIFI Language/zh_CN'
p439
sg16
S'9061f7b601e438042d449f25a294de59'
p440
sa(dp441
g2
S'46791'
p442
sg4
S'3436'
p443
sg6
S'6d9be4f3deb5c49bc8d2d61f4a867a09'
p444
sg8
S'xxc81ed5840439af5c57271779b6652ab8'
p445
sg10
S'xxa1eddb067d69156b5a420a68e90e67cd'
p446
sg12
S'xx1011b6f016676dcb23369c6891f867ff'
p447
sg14
S'Mozilla/5.0 (Linux; Android 4.4.2; 2014501 Build/KOT49H) AppleWebKit/537.36 (KHTML, like Gecko) Version/4.0 Chrome/37.0.0.0 Mobile MQQBrowser/6.8 TBS/036869 Safari/537.36 MicroMessenger/6.3.27.880 NetType/WIFI Language/zh_CN'
p448
sg16
S'9061f7b601e438042d449f25a294de59'
p449
sa(dp450
g2
S'24971'
p451
sg4
S'3452'
p452
sg6
S'3cecce787d9c5f6e8a8de315e4ff3ee3'
p453
sg8
S'xxc1bfb3b94b102661f75615a5ce1e7bfc'
p454
sg10
S'xxa1eddb067d69156b5a420a68e90e67cd'
p455
sg12
S'xx1011b6f016676dcb23369c6891f867ff'
p456
sg14
S'Mozilla/5.0 (Linux; Android 4.4.2; 2014501 Build/KOT49H) AppleWebKit/537.36 (KHTML, like Gecko) Version/4.0 Chrome/37.0.0.0 Mobile MQQBrowser/6.8 TBS/036824 Safari/537.36 MicroMessenger/6.3.27.880 NetType/cmnet Language/zh_CN'
p457
sg16
S'afbba824350f0e42f5e0474ce6eeb508'
p458
sa(dp459
g2
S'46791'
p460
sg4
S'3454'
p461
sg6
S'6d9be4f3deb5c49bc8d2d61f4a867a09'
p462
sg8
S'xxc81ed5840439af5c57271779b6652ab8'
p463
sg10
S'xxa1eddb067d69156b5a420a68e90e67cd'
p464
sg12
S'xx1011b6f016676dcb23369c6891f867ff'
p465
sg14
S'Mozilla/5.0 (Linux; Android 4.4.2; 2014501 Build/KOT49H) AppleWebKit/537.36 (KHTML, like Gecko) Version/4.0 Chrome/37.0.0.0 Mobile MQQBrowser/6.8 TBS/036869 Safari/537.36 MicroMessenger/6.3.27.880 NetType/WIFI Language/zh_CN'
p466
sg16
S'9061f7b601e438042d449f25a294de59'
p467
sa(dp468
g2
S'24971'
p469
sg4
S'3465'
p470
sg6
S'3cecce787d9c5f6e8a8de315e4ff3ee3'
p471
sg8
S'xxc1bfb3b94b102661f75615a5ce1e7bfc'
p472
sg10
S'xxa1eddb067d69156b5a420a68e90e67cd'
p473
sg12
S'xx1011b6f016676dcb23369c6891f867ff'
p474
sg14
S'Mozilla/5.0 (Linux; Android 4.4.2; 2014501 Build/KOT49H) AppleWebKit/537.36 (KHTML, like Gecko) Version/4.0 Chrome/37.0.0.0 Mobile MQQBrowser/6.8 TBS/036824 Safari/537.36 MicroMessenger/6.3.27.880 NetType/cmnet Language/zh_CN'
p475
sg16
S'afbba824350f0e42f5e0474ce6eeb508'
p476
sa(dp477
g2
S'46791'
p478
sg4
S'3470'
p479
sg6
S'6d9be4f3deb5c49bc8d2d61f4a867a09'
p480
sg8
S'xxc81ed5840439af5c57271779b6652ab8'
p481
sg10
S'xxa1eddb067d69156b5a420a68e90e67cd'
p482
sg12
S'xx1011b6f016676dcb23369c6891f867ff'
p483
sg14
S'Mozilla/5.0 (Linux; Android 4.4.2; 2014501 Build/KOT49H) AppleWebKit/537.36 (KHTML, like Gecko) Version/4.0 Chrome/37.0.0.0 Mobile MQQBrowser/6.8 TBS/036869 Safari/537.36 MicroMessenger/6.3.27.880 NetType/WIFI Language/zh_CN'
p484
sg16
S'9061f7b601e438042d449f25a294de59'
p485
sa(dp486
g2
S'46791'
p487
sg4
S'3487'
p488
sg6
S'6d9be4f3deb5c49bc8d2d61f4a867a09'
p489
sg8
S'xxc81ed5840439af5c57271779b6652ab8'
p490
sg10
S'xxa1eddb067d69156b5a420a68e90e67cd'
p491
sg12
S'xx1011b6f016676dcb23369c6891f867ff'
p492
sg14
S'Mozilla/5.0 (Linux; Android 4.4.2; 2014501 Build/KOT49H) AppleWebKit/537.36 (KHTML, like Gecko) Version/4.0 Chrome/37.0.0.0 Mobile MQQBrowser/6.8 TBS/036869 Safari/537.36 MicroMessenger/6.3.27.880 NetType/WIFI Language/zh_CN'
p493
sg16
S'9061f7b601e438042d449f25a294de59'
p494
sa(dp495
g2
S'46791'
p496
sg4
S'3516'
p497
sg6
S'6d9be4f3deb5c49bc8d2d61f4a867a09'
p498
sg8
S'xxc81ed5840439af5c57271779b6652ab8'
p499
sg10
S'xxa1eddb067d69156b5a420a68e90e67cd'
p500
sg12
S'xx1011b6f016676dcb23369c6891f867ff'
p501
sg14
S'Mozilla/5.0 (Linux; Android 4.4.2; 2014501 Build/KOT49H) AppleWebKit/537.36 (KHTML, like Gecko) Version/4.0 Chrome/37.0.0.0 Mobile MQQBrowser/6.8 TBS/036869 Safari/537.36 MicroMessenger/6.3.27.880 NetType/WIFI Language/zh_CN'
p502
sg16
S'9061f7b601e438042d449f25a294de59'
p503
sa(dp504
g2
S'24971'
p505
sg4
S'3605'
p506
sg6
S'3cecce787d9c5f6e8a8de315e4ff3ee3'
p507
sg8
S'xxc1bfb3b94b102661f75615a5ce1e7bfc'
p508
sg10
S'xxa1eddb067d69156b5a420a68e90e67cd'
p509
sg12
S'xx1011b6f016676dcb23369c6891f867ff'
p510
sg14
S'Mozilla/5.0 (Linux; Android 4.4.2; 2014501 Build/KOT49H) AppleWebKit/537.36 (KHTML, like Gecko) Version/4.0 Chrome/37.0.0.0 Mobile MQQBrowser/6.8 TBS/036824 Safari/537.36 MicroMessenger/6.3.27.880 NetType/cmnet Language/zh_CN'
p511
sg16
S'afbba824350f0e42f5e0474ce6eeb508'
p512
sa(dp513
g2
S'24971'
p514
sg4
S'3621'
p515
sg6
S'3cecce787d9c5f6e8a8de315e4ff3ee3'
p516
sg8
S'xxc1bfb3b94b102661f75615a5ce1e7bfc'
p517
sg10
S'xxa1eddb067d69156b5a420a68e90e67cd'
p518
sg12
S'xx1011b6f016676dcb23369c6891f867ff'
p519
sg14
S'Mozilla/5.0 (Linux; Android 4.4.2; 2014501 Build/KOT49H) AppleWebKit/537.36 (KHTML, like Gecko) Version/4.0 Chrome/37.0.0.0 Mobile MQQBrowser/6.8 TBS/036824 Safari/537.36 MicroMessenger/6.3.27.880 NetType/cmnet Language/zh_CN'
p520
sg16
S'afbba824350f0e42f5e0474ce6eeb508'
p521
sa(dp522
g2
S'24971'
p523
sg4
S'3636'
p524
sg6
S'3cecce787d9c5f6e8a8de315e4ff3ee3'
p525
sg8
S'xxc1bfb3b94b102661f75615a5ce1e7bfc'
p526
sg10
S'xxa1eddb067d69156b5a420a68e90e67cd'
p527
sg12
S'xx1011b6f016676dcb23369c6891f867ff'
p528
sg14
S'Mozilla/5.0 (Linux; Android 4.4.2; 2014501 Build/KOT49H) AppleWebKit/537.36 (KHTML, like Gecko) Version/4.0 Chrome/37.0.0.0 Mobile MQQBrowser/6.8 TBS/036824 Safari/537.36 MicroMessenger/6.3.27.880 NetType/cmnet Language/zh_CN'
p529
sg16
S'afbba824350f0e42f5e0474ce6eeb508'
p530
sa(dp531
g2
S'46368'
p532
sg4
S'3639'
p533
sg6
S'438d58b6cfbee48006a9bc087237f75a'
p534
sg8
S'xxc81ed5840439af5c57271779b6652ab8'
p535
sg10
S'xxa1eddb067d69156b5a420a68e90e67cd'
p536
sg12
S'xx1011b6f016676dcb23369c6891f867ff'
p537
sg14
S'Mozilla/5.0 (Linux; Android 4.4.2; 2014501 Build/KOT49H) AppleWebKit/537.36 (KHTML, like Gecko) Version/4.0 Chrome/37.0.0.0 Mobile MQQBrowser/6.8 TBS/036869 Safari/537.36 MicroMessenger/6.3.27.880 NetType/WIFI Language/zh_CN'
p538
sg16
S'9061f7b601e438042d449f25a294de59'
p539
sa(dp540
g2
S'24971'
p541
sg4
S'3664'
p542
sg6
S'3cecce787d9c5f6e8a8de315e4ff3ee3'
p543
sg8
S'xxc1bfb3b94b102661f75615a5ce1e7bfc'
p544
sg10
S'xxa1eddb067d69156b5a420a68e90e67cd'
p545
sg12
S'xx1011b6f016676dcb23369c6891f867ff'
p546
sg14
S'Mozilla/5.0 (Linux; Android 4.4.2; 2014501 Build/KOT49H) AppleWebKit/537.36 (KHTML, like Gecko) Version/4.0 Chrome/37.0.0.0 Mobile MQQBrowser/6.8 TBS/036824 Safari/537.36 MicroMessenger/6.3.27.880 NetType/cmnet Language/zh_CN'
p547
sg16
S'afbba824350f0e42f5e0474ce6eeb508'
p548
sa(dp549
g2
S'24971'
p550
sg4
S'3675'
p551
sg6
S'3cecce787d9c5f6e8a8de315e4ff3ee3'
p552
sg8
S'xxc1bfb3b94b102661f75615a5ce1e7bfc'
p553
sg10
S'xxa1eddb067d69156b5a420a68e90e67cd'
p554
sg12
S'xx1011b6f016676dcb23369c6891f867ff'
p555
sg14
S'Mozilla/5.0 (Linux; Android 4.4.2; 2014501 Build/KOT49H) AppleWebKit/537.36 (KHTML, like Gecko) Version/4.0 Chrome/37.0.0.0 Mobile MQQBrowser/6.8 TBS/036824 Safari/537.36 MicroMessenger/6.3.27.880 NetType/cmnet Language/zh_CN'
p556
sg16
S'afbba824350f0e42f5e0474ce6eeb508'
p557
sa(dp558
g2
S'24971'
p559
sg4
S'3720'
p560
sg6
S'3cecce787d9c5f6e8a8de315e4ff3ee3'
p561
sg8
S'xxc1bfb3b94b102661f75615a5ce1e7bfc'
p562
sg10
S'xxa1eddb067d69156b5a420a68e90e67cd'
p563
sg12
S'xx1011b6f016676dcb23369c6891f867ff'
p564
sg14
S'Mozilla/5.0 (Linux; Android 4.4.2; 2014501 Build/KOT49H) AppleWebKit/537.36 (KHTML, like Gecko) Version/4.0 Chrome/37.0.0.0 Mobile MQQBrowser/6.8 TBS/036824 Safari/537.36 MicroMessenger/6.3.27.880 NetType/cmnet Language/zh_CN'
p565
sg16
S'afbba824350f0e42f5e0474ce6eeb508'
p566
sa(dp567
g2
S'46791'
p568
sg4
S'3743'
p569
sg6
S'6d9be4f3deb5c49bc8d2d61f4a867a09'
p570
sg8
S'xxc81ed5840439af5c57271779b6652ab8'
p571
sg10
S'xxa1eddb067d69156b5a420a68e90e67cd'
p572
sg12
S'xx1011b6f016676dcb23369c6891f867ff'
p573
sg14
S'Mozilla/5.0 (Linux; Android 4.4.2; 2014501 Build/KOT49H) AppleWebKit/537.36 (KHTML, like Gecko) Version/4.0 Chrome/37.0.0.0 Mobile MQQBrowser/6.8 TBS/036869 Safari/537.36 MicroMessenger/6.3.27.880 NetType/WIFI Language/zh_CN'
p574
sg16
S'9061f7b601e438042d449f25a294de59'
p575
sa(dp576
g2
S'33854'
p577
sg4
S'3759'
p578
sg6
S'c06e95c18c2b0edd3df702e269c11330'
p579
sg8
S'xxb03f0c4ac4a88b1c3c51ce4a028f4c6d'
p580
sg10
S'xxa1eddb067d69156b5a420a68e90e67cd'
p581
sg12
S'xx1011b6f016676dcb23369c6891f867ff'
p582
sg14
S'Mozilla/5.0 (Linux; Android 4.4.2; 2014501 Build/KOT49H) AppleWebKit/537.36 (KHTML, like Gecko) Version/4.0 Chrome/37.0.0.0 Mobile MQQBrowser/6.8 TBS/036869 Safari/537.36 MicroMessenger/6.3.27.880 NetType/cmnet Language/zh_CN'
p583
sg16
S'0797d47fd7f6fdceaa24fe55fc2318e0'
p584
sa(dp585
g2
S'33854'
p586
sg4
S'3778'
p587
sg6
S'5b4cb80cd1c7e3aec9a6c2d7aab7ec2d'
p588
sg8
S'xxb03f0c4ac4a88b1c3c51ce4a028f4c6d'
p589
sg10
S'xxa1eddb067d69156b5a420a68e90e67cd'
p590
sg12
S'xx1011b6f016676dcb23369c6891f867ff'
p591
sg14
S'Mozilla/5.0 (Linux; Android 4.4.2; 2014501 Build/KOT49H) AppleWebKit/537.36 (KHTML, like Gecko) Version/4.0 Chrome/37.0.0.0 Mobile MQQBrowser/6.8 TBS/036869 Safari/537.36 MicroMessenger/6.3.27.880 NetType/cmnet Language/zh_CN'
p592
sg16
S'0797d47fd7f6fdceaa24fe55fc2318e0'
p593
sa(dp594
g2
S'33854'
p595
sg4
S'3793'
p596
sg6
S'5b4cb80cd1c7e3aec9a6c2d7aab7ec2d'
p597
sg8
S'xxb03f0c4ac4a88b1c3c51ce4a028f4c6d'
p598
sg10
S'xxa1eddb067d69156b5a420a68e90e67cd'
p599
sg12
S'xx1011b6f016676dcb23369c6891f867ff'
p600
sg14
S'Mozilla/5.0 (Linux; Android 4.4.2; 2014501 Build/KOT49H) AppleWebKit/537.36 (KHTML, like Gecko) Version/4.0 Chrome/37.0.0.0 Mobile MQQBrowser/6.8 TBS/036869 Safari/537.36 MicroMessenger/6.3.27.880 NetType/cmnet Language/zh_CN'
p601
sg16
S'0797d47fd7f6fdceaa24fe55fc2318e0'
p602
sa(dp603
g2
S'24971'
p604
sg4
S'3820'
p605
sg6
S'3cecce787d9c5f6e8a8de315e4ff3ee3'
p606
sg8
S'xxc1bfb3b94b102661f75615a5ce1e7bfc'
p607
sg10
S'xxa1eddb067d69156b5a420a68e90e67cd'
p608
sg12
S'xx1011b6f016676dcb23369c6891f867ff'
p609
sg14
S'Mozilla/5.0 (Linux; Android 4.4.2; 2014501 Build/KOT49H) AppleWebKit/537.36 (KHTML, like Gecko) Version/4.0 Chrome/37.0.0.0 Mobile MQQBrowser/6.8 TBS/036824 Safari/537.36 MicroMessenger/6.3.27.880 NetType/cmnet Language/zh_CN'
p610
sg16
S'afbba824350f0e42f5e0474ce6eeb508'
p611
sa(dp612
g2
S'33854'
p613
sg4
S'3827'
p614
sg6
S'5b4cb80cd1c7e3aec9a6c2d7aab7ec2d'
p615
sg8
S'xxc81ed5840439af5c57271779b6652ab8'
p616
sg10
S'xxa1eddb067d69156b5a420a68e90e67cd'
p617
sg12
S'xx1011b6f016676dcb23369c6891f867ff'
p618
sg14
S'Mozilla/5.0 (Linux; Android 4.4.2; 2014501 Build/KOT49H) AppleWebKit/537.36 (KHTML, like Gecko) Version/4.0 Chrome/37.0.0.0 Mobile MQQBrowser/6.8 TBS/036869 Safari/537.36 MicroMessenger/6.3.27.880 NetType/WIFI Language/zh_CN'
p619
sg16
S'9061f7b601e438042d449f25a294de59'
p620
sa(dp621
g2
S'24971'
p622
sg4
S'3841'
p623
sg6
S'3cecce787d9c5f6e8a8de315e4ff3ee3'
p624
sg8
S'xxc1bfb3b94b102661f75615a5ce1e7bfc'
p625
sg10
S'xxa1eddb067d69156b5a420a68e90e67cd'
p626
sg12
S'xx1011b6f016676dcb23369c6891f867ff'
p627
sg14
S'Mozilla/5.0 (Linux; Android 4.4.2; 2014501 Build/KOT49H) AppleWebKit/537.36 (KHTML, like Gecko) Version/4.0 Chrome/37.0.0.0 Mobile MQQBrowser/6.8 TBS/036824 Safari/537.36 MicroMessenger/6.3.27.880 NetType/cmnet Language/zh_CN'
p628
sg16
S'afbba824350f0e42f5e0474ce6eeb508'
p629
sa(dp630
g2
S'24971'
p631
sg4
S'3942'
p632
sg6
S'3cecce787d9c5f6e8a8de315e4ff3ee3'
p633
sg8
S'xxc1bfb3b94b102661f75615a5ce1e7bfc'
p634
sg10
S'xxa1eddb067d69156b5a420a68e90e67cd'
p635
sg12
S'xx1011b6f016676dcb23369c6891f867ff'
p636
sg14
S'Mozilla/5.0 (Linux; Android 4.4.2; 2014501 Build/KOT49H) AppleWebKit/537.36 (KHTML, like Gecko) Version/4.0 Chrome/37.0.0.0 Mobile MQQBrowser/6.8 TBS/036824 Safari/537.36 MicroMessenger/6.3.27.880 NetType/cmnet Language/zh_CN'
p637
sg16
S'afbba824350f0e42f5e0474ce6eeb508'
p638
sa(dp639
g2
S'46791'
p640
sg4
S'3945'
p641
sg6
S'6d9be4f3deb5c49bc8d2d61f4a867a09'
p642
sg8
S'xxc81ed5840439af5c57271779b6652ab8'
p643
sg10
S'xxa1eddb067d69156b5a420a68e90e67cd'
p644
sg12
S'xx1011b6f016676dcb23369c6891f867ff'
p645
sg14
S'Mozilla/5.0 (Linux; Android 4.4.2; 2014501 Build/KOT49H) AppleWebKit/537.36 (KHTML, like Gecko) Version/4.0 Chrome/37.0.0.0 Mobile MQQBrowser/6.8 TBS/036869 Safari/537.36 MicroMessenger/6.3.27.880 NetType/WIFI Language/zh_CN'
p646
sg16
S'9061f7b601e438042d449f25a294de59'
p647
sa(dp648
g2
S'46791'
p649
sg4
S'3960'
p650
sg6
S'6d9be4f3deb5c49bc8d2d61f4a867a09'
p651
sg8
S'xxc81ed5840439af5c57271779b6652ab8'
p652
sg10
S'xxa1eddb067d69156b5a420a68e90e67cd'
p653
sg12
S'xx1011b6f016676dcb23369c6891f867ff'
p654
sg14
S'Mozilla/5.0 (Linux; Android 4.4.2; 2014501 Build/KOT49H) AppleWebKit/537.36 (KHTML, like Gecko) Version/4.0 Chrome/37.0.0.0 Mobile MQQBrowser/6.8 TBS/036869 Safari/537.36 MicroMessenger/6.3.27.880 NetType/WIFI Language/zh_CN'
p655
sg16
S'9061f7b601e438042d449f25a294de59'
p656
sa(dp657
g2
S'46791'
p658
sg4
S'4031'
p659
sg6
S'6d9be4f3deb5c49bc8d2d61f4a867a09'
p660
sg8
S'xxc81ed5840439af5c57271779b6652ab8'
p661
sg10
S'xxa1eddb067d69156b5a420a68e90e67cd'
p662
sg12
S'xx1011b6f016676dcb23369c6891f867ff'
p663
sg14
S'Mozilla/5.0 (Linux; Android 4.4.2; 2014501 Build/KOT49H) AppleWebKit/537.36 (KHTML, like Gecko) Version/4.0 Chrome/37.0.0.0 Mobile MQQBrowser/6.8 TBS/036869 Safari/537.36 MicroMessenger/6.3.27.880 NetType/WIFI Language/zh_CN'
p664
sg16
S'9061f7b601e438042d449f25a294de59'
p665
sa(dp666
g2
S'24971'
p667
sg4
S'4109'
p668
sg6
S'3cecce787d9c5f6e8a8de315e4ff3ee3'
p669
sg8
S'xxc1bfb3b94b102661f75615a5ce1e7bfc'
p670
sg10
S'xxa1eddb067d69156b5a420a68e90e67cd'
p671
sg12
S'xx1011b6f016676dcb23369c6891f867ff'
p672
sg14
S'Mozilla/5.0 (Linux; Android 4.4.2; 2014501 Build/KOT49H) AppleWebKit/537.36 (KHTML, like Gecko) Version/4.0 Chrome/37.0.0.0 Mobile MQQBrowser/6.8 TBS/036824 Safari/537.36 MicroMessenger/6.3.27.880 NetType/cmnet Language/zh_CN'
p673
sg16
S'afbba824350f0e42f5e0474ce6eeb508'
p674
sa(dp675
g2
S'24971'
p676
sg4
S'4137'
p677
sg6
S'3cecce787d9c5f6e8a8de315e4ff3ee3'
p678
sg8
S'xxc1bfb3b94b102661f75615a5ce1e7bfc'
p679
sg10
S'xxa1eddb067d69156b5a420a68e90e67cd'
p680
sg12
S'xx1011b6f016676dcb23369c6891f867ff'
p681
sg14
S'Mozilla/5.0 (Linux; Android 4.4.2; 2014501 Build/KOT49H) AppleWebKit/537.36 (KHTML, like Gecko) Version/4.0 Chrome/37.0.0.0 Mobile MQQBrowser/6.8 TBS/036824 Safari/537.36 MicroMessenger/6.3.27.880 NetType/cmnet Language/zh_CN'
p682
sg16
S'afbba824350f0e42f5e0474ce6eeb508'
p683
sa(dp684
g2
S'46791'
p685
sg4
S'4184'
p686
sg6
S'c8fee81dc424da99adc3c52a6bbe7e72'
p687
sg8
S'xxc81ed5840439af5c57271779b6652ab8'
p688
sg10
S'xxa1eddb067d69156b5a420a68e90e67cd'
p689
sg12
S'xx1011b6f016676dcb23369c6891f867ff'
p690
sg14
S'Mozilla/5.0 (Linux; Android 4.4.2; 2014501 Build/KOT49H) AppleWebKit/537.36 (KHTML, like Gecko) Version/4.0 Chrome/37.0.0.0 Mobile MQQBrowser/6.8 TBS/036869 Safari/537.36 MicroMessenger/6.3.27.880 NetType/WIFI Language/zh_CN'
p691
sg16
S'9061f7b601e438042d449f25a294de59'
p692
sa(dp693
g2
S'46791'
p694
sg4
S'4208'
p695
sg6
S'c8fee81dc424da99adc3c52a6bbe7e72'
p696
sg8
S'xxc81ed5840439af5c57271779b6652ab8'
p697
sg10
S'xxa1eddb067d69156b5a420a68e90e67cd'
p698
sg12
S'xx1011b6f016676dcb23369c6891f867ff'
p699
sg14
S'Mozilla/5.0 (Linux; Android 4.4.2; 2014501 Build/KOT49H) AppleWebKit/537.36 (KHTML, like Gecko) Version/4.0 Chrome/37.0.0.0 Mobile MQQBrowser/6.8 TBS/036869 Safari/537.36 MicroMessenger/6.3.27.880 NetType/WIFI Language/zh_CN'
p700
sg16
S'9061f7b601e438042d449f25a294de59'
p701
sa(dp702
g2
S'46791'
p703
sg4
S'4225'
p704
sg6
S'c8fee81dc424da99adc3c52a6bbe7e72'
p705
sg8
S'xxc81ed5840439af5c57271779b6652ab8'
p706
sg10
S'xxa1eddb067d69156b5a420a68e90e67cd'
p707
sg12
S'xx1011b6f016676dcb23369c6891f867ff'
p708
sg14
S'Mozilla/5.0 (Linux; Android 4.4.2; 2014501 Build/KOT49H) AppleWebKit/537.36 (KHTML, like Gecko) Version/4.0 Chrome/37.0.0.0 Mobile MQQBrowser/6.8 TBS/036869 Safari/537.36 MicroMessenger/6.3.27.880 NetType/WIFI Language/zh_CN'
p709
sg16
S'9061f7b601e438042d449f25a294de59'
p710
sa(dp711
g2
S'46368'
p712
sg4
S'4247'
p713
sg6
S'438d58b6cfbee48006a9bc087237f75a'
p714
sg8
S'xxc81ed5840439af5c57271779b6652ab8'
p715
sg10
S'xxa1eddb067d69156b5a420a68e90e67cd'
p716
sg12
S'xx1011b6f016676dcb23369c6891f867ff'
p717
sg14
S'Mozilla/5.0 (Linux; Android 4.4.2; 2014501 Build/KOT49H) AppleWebKit/537.36 (KHTML, like Gecko) Version/4.0 Chrome/37.0.0.0 Mobile MQQBrowser/6.8 TBS/036869 Safari/537.36 MicroMessenger/6.3.27.880 NetType/WIFI Language/zh_CN'
p718
sg16
S'9061f7b601e438042d449f25a294de59'
p719
sa(dp720
g2
S'46791'
p721
sg4
S'4249'
p722
sg6
S'c8fee81dc424da99adc3c52a6bbe7e72'
p723
sg8
S'xxc81ed5840439af5c57271779b6652ab8'
p724
sg10
S'xxa1eddb067d69156b5a420a68e90e67cd'
p725
sg12
S'xx1011b6f016676dcb23369c6891f867ff'
p726
sg14
S'Mozilla/5.0 (Linux; Android 4.4.2; 2014501 Build/KOT49H) AppleWebKit/537.36 (KHTML, like Gecko) Version/4.0 Chrome/37.0.0.0 Mobile MQQBrowser/6.8 TBS/036869 Safari/537.36 MicroMessenger/6.3.27.880 NetType/WIFI Language/zh_CN'
p727
sg16
S'9061f7b601e438042d449f25a294de59'
p728
sa(dp729
g2
S'46791'
p730
sg4
S'4282'
p731
sg6
S'c8fee81dc424da99adc3c52a6bbe7e72'
p732
sg8
S'xxc81ed5840439af5c57271779b6652ab8'
p733
sg10
S'xxa1eddb067d69156b5a420a68e90e67cd'
p734
sg12
S'xx1011b6f016676dcb23369c6891f867ff'
p735
sg14
S'Mozilla/5.0 (Linux; Android 4.4.2; 2014501 Build/KOT49H) AppleWebKit/537.36 (KHTML, like Gecko) Version/4.0 Chrome/37.0.0.0 Mobile MQQBrowser/6.8 TBS/036869 Safari/537.36 MicroMessenger/6.3.27.880 NetType/WIFI Language/zh_CN'
p736
sg16
S'9061f7b601e438042d449f25a294de59'
p737
sa(dp738
g2
S'46791'
p739
sg4
S'4301'
p740
sg6
S'c8fee81dc424da99adc3c52a6bbe7e72'
p741
sg8
S'xxc81ed5840439af5c57271779b6652ab8'
p742
sg10
S'xxa1eddb067d69156b5a420a68e90e67cd'
p743
sg12
S'xx1011b6f016676dcb23369c6891f867ff'
p744
sg14
S'Mozilla/5.0 (Linux; Android 4.4.2; 2014501 Build/KOT49H) AppleWebKit/537.36 (KHTML, like Gecko) Version/4.0 Chrome/37.0.0.0 Mobile MQQBrowser/6.8 TBS/036869 Safari/537.36 MicroMessenger/6.3.27.880 NetType/WIFI Language/zh_CN'
p745
sg16
S'9061f7b601e438042d449f25a294de59'
p746
sa(dp747
g2
S'33854'
p748
sg4
S'4389'
p749
sg6
S'5b4cb80cd1c7e3aec9a6c2d7aab7ec2d'
p750
sg8
S'xxc81ed5840439af5c57271779b6652ab8'
p751
sg10
S'xxa1eddb067d69156b5a420a68e90e67cd'
p752
sg12
S'xx1011b6f016676dcb23369c6891f867ff'
p753
sg14
S'Mozilla/5.0 (Linux; Android 4.4.2; 2014501 Build/KOT49H) AppleWebKit/537.36 (KHTML, like Gecko) Version/4.0 Chrome/37.0.0.0 Mobile MQQBrowser/6.8 TBS/036869 Safari/537.36 MicroMessenger/6.3.27.880 NetType/WIFI Language/zh_CN'
p754
sg16
S'9061f7b601e438042d449f25a294de59'
p755
sa(dp756
g2
S'46791'
p757
sg4
S'4437'
p758
sg6
S'51b58dc5f9f1e54906bd6575a7254f6d'
p759
sg8
S'xxc81ed5840439af5c57271779b6652ab8'
p760
sg10
S'xxa1eddb067d69156b5a420a68e90e67cd'
p761
sg12
S'xx1011b6f016676dcb23369c6891f867ff'
p762
sg14
S'Mozilla/5.0 (Linux; Android 4.4.2; 2014501 Build/KOT49H) AppleWebKit/537.36 (KHTML, like Gecko) Version/4.0 Chrome/37.0.0.0 Mobile MQQBrowser/6.8 TBS/036869 Safari/537.36 MicroMessenger/6.3.27.880 NetType/WIFI Language/zh_CN'
p763
sg16
S'9061f7b601e438042d449f25a294de59'
p764
sa(dp765
g2
S'46791'
p766
sg4
S'4453'
p767
sg6
S'51b58dc5f9f1e54906bd6575a7254f6d'
p768
sg8
S'xxc81ed5840439af5c57271779b6652ab8'
p769
sg10
S'xxa1eddb067d69156b5a420a68e90e67cd'
p770
sg12
S'xx1011b6f016676dcb23369c6891f867ff'
p771
sg14
S'Mozilla/5.0 (Linux; Android 4.4.2; 2014501 Build/KOT49H) AppleWebKit/537.36 (KHTML, like Gecko) Version/4.0 Chrome/37.0.0.0 Mobile MQQBrowser/6.8 TBS/036869 Safari/537.36 MicroMessenger/6.3.27.880 NetType/WIFI Language/zh_CN'
p772
sg16
S'9061f7b601e438042d449f25a294de59'
p773
sa(dp774
g2
S'46791'
p775
sg4
S'4465'
p776
sg6
S'51b58dc5f9f1e54906bd6575a7254f6d'
p777
sg8
S'xxc81ed5840439af5c57271779b6652ab8'
p778
sg10
S'xxa1eddb067d69156b5a420a68e90e67cd'
p779
sg12
S'xx1011b6f016676dcb23369c6891f867ff'
p780
sg14
S'Mozilla/5.0 (Linux; Android 4.4.2; 2014501 Build/KOT49H) AppleWebKit/537.36 (KHTML, like Gecko) Version/4.0 Chrome/37.0.0.0 Mobile MQQBrowser/6.8 TBS/036869 Safari/537.36 MicroMessenger/6.3.27.880 NetType/WIFI Language/zh_CN'
p781
sg16
S'9061f7b601e438042d449f25a294de59'
p782
sa(dp783
g2
S'46791'
p784
sg4
S'4483'
p785
sg6
S'51b58dc5f9f1e54906bd6575a7254f6d'
p786
sg8
S'xxc81ed5840439af5c57271779b6652ab8'
p787
sg10
S'xxa1eddb067d69156b5a420a68e90e67cd'
p788
sg12
S'xx1011b6f016676dcb23369c6891f867ff'
p789
sg14
S'Mozilla/5.0 (Linux; Android 4.4.2; 2014501 Build/KOT49H) AppleWebKit/537.36 (KHTML, like Gecko) Version/4.0 Chrome/37.0.0.0 Mobile MQQBrowser/6.8 TBS/036869 Safari/537.36 MicroMessenger/6.3.27.880 NetType/WIFI Language/zh_CN'
p790
sg16
S'9061f7b601e438042d449f25a294de59'
p791
sa(dp792
g2
S'46791'
p793
sg4
S'4509'
p794
sg6
S'51b58dc5f9f1e54906bd6575a7254f6d'
p795
sg8
S'xxc81ed5840439af5c57271779b6652ab8'
p796
sg10
S'xxa1eddb067d69156b5a420a68e90e67cd'
p797
sg12
S'xx1011b6f016676dcb23369c6891f867ff'
p798
sg14
S'Mozilla/5.0 (Linux; Android 4.4.2; 2014501 Build/KOT49H) AppleWebKit/537.36 (KHTML, like Gecko) Version/4.0 Chrome/37.0.0.0 Mobile MQQBrowser/6.8 TBS/036869 Safari/537.36 MicroMessenger/6.3.27.880 NetType/WIFI Language/zh_CN'
p799
sg16
S'9061f7b601e438042d449f25a294de59'
p800
sa(dp801
g2
S'46791'
p802
sg4
S'4530'
p803
sg6
S'51b58dc5f9f1e54906bd6575a7254f6d'
p804
sg8
S'xxc81ed5840439af5c57271779b6652ab8'
p805
sg10
S'xxa1eddb067d69156b5a420a68e90e67cd'
p806
sg12
S'xx1011b6f016676dcb23369c6891f867ff'
p807
sg14
S'Mozilla/5.0 (Linux; Android 4.4.2; 2014501 Build/KOT49H) AppleWebKit/537.36 (KHTML, like Gecko) Version/4.0 Chrome/37.0.0.0 Mobile MQQBrowser/6.8 TBS/036869 Safari/537.36 MicroMessenger/6.3.27.880 NetType/WIFI Language/zh_CN'
p808
sg16
S'9061f7b601e438042d449f25a294de59'
p809
sa(dp810
g2
S'46791'
p811
sg4
S'4548'
p812
sg6
S'51b58dc5f9f1e54906bd6575a7254f6d'
p813
sg8
S'xxc81ed5840439af5c57271779b6652ab8'
p814
sg10
S'xxa1eddb067d69156b5a420a68e90e67cd'
p815
sg12
S'xx1011b6f016676dcb23369c6891f867ff'
p816
sg14
S'Mozilla/5.0 (Linux; Android 4.4.2; 2014501 Build/KOT49H) AppleWebKit/537.36 (KHTML, like Gecko) Version/4.0 Chrome/37.0.0.0 Mobile MQQBrowser/6.8 TBS/036869 Safari/537.36 MicroMessenger/6.3.27.880 NetType/WIFI Language/zh_CN'
p817
sg16
S'9061f7b601e438042d449f25a294de59'
p818
sa(dp819
g2
S'46791'
p820
sg4
S'4572'
p821
sg6
S'51b58dc5f9f1e54906bd6575a7254f6d'
p822
sg8
S'xxc81ed5840439af5c57271779b6652ab8'
p823
sg10
S'xxa1eddb067d69156b5a420a68e90e67cd'
p824
sg12
S'xx1011b6f016676dcb23369c6891f867ff'
p825
sg14
S'Mozilla/5.0 (Linux; Android 4.4.2; 2014501 Build/KOT49H) AppleWebKit/537.36 (KHTML, like Gecko) Version/4.0 Chrome/37.0.0.0 Mobile MQQBrowser/6.8 TBS/036869 Safari/537.36 MicroMessenger/6.3.27.880 NetType/WIFI Language/zh_CN'
p826
sg16
S'9061f7b601e438042d449f25a294de59'
p827
sa(dp828
g2
S'46791'
p829
sg4
S'4590'
p830
sg6
S'51b58dc5f9f1e54906bd6575a7254f6d'
p831
sg8
S'xxc81ed5840439af5c57271779b6652ab8'
p832
sg10
S'xxa1eddb067d69156b5a420a68e90e67cd'
p833
sg12
S'xx1011b6f016676dcb23369c6891f867ff'
p834
sg14
S'Mozilla/5.0 (Linux; Android 4.4.2; 2014501 Build/KOT49H) AppleWebKit/537.36 (KHTML, like Gecko) Version/4.0 Chrome/37.0.0.0 Mobile MQQBrowser/6.8 TBS/036869 Safari/537.36 MicroMessenger/6.3.27.880 NetType/WIFI Language/zh_CN'
p835
sg16
S'9061f7b601e438042d449f25a294de59'
p836
sa(dp837
g2
S'46791'
p838
sg4
S'4607'
p839
sg6
S'51b58dc5f9f1e54906bd6575a7254f6d'
p840
sg8
S'xxc81ed5840439af5c57271779b6652ab8'
p841
sg10
S'xxa1eddb067d69156b5a420a68e90e67cd'
p842
sg12
S'xx1011b6f016676dcb23369c6891f867ff'
p843
sg14
S'Mozilla/5.0 (Linux; Android 4.4.2; 2014501 Build/KOT49H) AppleWebKit/537.36 (KHTML, like Gecko) Version/4.0 Chrome/37.0.0.0 Mobile MQQBrowser/6.8 TBS/036869 Safari/537.36 MicroMessenger/6.3.27.880 NetType/WIFI Language/zh_CN'
p844
sg16
S'9061f7b601e438042d449f25a294de59'
p845
sa(dp846
g2
S'46791'
p847
sg4
S'4620'
p848
sg6
S'51b58dc5f9f1e54906bd6575a7254f6d'
p849
sg8
S'xxc81ed5840439af5c57271779b6652ab8'
p850
sg10
S'xxa1eddb067d69156b5a420a68e90e67cd'
p851
sg12
S'xx1011b6f016676dcb23369c6891f867ff'
p852
sg14
S'Mozilla/5.0 (Linux; Android 4.4.2; 2014501 Build/KOT49H) AppleWebKit/537.36 (KHTML, like Gecko) Version/4.0 Chrome/37.0.0.0 Mobile MQQBrowser/6.8 TBS/036869 Safari/537.36 MicroMessenger/6.3.27.880 NetType/WIFI Language/zh_CN'
p853
sg16
S'9061f7b601e438042d449f25a294de59'
p854
sa(dp855
g2
S'33854'
p856
sg4
S'4648'
p857
sg6
S'5b4cb80cd1c7e3aec9a6c2d7aab7ec2d'
p858
sg8
S'xxc81ed5840439af5c57271779b6652ab8'
p859
sg10
S'xxa1eddb067d69156b5a420a68e90e67cd'
p860
sg12
S'xx1011b6f016676dcb23369c6891f867ff'
p861
sg14
S'Mozilla/5.0 (Linux; Android 4.4.2; 2014501 Build/KOT49H) AppleWebKit/537.36 (KHTML, like Gecko) Version/4.0 Chrome/37.0.0.0 Mobile MQQBrowser/6.8 TBS/036869 Safari/537.36 MicroMessenger/6.3.27.880 NetType/WIFI Language/zh_CN'
p862
sg16
S'9061f7b601e438042d449f25a294de59'
p863
sa(dp864
g2
S'33854'
p865
sg4
S'4665'
p866
sg6
S'5b4cb80cd1c7e3aec9a6c2d7aab7ec2d'
p867
sg8
S'xxc81ed5840439af5c57271779b6652ab8'
p868
sg10
S'xxa1eddb067d69156b5a420a68e90e67cd'
p869
sg12
S'xx1011b6f016676dcb23369c6891f867ff'
p870
sg14
S'Mozilla/5.0 (Linux; Android 4.4.2; 2014501 Build/KOT49H) AppleWebKit/537.36 (KHTML, like Gecko) Version/4.0 Chrome/37.0.0.0 Mobile MQQBrowser/6.8 TBS/036869 Safari/537.36 MicroMessenger/6.3.27.880 NetType/WIFI Language/zh_CN'
p871
sg16
S'9061f7b601e438042d449f25a294de59'
p872
sa(dp873
g2
S'46368'
p874
sg4
S'4843'
p875
sg6
S'438d58b6cfbee48006a9bc087237f75a'
p876
sg8
S'xxc81ed5840439af5c57271779b6652ab8'
p877
sg10
S'xxa1eddb067d69156b5a420a68e90e67cd'
p878
sg12
S'xx1011b6f016676dcb23369c6891f867ff'
p879
sg14
S'Mozilla/5.0 (Linux; Android 4.4.2; 2014501 Build/KOT49H) AppleWebKit/537.36 (KHTML, like Gecko) Version/4.0 Chrome/37.0.0.0 Mobile MQQBrowser/6.8 TBS/036869 Safari/537.36 MicroMessenger/6.3.27.880 NetType/WIFI Language/zh_CN'
p880
sg16
S'9061f7b601e438042d449f25a294de59'
p881
sa(dp882
g2
S'46368'
p883
sg4
S'5026'
p884
sg6
S'438d58b6cfbee48006a9bc087237f75a'
p885
sg8
S'xxc81ed5840439af5c57271779b6652ab8'
p886
sg10
S'xxa1eddb067d69156b5a420a68e90e67cd'
p887
sg12
S'xx1011b6f016676dcb23369c6891f867ff'
p888
sg14
S'Mozilla/5.0 (Linux; Android 4.4.2; 2014501 Build/KOT49H) AppleWebKit/537.36 (KHTML, like Gecko) Version/4.0 Chrome/37.0.0.0 Mobile MQQBrowser/6.8 TBS/036869 Safari/537.36 MicroMessenger/6.3.27.880 NetType/WIFI Language/zh_CN'
p889
sg16
S'9061f7b601e438042d449f25a294de59'
p890
sa(dp891
g2
S'46791'
p892
sg4
S'5130'
p893
sg6
S'51b58dc5f9f1e54906bd6575a7254f6d'
p894
sg8
S'xxc81ed5840439af5c57271779b6652ab8'
p895
sg10
S'xxa1eddb067d69156b5a420a68e90e67cd'
p896
sg12
S'xx1011b6f016676dcb23369c6891f867ff'
p897
sg14
S'Mozilla/5.0 (Linux; Android 4.4.2; 2014501 Build/KOT49H) AppleWebKit/537.36 (KHTML, like Gecko) Version/4.0 Chrome/37.0.0.0 Mobile MQQBrowser/6.8 TBS/036869 Safari/537.36 MicroMessenger/6.3.27.880 NetType/WIFI Language/zh_CN'
p898
sg16
S'9061f7b601e438042d449f25a294de59'
p899
sa(dp900
g2
S'46791'
p901
sg4
S'5149'
p902
sg6
S'51b58dc5f9f1e54906bd6575a7254f6d'
p903
sg8
S'xxc81ed5840439af5c57271779b6652ab8'
p904
sg10
S'xxa1eddb067d69156b5a420a68e90e67cd'
p905
sg12
S'xx1011b6f016676dcb23369c6891f867ff'
p906
sg14
S'Mozilla/5.0 (Linux; Android 4.4.2; 2014501 Build/KOT49H) AppleWebKit/537.36 (KHTML, like Gecko) Version/4.0 Chrome/37.0.0.0 Mobile MQQBrowser/6.8 TBS/036869 Safari/537.36 MicroMessenger/6.3.27.880 NetType/WIFI Language/zh_CN'
p907
sg16
S'9061f7b601e438042d449f25a294de59'
p908
sa(dp909
g2
S'49797'
p910
sg4
S'5153'
p911
sg6
S'f103dd8ad154ecd7708017125afe3641'
p912
sg8
S'xxb95ac5c714470ea30c2393a07105757c'
p913
sg10
S'xxa1eddb067d69156b5a420a68e90e67cd'
p914
sg12
S'xx1011b6f016676dcb23369c6891f867ff'
p915
sg14
S'Mozilla/5.0 (Linux; Android 4.4.2; 2014501 Build/KOT49H) AppleWebKit/537.36 (KHTML, like Gecko) Version/4.0 Chrome/37.0.0.0 Mobile MQQBrowser/6.8 TBS/036849 Safari/537.36 MicroMessenger/6.3.27.880 NetType/WIFI Language/zh_CN'
p916
sg16
S'1175d6e1719d868e9cbd871eb303bd76'
p917
sa(dp918
g2
S'49797'
p919
sg4
S'5172'
p920
sg6
S'f103dd8ad154ecd7708017125afe3641'
p921
sg8
S'xxb95ac5c714470ea30c2393a07105757c'
p922
sg10
S'xxa1eddb067d69156b5a420a68e90e67cd'
p923
sg12
S'xx1011b6f016676dcb23369c6891f867ff'
p924
sg14
S'Mozilla/5.0 (Linux; Android 4.4.2; 2014501 Build/KOT49H) AppleWebKit/537.36 (KHTML, like Gecko) Version/4.0 Chrome/37.0.0.0 Mobile MQQBrowser/6.8 TBS/036849 Safari/537.36 MicroMessenger/6.3.27.880 NetType/WIFI Language/zh_CN'
p925
sg16
S'1175d6e1719d868e9cbd871eb303bd76'
p926
sa(dp927
g2
S'49797'
p928
sg4
S'5194'
p929
sg6
S'f103dd8ad154ecd7708017125afe3641'
p930
sg8
S'xxb95ac5c714470ea30c2393a07105757c'
p931
sg10
S'xxa1eddb067d69156b5a420a68e90e67cd'
p932
sg12
S'xx1011b6f016676dcb23369c6891f867ff'
p933
sg14
S'Mozilla/5.0 (Linux; Android 4.4.2; 2014501 Build/KOT49H) AppleWebKit/537.36 (KHTML, like Gecko) Version/4.0 Chrome/37.0.0.0 Mobile MQQBrowser/6.8 TBS/036849 Safari/537.36 MicroMessenger/6.3.27.880 NetType/WIFI Language/zh_CN'
p934
sg16
S'1175d6e1719d868e9cbd871eb303bd76'
p935
sa(dp936
g2
S'33854'
p937
sg4
S'5201'
p938
sg6
S'5b4cb80cd1c7e3aec9a6c2d7aab7ec2d'
p939
sg8
S'xxc81ed5840439af5c57271779b6652ab8'
p940
sg10
S'xxa1eddb067d69156b5a420a68e90e67cd'
p941
sg12
S'xx1011b6f016676dcb23369c6891f867ff'
p942
sg14
S'Mozilla/5.0 (Linux; Android 4.4.2; 2014501 Build/KOT49H) AppleWebKit/537.36 (KHTML, like Gecko) Version/4.0 Chrome/37.0.0.0 Mobile MQQBrowser/6.8 TBS/036869 Safari/537.36 MicroMessenger/6.3.27.880 NetType/WIFI Language/zh_CN'
p943
sg16
S'9061f7b601e438042d449f25a294de59'
p944
sa(dp945
g2
S'33854'
p946
sg4
S'5216'
p947
sg6
S'5b4cb80cd1c7e3aec9a6c2d7aab7ec2d'
p948
sg8
S'xxc81ed5840439af5c57271779b6652ab8'
p949
sg10
S'xxa1eddb067d69156b5a420a68e90e67cd'
p950
sg12
S'xx1011b6f016676dcb23369c6891f867ff'
p951
sg14
S'Mozilla/5.0 (Linux; Android 4.4.2; 2014501 Build/KOT49H) AppleWebKit/537.36 (KHTML, like Gecko) Version/4.0 Chrome/37.0.0.0 Mobile MQQBrowser/6.8 TBS/036869 Safari/537.36 MicroMessenger/6.3.27.880 NetType/WIFI Language/zh_CN'
p952
sg16
S'9061f7b601e438042d449f25a294de59'
p953
sa(dp954
g2
S'8563'
p955
sg4
S'5235'
p956
sg6
S'd788a82af641c3c8a0910a00b399848e'
p957
sg8
S'xxb95ac5c714470ea30c2393a07105757c'
p958
sg10
S'xxa1eddb067d69156b5a420a68e90e67cd'
p959
sg12
S'xx1011b6f016676dcb23369c6891f867ff'
p960
sg14
S'Mozilla/5.0 (Linux; Android 4.4.2; 2014501 Build/KOT49H) AppleWebKit/537.36 (KHTML, like Gecko) Version/4.0 Chrome/37.0.0.0 Mobile MQQBrowser/6.8 TBS/036849 Safari/537.36 MicroMessenger/6.3.27.880 NetType/WIFI Language/zh_CN'
p961
sg16
S'1175d6e1719d868e9cbd871eb303bd76'
p962
sa(dp963
g2
S'8563'
p964
sg4
S'5253'
p965
sg6
S'd788a82af641c3c8a0910a00b399848e'
p966
sg8
S'xx217dfd4c5f5604a6b56c610f7d045b46'
p967
sg10
S'xxa1eddb067d69156b5a420a68e90e67cd'
p968
sg12
S'xx1011b6f016676dcb23369c6891f867ff'
p969
sg14
S'Mozilla/5.0 (Linux; Android 4.4.2; 2014501 Build/KOT49H) AppleWebKit/537.36 (KHTML, like Gecko) Version/4.0 Chrome/37.0.0.0 Mobile MQQBrowser/6.8 TBS/036849 Safari/537.36 MicroMessenger/6.3.27.880 NetType/cmnet Language/zh_CN'
p970
sg16
S'fa53331e0fd33fc1b7ff400acb6970ec'
p971
sa(dp972
g2
S'8563'
p973
sg4
S'5269'
p974
sg6
S'd788a82af641c3c8a0910a00b399848e'
p975
sg8
S'xx217dfd4c5f5604a6b56c610f7d045b46'
p976
sg10
S'xxa1eddb067d69156b5a420a68e90e67cd'
p977
sg12
S'xx1011b6f016676dcb23369c6891f867ff'
p978
sg14
S'Mozilla/5.0 (Linux; Android 4.4.2; 2014501 Build/KOT49H) AppleWebKit/537.36 (KHTML, like Gecko) Version/4.0 Chrome/37.0.0.0 Mobile MQQBrowser/6.8 TBS/036849 Safari/537.36 MicroMessenger/6.3.27.880 NetType/cmnet Language/zh_CN'
p979
sg16
S'fa53331e0fd33fc1b7ff400acb6970ec'
p980
sa(dp981
g2
S'46368'
p982
sg4
S'5416'
p983
sg6
S'438d58b6cfbee48006a9bc087237f75a'
p984
sg8
S'xxc81ed5840439af5c57271779b6652ab8'
p985
sg10
S'xxa1eddb067d69156b5a420a68e90e67cd'
p986
sg12
S'xx1011b6f016676dcb23369c6891f867ff'
p987
sg14
S'Mozilla/5.0 (Linux; Android 4.4.2; 2014501 Build/KOT49H) AppleWebKit/537.36 (KHTML, like Gecko) Version/4.0 Chrome/37.0.0.0 Mobile MQQBrowser/6.8 TBS/036869 Safari/537.36 MicroMessenger/6.3.27.880 NetType/WIFI Language/zh_CN'
p988
sg16
S'9061f7b601e438042d449f25a294de59'
p989
sa(dp990
g2
S'46791'
p991
sg4
S'5444'
p992
sg6
S'51b58dc5f9f1e54906bd6575a7254f6d'
p993
sg8
S'xxc81ed5840439af5c57271779b6652ab8'
p994
sg10
S'xxa1eddb067d69156b5a420a68e90e67cd'
p995
sg12
S'xx1011b6f016676dcb23369c6891f867ff'
p996
sg14
S'Mozilla/5.0 (Linux; Android 4.4.2; 2014501 Build/KOT49H) AppleWebKit/537.36 (KHTML, like Gecko) Version/4.0 Chrome/37.0.0.0 Mobile MQQBrowser/6.8 TBS/036869 Safari/537.36 MicroMessenger/6.3.27.880 NetType/WIFI Language/zh_CN'
p997
sg16
S'9061f7b601e438042d449f25a294de59'
p998
sa(dp999
g2
S'46791'
p1000
sg4
S'5626'
p1001
sg6
S'51b58dc5f9f1e54906bd6575a7254f6d'
p1002
sg8
S'xxc81ed5840439af5c57271779b6652ab8'
p1003
sg10
S'xxa1eddb067d69156b5a420a68e90e67cd'
p1004
sg12
S'xx1011b6f016676dcb23369c6891f867ff'
p1005
sg14
S'Mozilla/5.0 (Linux; Android 4.4.2; 2014501 Build/KOT49H) AppleWebKit/537.36 (KHTML, like Gecko) Version/4.0 Chrome/37.0.0.0 Mobile MQQBrowser/6.8 TBS/036869 Safari/537.36 MicroMessenger/6.3.27.880 NetType/WIFI Language/zh_CN'
p1006
sg16
S'9061f7b601e438042d449f25a294de59'
p1007
sa(dp1008
g2
S'46791'
p1009
sg4
S'5642'
p1010
sg6
S'51b58dc5f9f1e54906bd6575a7254f6d'
p1011
sg8
S'xxc81ed5840439af5c57271779b6652ab8'
p1012
sg10
S'xxa1eddb067d69156b5a420a68e90e67cd'
p1013
sg12
S'xx1011b6f016676dcb23369c6891f867ff'
p1014
sg14
S'Mozilla/5.0 (Linux; Android 4.4.2; 2014501 Build/KOT49H) AppleWebKit/537.36 (KHTML, like Gecko) Version/4.0 Chrome/37.0.0.0 Mobile MQQBrowser/6.8 TBS/036869 Safari/537.36 MicroMessenger/6.3.27.880 NetType/WIFI Language/zh_CN'
p1015
sg16
S'9061f7b601e438042d449f25a294de59'
p1016
sa(dp1017
g2
S'46791'
p1018
sg4
S'5695'
p1019
sg6
S'51b58dc5f9f1e54906bd6575a7254f6d'
p1020
sg8
S'xxc81ed5840439af5c57271779b6652ab8'
p1021
sg10
S'xxa1eddb067d69156b5a420a68e90e67cd'
p1022
sg12
S'xx1011b6f016676dcb23369c6891f867ff'
p1023
sg14
S'Mozilla/5.0 (Linux; Android 4.4.2; 2014501 Build/KOT49H) AppleWebKit/537.36 (KHTML, like Gecko) Version/4.0 Chrome/37.0.0.0 Mobile MQQBrowser/6.8 TBS/036869 Safari/537.36 MicroMessenger/6.3.27.880 NetType/WIFI Language/zh_CN'
p1024
sg16
S'9061f7b601e438042d449f25a294de59'
p1025
sa(dp1026
g2
S'46791'
p1027
sg4
S'5711'
p1028
sg6
S'51b58dc5f9f1e54906bd6575a7254f6d'
p1029
sg8
S'xxc81ed5840439af5c57271779b6652ab8'
p1030
sg10
S'xxa1eddb067d69156b5a420a68e90e67cd'
p1031
sg12
S'xx1011b6f016676dcb23369c6891f867ff'
p1032
sg14
S'Mozilla/5.0 (Linux; Android 4.4.2; 2014501 Build/KOT49H) AppleWebKit/537.36 (KHTML, like Gecko) Version/4.0 Chrome/37.0.0.0 Mobile MQQBrowser/6.8 TBS/036869 Safari/537.36 MicroMessenger/6.3.27.880 NetType/WIFI Language/zh_CN'
p1033
sg16
S'9061f7b601e438042d449f25a294de59'
p1034
sa(dp1035
g2
S'46791'
p1036
sg4
S'5725'
p1037
sg6
S'51b58dc5f9f1e54906bd6575a7254f6d'
p1038
sg8
S'xxc81ed5840439af5c57271779b6652ab8'
p1039
sg10
S'xxa1eddb067d69156b5a420a68e90e67cd'
p1040
sg12
S'xx1011b6f016676dcb23369c6891f867ff'
p1041
sg14
S'Mozilla/5.0 (Linux; Android 4.4.2; 2014501 Build/KOT49H) AppleWebKit/537.36 (KHTML, like Gecko) Version/4.0 Chrome/37.0.0.0 Mobile MQQBrowser/6.8 TBS/036869 Safari/537.36 MicroMessenger/6.3.27.880 NetType/WIFI Language/zh_CN'
p1042
sg16
S'9061f7b601e438042d449f25a294de59'
p1043
sa(dp1044
g2
S'33854'
p1045
sg4
S'5802'
p1046
sg6
S'5b4cb80cd1c7e3aec9a6c2d7aab7ec2d'
p1047
sg8
S'xxc81ed5840439af5c57271779b6652ab8'
p1048
sg10
S'xxa1eddb067d69156b5a420a68e90e67cd'
p1049
sg12
S'xx1011b6f016676dcb23369c6891f867ff'
p1050
sg14
S'Mozilla/5.0 (Linux; Android 4.4.2; 2014501 Build/KOT49H) AppleWebKit/537.36 (KHTML, like Gecko) Version/4.0 Chrome/37.0.0.0 Mobile MQQBrowser/6.8 TBS/036869 Safari/537.36 MicroMessenger/6.3.27.880 NetType/WIFI Language/zh_CN'
p1051
sg16
S'9061f7b601e438042d449f25a294de59'
p1052
sa(dp1053
g2
S'33854'
p1054
sg4
S'5819'
p1055
sg6
S'5b4cb80cd1c7e3aec9a6c2d7aab7ec2d'
p1056
sg8
S'xxc81ed5840439af5c57271779b6652ab8'
p1057
sg10
S'xxa1eddb067d69156b5a420a68e90e67cd'
p1058
sg12
S'xx1011b6f016676dcb23369c6891f867ff'
p1059
sg14
S'Mozilla/5.0 (Linux; Android 4.4.2; 2014501 Build/KOT49H) AppleWebKit/537.36 (KHTML, like Gecko) Version/4.0 Chrome/37.0.0.0 Mobile MQQBrowser/6.8 TBS/036869 Safari/537.36 MicroMessenger/6.3.27.880 NetType/WIFI Language/zh_CN'
p1060
sg16
S'9061f7b601e438042d449f25a294de59'
p1061
sa(dp1062
g2
S'46368'
p1063
sg4
S'5915'
p1064
sg6
S'438d58b6cfbee48006a9bc087237f75a'
p1065
sg8
S'xxc81ed5840439af5c57271779b6652ab8'
p1066
sg10
S'xxa1eddb067d69156b5a420a68e90e67cd'
p1067
sg12
S'xx1011b6f016676dcb23369c6891f867ff'
p1068
sg14
S'Mozilla/5.0 (Linux; Android 4.4.2; 2014501 Build/KOT49H) AppleWebKit/537.36 (KHTML, like Gecko) Version/4.0 Chrome/37.0.0.0 Mobile MQQBrowser/6.8 TBS/036869 Safari/537.36 MicroMessenger/6.3.27.880 NetType/WIFI Language/zh_CN'
p1069
sg16
S'9061f7b601e438042d449f25a294de59'
p1070
sa(dp1071
g2
S'24969'
p1072
sg4
S'5935'
p1073
sg6
S'6b415139e3d8c4a4ed08169940815b46'
p1074
sg8
S'xxef34f79277a861144535087ba570315c'
p1075
sg10
S'xxa1eddb067d69156b5a420a68e90e67cd'
p1076
sg12
S'xx1011b6f016676dcb23369c6891f867ff'
p1077
sg14
S'Mozilla/5.0 (Linux; Android 4.4.2; 2014501 Build/KOT49H) AppleWebKit/537.36 (KHTML, like Gecko) Version/4.0 Chrome/37.0.0.0 Mobile MQQBrowser/6.8 TBS/036824 Safari/537.36 MicroMessenger/6.3.27.880 NetType/WIFI Language/zh_CN'
p1078
sg16
S'ab78f16992970dc9efc9d6628858763c'
p1079
sa(dp1080
g2
S'24969'
p1081
sg4
S'5951'
p1082
sg6
S'6b415139e3d8c4a4ed08169940815b46'
p1083
sg8
S'xxef34f79277a861144535087ba570315c'
p1084
sg10
S'xxa1eddb067d69156b5a420a68e90e67cd'
p1085
sg12
S'xx1011b6f016676dcb23369c6891f867ff'
p1086
sg14
S'Mozilla/5.0 (Linux; Android 4.4.2; 2014501 Build/KOT49H) AppleWebKit/537.36 (KHTML, like Gecko) Version/4.0 Chrome/37.0.0.0 Mobile MQQBrowser/6.8 TBS/036824 Safari/537.36 MicroMessenger/6.3.27.880 NetType/WIFI Language/zh_CN'
p1087
sg16
S'ab78f16992970dc9efc9d6628858763c'
p1088
sa(dp1089
g2
S'24969'
p1090
sg4
S'5980'
p1091
sg6
S'6b415139e3d8c4a4ed08169940815b46'
p1092
sg8
S'xxef34f79277a861144535087ba570315c'
p1093
sg10
S'xxa1eddb067d69156b5a420a68e90e67cd'
p1094
sg12
S'xx1011b6f016676dcb23369c6891f867ff'
p1095
sg14
S'Mozilla/5.0 (Linux; Android 4.4.2; 2014501 Build/KOT49H) AppleWebKit/537.36 (KHTML, like Gecko) Version/4.0 Chrome/37.0.0.0 Mobile MQQBrowser/6.8 TBS/036824 Safari/537.36 MicroMessenger/6.3.27.880 NetType/WIFI Language/zh_CN'
p1096
sg16
S'ab78f16992970dc9efc9d6628858763c'
p1097
sa(dp1098
g2
S'24969'
p1099
sg4
S'5997'
p1100
sg6
S'6b415139e3d8c4a4ed08169940815b46'
p1101
sg8
S'xxef34f79277a861144535087ba570315c'
p1102
sg10
S'xxa1eddb067d69156b5a420a68e90e67cd'
p1103
sg12
S'xx1011b6f016676dcb23369c6891f867ff'
p1104
sg14
S'Mozilla/5.0 (Linux; Android 4.4.2; 2014501 Build/KOT49H) AppleWebKit/537.36 (KHTML, like Gecko) Version/4.0 Chrome/37.0.0.0 Mobile MQQBrowser/6.8 TBS/036824 Safari/537.36 MicroMessenger/6.3.27.880 NetType/WIFI Language/zh_CN'
p1105
sg16
S'ab78f16992970dc9efc9d6628858763c'
p1106
sa(dp1107
g2
S'46368'
p1108
sg4
S'6064'
p1109
sg6
S'438d58b6cfbee48006a9bc087237f75a'
p1110
sg8
S'xxc81ed5840439af5c57271779b6652ab8'
p1111
sg10
S'xxa1eddb067d69156b5a420a68e90e67cd'
p1112
sg12
S'xx1011b6f016676dcb23369c6891f867ff'
p1113
sg14
S'Mozilla/5.0 (Linux; Android 4.4.2; 2014501 Build/KOT49H) AppleWebKit/537.36 (KHTML, like Gecko) Version/4.0 Chrome/37.0.0.0 Mobile MQQBrowser/6.8 TBS/036869 Safari/537.36 MicroMessenger/6.3.27.880 NetType/WIFI Language/zh_CN'
p1114
sg16
S'9061f7b601e438042d449f25a294de59'
p1115
sa(dp1116
g2
S'46791'
p1117
sg4
S'6096'
p1118
sg6
S'51b58dc5f9f1e54906bd6575a7254f6d'
p1119
sg8
S'xxc81ed5840439af5c57271779b6652ab8'
p1120
sg10
S'xxa1eddb067d69156b5a420a68e90e67cd'
p1121
sg12
S'xx1011b6f016676dcb23369c6891f867ff'
p1122
sg14
S'Mozilla/5.0 (Linux; Android 4.4.2; 2014501 Build/KOT49H) AppleWebKit/537.36 (KHTML, like Gecko) Version/4.0 Chrome/37.0.0.0 Mobile MQQBrowser/6.8 TBS/036869 Safari/537.36 MicroMessenger/6.3.27.880 NetType/WIFI Language/zh_CN'
p1123
sg16
S'9061f7b601e438042d449f25a294de59'
p1124
sa(dp1125
g2
S'46791'
p1126
sg4
S'6189'
p1127
sg6
S'51b58dc5f9f1e54906bd6575a7254f6d'
p1128
sg8
S'xxc81ed5840439af5c57271779b6652ab8'
p1129
sg10
S'xxa1eddb067d69156b5a420a68e90e67cd'
p1130
sg12
S'xx1011b6f016676dcb23369c6891f867ff'
p1131
sg14
S'Mozilla/5.0 (Linux; Android 4.4.2; 2014501 Build/KOT49H) AppleWebKit/537.36 (KHTML, like Gecko) Version/4.0 Chrome/37.0.0.0 Mobile MQQBrowser/6.8 TBS/036869 Safari/537.36 MicroMessenger/6.3.27.880 NetType/WIFI Language/zh_CN'
p1132
sg16
S'9061f7b601e438042d449f25a294de59'
p1133
sa(dp1134
g2
S'46368'
p1135
sg4
S'6359'
p1136
sg6
S'438d58b6cfbee48006a9bc087237f75a'
p1137
sg8
S'xxc81ed5840439af5c57271779b6652ab8'
p1138
sg10
S'xxa1eddb067d69156b5a420a68e90e67cd'
p1139
sg12
S'xx1011b6f016676dcb23369c6891f867ff'
p1140
sg14
S'Mozilla/5.0 (Linux; Android 4.4.2; 2014501 Build/KOT49H) AppleWebKit/537.36 (KHTML, like Gecko) Version/4.0 Chrome/37.0.0.0 Mobile MQQBrowser/6.8 TBS/036869 Safari/537.36 MicroMessenger/6.3.27.880 NetType/WIFI Language/zh_CN'
p1141
sg16
S'9061f7b601e438042d449f25a294de59'
p1142
sa(dp1143
g2
S'46368'
p1144
sg4
S'6391'
p1145
sg6
S'438d58b6cfbee48006a9bc087237f75a'
p1146
sg8
S'xxc81ed5840439af5c57271779b6652ab8'
p1147
sg10
S'xxa1eddb067d69156b5a420a68e90e67cd'
p1148
sg12
S'xx1011b6f016676dcb23369c6891f867ff'
p1149
sg14
S'Mozilla/5.0 (Linux; Android 4.4.2; 2014501 Build/KOT49H) AppleWebKit/537.36 (KHTML, like Gecko) Version/4.0 Chrome/37.0.0.0 Mobile MQQBrowser/6.8 TBS/036869 Safari/537.36 MicroMessenger/6.3.27.880 NetType/WIFI Language/zh_CN'
p1150
sg16
S'9061f7b601e438042d449f25a294de59'
p1151
sa(dp1152
g2
S'46368'
p1153
sg4
S'6409'
p1154
sg6
S'438d58b6cfbee48006a9bc087237f75a'
p1155
sg8
S'xxc81ed5840439af5c57271779b6652ab8'
p1156
sg10
S'xxa1eddb067d69156b5a420a68e90e67cd'
p1157
sg12
S'xx1011b6f016676dcb23369c6891f867ff'
p1158
sg14
S'Mozilla/5.0 (Linux; Android 4.4.2; 2014501 Build/KOT49H) AppleWebKit/537.36 (KHTML, like Gecko) Version/4.0 Chrome/37.0.0.0 Mobile MQQBrowser/6.8 TBS/036869 Safari/537.36 MicroMessenger/6.3.27.880 NetType/WIFI Language/zh_CN'
p1159
sg16
S'9061f7b601e438042d449f25a294de59'
p1160
sa(dp1161
g2
S'46791'
p1162
sg4
S'6410'
p1163
sg6
S'51b58dc5f9f1e54906bd6575a7254f6d'
p1164
sg8
S'xxc81ed5840439af5c57271779b6652ab8'
p1165
sg10
S'xxa1eddb067d69156b5a420a68e90e67cd'
p1166
sg12
S'xx1011b6f016676dcb23369c6891f867ff'
p1167
sg14
S'Mozilla/5.0 (Linux; Android 4.4.2; 2014501 Build/KOT49H) AppleWebKit/537.36 (KHTML, like Gecko) Version/4.0 Chrome/37.0.0.0 Mobile MQQBrowser/6.8 TBS/036869 Safari/537.36 MicroMessenger/6.3.27.880 NetType/WIFI Language/zh_CN'
p1168
sg16
S'9061f7b601e438042d449f25a294de59'
p1169
sa(dp1170
g2
S'46368'
p1171
sg4
S'6422'
p1172
sg6
S'438d58b6cfbee48006a9bc087237f75a'
p1173
sg8
S'xxc81ed5840439af5c57271779b6652ab8'
p1174
sg10
S'xxa1eddb067d69156b5a420a68e90e67cd'
p1175
sg12
S'xx1011b6f016676dcb23369c6891f867ff'
p1176
sg14
S'Mozilla/5.0 (Linux; Android 4.4.2; 2014501 Build/KOT49H) AppleWebKit/537.36 (KHTML, like Gecko) Version/4.0 Chrome/37.0.0.0 Mobile MQQBrowser/6.8 TBS/036869 Safari/537.36 MicroMessenger/6.3.27.880 NetType/WIFI Language/zh_CN'
p1177
sg16
S'9061f7b601e438042d449f25a294de59'
p1178
sa(dp1179
g2
S'46791'
p1180
sg4
S'6426'
p1181
sg6
S'51b58dc5f9f1e54906bd6575a7254f6d'
p1182
sg8
S'xxc81ed5840439af5c57271779b6652ab8'
p1183
sg10
S'xxa1eddb067d69156b5a420a68e90e67cd'
p1184
sg12
S'xx1011b6f016676dcb23369c6891f867ff'
p1185
sg14
S'Mozilla/5.0 (Linux; Android 4.4.2; 2014501 Build/KOT49H) AppleWebKit/537.36 (KHTML, like Gecko) Version/4.0 Chrome/37.0.0.0 Mobile MQQBrowser/6.8 TBS/036869 Safari/537.36 MicroMessenger/6.3.27.880 NetType/WIFI Language/zh_CN'
p1186
sg16
S'9061f7b601e438042d449f25a294de59'
p1187
sa(dp1188
g2
S'46791'
p1189
sg4
S'6449'
p1190
sg6
S'51b58dc5f9f1e54906bd6575a7254f6d'
p1191
sg8
S'xxc81ed5840439af5c57271779b6652ab8'
p1192
sg10
S'xxa1eddb067d69156b5a420a68e90e67cd'
p1193
sg12
S'xx1011b6f016676dcb23369c6891f867ff'
p1194
sg14
S'Mozilla/5.0 (Linux; Android 4.4.2; 2014501 Build/KOT49H) AppleWebKit/537.36 (KHTML, like Gecko) Version/4.0 Chrome/37.0.0.0 Mobile MQQBrowser/6.8 TBS/036869 Safari/537.36 MicroMessenger/6.3.27.880 NetType/WIFI Language/zh_CN'
p1195
sg16
S'9061f7b601e438042d449f25a294de59'
p1196
sa(dp1197
g2
S'24969'
p1198
sg4
S'6502'
p1199
sg6
S'6b415139e3d8c4a4ed08169940815b46'
p1200
sg8
S'xxef34f79277a861144535087ba570315c'
p1201
sg10
S'xxa1eddb067d69156b5a420a68e90e67cd'
p1202
sg12
S'xx1011b6f016676dcb23369c6891f867ff'
p1203
sg14
S'Mozilla/5.0 (Linux; Android 4.4.2; 2014501 Build/KOT49H) AppleWebKit/537.36 (KHTML, like Gecko) Version/4.0 Chrome/37.0.0.0 Mobile MQQBrowser/6.8 TBS/036824 Safari/537.36 MicroMessenger/6.3.27.880 NetType/WIFI Language/zh_CN'
p1204
sg16
S'ab78f16992970dc9efc9d6628858763c'
p1205
sa(dp1206
g2
S'24969'
p1207
sg4
S'6520'
p1208
sg6
S'6b415139e3d8c4a4ed08169940815b46'
p1209
sg8
S'xxef34f79277a861144535087ba570315c'
p1210
sg10
S'xxa1eddb067d69156b5a420a68e90e67cd'
p1211
sg12
S'xx1011b6f016676dcb23369c6891f867ff'
p1212
sg14
S'Mozilla/5.0 (Linux; Android 4.4.2; 2014501 Build/KOT49H) AppleWebKit/537.36 (KHTML, like Gecko) Version/4.0 Chrome/37.0.0.0 Mobile MQQBrowser/6.8 TBS/036824 Safari/537.36 MicroMessenger/6.3.27.880 NetType/WIFI Language/zh_CN'
p1213
sg16
S'ab78f16992970dc9efc9d6628858763c'
p1214
sa(dp1215
g2
S'24969'
p1216
sg4
S'6540'
p1217
sg6
S'6b415139e3d8c4a4ed08169940815b46'
p1218
sg8
S'xxef34f79277a861144535087ba570315c'
p1219
sg10
S'xxa1eddb067d69156b5a420a68e90e67cd'
p1220
sg12
S'xx1011b6f016676dcb23369c6891f867ff'
p1221
sg14
S'Mozilla/5.0 (Linux; Android 4.4.2; 2014501 Build/KOT49H) AppleWebKit/537.36 (KHTML, like Gecko) Version/4.0 Chrome/37.0.0.0 Mobile MQQBrowser/6.8 TBS/036824 Safari/537.36 MicroMessenger/6.3.27.880 NetType/WIFI Language/zh_CN'
p1222
sg16
S'ab78f16992970dc9efc9d6628858763c'
p1223
sa(dp1224
g2
S'46791'
p1225
sg4
S'6592'
p1226
sg6
S'51b58dc5f9f1e54906bd6575a7254f6d'
p1227
sg8
S'xxc81ed5840439af5c57271779b6652ab8'
p1228
sg10
S'xxa1eddb067d69156b5a420a68e90e67cd'
p1229
sg12
S'xx1011b6f016676dcb23369c6891f867ff'
p1230
sg14
S'Mozilla/5.0 (Linux; Android 4.4.2; 2014501 Build/KOT49H) AppleWebKit/537.36 (KHTML, like Gecko) Version/4.0 Chrome/37.0.0.0 Mobile MQQBrowser/6.8 TBS/036869 Safari/537.36 MicroMessenger/6.3.27.880 NetType/WIFI Language/zh_CN'
p1231
sg16
S'9061f7b601e438042d449f25a294de59'
p1232
sa(dp1233
g2
S'46791'
p1234
sg4
S'6750'
p1235
sg6
S'51b58dc5f9f1e54906bd6575a7254f6d'
p1236
sg8
S'xxc81ed5840439af5c57271779b6652ab8'
p1237
sg10
S'xxa1eddb067d69156b5a420a68e90e67cd'
p1238
sg12
S'xx1011b6f016676dcb23369c6891f867ff'
p1239
sg14
S'Mozilla/5.0 (Linux; Android 4.4.2; 2014501 Build/KOT49H) AppleWebKit/537.36 (KHTML, like Gecko) Version/4.0 Chrome/37.0.0.0 Mobile MQQBrowser/6.8 TBS/036869 Safari/537.36 MicroMessenger/6.3.27.880 NetType/WIFI Language/zh_CN'
p1240
sg16
S'9061f7b601e438042d449f25a294de59'
p1241
sa(dp1242
g2
S'46368'
p1243
sg4
S'6846'
p1244
sg6
S'438d58b6cfbee48006a9bc087237f75a'
p1245
sg8
S'xxc81ed5840439af5c57271779b6652ab8'
p1246
sg10
S'xxa1eddb067d69156b5a420a68e90e67cd'
p1247
sg12
S'xx1011b6f016676dcb23369c6891f867ff'
p1248
sg14
S'Mozilla/5.0 (Linux; Android 4.4.2; 2014501 Build/KOT49H) AppleWebKit/537.36 (KHTML, like Gecko) Version/4.0 Chrome/37.0.0.0 Mobile MQQBrowser/6.8 TBS/036869 Safari/537.36 MicroMessenger/6.3.27.880 NetType/WIFI Language/zh_CN'
p1249
sg16
S'9061f7b601e438042d449f25a294de59'
p1250
sa(dp1251
g2
S'46791'
p1252
sg4
S'6860'
p1253
sg6
S'51b58dc5f9f1e54906bd6575a7254f6d'
p1254
sg8
S'xxc81ed5840439af5c57271779b6652ab8'
p1255
sg10
S'xxa1eddb067d69156b5a420a68e90e67cd'
p1256
sg12
S'xx1011b6f016676dcb23369c6891f867ff'
p1257
sg14
S'Mozilla/5.0 (Linux; Android 4.4.2; 2014501 Build/KOT49H) AppleWebKit/537.36 (KHTML, like Gecko) Version/4.0 Chrome/37.0.0.0 Mobile MQQBrowser/6.8 TBS/036869 Safari/537.36 MicroMessenger/6.3.27.880 NetType/WIFI Language/zh_CN'
p1258
sg16
S'9061f7b601e438042d449f25a294de59'
p1259
sa(dp1260
g2
S'46791'
p1261
sg4
S'6911'
p1262
sg6
S'51b58dc5f9f1e54906bd6575a7254f6d'
p1263
sg8
S'xxc81ed5840439af5c57271779b6652ab8'
p1264
sg10
S'xxa1eddb067d69156b5a420a68e90e67cd'
p1265
sg12
S'xx1011b6f016676dcb23369c6891f867ff'
p1266
sg14
S'Mozilla/5.0 (Linux; Android 4.4.2; 2014501 Build/KOT49H) AppleWebKit/537.36 (KHTML, like Gecko) Version/4.0 Chrome/37.0.0.0 Mobile MQQBrowser/6.8 TBS/036869 Safari/537.36 MicroMessenger/6.3.27.880 NetType/WIFI Language/zh_CN'
p1267
sg16
S'9061f7b601e438042d449f25a294de59'
p1268
sa(dp1269
g2
S'46791'
p1270
sg4
S'6974'
p1271
sg6
S'51b58dc5f9f1e54906bd6575a7254f6d'
p1272
sg8
S'xxc81ed5840439af5c57271779b6652ab8'
p1273
sg10
S'xxa1eddb067d69156b5a420a68e90e67cd'
p1274
sg12
S'xx1011b6f016676dcb23369c6891f867ff'
p1275
sg14
S'Mozilla/5.0 (Linux; Android 4.4.2; 2014501 Build/KOT49H) AppleWebKit/537.36 (KHTML, like Gecko) Version/4.0 Chrome/37.0.0.0 Mobile MQQBrowser/6.8 TBS/036869 Safari/537.36 MicroMessenger/6.3.27.880 NetType/WIFI Language/zh_CN'
p1276
sg16
S'9061f7b601e438042d449f25a294de59'
p1277
sa(dp1278
g2
S'46791'
p1279
sg4
S'6987'
p1280
sg6
S'51b58dc5f9f1e54906bd6575a7254f6d'
p1281
sg8
S'xxc81ed5840439af5c57271779b6652ab8'
p1282
sg10
S'xxa1eddb067d69156b5a420a68e90e67cd'
p1283
sg12
S'xx1011b6f016676dcb23369c6891f867ff'
p1284
sg14
S'Mozilla/5.0 (Linux; Android 4.4.2; 2014501 Build/KOT49H) AppleWebKit/537.36 (KHTML, like Gecko) Version/4.0 Chrome/37.0.0.0 Mobile MQQBrowser/6.8 TBS/036869 Safari/537.36 MicroMessenger/6.3.27.880 NetType/WIFI Language/zh_CN'
p1285
sg16
S'9061f7b601e438042d449f25a294de59'
p1286
sa(dp1287
g2
S'46368'
p1288
sg4
S'7026'
p1289
sg6
S'438d58b6cfbee48006a9bc087237f75a'
p1290
sg8
S'xxc81ed5840439af5c57271779b6652ab8'
p1291
sg10
S'xxa1eddb067d69156b5a420a68e90e67cd'
p1292
sg12
S'xx1011b6f016676dcb23369c6891f867ff'
p1293
sg14
S'Mozilla/5.0 (Linux; Android 4.4.2; 2014501 Build/KOT49H) AppleWebKit/537.36 (KHTML, like Gecko) Version/4.0 Chrome/37.0.0.0 Mobile MQQBrowser/6.8 TBS/036869 Safari/537.36 MicroMessenger/6.3.27.880 NetType/WIFI Language/zh_CN'
p1294
sg16
S'9061f7b601e438042d449f25a294de59'
p1295
sa(dp1296
g2
S'43227'
p1297
sg4
S'7047'
p1298
sg6
S'd93af379bb41fc20a214ec782dc06643'
p1299
sg8
S'xx6a880306c6232c93a778b45992dae7ff'
p1300
sg10
S'xxa1eddb067d69156b5a420a68e90e67cd'
p1301
sg12
S'xx1011b6f016676dcb23369c6891f867ff'
p1302
sg14
S'Mozilla/5.0 (Linux; Android 4.4.2; 2014501 Build/KOT49H) AppleWebKit/537.36 (KHTML, like Gecko) Version/4.0 Chrome/37.0.0.0 Mobile MQQBrowser/6.8 TBS/036849 Safari/537.36 MicroMessenger/6.3.25.861 NetType/WIFI Language/zh_CN'
p1303
sg16
S'5d2a45646a6ed94976e142ced9b637af'
p1304
sa(dp1305
g2
S'43227'
p1306
sg4
S'7062'
p1307
sg6
S'd93af379bb41fc20a214ec782dc06643'
p1308
sg8
S'xx6a880306c6232c93a778b45992dae7ff'
p1309
sg10
S'xxa1eddb067d69156b5a420a68e90e67cd'
p1310
sg12
S'xx1011b6f016676dcb23369c6891f867ff'
p1311
sg14
S'Mozilla/5.0 (Linux; Android 4.4.2; 2014501 Build/KOT49H) AppleWebKit/537.36 (KHTML, like Gecko) Version/4.0 Chrome/37.0.0.0 Mobile MQQBrowser/6.8 TBS/036849 Safari/537.36 MicroMessenger/6.3.25.861 NetType/WIFI Language/zh_CN'
p1312
sg16
S'5d2a45646a6ed94976e142ced9b637af'
p1313
sa(dp1314
g2
S'43227'
p1315
sg4
S'7073'
p1316
sg6
S'd93af379bb41fc20a214ec782dc06643'
p1317
sg8
S'xx6a880306c6232c93a778b45992dae7ff'
p1318
sg10
S'xxa1eddb067d69156b5a420a68e90e67cd'
p1319
sg12
S'xx1011b6f016676dcb23369c6891f867ff'
p1320
sg14
S'Mozilla/5.0 (Linux; Android 4.4.2; 2014501 Build/KOT49H) AppleWebKit/537.36 (KHTML, like Gecko) Version/4.0 Chrome/37.0.0.0 Mobile MQQBrowser/6.8 TBS/036849 Safari/537.36 MicroMessenger/6.3.25.861 NetType/WIFI Language/zh_CN'
p1321
sg16
S'5d2a45646a6ed94976e142ced9b637af'
p1322
sa(dp1323
g2
S'46368'
p1324
sg4
S'7375'
p1325
sg6
S'438d58b6cfbee48006a9bc087237f75a'
p1326
sg8
S'xxc81ed5840439af5c57271779b6652ab8'
p1327
sg10
S'xxa1eddb067d69156b5a420a68e90e67cd'
p1328
sg12
S'xx1011b6f016676dcb23369c6891f867ff'
p1329
sg14
S'Mozilla/5.0 (Linux; Android 4.4.2; 2014501 Build/KOT49H) AppleWebKit/537.36 (KHTML, like Gecko) Version/4.0 Chrome/37.0.0.0 Mobile MQQBrowser/6.8 TBS/036869 Safari/537.36 MicroMessenger/6.3.27.880 NetType/WIFI Language/zh_CN'
p1330
sg16
S'9061f7b601e438042d449f25a294de59'
p1331
sa(dp1332
g2
S'46791'
p1333
sg4
S'7379'
p1334
sg6
S'51b58dc5f9f1e54906bd6575a7254f6d'
p1335
sg8
S'xxc81ed5840439af5c57271779b6652ab8'
p1336
sg10
S'xxa1eddb067d69156b5a420a68e90e67cd'
p1337
sg12
S'xx1011b6f016676dcb23369c6891f867ff'
p1338
sg14
S'Mozilla/5.0 (Linux; Android 4.4.2; 2014501 Build/KOT49H) AppleWebKit/537.36 (KHTML, like Gecko) Version/4.0 Chrome/37.0.0.0 Mobile MQQBrowser/6.8 TBS/036869 Safari/537.36 MicroMessenger/6.3.27.880 NetType/WIFI Language/zh_CN'
p1339
sg16
S'9061f7b601e438042d449f25a294de59'
p1340
sa(dp1341
g2
S'46791'
p1342
sg4
S'7580'
p1343
sg6
S'51b58dc5f9f1e54906bd6575a7254f6d'
p1344
sg8
S'xxc81ed5840439af5c57271779b6652ab8'
p1345
sg10
S'xxa1eddb067d69156b5a420a68e90e67cd'
p1346
sg12
S'xx1011b6f016676dcb23369c6891f867ff'
p1347
sg14
S'Mozilla/5.0 (Linux; Android 4.4.2; 2014501 Build/KOT49H) AppleWebKit/537.36 (KHTML, like Gecko) Version/4.0 Chrome/37.0.0.0 Mobile MQQBrowser/6.8 TBS/036869 Safari/537.36 MicroMessenger/6.3.27.880 NetType/WIFI Language/zh_CN'
p1348
sg16
S'9061f7b601e438042d449f25a294de59'
p1349
sa(dp1350
g2
S'46791'
p1351
sg4
S'7591'
p1352
sg6
S'51b58dc5f9f1e54906bd6575a7254f6d'
p1353
sg8
S'xxc81ed5840439af5c57271779b6652ab8'
p1354
sg10
S'xxa1eddb067d69156b5a420a68e90e67cd'
p1355
sg12
S'xx1011b6f016676dcb23369c6891f867ff'
p1356
sg14
S'Mozilla/5.0 (Linux; Android 4.4.2; 2014501 Build/KOT49H) AppleWebKit/537.36 (KHTML, like Gecko) Version/4.0 Chrome/37.0.0.0 Mobile MQQBrowser/6.8 TBS/036869 Safari/537.36 MicroMessenger/6.3.27.880 NetType/WIFI Language/zh_CN'
p1357
sg16
S'9061f7b601e438042d449f25a294de59'
p1358
sa(dp1359
g2
S'46368'
p1360
sg4
S'7721'
p1361
sg6
S'438d58b6cfbee48006a9bc087237f75a'
p1362
sg8
S'xxc81ed5840439af5c57271779b6652ab8'
p1363
sg10
S'xxa1eddb067d69156b5a420a68e90e67cd'
p1364
sg12
S'xx1011b6f016676dcb23369c6891f867ff'
p1365
sg14
S'Mozilla/5.0 (Linux; Android 4.4.2; 2014501 Build/KOT49H) AppleWebKit/537.36 (KHTML, like Gecko) Version/4.0 Chrome/37.0.0.0 Mobile MQQBrowser/6.8 TBS/036869 Safari/537.36 MicroMessenger/6.3.27.880 NetType/WIFI Language/zh_CN'
p1366
sg16
S'9061f7b601e438042d449f25a294de59'
p1367
sa(dp1368
g2
S'46368'
p1369
sg4
S'7732'
p1370
sg6
S'438d58b6cfbee48006a9bc087237f75a'
p1371
sg8
S'xxc81ed5840439af5c57271779b6652ab8'
p1372
sg10
S'xxa1eddb067d69156b5a420a68e90e67cd'
p1373
sg12
S'xx1011b6f016676dcb23369c6891f867ff'
p1374
sg14
S'Mozilla/5.0 (Linux; Android 4.4.2; 2014501 Build/KOT49H) AppleWebKit/537.36 (KHTML, like Gecko) Version/4.0 Chrome/37.0.0.0 Mobile MQQBrowser/6.8 TBS/036869 Safari/537.36 MicroMessenger/6.3.27.880 NetType/WIFI Language/zh_CN'
p1375
sg16
S'9061f7b601e438042d449f25a294de59'
p1376
sa(dp1377
g2
S'46368'
p1378
sg4
S'7828'
p1379
sg6
S'438d58b6cfbee48006a9bc087237f75a'
p1380
sg8
S'xxc81ed5840439af5c57271779b6652ab8'
p1381
sg10
S'xxa1eddb067d69156b5a420a68e90e67cd'
p1382
sg12
S'xx1011b6f016676dcb23369c6891f867ff'
p1383
sg14
S'Mozilla/5.0 (Linux; Android 4.4.2; 2014501 Build/KOT49H) AppleWebKit/537.36 (KHTML, like Gecko) Version/4.0 Chrome/37.0.0.0 Mobile MQQBrowser/6.8 TBS/036869 Safari/537.36 MicroMessenger/6.3.27.880 NetType/WIFI Language/zh_CN'
p1384
sg16
S'9061f7b601e438042d449f25a294de59'
p1385
sa(dp1386
g2
S'46791'
p1387
sg4
S'7836'
p1388
sg6
S'51b58dc5f9f1e54906bd6575a7254f6d'
p1389
sg8
S'xxc81ed5840439af5c57271779b6652ab8'
p1390
sg10
S'xxa1eddb067d69156b5a420a68e90e67cd'
p1391
sg12
S'xx1011b6f016676dcb23369c6891f867ff'
p1392
sg14
S'Mozilla/5.0 (Linux; Android 4.4.2; 2014501 Build/KOT49H) AppleWebKit/537.36 (KHTML, like Gecko) Version/4.0 Chrome/37.0.0.0 Mobile MQQBrowser/6.8 TBS/036869 Safari/537.36 MicroMessenger/6.3.27.880 NetType/WIFI Language/zh_CN'
p1393
sg16
S'9061f7b601e438042d449f25a294de59'
p1394
sa(dp1395
g2
S'46791'
p1396
sg4
S'7847'
p1397
sg6
S'51b58dc5f9f1e54906bd6575a7254f6d'
p1398
sg8
S'xxc81ed5840439af5c57271779b6652ab8'
p1399
sg10
S'xxa1eddb067d69156b5a420a68e90e67cd'
p1400
sg12
S'xx1011b6f016676dcb23369c6891f867ff'
p1401
sg14
S'Mozilla/5.0 (Linux; Android 4.4.2; 2014501 Build/KOT49H) AppleWebKit/537.36 (KHTML, like Gecko) Version/4.0 Chrome/37.0.0.0 Mobile MQQBrowser/6.8 TBS/036869 Safari/537.36 MicroMessenger/6.3.27.880 NetType/WIFI Language/zh_CN'
p1402
sg16
S'9061f7b601e438042d449f25a294de59'
p1403
sa(dp1404
g2
S'8513'
p1405
sg4
S'7873'
p1406
sg6
S'd66c95a4c1c7aa3ad1fe1162a8491ff3'
p1407
sg8
S'xxc81ed5840439af5c57271779b6652ab8'
p1408
sg10
S'xxa1eddb067d69156b5a420a68e90e67cd'
p1409
sg12
S'xx1011b6f016676dcb23369c6891f867ff'
p1410
sg14
S'Mozilla/5.0 (Linux; Android 4.4.2; 2014501 Build/KOT49H) AppleWebKit/537.36 (KHTML, like Gecko) Version/4.0 Chrome/37.0.0.0 Mobile MQQBrowser/6.8 TBS/036869 Safari/537.36 MicroMessenger/6.3.27.880 NetType/WIFI Language/zh_CN'
p1411
sg16
S'9061f7b601e438042d449f25a294de59'
p1412
sa(dp1413
g2
S'8513'
p1414
sg4
S'7889'
p1415
sg6
S'd66c95a4c1c7aa3ad1fe1162a8491ff3'
p1416
sg8
S'xxc81ed5840439af5c57271779b6652ab8'
p1417
sg10
S'xxa1eddb067d69156b5a420a68e90e67cd'
p1418
sg12
S'xx1011b6f016676dcb23369c6891f867ff'
p1419
sg14
S'Mozilla/5.0 (Linux; Android 4.4.2; 2014501 Build/KOT49H) AppleWebKit/537.36 (KHTML, like Gecko) Version/4.0 Chrome/37.0.0.0 Mobile MQQBrowser/6.8 TBS/036869 Safari/537.36 MicroMessenger/6.3.27.880 NetType/WIFI Language/zh_CN'
p1420
sg16
S'9061f7b601e438042d449f25a294de59'
p1421
sa(dp1422
g2
S'46791'
p1423
sg4
S'7942'
p1424
sg6
S'51b58dc5f9f1e54906bd6575a7254f6d'
p1425
sg8
S'xxc81ed5840439af5c57271779b6652ab8'
p1426
sg10
S'xxa1eddb067d69156b5a420a68e90e67cd'
p1427
sg12
S'xx1011b6f016676dcb23369c6891f867ff'
p1428
sg14
S'Mozilla/5.0 (Linux; Android 4.4.2; 2014501 Build/KOT49H) AppleWebKit/537.36 (KHTML, like Gecko) Version/4.0 Chrome/37.0.0.0 Mobile MQQBrowser/6.8 TBS/036869 Safari/537.36 MicroMessenger/6.3.27.880 NetType/WIFI Language/zh_CN'
p1429
sg16
S'9061f7b601e438042d449f25a294de59'
p1430
sa(dp1431
g2
S'46791'
p1432
sg4
S'7959'
p1433
sg6
S'51b58dc5f9f1e54906bd6575a7254f6d'
p1434
sg8
S'xxc81ed5840439af5c57271779b6652ab8'
p1435
sg10
S'xxa1eddb067d69156b5a420a68e90e67cd'
p1436
sg12
S'xx1011b6f016676dcb23369c6891f867ff'
p1437
sg14
S'Mozilla/5.0 (Linux; Android 4.4.2; 2014501 Build/KOT49H) AppleWebKit/537.36 (KHTML, like Gecko) Version/4.0 Chrome/37.0.0.0 Mobile MQQBrowser/6.8 TBS/036869 Safari/537.36 MicroMessenger/6.3.27.880 NetType/WIFI Language/zh_CN'
p1438
sg16
S'9061f7b601e438042d449f25a294de59'
p1439
sa(dp1440
g2
S'46791'
p1441
sg4
S'7976'
p1442
sg6
S'51b58dc5f9f1e54906bd6575a7254f6d'
p1443
sg8
S'xxc81ed5840439af5c57271779b6652ab8'
p1444
sg10
S'xxa1eddb067d69156b5a420a68e90e67cd'
p1445
sg12
S'xx1011b6f016676dcb23369c6891f867ff'
p1446
sg14
S'Mozilla/5.0 (Linux; Android 4.4.2; 2014501 Build/KOT49H) AppleWebKit/537.36 (KHTML, like Gecko) Version/4.0 Chrome/37.0.0.0 Mobile MQQBrowser/6.8 TBS/036869 Safari/537.36 MicroMessenger/6.3.27.880 NetType/WIFI Language/zh_CN'
p1447
sg16
S'9061f7b601e438042d449f25a294de59'
p1448
sa(dp1449
g2
S'46368'
p1450
sg4
S'8114'
p1451
sg6
S'438d58b6cfbee48006a9bc087237f75a'
p1452
sg8
S'xxc81ed5840439af5c57271779b6652ab8'
p1453
sg10
S'xxa1eddb067d69156b5a420a68e90e67cd'
p1454
sg12
S'xx1011b6f016676dcb23369c6891f867ff'
p1455
sg14
S'Mozilla/5.0 (Linux; Android 4.4.2; 2014501 Build/KOT49H) AppleWebKit/537.36 (KHTML, like Gecko) Version/4.0 Chrome/37.0.0.0 Mobile MQQBrowser/6.8 TBS/036869 Safari/537.36 MicroMessenger/6.3.27.880 NetType/WIFI Language/zh_CN'
p1456
sg16
S'9061f7b601e438042d449f25a294de59'
p1457
sa(dp1458
g2
S'8563'
p1459
sg4
S'8139'
p1460
sg6
S'd788a82af641c3c8a0910a00b399848e'
p1461
sg8
S'xx217dfd4c5f5604a6b56c610f7d045b46'
p1462
sg10
S'xxa1eddb067d69156b5a420a68e90e67cd'
p1463
sg12
S'xx1011b6f016676dcb23369c6891f867ff'
p1464
sg14
S'Mozilla/5.0 (Linux; Android 4.4.2; 2014501 Build/KOT49H) AppleWebKit/537.36 (KHTML, like Gecko) Version/4.0 Chrome/37.0.0.0 Mobile MQQBrowser/6.8 TBS/036849 Safari/537.36 MicroMessenger/6.3.27.880 NetType/cmnet Language/zh_CN'
p1465
sg16
S'fa53331e0fd33fc1b7ff400acb6970ec'
p1466
sa(dp1467
g2
S'8563'
p1468
sg4
S'8151'
p1469
sg6
S'd788a82af641c3c8a0910a00b399848e'
p1470
sg8
S'xx217dfd4c5f5604a6b56c610f7d045b46'
p1471
sg10
S'xxa1eddb067d69156b5a420a68e90e67cd'
p1472
sg12
S'xx1011b6f016676dcb23369c6891f867ff'
p1473
sg14
S'Mozilla/5.0 (Linux; Android 4.4.2; 2014501 Build/KOT49H) AppleWebKit/537.36 (KHTML, like Gecko) Version/4.0 Chrome/37.0.0.0 Mobile MQQBrowser/6.8 TBS/036849 Safari/537.36 MicroMessenger/6.3.27.880 NetType/cmnet Language/zh_CN'
p1474
sg16
S'fa53331e0fd33fc1b7ff400acb6970ec'
p1475
sa(dp1476
g2
S'29663'
p1477
sg4
S'8249'
p1478
sg6
S'cbb5213867fd345f0c9e699b16abb6cb'
p1479
sg8
S'xxc81ed5840439af5c57271779b6652ab8'
p1480
sg10
S'xxa1eddb067d69156b5a420a68e90e67cd'
p1481
sg12
S'xx1011b6f016676dcb23369c6891f867ff'
p1482
sg14
S'Mozilla/5.0 (Linux; Android 4.4.2; 2014501 Build/KOT49H) AppleWebKit/537.36 (KHTML, like Gecko) Version/4.0 Chrome/37.0.0.0 Mobile MQQBrowser/6.8 TBS/036869 Safari/537.36 MicroMessenger/6.3.27.880 NetType/WIFI Language/zh_CN'
p1483
sg16
S'9061f7b601e438042d449f25a294de59'
p1484
sa(dp1485
g2
S'29663'
p1486
sg4
S'8265'
p1487
sg6
S'cbb5213867fd345f0c9e699b16abb6cb'
p1488
sg8
S'xxc81ed5840439af5c57271779b6652ab8'
p1489
sg10
S'xxa1eddb067d69156b5a420a68e90e67cd'
p1490
sg12
S'xx1011b6f016676dcb23369c6891f867ff'
p1491
sg14
S'Mozilla/5.0 (Linux; Android 4.4.2; 2014501 Build/KOT49H) AppleWebKit/537.36 (KHTML, like Gecko) Version/4.0 Chrome/37.0.0.0 Mobile MQQBrowser/6.8 TBS/036869 Safari/537.36 MicroMessenger/6.3.27.880 NetType/WIFI Language/zh_CN'
p1492
sg16
S'9061f7b601e438042d449f25a294de59'
p1493
sa(dp1494
g2
S'29663'
p1495
sg4
S'8278'
p1496
sg6
S'cbb5213867fd345f0c9e699b16abb6cb'
p1497
sg8
S'xxc81ed5840439af5c57271779b6652ab8'
p1498
sg10
S'xxa1eddb067d69156b5a420a68e90e67cd'
p1499
sg12
S'xx1011b6f016676dcb23369c6891f867ff'
p1500
sg14
S'Mozilla/5.0 (Linux; Android 4.4.2; 2014501 Build/KOT49H) AppleWebKit/537.36 (KHTML, like Gecko) Version/4.0 Chrome/37.0.0.0 Mobile MQQBrowser/6.8 TBS/036869 Safari/537.36 MicroMessenger/6.3.27.880 NetType/WIFI Language/zh_CN'
p1501
sg16
S'9061f7b601e438042d449f25a294de59'
p1502
sa(dp1503
g2
S'46321'
p1504
sg4
S'8318'
p1505
sg6
S'375df5054e5eb97aae238e5d70bc60a6'
p1506
sg8
S'xx217dfd4c5f5604a6b56c610f7d045b46'
p1507
sg10
S'xxa1eddb067d69156b5a420a68e90e67cd'
p1508
sg12
S'xx1011b6f016676dcb23369c6891f867ff'
p1509
sg14
S'Mozilla/5.0 (Linux; Android 4.4.2; 2014501 Build/KOT49H) AppleWebKit/537.36 (KHTML, like Gecko) Version/4.0 Chrome/37.0.0.0 Mobile MQQBrowser/6.8 TBS/036849 Safari/537.36 MicroMessenger/6.3.27.880 NetType/cmnet Language/zh_CN'
p1510
sg16
S'fa53331e0fd33fc1b7ff400acb6970ec'
p1511
sa(dp1512
g2
S'8563'
p1513
sg4
S'8335'
p1514
sg6
S'd788a82af641c3c8a0910a00b399848e'
p1515
sg8
S'xx217dfd4c5f5604a6b56c610f7d045b46'
p1516
sg10
S'xxa1eddb067d69156b5a420a68e90e67cd'
p1517
sg12
S'xx1011b6f016676dcb23369c6891f867ff'
p1518
sg14
S'Mozilla/5.0 (Linux; Android 4.4.2; 2014501 Build/KOT49H) AppleWebKit/537.36 (KHTML, like Gecko) Version/4.0 Chrome/37.0.0.0 Mobile MQQBrowser/6.8 TBS/036849 Safari/537.36 MicroMessenger/6.3.27.880 NetType/cmnet Language/zh_CN'
p1519
sg16
S'fa53331e0fd33fc1b7ff400acb6970ec'
p1520
sa(dp1521
g2
S'8563'
p1522
sg4
S'8351'
p1523
sg6
S'd788a82af641c3c8a0910a00b399848e'
p1524
sg8
S'xx217dfd4c5f5604a6b56c610f7d045b46'
p1525
sg10
S'xxa1eddb067d69156b5a420a68e90e67cd'
p1526
sg12
S'xx1011b6f016676dcb23369c6891f867ff'
p1527
sg14
S'Mozilla/5.0 (Linux; Android 4.4.2; 2014501 Build/KOT49H) AppleWebKit/537.36 (KHTML, like Gecko) Version/4.0 Chrome/37.0.0.0 Mobile MQQBrowser/6.8 TBS/036849 Safari/537.36 MicroMessenger/6.3.27.880 NetType/cmnet Language/zh_CN'
p1528
sg16
S'fa53331e0fd33fc1b7ff400acb6970ec'
p1529
sa(dp1530
g2
S'46368'
p1531
sg4
S'8495'
p1532
sg6
S'438d58b6cfbee48006a9bc087237f75a'
p1533
sg8
S'xxc81ed5840439af5c57271779b6652ab8'
p1534
sg10
S'xxa1eddb067d69156b5a420a68e90e67cd'
p1535
sg12
S'xx1011b6f016676dcb23369c6891f867ff'
p1536
sg14
S'Mozilla/5.0 (Linux; Android 4.4.2; 2014501 Build/KOT49H) AppleWebKit/537.36 (KHTML, like Gecko) Version/4.0 Chrome/37.0.0.0 Mobile MQQBrowser/6.8 TBS/036869 Safari/537.36 MicroMessenger/6.3.27.880 NetType/WIFI Language/zh_CN'
p1537
sg16
S'9061f7b601e438042d449f25a294de59'
p1538
sa(dp1539
g2
S'17902'
p1540
sg4
S'8527'
p1541
sg6
S'a23e834a5a458efb20ebbf3c6acd7080'
p1542
sg8
S'xx1517c80a6682e528dfc5cf73e490ae40'
p1543
sg10
S'xxa1eddb067d69156b5a420a68e90e67cd'
p1544
sg12
S'xx1011b6f016676dcb23369c6891f867ff'
p1545
sg14
S'Mozilla/5.0 (Linux; Android 4.4.2; 2014501 Build/KOT49H) AppleWebKit/537.36 (KHTML, like Gecko) Version/4.0 Chrome/37.0.0.0 Mobile MQQBrowser/6.8 TBS/036849 Safari/537.36 MicroMessenger/6.3.25.861 NetType/cmnet Language/zh_CN'
p1546
sg16
S'829dcbd399c02bc4b910220ce6a826e8'
p1547
sa(dp1548
g2
S'17902'
p1549
sg4
S'8541'
p1550
sg6
S'a23e834a5a458efb20ebbf3c6acd7080'
p1551
sg8
S'xx1517c80a6682e528dfc5cf73e490ae40'
p1552
sg10
S'xxa1eddb067d69156b5a420a68e90e67cd'
p1553
sg12
S'xx1011b6f016676dcb23369c6891f867ff'
p1554
sg14
S'Mozilla/5.0 (Linux; Android 4.4.2; 2014501 Build/KOT49H) AppleWebKit/537.36 (KHTML, like Gecko) Version/4.0 Chrome/37.0.0.0 Mobile MQQBrowser/6.8 TBS/036849 Safari/537.36 MicroMessenger/6.3.25.861 NetType/cmnet Language/zh_CN'
p1555
sg16
S'829dcbd399c02bc4b910220ce6a826e8'
p1556
sa(dp1557
g2
S'17902'
p1558
sg4
S'8556'
p1559
sg6
S'a23e834a5a458efb20ebbf3c6acd7080'
p1560
sg8
S'xx1517c80a6682e528dfc5cf73e490ae40'
p1561
sg10
S'xxa1eddb067d69156b5a420a68e90e67cd'
p1562
sg12
S'xx1011b6f016676dcb23369c6891f867ff'
p1563
sg14
S'Mozilla/5.0 (Linux; Android 4.4.2; 2014501 Build/KOT49H) AppleWebKit/537.36 (KHTML, like Gecko) Version/4.0 Chrome/37.0.0.0 Mobile MQQBrowser/6.8 TBS/036849 Safari/537.36 MicroMessenger/6.3.25.861 NetType/cmnet Language/zh_CN'
p1564
sg16
S'829dcbd399c02bc4b910220ce6a826e8'
p1565
sa(dp1566
g2
S'8563'
p1567
sg4
S'8573'
p1568
sg6
S'd788a82af641c3c8a0910a00b399848e'
p1569
sg8
S'xx217dfd4c5f5604a6b56c610f7d045b46'
p1570
sg10
S'xxa1eddb067d69156b5a420a68e90e67cd'
p1571
sg12
S'xx1011b6f016676dcb23369c6891f867ff'
p1572
sg14
S'Mozilla/5.0 (Linux; Android 4.4.2; 2014501 Build/KOT49H) AppleWebKit/537.36 (KHTML, like Gecko) Version/4.0 Chrome/37.0.0.0 Mobile MQQBrowser/6.8 TBS/036849 Safari/537.36 MicroMessenger/6.3.27.880 NetType/cmnet Language/zh_CN'
p1573
sg16
S'fa53331e0fd33fc1b7ff400acb6970ec'
p1574
sa(dp1575
g2
S'8563'
p1576
sg4
S'8590'
p1577
sg6
S'd788a82af641c3c8a0910a00b399848e'
p1578
sg8
S'xx217dfd4c5f5604a6b56c610f7d045b46'
p1579
sg10
S'xxa1eddb067d69156b5a420a68e90e67cd'
p1580
sg12
S'xx1011b6f016676dcb23369c6891f867ff'
p1581
sg14
S'Mozilla/5.0 (Linux; Android 4.4.2; 2014501 Build/KOT49H) AppleWebKit/537.36 (KHTML, like Gecko) Version/4.0 Chrome/37.0.0.0 Mobile MQQBrowser/6.8 TBS/036849 Safari/537.36 MicroMessenger/6.3.27.880 NetType/cmnet Language/zh_CN'
p1582
sg16
S'fa53331e0fd33fc1b7ff400acb6970ec'
p1583
sa(dp1584
g2
S'46368'
p1585
sg4
S'8678'
p1586
sg6
S'438d58b6cfbee48006a9bc087237f75a'
p1587
sg8
S'xxc81ed5840439af5c57271779b6652ab8'
p1588
sg10
S'xxa1eddb067d69156b5a420a68e90e67cd'
p1589
sg12
S'xx1011b6f016676dcb23369c6891f867ff'
p1590
sg14
S'Mozilla/5.0 (Linux; Android 4.4.2; 2014501 Build/KOT49H) AppleWebKit/537.36 (KHTML, like Gecko) Version/4.0 Chrome/37.0.0.0 Mobile MQQBrowser/6.8 TBS/036869 Safari/537.36 MicroMessenger/6.3.27.880 NetType/WIFI Language/zh_CN'
p1591
sg16
S'9061f7b601e438042d449f25a294de59'
p1592
sa.