(lp0
(dp1
S'user_id'
p2
S'7900'
p3
sS'data_id'
p4
S'9'
p5
sS'ip'
p6
S'0651ca454e3fb2ad2ff6a602bdf9d99c'
p7
sS'phone_B'
p8
S'xx1cbe061286e607fbfe16ab2f0e7a5ddd'
p9
sS'phone_C'
p10
S'xx5ba6e83ab19ca3a94d39ebfc36eb8d6b'
p11
sS'phone_A'
p12
S'xx132498fdffd9b48d8cfd6639d3953331'
p13
sS'user_agent'
p14
S'Mozilla/5.0 (Linux; Android 4.4.4; 2014811 Build/KTU84P) AppleWebKit/537.36 (KHTML, like Gecko) Version/4.0 Chrome/37.0.0.0 Mobile MQQBrowser/6.8 TBS/036849 Safari/537.36 MicroMessenger/6.3.25.861 NetType/WIFI Language/zh_CN'
p15
sS'ua'
p16
S'941318af80826a190c56aac2e3ae6e34'
p17
sa(dp18
g2
S'7900'
p19
sg4
S'22'
p20
sg6
S'0651ca454e3fb2ad2ff6a602bdf9d99c'
p21
sg8
S'xx1cbe061286e607fbfe16ab2f0e7a5ddd'
p22
sg10
S'xx5ba6e83ab19ca3a94d39ebfc36eb8d6b'
p23
sg12
S'xx132498fdffd9b48d8cfd6639d3953331'
p24
sg14
S'Mozilla/5.0 (Linux; Android 4.4.4; 2014811 Build/KTU84P) AppleWebKit/537.36 (KHTML, like Gecko) Version/4.0 Chrome/37.0.0.0 Mobile MQQBrowser/6.8 TBS/036849 Safari/537.36 MicroMessenger/6.3.25.861 NetType/WIFI Language/zh_CN'
p25
sg16
S'941318af80826a190c56aac2e3ae6e34'
p26
sa(dp27
g2
S'7900'
p28
sg4
S'47'
p29
sg6
S'0651ca454e3fb2ad2ff6a602bdf9d99c'
p30
sg8
S'xx1cbe061286e607fbfe16ab2f0e7a5ddd'
p31
sg10
S'xx5ba6e83ab19ca3a94d39ebfc36eb8d6b'
p32
sg12
S'xx132498fdffd9b48d8cfd6639d3953331'
p33
sg14
S'Mozilla/5.0 (Linux; Android 4.4.4; 2014811 Build/KTU84P) AppleWebKit/537.36 (KHTML, like Gecko) Version/4.0 Chrome/37.0.0.0 Mobile MQQBrowser/6.8 TBS/036849 Safari/537.36 MicroMessenger/6.3.25.861 NetType/WIFI Language/zh_CN'
p34
sg16
S'941318af80826a190c56aac2e3ae6e34'
p35
sa(dp36
g2
S'7900'
p37
sg4
S'53'
p38
sg6
S'0651ca454e3fb2ad2ff6a602bdf9d99c'
p39
sg8
S'xx1cbe061286e607fbfe16ab2f0e7a5ddd'
p40
sg10
S'xx5ba6e83ab19ca3a94d39ebfc36eb8d6b'
p41
sg12
S'xx132498fdffd9b48d8cfd6639d3953331'
p42
sg14
S'Mozilla/5.0 (Linux; Android 4.4.4; 2014811 Build/KTU84P) AppleWebKit/537.36 (KHTML, like Gecko) Version/4.0 Chrome/37.0.0.0 Mobile MQQBrowser/6.8 TBS/036849 Safari/537.36 MicroMessenger/6.3.25.861 NetType/WIFI Language/zh_CN'
p43
sg16
S'941318af80826a190c56aac2e3ae6e34'
p44
sa(dp45
g2
S'7900'
p46
sg4
S'61'
p47
sg6
S'0651ca454e3fb2ad2ff6a602bdf9d99c'
p48
sg8
S'xx1cbe061286e607fbfe16ab2f0e7a5ddd'
p49
sg10
S'xx5ba6e83ab19ca3a94d39ebfc36eb8d6b'
p50
sg12
S'xx132498fdffd9b48d8cfd6639d3953331'
p51
sg14
S'Mozilla/5.0 (Linux; Android 4.4.4; 2014811 Build/KTU84P) AppleWebKit/537.36 (KHTML, like Gecko) Version/4.0 Chrome/37.0.0.0 Mobile MQQBrowser/6.8 TBS/036849 Safari/537.36 MicroMessenger/6.3.25.861 NetType/WIFI Language/zh_CN'
p52
sg16
S'941318af80826a190c56aac2e3ae6e34'
p53
sa(dp54
g2
S'7900'
p55
sg4
S'71'
p56
sg6
S'0651ca454e3fb2ad2ff6a602bdf9d99c'
p57
sg8
S'xx1cbe061286e607fbfe16ab2f0e7a5ddd'
p58
sg10
S'xx5ba6e83ab19ca3a94d39ebfc36eb8d6b'
p59
sg12
S'xx132498fdffd9b48d8cfd6639d3953331'
p60
sg14
S'Mozilla/5.0 (Linux; Android 4.4.4; 2014811 Build/KTU84P) AppleWebKit/537.36 (KHTML, like Gecko) Version/4.0 Chrome/37.0.0.0 Mobile MQQBrowser/6.8 TBS/036849 Safari/537.36 MicroMessenger/6.3.25.861 NetType/WIFI Language/zh_CN'
p61
sg16
S'941318af80826a190c56aac2e3ae6e34'
p62
sa(dp63
g2
S'7901'
p64
sg4
S'149'
p65
sg6
S'0651ca454e3fb2ad2ff6a602bdf9d99c'
p66
sg8
S'xx1cbe061286e607fbfe16ab2f0e7a5ddd'
p67
sg10
S'xx5ba6e83ab19ca3a94d39ebfc36eb8d6b'
p68
sg12
S'xx132498fdffd9b48d8cfd6639d3953331'
p69
sg14
S'Mozilla/5.0 (Linux; Android 4.4.4; 2014811 Build/KTU84P) AppleWebKit/537.36 (KHTML, like Gecko) Version/4.0 Chrome/37.0.0.0 Mobile MQQBrowser/6.8 TBS/036849 Safari/537.36 MicroMessenger/6.3.25.861 NetType/WIFI Language/zh_CN'
p70
sg16
S'941318af80826a190c56aac2e3ae6e34'
p71
sa(dp72
g2
S'7901'
p73
sg4
S'164'
p74
sg6
S'0651ca454e3fb2ad2ff6a602bdf9d99c'
p75
sg8
S'xx1cbe061286e607fbfe16ab2f0e7a5ddd'
p76
sg10
S'xx5ba6e83ab19ca3a94d39ebfc36eb8d6b'
p77
sg12
S'xx132498fdffd9b48d8cfd6639d3953331'
p78
sg14
S'Mozilla/5.0 (Linux; Android 4.4.4; 2014811 Build/KTU84P) AppleWebKit/537.36 (KHTML, like Gecko) Version/4.0 Chrome/37.0.0.0 Mobile MQQBrowser/6.8 TBS/036849 Safari/537.36 MicroMessenger/6.3.25.861 NetType/WIFI Language/zh_CN'
p79
sg16
S'941318af80826a190c56aac2e3ae6e34'
p80
sa(dp81
g2
S'7901'
p82
sg4
S'179'
p83
sg6
S'0651ca454e3fb2ad2ff6a602bdf9d99c'
p84
sg8
S'xx1cbe061286e607fbfe16ab2f0e7a5ddd'
p85
sg10
S'xx5ba6e83ab19ca3a94d39ebfc36eb8d6b'
p86
sg12
S'xx132498fdffd9b48d8cfd6639d3953331'
p87
sg14
S'Mozilla/5.0 (Linux; Android 4.4.4; 2014811 Build/KTU84P) AppleWebKit/537.36 (KHTML, like Gecko) Version/4.0 Chrome/37.0.0.0 Mobile MQQBrowser/6.8 TBS/036849 Safari/537.36 MicroMessenger/6.3.25.861 NetType/WIFI Language/zh_CN'
p88
sg16
S'941318af80826a190c56aac2e3ae6e34'
p89
sa(dp90
g2
S'7901'
p91
sg4
S'206'
p92
sg6
S'0651ca454e3fb2ad2ff6a602bdf9d99c'
p93
sg8
S'xx1cbe061286e607fbfe16ab2f0e7a5ddd'
p94
sg10
S'xx5ba6e83ab19ca3a94d39ebfc36eb8d6b'
p95
sg12
S'xx132498fdffd9b48d8cfd6639d3953331'
p96
sg14
S'Mozilla/5.0 (Linux; Android 4.4.4; 2014811 Build/KTU84P) AppleWebKit/537.36 (KHTML, like Gecko) Version/4.0 Chrome/37.0.0.0 Mobile MQQBrowser/6.8 TBS/036849 Safari/537.36 MicroMessenger/6.3.25.861 NetType/WIFI Language/zh_CN'
p97
sg16
S'941318af80826a190c56aac2e3ae6e34'
p98
sa(dp99
g2
S'7901'
p100
sg4
S'234'
p101
sg6
S'0651ca454e3fb2ad2ff6a602bdf9d99c'
p102
sg8
S'xx1cbe061286e607fbfe16ab2f0e7a5ddd'
p103
sg10
S'xx5ba6e83ab19ca3a94d39ebfc36eb8d6b'
p104
sg12
S'xx132498fdffd9b48d8cfd6639d3953331'
p105
sg14
S'Mozilla/5.0 (Linux; Android 4.4.4; 2014811 Build/KTU84P) AppleWebKit/537.36 (KHTML, like Gecko) Version/4.0 Chrome/37.0.0.0 Mobile MQQBrowser/6.8 TBS/036849 Safari/537.36 MicroMessenger/6.3.25.861 NetType/WIFI Language/zh_CN'
p106
sg16
S'941318af80826a190c56aac2e3ae6e34'
p107
sa(dp108
g2
S'7900'
p109
sg4
S'1264'
p110
sg6
S'0651ca454e3fb2ad2ff6a602bdf9d99c'
p111
sg8
S'xx1cbe061286e607fbfe16ab2f0e7a5ddd'
p112
sg10
S'xx5ba6e83ab19ca3a94d39ebfc36eb8d6b'
p113
sg12
S'xx132498fdffd9b48d8cfd6639d3953331'
p114
sg14
S'Mozilla/5.0 (Linux; Android 4.4.4; 2014811 Build/KTU84P) AppleWebKit/537.36 (KHTML, like Gecko) Version/4.0 Chrome/37.0.0.0 Mobile MQQBrowser/6.8 TBS/036849 Safari/537.36 MicroMessenger/6.3.25.861 NetType/WIFI Language/zh_CN'
p115
sg16
S'941318af80826a190c56aac2e3ae6e34'
p116
sa(dp117
g2
S'7901'
p118
sg4
S'1266'
p119
sg6
S'0651ca454e3fb2ad2ff6a602bdf9d99c'
p120
sg8
S'xx1cbe061286e607fbfe16ab2f0e7a5ddd'
p121
sg10
S'xx5ba6e83ab19ca3a94d39ebfc36eb8d6b'
p122
sg12
S'xx132498fdffd9b48d8cfd6639d3953331'
p123
sg14
S'Mozilla/5.0 (Linux; Android 4.4.4; 2014811 Build/KTU84P) AppleWebKit/537.36 (KHTML, like Gecko) Version/4.0 Chrome/37.0.0.0 Mobile MQQBrowser/6.8 TBS/036849 Safari/537.36 MicroMessenger/6.3.25.861 NetType/WIFI Language/zh_CN'
p124
sg16
S'941318af80826a190c56aac2e3ae6e34'
p125
sa(dp126
g2
S'7900'
p127
sg4
S'1277'
p128
sg6
S'0651ca454e3fb2ad2ff6a602bdf9d99c'
p129
sg8
S'xx1cbe061286e607fbfe16ab2f0e7a5ddd'
p130
sg10
S'xx5ba6e83ab19ca3a94d39ebfc36eb8d6b'
p131
sg12
S'xx132498fdffd9b48d8cfd6639d3953331'
p132
sg14
S'Mozilla/5.0 (Linux; Android 4.4.4; 2014811 Build/KTU84P) AppleWebKit/537.36 (KHTML, like Gecko) Version/4.0 Chrome/37.0.0.0 Mobile MQQBrowser/6.8 TBS/036849 Safari/537.36 MicroMessenger/6.3.25.861 NetType/WIFI Language/zh_CN'
p133
sg16
S'941318af80826a190c56aac2e3ae6e34'
p134
sa(dp135
g2
S'7901'
p136
sg4
S'1278'
p137
sg6
S'0651ca454e3fb2ad2ff6a602bdf9d99c'
p138
sg8
S'xx1cbe061286e607fbfe16ab2f0e7a5ddd'
p139
sg10
S'xx5ba6e83ab19ca3a94d39ebfc36eb8d6b'
p140
sg12
S'xx132498fdffd9b48d8cfd6639d3953331'
p141
sg14
S'Mozilla/5.0 (Linux; Android 4.4.4; 2014811 Build/KTU84P) AppleWebKit/537.36 (KHTML, like Gecko) Version/4.0 Chrome/37.0.0.0 Mobile MQQBrowser/6.8 TBS/036849 Safari/537.36 MicroMessenger/6.3.25.861 NetType/WIFI Language/zh_CN'
p142
sg16
S'941318af80826a190c56aac2e3ae6e34'
p143
sa(dp144
g2
S'7900'
p145
sg4
S'1292'
p146
sg6
S'0651ca454e3fb2ad2ff6a602bdf9d99c'
p147
sg8
S'xx1cbe061286e607fbfe16ab2f0e7a5ddd'
p148
sg10
S'xx5ba6e83ab19ca3a94d39ebfc36eb8d6b'
p149
sg12
S'xx132498fdffd9b48d8cfd6639d3953331'
p150
sg14
S'Mozilla/5.0 (Linux; Android 4.4.4; 2014811 Build/KTU84P) AppleWebKit/537.36 (KHTML, like Gecko) Version/4.0 Chrome/37.0.0.0 Mobile MQQBrowser/6.8 TBS/036849 Safari/537.36 MicroMessenger/6.3.25.861 NetType/WIFI Language/zh_CN'
p151
sg16
S'941318af80826a190c56aac2e3ae6e34'
p152
sa(dp153
g2
S'7901'
p154
sg4
S'1295'
p155
sg6
S'0651ca454e3fb2ad2ff6a602bdf9d99c'
p156
sg8
S'xx1cbe061286e607fbfe16ab2f0e7a5ddd'
p157
sg10
S'xx5ba6e83ab19ca3a94d39ebfc36eb8d6b'
p158
sg12
S'xx132498fdffd9b48d8cfd6639d3953331'
p159
sg14
S'Mozilla/5.0 (Linux; Android 4.4.4; 2014811 Build/KTU84P) AppleWebKit/537.36 (KHTML, like Gecko) Version/4.0 Chrome/37.0.0.0 Mobile MQQBrowser/6.8 TBS/036849 Safari/537.36 MicroMessenger/6.3.25.861 NetType/WIFI Language/zh_CN'
p160
sg16
S'941318af80826a190c56aac2e3ae6e34'
p161
sa(dp162
g2
S'7900'
p163
sg4
S'1721'
p164
sg6
S'0651ca454e3fb2ad2ff6a602bdf9d99c'
p165
sg8
S'xx1cbe061286e607fbfe16ab2f0e7a5ddd'
p166
sg10
S'xx5ba6e83ab19ca3a94d39ebfc36eb8d6b'
p167
sg12
S'xx132498fdffd9b48d8cfd6639d3953331'
p168
sg14
S'Mozilla/5.0 (Linux; Android 4.4.4; 2014811 Build/KTU84P) AppleWebKit/537.36 (KHTML, like Gecko) Version/4.0 Chrome/37.0.0.0 Mobile MQQBrowser/6.8 TBS/036849 Safari/537.36 MicroMessenger/6.3.25.861 NetType/WIFI Language/zh_CN'
p169
sg16
S'941318af80826a190c56aac2e3ae6e34'
p170
sa(dp171
g2
S'7900'
p172
sg4
S'1734'
p173
sg6
S'0651ca454e3fb2ad2ff6a602bdf9d99c'
p174
sg8
S'xx1cbe061286e607fbfe16ab2f0e7a5ddd'
p175
sg10
S'xx5ba6e83ab19ca3a94d39ebfc36eb8d6b'
p176
sg12
S'xx132498fdffd9b48d8cfd6639d3953331'
p177
sg14
S'Mozilla/5.0 (Linux; Android 4.4.4; 2014811 Build/KTU84P) AppleWebKit/537.36 (KHTML, like Gecko) Version/4.0 Chrome/37.0.0.0 Mobile MQQBrowser/6.8 TBS/036849 Safari/537.36 MicroMessenger/6.3.25.861 NetType/WIFI Language/zh_CN'
p178
sg16
S'941318af80826a190c56aac2e3ae6e34'
p179
sa(dp180
g2
S'7900'
p181
sg4
S'1746'
p182
sg6
S'0651ca454e3fb2ad2ff6a602bdf9d99c'
p183
sg8
S'xx1cbe061286e607fbfe16ab2f0e7a5ddd'
p184
sg10
S'xx5ba6e83ab19ca3a94d39ebfc36eb8d6b'
p185
sg12
S'xx132498fdffd9b48d8cfd6639d3953331'
p186
sg14
S'Mozilla/5.0 (Linux; Android 4.4.4; 2014811 Build/KTU84P) AppleWebKit/537.36 (KHTML, like Gecko) Version/4.0 Chrome/37.0.0.0 Mobile MQQBrowser/6.8 TBS/036849 Safari/537.36 MicroMessenger/6.3.25.861 NetType/WIFI Language/zh_CN'
p187
sg16
S'941318af80826a190c56aac2e3ae6e34'
p188
sa(dp189
g2
S'7900'
p190
sg4
S'1862'
p191
sg6
S'0651ca454e3fb2ad2ff6a602bdf9d99c'
p192
sg8
S'xx1cbe061286e607fbfe16ab2f0e7a5ddd'
p193
sg10
S'xx5ba6e83ab19ca3a94d39ebfc36eb8d6b'
p194
sg12
S'xx132498fdffd9b48d8cfd6639d3953331'
p195
sg14
S'Mozilla/5.0 (Linux; Android 4.4.4; 2014811 Build/KTU84P) AppleWebKit/537.36 (KHTML, like Gecko) Version/4.0 Chrome/37.0.0.0 Mobile MQQBrowser/6.8 TBS/036849 Safari/537.36 MicroMessenger/6.3.25.861 NetType/WIFI Language/zh_CN'
p196
sg16
S'941318af80826a190c56aac2e3ae6e34'
p197
sa(dp198
g2
S'7900'
p199
sg4
S'1876'
p200
sg6
S'0651ca454e3fb2ad2ff6a602bdf9d99c'
p201
sg8
S'xx1cbe061286e607fbfe16ab2f0e7a5ddd'
p202
sg10
S'xx5ba6e83ab19ca3a94d39ebfc36eb8d6b'
p203
sg12
S'xx132498fdffd9b48d8cfd6639d3953331'
p204
sg14
S'Mozilla/5.0 (Linux; Android 4.4.4; 2014811 Build/KTU84P) AppleWebKit/537.36 (KHTML, like Gecko) Version/4.0 Chrome/37.0.0.0 Mobile MQQBrowser/6.8 TBS/036849 Safari/537.36 MicroMessenger/6.3.25.861 NetType/WIFI Language/zh_CN'
p205
sg16
S'941318af80826a190c56aac2e3ae6e34'
p206
sa(dp207
g2
S'7901'
p208
sg4
S'1946'
p209
sg6
S'0651ca454e3fb2ad2ff6a602bdf9d99c'
p210
sg8
S'xx1cbe061286e607fbfe16ab2f0e7a5ddd'
p211
sg10
S'xx5ba6e83ab19ca3a94d39ebfc36eb8d6b'
p212
sg12
S'xx132498fdffd9b48d8cfd6639d3953331'
p213
sg14
S'Mozilla/5.0 (Linux; Android 4.4.4; 2014811 Build/KTU84P) AppleWebKit/537.36 (KHTML, like Gecko) Version/4.0 Chrome/37.0.0.0 Mobile MQQBrowser/6.8 TBS/036849 Safari/537.36 MicroMessenger/6.3.25.861 NetType/WIFI Language/zh_CN'
p214
sg16
S'941318af80826a190c56aac2e3ae6e34'
p215
sa(dp216
g2
S'7901'
p217
sg4
S'1969'
p218
sg6
S'0651ca454e3fb2ad2ff6a602bdf9d99c'
p219
sg8
S'xx1cbe061286e607fbfe16ab2f0e7a5ddd'
p220
sg10
S'xx5ba6e83ab19ca3a94d39ebfc36eb8d6b'
p221
sg12
S'xx132498fdffd9b48d8cfd6639d3953331'
p222
sg14
S'Mozilla/5.0 (Linux; Android 4.4.4; 2014811 Build/KTU84P) AppleWebKit/537.36 (KHTML, like Gecko) Version/4.0 Chrome/37.0.0.0 Mobile MQQBrowser/6.8 TBS/036849 Safari/537.36 MicroMessenger/6.3.25.861 NetType/WIFI Language/zh_CN'
p223
sg16
S'941318af80826a190c56aac2e3ae6e34'
p224
sa(dp225
g2
S'7900'
p226
sg4
S'2868'
p227
sg6
S'0651ca454e3fb2ad2ff6a602bdf9d99c'
p228
sg8
S'xx1cbe061286e607fbfe16ab2f0e7a5ddd'
p229
sg10
S'xx5ba6e83ab19ca3a94d39ebfc36eb8d6b'
p230
sg12
S'xx132498fdffd9b48d8cfd6639d3953331'
p231
sg14
S'Mozilla/5.0 (Linux; Android 4.4.4; 2014811 Build/KTU84P) AppleWebKit/537.36 (KHTML, like Gecko) Version/4.0 Chrome/37.0.0.0 Mobile MQQBrowser/6.8 TBS/036849 Safari/537.36 MicroMessenger/6.3.25.861 NetType/WIFI Language/zh_CN'
p232
sg16
S'941318af80826a190c56aac2e3ae6e34'
p233
sa(dp234
g2
S'7900'
p235
sg4
S'2890'
p236
sg6
S'0651ca454e3fb2ad2ff6a602bdf9d99c'
p237
sg8
S'xx1cbe061286e607fbfe16ab2f0e7a5ddd'
p238
sg10
S'xx5ba6e83ab19ca3a94d39ebfc36eb8d6b'
p239
sg12
S'xx132498fdffd9b48d8cfd6639d3953331'
p240
sg14
S'Mozilla/5.0 (Linux; Android 4.4.4; 2014811 Build/KTU84P) AppleWebKit/537.36 (KHTML, like Gecko) Version/4.0 Chrome/37.0.0.0 Mobile MQQBrowser/6.8 TBS/036849 Safari/537.36 MicroMessenger/6.3.25.861 NetType/WIFI Language/zh_CN'
p241
sg16
S'941318af80826a190c56aac2e3ae6e34'
p242
sa(dp243
g2
S'7901'
p244
sg4
S'2929'
p245
sg6
S'0651ca454e3fb2ad2ff6a602bdf9d99c'
p246
sg8
S'xx1cbe061286e607fbfe16ab2f0e7a5ddd'
p247
sg10
S'xx5ba6e83ab19ca3a94d39ebfc36eb8d6b'
p248
sg12
S'xx132498fdffd9b48d8cfd6639d3953331'
p249
sg14
S'Mozilla/5.0 (Linux; Android 4.4.4; 2014811 Build/KTU84P) AppleWebKit/537.36 (KHTML, like Gecko) Version/4.0 Chrome/37.0.0.0 Mobile MQQBrowser/6.8 TBS/036849 Safari/537.36 MicroMessenger/6.3.25.861 NetType/WIFI Language/zh_CN'
p250
sg16
S'941318af80826a190c56aac2e3ae6e34'
p251
sa(dp252
g2
S'7901'
p253
sg4
S'2949'
p254
sg6
S'0651ca454e3fb2ad2ff6a602bdf9d99c'
p255
sg8
S'xx1cbe061286e607fbfe16ab2f0e7a5ddd'
p256
sg10
S'xx5ba6e83ab19ca3a94d39ebfc36eb8d6b'
p257
sg12
S'xx132498fdffd9b48d8cfd6639d3953331'
p258
sg14
S'Mozilla/5.0 (Linux; Android 4.4.4; 2014811 Build/KTU84P) AppleWebKit/537.36 (KHTML, like Gecko) Version/4.0 Chrome/37.0.0.0 Mobile MQQBrowser/6.8 TBS/036849 Safari/537.36 MicroMessenger/6.3.25.861 NetType/WIFI Language/zh_CN'
p259
sg16
S'941318af80826a190c56aac2e3ae6e34'
p260
sa(dp261
g2
S'7900'
p262
sg4
S'4337'
p263
sg6
S'0651ca454e3fb2ad2ff6a602bdf9d99c'
p264
sg8
S'xx1cbe061286e607fbfe16ab2f0e7a5ddd'
p265
sg10
S'xx5ba6e83ab19ca3a94d39ebfc36eb8d6b'
p266
sg12
S'xx132498fdffd9b48d8cfd6639d3953331'
p267
sg14
S'Mozilla/5.0 (Linux; Android 4.4.4; 2014811 Build/KTU84P) AppleWebKit/537.36 (KHTML, like Gecko) Version/4.0 Chrome/37.0.0.0 Mobile MQQBrowser/6.8 TBS/036849 Safari/537.36 MicroMessenger/6.3.25.861 NetType/WIFI Language/zh_CN'
p268
sg16
S'941318af80826a190c56aac2e3ae6e34'
p269
sa(dp270
g2
S'7900'
p271
sg4
S'4358'
p272
sg6
S'0651ca454e3fb2ad2ff6a602bdf9d99c'
p273
sg8
S'xx1cbe061286e607fbfe16ab2f0e7a5ddd'
p274
sg10
S'xx5ba6e83ab19ca3a94d39ebfc36eb8d6b'
p275
sg12
S'xx132498fdffd9b48d8cfd6639d3953331'
p276
sg14
S'Mozilla/5.0 (Linux; Android 4.4.4; 2014811 Build/KTU84P) AppleWebKit/537.36 (KHTML, like Gecko) Version/4.0 Chrome/37.0.0.0 Mobile MQQBrowser/6.8 TBS/036849 Safari/537.36 MicroMessenger/6.3.25.861 NetType/WIFI Language/zh_CN'
p277
sg16
S'941318af80826a190c56aac2e3ae6e34'
p278
sa(dp279
g2
S'7900'
p280
sg4
S'4384'
p281
sg6
S'0651ca454e3fb2ad2ff6a602bdf9d99c'
p282
sg8
S'xx1cbe061286e607fbfe16ab2f0e7a5ddd'
p283
sg10
S'xx5ba6e83ab19ca3a94d39ebfc36eb8d6b'
p284
sg12
S'xx132498fdffd9b48d8cfd6639d3953331'
p285
sg14
S'Mozilla/5.0 (Linux; Android 4.4.4; 2014811 Build/KTU84P) AppleWebKit/537.36 (KHTML, like Gecko) Version/4.0 Chrome/37.0.0.0 Mobile MQQBrowser/6.8 TBS/036849 Safari/537.36 MicroMessenger/6.3.25.861 NetType/WIFI Language/zh_CN'
p286
sg16
S'941318af80826a190c56aac2e3ae6e34'
p287
sa(dp288
g2
S'7900'
p289
sg4
S'4410'
p290
sg6
S'0651ca454e3fb2ad2ff6a602bdf9d99c'
p291
sg8
S'xx1cbe061286e607fbfe16ab2f0e7a5ddd'
p292
sg10
S'xx5ba6e83ab19ca3a94d39ebfc36eb8d6b'
p293
sg12
S'xx132498fdffd9b48d8cfd6639d3953331'
p294
sg14
S'Mozilla/5.0 (Linux; Android 4.4.4; 2014811 Build/KTU84P) AppleWebKit/537.36 (KHTML, like Gecko) Version/4.0 Chrome/37.0.0.0 Mobile MQQBrowser/6.8 TBS/036849 Safari/537.36 MicroMessenger/6.3.25.861 NetType/WIFI Language/zh_CN'
p295
sg16
S'941318af80826a190c56aac2e3ae6e34'
p296
sa(dp297
g2
S'7901'
p298
sg4
S'4412'
p299
sg6
S'0651ca454e3fb2ad2ff6a602bdf9d99c'
p300
sg8
S'xx1cbe061286e607fbfe16ab2f0e7a5ddd'
p301
sg10
S'xx5ba6e83ab19ca3a94d39ebfc36eb8d6b'
p302
sg12
S'xx132498fdffd9b48d8cfd6639d3953331'
p303
sg14
S'Mozilla/5.0 (Linux; Android 4.4.4; 2014811 Build/KTU84P) AppleWebKit/537.36 (KHTML, like Gecko) Version/4.0 Chrome/37.0.0.0 Mobile MQQBrowser/6.8 TBS/036849 Safari/537.36 MicroMessenger/6.3.25.861 NetType/WIFI Language/zh_CN'
p304
sg16
S'941318af80826a190c56aac2e3ae6e34'
p305
sa(dp306
g2
S'7900'
p307
sg4
S'4430'
p308
sg6
S'0651ca454e3fb2ad2ff6a602bdf9d99c'
p309
sg8
S'xx1cbe061286e607fbfe16ab2f0e7a5ddd'
p310
sg10
S'xx5ba6e83ab19ca3a94d39ebfc36eb8d6b'
p311
sg12
S'xx132498fdffd9b48d8cfd6639d3953331'
p312
sg14
S'Mozilla/5.0 (Linux; Android 4.4.4; 2014811 Build/KTU84P) AppleWebKit/537.36 (KHTML, like Gecko) Version/4.0 Chrome/37.0.0.0 Mobile MQQBrowser/6.8 TBS/036849 Safari/537.36 MicroMessenger/6.3.25.861 NetType/WIFI Language/zh_CN'
p313
sg16
S'941318af80826a190c56aac2e3ae6e34'
p314
sa(dp315
g2
S'7901'
p316
sg4
S'4431'
p317
sg6
S'0651ca454e3fb2ad2ff6a602bdf9d99c'
p318
sg8
S'xx1cbe061286e607fbfe16ab2f0e7a5ddd'
p319
sg10
S'xx5ba6e83ab19ca3a94d39ebfc36eb8d6b'
p320
sg12
S'xx132498fdffd9b48d8cfd6639d3953331'
p321
sg14
S'Mozilla/5.0 (Linux; Android 4.4.4; 2014811 Build/KTU84P) AppleWebKit/537.36 (KHTML, like Gecko) Version/4.0 Chrome/37.0.0.0 Mobile MQQBrowser/6.8 TBS/036849 Safari/537.36 MicroMessenger/6.3.25.861 NetType/WIFI Language/zh_CN'
p322
sg16
S'941318af80826a190c56aac2e3ae6e34'
p323
sa(dp324
g2
S'7900'
p325
sg4
S'7912'
p326
sg6
S'0651ca454e3fb2ad2ff6a602bdf9d99c'
p327
sg8
S'xx1cbe061286e607fbfe16ab2f0e7a5ddd'
p328
sg10
S'xx5ba6e83ab19ca3a94d39ebfc36eb8d6b'
p329
sg12
S'xx132498fdffd9b48d8cfd6639d3953331'
p330
sg14
S'Mozilla/5.0 (Linux; Android 4.4.4; 2014811 Build/KTU84P) AppleWebKit/537.36 (KHTML, like Gecko) Version/4.0 Chrome/37.0.0.0 Mobile MQQBrowser/6.8 TBS/036849 Safari/537.36 MicroMessenger/6.3.25.861 NetType/WIFI Language/zh_CN'
p331
sg16
S'941318af80826a190c56aac2e3ae6e34'
p332
sa(dp333
g2
S'7900'
p334
sg4
S'7922'
p335
sg6
S'0651ca454e3fb2ad2ff6a602bdf9d99c'
p336
sg8
S'xx1cbe061286e607fbfe16ab2f0e7a5ddd'
p337
sg10
S'xx5ba6e83ab19ca3a94d39ebfc36eb8d6b'
p338
sg12
S'xx132498fdffd9b48d8cfd6639d3953331'
p339
sg14
S'Mozilla/5.0 (Linux; Android 4.4.4; 2014811 Build/KTU84P) AppleWebKit/537.36 (KHTML, like Gecko) Version/4.0 Chrome/37.0.0.0 Mobile MQQBrowser/6.8 TBS/036849 Safari/537.36 MicroMessenger/6.3.25.861 NetType/WIFI Language/zh_CN'
p340
sg16
S'941318af80826a190c56aac2e3ae6e34'
p341
sa.