(lp0
(dp1
S'user_id'
p2
S'30276'
p3
sS'data_id'
p4
S'1718'
p5
sS'ip'
p6
S'9a3bb90ea999051f1b5a6584aa020244'
p7
sS'phone_B'
p8
S'xxcc577fb4b3d19a013081e06a51214581'
p9
sS'phone_C'
p10
S'xx4dd0fb311056beb379fe24ae9b588484'
p11
sS'phone_A'
p12
S'xx130114f58d7e0db27f0e69e8f75b8225'
p13
sS'user_agent'
p14
S'Mozilla/5.0 (Linux; Android 4.4.4; Lenovo A2800-d Build/KTU84P) AppleWebKit/537.36 (KHTML, like Gecko) Version/4.0 Chrome/37.0.0.0 Mobile MQQBrowser/6.8 TBS/036849 Safari/537.36 MicroMessenger/6.3.27.880 NetType/WIFI Language/zh_CN'
p15
sS'ua'
p16
S'17534352a0a25767c21a80eec95dcf68'
p17
sa(dp18
g2
S'30276'
p19
sg4
S'1738'
p20
sg6
S'9a3bb90ea999051f1b5a6584aa020244'
p21
sg8
S'xxcc577fb4b3d19a013081e06a51214581'
p22
sg10
S'xx4dd0fb311056beb379fe24ae9b588484'
p23
sg12
S'xx130114f58d7e0db27f0e69e8f75b8225'
p24
sg14
S'Mozilla/5.0 (Linux; Android 4.4.4; Lenovo A2800-d Build/KTU84P) AppleWebKit/537.36 (KHTML, like Gecko) Version/4.0 Chrome/37.0.0.0 Mobile MQQBrowser/6.8 TBS/036849 Safari/537.36 MicroMessenger/6.3.27.880 NetType/WIFI Language/zh_CN'
p25
sg16
S'17534352a0a25767c21a80eec95dcf68'
p26
sa(dp27
g2
S'30276'
p28
sg4
S'1757'
p29
sg6
S'9a3bb90ea999051f1b5a6584aa020244'
p30
sg8
S'xxcc577fb4b3d19a013081e06a51214581'
p31
sg10
S'xx4dd0fb311056beb379fe24ae9b588484'
p32
sg12
S'xx130114f58d7e0db27f0e69e8f75b8225'
p33
sg14
S'Mozilla/5.0 (Linux; Android 4.4.4; Lenovo A2800-d Build/KTU84P) AppleWebKit/537.36 (KHTML, like Gecko) Version/4.0 Chrome/37.0.0.0 Mobile MQQBrowser/6.8 TBS/036849 Safari/537.36 MicroMessenger/6.3.27.880 NetType/WIFI Language/zh_CN'
p34
sg16
S'17534352a0a25767c21a80eec95dcf68'
p35
sa(dp36
g2
S'30276'
p37
sg4
S'5543'
p38
sg6
S'9a3bb90ea999051f1b5a6584aa020244'
p39
sg8
S'xxcc577fb4b3d19a013081e06a51214581'
p40
sg10
S'xx4dd0fb311056beb379fe24ae9b588484'
p41
sg12
S'xx130114f58d7e0db27f0e69e8f75b8225'
p42
sg14
S'Mozilla/5.0 (Linux; Android 4.4.4; Lenovo A2800-d Build/KTU84P) AppleWebKit/537.36 (KHTML, like Gecko) Version/4.0 Chrome/37.0.0.0 Mobile MQQBrowser/6.8 TBS/036849 Safari/537.36 MicroMessenger/6.3.27.880 NetType/WIFI Language/zh_CN'
p43
sg16
S'17534352a0a25767c21a80eec95dcf68'
p44
sa(dp45
g2
S'30276'
p46
sg4
S'5560'
p47
sg6
S'9a3bb90ea999051f1b5a6584aa020244'
p48
sg8
S'xxcc577fb4b3d19a013081e06a51214581'
p49
sg10
S'xx4dd0fb311056beb379fe24ae9b588484'
p50
sg12
S'xx130114f58d7e0db27f0e69e8f75b8225'
p51
sg14
S'Mozilla/5.0 (Linux; Android 4.4.4; Lenovo A2800-d Build/KTU84P) AppleWebKit/537.36 (KHTML, like Gecko) Version/4.0 Chrome/37.0.0.0 Mobile MQQBrowser/6.8 TBS/036849 Safari/537.36 MicroMessenger/6.3.27.880 NetType/WIFI Language/zh_CN'
p52
sg16
S'17534352a0a25767c21a80eec95dcf68'
p53
sa(dp54
g2
S'30276'
p55
sg4
S'5577'
p56
sg6
S'9a3bb90ea999051f1b5a6584aa020244'
p57
sg8
S'xxcc577fb4b3d19a013081e06a51214581'
p58
sg10
S'xx4dd0fb311056beb379fe24ae9b588484'
p59
sg12
S'xx130114f58d7e0db27f0e69e8f75b8225'
p60
sg14
S'Mozilla/5.0 (Linux; Android 4.4.4; Lenovo A2800-d Build/KTU84P) AppleWebKit/537.36 (KHTML, like Gecko) Version/4.0 Chrome/37.0.0.0 Mobile MQQBrowser/6.8 TBS/036849 Safari/537.36 MicroMessenger/6.3.27.880 NetType/WIFI Language/zh_CN'
p61
sg16
S'17534352a0a25767c21a80eec95dcf68'
p62
sa(dp63
g2
S'30276'
p64
sg4
S'5598'
p65
sg6
S'9a3bb90ea999051f1b5a6584aa020244'
p66
sg8
S'xxcc577fb4b3d19a013081e06a51214581'
p67
sg10
S'xx4dd0fb311056beb379fe24ae9b588484'
p68
sg12
S'xx130114f58d7e0db27f0e69e8f75b8225'
p69
sg14
S'Mozilla/5.0 (Linux; Android 4.4.4; Lenovo A2800-d Build/KTU84P) AppleWebKit/537.36 (KHTML, like Gecko) Version/4.0 Chrome/37.0.0.0 Mobile MQQBrowser/6.8 TBS/036849 Safari/537.36 MicroMessenger/6.3.27.880 NetType/WIFI Language/zh_CN'
p70
sg16
S'17534352a0a25767c21a80eec95dcf68'
p71
sa(dp72
g2
S'30276'
p73
sg4
S'5612'
p74
sg6
S'9a3bb90ea999051f1b5a6584aa020244'
p75
sg8
S'xxcc577fb4b3d19a013081e06a51214581'
p76
sg10
S'xx4dd0fb311056beb379fe24ae9b588484'
p77
sg12
S'xx130114f58d7e0db27f0e69e8f75b8225'
p78
sg14
S'Mozilla/5.0 (Linux; Android 4.4.4; Lenovo A2800-d Build/KTU84P) AppleWebKit/537.36 (KHTML, like Gecko) Version/4.0 Chrome/37.0.0.0 Mobile MQQBrowser/6.8 TBS/036849 Safari/537.36 MicroMessenger/6.3.27.880 NetType/WIFI Language/zh_CN'
p79
sg16
S'17534352a0a25767c21a80eec95dcf68'
p80
sa(dp81
g2
S'30276'
p82
sg4
S'5630'
p83
sg6
S'9a3bb90ea999051f1b5a6584aa020244'
p84
sg8
S'xxcc577fb4b3d19a013081e06a51214581'
p85
sg10
S'xx4dd0fb311056beb379fe24ae9b588484'
p86
sg12
S'xx130114f58d7e0db27f0e69e8f75b8225'
p87
sg14
S'Mozilla/5.0 (Linux; Android 4.4.4; Lenovo A2800-d Build/KTU84P) AppleWebKit/537.36 (KHTML, like Gecko) Version/4.0 Chrome/37.0.0.0 Mobile MQQBrowser/6.8 TBS/036849 Safari/537.36 MicroMessenger/6.3.27.880 NetType/WIFI Language/zh_CN'
p88
sg16
S'17534352a0a25767c21a80eec95dcf68'
p89
sa(dp90
g2
S'30276'
p91
sg4
S'5645'
p92
sg6
S'9a3bb90ea999051f1b5a6584aa020244'
p93
sg8
S'xxcc577fb4b3d19a013081e06a51214581'
p94
sg10
S'xx4dd0fb311056beb379fe24ae9b588484'
p95
sg12
S'xx130114f58d7e0db27f0e69e8f75b8225'
p96
sg14
S'Mozilla/5.0 (Linux; Android 4.4.4; Lenovo A2800-d Build/KTU84P) AppleWebKit/537.36 (KHTML, like Gecko) Version/4.0 Chrome/37.0.0.0 Mobile MQQBrowser/6.8 TBS/036849 Safari/537.36 MicroMessenger/6.3.27.880 NetType/WIFI Language/zh_CN'
p97
sg16
S'17534352a0a25767c21a80eec95dcf68'
p98
sa(dp99
g2
S'30276'
p100
sg4
S'5663'
p101
sg6
S'9a3bb90ea999051f1b5a6584aa020244'
p102
sg8
S'xxcc577fb4b3d19a013081e06a51214581'
p103
sg10
S'xx4dd0fb311056beb379fe24ae9b588484'
p104
sg12
S'xx130114f58d7e0db27f0e69e8f75b8225'
p105
sg14
S'Mozilla/5.0 (Linux; Android 4.4.4; Lenovo A2800-d Build/KTU84P) AppleWebKit/537.36 (KHTML, like Gecko) Version/4.0 Chrome/37.0.0.0 Mobile MQQBrowser/6.8 TBS/036849 Safari/537.36 MicroMessenger/6.3.27.880 NetType/WIFI Language/zh_CN'
p106
sg16
S'17534352a0a25767c21a80eec95dcf68'
p107
sa(dp108
g2
S'30276'
p109
sg4
S'5680'
p110
sg6
S'9a3bb90ea999051f1b5a6584aa020244'
p111
sg8
S'xxcc577fb4b3d19a013081e06a51214581'
p112
sg10
S'xx4dd0fb311056beb379fe24ae9b588484'
p113
sg12
S'xx130114f58d7e0db27f0e69e8f75b8225'
p114
sg14
S'Mozilla/5.0 (Linux; Android 4.4.4; Lenovo A2800-d Build/KTU84P) AppleWebKit/537.36 (KHTML, like Gecko) Version/4.0 Chrome/37.0.0.0 Mobile MQQBrowser/6.8 TBS/036849 Safari/537.36 MicroMessenger/6.3.27.880 NetType/WIFI Language/zh_CN'
p115
sg16
S'17534352a0a25767c21a80eec95dcf68'
p116
sa(dp117
g2
S'30276'
p118
sg4
S'5697'
p119
sg6
S'9a3bb90ea999051f1b5a6584aa020244'
p120
sg8
S'xxcc577fb4b3d19a013081e06a51214581'
p121
sg10
S'xx4dd0fb311056beb379fe24ae9b588484'
p122
sg12
S'xx130114f58d7e0db27f0e69e8f75b8225'
p123
sg14
S'Mozilla/5.0 (Linux; Android 4.4.4; Lenovo A2800-d Build/KTU84P) AppleWebKit/537.36 (KHTML, like Gecko) Version/4.0 Chrome/37.0.0.0 Mobile MQQBrowser/6.8 TBS/036849 Safari/537.36 MicroMessenger/6.3.27.880 NetType/WIFI Language/zh_CN'
p124
sg16
S'17534352a0a25767c21a80eec95dcf68'
p125
sa(dp126
g2
S'30276'
p127
sg4
S'5715'
p128
sg6
S'9a3bb90ea999051f1b5a6584aa020244'
p129
sg8
S'xxcc577fb4b3d19a013081e06a51214581'
p130
sg10
S'xx4dd0fb311056beb379fe24ae9b588484'
p131
sg12
S'xx130114f58d7e0db27f0e69e8f75b8225'
p132
sg14
S'Mozilla/5.0 (Linux; Android 4.4.4; Lenovo A2800-d Build/KTU84P) AppleWebKit/537.36 (KHTML, like Gecko) Version/4.0 Chrome/37.0.0.0 Mobile MQQBrowser/6.8 TBS/036849 Safari/537.36 MicroMessenger/6.3.27.880 NetType/WIFI Language/zh_CN'
p133
sg16
S'17534352a0a25767c21a80eec95dcf68'
p134
sa(dp135
g2
S'30276'
p136
sg4
S'5730'
p137
sg6
S'9a3bb90ea999051f1b5a6584aa020244'
p138
sg8
S'xxcc577fb4b3d19a013081e06a51214581'
p139
sg10
S'xx4dd0fb311056beb379fe24ae9b588484'
p140
sg12
S'xx130114f58d7e0db27f0e69e8f75b8225'
p141
sg14
S'Mozilla/5.0 (Linux; Android 4.4.4; Lenovo A2800-d Build/KTU84P) AppleWebKit/537.36 (KHTML, like Gecko) Version/4.0 Chrome/37.0.0.0 Mobile MQQBrowser/6.8 TBS/036849 Safari/537.36 MicroMessenger/6.3.27.880 NetType/WIFI Language/zh_CN'
p142
sg16
S'17534352a0a25767c21a80eec95dcf68'
p143
sa(dp144
g2
S'30276'
p145
sg4
S'5747'
p146
sg6
S'9a3bb90ea999051f1b5a6584aa020244'
p147
sg8
S'xxcc577fb4b3d19a013081e06a51214581'
p148
sg10
S'xx4dd0fb311056beb379fe24ae9b588484'
p149
sg12
S'xx130114f58d7e0db27f0e69e8f75b8225'
p150
sg14
S'Mozilla/5.0 (Linux; Android 4.4.4; Lenovo A2800-d Build/KTU84P) AppleWebKit/537.36 (KHTML, like Gecko) Version/4.0 Chrome/37.0.0.0 Mobile MQQBrowser/6.8 TBS/036849 Safari/537.36 MicroMessenger/6.3.27.880 NetType/WIFI Language/zh_CN'
p151
sg16
S'17534352a0a25767c21a80eec95dcf68'
p152
sa(dp153
g2
S'30276'
p154
sg4
S'5768'
p155
sg6
S'9a3bb90ea999051f1b5a6584aa020244'
p156
sg8
S'xxcc577fb4b3d19a013081e06a51214581'
p157
sg10
S'xx4dd0fb311056beb379fe24ae9b588484'
p158
sg12
S'xx130114f58d7e0db27f0e69e8f75b8225'
p159
sg14
S'Mozilla/5.0 (Linux; Android 4.4.4; Lenovo A2800-d Build/KTU84P) AppleWebKit/537.36 (KHTML, like Gecko) Version/4.0 Chrome/37.0.0.0 Mobile MQQBrowser/6.8 TBS/036849 Safari/537.36 MicroMessenger/6.3.27.880 NetType/WIFI Language/zh_CN'
p160
sg16
S'17534352a0a25767c21a80eec95dcf68'
p161
sa(dp162
g2
S'30276'
p163
sg4
S'5787'
p164
sg6
S'9a3bb90ea999051f1b5a6584aa020244'
p165
sg8
S'xxcc577fb4b3d19a013081e06a51214581'
p166
sg10
S'xx4dd0fb311056beb379fe24ae9b588484'
p167
sg12
S'xx130114f58d7e0db27f0e69e8f75b8225'
p168
sg14
S'Mozilla/5.0 (Linux; Android 4.4.4; Lenovo A2800-d Build/KTU84P) AppleWebKit/537.36 (KHTML, like Gecko) Version/4.0 Chrome/37.0.0.0 Mobile MQQBrowser/6.8 TBS/036849 Safari/537.36 MicroMessenger/6.3.27.880 NetType/WIFI Language/zh_CN'
p169
sg16
S'17534352a0a25767c21a80eec95dcf68'
p170
sa(dp171
g2
S'30276'
p172
sg4
S'5805'
p173
sg6
S'9a3bb90ea999051f1b5a6584aa020244'
p174
sg8
S'xxcc577fb4b3d19a013081e06a51214581'
p175
sg10
S'xx4dd0fb311056beb379fe24ae9b588484'
p176
sg12
S'xx130114f58d7e0db27f0e69e8f75b8225'
p177
sg14
S'Mozilla/5.0 (Linux; Android 4.4.4; Lenovo A2800-d Build/KTU84P) AppleWebKit/537.36 (KHTML, like Gecko) Version/4.0 Chrome/37.0.0.0 Mobile MQQBrowser/6.8 TBS/036849 Safari/537.36 MicroMessenger/6.3.27.880 NetType/WIFI Language/zh_CN'
p178
sg16
S'17534352a0a25767c21a80eec95dcf68'
p179
sa(dp180
g2
S'30276'
p181
sg4
S'5824'
p182
sg6
S'9a3bb90ea999051f1b5a6584aa020244'
p183
sg8
S'xxcc577fb4b3d19a013081e06a51214581'
p184
sg10
S'xx4dd0fb311056beb379fe24ae9b588484'
p185
sg12
S'xx130114f58d7e0db27f0e69e8f75b8225'
p186
sg14
S'Mozilla/5.0 (Linux; Android 4.4.4; Lenovo A2800-d Build/KTU84P) AppleWebKit/537.36 (KHTML, like Gecko) Version/4.0 Chrome/37.0.0.0 Mobile MQQBrowser/6.8 TBS/036849 Safari/537.36 MicroMessenger/6.3.27.880 NetType/WIFI Language/zh_CN'
p187
sg16
S'17534352a0a25767c21a80eec95dcf68'
p188
sa(dp189
g2
S'30276'
p190
sg4
S'5838'
p191
sg6
S'9a3bb90ea999051f1b5a6584aa020244'
p192
sg8
S'xxcc577fb4b3d19a013081e06a51214581'
p193
sg10
S'xx4dd0fb311056beb379fe24ae9b588484'
p194
sg12
S'xx130114f58d7e0db27f0e69e8f75b8225'
p195
sg14
S'Mozilla/5.0 (Linux; Android 4.4.4; Lenovo A2800-d Build/KTU84P) AppleWebKit/537.36 (KHTML, like Gecko) Version/4.0 Chrome/37.0.0.0 Mobile MQQBrowser/6.8 TBS/036849 Safari/537.36 MicroMessenger/6.3.27.880 NetType/WIFI Language/zh_CN'
p196
sg16
S'17534352a0a25767c21a80eec95dcf68'
p197
sa(dp198
g2
S'30276'
p199
sg4
S'6072'
p200
sg6
S'9a3bb90ea999051f1b5a6584aa020244'
p201
sg8
S'xxcc577fb4b3d19a013081e06a51214581'
p202
sg10
S'xx4dd0fb311056beb379fe24ae9b588484'
p203
sg12
S'xx130114f58d7e0db27f0e69e8f75b8225'
p204
sg14
S'Mozilla/5.0 (Linux; Android 4.4.4; Lenovo A2800-d Build/KTU84P) AppleWebKit/537.36 (KHTML, like Gecko) Version/4.0 Chrome/37.0.0.0 Mobile MQQBrowser/6.8 TBS/036849 Safari/537.36 MicroMessenger/6.3.27.880 NetType/WIFI Language/zh_CN'
p205
sg16
S'17534352a0a25767c21a80eec95dcf68'
p206
sa(dp207
g2
S'30276'
p208
sg4
S'6087'
p209
sg6
S'9a3bb90ea999051f1b5a6584aa020244'
p210
sg8
S'xxcc577fb4b3d19a013081e06a51214581'
p211
sg10
S'xx4dd0fb311056beb379fe24ae9b588484'
p212
sg12
S'xx130114f58d7e0db27f0e69e8f75b8225'
p213
sg14
S'Mozilla/5.0 (Linux; Android 4.4.4; Lenovo A2800-d Build/KTU84P) AppleWebKit/537.36 (KHTML, like Gecko) Version/4.0 Chrome/37.0.0.0 Mobile MQQBrowser/6.8 TBS/036849 Safari/537.36 MicroMessenger/6.3.27.880 NetType/WIFI Language/zh_CN'
p214
sg16
S'17534352a0a25767c21a80eec95dcf68'
p215
sa(dp216
g2
S'30276'
p217
sg4
S'6260'
p218
sg6
S'9a3bb90ea999051f1b5a6584aa020244'
p219
sg8
S'xxcc577fb4b3d19a013081e06a51214581'
p220
sg10
S'xx4dd0fb311056beb379fe24ae9b588484'
p221
sg12
S'xx130114f58d7e0db27f0e69e8f75b8225'
p222
sg14
S'Mozilla/5.0 (Linux; Android 4.4.4; Lenovo A2800-d Build/KTU84P) AppleWebKit/537.36 (KHTML, like Gecko) Version/4.0 Chrome/37.0.0.0 Mobile MQQBrowser/6.8 TBS/036849 Safari/537.36 MicroMessenger/6.3.27.880 NetType/WIFI Language/zh_CN'
p223
sg16
S'17534352a0a25767c21a80eec95dcf68'
p224
sa(dp225
g2
S'30276'
p226
sg4
S'6327'
p227
sg6
S'9a3bb90ea999051f1b5a6584aa020244'
p228
sg8
S'xxcc577fb4b3d19a013081e06a51214581'
p229
sg10
S'xx4dd0fb311056beb379fe24ae9b588484'
p230
sg12
S'xx130114f58d7e0db27f0e69e8f75b8225'
p231
sg14
S'Mozilla/5.0 (Linux; Android 4.4.4; Lenovo A2800-d Build/KTU84P) AppleWebKit/537.36 (KHTML, like Gecko) Version/4.0 Chrome/37.0.0.0 Mobile MQQBrowser/6.8 TBS/036849 Safari/537.36 MicroMessenger/6.3.27.880 NetType/WIFI Language/zh_CN'
p232
sg16
S'17534352a0a25767c21a80eec95dcf68'
p233
sa(dp234
g2
S'30276'
p235
sg4
S'6356'
p236
sg6
S'9a3bb90ea999051f1b5a6584aa020244'
p237
sg8
S'xxcc577fb4b3d19a013081e06a51214581'
p238
sg10
S'xx4dd0fb311056beb379fe24ae9b588484'
p239
sg12
S'xx130114f58d7e0db27f0e69e8f75b8225'
p240
sg14
S'Mozilla/5.0 (Linux; Android 4.4.4; Lenovo A2800-d Build/KTU84P) AppleWebKit/537.36 (KHTML, like Gecko) Version/4.0 Chrome/37.0.0.0 Mobile MQQBrowser/6.8 TBS/036849 Safari/537.36 MicroMessenger/6.3.27.880 NetType/WIFI Language/zh_CN'
p241
sg16
S'17534352a0a25767c21a80eec95dcf68'
p242
sa(dp243
g2
S'30276'
p244
sg4
S'6371'
p245
sg6
S'9a3bb90ea999051f1b5a6584aa020244'
p246
sg8
S'xxcc577fb4b3d19a013081e06a51214581'
p247
sg10
S'xx4dd0fb311056beb379fe24ae9b588484'
p248
sg12
S'xx130114f58d7e0db27f0e69e8f75b8225'
p249
sg14
S'Mozilla/5.0 (Linux; Android 4.4.4; Lenovo A2800-d Build/KTU84P) AppleWebKit/537.36 (KHTML, like Gecko) Version/4.0 Chrome/37.0.0.0 Mobile MQQBrowser/6.8 TBS/036849 Safari/537.36 MicroMessenger/6.3.27.880 NetType/WIFI Language/zh_CN'
p250
sg16
S'17534352a0a25767c21a80eec95dcf68'
p251
sa(dp252
g2
S'30276'
p253
sg4
S'7247'
p254
sg6
S'9a3bb90ea999051f1b5a6584aa020244'
p255
sg8
S'xxcc577fb4b3d19a013081e06a51214581'
p256
sg10
S'xx4dd0fb311056beb379fe24ae9b588484'
p257
sg12
S'xx130114f58d7e0db27f0e69e8f75b8225'
p258
sg14
S'Mozilla/5.0 (Linux; Android 4.4.4; Lenovo A2800-d Build/KTU84P) AppleWebKit/537.36 (KHTML, like Gecko) Version/4.0 Chrome/37.0.0.0 Mobile MQQBrowser/6.8 TBS/036849 Safari/537.36 MicroMessenger/6.3.27.880 NetType/WIFI Language/zh_CN'
p259
sg16
S'17534352a0a25767c21a80eec95dcf68'
p260
sa(dp261
g2
S'30276'
p262
sg4
S'7259'
p263
sg6
S'9a3bb90ea999051f1b5a6584aa020244'
p264
sg8
S'xxcc577fb4b3d19a013081e06a51214581'
p265
sg10
S'xx4dd0fb311056beb379fe24ae9b588484'
p266
sg12
S'xx130114f58d7e0db27f0e69e8f75b8225'
p267
sg14
S'Mozilla/5.0 (Linux; Android 4.4.4; Lenovo A2800-d Build/KTU84P) AppleWebKit/537.36 (KHTML, like Gecko) Version/4.0 Chrome/37.0.0.0 Mobile MQQBrowser/6.8 TBS/036849 Safari/537.36 MicroMessenger/6.3.27.880 NetType/WIFI Language/zh_CN'
p268
sg16
S'17534352a0a25767c21a80eec95dcf68'
p269
sa(dp270
g2
S'30276'
p271
sg4
S'7275'
p272
sg6
S'9a3bb90ea999051f1b5a6584aa020244'
p273
sg8
S'xxcc577fb4b3d19a013081e06a51214581'
p274
sg10
S'xx4dd0fb311056beb379fe24ae9b588484'
p275
sg12
S'xx130114f58d7e0db27f0e69e8f75b8225'
p276
sg14
S'Mozilla/5.0 (Linux; Android 4.4.4; Lenovo A2800-d Build/KTU84P) AppleWebKit/537.36 (KHTML, like Gecko) Version/4.0 Chrome/37.0.0.0 Mobile MQQBrowser/6.8 TBS/036849 Safari/537.36 MicroMessenger/6.3.27.880 NetType/WIFI Language/zh_CN'
p277
sg16
S'17534352a0a25767c21a80eec95dcf68'
p278
sa(dp279
g2
S'30276'
p280
sg4
S'7295'
p281
sg6
S'9a3bb90ea999051f1b5a6584aa020244'
p282
sg8
S'xxcc577fb4b3d19a013081e06a51214581'
p283
sg10
S'xx4dd0fb311056beb379fe24ae9b588484'
p284
sg12
S'xx130114f58d7e0db27f0e69e8f75b8225'
p285
sg14
S'Mozilla/5.0 (Linux; Android 4.4.4; Lenovo A2800-d Build/KTU84P) AppleWebKit/537.36 (KHTML, like Gecko) Version/4.0 Chrome/37.0.0.0 Mobile MQQBrowser/6.8 TBS/036849 Safari/537.36 MicroMessenger/6.3.27.880 NetType/WIFI Language/zh_CN'
p286
sg16
S'17534352a0a25767c21a80eec95dcf68'
p287
sa(dp288
g2
S'30276'
p289
sg4
S'7311'
p290
sg6
S'9a3bb90ea999051f1b5a6584aa020244'
p291
sg8
S'xxcc577fb4b3d19a013081e06a51214581'
p292
sg10
S'xx4dd0fb311056beb379fe24ae9b588484'
p293
sg12
S'xx130114f58d7e0db27f0e69e8f75b8225'
p294
sg14
S'Mozilla/5.0 (Linux; Android 4.4.4; Lenovo A2800-d Build/KTU84P) AppleWebKit/537.36 (KHTML, like Gecko) Version/4.0 Chrome/37.0.0.0 Mobile MQQBrowser/6.8 TBS/036849 Safari/537.36 MicroMessenger/6.3.27.880 NetType/WIFI Language/zh_CN'
p295
sg16
S'17534352a0a25767c21a80eec95dcf68'
p296
sa(dp297
g2
S'30276'
p298
sg4
S'7456'
p299
sg6
S'9a3bb90ea999051f1b5a6584aa020244'
p300
sg8
S'xxcc577fb4b3d19a013081e06a51214581'
p301
sg10
S'xx4dd0fb311056beb379fe24ae9b588484'
p302
sg12
S'xx130114f58d7e0db27f0e69e8f75b8225'
p303
sg14
S'Mozilla/5.0 (Linux; Android 4.4.4; Lenovo A2800-d Build/KTU84P) AppleWebKit/537.36 (KHTML, like Gecko) Version/4.0 Chrome/37.0.0.0 Mobile MQQBrowser/6.8 TBS/036849 Safari/537.36 MicroMessenger/6.3.27.880 NetType/WIFI Language/zh_CN'
p304
sg16
S'17534352a0a25767c21a80eec95dcf68'
p305
sa(dp306
g2
S'30276'
p307
sg4
S'7468'
p308
sg6
S'9a3bb90ea999051f1b5a6584aa020244'
p309
sg8
S'xxcc577fb4b3d19a013081e06a51214581'
p310
sg10
S'xx4dd0fb311056beb379fe24ae9b588484'
p311
sg12
S'xx130114f58d7e0db27f0e69e8f75b8225'
p312
sg14
S'Mozilla/5.0 (Linux; Android 4.4.4; Lenovo A2800-d Build/KTU84P) AppleWebKit/537.36 (KHTML, like Gecko) Version/4.0 Chrome/37.0.0.0 Mobile MQQBrowser/6.8 TBS/036849 Safari/537.36 MicroMessenger/6.3.27.880 NetType/WIFI Language/zh_CN'
p313
sg16
S'17534352a0a25767c21a80eec95dcf68'
p314
sa.