(lp0
(dp1
S'user_id'
p2
S'37182'
p3
sS'data_id'
p4
S'1236'
p5
sS'ip'
p6
S'7470be4cdd895a5288c45b70e34cddc6'
p7
sS'phone_B'
p8
S'xx46a3d8dcf4a0621f0d923955b8c73b05'
p9
sS'phone_C'
p10
S'xxa4bb285681cc7dfa48a060ed0be9ac9e'
p11
sS'phone_A'
p12
S'xx1465ce60bbaf1bc34118f385a336e20f'
p13
sS'user_agent'
p14
S'Mozilla/5.0 (Linux; Android 4.3; GT-I9300I Build/JLS36C) AppleWebKit/537.36 (KHTML, like Gecko) Version/4.0 Chrome/37.0.0.0 Mobile MQQBrowser/6.8 TBS/036849 Safari/537.36 MicroMessenger/6.3.25.861 NetType/WIFI Language/zh_CN'
p15
sS'ua'
p16
S'567c9e5b94a12c8d0ee22f4a6856a1a8'
p17
sa(dp18
g2
S'37182'
p19
sg4
S'1247'
p20
sg6
S'7470be4cdd895a5288c45b70e34cddc6'
p21
sg8
S'xx46a3d8dcf4a0621f0d923955b8c73b05'
p22
sg10
S'xxa4bb285681cc7dfa48a060ed0be9ac9e'
p23
sg12
S'xx1465ce60bbaf1bc34118f385a336e20f'
p24
sg14
S'Mozilla/5.0 (Linux; Android 4.3; GT-I9300I Build/JLS36C) AppleWebKit/537.36 (KHTML, like Gecko) Version/4.0 Chrome/37.0.0.0 Mobile MQQBrowser/6.8 TBS/036849 Safari/537.36 MicroMessenger/6.3.25.861 NetType/WIFI Language/zh_CN'
p25
sg16
S'567c9e5b94a12c8d0ee22f4a6856a1a8'
p26
sa(dp27
g2
S'37182'
p28
sg4
S'2622'
p29
sg6
S'7470be4cdd895a5288c45b70e34cddc6'
p30
sg8
S'xx46a3d8dcf4a0621f0d923955b8c73b05'
p31
sg10
S'xxa4bb285681cc7dfa48a060ed0be9ac9e'
p32
sg12
S'xx1465ce60bbaf1bc34118f385a336e20f'
p33
sg14
S'Mozilla/5.0 (Linux; Android 4.3; GT-I9300I Build/JLS36C) AppleWebKit/537.36 (KHTML, like Gecko) Version/4.0 Chrome/37.0.0.0 Mobile MQQBrowser/6.8 TBS/036849 Safari/537.36 MicroMessenger/6.3.25.861 NetType/WIFI Language/zh_CN'
p34
sg16
S'567c9e5b94a12c8d0ee22f4a6856a1a8'
p35
sa(dp36
g2
S'37182'
p37
sg4
S'2647'
p38
sg6
S'7470be4cdd895a5288c45b70e34cddc6'
p39
sg8
S'xx46a3d8dcf4a0621f0d923955b8c73b05'
p40
sg10
S'xxa4bb285681cc7dfa48a060ed0be9ac9e'
p41
sg12
S'xx1465ce60bbaf1bc34118f385a336e20f'
p42
sg14
S'Mozilla/5.0 (Linux; Android 4.3; GT-I9300I Build/JLS36C) AppleWebKit/537.36 (KHTML, like Gecko) Version/4.0 Chrome/37.0.0.0 Mobile MQQBrowser/6.8 TBS/036849 Safari/537.36 MicroMessenger/6.3.25.861 NetType/WIFI Language/zh_CN'
p43
sg16
S'567c9e5b94a12c8d0ee22f4a6856a1a8'
p44
sa(dp45
g2
S'37182'
p46
sg4
S'4248'
p47
sg6
S'7470be4cdd895a5288c45b70e34cddc6'
p48
sg8
S'xx46a3d8dcf4a0621f0d923955b8c73b05'
p49
sg10
S'xxa4bb285681cc7dfa48a060ed0be9ac9e'
p50
sg12
S'xx1465ce60bbaf1bc34118f385a336e20f'
p51
sg14
S'Mozilla/5.0 (Linux; Android 4.3; GT-I9300I Build/JLS36C) AppleWebKit/537.36 (KHTML, like Gecko) Version/4.0 Chrome/37.0.0.0 Mobile MQQBrowser/6.8 TBS/036849 Safari/537.36 MicroMessenger/6.3.25.861 NetType/WIFI Language/zh_CN'
p52
sg16
S'567c9e5b94a12c8d0ee22f4a6856a1a8'
p53
sa(dp54
g2
S'37182'
p55
sg4
S'4271'
p56
sg6
S'7470be4cdd895a5288c45b70e34cddc6'
p57
sg8
S'xx46a3d8dcf4a0621f0d923955b8c73b05'
p58
sg10
S'xxa4bb285681cc7dfa48a060ed0be9ac9e'
p59
sg12
S'xx1465ce60bbaf1bc34118f385a336e20f'
p60
sg14
S'Mozilla/5.0 (Linux; Android 4.3; GT-I9300I Build/JLS36C) AppleWebKit/537.36 (KHTML, like Gecko) Version/4.0 Chrome/37.0.0.0 Mobile MQQBrowser/6.8 TBS/036849 Safari/537.36 MicroMessenger/6.3.25.861 NetType/WIFI Language/zh_CN'
p61
sg16
S'567c9e5b94a12c8d0ee22f4a6856a1a8'
p62
sa(dp63
g2
S'37182'
p64
sg4
S'4316'
p65
sg6
S'7470be4cdd895a5288c45b70e34cddc6'
p66
sg8
S'xx46a3d8dcf4a0621f0d923955b8c73b05'
p67
sg10
S'xxa4bb285681cc7dfa48a060ed0be9ac9e'
p68
sg12
S'xx1465ce60bbaf1bc34118f385a336e20f'
p69
sg14
S'Mozilla/5.0 (Linux; Android 4.3; GT-I9300I Build/JLS36C) AppleWebKit/537.36 (KHTML, like Gecko) Version/4.0 Chrome/37.0.0.0 Mobile MQQBrowser/6.8 TBS/036849 Safari/537.36 MicroMessenger/6.3.25.861 NetType/WIFI Language/zh_CN'
p70
sg16
S'567c9e5b94a12c8d0ee22f4a6856a1a8'
p71
sa(dp72
g2
S'37182'
p73
sg4
S'4834'
p74
sg6
S'7470be4cdd895a5288c45b70e34cddc6'
p75
sg8
S'xx46a3d8dcf4a0621f0d923955b8c73b05'
p76
sg10
S'xxa4bb285681cc7dfa48a060ed0be9ac9e'
p77
sg12
S'xx1465ce60bbaf1bc34118f385a336e20f'
p78
sg14
S'Mozilla/5.0 (Linux; Android 4.3; GT-I9300I Build/JLS36C) AppleWebKit/537.36 (KHTML, like Gecko) Version/4.0 Chrome/37.0.0.0 Mobile MQQBrowser/6.8 TBS/036849 Safari/537.36 MicroMessenger/6.3.25.861 NetType/WIFI Language/zh_CN'
p79
sg16
S'567c9e5b94a12c8d0ee22f4a6856a1a8'
p80
sa(dp81
g2
S'37182'
p82
sg4
S'4847'
p83
sg6
S'7470be4cdd895a5288c45b70e34cddc6'
p84
sg8
S'xx46a3d8dcf4a0621f0d923955b8c73b05'
p85
sg10
S'xxa4bb285681cc7dfa48a060ed0be9ac9e'
p86
sg12
S'xx1465ce60bbaf1bc34118f385a336e20f'
p87
sg14
S'Mozilla/5.0 (Linux; Android 4.3; GT-I9300I Build/JLS36C) AppleWebKit/537.36 (KHTML, like Gecko) Version/4.0 Chrome/37.0.0.0 Mobile MQQBrowser/6.8 TBS/036849 Safari/537.36 MicroMessenger/6.3.25.861 NetType/WIFI Language/zh_CN'
p88
sg16
S'567c9e5b94a12c8d0ee22f4a6856a1a8'
p89
sa(dp90
g2
S'37182'
p91
sg4
S'4965'
p92
sg6
S'7470be4cdd895a5288c45b70e34cddc6'
p93
sg8
S'xx46a3d8dcf4a0621f0d923955b8c73b05'
p94
sg10
S'xxa4bb285681cc7dfa48a060ed0be9ac9e'
p95
sg12
S'xx1465ce60bbaf1bc34118f385a336e20f'
p96
sg14
S'Mozilla/5.0 (Linux; Android 4.3; GT-I9300I Build/JLS36C) AppleWebKit/537.36 (KHTML, like Gecko) Version/4.0 Chrome/37.0.0.0 Mobile MQQBrowser/6.8 TBS/036849 Safari/537.36 MicroMessenger/6.3.25.861 NetType/WIFI Language/zh_CN'
p97
sg16
S'567c9e5b94a12c8d0ee22f4a6856a1a8'
p98
sa(dp99
g2
S'37182'
p100
sg4
S'4978'
p101
sg6
S'7470be4cdd895a5288c45b70e34cddc6'
p102
sg8
S'xx46a3d8dcf4a0621f0d923955b8c73b05'
p103
sg10
S'xxa4bb285681cc7dfa48a060ed0be9ac9e'
p104
sg12
S'xx1465ce60bbaf1bc34118f385a336e20f'
p105
sg14
S'Mozilla/5.0 (Linux; Android 4.3; GT-I9300I Build/JLS36C) AppleWebKit/537.36 (KHTML, like Gecko) Version/4.0 Chrome/37.0.0.0 Mobile MQQBrowser/6.8 TBS/036849 Safari/537.36 MicroMessenger/6.3.25.861 NetType/WIFI Language/zh_CN'
p106
sg16
S'567c9e5b94a12c8d0ee22f4a6856a1a8'
p107
sa(dp108
g2
S'37182'
p109
sg4
S'5098'
p110
sg6
S'7470be4cdd895a5288c45b70e34cddc6'
p111
sg8
S'xx46a3d8dcf4a0621f0d923955b8c73b05'
p112
sg10
S'xxa4bb285681cc7dfa48a060ed0be9ac9e'
p113
sg12
S'xx1465ce60bbaf1bc34118f385a336e20f'
p114
sg14
S'Mozilla/5.0 (Linux; Android 4.3; GT-I9300I Build/JLS36C) AppleWebKit/537.36 (KHTML, like Gecko) Version/4.0 Chrome/37.0.0.0 Mobile MQQBrowser/6.8 TBS/036849 Safari/537.36 MicroMessenger/6.3.25.861 NetType/WIFI Language/zh_CN'
p115
sg16
S'567c9e5b94a12c8d0ee22f4a6856a1a8'
p116
sa(dp117
g2
S'37182'
p118
sg4
S'5115'
p119
sg6
S'7470be4cdd895a5288c45b70e34cddc6'
p120
sg8
S'xx46a3d8dcf4a0621f0d923955b8c73b05'
p121
sg10
S'xxa4bb285681cc7dfa48a060ed0be9ac9e'
p122
sg12
S'xx1465ce60bbaf1bc34118f385a336e20f'
p123
sg14
S'Mozilla/5.0 (Linux; Android 4.3; GT-I9300I Build/JLS36C) AppleWebKit/537.36 (KHTML, like Gecko) Version/4.0 Chrome/37.0.0.0 Mobile MQQBrowser/6.8 TBS/036849 Safari/537.36 MicroMessenger/6.3.25.861 NetType/WIFI Language/zh_CN'
p124
sg16
S'567c9e5b94a12c8d0ee22f4a6856a1a8'
p125
sa(dp126
g2
S'37182'
p127
sg4
S'5129'
p128
sg6
S'7470be4cdd895a5288c45b70e34cddc6'
p129
sg8
S'xx46a3d8dcf4a0621f0d923955b8c73b05'
p130
sg10
S'xxa4bb285681cc7dfa48a060ed0be9ac9e'
p131
sg12
S'xx1465ce60bbaf1bc34118f385a336e20f'
p132
sg14
S'Mozilla/5.0 (Linux; Android 4.3; GT-I9300I Build/JLS36C) AppleWebKit/537.36 (KHTML, like Gecko) Version/4.0 Chrome/37.0.0.0 Mobile MQQBrowser/6.8 TBS/036849 Safari/537.36 MicroMessenger/6.3.25.861 NetType/WIFI Language/zh_CN'
p133
sg16
S'567c9e5b94a12c8d0ee22f4a6856a1a8'
p134
sa(dp135
g2
S'37182'
p136
sg4
S'5144'
p137
sg6
S'7470be4cdd895a5288c45b70e34cddc6'
p138
sg8
S'xx46a3d8dcf4a0621f0d923955b8c73b05'
p139
sg10
S'xxa4bb285681cc7dfa48a060ed0be9ac9e'
p140
sg12
S'xx1465ce60bbaf1bc34118f385a336e20f'
p141
sg14
S'Mozilla/5.0 (Linux; Android 4.3; GT-I9300I Build/JLS36C) AppleWebKit/537.36 (KHTML, like Gecko) Version/4.0 Chrome/37.0.0.0 Mobile MQQBrowser/6.8 TBS/036849 Safari/537.36 MicroMessenger/6.3.25.861 NetType/WIFI Language/zh_CN'
p142
sg16
S'567c9e5b94a12c8d0ee22f4a6856a1a8'
p143
sa(dp144
g2
S'37182'
p145
sg4
S'5160'
p146
sg6
S'7470be4cdd895a5288c45b70e34cddc6'
p147
sg8
S'xx46a3d8dcf4a0621f0d923955b8c73b05'
p148
sg10
S'xxa4bb285681cc7dfa48a060ed0be9ac9e'
p149
sg12
S'xx1465ce60bbaf1bc34118f385a336e20f'
p150
sg14
S'Mozilla/5.0 (Linux; Android 4.3; GT-I9300I Build/JLS36C) AppleWebKit/537.36 (KHTML, like Gecko) Version/4.0 Chrome/37.0.0.0 Mobile MQQBrowser/6.8 TBS/036849 Safari/537.36 MicroMessenger/6.3.25.861 NetType/WIFI Language/zh_CN'
p151
sg16
S'567c9e5b94a12c8d0ee22f4a6856a1a8'
p152
sa(dp153
g2
S'37182'
p154
sg4
S'5177'
p155
sg6
S'7470be4cdd895a5288c45b70e34cddc6'
p156
sg8
S'xx46a3d8dcf4a0621f0d923955b8c73b05'
p157
sg10
S'xxa4bb285681cc7dfa48a060ed0be9ac9e'
p158
sg12
S'xx1465ce60bbaf1bc34118f385a336e20f'
p159
sg14
S'Mozilla/5.0 (Linux; Android 4.3; GT-I9300I Build/JLS36C) AppleWebKit/537.36 (KHTML, like Gecko) Version/4.0 Chrome/37.0.0.0 Mobile MQQBrowser/6.8 TBS/036849 Safari/537.36 MicroMessenger/6.3.25.861 NetType/WIFI Language/zh_CN'
p160
sg16
S'567c9e5b94a12c8d0ee22f4a6856a1a8'
p161
sa(dp162
g2
S'37182'
p163
sg4
S'5195'
p164
sg6
S'7470be4cdd895a5288c45b70e34cddc6'
p165
sg8
S'xx46a3d8dcf4a0621f0d923955b8c73b05'
p166
sg10
S'xxa4bb285681cc7dfa48a060ed0be9ac9e'
p167
sg12
S'xx1465ce60bbaf1bc34118f385a336e20f'
p168
sg14
S'Mozilla/5.0 (Linux; Android 4.3; GT-I9300I Build/JLS36C) AppleWebKit/537.36 (KHTML, like Gecko) Version/4.0 Chrome/37.0.0.0 Mobile MQQBrowser/6.8 TBS/036849 Safari/537.36 MicroMessenger/6.3.25.861 NetType/WIFI Language/zh_CN'
p169
sg16
S'567c9e5b94a12c8d0ee22f4a6856a1a8'
p170
sa(dp171
g2
S'37182'
p172
sg4
S'5210'
p173
sg6
S'7470be4cdd895a5288c45b70e34cddc6'
p174
sg8
S'xx46a3d8dcf4a0621f0d923955b8c73b05'
p175
sg10
S'xxa4bb285681cc7dfa48a060ed0be9ac9e'
p176
sg12
S'xx1465ce60bbaf1bc34118f385a336e20f'
p177
sg14
S'Mozilla/5.0 (Linux; Android 4.3; GT-I9300I Build/JLS36C) AppleWebKit/537.36 (KHTML, like Gecko) Version/4.0 Chrome/37.0.0.0 Mobile MQQBrowser/6.8 TBS/036849 Safari/537.36 MicroMessenger/6.3.25.861 NetType/WIFI Language/zh_CN'
p178
sg16
S'567c9e5b94a12c8d0ee22f4a6856a1a8'
p179
sa(dp180
g2
S'37182'
p181
sg4
S'5225'
p182
sg6
S'7470be4cdd895a5288c45b70e34cddc6'
p183
sg8
S'xx46a3d8dcf4a0621f0d923955b8c73b05'
p184
sg10
S'xxa4bb285681cc7dfa48a060ed0be9ac9e'
p185
sg12
S'xx1465ce60bbaf1bc34118f385a336e20f'
p186
sg14
S'Mozilla/5.0 (Linux; Android 4.3; GT-I9300I Build/JLS36C) AppleWebKit/537.36 (KHTML, like Gecko) Version/4.0 Chrome/37.0.0.0 Mobile MQQBrowser/6.8 TBS/036849 Safari/537.36 MicroMessenger/6.3.25.861 NetType/WIFI Language/zh_CN'
p187
sg16
S'567c9e5b94a12c8d0ee22f4a6856a1a8'
p188
sa(dp189
g2
S'37182'
p190
sg4
S'5237'
p191
sg6
S'7470be4cdd895a5288c45b70e34cddc6'
p192
sg8
S'xx46a3d8dcf4a0621f0d923955b8c73b05'
p193
sg10
S'xxa4bb285681cc7dfa48a060ed0be9ac9e'
p194
sg12
S'xx1465ce60bbaf1bc34118f385a336e20f'
p195
sg14
S'Mozilla/5.0 (Linux; Android 4.3; GT-I9300I Build/JLS36C) AppleWebKit/537.36 (KHTML, like Gecko) Version/4.0 Chrome/37.0.0.0 Mobile MQQBrowser/6.8 TBS/036849 Safari/537.36 MicroMessenger/6.3.25.861 NetType/WIFI Language/zh_CN'
p196
sg16
S'567c9e5b94a12c8d0ee22f4a6856a1a8'
p197
sa(dp198
g2
S'37182'
p199
sg4
S'5254'
p200
sg6
S'7470be4cdd895a5288c45b70e34cddc6'
p201
sg8
S'xx46a3d8dcf4a0621f0d923955b8c73b05'
p202
sg10
S'xxa4bb285681cc7dfa48a060ed0be9ac9e'
p203
sg12
S'xx1465ce60bbaf1bc34118f385a336e20f'
p204
sg14
S'Mozilla/5.0 (Linux; Android 4.3; GT-I9300I Build/JLS36C) AppleWebKit/537.36 (KHTML, like Gecko) Version/4.0 Chrome/37.0.0.0 Mobile MQQBrowser/6.8 TBS/036849 Safari/537.36 MicroMessenger/6.3.25.861 NetType/WIFI Language/zh_CN'
p205
sg16
S'567c9e5b94a12c8d0ee22f4a6856a1a8'
p206
sa(dp207
g2
S'37182'
p208
sg4
S'5276'
p209
sg6
S'7470be4cdd895a5288c45b70e34cddc6'
p210
sg8
S'xx46a3d8dcf4a0621f0d923955b8c73b05'
p211
sg10
S'xxa4bb285681cc7dfa48a060ed0be9ac9e'
p212
sg12
S'xx1465ce60bbaf1bc34118f385a336e20f'
p213
sg14
S'Mozilla/5.0 (Linux; Android 4.3; GT-I9300I Build/JLS36C) AppleWebKit/537.36 (KHTML, like Gecko) Version/4.0 Chrome/37.0.0.0 Mobile MQQBrowser/6.8 TBS/036849 Safari/537.36 MicroMessenger/6.3.25.861 NetType/WIFI Language/zh_CN'
p214
sg16
S'567c9e5b94a12c8d0ee22f4a6856a1a8'
p215
sa(dp216
g2
S'37182'
p217
sg4
S'5291'
p218
sg6
S'7470be4cdd895a5288c45b70e34cddc6'
p219
sg8
S'xx46a3d8dcf4a0621f0d923955b8c73b05'
p220
sg10
S'xxa4bb285681cc7dfa48a060ed0be9ac9e'
p221
sg12
S'xx1465ce60bbaf1bc34118f385a336e20f'
p222
sg14
S'Mozilla/5.0 (Linux; Android 4.3; GT-I9300I Build/JLS36C) AppleWebKit/537.36 (KHTML, like Gecko) Version/4.0 Chrome/37.0.0.0 Mobile MQQBrowser/6.8 TBS/036849 Safari/537.36 MicroMessenger/6.3.25.861 NetType/WIFI Language/zh_CN'
p223
sg16
S'567c9e5b94a12c8d0ee22f4a6856a1a8'
p224
sa(dp225
g2
S'37182'
p226
sg4
S'5307'
p227
sg6
S'7470be4cdd895a5288c45b70e34cddc6'
p228
sg8
S'xx46a3d8dcf4a0621f0d923955b8c73b05'
p229
sg10
S'xxa4bb285681cc7dfa48a060ed0be9ac9e'
p230
sg12
S'xx1465ce60bbaf1bc34118f385a336e20f'
p231
sg14
S'Mozilla/5.0 (Linux; Android 4.3; GT-I9300I Build/JLS36C) AppleWebKit/537.36 (KHTML, like Gecko) Version/4.0 Chrome/37.0.0.0 Mobile MQQBrowser/6.8 TBS/036849 Safari/537.36 MicroMessenger/6.3.25.861 NetType/WIFI Language/zh_CN'
p232
sg16
S'567c9e5b94a12c8d0ee22f4a6856a1a8'
p233
sa(dp234
g2
S'37182'
p235
sg4
S'5321'
p236
sg6
S'7470be4cdd895a5288c45b70e34cddc6'
p237
sg8
S'xx46a3d8dcf4a0621f0d923955b8c73b05'
p238
sg10
S'xxa4bb285681cc7dfa48a060ed0be9ac9e'
p239
sg12
S'xx1465ce60bbaf1bc34118f385a336e20f'
p240
sg14
S'Mozilla/5.0 (Linux; Android 4.3; GT-I9300I Build/JLS36C) AppleWebKit/537.36 (KHTML, like Gecko) Version/4.0 Chrome/37.0.0.0 Mobile MQQBrowser/6.8 TBS/036849 Safari/537.36 MicroMessenger/6.3.25.861 NetType/WIFI Language/zh_CN'
p241
sg16
S'567c9e5b94a12c8d0ee22f4a6856a1a8'
p242
sa(dp243
g2
S'37182'
p244
sg4
S'5336'
p245
sg6
S'7470be4cdd895a5288c45b70e34cddc6'
p246
sg8
S'xx46a3d8dcf4a0621f0d923955b8c73b05'
p247
sg10
S'xxa4bb285681cc7dfa48a060ed0be9ac9e'
p248
sg12
S'xx1465ce60bbaf1bc34118f385a336e20f'
p249
sg14
S'Mozilla/5.0 (Linux; Android 4.3; GT-I9300I Build/JLS36C) AppleWebKit/537.36 (KHTML, like Gecko) Version/4.0 Chrome/37.0.0.0 Mobile MQQBrowser/6.8 TBS/036849 Safari/537.36 MicroMessenger/6.3.25.861 NetType/WIFI Language/zh_CN'
p250
sg16
S'567c9e5b94a12c8d0ee22f4a6856a1a8'
p251
sa(dp252
g2
S'37182'
p253
sg4
S'5351'
p254
sg6
S'7470be4cdd895a5288c45b70e34cddc6'
p255
sg8
S'xx46a3d8dcf4a0621f0d923955b8c73b05'
p256
sg10
S'xxa4bb285681cc7dfa48a060ed0be9ac9e'
p257
sg12
S'xx1465ce60bbaf1bc34118f385a336e20f'
p258
sg14
S'Mozilla/5.0 (Linux; Android 4.3; GT-I9300I Build/JLS36C) AppleWebKit/537.36 (KHTML, like Gecko) Version/4.0 Chrome/37.0.0.0 Mobile MQQBrowser/6.8 TBS/036849 Safari/537.36 MicroMessenger/6.3.25.861 NetType/WIFI Language/zh_CN'
p259
sg16
S'567c9e5b94a12c8d0ee22f4a6856a1a8'
p260
sa(dp261
g2
S'37182'
p262
sg4
S'5368'
p263
sg6
S'7470be4cdd895a5288c45b70e34cddc6'
p264
sg8
S'xx46a3d8dcf4a0621f0d923955b8c73b05'
p265
sg10
S'xxa4bb285681cc7dfa48a060ed0be9ac9e'
p266
sg12
S'xx1465ce60bbaf1bc34118f385a336e20f'
p267
sg14
S'Mozilla/5.0 (Linux; Android 4.3; GT-I9300I Build/JLS36C) AppleWebKit/537.36 (KHTML, like Gecko) Version/4.0 Chrome/37.0.0.0 Mobile MQQBrowser/6.8 TBS/036849 Safari/537.36 MicroMessenger/6.3.25.861 NetType/WIFI Language/zh_CN'
p268
sg16
S'567c9e5b94a12c8d0ee22f4a6856a1a8'
p269
sa(dp270
g2
S'37182'
p271
sg4
S'5381'
p272
sg6
S'7470be4cdd895a5288c45b70e34cddc6'
p273
sg8
S'xx46a3d8dcf4a0621f0d923955b8c73b05'
p274
sg10
S'xxa4bb285681cc7dfa48a060ed0be9ac9e'
p275
sg12
S'xx1465ce60bbaf1bc34118f385a336e20f'
p276
sg14
S'Mozilla/5.0 (Linux; Android 4.3; GT-I9300I Build/JLS36C) AppleWebKit/537.36 (KHTML, like Gecko) Version/4.0 Chrome/37.0.0.0 Mobile MQQBrowser/6.8 TBS/036849 Safari/537.36 MicroMessenger/6.3.25.861 NetType/WIFI Language/zh_CN'
p277
sg16
S'567c9e5b94a12c8d0ee22f4a6856a1a8'
p278
sa(dp279
g2
S'37182'
p280
sg4
S'5396'
p281
sg6
S'7470be4cdd895a5288c45b70e34cddc6'
p282
sg8
S'xx46a3d8dcf4a0621f0d923955b8c73b05'
p283
sg10
S'xxa4bb285681cc7dfa48a060ed0be9ac9e'
p284
sg12
S'xx1465ce60bbaf1bc34118f385a336e20f'
p285
sg14
S'Mozilla/5.0 (Linux; Android 4.3; GT-I9300I Build/JLS36C) AppleWebKit/537.36 (KHTML, like Gecko) Version/4.0 Chrome/37.0.0.0 Mobile MQQBrowser/6.8 TBS/036849 Safari/537.36 MicroMessenger/6.3.25.861 NetType/WIFI Language/zh_CN'
p286
sg16
S'567c9e5b94a12c8d0ee22f4a6856a1a8'
p287
sa(dp288
g2
S'37182'
p289
sg4
S'5413'
p290
sg6
S'7470be4cdd895a5288c45b70e34cddc6'
p291
sg8
S'xx46a3d8dcf4a0621f0d923955b8c73b05'
p292
sg10
S'xxa4bb285681cc7dfa48a060ed0be9ac9e'
p293
sg12
S'xx1465ce60bbaf1bc34118f385a336e20f'
p294
sg14
S'Mozilla/5.0 (Linux; Android 4.3; GT-I9300I Build/JLS36C) AppleWebKit/537.36 (KHTML, like Gecko) Version/4.0 Chrome/37.0.0.0 Mobile MQQBrowser/6.8 TBS/036849 Safari/537.36 MicroMessenger/6.3.25.861 NetType/WIFI Language/zh_CN'
p295
sg16
S'567c9e5b94a12c8d0ee22f4a6856a1a8'
p296
sa(dp297
g2
S'37182'
p298
sg4
S'5423'
p299
sg6
S'7470be4cdd895a5288c45b70e34cddc6'
p300
sg8
S'xx46a3d8dcf4a0621f0d923955b8c73b05'
p301
sg10
S'xxa4bb285681cc7dfa48a060ed0be9ac9e'
p302
sg12
S'xx1465ce60bbaf1bc34118f385a336e20f'
p303
sg14
S'Mozilla/5.0 (Linux; Android 4.3; GT-I9300I Build/JLS36C) AppleWebKit/537.36 (KHTML, like Gecko) Version/4.0 Chrome/37.0.0.0 Mobile MQQBrowser/6.8 TBS/036849 Safari/537.36 MicroMessenger/6.3.25.861 NetType/WIFI Language/zh_CN'
p304
sg16
S'567c9e5b94a12c8d0ee22f4a6856a1a8'
p305
sa(dp306
g2
S'37182'
p307
sg4
S'5434'
p308
sg6
S'7470be4cdd895a5288c45b70e34cddc6'
p309
sg8
S'xx46a3d8dcf4a0621f0d923955b8c73b05'
p310
sg10
S'xxa4bb285681cc7dfa48a060ed0be9ac9e'
p311
sg12
S'xx1465ce60bbaf1bc34118f385a336e20f'
p312
sg14
S'Mozilla/5.0 (Linux; Android 4.3; GT-I9300I Build/JLS36C) AppleWebKit/537.36 (KHTML, like Gecko) Version/4.0 Chrome/37.0.0.0 Mobile MQQBrowser/6.8 TBS/036849 Safari/537.36 MicroMessenger/6.3.25.861 NetType/WIFI Language/zh_CN'
p313
sg16
S'567c9e5b94a12c8d0ee22f4a6856a1a8'
p314
sa(dp315
g2
S'37182'
p316
sg4
S'5445'
p317
sg6
S'7470be4cdd895a5288c45b70e34cddc6'
p318
sg8
S'xx46a3d8dcf4a0621f0d923955b8c73b05'
p319
sg10
S'xxa4bb285681cc7dfa48a060ed0be9ac9e'
p320
sg12
S'xx1465ce60bbaf1bc34118f385a336e20f'
p321
sg14
S'Mozilla/5.0 (Linux; Android 4.3; GT-I9300I Build/JLS36C) AppleWebKit/537.36 (KHTML, like Gecko) Version/4.0 Chrome/37.0.0.0 Mobile MQQBrowser/6.8 TBS/036849 Safari/537.36 MicroMessenger/6.3.25.861 NetType/WIFI Language/zh_CN'
p322
sg16
S'567c9e5b94a12c8d0ee22f4a6856a1a8'
p323
sa(dp324
g2
S'37182'
p325
sg4
S'5455'
p326
sg6
S'7470be4cdd895a5288c45b70e34cddc6'
p327
sg8
S'xx46a3d8dcf4a0621f0d923955b8c73b05'
p328
sg10
S'xxa4bb285681cc7dfa48a060ed0be9ac9e'
p329
sg12
S'xx1465ce60bbaf1bc34118f385a336e20f'
p330
sg14
S'Mozilla/5.0 (Linux; Android 4.3; GT-I9300I Build/JLS36C) AppleWebKit/537.36 (KHTML, like Gecko) Version/4.0 Chrome/37.0.0.0 Mobile MQQBrowser/6.8 TBS/036849 Safari/537.36 MicroMessenger/6.3.25.861 NetType/WIFI Language/zh_CN'
p331
sg16
S'567c9e5b94a12c8d0ee22f4a6856a1a8'
p332
sa(dp333
g2
S'37182'
p334
sg4
S'5469'
p335
sg6
S'7470be4cdd895a5288c45b70e34cddc6'
p336
sg8
S'xx46a3d8dcf4a0621f0d923955b8c73b05'
p337
sg10
S'xxa4bb285681cc7dfa48a060ed0be9ac9e'
p338
sg12
S'xx1465ce60bbaf1bc34118f385a336e20f'
p339
sg14
S'Mozilla/5.0 (Linux; Android 4.3; GT-I9300I Build/JLS36C) AppleWebKit/537.36 (KHTML, like Gecko) Version/4.0 Chrome/37.0.0.0 Mobile MQQBrowser/6.8 TBS/036849 Safari/537.36 MicroMessenger/6.3.25.861 NetType/WIFI Language/zh_CN'
p340
sg16
S'567c9e5b94a12c8d0ee22f4a6856a1a8'
p341
sa(dp342
g2
S'37182'
p343
sg4
S'5483'
p344
sg6
S'7470be4cdd895a5288c45b70e34cddc6'
p345
sg8
S'xx46a3d8dcf4a0621f0d923955b8c73b05'
p346
sg10
S'xxa4bb285681cc7dfa48a060ed0be9ac9e'
p347
sg12
S'xx1465ce60bbaf1bc34118f385a336e20f'
p348
sg14
S'Mozilla/5.0 (Linux; Android 4.3; GT-I9300I Build/JLS36C) AppleWebKit/537.36 (KHTML, like Gecko) Version/4.0 Chrome/37.0.0.0 Mobile MQQBrowser/6.8 TBS/036849 Safari/537.36 MicroMessenger/6.3.25.861 NetType/WIFI Language/zh_CN'
p349
sg16
S'567c9e5b94a12c8d0ee22f4a6856a1a8'
p350
sa(dp351
g2
S'37182'
p352
sg4
S'5501'
p353
sg6
S'7470be4cdd895a5288c45b70e34cddc6'
p354
sg8
S'xx46a3d8dcf4a0621f0d923955b8c73b05'
p355
sg10
S'xxa4bb285681cc7dfa48a060ed0be9ac9e'
p356
sg12
S'xx1465ce60bbaf1bc34118f385a336e20f'
p357
sg14
S'Mozilla/5.0 (Linux; Android 4.3; GT-I9300I Build/JLS36C) AppleWebKit/537.36 (KHTML, like Gecko) Version/4.0 Chrome/37.0.0.0 Mobile MQQBrowser/6.8 TBS/036849 Safari/537.36 MicroMessenger/6.3.25.861 NetType/WIFI Language/zh_CN'
p358
sg16
S'567c9e5b94a12c8d0ee22f4a6856a1a8'
p359
sa(dp360
g2
S'37182'
p361
sg4
S'5520'
p362
sg6
S'7470be4cdd895a5288c45b70e34cddc6'
p363
sg8
S'xx46a3d8dcf4a0621f0d923955b8c73b05'
p364
sg10
S'xxa4bb285681cc7dfa48a060ed0be9ac9e'
p365
sg12
S'xx1465ce60bbaf1bc34118f385a336e20f'
p366
sg14
S'Mozilla/5.0 (Linux; Android 4.3; GT-I9300I Build/JLS36C) AppleWebKit/537.36 (KHTML, like Gecko) Version/4.0 Chrome/37.0.0.0 Mobile MQQBrowser/6.8 TBS/036849 Safari/537.36 MicroMessenger/6.3.25.861 NetType/WIFI Language/zh_CN'
p367
sg16
S'567c9e5b94a12c8d0ee22f4a6856a1a8'
p368
sa(dp369
g2
S'37182'
p370
sg4
S'5538'
p371
sg6
S'7470be4cdd895a5288c45b70e34cddc6'
p372
sg8
S'xx46a3d8dcf4a0621f0d923955b8c73b05'
p373
sg10
S'xxa4bb285681cc7dfa48a060ed0be9ac9e'
p374
sg12
S'xx1465ce60bbaf1bc34118f385a336e20f'
p375
sg14
S'Mozilla/5.0 (Linux; Android 4.3; GT-I9300I Build/JLS36C) AppleWebKit/537.36 (KHTML, like Gecko) Version/4.0 Chrome/37.0.0.0 Mobile MQQBrowser/6.8 TBS/036849 Safari/537.36 MicroMessenger/6.3.25.861 NetType/WIFI Language/zh_CN'
p376
sg16
S'567c9e5b94a12c8d0ee22f4a6856a1a8'
p377
sa(dp378
g2
S'37182'
p379
sg4
S'6906'
p380
sg6
S'7470be4cdd895a5288c45b70e34cddc6'
p381
sg8
S'xx46a3d8dcf4a0621f0d923955b8c73b05'
p382
sg10
S'xxa4bb285681cc7dfa48a060ed0be9ac9e'
p383
sg12
S'xx1465ce60bbaf1bc34118f385a336e20f'
p384
sg14
S'Mozilla/5.0 (Linux; Android 4.3; GT-I9300I Build/JLS36C) AppleWebKit/537.36 (KHTML, like Gecko) Version/4.0 Chrome/37.0.0.0 Mobile MQQBrowser/6.8 TBS/036849 Safari/537.36 MicroMessenger/6.3.25.861 NetType/WIFI Language/zh_CN'
p385
sg16
S'567c9e5b94a12c8d0ee22f4a6856a1a8'
p386
sa(dp387
g2
S'37182'
p388
sg4
S'6921'
p389
sg6
S'7470be4cdd895a5288c45b70e34cddc6'
p390
sg8
S'xx46a3d8dcf4a0621f0d923955b8c73b05'
p391
sg10
S'xxa4bb285681cc7dfa48a060ed0be9ac9e'
p392
sg12
S'xx1465ce60bbaf1bc34118f385a336e20f'
p393
sg14
S'Mozilla/5.0 (Linux; Android 4.3; GT-I9300I Build/JLS36C) AppleWebKit/537.36 (KHTML, like Gecko) Version/4.0 Chrome/37.0.0.0 Mobile MQQBrowser/6.8 TBS/036849 Safari/537.36 MicroMessenger/6.3.25.861 NetType/WIFI Language/zh_CN'
p394
sg16
S'567c9e5b94a12c8d0ee22f4a6856a1a8'
p395
sa(dp396
g2
S'37182'
p397
sg4
S'6936'
p398
sg6
S'7470be4cdd895a5288c45b70e34cddc6'
p399
sg8
S'xx46a3d8dcf4a0621f0d923955b8c73b05'
p400
sg10
S'xxa4bb285681cc7dfa48a060ed0be9ac9e'
p401
sg12
S'xx1465ce60bbaf1bc34118f385a336e20f'
p402
sg14
S'Mozilla/5.0 (Linux; Android 4.3; GT-I9300I Build/JLS36C) AppleWebKit/537.36 (KHTML, like Gecko) Version/4.0 Chrome/37.0.0.0 Mobile MQQBrowser/6.8 TBS/036849 Safari/537.36 MicroMessenger/6.3.25.861 NetType/WIFI Language/zh_CN'
p403
sg16
S'567c9e5b94a12c8d0ee22f4a6856a1a8'
p404
sa(dp405
g2
S'37182'
p406
sg4
S'6951'
p407
sg6
S'7470be4cdd895a5288c45b70e34cddc6'
p408
sg8
S'xx46a3d8dcf4a0621f0d923955b8c73b05'
p409
sg10
S'xxa4bb285681cc7dfa48a060ed0be9ac9e'
p410
sg12
S'xx1465ce60bbaf1bc34118f385a336e20f'
p411
sg14
S'Mozilla/5.0 (Linux; Android 4.3; GT-I9300I Build/JLS36C) AppleWebKit/537.36 (KHTML, like Gecko) Version/4.0 Chrome/37.0.0.0 Mobile MQQBrowser/6.8 TBS/036849 Safari/537.36 MicroMessenger/6.3.25.861 NetType/WIFI Language/zh_CN'
p412
sg16
S'567c9e5b94a12c8d0ee22f4a6856a1a8'
p413
sa(dp414
g2
S'37182'
p415
sg4
S'6965'
p416
sg6
S'7470be4cdd895a5288c45b70e34cddc6'
p417
sg8
S'xx46a3d8dcf4a0621f0d923955b8c73b05'
p418
sg10
S'xxa4bb285681cc7dfa48a060ed0be9ac9e'
p419
sg12
S'xx1465ce60bbaf1bc34118f385a336e20f'
p420
sg14
S'Mozilla/5.0 (Linux; Android 4.3; GT-I9300I Build/JLS36C) AppleWebKit/537.36 (KHTML, like Gecko) Version/4.0 Chrome/37.0.0.0 Mobile MQQBrowser/6.8 TBS/036849 Safari/537.36 MicroMessenger/6.3.25.861 NetType/WIFI Language/zh_CN'
p421
sg16
S'567c9e5b94a12c8d0ee22f4a6856a1a8'
p422
sa(dp423
g2
S'37182'
p424
sg4
S'6976'
p425
sg6
S'7470be4cdd895a5288c45b70e34cddc6'
p426
sg8
S'xx46a3d8dcf4a0621f0d923955b8c73b05'
p427
sg10
S'xxa4bb285681cc7dfa48a060ed0be9ac9e'
p428
sg12
S'xx1465ce60bbaf1bc34118f385a336e20f'
p429
sg14
S'Mozilla/5.0 (Linux; Android 4.3; GT-I9300I Build/JLS36C) AppleWebKit/537.36 (KHTML, like Gecko) Version/4.0 Chrome/37.0.0.0 Mobile MQQBrowser/6.8 TBS/036849 Safari/537.36 MicroMessenger/6.3.25.861 NetType/WIFI Language/zh_CN'
p430
sg16
S'567c9e5b94a12c8d0ee22f4a6856a1a8'
p431
sa(dp432
g2
S'37182'
p433
sg4
S'6989'
p434
sg6
S'7470be4cdd895a5288c45b70e34cddc6'
p435
sg8
S'xx46a3d8dcf4a0621f0d923955b8c73b05'
p436
sg10
S'xxa4bb285681cc7dfa48a060ed0be9ac9e'
p437
sg12
S'xx1465ce60bbaf1bc34118f385a336e20f'
p438
sg14
S'Mozilla/5.0 (Linux; Android 4.3; GT-I9300I Build/JLS36C) AppleWebKit/537.36 (KHTML, like Gecko) Version/4.0 Chrome/37.0.0.0 Mobile MQQBrowser/6.8 TBS/036849 Safari/537.36 MicroMessenger/6.3.25.861 NetType/WIFI Language/zh_CN'
p439
sg16
S'567c9e5b94a12c8d0ee22f4a6856a1a8'
p440
sa(dp441
g2
S'37182'
p442
sg4
S'7003'
p443
sg6
S'7470be4cdd895a5288c45b70e34cddc6'
p444
sg8
S'xx46a3d8dcf4a0621f0d923955b8c73b05'
p445
sg10
S'xxa4bb285681cc7dfa48a060ed0be9ac9e'
p446
sg12
S'xx1465ce60bbaf1bc34118f385a336e20f'
p447
sg14
S'Mozilla/5.0 (Linux; Android 4.3; GT-I9300I Build/JLS36C) AppleWebKit/537.36 (KHTML, like Gecko) Version/4.0 Chrome/37.0.0.0 Mobile MQQBrowser/6.8 TBS/036849 Safari/537.36 MicroMessenger/6.3.25.861 NetType/WIFI Language/zh_CN'
p448
sg16
S'567c9e5b94a12c8d0ee22f4a6856a1a8'
p449
sa(dp450
g2
S'37182'
p451
sg4
S'7018'
p452
sg6
S'7470be4cdd895a5288c45b70e34cddc6'
p453
sg8
S'xx46a3d8dcf4a0621f0d923955b8c73b05'
p454
sg10
S'xxa4bb285681cc7dfa48a060ed0be9ac9e'
p455
sg12
S'xx1465ce60bbaf1bc34118f385a336e20f'
p456
sg14
S'Mozilla/5.0 (Linux; Android 4.3; GT-I9300I Build/JLS36C) AppleWebKit/537.36 (KHTML, like Gecko) Version/4.0 Chrome/37.0.0.0 Mobile MQQBrowser/6.8 TBS/036849 Safari/537.36 MicroMessenger/6.3.25.861 NetType/WIFI Language/zh_CN'
p457
sg16
S'567c9e5b94a12c8d0ee22f4a6856a1a8'
p458
sa(dp459
g2
S'37182'
p460
sg4
S'7037'
p461
sg6
S'7470be4cdd895a5288c45b70e34cddc6'
p462
sg8
S'xx46a3d8dcf4a0621f0d923955b8c73b05'
p463
sg10
S'xxa4bb285681cc7dfa48a060ed0be9ac9e'
p464
sg12
S'xx1465ce60bbaf1bc34118f385a336e20f'
p465
sg14
S'Mozilla/5.0 (Linux; Android 4.3; GT-I9300I Build/JLS36C) AppleWebKit/537.36 (KHTML, like Gecko) Version/4.0 Chrome/37.0.0.0 Mobile MQQBrowser/6.8 TBS/036849 Safari/537.36 MicroMessenger/6.3.25.861 NetType/WIFI Language/zh_CN'
p466
sg16
S'567c9e5b94a12c8d0ee22f4a6856a1a8'
p467
sa(dp468
g2
S'37182'
p469
sg4
S'7052'
p470
sg6
S'7470be4cdd895a5288c45b70e34cddc6'
p471
sg8
S'xx46a3d8dcf4a0621f0d923955b8c73b05'
p472
sg10
S'xxa4bb285681cc7dfa48a060ed0be9ac9e'
p473
sg12
S'xx1465ce60bbaf1bc34118f385a336e20f'
p474
sg14
S'Mozilla/5.0 (Linux; Android 4.3; GT-I9300I Build/JLS36C) AppleWebKit/537.36 (KHTML, like Gecko) Version/4.0 Chrome/37.0.0.0 Mobile MQQBrowser/6.8 TBS/036849 Safari/537.36 MicroMessenger/6.3.25.861 NetType/WIFI Language/zh_CN'
p475
sg16
S'567c9e5b94a12c8d0ee22f4a6856a1a8'
p476
sa(dp477
g2
S'37182'
p478
sg4
S'7067'
p479
sg6
S'7470be4cdd895a5288c45b70e34cddc6'
p480
sg8
S'xx46a3d8dcf4a0621f0d923955b8c73b05'
p481
sg10
S'xxa4bb285681cc7dfa48a060ed0be9ac9e'
p482
sg12
S'xx1465ce60bbaf1bc34118f385a336e20f'
p483
sg14
S'Mozilla/5.0 (Linux; Android 4.3; GT-I9300I Build/JLS36C) AppleWebKit/537.36 (KHTML, like Gecko) Version/4.0 Chrome/37.0.0.0 Mobile MQQBrowser/6.8 TBS/036849 Safari/537.36 MicroMessenger/6.3.25.861 NetType/WIFI Language/zh_CN'
p484
sg16
S'567c9e5b94a12c8d0ee22f4a6856a1a8'
p485
sa(dp486
g2
S'37182'
p487
sg4
S'7080'
p488
sg6
S'7470be4cdd895a5288c45b70e34cddc6'
p489
sg8
S'xx46a3d8dcf4a0621f0d923955b8c73b05'
p490
sg10
S'xxa4bb285681cc7dfa48a060ed0be9ac9e'
p491
sg12
S'xx1465ce60bbaf1bc34118f385a336e20f'
p492
sg14
S'Mozilla/5.0 (Linux; Android 4.3; GT-I9300I Build/JLS36C) AppleWebKit/537.36 (KHTML, like Gecko) Version/4.0 Chrome/37.0.0.0 Mobile MQQBrowser/6.8 TBS/036849 Safari/537.36 MicroMessenger/6.3.25.861 NetType/WIFI Language/zh_CN'
p493
sg16
S'567c9e5b94a12c8d0ee22f4a6856a1a8'
p494
sa(dp495
g2
S'37182'
p496
sg4
S'7089'
p497
sg6
S'7470be4cdd895a5288c45b70e34cddc6'
p498
sg8
S'xx46a3d8dcf4a0621f0d923955b8c73b05'
p499
sg10
S'xxa4bb285681cc7dfa48a060ed0be9ac9e'
p500
sg12
S'xx1465ce60bbaf1bc34118f385a336e20f'
p501
sg14
S'Mozilla/5.0 (Linux; Android 4.3; GT-I9300I Build/JLS36C) AppleWebKit/537.36 (KHTML, like Gecko) Version/4.0 Chrome/37.0.0.0 Mobile MQQBrowser/6.8 TBS/036849 Safari/537.36 MicroMessenger/6.3.25.861 NetType/WIFI Language/zh_CN'
p502
sg16
S'567c9e5b94a12c8d0ee22f4a6856a1a8'
p503
sa(dp504
g2
S'37182'
p505
sg4
S'7108'
p506
sg6
S'7470be4cdd895a5288c45b70e34cddc6'
p507
sg8
S'xx46a3d8dcf4a0621f0d923955b8c73b05'
p508
sg10
S'xxa4bb285681cc7dfa48a060ed0be9ac9e'
p509
sg12
S'xx1465ce60bbaf1bc34118f385a336e20f'
p510
sg14
S'Mozilla/5.0 (Linux; Android 4.3; GT-I9300I Build/JLS36C) AppleWebKit/537.36 (KHTML, like Gecko) Version/4.0 Chrome/37.0.0.0 Mobile MQQBrowser/6.8 TBS/036849 Safari/537.36 MicroMessenger/6.3.25.861 NetType/WIFI Language/zh_CN'
p511
sg16
S'567c9e5b94a12c8d0ee22f4a6856a1a8'
p512
sa(dp513
g2
S'37182'
p514
sg4
S'7125'
p515
sg6
S'7470be4cdd895a5288c45b70e34cddc6'
p516
sg8
S'xx46a3d8dcf4a0621f0d923955b8c73b05'
p517
sg10
S'xxa4bb285681cc7dfa48a060ed0be9ac9e'
p518
sg12
S'xx1465ce60bbaf1bc34118f385a336e20f'
p519
sg14
S'Mozilla/5.0 (Linux; Android 4.3; GT-I9300I Build/JLS36C) AppleWebKit/537.36 (KHTML, like Gecko) Version/4.0 Chrome/37.0.0.0 Mobile MQQBrowser/6.8 TBS/036849 Safari/537.36 MicroMessenger/6.3.25.861 NetType/WIFI Language/zh_CN'
p520
sg16
S'567c9e5b94a12c8d0ee22f4a6856a1a8'
p521
sa(dp522
g2
S'37182'
p523
sg4
S'7138'
p524
sg6
S'7470be4cdd895a5288c45b70e34cddc6'
p525
sg8
S'xx46a3d8dcf4a0621f0d923955b8c73b05'
p526
sg10
S'xxa4bb285681cc7dfa48a060ed0be9ac9e'
p527
sg12
S'xx1465ce60bbaf1bc34118f385a336e20f'
p528
sg14
S'Mozilla/5.0 (Linux; Android 4.3; GT-I9300I Build/JLS36C) AppleWebKit/537.36 (KHTML, like Gecko) Version/4.0 Chrome/37.0.0.0 Mobile MQQBrowser/6.8 TBS/036849 Safari/537.36 MicroMessenger/6.3.25.861 NetType/WIFI Language/zh_CN'
p529
sg16
S'567c9e5b94a12c8d0ee22f4a6856a1a8'
p530
sa(dp531
g2
S'37182'
p532
sg4
S'7155'
p533
sg6
S'7470be4cdd895a5288c45b70e34cddc6'
p534
sg8
S'xx46a3d8dcf4a0621f0d923955b8c73b05'
p535
sg10
S'xxa4bb285681cc7dfa48a060ed0be9ac9e'
p536
sg12
S'xx1465ce60bbaf1bc34118f385a336e20f'
p537
sg14
S'Mozilla/5.0 (Linux; Android 4.3; GT-I9300I Build/JLS36C) AppleWebKit/537.36 (KHTML, like Gecko) Version/4.0 Chrome/37.0.0.0 Mobile MQQBrowser/6.8 TBS/036849 Safari/537.36 MicroMessenger/6.3.25.861 NetType/WIFI Language/zh_CN'
p538
sg16
S'567c9e5b94a12c8d0ee22f4a6856a1a8'
p539
sa(dp540
g2
S'37182'
p541
sg4
S'7169'
p542
sg6
S'7470be4cdd895a5288c45b70e34cddc6'
p543
sg8
S'xx46a3d8dcf4a0621f0d923955b8c73b05'
p544
sg10
S'xxa4bb285681cc7dfa48a060ed0be9ac9e'
p545
sg12
S'xx1465ce60bbaf1bc34118f385a336e20f'
p546
sg14
S'Mozilla/5.0 (Linux; Android 4.3; GT-I9300I Build/JLS36C) AppleWebKit/537.36 (KHTML, like Gecko) Version/4.0 Chrome/37.0.0.0 Mobile MQQBrowser/6.8 TBS/036849 Safari/537.36 MicroMessenger/6.3.25.861 NetType/WIFI Language/zh_CN'
p547
sg16
S'567c9e5b94a12c8d0ee22f4a6856a1a8'
p548
sa(dp549
g2
S'37182'
p550
sg4
S'7185'
p551
sg6
S'7470be4cdd895a5288c45b70e34cddc6'
p552
sg8
S'xx46a3d8dcf4a0621f0d923955b8c73b05'
p553
sg10
S'xxa4bb285681cc7dfa48a060ed0be9ac9e'
p554
sg12
S'xx1465ce60bbaf1bc34118f385a336e20f'
p555
sg14
S'Mozilla/5.0 (Linux; Android 4.3; GT-I9300I Build/JLS36C) AppleWebKit/537.36 (KHTML, like Gecko) Version/4.0 Chrome/37.0.0.0 Mobile MQQBrowser/6.8 TBS/036849 Safari/537.36 MicroMessenger/6.3.25.861 NetType/WIFI Language/zh_CN'
p556
sg16
S'567c9e5b94a12c8d0ee22f4a6856a1a8'
p557
sa(dp558
g2
S'37182'
p559
sg4
S'7198'
p560
sg6
S'7470be4cdd895a5288c45b70e34cddc6'
p561
sg8
S'xx46a3d8dcf4a0621f0d923955b8c73b05'
p562
sg10
S'xxa4bb285681cc7dfa48a060ed0be9ac9e'
p563
sg12
S'xx1465ce60bbaf1bc34118f385a336e20f'
p564
sg14
S'Mozilla/5.0 (Linux; Android 4.3; GT-I9300I Build/JLS36C) AppleWebKit/537.36 (KHTML, like Gecko) Version/4.0 Chrome/37.0.0.0 Mobile MQQBrowser/6.8 TBS/036849 Safari/537.36 MicroMessenger/6.3.25.861 NetType/WIFI Language/zh_CN'
p565
sg16
S'567c9e5b94a12c8d0ee22f4a6856a1a8'
p566
sa(dp567
g2
S'37182'
p568
sg4
S'7212'
p569
sg6
S'7470be4cdd895a5288c45b70e34cddc6'
p570
sg8
S'xx46a3d8dcf4a0621f0d923955b8c73b05'
p571
sg10
S'xxa4bb285681cc7dfa48a060ed0be9ac9e'
p572
sg12
S'xx1465ce60bbaf1bc34118f385a336e20f'
p573
sg14
S'Mozilla/5.0 (Linux; Android 4.3; GT-I9300I Build/JLS36C) AppleWebKit/537.36 (KHTML, like Gecko) Version/4.0 Chrome/37.0.0.0 Mobile MQQBrowser/6.8 TBS/036849 Safari/537.36 MicroMessenger/6.3.25.861 NetType/WIFI Language/zh_CN'
p574
sg16
S'567c9e5b94a12c8d0ee22f4a6856a1a8'
p575
sa(dp576
g2
S'37182'
p577
sg4
S'7225'
p578
sg6
S'7470be4cdd895a5288c45b70e34cddc6'
p579
sg8
S'xx46a3d8dcf4a0621f0d923955b8c73b05'
p580
sg10
S'xxa4bb285681cc7dfa48a060ed0be9ac9e'
p581
sg12
S'xx1465ce60bbaf1bc34118f385a336e20f'
p582
sg14
S'Mozilla/5.0 (Linux; Android 4.3; GT-I9300I Build/JLS36C) AppleWebKit/537.36 (KHTML, like Gecko) Version/4.0 Chrome/37.0.0.0 Mobile MQQBrowser/6.8 TBS/036849 Safari/537.36 MicroMessenger/6.3.25.861 NetType/WIFI Language/zh_CN'
p583
sg16
S'567c9e5b94a12c8d0ee22f4a6856a1a8'
p584
sa(dp585
g2
S'37182'
p586
sg4
S'7236'
p587
sg6
S'7470be4cdd895a5288c45b70e34cddc6'
p588
sg8
S'xx46a3d8dcf4a0621f0d923955b8c73b05'
p589
sg10
S'xxa4bb285681cc7dfa48a060ed0be9ac9e'
p590
sg12
S'xx1465ce60bbaf1bc34118f385a336e20f'
p591
sg14
S'Mozilla/5.0 (Linux; Android 4.3; GT-I9300I Build/JLS36C) AppleWebKit/537.36 (KHTML, like Gecko) Version/4.0 Chrome/37.0.0.0 Mobile MQQBrowser/6.8 TBS/036849 Safari/537.36 MicroMessenger/6.3.25.861 NetType/WIFI Language/zh_CN'
p592
sg16
S'567c9e5b94a12c8d0ee22f4a6856a1a8'
p593
sa(dp594
g2
S'37182'
p595
sg4
S'7250'
p596
sg6
S'7470be4cdd895a5288c45b70e34cddc6'
p597
sg8
S'xx46a3d8dcf4a0621f0d923955b8c73b05'
p598
sg10
S'xxa4bb285681cc7dfa48a060ed0be9ac9e'
p599
sg12
S'xx1465ce60bbaf1bc34118f385a336e20f'
p600
sg14
S'Mozilla/5.0 (Linux; Android 4.3; GT-I9300I Build/JLS36C) AppleWebKit/537.36 (KHTML, like Gecko) Version/4.0 Chrome/37.0.0.0 Mobile MQQBrowser/6.8 TBS/036849 Safari/537.36 MicroMessenger/6.3.25.861 NetType/WIFI Language/zh_CN'
p601
sg16
S'567c9e5b94a12c8d0ee22f4a6856a1a8'
p602
sa(dp603
g2
S'37182'
p604
sg4
S'7261'
p605
sg6
S'7470be4cdd895a5288c45b70e34cddc6'
p606
sg8
S'xx46a3d8dcf4a0621f0d923955b8c73b05'
p607
sg10
S'xxa4bb285681cc7dfa48a060ed0be9ac9e'
p608
sg12
S'xx1465ce60bbaf1bc34118f385a336e20f'
p609
sg14
S'Mozilla/5.0 (Linux; Android 4.3; GT-I9300I Build/JLS36C) AppleWebKit/537.36 (KHTML, like Gecko) Version/4.0 Chrome/37.0.0.0 Mobile MQQBrowser/6.8 TBS/036849 Safari/537.36 MicroMessenger/6.3.25.861 NetType/WIFI Language/zh_CN'
p610
sg16
S'567c9e5b94a12c8d0ee22f4a6856a1a8'
p611
sa(dp612
g2
S'37182'
p613
sg4
S'7276'
p614
sg6
S'7470be4cdd895a5288c45b70e34cddc6'
p615
sg8
S'xx46a3d8dcf4a0621f0d923955b8c73b05'
p616
sg10
S'xxa4bb285681cc7dfa48a060ed0be9ac9e'
p617
sg12
S'xx1465ce60bbaf1bc34118f385a336e20f'
p618
sg14
S'Mozilla/5.0 (Linux; Android 4.3; GT-I9300I Build/JLS36C) AppleWebKit/537.36 (KHTML, like Gecko) Version/4.0 Chrome/37.0.0.0 Mobile MQQBrowser/6.8 TBS/036849 Safari/537.36 MicroMessenger/6.3.25.861 NetType/WIFI Language/zh_CN'
p619
sg16
S'567c9e5b94a12c8d0ee22f4a6856a1a8'
p620
sa(dp621
g2
S'37182'
p622
sg4
S'7296'
p623
sg6
S'7470be4cdd895a5288c45b70e34cddc6'
p624
sg8
S'xx46a3d8dcf4a0621f0d923955b8c73b05'
p625
sg10
S'xxa4bb285681cc7dfa48a060ed0be9ac9e'
p626
sg12
S'xx1465ce60bbaf1bc34118f385a336e20f'
p627
sg14
S'Mozilla/5.0 (Linux; Android 4.3; GT-I9300I Build/JLS36C) AppleWebKit/537.36 (KHTML, like Gecko) Version/4.0 Chrome/37.0.0.0 Mobile MQQBrowser/6.8 TBS/036849 Safari/537.36 MicroMessenger/6.3.25.861 NetType/WIFI Language/zh_CN'
p628
sg16
S'567c9e5b94a12c8d0ee22f4a6856a1a8'
p629
sa(dp630
g2
S'37182'
p631
sg4
S'7313'
p632
sg6
S'7470be4cdd895a5288c45b70e34cddc6'
p633
sg8
S'xx46a3d8dcf4a0621f0d923955b8c73b05'
p634
sg10
S'xxa4bb285681cc7dfa48a060ed0be9ac9e'
p635
sg12
S'xx1465ce60bbaf1bc34118f385a336e20f'
p636
sg14
S'Mozilla/5.0 (Linux; Android 4.3; GT-I9300I Build/JLS36C) AppleWebKit/537.36 (KHTML, like Gecko) Version/4.0 Chrome/37.0.0.0 Mobile MQQBrowser/6.8 TBS/036849 Safari/537.36 MicroMessenger/6.3.25.861 NetType/WIFI Language/zh_CN'
p637
sg16
S'567c9e5b94a12c8d0ee22f4a6856a1a8'
p638
sa(dp639
g2
S'37182'
p640
sg4
S'7330'
p641
sg6
S'7470be4cdd895a5288c45b70e34cddc6'
p642
sg8
S'xx46a3d8dcf4a0621f0d923955b8c73b05'
p643
sg10
S'xxa4bb285681cc7dfa48a060ed0be9ac9e'
p644
sg12
S'xx1465ce60bbaf1bc34118f385a336e20f'
p645
sg14
S'Mozilla/5.0 (Linux; Android 4.3; GT-I9300I Build/JLS36C) AppleWebKit/537.36 (KHTML, like Gecko) Version/4.0 Chrome/37.0.0.0 Mobile MQQBrowser/6.8 TBS/036849 Safari/537.36 MicroMessenger/6.3.25.861 NetType/WIFI Language/zh_CN'
p646
sg16
S'567c9e5b94a12c8d0ee22f4a6856a1a8'
p647
sa(dp648
g2
S'37182'
p649
sg4
S'7345'
p650
sg6
S'7470be4cdd895a5288c45b70e34cddc6'
p651
sg8
S'xx46a3d8dcf4a0621f0d923955b8c73b05'
p652
sg10
S'xxa4bb285681cc7dfa48a060ed0be9ac9e'
p653
sg12
S'xx1465ce60bbaf1bc34118f385a336e20f'
p654
sg14
S'Mozilla/5.0 (Linux; Android 4.3; GT-I9300I Build/JLS36C) AppleWebKit/537.36 (KHTML, like Gecko) Version/4.0 Chrome/37.0.0.0 Mobile MQQBrowser/6.8 TBS/036849 Safari/537.36 MicroMessenger/6.3.25.861 NetType/WIFI Language/zh_CN'
p655
sg16
S'567c9e5b94a12c8d0ee22f4a6856a1a8'
p656
sa(dp657
g2
S'37182'
p658
sg4
S'7356'
p659
sg6
S'7470be4cdd895a5288c45b70e34cddc6'
p660
sg8
S'xx46a3d8dcf4a0621f0d923955b8c73b05'
p661
sg10
S'xxa4bb285681cc7dfa48a060ed0be9ac9e'
p662
sg12
S'xx1465ce60bbaf1bc34118f385a336e20f'
p663
sg14
S'Mozilla/5.0 (Linux; Android 4.3; GT-I9300I Build/JLS36C) AppleWebKit/537.36 (KHTML, like Gecko) Version/4.0 Chrome/37.0.0.0 Mobile MQQBrowser/6.8 TBS/036849 Safari/537.36 MicroMessenger/6.3.25.861 NetType/WIFI Language/zh_CN'
p664
sg16
S'567c9e5b94a12c8d0ee22f4a6856a1a8'
p665
sa(dp666
g2
S'37182'
p667
sg4
S'7370'
p668
sg6
S'7470be4cdd895a5288c45b70e34cddc6'
p669
sg8
S'xx46a3d8dcf4a0621f0d923955b8c73b05'
p670
sg10
S'xxa4bb285681cc7dfa48a060ed0be9ac9e'
p671
sg12
S'xx1465ce60bbaf1bc34118f385a336e20f'
p672
sg14
S'Mozilla/5.0 (Linux; Android 4.3; GT-I9300I Build/JLS36C) AppleWebKit/537.36 (KHTML, like Gecko) Version/4.0 Chrome/37.0.0.0 Mobile MQQBrowser/6.8 TBS/036849 Safari/537.36 MicroMessenger/6.3.25.861 NetType/WIFI Language/zh_CN'
p673
sg16
S'567c9e5b94a12c8d0ee22f4a6856a1a8'
p674
sa(dp675
g2
S'37182'
p676
sg4
S'7384'
p677
sg6
S'7470be4cdd895a5288c45b70e34cddc6'
p678
sg8
S'xx46a3d8dcf4a0621f0d923955b8c73b05'
p679
sg10
S'xxa4bb285681cc7dfa48a060ed0be9ac9e'
p680
sg12
S'xx1465ce60bbaf1bc34118f385a336e20f'
p681
sg14
S'Mozilla/5.0 (Linux; Android 4.3; GT-I9300I Build/JLS36C) AppleWebKit/537.36 (KHTML, like Gecko) Version/4.0 Chrome/37.0.0.0 Mobile MQQBrowser/6.8 TBS/036849 Safari/537.36 MicroMessenger/6.3.25.861 NetType/WIFI Language/zh_CN'
p682
sg16
S'567c9e5b94a12c8d0ee22f4a6856a1a8'
p683
sa(dp684
g2
S'37182'
p685
sg4
S'7398'
p686
sg6
S'7470be4cdd895a5288c45b70e34cddc6'
p687
sg8
S'xx46a3d8dcf4a0621f0d923955b8c73b05'
p688
sg10
S'xxa4bb285681cc7dfa48a060ed0be9ac9e'
p689
sg12
S'xx1465ce60bbaf1bc34118f385a336e20f'
p690
sg14
S'Mozilla/5.0 (Linux; Android 4.3; GT-I9300I Build/JLS36C) AppleWebKit/537.36 (KHTML, like Gecko) Version/4.0 Chrome/37.0.0.0 Mobile MQQBrowser/6.8 TBS/036849 Safari/537.36 MicroMessenger/6.3.25.861 NetType/WIFI Language/zh_CN'
p691
sg16
S'567c9e5b94a12c8d0ee22f4a6856a1a8'
p692
sa(dp693
g2
S'37182'
p694
sg4
S'7411'
p695
sg6
S'7470be4cdd895a5288c45b70e34cddc6'
p696
sg8
S'xx46a3d8dcf4a0621f0d923955b8c73b05'
p697
sg10
S'xxa4bb285681cc7dfa48a060ed0be9ac9e'
p698
sg12
S'xx1465ce60bbaf1bc34118f385a336e20f'
p699
sg14
S'Mozilla/5.0 (Linux; Android 4.3; GT-I9300I Build/JLS36C) AppleWebKit/537.36 (KHTML, like Gecko) Version/4.0 Chrome/37.0.0.0 Mobile MQQBrowser/6.8 TBS/036849 Safari/537.36 MicroMessenger/6.3.25.861 NetType/WIFI Language/zh_CN'
p700
sg16
S'567c9e5b94a12c8d0ee22f4a6856a1a8'
p701
sa(dp702
g2
S'37182'
p703
sg4
S'7428'
p704
sg6
S'7470be4cdd895a5288c45b70e34cddc6'
p705
sg8
S'xx46a3d8dcf4a0621f0d923955b8c73b05'
p706
sg10
S'xxa4bb285681cc7dfa48a060ed0be9ac9e'
p707
sg12
S'xx1465ce60bbaf1bc34118f385a336e20f'
p708
sg14
S'Mozilla/5.0 (Linux; Android 4.3; GT-I9300I Build/JLS36C) AppleWebKit/537.36 (KHTML, like Gecko) Version/4.0 Chrome/37.0.0.0 Mobile MQQBrowser/6.8 TBS/036849 Safari/537.36 MicroMessenger/6.3.25.861 NetType/WIFI Language/zh_CN'
p709
sg16
S'567c9e5b94a12c8d0ee22f4a6856a1a8'
p710
sa(dp711
g2
S'37182'
p712
sg4
S'7832'
p713
sg6
S'7470be4cdd895a5288c45b70e34cddc6'
p714
sg8
S'xx46a3d8dcf4a0621f0d923955b8c73b05'
p715
sg10
S'xxa4bb285681cc7dfa48a060ed0be9ac9e'
p716
sg12
S'xx1465ce60bbaf1bc34118f385a336e20f'
p717
sg14
S'Mozilla/5.0 (Linux; Android 4.3; GT-I9300I Build/JLS36C) AppleWebKit/537.36 (KHTML, like Gecko) Version/4.0 Chrome/37.0.0.0 Mobile MQQBrowser/6.8 TBS/036849 Safari/537.36 MicroMessenger/6.3.25.861 NetType/WIFI Language/zh_CN'
p718
sg16
S'567c9e5b94a12c8d0ee22f4a6856a1a8'
p719
sa(dp720
g2
S'37182'
p721
sg4
S'7841'
p722
sg6
S'7470be4cdd895a5288c45b70e34cddc6'
p723
sg8
S'xx46a3d8dcf4a0621f0d923955b8c73b05'
p724
sg10
S'xxa4bb285681cc7dfa48a060ed0be9ac9e'
p725
sg12
S'xx1465ce60bbaf1bc34118f385a336e20f'
p726
sg14
S'Mozilla/5.0 (Linux; Android 4.3; GT-I9300I Build/JLS36C) AppleWebKit/537.36 (KHTML, like Gecko) Version/4.0 Chrome/37.0.0.0 Mobile MQQBrowser/6.8 TBS/036849 Safari/537.36 MicroMessenger/6.3.25.861 NetType/WIFI Language/zh_CN'
p727
sg16
S'567c9e5b94a12c8d0ee22f4a6856a1a8'
p728
sa(dp729
g2
S'37182'
p730
sg4
S'7861'
p731
sg6
S'7470be4cdd895a5288c45b70e34cddc6'
p732
sg8
S'xx46a3d8dcf4a0621f0d923955b8c73b05'
p733
sg10
S'xxa4bb285681cc7dfa48a060ed0be9ac9e'
p734
sg12
S'xx1465ce60bbaf1bc34118f385a336e20f'
p735
sg14
S'Mozilla/5.0 (Linux; Android 4.3; GT-I9300I Build/JLS36C) AppleWebKit/537.36 (KHTML, like Gecko) Version/4.0 Chrome/37.0.0.0 Mobile MQQBrowser/6.8 TBS/036849 Safari/537.36 MicroMessenger/6.3.25.861 NetType/WIFI Language/zh_CN'
p736
sg16
S'567c9e5b94a12c8d0ee22f4a6856a1a8'
p737
sa(dp738
g2
S'37182'
p739
sg4
S'7876'
p740
sg6
S'7470be4cdd895a5288c45b70e34cddc6'
p741
sg8
S'xx46a3d8dcf4a0621f0d923955b8c73b05'
p742
sg10
S'xxa4bb285681cc7dfa48a060ed0be9ac9e'
p743
sg12
S'xx1465ce60bbaf1bc34118f385a336e20f'
p744
sg14
S'Mozilla/5.0 (Linux; Android 4.3; GT-I9300I Build/JLS36C) AppleWebKit/537.36 (KHTML, like Gecko) Version/4.0 Chrome/37.0.0.0 Mobile MQQBrowser/6.8 TBS/036849 Safari/537.36 MicroMessenger/6.3.25.861 NetType/WIFI Language/zh_CN'
p745
sg16
S'567c9e5b94a12c8d0ee22f4a6856a1a8'
p746
sa(dp747
g2
S'37182'
p748
sg4
S'7890'
p749
sg6
S'7470be4cdd895a5288c45b70e34cddc6'
p750
sg8
S'xx46a3d8dcf4a0621f0d923955b8c73b05'
p751
sg10
S'xxa4bb285681cc7dfa48a060ed0be9ac9e'
p752
sg12
S'xx1465ce60bbaf1bc34118f385a336e20f'
p753
sg14
S'Mozilla/5.0 (Linux; Android 4.3; GT-I9300I Build/JLS36C) AppleWebKit/537.36 (KHTML, like Gecko) Version/4.0 Chrome/37.0.0.0 Mobile MQQBrowser/6.8 TBS/036849 Safari/537.36 MicroMessenger/6.3.25.861 NetType/WIFI Language/zh_CN'
p754
sg16
S'567c9e5b94a12c8d0ee22f4a6856a1a8'
p755
sa(dp756
g2
S'37182'
p757
sg4
S'7903'
p758
sg6
S'7470be4cdd895a5288c45b70e34cddc6'
p759
sg8
S'xx46a3d8dcf4a0621f0d923955b8c73b05'
p760
sg10
S'xxa4bb285681cc7dfa48a060ed0be9ac9e'
p761
sg12
S'xx1465ce60bbaf1bc34118f385a336e20f'
p762
sg14
S'Mozilla/5.0 (Linux; Android 4.3; GT-I9300I Build/JLS36C) AppleWebKit/537.36 (KHTML, like Gecko) Version/4.0 Chrome/37.0.0.0 Mobile MQQBrowser/6.8 TBS/036849 Safari/537.36 MicroMessenger/6.3.25.861 NetType/WIFI Language/zh_CN'
p763
sg16
S'567c9e5b94a12c8d0ee22f4a6856a1a8'
p764
sa(dp765
g2
S'37182'
p766
sg4
S'7915'
p767
sg6
S'7470be4cdd895a5288c45b70e34cddc6'
p768
sg8
S'xx46a3d8dcf4a0621f0d923955b8c73b05'
p769
sg10
S'xxa4bb285681cc7dfa48a060ed0be9ac9e'
p770
sg12
S'xx1465ce60bbaf1bc34118f385a336e20f'
p771
sg14
S'Mozilla/5.0 (Linux; Android 4.3; GT-I9300I Build/JLS36C) AppleWebKit/537.36 (KHTML, like Gecko) Version/4.0 Chrome/37.0.0.0 Mobile MQQBrowser/6.8 TBS/036849 Safari/537.36 MicroMessenger/6.3.25.861 NetType/WIFI Language/zh_CN'
p772
sg16
S'567c9e5b94a12c8d0ee22f4a6856a1a8'
p773
sa(dp774
g2
S'37182'
p775
sg4
S'7923'
p776
sg6
S'7470be4cdd895a5288c45b70e34cddc6'
p777
sg8
S'xx46a3d8dcf4a0621f0d923955b8c73b05'
p778
sg10
S'xxa4bb285681cc7dfa48a060ed0be9ac9e'
p779
sg12
S'xx1465ce60bbaf1bc34118f385a336e20f'
p780
sg14
S'Mozilla/5.0 (Linux; Android 4.3; GT-I9300I Build/JLS36C) AppleWebKit/537.36 (KHTML, like Gecko) Version/4.0 Chrome/37.0.0.0 Mobile MQQBrowser/6.8 TBS/036849 Safari/537.36 MicroMessenger/6.3.25.861 NetType/WIFI Language/zh_CN'
p781
sg16
S'567c9e5b94a12c8d0ee22f4a6856a1a8'
p782
sa(dp783
g2
S'37182'
p784
sg4
S'7939'
p785
sg6
S'7470be4cdd895a5288c45b70e34cddc6'
p786
sg8
S'xx46a3d8dcf4a0621f0d923955b8c73b05'
p787
sg10
S'xxa4bb285681cc7dfa48a060ed0be9ac9e'
p788
sg12
S'xx1465ce60bbaf1bc34118f385a336e20f'
p789
sg14
S'Mozilla/5.0 (Linux; Android 4.3; GT-I9300I Build/JLS36C) AppleWebKit/537.36 (KHTML, like Gecko) Version/4.0 Chrome/37.0.0.0 Mobile MQQBrowser/6.8 TBS/036849 Safari/537.36 MicroMessenger/6.3.25.861 NetType/WIFI Language/zh_CN'
p790
sg16
S'567c9e5b94a12c8d0ee22f4a6856a1a8'
p791
sa(dp792
g2
S'37182'
p793
sg4
S'7952'
p794
sg6
S'7470be4cdd895a5288c45b70e34cddc6'
p795
sg8
S'xx46a3d8dcf4a0621f0d923955b8c73b05'
p796
sg10
S'xxa4bb285681cc7dfa48a060ed0be9ac9e'
p797
sg12
S'xx1465ce60bbaf1bc34118f385a336e20f'
p798
sg14
S'Mozilla/5.0 (Linux; Android 4.3; GT-I9300I Build/JLS36C) AppleWebKit/537.36 (KHTML, like Gecko) Version/4.0 Chrome/37.0.0.0 Mobile MQQBrowser/6.8 TBS/036849 Safari/537.36 MicroMessenger/6.3.25.861 NetType/WIFI Language/zh_CN'
p799
sg16
S'567c9e5b94a12c8d0ee22f4a6856a1a8'
p800
sa(dp801
g2
S'37182'
p802
sg4
S'7970'
p803
sg6
S'7470be4cdd895a5288c45b70e34cddc6'
p804
sg8
S'xx46a3d8dcf4a0621f0d923955b8c73b05'
p805
sg10
S'xxa4bb285681cc7dfa48a060ed0be9ac9e'
p806
sg12
S'xx1465ce60bbaf1bc34118f385a336e20f'
p807
sg14
S'Mozilla/5.0 (Linux; Android 4.3; GT-I9300I Build/JLS36C) AppleWebKit/537.36 (KHTML, like Gecko) Version/4.0 Chrome/37.0.0.0 Mobile MQQBrowser/6.8 TBS/036849 Safari/537.36 MicroMessenger/6.3.25.861 NetType/WIFI Language/zh_CN'
p808
sg16
S'567c9e5b94a12c8d0ee22f4a6856a1a8'
p809
sa(dp810
g2
S'37182'
p811
sg4
S'7984'
p812
sg6
S'7470be4cdd895a5288c45b70e34cddc6'
p813
sg8
S'xx46a3d8dcf4a0621f0d923955b8c73b05'
p814
sg10
S'xxa4bb285681cc7dfa48a060ed0be9ac9e'
p815
sg12
S'xx1465ce60bbaf1bc34118f385a336e20f'
p816
sg14
S'Mozilla/5.0 (Linux; Android 4.3; GT-I9300I Build/JLS36C) AppleWebKit/537.36 (KHTML, like Gecko) Version/4.0 Chrome/37.0.0.0 Mobile MQQBrowser/6.8 TBS/036849 Safari/537.36 MicroMessenger/6.3.25.861 NetType/WIFI Language/zh_CN'
p817
sg16
S'567c9e5b94a12c8d0ee22f4a6856a1a8'
p818
sa(dp819
g2
S'37182'
p820
sg4
S'7998'
p821
sg6
S'7470be4cdd895a5288c45b70e34cddc6'
p822
sg8
S'xx46a3d8dcf4a0621f0d923955b8c73b05'
p823
sg10
S'xxa4bb285681cc7dfa48a060ed0be9ac9e'
p824
sg12
S'xx1465ce60bbaf1bc34118f385a336e20f'
p825
sg14
S'Mozilla/5.0 (Linux; Android 4.3; GT-I9300I Build/JLS36C) AppleWebKit/537.36 (KHTML, like Gecko) Version/4.0 Chrome/37.0.0.0 Mobile MQQBrowser/6.8 TBS/036849 Safari/537.36 MicroMessenger/6.3.25.861 NetType/WIFI Language/zh_CN'
p826
sg16
S'567c9e5b94a12c8d0ee22f4a6856a1a8'
p827
sa(dp828
g2
S'37182'
p829
sg4
S'8019'
p830
sg6
S'7470be4cdd895a5288c45b70e34cddc6'
p831
sg8
S'xx46a3d8dcf4a0621f0d923955b8c73b05'
p832
sg10
S'xxa4bb285681cc7dfa48a060ed0be9ac9e'
p833
sg12
S'xx1465ce60bbaf1bc34118f385a336e20f'
p834
sg14
S'Mozilla/5.0 (Linux; Android 4.3; GT-I9300I Build/JLS36C) AppleWebKit/537.36 (KHTML, like Gecko) Version/4.0 Chrome/37.0.0.0 Mobile MQQBrowser/6.8 TBS/036849 Safari/537.36 MicroMessenger/6.3.25.861 NetType/WIFI Language/zh_CN'
p835
sg16
S'567c9e5b94a12c8d0ee22f4a6856a1a8'
p836
sa(dp837
g2
S'37182'
p838
sg4
S'8034'
p839
sg6
S'7470be4cdd895a5288c45b70e34cddc6'
p840
sg8
S'xx46a3d8dcf4a0621f0d923955b8c73b05'
p841
sg10
S'xxa4bb285681cc7dfa48a060ed0be9ac9e'
p842
sg12
S'xx1465ce60bbaf1bc34118f385a336e20f'
p843
sg14
S'Mozilla/5.0 (Linux; Android 4.3; GT-I9300I Build/JLS36C) AppleWebKit/537.36 (KHTML, like Gecko) Version/4.0 Chrome/37.0.0.0 Mobile MQQBrowser/6.8 TBS/036849 Safari/537.36 MicroMessenger/6.3.25.861 NetType/WIFI Language/zh_CN'
p844
sg16
S'567c9e5b94a12c8d0ee22f4a6856a1a8'
p845
sa(dp846
g2
S'37182'
p847
sg4
S'8048'
p848
sg6
S'7470be4cdd895a5288c45b70e34cddc6'
p849
sg8
S'xx46a3d8dcf4a0621f0d923955b8c73b05'
p850
sg10
S'xxa4bb285681cc7dfa48a060ed0be9ac9e'
p851
sg12
S'xx1465ce60bbaf1bc34118f385a336e20f'
p852
sg14
S'Mozilla/5.0 (Linux; Android 4.3; GT-I9300I Build/JLS36C) AppleWebKit/537.36 (KHTML, like Gecko) Version/4.0 Chrome/37.0.0.0 Mobile MQQBrowser/6.8 TBS/036849 Safari/537.36 MicroMessenger/6.3.25.861 NetType/WIFI Language/zh_CN'
p853
sg16
S'567c9e5b94a12c8d0ee22f4a6856a1a8'
p854
sa(dp855
g2
S'37182'
p856
sg4
S'8059'
p857
sg6
S'7470be4cdd895a5288c45b70e34cddc6'
p858
sg8
S'xx46a3d8dcf4a0621f0d923955b8c73b05'
p859
sg10
S'xxa4bb285681cc7dfa48a060ed0be9ac9e'
p860
sg12
S'xx1465ce60bbaf1bc34118f385a336e20f'
p861
sg14
S'Mozilla/5.0 (Linux; Android 4.3; GT-I9300I Build/JLS36C) AppleWebKit/537.36 (KHTML, like Gecko) Version/4.0 Chrome/37.0.0.0 Mobile MQQBrowser/6.8 TBS/036849 Safari/537.36 MicroMessenger/6.3.25.861 NetType/WIFI Language/zh_CN'
p862
sg16
S'567c9e5b94a12c8d0ee22f4a6856a1a8'
p863
sa(dp864
g2
S'37182'
p865
sg4
S'8069'
p866
sg6
S'7470be4cdd895a5288c45b70e34cddc6'
p867
sg8
S'xx46a3d8dcf4a0621f0d923955b8c73b05'
p868
sg10
S'xxa4bb285681cc7dfa48a060ed0be9ac9e'
p869
sg12
S'xx1465ce60bbaf1bc34118f385a336e20f'
p870
sg14
S'Mozilla/5.0 (Linux; Android 4.3; GT-I9300I Build/JLS36C) AppleWebKit/537.36 (KHTML, like Gecko) Version/4.0 Chrome/37.0.0.0 Mobile MQQBrowser/6.8 TBS/036849 Safari/537.36 MicroMessenger/6.3.25.861 NetType/WIFI Language/zh_CN'
p871
sg16
S'567c9e5b94a12c8d0ee22f4a6856a1a8'
p872
sa(dp873
g2
S'37182'
p874
sg4
S'8084'
p875
sg6
S'7470be4cdd895a5288c45b70e34cddc6'
p876
sg8
S'xx46a3d8dcf4a0621f0d923955b8c73b05'
p877
sg10
S'xxa4bb285681cc7dfa48a060ed0be9ac9e'
p878
sg12
S'xx1465ce60bbaf1bc34118f385a336e20f'
p879
sg14
S'Mozilla/5.0 (Linux; Android 4.3; GT-I9300I Build/JLS36C) AppleWebKit/537.36 (KHTML, like Gecko) Version/4.0 Chrome/37.0.0.0 Mobile MQQBrowser/6.8 TBS/036849 Safari/537.36 MicroMessenger/6.3.25.861 NetType/WIFI Language/zh_CN'
p880
sg16
S'567c9e5b94a12c8d0ee22f4a6856a1a8'
p881
sa(dp882
g2
S'37182'
p883
sg4
S'8094'
p884
sg6
S'7470be4cdd895a5288c45b70e34cddc6'
p885
sg8
S'xx46a3d8dcf4a0621f0d923955b8c73b05'
p886
sg10
S'xxa4bb285681cc7dfa48a060ed0be9ac9e'
p887
sg12
S'xx1465ce60bbaf1bc34118f385a336e20f'
p888
sg14
S'Mozilla/5.0 (Linux; Android 4.3; GT-I9300I Build/JLS36C) AppleWebKit/537.36 (KHTML, like Gecko) Version/4.0 Chrome/37.0.0.0 Mobile MQQBrowser/6.8 TBS/036849 Safari/537.36 MicroMessenger/6.3.25.861 NetType/WIFI Language/zh_CN'
p889
sg16
S'567c9e5b94a12c8d0ee22f4a6856a1a8'
p890
sa(dp891
g2
S'37182'
p892
sg4
S'8103'
p893
sg6
S'7470be4cdd895a5288c45b70e34cddc6'
p894
sg8
S'xx46a3d8dcf4a0621f0d923955b8c73b05'
p895
sg10
S'xxa4bb285681cc7dfa48a060ed0be9ac9e'
p896
sg12
S'xx1465ce60bbaf1bc34118f385a336e20f'
p897
sg14
S'Mozilla/5.0 (Linux; Android 4.3; GT-I9300I Build/JLS36C) AppleWebKit/537.36 (KHTML, like Gecko) Version/4.0 Chrome/37.0.0.0 Mobile MQQBrowser/6.8 TBS/036849 Safari/537.36 MicroMessenger/6.3.25.861 NetType/WIFI Language/zh_CN'
p898
sg16
S'567c9e5b94a12c8d0ee22f4a6856a1a8'
p899
sa(dp900
g2
S'37182'
p901
sg4
S'8117'
p902
sg6
S'7470be4cdd895a5288c45b70e34cddc6'
p903
sg8
S'xx46a3d8dcf4a0621f0d923955b8c73b05'
p904
sg10
S'xxa4bb285681cc7dfa48a060ed0be9ac9e'
p905
sg12
S'xx1465ce60bbaf1bc34118f385a336e20f'
p906
sg14
S'Mozilla/5.0 (Linux; Android 4.3; GT-I9300I Build/JLS36C) AppleWebKit/537.36 (KHTML, like Gecko) Version/4.0 Chrome/37.0.0.0 Mobile MQQBrowser/6.8 TBS/036849 Safari/537.36 MicroMessenger/6.3.25.861 NetType/WIFI Language/zh_CN'
p907
sg16
S'567c9e5b94a12c8d0ee22f4a6856a1a8'
p908
sa(dp909
g2
S'37182'
p910
sg4
S'8126'
p911
sg6
S'7470be4cdd895a5288c45b70e34cddc6'
p912
sg8
S'xx46a3d8dcf4a0621f0d923955b8c73b05'
p913
sg10
S'xxa4bb285681cc7dfa48a060ed0be9ac9e'
p914
sg12
S'xx1465ce60bbaf1bc34118f385a336e20f'
p915
sg14
S'Mozilla/5.0 (Linux; Android 4.3; GT-I9300I Build/JLS36C) AppleWebKit/537.36 (KHTML, like Gecko) Version/4.0 Chrome/37.0.0.0 Mobile MQQBrowser/6.8 TBS/036849 Safari/537.36 MicroMessenger/6.3.25.861 NetType/WIFI Language/zh_CN'
p916
sg16
S'567c9e5b94a12c8d0ee22f4a6856a1a8'
p917
sa(dp918
g2
S'37182'
p919
sg4
S'8138'
p920
sg6
S'7470be4cdd895a5288c45b70e34cddc6'
p921
sg8
S'xx46a3d8dcf4a0621f0d923955b8c73b05'
p922
sg10
S'xxa4bb285681cc7dfa48a060ed0be9ac9e'
p923
sg12
S'xx1465ce60bbaf1bc34118f385a336e20f'
p924
sg14
S'Mozilla/5.0 (Linux; Android 4.3; GT-I9300I Build/JLS36C) AppleWebKit/537.36 (KHTML, like Gecko) Version/4.0 Chrome/37.0.0.0 Mobile MQQBrowser/6.8 TBS/036849 Safari/537.36 MicroMessenger/6.3.25.861 NetType/WIFI Language/zh_CN'
p925
sg16
S'567c9e5b94a12c8d0ee22f4a6856a1a8'
p926
sa(dp927
g2
S'37182'
p928
sg4
S'8150'
p929
sg6
S'7470be4cdd895a5288c45b70e34cddc6'
p930
sg8
S'xx46a3d8dcf4a0621f0d923955b8c73b05'
p931
sg10
S'xxa4bb285681cc7dfa48a060ed0be9ac9e'
p932
sg12
S'xx1465ce60bbaf1bc34118f385a336e20f'
p933
sg14
S'Mozilla/5.0 (Linux; Android 4.3; GT-I9300I Build/JLS36C) AppleWebKit/537.36 (KHTML, like Gecko) Version/4.0 Chrome/37.0.0.0 Mobile MQQBrowser/6.8 TBS/036849 Safari/537.36 MicroMessenger/6.3.25.861 NetType/WIFI Language/zh_CN'
p934
sg16
S'567c9e5b94a12c8d0ee22f4a6856a1a8'
p935
sa(dp936
g2
S'37182'
p937
sg4
S'8161'
p938
sg6
S'7470be4cdd895a5288c45b70e34cddc6'
p939
sg8
S'xx46a3d8dcf4a0621f0d923955b8c73b05'
p940
sg10
S'xxa4bb285681cc7dfa48a060ed0be9ac9e'
p941
sg12
S'xx1465ce60bbaf1bc34118f385a336e20f'
p942
sg14
S'Mozilla/5.0 (Linux; Android 4.3; GT-I9300I Build/JLS36C) AppleWebKit/537.36 (KHTML, like Gecko) Version/4.0 Chrome/37.0.0.0 Mobile MQQBrowser/6.8 TBS/036849 Safari/537.36 MicroMessenger/6.3.25.861 NetType/WIFI Language/zh_CN'
p943
sg16
S'567c9e5b94a12c8d0ee22f4a6856a1a8'
p944
sa(dp945
g2
S'37182'
p946
sg4
S'8175'
p947
sg6
S'7470be4cdd895a5288c45b70e34cddc6'
p948
sg8
S'xx46a3d8dcf4a0621f0d923955b8c73b05'
p949
sg10
S'xxa4bb285681cc7dfa48a060ed0be9ac9e'
p950
sg12
S'xx1465ce60bbaf1bc34118f385a336e20f'
p951
sg14
S'Mozilla/5.0 (Linux; Android 4.3; GT-I9300I Build/JLS36C) AppleWebKit/537.36 (KHTML, like Gecko) Version/4.0 Chrome/37.0.0.0 Mobile MQQBrowser/6.8 TBS/036849 Safari/537.36 MicroMessenger/6.3.25.861 NetType/WIFI Language/zh_CN'
p952
sg16
S'567c9e5b94a12c8d0ee22f4a6856a1a8'
p953
sa(dp954
g2
S'37182'
p955
sg4
S'8187'
p956
sg6
S'7470be4cdd895a5288c45b70e34cddc6'
p957
sg8
S'xx46a3d8dcf4a0621f0d923955b8c73b05'
p958
sg10
S'xxa4bb285681cc7dfa48a060ed0be9ac9e'
p959
sg12
S'xx1465ce60bbaf1bc34118f385a336e20f'
p960
sg14
S'Mozilla/5.0 (Linux; Android 4.3; GT-I9300I Build/JLS36C) AppleWebKit/537.36 (KHTML, like Gecko) Version/4.0 Chrome/37.0.0.0 Mobile MQQBrowser/6.8 TBS/036849 Safari/537.36 MicroMessenger/6.3.25.861 NetType/WIFI Language/zh_CN'
p961
sg16
S'567c9e5b94a12c8d0ee22f4a6856a1a8'
p962
sa(dp963
g2
S'37182'
p964
sg4
S'8200'
p965
sg6
S'7470be4cdd895a5288c45b70e34cddc6'
p966
sg8
S'xx46a3d8dcf4a0621f0d923955b8c73b05'
p967
sg10
S'xxa4bb285681cc7dfa48a060ed0be9ac9e'
p968
sg12
S'xx1465ce60bbaf1bc34118f385a336e20f'
p969
sg14
S'Mozilla/5.0 (Linux; Android 4.3; GT-I9300I Build/JLS36C) AppleWebKit/537.36 (KHTML, like Gecko) Version/4.0 Chrome/37.0.0.0 Mobile MQQBrowser/6.8 TBS/036849 Safari/537.36 MicroMessenger/6.3.25.861 NetType/WIFI Language/zh_CN'
p970
sg16
S'567c9e5b94a12c8d0ee22f4a6856a1a8'
p971
sa(dp972
g2
S'37182'
p973
sg4
S'8213'
p974
sg6
S'7470be4cdd895a5288c45b70e34cddc6'
p975
sg8
S'xx46a3d8dcf4a0621f0d923955b8c73b05'
p976
sg10
S'xxa4bb285681cc7dfa48a060ed0be9ac9e'
p977
sg12
S'xx1465ce60bbaf1bc34118f385a336e20f'
p978
sg14
S'Mozilla/5.0 (Linux; Android 4.3; GT-I9300I Build/JLS36C) AppleWebKit/537.36 (KHTML, like Gecko) Version/4.0 Chrome/37.0.0.0 Mobile MQQBrowser/6.8 TBS/036849 Safari/537.36 MicroMessenger/6.3.25.861 NetType/WIFI Language/zh_CN'
p979
sg16
S'567c9e5b94a12c8d0ee22f4a6856a1a8'
p980
sa(dp981
g2
S'37182'
p982
sg4
S'8222'
p983
sg6
S'7470be4cdd895a5288c45b70e34cddc6'
p984
sg8
S'xx46a3d8dcf4a0621f0d923955b8c73b05'
p985
sg10
S'xxa4bb285681cc7dfa48a060ed0be9ac9e'
p986
sg12
S'xx1465ce60bbaf1bc34118f385a336e20f'
p987
sg14
S'Mozilla/5.0 (Linux; Android 4.3; GT-I9300I Build/JLS36C) AppleWebKit/537.36 (KHTML, like Gecko) Version/4.0 Chrome/37.0.0.0 Mobile MQQBrowser/6.8 TBS/036849 Safari/537.36 MicroMessenger/6.3.25.861 NetType/WIFI Language/zh_CN'
p988
sg16
S'567c9e5b94a12c8d0ee22f4a6856a1a8'
p989
sa(dp990
g2
S'37182'
p991
sg4
S'8233'
p992
sg6
S'7470be4cdd895a5288c45b70e34cddc6'
p993
sg8
S'xx46a3d8dcf4a0621f0d923955b8c73b05'
p994
sg10
S'xxa4bb285681cc7dfa48a060ed0be9ac9e'
p995
sg12
S'xx1465ce60bbaf1bc34118f385a336e20f'
p996
sg14
S'Mozilla/5.0 (Linux; Android 4.3; GT-I9300I Build/JLS36C) AppleWebKit/537.36 (KHTML, like Gecko) Version/4.0 Chrome/37.0.0.0 Mobile MQQBrowser/6.8 TBS/036849 Safari/537.36 MicroMessenger/6.3.25.861 NetType/WIFI Language/zh_CN'
p997
sg16
S'567c9e5b94a12c8d0ee22f4a6856a1a8'
p998
sa(dp999
g2
S'37182'
p1000
sg4
S'8248'
p1001
sg6
S'7470be4cdd895a5288c45b70e34cddc6'
p1002
sg8
S'xx46a3d8dcf4a0621f0d923955b8c73b05'
p1003
sg10
S'xxa4bb285681cc7dfa48a060ed0be9ac9e'
p1004
sg12
S'xx1465ce60bbaf1bc34118f385a336e20f'
p1005
sg14
S'Mozilla/5.0 (Linux; Android 4.3; GT-I9300I Build/JLS36C) AppleWebKit/537.36 (KHTML, like Gecko) Version/4.0 Chrome/37.0.0.0 Mobile MQQBrowser/6.8 TBS/036849 Safari/537.36 MicroMessenger/6.3.25.861 NetType/WIFI Language/zh_CN'
p1006
sg16
S'567c9e5b94a12c8d0ee22f4a6856a1a8'
p1007
sa(dp1008
g2
S'37182'
p1009
sg4
S'8263'
p1010
sg6
S'7470be4cdd895a5288c45b70e34cddc6'
p1011
sg8
S'xx46a3d8dcf4a0621f0d923955b8c73b05'
p1012
sg10
S'xxa4bb285681cc7dfa48a060ed0be9ac9e'
p1013
sg12
S'xx1465ce60bbaf1bc34118f385a336e20f'
p1014
sg14
S'Mozilla/5.0 (Linux; Android 4.3; GT-I9300I Build/JLS36C) AppleWebKit/537.36 (KHTML, like Gecko) Version/4.0 Chrome/37.0.0.0 Mobile MQQBrowser/6.8 TBS/036849 Safari/537.36 MicroMessenger/6.3.25.861 NetType/WIFI Language/zh_CN'
p1015
sg16
S'567c9e5b94a12c8d0ee22f4a6856a1a8'
p1016
sa(dp1017
g2
S'37182'
p1018
sg4
S'8287'
p1019
sg6
S'7470be4cdd895a5288c45b70e34cddc6'
p1020
sg8
S'xx46a3d8dcf4a0621f0d923955b8c73b05'
p1021
sg10
S'xxa4bb285681cc7dfa48a060ed0be9ac9e'
p1022
sg12
S'xx1465ce60bbaf1bc34118f385a336e20f'
p1023
sg14
S'Mozilla/5.0 (Linux; Android 4.3; GT-I9300I Build/JLS36C) AppleWebKit/537.36 (KHTML, like Gecko) Version/4.0 Chrome/37.0.0.0 Mobile MQQBrowser/6.8 TBS/036849 Safari/537.36 MicroMessenger/6.3.25.861 NetType/WIFI Language/zh_CN'
p1024
sg16
S'567c9e5b94a12c8d0ee22f4a6856a1a8'
p1025
sa(dp1026
g2
S'37182'
p1027
sg4
S'8362'
p1028
sg6
S'7470be4cdd895a5288c45b70e34cddc6'
p1029
sg8
S'xx46a3d8dcf4a0621f0d923955b8c73b05'
p1030
sg10
S'xxa4bb285681cc7dfa48a060ed0be9ac9e'
p1031
sg12
S'xx1465ce60bbaf1bc34118f385a336e20f'
p1032
sg14
S'Mozilla/5.0 (Linux; Android 4.3; GT-I9300I Build/JLS36C) AppleWebKit/537.36 (KHTML, like Gecko) Version/4.0 Chrome/37.0.0.0 Mobile MQQBrowser/6.8 TBS/036849 Safari/537.36 MicroMessenger/6.3.25.861 NetType/WIFI Language/zh_CN'
p1033
sg16
S'567c9e5b94a12c8d0ee22f4a6856a1a8'
p1034
sa(dp1035
g2
S'37182'
p1036
sg4
S'8490'
p1037
sg6
S'7470be4cdd895a5288c45b70e34cddc6'
p1038
sg8
S'xx46a3d8dcf4a0621f0d923955b8c73b05'
p1039
sg10
S'xxa4bb285681cc7dfa48a060ed0be9ac9e'
p1040
sg12
S'xx1465ce60bbaf1bc34118f385a336e20f'
p1041
sg14
S'Mozilla/5.0 (Linux; Android 4.3; GT-I9300I Build/JLS36C) AppleWebKit/537.36 (KHTML, like Gecko) Version/4.0 Chrome/37.0.0.0 Mobile MQQBrowser/6.8 TBS/036849 Safari/537.36 MicroMessenger/6.3.25.861 NetType/WIFI Language/zh_CN'
p1042
sg16
S'567c9e5b94a12c8d0ee22f4a6856a1a8'
p1043
sa(dp1044
g2
S'37182'
p1045
sg4
S'8555'
p1046
sg6
S'7470be4cdd895a5288c45b70e34cddc6'
p1047
sg8
S'xx46a3d8dcf4a0621f0d923955b8c73b05'
p1048
sg10
S'xxa4bb285681cc7dfa48a060ed0be9ac9e'
p1049
sg12
S'xx1465ce60bbaf1bc34118f385a336e20f'
p1050
sg14
S'Mozilla/5.0 (Linux; Android 4.3; GT-I9300I Build/JLS36C) AppleWebKit/537.36 (KHTML, like Gecko) Version/4.0 Chrome/37.0.0.0 Mobile MQQBrowser/6.8 TBS/036849 Safari/537.36 MicroMessenger/6.3.25.861 NetType/WIFI Language/zh_CN'
p1051
sg16
S'567c9e5b94a12c8d0ee22f4a6856a1a8'
p1052
sa(dp1053
g2
S'37182'
p1054
sg4
S'8681'
p1055
sg6
S'7470be4cdd895a5288c45b70e34cddc6'
p1056
sg8
S'xx46a3d8dcf4a0621f0d923955b8c73b05'
p1057
sg10
S'xxa4bb285681cc7dfa48a060ed0be9ac9e'
p1058
sg12
S'xx1465ce60bbaf1bc34118f385a336e20f'
p1059
sg14
S'Mozilla/5.0 (Linux; Android 4.3; GT-I9300I Build/JLS36C) AppleWebKit/537.36 (KHTML, like Gecko) Version/4.0 Chrome/37.0.0.0 Mobile MQQBrowser/6.8 TBS/036849 Safari/537.36 MicroMessenger/6.3.25.861 NetType/WIFI Language/zh_CN'
p1060
sg16
S'567c9e5b94a12c8d0ee22f4a6856a1a8'
p1061
sa(dp1062
g2
S'37182'
p1063
sg4
S'8798'
p1064
sg6
S'7470be4cdd895a5288c45b70e34cddc6'
p1065
sg8
S'xx46a3d8dcf4a0621f0d923955b8c73b05'
p1066
sg10
S'xxa4bb285681cc7dfa48a060ed0be9ac9e'
p1067
sg12
S'xx1465ce60bbaf1bc34118f385a336e20f'
p1068
sg14
S'Mozilla/5.0 (Linux; Android 4.3; GT-I9300I Build/JLS36C) AppleWebKit/537.36 (KHTML, like Gecko) Version/4.0 Chrome/37.0.0.0 Mobile MQQBrowser/6.8 TBS/036849 Safari/537.36 MicroMessenger/6.3.25.861 NetType/WIFI Language/zh_CN'
p1069
sg16
S'567c9e5b94a12c8d0ee22f4a6856a1a8'
p1070
sa.