(lp0
(dp1
S'user_id'
p2
S'37422'
p3
sS'data_id'
p4
S'7136'
p5
sS'ip'
p6
S'9d19e70a6352561d1fdecd2c51b68330'
p7
sS'phone_B'
p8
S'xx179380264706dcde556d1178fac93525'
p9
sS'phone_C'
p10
S'xx5add7633312aa76ae2cc0af4d18631f5'
p11
sS'phone_A'
p12
S'xx14c368c181f324e44dd551d67aff47dd'
p13
sS'user_agent'
p14
S'Mozilla/5.0 (Linux; Android 5.0.2; vivo Y35A Build/LRX22G) AppleWebKit/537.36 (KHTML, like Gecko) Version/4.0 Chrome/37.0.0.0 Mobile MQQBrowser/6.8 TBS/036849 Safari/537.36 MicroMessenger/6.3.27.880 NetType/WIFI Language/zh_CN'
p15
sS'ua'
p16
S'f3d500c9b0c03c6358b9736de7fda897'
p17
sa(dp18
g2
S'37422'
p19
sg4
S'7154'
p20
sg6
S'9d19e70a6352561d1fdecd2c51b68330'
p21
sg8
S'xx179380264706dcde556d1178fac93525'
p22
sg10
S'xx5add7633312aa76ae2cc0af4d18631f5'
p23
sg12
S'xx14c368c181f324e44dd551d67aff47dd'
p24
sg14
S'Mozilla/5.0 (Linux; Android 5.0.2; vivo Y35A Build/LRX22G) AppleWebKit/537.36 (KHTML, like Gecko) Version/4.0 Chrome/37.0.0.0 Mobile MQQBrowser/6.8 TBS/036849 Safari/537.36 MicroMessenger/6.3.27.880 NetType/WIFI Language/zh_CN'
p25
sg16
S'f3d500c9b0c03c6358b9736de7fda897'
p26
sa(dp27
g2
S'49845'
p28
sg4
S'7848'
p29
sg6
S'ed857e0979c1e42c84092e3fef49eb75'
p30
sg8
S'xxd4953d7477a82244b93089f047806818'
p31
sg10
S'xx052622e5a0755b0da6e17d3d8ebc73d1'
p32
sg12
S'xx14c368c181f324e44dd551d67aff47dd'
p33
sg14
S'Mozilla/5.0 (Linux; Android 5.0.2; vivo Y35A Build/LRX22G) AppleWebKit/537.36 (KHTML, like Gecko) Version/4.0 Chrome/37.0.0.0 Mobile Safari/537.36 MicroMessenger/6.3.27.880 NetType/cmnet Language/zh_CN'
p34
sg16
S'a281a5892a31e87b657e8fc9e63e568d'
p35
sa(dp36
g2
S'49845'
p37
sg4
S'7863'
p38
sg6
S'ed857e0979c1e42c84092e3fef49eb75'
p39
sg8
S'xxd4953d7477a82244b93089f047806818'
p40
sg10
S'xx052622e5a0755b0da6e17d3d8ebc73d1'
p41
sg12
S'xx14c368c181f324e44dd551d67aff47dd'
p42
sg14
S'Mozilla/5.0 (Linux; Android 5.0.2; vivo Y35A Build/LRX22G) AppleWebKit/537.36 (KHTML, like Gecko) Version/4.0 Chrome/37.0.0.0 Mobile Safari/537.36 MicroMessenger/6.3.27.880 NetType/cmnet Language/zh_CN'
p43
sg16
S'a281a5892a31e87b657e8fc9e63e568d'
p44
sa(dp45
g2
S'47084'
p46
sg4
S'8074'
p47
sg6
S'e29483f5d48909ce7997109bb3c0c935'
p48
sg8
S'xxa0e5979f479314f685a5511a1fa8a068'
p49
sg10
S'xxe883e72bc2e7ebd6ac8bb2868d56c5eb'
p50
sg12
S'xx14c368c181f324e44dd551d67aff47dd'
p51
sg14
S'Mozilla/5.0 (Linux; Android 5.0.2; vivo Y35A Build/LRX22G) AppleWebKit/537.36 (KHTML, like Gecko) Version/4.0 Chrome/37.0.0.0 Mobile MQQBrowser/6.8 TBS/036849 Safari/537.36 MicroMessenger/6.3.27.880 NetType/WIFI Language/zh_CN'
p52
sg16
S'f3d500c9b0c03c6358b9736de7fda897'
p53
sa(dp54
g2
S'47084'
p55
sg4
S'8089'
p56
sg6
S'e29483f5d48909ce7997109bb3c0c935'
p57
sg8
S'xxa0e5979f479314f685a5511a1fa8a068'
p58
sg10
S'xxe883e72bc2e7ebd6ac8bb2868d56c5eb'
p59
sg12
S'xx14c368c181f324e44dd551d67aff47dd'
p60
sg14
S'Mozilla/5.0 (Linux; Android 5.0.2; vivo Y35A Build/LRX22G) AppleWebKit/537.36 (KHTML, like Gecko) Version/4.0 Chrome/37.0.0.0 Mobile MQQBrowser/6.8 TBS/036849 Safari/537.36 MicroMessenger/6.3.27.880 NetType/WIFI Language/zh_CN'
p61
sg16
S'f3d500c9b0c03c6358b9736de7fda897'
p62
sa(dp63
g2
S'47084'
p64
sg4
S'8105'
p65
sg6
S'e29483f5d48909ce7997109bb3c0c935'
p66
sg8
S'xxa0e5979f479314f685a5511a1fa8a068'
p67
sg10
S'xxe883e72bc2e7ebd6ac8bb2868d56c5eb'
p68
sg12
S'xx14c368c181f324e44dd551d67aff47dd'
p69
sg14
S'Mozilla/5.0 (Linux; Android 5.0.2; vivo Y35A Build/LRX22G) AppleWebKit/537.36 (KHTML, like Gecko) Version/4.0 Chrome/37.0.0.0 Mobile MQQBrowser/6.8 TBS/036849 Safari/537.36 MicroMessenger/6.3.27.880 NetType/WIFI Language/zh_CN'
p70
sg16
S'f3d500c9b0c03c6358b9736de7fda897'
p71
sa(dp72
g2
S'47084'
p73
sg4
S'8123'
p74
sg6
S'e29483f5d48909ce7997109bb3c0c935'
p75
sg8
S'xxa0e5979f479314f685a5511a1fa8a068'
p76
sg10
S'xxe883e72bc2e7ebd6ac8bb2868d56c5eb'
p77
sg12
S'xx14c368c181f324e44dd551d67aff47dd'
p78
sg14
S'Mozilla/5.0 (Linux; Android 5.0.2; vivo Y35A Build/LRX22G) AppleWebKit/537.36 (KHTML, like Gecko) Version/4.0 Chrome/37.0.0.0 Mobile MQQBrowser/6.8 TBS/036849 Safari/537.36 MicroMessenger/6.3.27.880 NetType/WIFI Language/zh_CN'
p79
sg16
S'f3d500c9b0c03c6358b9736de7fda897'
p80
sa(dp81
g2
S'47084'
p82
sg4
S'8137'
p83
sg6
S'e29483f5d48909ce7997109bb3c0c935'
p84
sg8
S'xxa0e5979f479314f685a5511a1fa8a068'
p85
sg10
S'xxe883e72bc2e7ebd6ac8bb2868d56c5eb'
p86
sg12
S'xx14c368c181f324e44dd551d67aff47dd'
p87
sg14
S'Mozilla/5.0 (Linux; Android 5.0.2; vivo Y35A Build/LRX22G) AppleWebKit/537.36 (KHTML, like Gecko) Version/4.0 Chrome/37.0.0.0 Mobile MQQBrowser/6.8 TBS/036849 Safari/537.36 MicroMessenger/6.3.27.880 NetType/WIFI Language/zh_CN'
p88
sg16
S'f3d500c9b0c03c6358b9736de7fda897'
p89
sa(dp90
g2
S'47084'
p91
sg4
S'8611'
p92
sg6
S'e29483f5d48909ce7997109bb3c0c935'
p93
sg8
S'xxa0e5979f479314f685a5511a1fa8a068'
p94
sg10
S'xxe883e72bc2e7ebd6ac8bb2868d56c5eb'
p95
sg12
S'xx14c368c181f324e44dd551d67aff47dd'
p96
sg14
S'Mozilla/5.0 (Linux; Android 5.0.2; vivo Y35A Build/LRX22G) AppleWebKit/537.36 (KHTML, like Gecko) Version/4.0 Chrome/37.0.0.0 Mobile MQQBrowser/6.8 TBS/036849 Safari/537.36 MicroMessenger/6.3.27.880 NetType/WIFI Language/zh_CN'
p97
sg16
S'f3d500c9b0c03c6358b9736de7fda897'
p98
sa(dp99
g2
S'47084'
p100
sg4
S'8631'
p101
sg6
S'e29483f5d48909ce7997109bb3c0c935'
p102
sg8
S'xxa0e5979f479314f685a5511a1fa8a068'
p103
sg10
S'xxe883e72bc2e7ebd6ac8bb2868d56c5eb'
p104
sg12
S'xx14c368c181f324e44dd551d67aff47dd'
p105
sg14
S'Mozilla/5.0 (Linux; Android 5.0.2; vivo Y35A Build/LRX22G) AppleWebKit/537.36 (KHTML, like Gecko) Version/4.0 Chrome/37.0.0.0 Mobile MQQBrowser/6.8 TBS/036849 Safari/537.36 MicroMessenger/6.3.27.880 NetType/WIFI Language/zh_CN'
p106
sg16
S'f3d500c9b0c03c6358b9736de7fda897'
p107
sa(dp108
g2
S'47084'
p109
sg4
S'8654'
p110
sg6
S'e29483f5d48909ce7997109bb3c0c935'
p111
sg8
S'xxa0e5979f479314f685a5511a1fa8a068'
p112
sg10
S'xxe883e72bc2e7ebd6ac8bb2868d56c5eb'
p113
sg12
S'xx14c368c181f324e44dd551d67aff47dd'
p114
sg14
S'Mozilla/5.0 (Linux; Android 5.0.2; vivo Y35A Build/LRX22G) AppleWebKit/537.36 (KHTML, like Gecko) Version/4.0 Chrome/37.0.0.0 Mobile MQQBrowser/6.8 TBS/036849 Safari/537.36 MicroMessenger/6.3.27.880 NetType/WIFI Language/zh_CN'
p115
sg16
S'f3d500c9b0c03c6358b9736de7fda897'
p116
sa(dp117
g2
S'47084'
p118
sg4
S'8670'
p119
sg6
S'e29483f5d48909ce7997109bb3c0c935'
p120
sg8
S'xxa0e5979f479314f685a5511a1fa8a068'
p121
sg10
S'xxe883e72bc2e7ebd6ac8bb2868d56c5eb'
p122
sg12
S'xx14c368c181f324e44dd551d67aff47dd'
p123
sg14
S'Mozilla/5.0 (Linux; Android 5.0.2; vivo Y35A Build/LRX22G) AppleWebKit/537.36 (KHTML, like Gecko) Version/4.0 Chrome/37.0.0.0 Mobile MQQBrowser/6.8 TBS/036849 Safari/537.36 MicroMessenger/6.3.27.880 NetType/WIFI Language/zh_CN'
p124
sg16
S'f3d500c9b0c03c6358b9736de7fda897'
p125
sa.