(lp0
(dp1
S'user_id'
p2
S'44484'
p3
sS'data_id'
p4
S'2082'
p5
sS'ip'
p6
S'3e75235ed7f9078e48e92ae1fa7805a1'
p7
sS'phone_B'
p8
S'xxaf05972895ad4f3307c059252dc9e5a8'
p9
sS'phone_C'
p10
S'xx4d04f18e8730057e726a2b4b63ea4556'
p11
sS'phone_A'
p12
S'xx141ca1830ef0faa5abb76761a9c32eb7'
p13
sS'user_agent'
p14
S'Mozilla/5.0 (Linux; Android 5.1.1; E6883 Build/32.0.A.6.209) AppleWebKit/537.36 (KHTML, like Gecko) Version/4.0 Chrome/37.0.0.0 Mobile MQQBrowser/6.8 TBS/036849 Safari/537.36 MicroMessenger/6.3.27.880 NetType/WIFI Language/zh_CN'
p15
sS'ua'
p16
S'4bb08b60a8ee8cfd645a48960964865b'
p17
sa(dp18
g2
S'44484'
p19
sg4
S'2097'
p20
sg6
S'3e75235ed7f9078e48e92ae1fa7805a1'
p21
sg8
S'xxaf05972895ad4f3307c059252dc9e5a8'
p22
sg10
S'xx4d04f18e8730057e726a2b4b63ea4556'
p23
sg12
S'xx141ca1830ef0faa5abb76761a9c32eb7'
p24
sg14
S'Mozilla/5.0 (Linux; Android 5.1.1; E6883 Build/32.0.A.6.209) AppleWebKit/537.36 (KHTML, like Gecko) Version/4.0 Chrome/37.0.0.0 Mobile MQQBrowser/6.8 TBS/036849 Safari/537.36 MicroMessenger/6.3.27.880 NetType/WIFI Language/zh_CN'
p25
sg16
S'4bb08b60a8ee8cfd645a48960964865b'
p26
sa(dp27
g2
S'44484'
p28
sg4
S'2108'
p29
sg6
S'3e75235ed7f9078e48e92ae1fa7805a1'
p30
sg8
S'xxaf05972895ad4f3307c059252dc9e5a8'
p31
sg10
S'xx4d04f18e8730057e726a2b4b63ea4556'
p32
sg12
S'xx141ca1830ef0faa5abb76761a9c32eb7'
p33
sg14
S'Mozilla/5.0 (Linux; Android 5.1.1; E6883 Build/32.0.A.6.209) AppleWebKit/537.36 (KHTML, like Gecko) Version/4.0 Chrome/37.0.0.0 Mobile MQQBrowser/6.8 TBS/036849 Safari/537.36 MicroMessenger/6.3.27.880 NetType/WIFI Language/zh_CN'
p34
sg16
S'4bb08b60a8ee8cfd645a48960964865b'
p35
sa(dp36
g2
S'44484'
p37
sg4
S'2121'
p38
sg6
S'3e75235ed7f9078e48e92ae1fa7805a1'
p39
sg8
S'xxaf05972895ad4f3307c059252dc9e5a8'
p40
sg10
S'xx4d04f18e8730057e726a2b4b63ea4556'
p41
sg12
S'xx141ca1830ef0faa5abb76761a9c32eb7'
p42
sg14
S'Mozilla/5.0 (Linux; Android 5.1.1; E6883 Build/32.0.A.6.209) AppleWebKit/537.36 (KHTML, like Gecko) Version/4.0 Chrome/37.0.0.0 Mobile MQQBrowser/6.8 TBS/036849 Safari/537.36 MicroMessenger/6.3.27.880 NetType/WIFI Language/zh_CN'
p43
sg16
S'4bb08b60a8ee8cfd645a48960964865b'
p44
sa.