(lp0
(dp1
S'user_id'
p2
S'41543'
p3
sS'data_id'
p4
S'5602'
p5
sS'ip'
p6
S'f68b84c369cd31b3c5ccd9b154fbe8e4'
p7
sS'phone_B'
p8
S'xx0c2687ab5eb2a51eb2ad42d1a2350ced'
p9
sS'phone_C'
p10
S'xx7b095e7288d4e18b0040f72dda7e33b0'
p11
sS'phone_A'
p12
S'xx15f8a82015ca2f6a317e811bddf087bc'
p13
sS'user_agent'
p14
S'Mozilla/5.0 (Linux; Android 5.0; SM-N9005 Build/LRX21V) AppleWebKit/537.36 (KHTML, like Gecko) Version/4.0 Chrome/37.0.0.0 Mobile MQQBrowser/6.8 TBS/036849 Safari/537.36 MicroMessenger/6.3.27.880 NetType/WIFI Language/zh_CN'
p15
sS'ua'
p16
S'f2c6111b5e16493ae2a7e63b77c33a8d'
p17
sa(dp18
g2
S'41543'
p19
sg4
S'5616'
p20
sg6
S'f68b84c369cd31b3c5ccd9b154fbe8e4'
p21
sg8
S'xx0c2687ab5eb2a51eb2ad42d1a2350ced'
p22
sg10
S'xx7b095e7288d4e18b0040f72dda7e33b0'
p23
sg12
S'xx15f8a82015ca2f6a317e811bddf087bc'
p24
sg14
S'Mozilla/5.0 (Linux; Android 5.0; SM-N9005 Build/LRX21V) AppleWebKit/537.36 (KHTML, like Gecko) Version/4.0 Chrome/37.0.0.0 Mobile MQQBrowser/6.8 TBS/036849 Safari/537.36 MicroMessenger/6.3.27.880 NetType/WIFI Language/zh_CN'
p25
sg16
S'f2c6111b5e16493ae2a7e63b77c33a8d'
p26
sa(dp27
g2
S'41543'
p28
sg4
S'5666'
p29
sg6
S'f68b84c369cd31b3c5ccd9b154fbe8e4'
p30
sg8
S'xx0c2687ab5eb2a51eb2ad42d1a2350ced'
p31
sg10
S'xx7b095e7288d4e18b0040f72dda7e33b0'
p32
sg12
S'xx15f8a82015ca2f6a317e811bddf087bc'
p33
sg14
S'Mozilla/5.0 (Linux; Android 5.0; SM-N9005 Build/LRX21V) AppleWebKit/537.36 (KHTML, like Gecko) Version/4.0 Chrome/37.0.0.0 Mobile MQQBrowser/6.8 TBS/036849 Safari/537.36 MicroMessenger/6.3.27.880 NetType/WIFI Language/zh_CN'
p34
sg16
S'f2c6111b5e16493ae2a7e63b77c33a8d'
p35
sa(dp36
g2
S'41543'
p37
sg4
S'5682'
p38
sg6
S'f68b84c369cd31b3c5ccd9b154fbe8e4'
p39
sg8
S'xx0c2687ab5eb2a51eb2ad42d1a2350ced'
p40
sg10
S'xx7b095e7288d4e18b0040f72dda7e33b0'
p41
sg12
S'xx15f8a82015ca2f6a317e811bddf087bc'
p42
sg14
S'Mozilla/5.0 (Linux; Android 5.0; SM-N9005 Build/LRX21V) AppleWebKit/537.36 (KHTML, like Gecko) Version/4.0 Chrome/37.0.0.0 Mobile MQQBrowser/6.8 TBS/036849 Safari/537.36 MicroMessenger/6.3.27.880 NetType/WIFI Language/zh_CN'
p43
sg16
S'f2c6111b5e16493ae2a7e63b77c33a8d'
p44
sa(dp45
g2
S'41543'
p46
sg4
S'5698'
p47
sg6
S'f68b84c369cd31b3c5ccd9b154fbe8e4'
p48
sg8
S'xx0c2687ab5eb2a51eb2ad42d1a2350ced'
p49
sg10
S'xx7b095e7288d4e18b0040f72dda7e33b0'
p50
sg12
S'xx15f8a82015ca2f6a317e811bddf087bc'
p51
sg14
S'Mozilla/5.0 (Linux; Android 5.0; SM-N9005 Build/LRX21V) AppleWebKit/537.36 (KHTML, like Gecko) Version/4.0 Chrome/37.0.0.0 Mobile MQQBrowser/6.8 TBS/036849 Safari/537.36 MicroMessenger/6.3.27.880 NetType/WIFI Language/zh_CN'
p52
sg16
S'f2c6111b5e16493ae2a7e63b77c33a8d'
p53
sa(dp54
g2
S'41543'
p55
sg4
S'5716'
p56
sg6
S'f68b84c369cd31b3c5ccd9b154fbe8e4'
p57
sg8
S'xx0c2687ab5eb2a51eb2ad42d1a2350ced'
p58
sg10
S'xx7b095e7288d4e18b0040f72dda7e33b0'
p59
sg12
S'xx15f8a82015ca2f6a317e811bddf087bc'
p60
sg14
S'Mozilla/5.0 (Linux; Android 5.0; SM-N9005 Build/LRX21V) AppleWebKit/537.36 (KHTML, like Gecko) Version/4.0 Chrome/37.0.0.0 Mobile MQQBrowser/6.8 TBS/036849 Safari/537.36 MicroMessenger/6.3.27.880 NetType/WIFI Language/zh_CN'
p61
sg16
S'f2c6111b5e16493ae2a7e63b77c33a8d'
p62
sa(dp63
g2
S'41543'
p64
sg4
S'5732'
p65
sg6
S'f68b84c369cd31b3c5ccd9b154fbe8e4'
p66
sg8
S'xx0c2687ab5eb2a51eb2ad42d1a2350ced'
p67
sg10
S'xx7b095e7288d4e18b0040f72dda7e33b0'
p68
sg12
S'xx15f8a82015ca2f6a317e811bddf087bc'
p69
sg14
S'Mozilla/5.0 (Linux; Android 5.0; SM-N9005 Build/LRX21V) AppleWebKit/537.36 (KHTML, like Gecko) Version/4.0 Chrome/37.0.0.0 Mobile MQQBrowser/6.8 TBS/036849 Safari/537.36 MicroMessenger/6.3.27.880 NetType/WIFI Language/zh_CN'
p70
sg16
S'f2c6111b5e16493ae2a7e63b77c33a8d'
p71
sa(dp72
g2
S'41543'
p73
sg4
S'5750'
p74
sg6
S'f68b84c369cd31b3c5ccd9b154fbe8e4'
p75
sg8
S'xx0c2687ab5eb2a51eb2ad42d1a2350ced'
p76
sg10
S'xx7b095e7288d4e18b0040f72dda7e33b0'
p77
sg12
S'xx15f8a82015ca2f6a317e811bddf087bc'
p78
sg14
S'Mozilla/5.0 (Linux; Android 5.0; SM-N9005 Build/LRX21V) AppleWebKit/537.36 (KHTML, like Gecko) Version/4.0 Chrome/37.0.0.0 Mobile MQQBrowser/6.8 TBS/036849 Safari/537.36 MicroMessenger/6.3.27.880 NetType/WIFI Language/zh_CN'
p79
sg16
S'f2c6111b5e16493ae2a7e63b77c33a8d'
p80
sa(dp81
g2
S'41543'
p82
sg4
S'5770'
p83
sg6
S'f68b84c369cd31b3c5ccd9b154fbe8e4'
p84
sg8
S'xx0c2687ab5eb2a51eb2ad42d1a2350ced'
p85
sg10
S'xx7b095e7288d4e18b0040f72dda7e33b0'
p86
sg12
S'xx15f8a82015ca2f6a317e811bddf087bc'
p87
sg14
S'Mozilla/5.0 (Linux; Android 5.0; SM-N9005 Build/LRX21V) AppleWebKit/537.36 (KHTML, like Gecko) Version/4.0 Chrome/37.0.0.0 Mobile MQQBrowser/6.8 TBS/036849 Safari/537.36 MicroMessenger/6.3.27.880 NetType/WIFI Language/zh_CN'
p88
sg16
S'f2c6111b5e16493ae2a7e63b77c33a8d'
p89
sa(dp90
g2
S'41543'
p91
sg4
S'7301'
p92
sg6
S'f68b84c369cd31b3c5ccd9b154fbe8e4'
p93
sg8
S'xx0c2687ab5eb2a51eb2ad42d1a2350ced'
p94
sg10
S'xx7b095e7288d4e18b0040f72dda7e33b0'
p95
sg12
S'xx15f8a82015ca2f6a317e811bddf087bc'
p96
sg14
S'Mozilla/5.0 (Linux; Android 5.0; SM-N9005 Build/LRX21V) AppleWebKit/537.36 (KHTML, like Gecko) Version/4.0 Chrome/37.0.0.0 Mobile MQQBrowser/6.8 TBS/036849 Safari/537.36 MicroMessenger/6.3.27.880 NetType/WIFI Language/zh_CN'
p97
sg16
S'f2c6111b5e16493ae2a7e63b77c33a8d'
p98
sa(dp99
g2
S'41543'
p100
sg4
S'7316'
p101
sg6
S'f68b84c369cd31b3c5ccd9b154fbe8e4'
p102
sg8
S'xx0c2687ab5eb2a51eb2ad42d1a2350ced'
p103
sg10
S'xx7b095e7288d4e18b0040f72dda7e33b0'
p104
sg12
S'xx15f8a82015ca2f6a317e811bddf087bc'
p105
sg14
S'Mozilla/5.0 (Linux; Android 5.0; SM-N9005 Build/LRX21V) AppleWebKit/537.36 (KHTML, like Gecko) Version/4.0 Chrome/37.0.0.0 Mobile MQQBrowser/6.8 TBS/036849 Safari/537.36 MicroMessenger/6.3.27.880 NetType/WIFI Language/zh_CN'
p106
sg16
S'f2c6111b5e16493ae2a7e63b77c33a8d'
p107
sa(dp108
g2
S'41543'
p109
sg4
S'7340'
p110
sg6
S'f68b84c369cd31b3c5ccd9b154fbe8e4'
p111
sg8
S'xx0c2687ab5eb2a51eb2ad42d1a2350ced'
p112
sg10
S'xx7b095e7288d4e18b0040f72dda7e33b0'
p113
sg12
S'xx15f8a82015ca2f6a317e811bddf087bc'
p114
sg14
S'Mozilla/5.0 (Linux; Android 5.0; SM-N9005 Build/LRX21V) AppleWebKit/537.36 (KHTML, like Gecko) Version/4.0 Chrome/37.0.0.0 Mobile MQQBrowser/6.8 TBS/036849 Safari/537.36 MicroMessenger/6.3.27.880 NetType/WIFI Language/zh_CN'
p115
sg16
S'f2c6111b5e16493ae2a7e63b77c33a8d'
p116
sa(dp117
g2
S'41543'
p118
sg4
S'7353'
p119
sg6
S'f68b84c369cd31b3c5ccd9b154fbe8e4'
p120
sg8
S'xx0c2687ab5eb2a51eb2ad42d1a2350ced'
p121
sg10
S'xx7b095e7288d4e18b0040f72dda7e33b0'
p122
sg12
S'xx15f8a82015ca2f6a317e811bddf087bc'
p123
sg14
S'Mozilla/5.0 (Linux; Android 5.0; SM-N9005 Build/LRX21V) AppleWebKit/537.36 (KHTML, like Gecko) Version/4.0 Chrome/37.0.0.0 Mobile MQQBrowser/6.8 TBS/036849 Safari/537.36 MicroMessenger/6.3.27.880 NetType/WIFI Language/zh_CN'
p124
sg16
S'f2c6111b5e16493ae2a7e63b77c33a8d'
p125
sa(dp126
g2
S'41543'
p127
sg4
S'7369'
p128
sg6
S'f68b84c369cd31b3c5ccd9b154fbe8e4'
p129
sg8
S'xx0c2687ab5eb2a51eb2ad42d1a2350ced'
p130
sg10
S'xx7b095e7288d4e18b0040f72dda7e33b0'
p131
sg12
S'xx15f8a82015ca2f6a317e811bddf087bc'
p132
sg14
S'Mozilla/5.0 (Linux; Android 5.0; SM-N9005 Build/LRX21V) AppleWebKit/537.36 (KHTML, like Gecko) Version/4.0 Chrome/37.0.0.0 Mobile MQQBrowser/6.8 TBS/036849 Safari/537.36 MicroMessenger/6.3.27.880 NetType/WIFI Language/zh_CN'
p133
sg16
S'f2c6111b5e16493ae2a7e63b77c33a8d'
p134
sa(dp135
g2
S'41543'
p136
sg4
S'7385'
p137
sg6
S'f68b84c369cd31b3c5ccd9b154fbe8e4'
p138
sg8
S'xx0c2687ab5eb2a51eb2ad42d1a2350ced'
p139
sg10
S'xx7b095e7288d4e18b0040f72dda7e33b0'
p140
sg12
S'xx15f8a82015ca2f6a317e811bddf087bc'
p141
sg14
S'Mozilla/5.0 (Linux; Android 5.0; SM-N9005 Build/LRX21V) AppleWebKit/537.36 (KHTML, like Gecko) Version/4.0 Chrome/37.0.0.0 Mobile MQQBrowser/6.8 TBS/036849 Safari/537.36 MicroMessenger/6.3.27.880 NetType/WIFI Language/zh_CN'
p142
sg16
S'f2c6111b5e16493ae2a7e63b77c33a8d'
p143
sa(dp144
g2
S'41543'
p145
sg4
S'7397'
p146
sg6
S'f68b84c369cd31b3c5ccd9b154fbe8e4'
p147
sg8
S'xx0c2687ab5eb2a51eb2ad42d1a2350ced'
p148
sg10
S'xx7b095e7288d4e18b0040f72dda7e33b0'
p149
sg12
S'xx15f8a82015ca2f6a317e811bddf087bc'
p150
sg14
S'Mozilla/5.0 (Linux; Android 5.0; SM-N9005 Build/LRX21V) AppleWebKit/537.36 (KHTML, like Gecko) Version/4.0 Chrome/37.0.0.0 Mobile MQQBrowser/6.8 TBS/036849 Safari/537.36 MicroMessenger/6.3.27.880 NetType/WIFI Language/zh_CN'
p151
sg16
S'f2c6111b5e16493ae2a7e63b77c33a8d'
p152
sa(dp153
g2
S'41543'
p154
sg4
S'7412'
p155
sg6
S'f68b84c369cd31b3c5ccd9b154fbe8e4'
p156
sg8
S'xx0c2687ab5eb2a51eb2ad42d1a2350ced'
p157
sg10
S'xx7b095e7288d4e18b0040f72dda7e33b0'
p158
sg12
S'xx15f8a82015ca2f6a317e811bddf087bc'
p159
sg14
S'Mozilla/5.0 (Linux; Android 5.0; SM-N9005 Build/LRX21V) AppleWebKit/537.36 (KHTML, like Gecko) Version/4.0 Chrome/37.0.0.0 Mobile MQQBrowser/6.8 TBS/036849 Safari/537.36 MicroMessenger/6.3.27.880 NetType/WIFI Language/zh_CN'
p160
sg16
S'f2c6111b5e16493ae2a7e63b77c33a8d'
p161
sa(dp162
g2
S'41543'
p163
sg4
S'7429'
p164
sg6
S'f68b84c369cd31b3c5ccd9b154fbe8e4'
p165
sg8
S'xx0c2687ab5eb2a51eb2ad42d1a2350ced'
p166
sg10
S'xx7b095e7288d4e18b0040f72dda7e33b0'
p167
sg12
S'xx15f8a82015ca2f6a317e811bddf087bc'
p168
sg14
S'Mozilla/5.0 (Linux; Android 5.0; SM-N9005 Build/LRX21V) AppleWebKit/537.36 (KHTML, like Gecko) Version/4.0 Chrome/37.0.0.0 Mobile MQQBrowser/6.8 TBS/036849 Safari/537.36 MicroMessenger/6.3.27.880 NetType/WIFI Language/zh_CN'
p169
sg16
S'f2c6111b5e16493ae2a7e63b77c33a8d'
p170
sa(dp171
g2
S'41543'
p172
sg4
S'7442'
p173
sg6
S'f68b84c369cd31b3c5ccd9b154fbe8e4'
p174
sg8
S'xx0c2687ab5eb2a51eb2ad42d1a2350ced'
p175
sg10
S'xx7b095e7288d4e18b0040f72dda7e33b0'
p176
sg12
S'xx15f8a82015ca2f6a317e811bddf087bc'
p177
sg14
S'Mozilla/5.0 (Linux; Android 5.0; SM-N9005 Build/LRX21V) AppleWebKit/537.36 (KHTML, like Gecko) Version/4.0 Chrome/37.0.0.0 Mobile MQQBrowser/6.8 TBS/036849 Safari/537.36 MicroMessenger/6.3.27.880 NetType/WIFI Language/zh_CN'
p178
sg16
S'f2c6111b5e16493ae2a7e63b77c33a8d'
p179
sa(dp180
g2
S'41543'
p181
sg4
S'7700'
p182
sg6
S'f68b84c369cd31b3c5ccd9b154fbe8e4'
p183
sg8
S'xx0c2687ab5eb2a51eb2ad42d1a2350ced'
p184
sg10
S'xx7b095e7288d4e18b0040f72dda7e33b0'
p185
sg12
S'xx15f8a82015ca2f6a317e811bddf087bc'
p186
sg14
S'Mozilla/5.0 (Linux; Android 5.0; SM-N9005 Build/LRX21V) AppleWebKit/537.36 (KHTML, like Gecko) Version/4.0 Chrome/37.0.0.0 Mobile MQQBrowser/6.8 TBS/036849 Safari/537.36 MicroMessenger/6.3.27.880 NetType/WIFI Language/zh_CN'
p187
sg16
S'f2c6111b5e16493ae2a7e63b77c33a8d'
p188
sa(dp189
g2
S'41543'
p190
sg4
S'7710'
p191
sg6
S'f68b84c369cd31b3c5ccd9b154fbe8e4'
p192
sg8
S'xx0c2687ab5eb2a51eb2ad42d1a2350ced'
p193
sg10
S'xx7b095e7288d4e18b0040f72dda7e33b0'
p194
sg12
S'xx15f8a82015ca2f6a317e811bddf087bc'
p195
sg14
S'Mozilla/5.0 (Linux; Android 5.0; SM-N9005 Build/LRX21V) AppleWebKit/537.36 (KHTML, like Gecko) Version/4.0 Chrome/37.0.0.0 Mobile MQQBrowser/6.8 TBS/036849 Safari/537.36 MicroMessenger/6.3.27.880 NetType/WIFI Language/zh_CN'
p196
sg16
S'f2c6111b5e16493ae2a7e63b77c33a8d'
p197
sa(dp198
g2
S'41543'
p199
sg4
S'7725'
p200
sg6
S'f68b84c369cd31b3c5ccd9b154fbe8e4'
p201
sg8
S'xx0c2687ab5eb2a51eb2ad42d1a2350ced'
p202
sg10
S'xx7b095e7288d4e18b0040f72dda7e33b0'
p203
sg12
S'xx15f8a82015ca2f6a317e811bddf087bc'
p204
sg14
S'Mozilla/5.0 (Linux; Android 5.0; SM-N9005 Build/LRX21V) AppleWebKit/537.36 (KHTML, like Gecko) Version/4.0 Chrome/37.0.0.0 Mobile MQQBrowser/6.8 TBS/036849 Safari/537.36 MicroMessenger/6.3.27.880 NetType/WIFI Language/zh_CN'
p205
sg16
S'f2c6111b5e16493ae2a7e63b77c33a8d'
p206
sa(dp207
g2
S'41543'
p208
sg4
S'7737'
p209
sg6
S'f68b84c369cd31b3c5ccd9b154fbe8e4'
p210
sg8
S'xx0c2687ab5eb2a51eb2ad42d1a2350ced'
p211
sg10
S'xx7b095e7288d4e18b0040f72dda7e33b0'
p212
sg12
S'xx15f8a82015ca2f6a317e811bddf087bc'
p213
sg14
S'Mozilla/5.0 (Linux; Android 5.0; SM-N9005 Build/LRX21V) AppleWebKit/537.36 (KHTML, like Gecko) Version/4.0 Chrome/37.0.0.0 Mobile MQQBrowser/6.8 TBS/036849 Safari/537.36 MicroMessenger/6.3.27.880 NetType/WIFI Language/zh_CN'
p214
sg16
S'f2c6111b5e16493ae2a7e63b77c33a8d'
p215
sa.