(lp0
(dp1
S'user_id'
p2
S'25348'
p3
sS'data_id'
p4
S'3023'
p5
sS'ip'
p6
S'894a62fcd24b2a024a70abb567bc9715'
p7
sS'phone_B'
p8
S'xxa5be0abb1d815f712feb54472b7dacf2'
p9
sS'phone_C'
p10
S'xx3417c7be6ed4ed29ac36c19ae41bf617'
p11
sS'phone_A'
p12
S'xx17b82d6c61e929902f036159b4a5af70'
p13
sS'user_agent'
p14
S'Mozilla/5.0 (Linux; Android 6.0.1; SM-G9350 Build/MMB29M) AppleWebKit/537.36 (KHTML, like Gecko) Version/4.0 Chrome/37.0.0.0 Mobile MQQBrowser/6.8 TBS/036869 Safari/537.36 MicroMessenger/6.3.27.880 NetType/WIFI Language/zh_CN'
p15
sS'ua'
p16
S'0345e4f2aa5350ca57722650bcc00dc0'
p17
sa(dp18
g2
S'25348'
p19
sg4
S'3040'
p20
sg6
S'894a62fcd24b2a024a70abb567bc9715'
p21
sg8
S'xxa5be0abb1d815f712feb54472b7dacf2'
p22
sg10
S'xx3417c7be6ed4ed29ac36c19ae41bf617'
p23
sg12
S'xx17b82d6c61e929902f036159b4a5af70'
p24
sg14
S'Mozilla/5.0 (Linux; Android 6.0.1; SM-G9350 Build/MMB29M) AppleWebKit/537.36 (KHTML, like Gecko) Version/4.0 Chrome/37.0.0.0 Mobile MQQBrowser/6.8 TBS/036869 Safari/537.36 MicroMessenger/6.3.27.880 NetType/WIFI Language/zh_CN'
p25
sg16
S'0345e4f2aa5350ca57722650bcc00dc0'
p26
sa(dp27
g2
S'49826'
p28
sg4
S'7120'
p29
sg6
S'a7cee6a1b71b0f0ab4f07a5a74b77cad'
p30
sg8
S'xxa2cbf85629206d5460d2a32aaf874edb'
p31
sg10
S'xx3417c7be6ed4ed29ac36c19ae41bf617'
p32
sg12
S'xx17b82d6c61e929902f036159b4a5af70'
p33
sg14
S'Mozilla/5.0 (Linux; Android 6.0.1; SM-G9350 Build/MMB29M) AppleWebKit/537.36 (KHTML, like Gecko) Version/4.0 Chrome/37.0.0.0 Mobile MQQBrowser/6.8 TBS/036849 Safari/537.36 MicroMessenger/6.3.25.861 NetType/3gnet Language/zh_CN'
p34
sg16
S'871ffb584d84b9f57f0b4bb99e604600'
p35
sa(dp36
g2
S'49826'
p37
sg4
S'7132'
p38
sg6
S'a7cee6a1b71b0f0ab4f07a5a74b77cad'
p39
sg8
S'xxa2cbf85629206d5460d2a32aaf874edb'
p40
sg10
S'xx3417c7be6ed4ed29ac36c19ae41bf617'
p41
sg12
S'xx17b82d6c61e929902f036159b4a5af70'
p42
sg14
S'Mozilla/5.0 (Linux; Android 6.0.1; SM-G9350 Build/MMB29M) AppleWebKit/537.36 (KHTML, like Gecko) Version/4.0 Chrome/37.0.0.0 Mobile MQQBrowser/6.8 TBS/036849 Safari/537.36 MicroMessenger/6.3.25.861 NetType/3gnet Language/zh_CN'
p43
sg16
S'871ffb584d84b9f57f0b4bb99e604600'
p44
sa.