(lp0
(dp1
S'user_id'
p2
S'49746'
p3
sS'data_id'
p4
S'861'
p5
sS'ip'
p6
S'5b48c78089c6f21a864d9e71cbaf0c9d'
p7
sS'phone_B'
p8
S'xxe42c94797d8674c09306267e026d5c6e'
p9
sS'phone_C'
p10
S'xx99f2280f3d56f053fd1eebfbc329045b'
p11
sS'phone_A'
p12
S'xx18ad48f836bd8e077b9cafa0bf18f4e8'
p13
sS'user_agent'
p14
S'Mozilla/5.0 (Linux; Android 5.1.1; ZTE N939Sc Build/LMY47V) AppleWebKit/537.36 (KHTML, like Gecko) Version/4.0 Chrome/37.0.0.0 Mobile MQQBrowser/6.8 TBS/036849 Safari/537.36 MicroMessenger/6.3.27.880 NetType/WIFI Language/zh_CN'
p15
sS'ua'
p16
S'5e1de14f13933c22c5298bb0d85ce37a'
p17
sa(dp18
g2
S'49746'
p19
sg4
S'881'
p20
sg6
S'5b48c78089c6f21a864d9e71cbaf0c9d'
p21
sg8
S'xxe42c94797d8674c09306267e026d5c6e'
p22
sg10
S'xx99f2280f3d56f053fd1eebfbc329045b'
p23
sg12
S'xx18ad48f836bd8e077b9cafa0bf18f4e8'
p24
sg14
S'Mozilla/5.0 (Linux; Android 5.1.1; ZTE N939Sc Build/LMY47V) AppleWebKit/537.36 (KHTML, like Gecko) Version/4.0 Chrome/37.0.0.0 Mobile MQQBrowser/6.8 TBS/036849 Safari/537.36 MicroMessenger/6.3.27.880 NetType/WIFI Language/zh_CN'
p25
sg16
S'5e1de14f13933c22c5298bb0d85ce37a'
p26
sa(dp27
g2
S'49746'
p28
sg4
S'899'
p29
sg6
S'5b48c78089c6f21a864d9e71cbaf0c9d'
p30
sg8
S'xxe42c94797d8674c09306267e026d5c6e'
p31
sg10
S'xx99f2280f3d56f053fd1eebfbc329045b'
p32
sg12
S'xx18ad48f836bd8e077b9cafa0bf18f4e8'
p33
sg14
S'Mozilla/5.0 (Linux; Android 5.1.1; ZTE N939Sc Build/LMY47V) AppleWebKit/537.36 (KHTML, like Gecko) Version/4.0 Chrome/37.0.0.0 Mobile MQQBrowser/6.8 TBS/036849 Safari/537.36 MicroMessenger/6.3.27.880 NetType/WIFI Language/zh_CN'
p34
sg16
S'5e1de14f13933c22c5298bb0d85ce37a'
p35
sa(dp36
g2
S'49746'
p37
sg4
S'940'
p38
sg6
S'5b48c78089c6f21a864d9e71cbaf0c9d'
p39
sg8
S'xxe42c94797d8674c09306267e026d5c6e'
p40
sg10
S'xx99f2280f3d56f053fd1eebfbc329045b'
p41
sg12
S'xx18ad48f836bd8e077b9cafa0bf18f4e8'
p42
sg14
S'Mozilla/5.0 (Linux; Android 5.1.1; ZTE N939Sc Build/LMY47V) AppleWebKit/537.36 (KHTML, like Gecko) Version/4.0 Chrome/37.0.0.0 Mobile MQQBrowser/6.8 TBS/036849 Safari/537.36 MicroMessenger/6.3.27.880 NetType/WIFI Language/zh_CN'
p43
sg16
S'5e1de14f13933c22c5298bb0d85ce37a'
p44
sa(dp45
g2
S'49746'
p46
sg4
S'956'
p47
sg6
S'5b48c78089c6f21a864d9e71cbaf0c9d'
p48
sg8
S'xxe42c94797d8674c09306267e026d5c6e'
p49
sg10
S'xx99f2280f3d56f053fd1eebfbc329045b'
p50
sg12
S'xx18ad48f836bd8e077b9cafa0bf18f4e8'
p51
sg14
S'Mozilla/5.0 (Linux; Android 5.1.1; ZTE N939Sc Build/LMY47V) AppleWebKit/537.36 (KHTML, like Gecko) Version/4.0 Chrome/37.0.0.0 Mobile MQQBrowser/6.8 TBS/036849 Safari/537.36 MicroMessenger/6.3.27.880 NetType/WIFI Language/zh_CN'
p52
sg16
S'5e1de14f13933c22c5298bb0d85ce37a'
p53
sa(dp54
g2
S'49746'
p55
sg4
S'971'
p56
sg6
S'5b48c78089c6f21a864d9e71cbaf0c9d'
p57
sg8
S'xxe42c94797d8674c09306267e026d5c6e'
p58
sg10
S'xx99f2280f3d56f053fd1eebfbc329045b'
p59
sg12
S'xx18ad48f836bd8e077b9cafa0bf18f4e8'
p60
sg14
S'Mozilla/5.0 (Linux; Android 5.1.1; ZTE N939Sc Build/LMY47V) AppleWebKit/537.36 (KHTML, like Gecko) Version/4.0 Chrome/37.0.0.0 Mobile MQQBrowser/6.8 TBS/036849 Safari/537.36 MicroMessenger/6.3.27.880 NetType/WIFI Language/zh_CN'
p61
sg16
S'5e1de14f13933c22c5298bb0d85ce37a'
p62
sa(dp63
g2
S'49746'
p64
sg4
S'1001'
p65
sg6
S'5b48c78089c6f21a864d9e71cbaf0c9d'
p66
sg8
S'xxe42c94797d8674c09306267e026d5c6e'
p67
sg10
S'xx99f2280f3d56f053fd1eebfbc329045b'
p68
sg12
S'xx18ad48f836bd8e077b9cafa0bf18f4e8'
p69
sg14
S'Mozilla/5.0 (Linux; Android 5.1.1; ZTE N939Sc Build/LMY47V) AppleWebKit/537.36 (KHTML, like Gecko) Version/4.0 Chrome/37.0.0.0 Mobile MQQBrowser/6.8 TBS/036849 Safari/537.36 MicroMessenger/6.3.27.880 NetType/WIFI Language/zh_CN'
p70
sg16
S'5e1de14f13933c22c5298bb0d85ce37a'
p71
sa(dp72
g2
S'49746'
p73
sg4
S'1015'
p74
sg6
S'5b48c78089c6f21a864d9e71cbaf0c9d'
p75
sg8
S'xxe42c94797d8674c09306267e026d5c6e'
p76
sg10
S'xx99f2280f3d56f053fd1eebfbc329045b'
p77
sg12
S'xx18ad48f836bd8e077b9cafa0bf18f4e8'
p78
sg14
S'Mozilla/5.0 (Linux; Android 5.1.1; ZTE N939Sc Build/LMY47V) AppleWebKit/537.36 (KHTML, like Gecko) Version/4.0 Chrome/37.0.0.0 Mobile MQQBrowser/6.8 TBS/036849 Safari/537.36 MicroMessenger/6.3.27.880 NetType/WIFI Language/zh_CN'
p79
sg16
S'5e1de14f13933c22c5298bb0d85ce37a'
p80
sa(dp81
g2
S'49746'
p82
sg4
S'1028'
p83
sg6
S'5b48c78089c6f21a864d9e71cbaf0c9d'
p84
sg8
S'xxe42c94797d8674c09306267e026d5c6e'
p85
sg10
S'xx99f2280f3d56f053fd1eebfbc329045b'
p86
sg12
S'xx18ad48f836bd8e077b9cafa0bf18f4e8'
p87
sg14
S'Mozilla/5.0 (Linux; Android 5.1.1; ZTE N939Sc Build/LMY47V) AppleWebKit/537.36 (KHTML, like Gecko) Version/4.0 Chrome/37.0.0.0 Mobile MQQBrowser/6.8 TBS/036849 Safari/537.36 MicroMessenger/6.3.27.880 NetType/WIFI Language/zh_CN'
p88
sg16
S'5e1de14f13933c22c5298bb0d85ce37a'
p89
sa(dp90
g2
S'49746'
p91
sg4
S'1044'
p92
sg6
S'5b48c78089c6f21a864d9e71cbaf0c9d'
p93
sg8
S'xxe42c94797d8674c09306267e026d5c6e'
p94
sg10
S'xx99f2280f3d56f053fd1eebfbc329045b'
p95
sg12
S'xx18ad48f836bd8e077b9cafa0bf18f4e8'
p96
sg14
S'Mozilla/5.0 (Linux; Android 5.1.1; ZTE N939Sc Build/LMY47V) AppleWebKit/537.36 (KHTML, like Gecko) Version/4.0 Chrome/37.0.0.0 Mobile MQQBrowser/6.8 TBS/036849 Safari/537.36 MicroMessenger/6.3.27.880 NetType/WIFI Language/zh_CN'
p97
sg16
S'5e1de14f13933c22c5298bb0d85ce37a'
p98
sa(dp99
g2
S'49746'
p100
sg4
S'1064'
p101
sg6
S'5b48c78089c6f21a864d9e71cbaf0c9d'
p102
sg8
S'xxe42c94797d8674c09306267e026d5c6e'
p103
sg10
S'xx99f2280f3d56f053fd1eebfbc329045b'
p104
sg12
S'xx18ad48f836bd8e077b9cafa0bf18f4e8'
p105
sg14
S'Mozilla/5.0 (Linux; Android 5.1.1; ZTE N939Sc Build/LMY47V) AppleWebKit/537.36 (KHTML, like Gecko) Version/4.0 Chrome/37.0.0.0 Mobile MQQBrowser/6.8 TBS/036849 Safari/537.36 MicroMessenger/6.3.27.880 NetType/WIFI Language/zh_CN'
p106
sg16
S'5e1de14f13933c22c5298bb0d85ce37a'
p107
sa(dp108
g2
S'49746'
p109
sg4
S'1079'
p110
sg6
S'5b48c78089c6f21a864d9e71cbaf0c9d'
p111
sg8
S'xxe42c94797d8674c09306267e026d5c6e'
p112
sg10
S'xx99f2280f3d56f053fd1eebfbc329045b'
p113
sg12
S'xx18ad48f836bd8e077b9cafa0bf18f4e8'
p114
sg14
S'Mozilla/5.0 (Linux; Android 5.1.1; ZTE N939Sc Build/LMY47V) AppleWebKit/537.36 (KHTML, like Gecko) Version/4.0 Chrome/37.0.0.0 Mobile MQQBrowser/6.8 TBS/036849 Safari/537.36 MicroMessenger/6.3.27.880 NetType/WIFI Language/zh_CN'
p115
sg16
S'5e1de14f13933c22c5298bb0d85ce37a'
p116
sa(dp117
g2
S'49746'
p118
sg4
S'1095'
p119
sg6
S'5b48c78089c6f21a864d9e71cbaf0c9d'
p120
sg8
S'xxe42c94797d8674c09306267e026d5c6e'
p121
sg10
S'xx99f2280f3d56f053fd1eebfbc329045b'
p122
sg12
S'xx18ad48f836bd8e077b9cafa0bf18f4e8'
p123
sg14
S'Mozilla/5.0 (Linux; Android 5.1.1; ZTE N939Sc Build/LMY47V) AppleWebKit/537.36 (KHTML, like Gecko) Version/4.0 Chrome/37.0.0.0 Mobile MQQBrowser/6.8 TBS/036849 Safari/537.36 MicroMessenger/6.3.27.880 NetType/WIFI Language/zh_CN'
p124
sg16
S'5e1de14f13933c22c5298bb0d85ce37a'
p125
sa(dp126
g2
S'49746'
p127
sg4
S'1121'
p128
sg6
S'5b48c78089c6f21a864d9e71cbaf0c9d'
p129
sg8
S'xxe42c94797d8674c09306267e026d5c6e'
p130
sg10
S'xx99f2280f3d56f053fd1eebfbc329045b'
p131
sg12
S'xx18ad48f836bd8e077b9cafa0bf18f4e8'
p132
sg14
S'Mozilla/5.0 (Linux; Android 5.1.1; ZTE N939Sc Build/LMY47V) AppleWebKit/537.36 (KHTML, like Gecko) Version/4.0 Chrome/37.0.0.0 Mobile MQQBrowser/6.8 TBS/036849 Safari/537.36 MicroMessenger/6.3.27.880 NetType/WIFI Language/zh_CN'
p133
sg16
S'5e1de14f13933c22c5298bb0d85ce37a'
p134
sa(dp135
g2
S'49746'
p136
sg4
S'1143'
p137
sg6
S'5b48c78089c6f21a864d9e71cbaf0c9d'
p138
sg8
S'xxe42c94797d8674c09306267e026d5c6e'
p139
sg10
S'xx99f2280f3d56f053fd1eebfbc329045b'
p140
sg12
S'xx18ad48f836bd8e077b9cafa0bf18f4e8'
p141
sg14
S'Mozilla/5.0 (Linux; Android 5.1.1; ZTE N939Sc Build/LMY47V) AppleWebKit/537.36 (KHTML, like Gecko) Version/4.0 Chrome/37.0.0.0 Mobile MQQBrowser/6.8 TBS/036849 Safari/537.36 MicroMessenger/6.3.27.880 NetType/WIFI Language/zh_CN'
p142
sg16
S'5e1de14f13933c22c5298bb0d85ce37a'
p143
sa(dp144
g2
S'49746'
p145
sg4
S'1164'
p146
sg6
S'5b48c78089c6f21a864d9e71cbaf0c9d'
p147
sg8
S'xxe42c94797d8674c09306267e026d5c6e'
p148
sg10
S'xx99f2280f3d56f053fd1eebfbc329045b'
p149
sg12
S'xx18ad48f836bd8e077b9cafa0bf18f4e8'
p150
sg14
S'Mozilla/5.0 (Linux; Android 5.1.1; ZTE N939Sc Build/LMY47V) AppleWebKit/537.36 (KHTML, like Gecko) Version/4.0 Chrome/37.0.0.0 Mobile MQQBrowser/6.8 TBS/036849 Safari/537.36 MicroMessenger/6.3.27.880 NetType/WIFI Language/zh_CN'
p151
sg16
S'5e1de14f13933c22c5298bb0d85ce37a'
p152
sa(dp153
g2
S'49746'
p154
sg4
S'1178'
p155
sg6
S'5b48c78089c6f21a864d9e71cbaf0c9d'
p156
sg8
S'xxe42c94797d8674c09306267e026d5c6e'
p157
sg10
S'xx99f2280f3d56f053fd1eebfbc329045b'
p158
sg12
S'xx18ad48f836bd8e077b9cafa0bf18f4e8'
p159
sg14
S'Mozilla/5.0 (Linux; Android 5.1.1; ZTE N939Sc Build/LMY47V) AppleWebKit/537.36 (KHTML, like Gecko) Version/4.0 Chrome/37.0.0.0 Mobile MQQBrowser/6.8 TBS/036849 Safari/537.36 MicroMessenger/6.3.27.880 NetType/WIFI Language/zh_CN'
p160
sg16
S'5e1de14f13933c22c5298bb0d85ce37a'
p161
sa(dp162
g2
S'49746'
p163
sg4
S'1216'
p164
sg6
S'5b48c78089c6f21a864d9e71cbaf0c9d'
p165
sg8
S'xxe42c94797d8674c09306267e026d5c6e'
p166
sg10
S'xx99f2280f3d56f053fd1eebfbc329045b'
p167
sg12
S'xx18ad48f836bd8e077b9cafa0bf18f4e8'
p168
sg14
S'Mozilla/5.0 (Linux; Android 5.1.1; ZTE N939Sc Build/LMY47V) AppleWebKit/537.36 (KHTML, like Gecko) Version/4.0 Chrome/37.0.0.0 Mobile MQQBrowser/6.8 TBS/036849 Safari/537.36 MicroMessenger/6.3.27.880 NetType/WIFI Language/zh_CN'
p169
sg16
S'5e1de14f13933c22c5298bb0d85ce37a'
p170
sa(dp171
g2
S'49746'
p172
sg4
S'1231'
p173
sg6
S'5b48c78089c6f21a864d9e71cbaf0c9d'
p174
sg8
S'xxe42c94797d8674c09306267e026d5c6e'
p175
sg10
S'xx99f2280f3d56f053fd1eebfbc329045b'
p176
sg12
S'xx18ad48f836bd8e077b9cafa0bf18f4e8'
p177
sg14
S'Mozilla/5.0 (Linux; Android 5.1.1; ZTE N939Sc Build/LMY47V) AppleWebKit/537.36 (KHTML, like Gecko) Version/4.0 Chrome/37.0.0.0 Mobile MQQBrowser/6.8 TBS/036849 Safari/537.36 MicroMessenger/6.3.27.880 NetType/WIFI Language/zh_CN'
p178
sg16
S'5e1de14f13933c22c5298bb0d85ce37a'
p179
sa(dp180
g2
S'49746'
p181
sg4
S'1246'
p182
sg6
S'5b48c78089c6f21a864d9e71cbaf0c9d'
p183
sg8
S'xxe42c94797d8674c09306267e026d5c6e'
p184
sg10
S'xx99f2280f3d56f053fd1eebfbc329045b'
p185
sg12
S'xx18ad48f836bd8e077b9cafa0bf18f4e8'
p186
sg14
S'Mozilla/5.0 (Linux; Android 5.1.1; ZTE N939Sc Build/LMY47V) AppleWebKit/537.36 (KHTML, like Gecko) Version/4.0 Chrome/37.0.0.0 Mobile MQQBrowser/6.8 TBS/036849 Safari/537.36 MicroMessenger/6.3.27.880 NetType/WIFI Language/zh_CN'
p187
sg16
S'5e1de14f13933c22c5298bb0d85ce37a'
p188
sa(dp189
g2
S'49746'
p190
sg4
S'1261'
p191
sg6
S'5b48c78089c6f21a864d9e71cbaf0c9d'
p192
sg8
S'xxe42c94797d8674c09306267e026d5c6e'
p193
sg10
S'xx99f2280f3d56f053fd1eebfbc329045b'
p194
sg12
S'xx18ad48f836bd8e077b9cafa0bf18f4e8'
p195
sg14
S'Mozilla/5.0 (Linux; Android 5.1.1; ZTE N939Sc Build/LMY47V) AppleWebKit/537.36 (KHTML, like Gecko) Version/4.0 Chrome/37.0.0.0 Mobile MQQBrowser/6.8 TBS/036849 Safari/537.36 MicroMessenger/6.3.27.880 NetType/WIFI Language/zh_CN'
p196
sg16
S'5e1de14f13933c22c5298bb0d85ce37a'
p197
sa(dp198
g2
S'49746'
p199
sg4
S'1276'
p200
sg6
S'5b48c78089c6f21a864d9e71cbaf0c9d'
p201
sg8
S'xxe42c94797d8674c09306267e026d5c6e'
p202
sg10
S'xx99f2280f3d56f053fd1eebfbc329045b'
p203
sg12
S'xx18ad48f836bd8e077b9cafa0bf18f4e8'
p204
sg14
S'Mozilla/5.0 (Linux; Android 5.1.1; ZTE N939Sc Build/LMY47V) AppleWebKit/537.36 (KHTML, like Gecko) Version/4.0 Chrome/37.0.0.0 Mobile MQQBrowser/6.8 TBS/036849 Safari/537.36 MicroMessenger/6.3.27.880 NetType/WIFI Language/zh_CN'
p205
sg16
S'5e1de14f13933c22c5298bb0d85ce37a'
p206
sa(dp207
g2
S'49746'
p208
sg4
S'1349'
p209
sg6
S'5b48c78089c6f21a864d9e71cbaf0c9d'
p210
sg8
S'xxe42c94797d8674c09306267e026d5c6e'
p211
sg10
S'xx99f2280f3d56f053fd1eebfbc329045b'
p212
sg12
S'xx18ad48f836bd8e077b9cafa0bf18f4e8'
p213
sg14
S'Mozilla/5.0 (Linux; Android 5.1.1; ZTE N939Sc Build/LMY47V) AppleWebKit/537.36 (KHTML, like Gecko) Version/4.0 Chrome/37.0.0.0 Mobile MQQBrowser/6.8 TBS/036849 Safari/537.36 MicroMessenger/6.3.27.880 NetType/WIFI Language/zh_CN'
p214
sg16
S'5e1de14f13933c22c5298bb0d85ce37a'
p215
sa(dp216
g2
S'49746'
p217
sg4
S'1353'
p218
sg6
S'5b48c78089c6f21a864d9e71cbaf0c9d'
p219
sg8
S'xxe42c94797d8674c09306267e026d5c6e'
p220
sg10
S'xx99f2280f3d56f053fd1eebfbc329045b'
p221
sg12
S'xx18ad48f836bd8e077b9cafa0bf18f4e8'
p222
sg14
S'Mozilla/5.0 (Linux; Android 5.1.1; ZTE N939Sc Build/LMY47V) AppleWebKit/537.36 (KHTML, like Gecko) Version/4.0 Chrome/37.0.0.0 Mobile MQQBrowser/6.8 TBS/036849 Safari/537.36 MicroMessenger/6.3.27.880 NetType/WIFI Language/zh_CN'
p223
sg16
S'5e1de14f13933c22c5298bb0d85ce37a'
p224
sa(dp225
g2
S'49746'
p226
sg4
S'1364'
p227
sg6
S'5b48c78089c6f21a864d9e71cbaf0c9d'
p228
sg8
S'xxe42c94797d8674c09306267e026d5c6e'
p229
sg10
S'xx99f2280f3d56f053fd1eebfbc329045b'
p230
sg12
S'xx18ad48f836bd8e077b9cafa0bf18f4e8'
p231
sg14
S'Mozilla/5.0 (Linux; Android 5.1.1; ZTE N939Sc Build/LMY47V) AppleWebKit/537.36 (KHTML, like Gecko) Version/4.0 Chrome/37.0.0.0 Mobile MQQBrowser/6.8 TBS/036849 Safari/537.36 MicroMessenger/6.3.27.880 NetType/WIFI Language/zh_CN'
p232
sg16
S'5e1de14f13933c22c5298bb0d85ce37a'
p233
sa(dp234
g2
S'49746'
p235
sg4
S'1375'
p236
sg6
S'5b48c78089c6f21a864d9e71cbaf0c9d'
p237
sg8
S'xxe42c94797d8674c09306267e026d5c6e'
p238
sg10
S'xx99f2280f3d56f053fd1eebfbc329045b'
p239
sg12
S'xx18ad48f836bd8e077b9cafa0bf18f4e8'
p240
sg14
S'Mozilla/5.0 (Linux; Android 5.1.1; ZTE N939Sc Build/LMY47V) AppleWebKit/537.36 (KHTML, like Gecko) Version/4.0 Chrome/37.0.0.0 Mobile MQQBrowser/6.8 TBS/036849 Safari/537.36 MicroMessenger/6.3.27.880 NetType/WIFI Language/zh_CN'
p241
sg16
S'5e1de14f13933c22c5298bb0d85ce37a'
p242
sa(dp243
g2
S'49746'
p244
sg4
S'1387'
p245
sg6
S'5b48c78089c6f21a864d9e71cbaf0c9d'
p246
sg8
S'xxe42c94797d8674c09306267e026d5c6e'
p247
sg10
S'xx99f2280f3d56f053fd1eebfbc329045b'
p248
sg12
S'xx18ad48f836bd8e077b9cafa0bf18f4e8'
p249
sg14
S'Mozilla/5.0 (Linux; Android 5.1.1; ZTE N939Sc Build/LMY47V) AppleWebKit/537.36 (KHTML, like Gecko) Version/4.0 Chrome/37.0.0.0 Mobile MQQBrowser/6.8 TBS/036849 Safari/537.36 MicroMessenger/6.3.27.880 NetType/WIFI Language/zh_CN'
p250
sg16
S'5e1de14f13933c22c5298bb0d85ce37a'
p251
sa(dp252
g2
S'49746'
p253
sg4
S'1404'
p254
sg6
S'5b48c78089c6f21a864d9e71cbaf0c9d'
p255
sg8
S'xxe42c94797d8674c09306267e026d5c6e'
p256
sg10
S'xx99f2280f3d56f053fd1eebfbc329045b'
p257
sg12
S'xx18ad48f836bd8e077b9cafa0bf18f4e8'
p258
sg14
S'Mozilla/5.0 (Linux; Android 5.1.1; ZTE N939Sc Build/LMY47V) AppleWebKit/537.36 (KHTML, like Gecko) Version/4.0 Chrome/37.0.0.0 Mobile MQQBrowser/6.8 TBS/036849 Safari/537.36 MicroMessenger/6.3.27.880 NetType/WIFI Language/zh_CN'
p259
sg16
S'5e1de14f13933c22c5298bb0d85ce37a'
p260
sa(dp261
g2
S'49746'
p262
sg4
S'1422'
p263
sg6
S'5b48c78089c6f21a864d9e71cbaf0c9d'
p264
sg8
S'xxe42c94797d8674c09306267e026d5c6e'
p265
sg10
S'xx99f2280f3d56f053fd1eebfbc329045b'
p266
sg12
S'xx18ad48f836bd8e077b9cafa0bf18f4e8'
p267
sg14
S'Mozilla/5.0 (Linux; Android 5.1.1; ZTE N939Sc Build/LMY47V) AppleWebKit/537.36 (KHTML, like Gecko) Version/4.0 Chrome/37.0.0.0 Mobile MQQBrowser/6.8 TBS/036849 Safari/537.36 MicroMessenger/6.3.27.880 NetType/WIFI Language/zh_CN'
p268
sg16
S'5e1de14f13933c22c5298bb0d85ce37a'
p269
sa(dp270
g2
S'49746'
p271
sg4
S'1440'
p272
sg6
S'5b48c78089c6f21a864d9e71cbaf0c9d'
p273
sg8
S'xxe42c94797d8674c09306267e026d5c6e'
p274
sg10
S'xx99f2280f3d56f053fd1eebfbc329045b'
p275
sg12
S'xx18ad48f836bd8e077b9cafa0bf18f4e8'
p276
sg14
S'Mozilla/5.0 (Linux; Android 5.1.1; ZTE N939Sc Build/LMY47V) AppleWebKit/537.36 (KHTML, like Gecko) Version/4.0 Chrome/37.0.0.0 Mobile MQQBrowser/6.8 TBS/036849 Safari/537.36 MicroMessenger/6.3.27.880 NetType/WIFI Language/zh_CN'
p277
sg16
S'5e1de14f13933c22c5298bb0d85ce37a'
p278
sa(dp279
g2
S'49746'
p280
sg4
S'1457'
p281
sg6
S'5b48c78089c6f21a864d9e71cbaf0c9d'
p282
sg8
S'xxe42c94797d8674c09306267e026d5c6e'
p283
sg10
S'xx99f2280f3d56f053fd1eebfbc329045b'
p284
sg12
S'xx18ad48f836bd8e077b9cafa0bf18f4e8'
p285
sg14
S'Mozilla/5.0 (Linux; Android 5.1.1; ZTE N939Sc Build/LMY47V) AppleWebKit/537.36 (KHTML, like Gecko) Version/4.0 Chrome/37.0.0.0 Mobile MQQBrowser/6.8 TBS/036849 Safari/537.36 MicroMessenger/6.3.27.880 NetType/WIFI Language/zh_CN'
p286
sg16
S'5e1de14f13933c22c5298bb0d85ce37a'
p287
sa(dp288
g2
S'49746'
p289
sg4
S'1473'
p290
sg6
S'5b48c78089c6f21a864d9e71cbaf0c9d'
p291
sg8
S'xxe42c94797d8674c09306267e026d5c6e'
p292
sg10
S'xx99f2280f3d56f053fd1eebfbc329045b'
p293
sg12
S'xx18ad48f836bd8e077b9cafa0bf18f4e8'
p294
sg14
S'Mozilla/5.0 (Linux; Android 5.1.1; ZTE N939Sc Build/LMY47V) AppleWebKit/537.36 (KHTML, like Gecko) Version/4.0 Chrome/37.0.0.0 Mobile MQQBrowser/6.8 TBS/036849 Safari/537.36 MicroMessenger/6.3.27.880 NetType/WIFI Language/zh_CN'
p295
sg16
S'5e1de14f13933c22c5298bb0d85ce37a'
p296
sa(dp297
g2
S'39907'
p298
sg4
S'1725'
p299
sg6
S'99c7748c5d6ebdf31198090a8a1e6a65'
p300
sg8
S'xxe42c94797d8674c09306267e026d5c6e'
p301
sg10
S'xx99f2280f3d56f053fd1eebfbc329045b'
p302
sg12
S'xx18ad48f836bd8e077b9cafa0bf18f4e8'
p303
sg14
S'Mozilla/5.0 (Linux; Android 5.1.1; ZTE N939Sc Build/LMY47V) AppleWebKit/537.36 (KHTML, like Gecko) Version/4.0 Chrome/37.0.0.0 Mobile MQQBrowser/6.8 TBS/036849 Safari/537.36 MicroMessenger/6.3.27.880 NetType/WIFI Language/zh_CN'
p304
sg16
S'5e1de14f13933c22c5298bb0d85ce37a'
p305
sa(dp306
g2
S'39907'
p307
sg4
S'1741'
p308
sg6
S'99c7748c5d6ebdf31198090a8a1e6a65'
p309
sg8
S'xxe42c94797d8674c09306267e026d5c6e'
p310
sg10
S'xx99f2280f3d56f053fd1eebfbc329045b'
p311
sg12
S'xx18ad48f836bd8e077b9cafa0bf18f4e8'
p312
sg14
S'Mozilla/5.0 (Linux; Android 5.1.1; ZTE N939Sc Build/LMY47V) AppleWebKit/537.36 (KHTML, like Gecko) Version/4.0 Chrome/37.0.0.0 Mobile MQQBrowser/6.8 TBS/036849 Safari/537.36 MicroMessenger/6.3.27.880 NetType/WIFI Language/zh_CN'
p313
sg16
S'5e1de14f13933c22c5298bb0d85ce37a'
p314
sa(dp315
g2
S'39907'
p316
sg4
S'1760'
p317
sg6
S'99c7748c5d6ebdf31198090a8a1e6a65'
p318
sg8
S'xxe42c94797d8674c09306267e026d5c6e'
p319
sg10
S'xx99f2280f3d56f053fd1eebfbc329045b'
p320
sg12
S'xx18ad48f836bd8e077b9cafa0bf18f4e8'
p321
sg14
S'Mozilla/5.0 (Linux; Android 5.1.1; ZTE N939Sc Build/LMY47V) AppleWebKit/537.36 (KHTML, like Gecko) Version/4.0 Chrome/37.0.0.0 Mobile MQQBrowser/6.8 TBS/036849 Safari/537.36 MicroMessenger/6.3.27.880 NetType/WIFI Language/zh_CN'
p322
sg16
S'5e1de14f13933c22c5298bb0d85ce37a'
p323
sa(dp324
g2
S'49746'
p325
sg4
S'1897'
p326
sg6
S'99c7748c5d6ebdf31198090a8a1e6a65'
p327
sg8
S'xx13a42f71bb3f1ea68a9cbad771d005b5'
p328
sg10
S'xx99f2280f3d56f053fd1eebfbc329045b'
p329
sg12
S'xx18ad48f836bd8e077b9cafa0bf18f4e8'
p330
sg14
S'Mozilla/5.0 (Linux; Android 5.1.1; ZTE N939Sc Build/LMY47V) AppleWebKit/537.36 (KHTML, like Gecko) Version/4.0 Chrome/37.0.0.0 Mobile MQQBrowser/6.8 TBS/036849 Safari/537.36 MicroMessenger/6.3.27.880 NetType/ctlte Language/zh_CN'
p331
sg16
S'e16fe750116e05edb0212d0e51aa4600'
p332
sa(dp333
g2
S'49746'
p334
sg4
S'1915'
p335
sg6
S'99c7748c5d6ebdf31198090a8a1e6a65'
p336
sg8
S'xx13a42f71bb3f1ea68a9cbad771d005b5'
p337
sg10
S'xx99f2280f3d56f053fd1eebfbc329045b'
p338
sg12
S'xx18ad48f836bd8e077b9cafa0bf18f4e8'
p339
sg14
S'Mozilla/5.0 (Linux; Android 5.1.1; ZTE N939Sc Build/LMY47V) AppleWebKit/537.36 (KHTML, like Gecko) Version/4.0 Chrome/37.0.0.0 Mobile MQQBrowser/6.8 TBS/036849 Safari/537.36 MicroMessenger/6.3.27.880 NetType/ctlte Language/zh_CN'
p340
sg16
S'e16fe750116e05edb0212d0e51aa4600'
p341
sa(dp342
g2
S'49746'
p343
sg4
S'1938'
p344
sg6
S'99c7748c5d6ebdf31198090a8a1e6a65'
p345
sg8
S'xx13a42f71bb3f1ea68a9cbad771d005b5'
p346
sg10
S'xx99f2280f3d56f053fd1eebfbc329045b'
p347
sg12
S'xx18ad48f836bd8e077b9cafa0bf18f4e8'
p348
sg14
S'Mozilla/5.0 (Linux; Android 5.1.1; ZTE N939Sc Build/LMY47V) AppleWebKit/537.36 (KHTML, like Gecko) Version/4.0 Chrome/37.0.0.0 Mobile MQQBrowser/6.8 TBS/036849 Safari/537.36 MicroMessenger/6.3.27.880 NetType/ctlte Language/zh_CN'
p349
sg16
S'e16fe750116e05edb0212d0e51aa4600'
p350
sa(dp351
g2
S'49746'
p352
sg4
S'1958'
p353
sg6
S'99c7748c5d6ebdf31198090a8a1e6a65'
p354
sg8
S'xx13a42f71bb3f1ea68a9cbad771d005b5'
p355
sg10
S'xx99f2280f3d56f053fd1eebfbc329045b'
p356
sg12
S'xx18ad48f836bd8e077b9cafa0bf18f4e8'
p357
sg14
S'Mozilla/5.0 (Linux; Android 5.1.1; ZTE N939Sc Build/LMY47V) AppleWebKit/537.36 (KHTML, like Gecko) Version/4.0 Chrome/37.0.0.0 Mobile MQQBrowser/6.8 TBS/036849 Safari/537.36 MicroMessenger/6.3.27.880 NetType/ctlte Language/zh_CN'
p358
sg16
S'e16fe750116e05edb0212d0e51aa4600'
p359
sa(dp360
g2
S'49746'
p361
sg4
S'1979'
p362
sg6
S'99c7748c5d6ebdf31198090a8a1e6a65'
p363
sg8
S'xx13a42f71bb3f1ea68a9cbad771d005b5'
p364
sg10
S'xx99f2280f3d56f053fd1eebfbc329045b'
p365
sg12
S'xx18ad48f836bd8e077b9cafa0bf18f4e8'
p366
sg14
S'Mozilla/5.0 (Linux; Android 5.1.1; ZTE N939Sc Build/LMY47V) AppleWebKit/537.36 (KHTML, like Gecko) Version/4.0 Chrome/37.0.0.0 Mobile MQQBrowser/6.8 TBS/036849 Safari/537.36 MicroMessenger/6.3.27.880 NetType/ctlte Language/zh_CN'
p367
sg16
S'e16fe750116e05edb0212d0e51aa4600'
p368
sa(dp369
g2
S'49746'
p370
sg4
S'1994'
p371
sg6
S'99c7748c5d6ebdf31198090a8a1e6a65'
p372
sg8
S'xx13a42f71bb3f1ea68a9cbad771d005b5'
p373
sg10
S'xx99f2280f3d56f053fd1eebfbc329045b'
p374
sg12
S'xx18ad48f836bd8e077b9cafa0bf18f4e8'
p375
sg14
S'Mozilla/5.0 (Linux; Android 5.1.1; ZTE N939Sc Build/LMY47V) AppleWebKit/537.36 (KHTML, like Gecko) Version/4.0 Chrome/37.0.0.0 Mobile MQQBrowser/6.8 TBS/036849 Safari/537.36 MicroMessenger/6.3.27.880 NetType/ctlte Language/zh_CN'
p376
sg16
S'e16fe750116e05edb0212d0e51aa4600'
p377
sa(dp378
g2
S'49746'
p379
sg4
S'2011'
p380
sg6
S'99c7748c5d6ebdf31198090a8a1e6a65'
p381
sg8
S'xx13a42f71bb3f1ea68a9cbad771d005b5'
p382
sg10
S'xx99f2280f3d56f053fd1eebfbc329045b'
p383
sg12
S'xx18ad48f836bd8e077b9cafa0bf18f4e8'
p384
sg14
S'Mozilla/5.0 (Linux; Android 5.1.1; ZTE N939Sc Build/LMY47V) AppleWebKit/537.36 (KHTML, like Gecko) Version/4.0 Chrome/37.0.0.0 Mobile MQQBrowser/6.8 TBS/036849 Safari/537.36 MicroMessenger/6.3.27.880 NetType/ctlte Language/zh_CN'
p385
sg16
S'e16fe750116e05edb0212d0e51aa4600'
p386
sa(dp387
g2
S'49746'
p388
sg4
S'2202'
p389
sg6
S'99c7748c5d6ebdf31198090a8a1e6a65'
p390
sg8
S'xx13a42f71bb3f1ea68a9cbad771d005b5'
p391
sg10
S'xx99f2280f3d56f053fd1eebfbc329045b'
p392
sg12
S'xx18ad48f836bd8e077b9cafa0bf18f4e8'
p393
sg14
S'Mozilla/5.0 (Linux; Android 5.1.1; ZTE N939Sc Build/LMY47V) AppleWebKit/537.36 (KHTML, like Gecko) Version/4.0 Chrome/37.0.0.0 Mobile MQQBrowser/6.8 TBS/036849 Safari/537.36 MicroMessenger/6.3.27.880 NetType/ctlte Language/zh_CN'
p394
sg16
S'e16fe750116e05edb0212d0e51aa4600'
p395
sa(dp396
g2
S'49746'
p397
sg4
S'2222'
p398
sg6
S'99c7748c5d6ebdf31198090a8a1e6a65'
p399
sg8
S'xx13a42f71bb3f1ea68a9cbad771d005b5'
p400
sg10
S'xx99f2280f3d56f053fd1eebfbc329045b'
p401
sg12
S'xx18ad48f836bd8e077b9cafa0bf18f4e8'
p402
sg14
S'Mozilla/5.0 (Linux; Android 5.1.1; ZTE N939Sc Build/LMY47V) AppleWebKit/537.36 (KHTML, like Gecko) Version/4.0 Chrome/37.0.0.0 Mobile MQQBrowser/6.8 TBS/036849 Safari/537.36 MicroMessenger/6.3.27.880 NetType/ctlte Language/zh_CN'
p403
sg16
S'e16fe750116e05edb0212d0e51aa4600'
p404
sa(dp405
g2
S'49746'
p406
sg4
S'2302'
p407
sg6
S'99c7748c5d6ebdf31198090a8a1e6a65'
p408
sg8
S'xx13a42f71bb3f1ea68a9cbad771d005b5'
p409
sg10
S'xx99f2280f3d56f053fd1eebfbc329045b'
p410
sg12
S'xx18ad48f836bd8e077b9cafa0bf18f4e8'
p411
sg14
S'Mozilla/5.0 (Linux; Android 5.1.1; ZTE N939Sc Build/LMY47V) AppleWebKit/537.36 (KHTML, like Gecko) Version/4.0 Chrome/37.0.0.0 Mobile MQQBrowser/6.8 TBS/036849 Safari/537.36 MicroMessenger/6.3.27.880 NetType/ctlte Language/zh_CN'
p412
sg16
S'e16fe750116e05edb0212d0e51aa4600'
p413
sa(dp414
g2
S'49746'
p415
sg4
S'2316'
p416
sg6
S'99c7748c5d6ebdf31198090a8a1e6a65'
p417
sg8
S'xx13a42f71bb3f1ea68a9cbad771d005b5'
p418
sg10
S'xx99f2280f3d56f053fd1eebfbc329045b'
p419
sg12
S'xx18ad48f836bd8e077b9cafa0bf18f4e8'
p420
sg14
S'Mozilla/5.0 (Linux; Android 5.1.1; ZTE N939Sc Build/LMY47V) AppleWebKit/537.36 (KHTML, like Gecko) Version/4.0 Chrome/37.0.0.0 Mobile MQQBrowser/6.8 TBS/036849 Safari/537.36 MicroMessenger/6.3.27.880 NetType/ctlte Language/zh_CN'
p421
sg16
S'e16fe750116e05edb0212d0e51aa4600'
p422
sa(dp423
g2
S'49746'
p424
sg4
S'2416'
p425
sg6
S'99c7748c5d6ebdf31198090a8a1e6a65'
p426
sg8
S'xx13a42f71bb3f1ea68a9cbad771d005b5'
p427
sg10
S'xx99f2280f3d56f053fd1eebfbc329045b'
p428
sg12
S'xx18ad48f836bd8e077b9cafa0bf18f4e8'
p429
sg14
S'Mozilla/5.0 (Linux; Android 5.1.1; ZTE N939Sc Build/LMY47V) AppleWebKit/537.36 (KHTML, like Gecko) Version/4.0 Chrome/37.0.0.0 Mobile MQQBrowser/6.8 TBS/036849 Safari/537.36 MicroMessenger/6.3.27.880 NetType/ctlte Language/zh_CN'
p430
sg16
S'e16fe750116e05edb0212d0e51aa4600'
p431
sa(dp432
g2
S'49746'
p433
sg4
S'2518'
p434
sg6
S'99c7748c5d6ebdf31198090a8a1e6a65'
p435
sg8
S'xx13a42f71bb3f1ea68a9cbad771d005b5'
p436
sg10
S'xx99f2280f3d56f053fd1eebfbc329045b'
p437
sg12
S'xx18ad48f836bd8e077b9cafa0bf18f4e8'
p438
sg14
S'Mozilla/5.0 (Linux; Android 5.1.1; ZTE N939Sc Build/LMY47V) AppleWebKit/537.36 (KHTML, like Gecko) Version/4.0 Chrome/37.0.0.0 Mobile MQQBrowser/6.8 TBS/036849 Safari/537.36 MicroMessenger/6.3.27.880 NetType/ctlte Language/zh_CN'
p439
sg16
S'e16fe750116e05edb0212d0e51aa4600'
p440
sa(dp441
g2
S'49746'
p442
sg4
S'2547'
p443
sg6
S'99c7748c5d6ebdf31198090a8a1e6a65'
p444
sg8
S'xx13a42f71bb3f1ea68a9cbad771d005b5'
p445
sg10
S'xx99f2280f3d56f053fd1eebfbc329045b'
p446
sg12
S'xx18ad48f836bd8e077b9cafa0bf18f4e8'
p447
sg14
S'Mozilla/5.0 (Linux; Android 5.1.1; ZTE N939Sc Build/LMY47V) AppleWebKit/537.36 (KHTML, like Gecko) Version/4.0 Chrome/37.0.0.0 Mobile MQQBrowser/6.8 TBS/036849 Safari/537.36 MicroMessenger/6.3.27.880 NetType/ctlte Language/zh_CN'
p448
sg16
S'e16fe750116e05edb0212d0e51aa4600'
p449
sa(dp450
g2
S'49746'
p451
sg4
S'2605'
p452
sg6
S'99c7748c5d6ebdf31198090a8a1e6a65'
p453
sg8
S'xx13a42f71bb3f1ea68a9cbad771d005b5'
p454
sg10
S'xx99f2280f3d56f053fd1eebfbc329045b'
p455
sg12
S'xx18ad48f836bd8e077b9cafa0bf18f4e8'
p456
sg14
S'Mozilla/5.0 (Linux; Android 5.1.1; ZTE N939Sc Build/LMY47V) AppleWebKit/537.36 (KHTML, like Gecko) Version/4.0 Chrome/37.0.0.0 Mobile MQQBrowser/6.8 TBS/036849 Safari/537.36 MicroMessenger/6.3.27.880 NetType/ctlte Language/zh_CN'
p457
sg16
S'e16fe750116e05edb0212d0e51aa4600'
p458
sa(dp459
g2
S'49746'
p460
sg4
S'2620'
p461
sg6
S'99c7748c5d6ebdf31198090a8a1e6a65'
p462
sg8
S'xx13a42f71bb3f1ea68a9cbad771d005b5'
p463
sg10
S'xx99f2280f3d56f053fd1eebfbc329045b'
p464
sg12
S'xx18ad48f836bd8e077b9cafa0bf18f4e8'
p465
sg14
S'Mozilla/5.0 (Linux; Android 5.1.1; ZTE N939Sc Build/LMY47V) AppleWebKit/537.36 (KHTML, like Gecko) Version/4.0 Chrome/37.0.0.0 Mobile MQQBrowser/6.8 TBS/036849 Safari/537.36 MicroMessenger/6.3.27.880 NetType/ctlte Language/zh_CN'
p466
sg16
S'e16fe750116e05edb0212d0e51aa4600'
p467
sa(dp468
g2
S'49746'
p469
sg4
S'2741'
p470
sg6
S'99c7748c5d6ebdf31198090a8a1e6a65'
p471
sg8
S'xx13a42f71bb3f1ea68a9cbad771d005b5'
p472
sg10
S'xx99f2280f3d56f053fd1eebfbc329045b'
p473
sg12
S'xx18ad48f836bd8e077b9cafa0bf18f4e8'
p474
sg14
S'Mozilla/5.0 (Linux; Android 5.1.1; ZTE N939Sc Build/LMY47V) AppleWebKit/537.36 (KHTML, like Gecko) Version/4.0 Chrome/37.0.0.0 Mobile MQQBrowser/6.8 TBS/036849 Safari/537.36 MicroMessenger/6.3.27.880 NetType/ctlte Language/zh_CN'
p475
sg16
S'e16fe750116e05edb0212d0e51aa4600'
p476
sa(dp477
g2
S'49746'
p478
sg4
S'2764'
p479
sg6
S'99c7748c5d6ebdf31198090a8a1e6a65'
p480
sg8
S'xx13a42f71bb3f1ea68a9cbad771d005b5'
p481
sg10
S'xx99f2280f3d56f053fd1eebfbc329045b'
p482
sg12
S'xx18ad48f836bd8e077b9cafa0bf18f4e8'
p483
sg14
S'Mozilla/5.0 (Linux; Android 5.1.1; ZTE N939Sc Build/LMY47V) AppleWebKit/537.36 (KHTML, like Gecko) Version/4.0 Chrome/37.0.0.0 Mobile MQQBrowser/6.8 TBS/036849 Safari/537.36 MicroMessenger/6.3.27.880 NetType/ctlte Language/zh_CN'
p484
sg16
S'e16fe750116e05edb0212d0e51aa4600'
p485
sa(dp486
g2
S'49746'
p487
sg4
S'2873'
p488
sg6
S'99c7748c5d6ebdf31198090a8a1e6a65'
p489
sg8
S'xx13a42f71bb3f1ea68a9cbad771d005b5'
p490
sg10
S'xx99f2280f3d56f053fd1eebfbc329045b'
p491
sg12
S'xx18ad48f836bd8e077b9cafa0bf18f4e8'
p492
sg14
S'Mozilla/5.0 (Linux; Android 5.1.1; ZTE N939Sc Build/LMY47V) AppleWebKit/537.36 (KHTML, like Gecko) Version/4.0 Chrome/37.0.0.0 Mobile MQQBrowser/6.8 TBS/036849 Safari/537.36 MicroMessenger/6.3.27.880 NetType/ctlte Language/zh_CN'
p493
sg16
S'e16fe750116e05edb0212d0e51aa4600'
p494
sa(dp495
g2
S'49746'
p496
sg4
S'2895'
p497
sg6
S'99c7748c5d6ebdf31198090a8a1e6a65'
p498
sg8
S'xx13a42f71bb3f1ea68a9cbad771d005b5'
p499
sg10
S'xx99f2280f3d56f053fd1eebfbc329045b'
p500
sg12
S'xx18ad48f836bd8e077b9cafa0bf18f4e8'
p501
sg14
S'Mozilla/5.0 (Linux; Android 5.1.1; ZTE N939Sc Build/LMY47V) AppleWebKit/537.36 (KHTML, like Gecko) Version/4.0 Chrome/37.0.0.0 Mobile MQQBrowser/6.8 TBS/036849 Safari/537.36 MicroMessenger/6.3.27.880 NetType/ctlte Language/zh_CN'
p502
sg16
S'e16fe750116e05edb0212d0e51aa4600'
p503
sa(dp504
g2
S'49746'
p505
sg4
S'2987'
p506
sg6
S'99c7748c5d6ebdf31198090a8a1e6a65'
p507
sg8
S'xx13a42f71bb3f1ea68a9cbad771d005b5'
p508
sg10
S'xx99f2280f3d56f053fd1eebfbc329045b'
p509
sg12
S'xx18ad48f836bd8e077b9cafa0bf18f4e8'
p510
sg14
S'Mozilla/5.0 (Linux; Android 5.1.1; ZTE N939Sc Build/LMY47V) AppleWebKit/537.36 (KHTML, like Gecko) Version/4.0 Chrome/37.0.0.0 Mobile MQQBrowser/6.8 TBS/036849 Safari/537.36 MicroMessenger/6.3.27.880 NetType/ctlte Language/zh_CN'
p511
sg16
S'e16fe750116e05edb0212d0e51aa4600'
p512
sa(dp513
g2
S'49746'
p514
sg4
S'3002'
p515
sg6
S'99c7748c5d6ebdf31198090a8a1e6a65'
p516
sg8
S'xx13a42f71bb3f1ea68a9cbad771d005b5'
p517
sg10
S'xx99f2280f3d56f053fd1eebfbc329045b'
p518
sg12
S'xx18ad48f836bd8e077b9cafa0bf18f4e8'
p519
sg14
S'Mozilla/5.0 (Linux; Android 5.1.1; ZTE N939Sc Build/LMY47V) AppleWebKit/537.36 (KHTML, like Gecko) Version/4.0 Chrome/37.0.0.0 Mobile MQQBrowser/6.8 TBS/036849 Safari/537.36 MicroMessenger/6.3.27.880 NetType/ctlte Language/zh_CN'
p520
sg16
S'e16fe750116e05edb0212d0e51aa4600'
p521
sa(dp522
g2
S'49746'
p523
sg4
S'3095'
p524
sg6
S'99c7748c5d6ebdf31198090a8a1e6a65'
p525
sg8
S'xx13a42f71bb3f1ea68a9cbad771d005b5'
p526
sg10
S'xx99f2280f3d56f053fd1eebfbc329045b'
p527
sg12
S'xx18ad48f836bd8e077b9cafa0bf18f4e8'
p528
sg14
S'Mozilla/5.0 (Linux; Android 5.1.1; ZTE N939Sc Build/LMY47V) AppleWebKit/537.36 (KHTML, like Gecko) Version/4.0 Chrome/37.0.0.0 Mobile MQQBrowser/6.8 TBS/036849 Safari/537.36 MicroMessenger/6.3.27.880 NetType/ctlte Language/zh_CN'
p529
sg16
S'e16fe750116e05edb0212d0e51aa4600'
p530
sa(dp531
g2
S'49746'
p532
sg4
S'3110'
p533
sg6
S'99c7748c5d6ebdf31198090a8a1e6a65'
p534
sg8
S'xx13a42f71bb3f1ea68a9cbad771d005b5'
p535
sg10
S'xx99f2280f3d56f053fd1eebfbc329045b'
p536
sg12
S'xx18ad48f836bd8e077b9cafa0bf18f4e8'
p537
sg14
S'Mozilla/5.0 (Linux; Android 5.1.1; ZTE N939Sc Build/LMY47V) AppleWebKit/537.36 (KHTML, like Gecko) Version/4.0 Chrome/37.0.0.0 Mobile MQQBrowser/6.8 TBS/036849 Safari/537.36 MicroMessenger/6.3.27.880 NetType/ctlte Language/zh_CN'
p538
sg16
S'e16fe750116e05edb0212d0e51aa4600'
p539
sa(dp540
g2
S'49746'
p541
sg4
S'3129'
p542
sg6
S'99c7748c5d6ebdf31198090a8a1e6a65'
p543
sg8
S'xx13a42f71bb3f1ea68a9cbad771d005b5'
p544
sg10
S'xx99f2280f3d56f053fd1eebfbc329045b'
p545
sg12
S'xx18ad48f836bd8e077b9cafa0bf18f4e8'
p546
sg14
S'Mozilla/5.0 (Linux; Android 5.1.1; ZTE N939Sc Build/LMY47V) AppleWebKit/537.36 (KHTML, like Gecko) Version/4.0 Chrome/37.0.0.0 Mobile MQQBrowser/6.8 TBS/036849 Safari/537.36 MicroMessenger/6.3.27.880 NetType/ctlte Language/zh_CN'
p547
sg16
S'e16fe750116e05edb0212d0e51aa4600'
p548
sa(dp549
g2
S'49746'
p550
sg4
S'4118'
p551
sg6
S'5b48c78089c6f21a864d9e71cbaf0c9d'
p552
sg8
S'xxe42c94797d8674c09306267e026d5c6e'
p553
sg10
S'xx99f2280f3d56f053fd1eebfbc329045b'
p554
sg12
S'xx18ad48f836bd8e077b9cafa0bf18f4e8'
p555
sg14
S'Mozilla/5.0 (Linux; Android 5.1.1; ZTE N939Sc Build/LMY47V) AppleWebKit/537.36 (KHTML, like Gecko) Version/4.0 Chrome/37.0.0.0 Mobile MQQBrowser/6.8 TBS/036849 Safari/537.36 MicroMessenger/6.3.27.880 NetType/WIFI Language/zh_CN'
p556
sg16
S'5e1de14f13933c22c5298bb0d85ce37a'
p557
sa(dp558
g2
S'49746'
p559
sg4
S'4144'
p560
sg6
S'5b48c78089c6f21a864d9e71cbaf0c9d'
p561
sg8
S'xxe42c94797d8674c09306267e026d5c6e'
p562
sg10
S'xx99f2280f3d56f053fd1eebfbc329045b'
p563
sg12
S'xx18ad48f836bd8e077b9cafa0bf18f4e8'
p564
sg14
S'Mozilla/5.0 (Linux; Android 5.1.1; ZTE N939Sc Build/LMY47V) AppleWebKit/537.36 (KHTML, like Gecko) Version/4.0 Chrome/37.0.0.0 Mobile MQQBrowser/6.8 TBS/036849 Safari/537.36 MicroMessenger/6.3.27.880 NetType/WIFI Language/zh_CN'
p565
sg16
S'5e1de14f13933c22c5298bb0d85ce37a'
p566
sa(dp567
g2
S'49746'
p568
sg4
S'4166'
p569
sg6
S'5b48c78089c6f21a864d9e71cbaf0c9d'
p570
sg8
S'xxe42c94797d8674c09306267e026d5c6e'
p571
sg10
S'xx99f2280f3d56f053fd1eebfbc329045b'
p572
sg12
S'xx18ad48f836bd8e077b9cafa0bf18f4e8'
p573
sg14
S'Mozilla/5.0 (Linux; Android 5.1.1; ZTE N939Sc Build/LMY47V) AppleWebKit/537.36 (KHTML, like Gecko) Version/4.0 Chrome/37.0.0.0 Mobile MQQBrowser/6.8 TBS/036849 Safari/537.36 MicroMessenger/6.3.27.880 NetType/WIFI Language/zh_CN'
p574
sg16
S'5e1de14f13933c22c5298bb0d85ce37a'
p575
sa(dp576
g2
S'49746'
p577
sg4
S'4205'
p578
sg6
S'5b48c78089c6f21a864d9e71cbaf0c9d'
p579
sg8
S'xxe42c94797d8674c09306267e026d5c6e'
p580
sg10
S'xx99f2280f3d56f053fd1eebfbc329045b'
p581
sg12
S'xx18ad48f836bd8e077b9cafa0bf18f4e8'
p582
sg14
S'Mozilla/5.0 (Linux; Android 5.1.1; ZTE N939Sc Build/LMY47V) AppleWebKit/537.36 (KHTML, like Gecko) Version/4.0 Chrome/37.0.0.0 Mobile MQQBrowser/6.8 TBS/036849 Safari/537.36 MicroMessenger/6.3.27.880 NetType/WIFI Language/zh_CN'
p583
sg16
S'5e1de14f13933c22c5298bb0d85ce37a'
p584
sa(dp585
g2
S'39907'
p586
sg4
S'4293'
p587
sg6
S'5b48c78089c6f21a864d9e71cbaf0c9d'
p588
sg8
S'xxe42c94797d8674c09306267e026d5c6e'
p589
sg10
S'xx99f2280f3d56f053fd1eebfbc329045b'
p590
sg12
S'xx18ad48f836bd8e077b9cafa0bf18f4e8'
p591
sg14
S'Mozilla/5.0 (Linux; Android 5.1.1; ZTE N939Sc Build/LMY47V) AppleWebKit/537.36 (KHTML, like Gecko) Version/4.0 Chrome/37.0.0.0 Mobile MQQBrowser/6.8 TBS/036849 Safari/537.36 MicroMessenger/6.3.27.880 NetType/WIFI Language/zh_CN'
p592
sg16
S'5e1de14f13933c22c5298bb0d85ce37a'
p593
sa(dp594
g2
S'39907'
p595
sg4
S'4307'
p596
sg6
S'5b48c78089c6f21a864d9e71cbaf0c9d'
p597
sg8
S'xxe42c94797d8674c09306267e026d5c6e'
p598
sg10
S'xx99f2280f3d56f053fd1eebfbc329045b'
p599
sg12
S'xx18ad48f836bd8e077b9cafa0bf18f4e8'
p600
sg14
S'Mozilla/5.0 (Linux; Android 5.1.1; ZTE N939Sc Build/LMY47V) AppleWebKit/537.36 (KHTML, like Gecko) Version/4.0 Chrome/37.0.0.0 Mobile MQQBrowser/6.8 TBS/036849 Safari/537.36 MicroMessenger/6.3.27.880 NetType/WIFI Language/zh_CN'
p601
sg16
S'5e1de14f13933c22c5298bb0d85ce37a'
p602
sa(dp603
g2
S'39907'
p604
sg4
S'4322'
p605
sg6
S'5b48c78089c6f21a864d9e71cbaf0c9d'
p606
sg8
S'xxe42c94797d8674c09306267e026d5c6e'
p607
sg10
S'xx99f2280f3d56f053fd1eebfbc329045b'
p608
sg12
S'xx18ad48f836bd8e077b9cafa0bf18f4e8'
p609
sg14
S'Mozilla/5.0 (Linux; Android 5.1.1; ZTE N939Sc Build/LMY47V) AppleWebKit/537.36 (KHTML, like Gecko) Version/4.0 Chrome/37.0.0.0 Mobile MQQBrowser/6.8 TBS/036849 Safari/537.36 MicroMessenger/6.3.27.880 NetType/WIFI Language/zh_CN'
p610
sg16
S'5e1de14f13933c22c5298bb0d85ce37a'
p611
sa(dp612
g2
S'49746'
p613
sg4
S'4459'
p614
sg6
S'5b48c78089c6f21a864d9e71cbaf0c9d'
p615
sg8
S'xxe42c94797d8674c09306267e026d5c6e'
p616
sg10
S'xx99f2280f3d56f053fd1eebfbc329045b'
p617
sg12
S'xx18ad48f836bd8e077b9cafa0bf18f4e8'
p618
sg14
S'Mozilla/5.0 (Linux; Android 5.1.1; ZTE N939Sc Build/LMY47V) AppleWebKit/537.36 (KHTML, like Gecko) Version/4.0 Chrome/37.0.0.0 Mobile MQQBrowser/6.8 TBS/036849 Safari/537.36 MicroMessenger/6.3.27.880 NetType/WIFI Language/zh_CN'
p619
sg16
S'5e1de14f13933c22c5298bb0d85ce37a'
p620
sa(dp621
g2
S'49746'
p622
sg4
S'4480'
p623
sg6
S'5b48c78089c6f21a864d9e71cbaf0c9d'
p624
sg8
S'xxe42c94797d8674c09306267e026d5c6e'
p625
sg10
S'xx99f2280f3d56f053fd1eebfbc329045b'
p626
sg12
S'xx18ad48f836bd8e077b9cafa0bf18f4e8'
p627
sg14
S'Mozilla/5.0 (Linux; Android 5.1.1; ZTE N939Sc Build/LMY47V) AppleWebKit/537.36 (KHTML, like Gecko) Version/4.0 Chrome/37.0.0.0 Mobile MQQBrowser/6.8 TBS/036849 Safari/537.36 MicroMessenger/6.3.27.880 NetType/WIFI Language/zh_CN'
p628
sg16
S'5e1de14f13933c22c5298bb0d85ce37a'
p629
sa(dp630
g2
S'49746'
p631
sg4
S'4796'
p632
sg6
S'5b48c78089c6f21a864d9e71cbaf0c9d'
p633
sg8
S'xxe42c94797d8674c09306267e026d5c6e'
p634
sg10
S'xx99f2280f3d56f053fd1eebfbc329045b'
p635
sg12
S'xx18ad48f836bd8e077b9cafa0bf18f4e8'
p636
sg14
S'Mozilla/5.0 (Linux; Android 5.1.1; ZTE N939Sc Build/LMY47V) AppleWebKit/537.36 (KHTML, like Gecko) Version/4.0 Chrome/37.0.0.0 Mobile MQQBrowser/6.8 TBS/036849 Safari/537.36 MicroMessenger/6.3.27.880 NetType/WIFI Language/zh_CN'
p637
sg16
S'5e1de14f13933c22c5298bb0d85ce37a'
p638
sa(dp639
g2
S'49746'
p640
sg4
S'4812'
p641
sg6
S'5b48c78089c6f21a864d9e71cbaf0c9d'
p642
sg8
S'xxe42c94797d8674c09306267e026d5c6e'
p643
sg10
S'xx99f2280f3d56f053fd1eebfbc329045b'
p644
sg12
S'xx18ad48f836bd8e077b9cafa0bf18f4e8'
p645
sg14
S'Mozilla/5.0 (Linux; Android 5.1.1; ZTE N939Sc Build/LMY47V) AppleWebKit/537.36 (KHTML, like Gecko) Version/4.0 Chrome/37.0.0.0 Mobile MQQBrowser/6.8 TBS/036849 Safari/537.36 MicroMessenger/6.3.27.880 NetType/WIFI Language/zh_CN'
p646
sg16
S'5e1de14f13933c22c5298bb0d85ce37a'
p647
sa(dp648
g2
S'49746'
p649
sg4
S'4826'
p650
sg6
S'5b48c78089c6f21a864d9e71cbaf0c9d'
p651
sg8
S'xxe42c94797d8674c09306267e026d5c6e'
p652
sg10
S'xx99f2280f3d56f053fd1eebfbc329045b'
p653
sg12
S'xx18ad48f836bd8e077b9cafa0bf18f4e8'
p654
sg14
S'Mozilla/5.0 (Linux; Android 5.1.1; ZTE N939Sc Build/LMY47V) AppleWebKit/537.36 (KHTML, like Gecko) Version/4.0 Chrome/37.0.0.0 Mobile MQQBrowser/6.8 TBS/036849 Safari/537.36 MicroMessenger/6.3.27.880 NetType/WIFI Language/zh_CN'
p655
sg16
S'5e1de14f13933c22c5298bb0d85ce37a'
p656
sa(dp657
g2
S'49746'
p658
sg4
S'5240'
p659
sg6
S'5b48c78089c6f21a864d9e71cbaf0c9d'
p660
sg8
S'xxe42c94797d8674c09306267e026d5c6e'
p661
sg10
S'xx99f2280f3d56f053fd1eebfbc329045b'
p662
sg12
S'xx18ad48f836bd8e077b9cafa0bf18f4e8'
p663
sg14
S'Mozilla/5.0 (Linux; Android 5.1.1; ZTE N939Sc Build/LMY47V) AppleWebKit/537.36 (KHTML, like Gecko) Version/4.0 Chrome/37.0.0.0 Mobile MQQBrowser/6.8 TBS/036849 Safari/537.36 MicroMessenger/6.3.27.880 NetType/WIFI Language/zh_CN'
p664
sg16
S'5e1de14f13933c22c5298bb0d85ce37a'
p665
sa(dp666
g2
S'49746'
p667
sg4
S'5268'
p668
sg6
S'5b48c78089c6f21a864d9e71cbaf0c9d'
p669
sg8
S'xxe42c94797d8674c09306267e026d5c6e'
p670
sg10
S'xx99f2280f3d56f053fd1eebfbc329045b'
p671
sg12
S'xx18ad48f836bd8e077b9cafa0bf18f4e8'
p672
sg14
S'Mozilla/5.0 (Linux; Android 5.1.1; ZTE N939Sc Build/LMY47V) AppleWebKit/537.36 (KHTML, like Gecko) Version/4.0 Chrome/37.0.0.0 Mobile MQQBrowser/6.8 TBS/036849 Safari/537.36 MicroMessenger/6.3.27.880 NetType/WIFI Language/zh_CN'
p673
sg16
S'5e1de14f13933c22c5298bb0d85ce37a'
p674
sa.