(lp0
(dp1
S'user_id'
p2
S'33174'
p3
sS'data_id'
p4
S'2073'
p5
sS'ip'
p6
S'21678c5c2cb28f9427d740d238454637'
p7
sS'phone_B'
p8
S'xx1f2325e3f20ecfb8529f691114395d7c'
p9
sS'phone_C'
p10
S'xx2adf3e3470a5aea8372c77808537a599'
p11
sS'phone_A'
p12
S'xx189cfc5c6bd8ad5589f4912e8170375f'
p13
sS'user_agent'
p14
S'Mozilla/5.0 (Linux; Android 6.0.1; MI 4C Build/MMB29M) AppleWebKit/537.36 (KHTML, like Gecko) Version/4.0 Chrome/37.0.0.0 Mobile MQQBrowser/6.8 TBS/036849 Safari/537.36 MicroMessenger/6.3.27.880 NetType/WIFI Language/zh_CN'
p15
sS'ua'
p16
S'0ef1293419acd00c5f799c9e326d8ade'
p17
sa.