(lp0
(dp1
S'user_id'
p2
S'42133'
p3
sS'data_id'
p4
S'10'
p5
sS'ip'
p6
S'03f52a4f7e66c7ccc384ce91e7bd50e9'
p7
sS'phone_B'
p8
S'xx65fb85131ae39510134a20fd84a33be7'
p9
sS'phone_C'
p10
S'xxe180077fe8d7d78330cdf873114ffaa6'
p11
sS'phone_A'
p12
S'xx19db038d4d766b641ece1a49a097cca1'
p13
sS'user_agent'
p14
S'Mozilla/5.0 (Linux; Android 5.1.1; OPPO A33m Build/LMY47V) AppleWebKit/537.36 (KHTML, like Gecko) Version/4.0 Chrome/37.0.0.0 Mobile MQQBrowser/6.8 TBS/036849 Safari/537.36 MicroMessenger/6.3.27.880 NetType/WIFI Language/zh_CN'
p15
sS'ua'
p16
S'759f2e16a7cf17181ad86f9b491ac761'
p17
sa(dp18
g2
S'42133'
p19
sg4
S'23'
p20
sg6
S'03f52a4f7e66c7ccc384ce91e7bd50e9'
p21
sg8
S'xx65fb85131ae39510134a20fd84a33be7'
p22
sg10
S'xxe180077fe8d7d78330cdf873114ffaa6'
p23
sg12
S'xx19db038d4d766b641ece1a49a097cca1'
p24
sg14
S'Mozilla/5.0 (Linux; Android 5.1.1; OPPO A33m Build/LMY47V) AppleWebKit/537.36 (KHTML, like Gecko) Version/4.0 Chrome/37.0.0.0 Mobile MQQBrowser/6.8 TBS/036849 Safari/537.36 MicroMessenger/6.3.27.880 NetType/WIFI Language/zh_CN'
p25
sg16
S'759f2e16a7cf17181ad86f9b491ac761'
p26
sa(dp27
g2
S'42133'
p28
sg4
S'34'
p29
sg6
S'03f52a4f7e66c7ccc384ce91e7bd50e9'
p30
sg8
S'xx65fb85131ae39510134a20fd84a33be7'
p31
sg10
S'xxe180077fe8d7d78330cdf873114ffaa6'
p32
sg12
S'xx19db038d4d766b641ece1a49a097cca1'
p33
sg14
S'Mozilla/5.0 (Linux; Android 5.1.1; OPPO A33m Build/LMY47V) AppleWebKit/537.36 (KHTML, like Gecko) Version/4.0 Chrome/37.0.0.0 Mobile MQQBrowser/6.8 TBS/036849 Safari/537.36 MicroMessenger/6.3.27.880 NetType/WIFI Language/zh_CN'
p34
sg16
S'759f2e16a7cf17181ad86f9b491ac761'
p35
sa(dp36
g2
S'42133'
p37
sg4
S'58'
p38
sg6
S'03f52a4f7e66c7ccc384ce91e7bd50e9'
p39
sg8
S'xx65fb85131ae39510134a20fd84a33be7'
p40
sg10
S'xxe180077fe8d7d78330cdf873114ffaa6'
p41
sg12
S'xx19db038d4d766b641ece1a49a097cca1'
p42
sg14
S'Mozilla/5.0 (Linux; Android 5.1.1; OPPO A33m Build/LMY47V) AppleWebKit/537.36 (KHTML, like Gecko) Version/4.0 Chrome/37.0.0.0 Mobile MQQBrowser/6.8 TBS/036849 Safari/537.36 MicroMessenger/6.3.27.880 NetType/WIFI Language/zh_CN'
p43
sg16
S'759f2e16a7cf17181ad86f9b491ac761'
p44
sa(dp45
g2
S'19502'
p46
sg4
S'138'
p47
sg6
S'c053915e38aa9f35ab188f266fa74b8a'
p48
sg8
S'xx8157ccb00c8e7b5af928a9dd4ea7a46b'
p49
sg10
S'xxe180077fe8d7d78330cdf873114ffaa6'
p50
sg12
S'xx19db038d4d766b641ece1a49a097cca1'
p51
sg14
S'Mozilla/5.0 (Linux; Android 5.1.1; OPPO A33m Build/LMY47V) AppleWebKit/537.36 (KHTML, like Gecko) Version/4.0 Chrome/37.0.0.0 Mobile MQQBrowser/6.8 TBS/036869 Safari/537.36 MicroMessenger/6.3.27.880 NetType/WIFI Language/zh_CN'
p52
sg16
S'660593a9d319913e014da5cb99341c9e'
p53
sa(dp54
g2
S'19502'
p55
sg4
S'152'
p56
sg6
S'c053915e38aa9f35ab188f266fa74b8a'
p57
sg8
S'xx8157ccb00c8e7b5af928a9dd4ea7a46b'
p58
sg10
S'xxe180077fe8d7d78330cdf873114ffaa6'
p59
sg12
S'xx19db038d4d766b641ece1a49a097cca1'
p60
sg14
S'Mozilla/5.0 (Linux; Android 5.1.1; OPPO A33m Build/LMY47V) AppleWebKit/537.36 (KHTML, like Gecko) Version/4.0 Chrome/37.0.0.0 Mobile MQQBrowser/6.8 TBS/036869 Safari/537.36 MicroMessenger/6.3.27.880 NetType/WIFI Language/zh_CN'
p61
sg16
S'660593a9d319913e014da5cb99341c9e'
p62
sa(dp63
g2
S'42133'
p64
sg4
S'230'
p65
sg6
S'03f52a4f7e66c7ccc384ce91e7bd50e9'
p66
sg8
S'xx65fb85131ae39510134a20fd84a33be7'
p67
sg10
S'xxe180077fe8d7d78330cdf873114ffaa6'
p68
sg12
S'xx19db038d4d766b641ece1a49a097cca1'
p69
sg14
S'Mozilla/5.0 (Linux; Android 5.1.1; OPPO A33m Build/LMY47V) AppleWebKit/537.36 (KHTML, like Gecko) Version/4.0 Chrome/37.0.0.0 Mobile MQQBrowser/6.8 TBS/036849 Safari/537.36 MicroMessenger/6.3.27.880 NetType/WIFI Language/zh_CN'
p70
sg16
S'759f2e16a7cf17181ad86f9b491ac761'
p71
sa(dp72
g2
S'42133'
p73
sg4
S'242'
p74
sg6
S'03f52a4f7e66c7ccc384ce91e7bd50e9'
p75
sg8
S'xx65fb85131ae39510134a20fd84a33be7'
p76
sg10
S'xxe180077fe8d7d78330cdf873114ffaa6'
p77
sg12
S'xx19db038d4d766b641ece1a49a097cca1'
p78
sg14
S'Mozilla/5.0 (Linux; Android 5.1.1; OPPO A33m Build/LMY47V) AppleWebKit/537.36 (KHTML, like Gecko) Version/4.0 Chrome/37.0.0.0 Mobile MQQBrowser/6.8 TBS/036849 Safari/537.36 MicroMessenger/6.3.27.880 NetType/WIFI Language/zh_CN'
p79
sg16
S'759f2e16a7cf17181ad86f9b491ac761'
p80
sa(dp81
g2
S'42133'
p82
sg4
S'384'
p83
sg6
S'03f52a4f7e66c7ccc384ce91e7bd50e9'
p84
sg8
S'xx65fb85131ae39510134a20fd84a33be7'
p85
sg10
S'xxe180077fe8d7d78330cdf873114ffaa6'
p86
sg12
S'xx19db038d4d766b641ece1a49a097cca1'
p87
sg14
S'Mozilla/5.0 (Linux; Android 5.1.1; OPPO A33m Build/LMY47V) AppleWebKit/537.36 (KHTML, like Gecko) Version/4.0 Chrome/37.0.0.0 Mobile MQQBrowser/6.8 TBS/036849 Safari/537.36 MicroMessenger/6.3.27.880 NetType/WIFI Language/zh_CN'
p88
sg16
S'759f2e16a7cf17181ad86f9b491ac761'
p89
sa(dp90
g2
S'19502'
p91
sg4
S'698'
p92
sg6
S'c053915e38aa9f35ab188f266fa74b8a'
p93
sg8
S'xx8157ccb00c8e7b5af928a9dd4ea7a46b'
p94
sg10
S'xxe180077fe8d7d78330cdf873114ffaa6'
p95
sg12
S'xx19db038d4d766b641ece1a49a097cca1'
p96
sg14
S'Mozilla/5.0 (Linux; Android 5.1.1; OPPO A33m Build/LMY47V) AppleWebKit/537.36 (KHTML, like Gecko) Version/4.0 Chrome/37.0.0.0 Mobile MQQBrowser/6.8 TBS/036869 Safari/537.36 MicroMessenger/6.3.27.880 NetType/WIFI Language/zh_CN'
p97
sg16
S'660593a9d319913e014da5cb99341c9e'
p98
sa(dp99
g2
S'19502'
p100
sg4
S'713'
p101
sg6
S'c053915e38aa9f35ab188f266fa74b8a'
p102
sg8
S'xx8157ccb00c8e7b5af928a9dd4ea7a46b'
p103
sg10
S'xxe180077fe8d7d78330cdf873114ffaa6'
p104
sg12
S'xx19db038d4d766b641ece1a49a097cca1'
p105
sg14
S'Mozilla/5.0 (Linux; Android 5.1.1; OPPO A33m Build/LMY47V) AppleWebKit/537.36 (KHTML, like Gecko) Version/4.0 Chrome/37.0.0.0 Mobile MQQBrowser/6.8 TBS/036869 Safari/537.36 MicroMessenger/6.3.27.880 NetType/WIFI Language/zh_CN'
p106
sg16
S'660593a9d319913e014da5cb99341c9e'
p107
sa(dp108
g2
S'42133'
p109
sg4
S'809'
p110
sg6
S'03f52a4f7e66c7ccc384ce91e7bd50e9'
p111
sg8
S'xx65fb85131ae39510134a20fd84a33be7'
p112
sg10
S'xxe180077fe8d7d78330cdf873114ffaa6'
p113
sg12
S'xx19db038d4d766b641ece1a49a097cca1'
p114
sg14
S'Mozilla/5.0 (Linux; Android 5.1.1; OPPO A33m Build/LMY47V) AppleWebKit/537.36 (KHTML, like Gecko) Version/4.0 Chrome/37.0.0.0 Mobile MQQBrowser/6.8 TBS/036849 Safari/537.36 MicroMessenger/6.3.27.880 NetType/WIFI Language/zh_CN'
p115
sg16
S'759f2e16a7cf17181ad86f9b491ac761'
p116
sa(dp117
g2
S'36417'
p118
sg4
S'827'
p119
sg6
S'a9f31e12a2cb8b23a96e46d60b589c24'
p120
sg8
S'xx65fb85131ae39510134a20fd84a33be7'
p121
sg10
S'xxe180077fe8d7d78330cdf873114ffaa6'
p122
sg12
S'xx19db038d4d766b641ece1a49a097cca1'
p123
sg14
S'Mozilla/5.0 (Linux; Android 5.1.1; OPPO A33m Build/LMY47V) AppleWebKit/537.36 (KHTML, like Gecko) Version/4.0 Chrome/37.0.0.0 Mobile MQQBrowser/6.8 TBS/036849 Safari/537.36 MicroMessenger/6.3.27.880 NetType/WIFI Language/zh_CN'
p124
sg16
S'759f2e16a7cf17181ad86f9b491ac761'
p125
sa(dp126
g2
S'42133'
p127
sg4
S'1167'
p128
sg6
S'03f52a4f7e66c7ccc384ce91e7bd50e9'
p129
sg8
S'xx65fb85131ae39510134a20fd84a33be7'
p130
sg10
S'xxe180077fe8d7d78330cdf873114ffaa6'
p131
sg12
S'xx19db038d4d766b641ece1a49a097cca1'
p132
sg14
S'Mozilla/5.0 (Linux; Android 5.1.1; OPPO A33m Build/LMY47V) AppleWebKit/537.36 (KHTML, like Gecko) Version/4.0 Chrome/37.0.0.0 Mobile MQQBrowser/6.8 TBS/036849 Safari/537.36 MicroMessenger/6.3.27.880 NetType/WIFI Language/zh_CN'
p133
sg16
S'759f2e16a7cf17181ad86f9b491ac761'
p134
sa(dp135
g2
S'22159'
p136
sg4
S'1284'
p137
sg6
S'79b2b9904f23a9b5f103957129608106'
p138
sg8
S'xx794056932d3ea25e0101632de42a3190'
p139
sg10
S'xxe180077fe8d7d78330cdf873114ffaa6'
p140
sg12
S'xx19db038d4d766b641ece1a49a097cca1'
p141
sg14
S'Mozilla/5.0 (Linux; Android 5.1.1; OPPO A33m Build/LMY47V) AppleWebKit/537.36 (KHTML, like Gecko) Version/4.0 Chrome/37.0.0.0 Mobile MQQBrowser/6.8 TBS/036824 Safari/537.36 MicroMessenger/6.3.25.861 NetType/WIFI Language/zh_CN'
p142
sg16
S'4135570fa1c75ad7e7cc608f94775a96'
p143
sa(dp144
g2
S'22159'
p145
sg4
S'1298'
p146
sg6
S'79b2b9904f23a9b5f103957129608106'
p147
sg8
S'xx794056932d3ea25e0101632de42a3190'
p148
sg10
S'xxe180077fe8d7d78330cdf873114ffaa6'
p149
sg12
S'xx19db038d4d766b641ece1a49a097cca1'
p150
sg14
S'Mozilla/5.0 (Linux; Android 5.1.1; OPPO A33m Build/LMY47V) AppleWebKit/537.36 (KHTML, like Gecko) Version/4.0 Chrome/37.0.0.0 Mobile MQQBrowser/6.8 TBS/036824 Safari/537.36 MicroMessenger/6.3.25.861 NetType/WIFI Language/zh_CN'
p151
sg16
S'4135570fa1c75ad7e7cc608f94775a96'
p152
sa(dp153
g2
S'19502'
p154
sg4
S'1329'
p155
sg6
S'c053915e38aa9f35ab188f266fa74b8a'
p156
sg8
S'xx8157ccb00c8e7b5af928a9dd4ea7a46b'
p157
sg10
S'xxe180077fe8d7d78330cdf873114ffaa6'
p158
sg12
S'xx19db038d4d766b641ece1a49a097cca1'
p159
sg14
S'Mozilla/5.0 (Linux; Android 5.1.1; OPPO A33m Build/LMY47V) AppleWebKit/537.36 (KHTML, like Gecko) Version/4.0 Chrome/37.0.0.0 Mobile MQQBrowser/6.8 TBS/036869 Safari/537.36 MicroMessenger/6.3.27.880 NetType/WIFI Language/zh_CN'
p160
sg16
S'660593a9d319913e014da5cb99341c9e'
p161
sa(dp162
g2
S'42133'
p163
sg4
S'1339'
p164
sg6
S'03f52a4f7e66c7ccc384ce91e7bd50e9'
p165
sg8
S'xx65fb85131ae39510134a20fd84a33be7'
p166
sg10
S'xxe180077fe8d7d78330cdf873114ffaa6'
p167
sg12
S'xx19db038d4d766b641ece1a49a097cca1'
p168
sg14
S'Mozilla/5.0 (Linux; Android 5.1.1; OPPO A33m Build/LMY47V) AppleWebKit/537.36 (KHTML, like Gecko) Version/4.0 Chrome/37.0.0.0 Mobile MQQBrowser/6.8 TBS/036849 Safari/537.36 MicroMessenger/6.3.27.880 NetType/WIFI Language/zh_CN'
p169
sg16
S'759f2e16a7cf17181ad86f9b491ac761'
p170
sa(dp171
g2
S'19502'
p172
sg4
S'1342'
p173
sg6
S'c053915e38aa9f35ab188f266fa74b8a'
p174
sg8
S'xx8157ccb00c8e7b5af928a9dd4ea7a46b'
p175
sg10
S'xxe180077fe8d7d78330cdf873114ffaa6'
p176
sg12
S'xx19db038d4d766b641ece1a49a097cca1'
p177
sg14
S'Mozilla/5.0 (Linux; Android 5.1.1; OPPO A33m Build/LMY47V) AppleWebKit/537.36 (KHTML, like Gecko) Version/4.0 Chrome/37.0.0.0 Mobile MQQBrowser/6.8 TBS/036869 Safari/537.36 MicroMessenger/6.3.27.880 NetType/WIFI Language/zh_CN'
p178
sg16
S'660593a9d319913e014da5cb99341c9e'
p179
sa(dp180
g2
S'49380'
p181
sg4
S'1363'
p182
sg6
S'79b2b9904f23a9b5f103957129608106'
p183
sg8
S'xx99149edae9b9049c8844e13386d88d79'
p184
sg10
S'xxe180077fe8d7d78330cdf873114ffaa6'
p185
sg12
S'xx19db038d4d766b641ece1a49a097cca1'
p186
sg14
S'Mozilla/5.0 (Linux; Android 5.1.1; OPPO A33m Build/LMY47V) AppleWebKit/537.36 (KHTML, like Gecko) Version/4.0 Chrome/37.0.0.0 Mobile MQQBrowser/6.8 TBS/036849 Safari/537.36 MicroMessenger/6.3.25.861 NetType/WIFI Language/zh_CN'
p187
sg16
S'91eb1e10f0339622e690a8511a7ba245'
p188
sa(dp189
g2
S'49380'
p190
sg4
S'1373'
p191
sg6
S'79b2b9904f23a9b5f103957129608106'
p192
sg8
S'xx99149edae9b9049c8844e13386d88d79'
p193
sg10
S'xxe180077fe8d7d78330cdf873114ffaa6'
p194
sg12
S'xx19db038d4d766b641ece1a49a097cca1'
p195
sg14
S'Mozilla/5.0 (Linux; Android 5.1.1; OPPO A33m Build/LMY47V) AppleWebKit/537.36 (KHTML, like Gecko) Version/4.0 Chrome/37.0.0.0 Mobile MQQBrowser/6.8 TBS/036849 Safari/537.36 MicroMessenger/6.3.25.861 NetType/WIFI Language/zh_CN'
p196
sg16
S'91eb1e10f0339622e690a8511a7ba245'
p197
sa(dp198
g2
S'49751'
p199
sg4
S'1393'
p200
sg6
S'83f5d8cfcd78f29466dca6167994ebe7'
p201
sg8
S'xx99149edae9b9049c8844e13386d88d79'
p202
sg10
S'xxe180077fe8d7d78330cdf873114ffaa6'
p203
sg12
S'xx19db038d4d766b641ece1a49a097cca1'
p204
sg14
S'Mozilla/5.0 (Linux; Android 5.1.1; OPPO A33m Build/LMY47V) AppleWebKit/537.36 (KHTML, like Gecko) Version/4.0 Chrome/37.0.0.0 Mobile MQQBrowser/6.8 TBS/036849 Safari/537.36 MicroMessenger/6.3.25.861 NetType/WIFI Language/zh_CN'
p205
sg16
S'91eb1e10f0339622e690a8511a7ba245'
p206
sa(dp207
g2
S'49751'
p208
sg4
S'1409'
p209
sg6
S'83f5d8cfcd78f29466dca6167994ebe7'
p210
sg8
S'xx99149edae9b9049c8844e13386d88d79'
p211
sg10
S'xxe180077fe8d7d78330cdf873114ffaa6'
p212
sg12
S'xx19db038d4d766b641ece1a49a097cca1'
p213
sg14
S'Mozilla/5.0 (Linux; Android 5.1.1; OPPO A33m Build/LMY47V) AppleWebKit/537.36 (KHTML, like Gecko) Version/4.0 Chrome/37.0.0.0 Mobile MQQBrowser/6.8 TBS/036849 Safari/537.36 MicroMessenger/6.3.25.861 NetType/WIFI Language/zh_CN'
p214
sg16
S'91eb1e10f0339622e690a8511a7ba245'
p215
sa(dp216
g2
S'42133'
p217
sg4
S'1784'
p218
sg6
S'03f52a4f7e66c7ccc384ce91e7bd50e9'
p219
sg8
S'xx65fb85131ae39510134a20fd84a33be7'
p220
sg10
S'xxe180077fe8d7d78330cdf873114ffaa6'
p221
sg12
S'xx19db038d4d766b641ece1a49a097cca1'
p222
sg14
S'Mozilla/5.0 (Linux; Android 5.1.1; OPPO A33m Build/LMY47V) AppleWebKit/537.36 (KHTML, like Gecko) Version/4.0 Chrome/37.0.0.0 Mobile MQQBrowser/6.8 TBS/036849 Safari/537.36 MicroMessenger/6.3.27.880 NetType/WIFI Language/zh_CN'
p223
sg16
S'759f2e16a7cf17181ad86f9b491ac761'
p224
sa(dp225
g2
S'42133'
p226
sg4
S'1802'
p227
sg6
S'03f52a4f7e66c7ccc384ce91e7bd50e9'
p228
sg8
S'xx65fb85131ae39510134a20fd84a33be7'
p229
sg10
S'xxe180077fe8d7d78330cdf873114ffaa6'
p230
sg12
S'xx19db038d4d766b641ece1a49a097cca1'
p231
sg14
S'Mozilla/5.0 (Linux; Android 5.1.1; OPPO A33m Build/LMY47V) AppleWebKit/537.36 (KHTML, like Gecko) Version/4.0 Chrome/37.0.0.0 Mobile MQQBrowser/6.8 TBS/036849 Safari/537.36 MicroMessenger/6.3.27.880 NetType/WIFI Language/zh_CN'
p232
sg16
S'759f2e16a7cf17181ad86f9b491ac761'
p233
sa(dp234
g2
S'19502'
p235
sg4
S'1828'
p236
sg6
S'c053915e38aa9f35ab188f266fa74b8a'
p237
sg8
S'xx8157ccb00c8e7b5af928a9dd4ea7a46b'
p238
sg10
S'xxe180077fe8d7d78330cdf873114ffaa6'
p239
sg12
S'xx19db038d4d766b641ece1a49a097cca1'
p240
sg14
S'Mozilla/5.0 (Linux; Android 5.1.1; OPPO A33m Build/LMY47V) AppleWebKit/537.36 (KHTML, like Gecko) Version/4.0 Chrome/37.0.0.0 Mobile MQQBrowser/6.8 TBS/036869 Safari/537.36 MicroMessenger/6.3.27.880 NetType/WIFI Language/zh_CN'
p241
sg16
S'660593a9d319913e014da5cb99341c9e'
p242
sa(dp243
g2
S'19502'
p244
sg4
S'1839'
p245
sg6
S'c053915e38aa9f35ab188f266fa74b8a'
p246
sg8
S'xx8157ccb00c8e7b5af928a9dd4ea7a46b'
p247
sg10
S'xxe180077fe8d7d78330cdf873114ffaa6'
p248
sg12
S'xx19db038d4d766b641ece1a49a097cca1'
p249
sg14
S'Mozilla/5.0 (Linux; Android 5.1.1; OPPO A33m Build/LMY47V) AppleWebKit/537.36 (KHTML, like Gecko) Version/4.0 Chrome/37.0.0.0 Mobile MQQBrowser/6.8 TBS/036869 Safari/537.36 MicroMessenger/6.3.27.880 NetType/WIFI Language/zh_CN'
p250
sg16
S'660593a9d319913e014da5cb99341c9e'
p251
sa(dp252
g2
S'19502'
p253
sg4
S'2691'
p254
sg6
S'c053915e38aa9f35ab188f266fa74b8a'
p255
sg8
S'xx8157ccb00c8e7b5af928a9dd4ea7a46b'
p256
sg10
S'xxe180077fe8d7d78330cdf873114ffaa6'
p257
sg12
S'xx19db038d4d766b641ece1a49a097cca1'
p258
sg14
S'Mozilla/5.0 (Linux; Android 5.1.1; OPPO A33m Build/LMY47V) AppleWebKit/537.36 (KHTML, like Gecko) Version/4.0 Chrome/37.0.0.0 Mobile MQQBrowser/6.8 TBS/036869 Safari/537.36 MicroMessenger/6.3.27.880 NetType/WIFI Language/zh_CN'
p259
sg16
S'660593a9d319913e014da5cb99341c9e'
p260
sa(dp261
g2
S'19502'
p262
sg4
S'2708'
p263
sg6
S'c053915e38aa9f35ab188f266fa74b8a'
p264
sg8
S'xx8157ccb00c8e7b5af928a9dd4ea7a46b'
p265
sg10
S'xxe180077fe8d7d78330cdf873114ffaa6'
p266
sg12
S'xx19db038d4d766b641ece1a49a097cca1'
p267
sg14
S'Mozilla/5.0 (Linux; Android 5.1.1; OPPO A33m Build/LMY47V) AppleWebKit/537.36 (KHTML, like Gecko) Version/4.0 Chrome/37.0.0.0 Mobile MQQBrowser/6.8 TBS/036869 Safari/537.36 MicroMessenger/6.3.27.880 NetType/WIFI Language/zh_CN'
p268
sg16
S'660593a9d319913e014da5cb99341c9e'
p269
sa(dp270
g2
S'13554'
p271
sg4
S'3366'
p272
sg6
S'fac5c551a709b138e022afab6ec0ff4f'
p273
sg8
S'xx65fb85131ae39510134a20fd84a33be7'
p274
sg10
S'xxe180077fe8d7d78330cdf873114ffaa6'
p275
sg12
S'xx19db038d4d766b641ece1a49a097cca1'
p276
sg14
S'Mozilla/5.0 (Linux; Android 5.1.1; OPPO A33m Build/LMY47V) AppleWebKit/537.36 (KHTML, like Gecko) Version/4.0 Chrome/37.0.0.0 Mobile MQQBrowser/6.8 TBS/036849 Safari/537.36 MicroMessenger/6.3.27.880 NetType/WIFI Language/zh_CN'
p277
sg16
S'759f2e16a7cf17181ad86f9b491ac761'
p278
sa(dp279
g2
S'13554'
p280
sg4
S'3386'
p281
sg6
S'fac5c551a709b138e022afab6ec0ff4f'
p282
sg8
S'xx65fb85131ae39510134a20fd84a33be7'
p283
sg10
S'xxe180077fe8d7d78330cdf873114ffaa6'
p284
sg12
S'xx19db038d4d766b641ece1a49a097cca1'
p285
sg14
S'Mozilla/5.0 (Linux; Android 5.1.1; OPPO A33m Build/LMY47V) AppleWebKit/537.36 (KHTML, like Gecko) Version/4.0 Chrome/37.0.0.0 Mobile MQQBrowser/6.8 TBS/036849 Safari/537.36 MicroMessenger/6.3.27.880 NetType/WIFI Language/zh_CN'
p286
sg16
S'759f2e16a7cf17181ad86f9b491ac761'
p287
sa(dp288
g2
S'30763'
p289
sg4
S'3557'
p290
sg6
S'4b721cebadb6882353815251e6bf1904'
p291
sg8
S'xx65fb85131ae39510134a20fd84a33be7'
p292
sg10
S'xxe180077fe8d7d78330cdf873114ffaa6'
p293
sg12
S'xx19db038d4d766b641ece1a49a097cca1'
p294
sg14
S'Mozilla/5.0 (Linux; Android 5.1.1; OPPO A33m Build/LMY47V) AppleWebKit/537.36 (KHTML, like Gecko) Version/4.0 Chrome/37.0.0.0 Mobile MQQBrowser/6.8 TBS/036849 Safari/537.36 MicroMessenger/6.3.27.880 NetType/WIFI Language/zh_CN'
p295
sg16
S'759f2e16a7cf17181ad86f9b491ac761'
p296
sa(dp297
g2
S'42144'
p298
sg4
S'3657'
p299
sg6
S'03f52a4f7e66c7ccc384ce91e7bd50e9'
p300
sg8
S'xx65fb85131ae39510134a20fd84a33be7'
p301
sg10
S'xxe180077fe8d7d78330cdf873114ffaa6'
p302
sg12
S'xx19db038d4d766b641ece1a49a097cca1'
p303
sg14
S'Mozilla/5.0 (Linux; Android 5.1.1; OPPO A33m Build/LMY47V) AppleWebKit/537.36 (KHTML, like Gecko) Version/4.0 Chrome/37.0.0.0 Mobile MQQBrowser/6.8 TBS/036849 Safari/537.36 MicroMessenger/6.3.27.880 NetType/WIFI Language/zh_CN'
p304
sg16
S'759f2e16a7cf17181ad86f9b491ac761'
p305
sa(dp306
g2
S'42144'
p307
sg4
S'3685'
p308
sg6
S'03f52a4f7e66c7ccc384ce91e7bd50e9'
p309
sg8
S'xx65fb85131ae39510134a20fd84a33be7'
p310
sg10
S'xxe180077fe8d7d78330cdf873114ffaa6'
p311
sg12
S'xx19db038d4d766b641ece1a49a097cca1'
p312
sg14
S'Mozilla/5.0 (Linux; Android 5.1.1; OPPO A33m Build/LMY47V) AppleWebKit/537.36 (KHTML, like Gecko) Version/4.0 Chrome/37.0.0.0 Mobile MQQBrowser/6.8 TBS/036849 Safari/537.36 MicroMessenger/6.3.27.880 NetType/WIFI Language/zh_CN'
p313
sg16
S'759f2e16a7cf17181ad86f9b491ac761'
p314
sa(dp315
g2
S'42144'
p316
sg4
S'3737'
p317
sg6
S'03f52a4f7e66c7ccc384ce91e7bd50e9'
p318
sg8
S'xx65fb85131ae39510134a20fd84a33be7'
p319
sg10
S'xxe180077fe8d7d78330cdf873114ffaa6'
p320
sg12
S'xx19db038d4d766b641ece1a49a097cca1'
p321
sg14
S'Mozilla/5.0 (Linux; Android 5.1.1; OPPO A33m Build/LMY47V) AppleWebKit/537.36 (KHTML, like Gecko) Version/4.0 Chrome/37.0.0.0 Mobile MQQBrowser/6.8 TBS/036849 Safari/537.36 MicroMessenger/6.3.27.880 NetType/WIFI Language/zh_CN'
p322
sg16
S'759f2e16a7cf17181ad86f9b491ac761'
p323
sa(dp324
g2
S'42144'
p325
sg4
S'3756'
p326
sg6
S'03f52a4f7e66c7ccc384ce91e7bd50e9'
p327
sg8
S'xx65fb85131ae39510134a20fd84a33be7'
p328
sg10
S'xxe180077fe8d7d78330cdf873114ffaa6'
p329
sg12
S'xx19db038d4d766b641ece1a49a097cca1'
p330
sg14
S'Mozilla/5.0 (Linux; Android 5.1.1; OPPO A33m Build/LMY47V) AppleWebKit/537.36 (KHTML, like Gecko) Version/4.0 Chrome/37.0.0.0 Mobile MQQBrowser/6.8 TBS/036849 Safari/537.36 MicroMessenger/6.3.27.880 NetType/WIFI Language/zh_CN'
p331
sg16
S'759f2e16a7cf17181ad86f9b491ac761'
p332
sa(dp333
g2
S'42144'
p334
sg4
S'3796'
p335
sg6
S'03f52a4f7e66c7ccc384ce91e7bd50e9'
p336
sg8
S'xx65fb85131ae39510134a20fd84a33be7'
p337
sg10
S'xxe180077fe8d7d78330cdf873114ffaa6'
p338
sg12
S'xx19db038d4d766b641ece1a49a097cca1'
p339
sg14
S'Mozilla/5.0 (Linux; Android 5.1.1; OPPO A33m Build/LMY47V) AppleWebKit/537.36 (KHTML, like Gecko) Version/4.0 Chrome/37.0.0.0 Mobile MQQBrowser/6.8 TBS/036849 Safari/537.36 MicroMessenger/6.3.27.880 NetType/WIFI Language/zh_CN'
p340
sg16
S'759f2e16a7cf17181ad86f9b491ac761'
p341
sa(dp342
g2
S'42144'
p343
sg4
S'3810'
p344
sg6
S'03f52a4f7e66c7ccc384ce91e7bd50e9'
p345
sg8
S'xx65fb85131ae39510134a20fd84a33be7'
p346
sg10
S'xxe180077fe8d7d78330cdf873114ffaa6'
p347
sg12
S'xx19db038d4d766b641ece1a49a097cca1'
p348
sg14
S'Mozilla/5.0 (Linux; Android 5.1.1; OPPO A33m Build/LMY47V) AppleWebKit/537.36 (KHTML, like Gecko) Version/4.0 Chrome/37.0.0.0 Mobile MQQBrowser/6.8 TBS/036849 Safari/537.36 MicroMessenger/6.3.27.880 NetType/WIFI Language/zh_CN'
p349
sg16
S'759f2e16a7cf17181ad86f9b491ac761'
p350
sa(dp351
g2
S'42144'
p352
sg4
S'3830'
p353
sg6
S'03f52a4f7e66c7ccc384ce91e7bd50e9'
p354
sg8
S'xx65fb85131ae39510134a20fd84a33be7'
p355
sg10
S'xxe180077fe8d7d78330cdf873114ffaa6'
p356
sg12
S'xx19db038d4d766b641ece1a49a097cca1'
p357
sg14
S'Mozilla/5.0 (Linux; Android 5.1.1; OPPO A33m Build/LMY47V) AppleWebKit/537.36 (KHTML, like Gecko) Version/4.0 Chrome/37.0.0.0 Mobile MQQBrowser/6.8 TBS/036849 Safari/537.36 MicroMessenger/6.3.27.880 NetType/WIFI Language/zh_CN'
p358
sg16
S'759f2e16a7cf17181ad86f9b491ac761'
p359
sa(dp360
g2
S'42144'
p361
sg4
S'3851'
p362
sg6
S'03f52a4f7e66c7ccc384ce91e7bd50e9'
p363
sg8
S'xx65fb85131ae39510134a20fd84a33be7'
p364
sg10
S'xxe180077fe8d7d78330cdf873114ffaa6'
p365
sg12
S'xx19db038d4d766b641ece1a49a097cca1'
p366
sg14
S'Mozilla/5.0 (Linux; Android 5.1.1; OPPO A33m Build/LMY47V) AppleWebKit/537.36 (KHTML, like Gecko) Version/4.0 Chrome/37.0.0.0 Mobile MQQBrowser/6.8 TBS/036849 Safari/537.36 MicroMessenger/6.3.27.880 NetType/WIFI Language/zh_CN'
p367
sg16
S'759f2e16a7cf17181ad86f9b491ac761'
p368
sa(dp369
g2
S'42144'
p370
sg4
S'3923'
p371
sg6
S'03f52a4f7e66c7ccc384ce91e7bd50e9'
p372
sg8
S'xx65fb85131ae39510134a20fd84a33be7'
p373
sg10
S'xxe180077fe8d7d78330cdf873114ffaa6'
p374
sg12
S'xx19db038d4d766b641ece1a49a097cca1'
p375
sg14
S'Mozilla/5.0 (Linux; Android 5.1.1; OPPO A33m Build/LMY47V) AppleWebKit/537.36 (KHTML, like Gecko) Version/4.0 Chrome/37.0.0.0 Mobile MQQBrowser/6.8 TBS/036849 Safari/537.36 MicroMessenger/6.3.27.880 NetType/WIFI Language/zh_CN'
p376
sg16
S'759f2e16a7cf17181ad86f9b491ac761'
p377
sa(dp378
g2
S'42144'
p379
sg4
S'4277'
p380
sg6
S'03f52a4f7e66c7ccc384ce91e7bd50e9'
p381
sg8
S'xx65fb85131ae39510134a20fd84a33be7'
p382
sg10
S'xxe180077fe8d7d78330cdf873114ffaa6'
p383
sg12
S'xx19db038d4d766b641ece1a49a097cca1'
p384
sg14
S'Mozilla/5.0 (Linux; Android 5.1.1; OPPO A33m Build/LMY47V) AppleWebKit/537.36 (KHTML, like Gecko) Version/4.0 Chrome/37.0.0.0 Mobile MQQBrowser/6.8 TBS/036849 Safari/537.36 MicroMessenger/6.3.27.880 NetType/WIFI Language/zh_CN'
p385
sg16
S'759f2e16a7cf17181ad86f9b491ac761'
p386
sa(dp387
g2
S'42144'
p388
sg4
S'4420'
p389
sg6
S'03f52a4f7e66c7ccc384ce91e7bd50e9'
p390
sg8
S'xx65fb85131ae39510134a20fd84a33be7'
p391
sg10
S'xxe180077fe8d7d78330cdf873114ffaa6'
p392
sg12
S'xx19db038d4d766b641ece1a49a097cca1'
p393
sg14
S'Mozilla/5.0 (Linux; Android 5.1.1; OPPO A33m Build/LMY47V) AppleWebKit/537.36 (KHTML, like Gecko) Version/4.0 Chrome/37.0.0.0 Mobile MQQBrowser/6.8 TBS/036849 Safari/537.36 MicroMessenger/6.3.27.880 NetType/WIFI Language/zh_CN'
p394
sg16
S'759f2e16a7cf17181ad86f9b491ac761'
p395
sa(dp396
g2
S'42144'
p397
sg4
S'4563'
p398
sg6
S'03f52a4f7e66c7ccc384ce91e7bd50e9'
p399
sg8
S'xx65fb85131ae39510134a20fd84a33be7'
p400
sg10
S'xxe180077fe8d7d78330cdf873114ffaa6'
p401
sg12
S'xx19db038d4d766b641ece1a49a097cca1'
p402
sg14
S'Mozilla/5.0 (Linux; Android 5.1.1; OPPO A33m Build/LMY47V) AppleWebKit/537.36 (KHTML, like Gecko) Version/4.0 Chrome/37.0.0.0 Mobile MQQBrowser/6.8 TBS/036849 Safari/537.36 MicroMessenger/6.3.27.880 NetType/WIFI Language/zh_CN'
p403
sg16
S'759f2e16a7cf17181ad86f9b491ac761'
p404
sa(dp405
g2
S'42144'
p406
sg4
S'4628'
p407
sg6
S'03f52a4f7e66c7ccc384ce91e7bd50e9'
p408
sg8
S'xx65fb85131ae39510134a20fd84a33be7'
p409
sg10
S'xxe180077fe8d7d78330cdf873114ffaa6'
p410
sg12
S'xx19db038d4d766b641ece1a49a097cca1'
p411
sg14
S'Mozilla/5.0 (Linux; Android 5.1.1; OPPO A33m Build/LMY47V) AppleWebKit/537.36 (KHTML, like Gecko) Version/4.0 Chrome/37.0.0.0 Mobile MQQBrowser/6.8 TBS/036849 Safari/537.36 MicroMessenger/6.3.27.880 NetType/WIFI Language/zh_CN'
p412
sg16
S'759f2e16a7cf17181ad86f9b491ac761'
p413
sa(dp414
g2
S'42144'
p415
sg4
S'4643'
p416
sg6
S'03f52a4f7e66c7ccc384ce91e7bd50e9'
p417
sg8
S'xx65fb85131ae39510134a20fd84a33be7'
p418
sg10
S'xxe180077fe8d7d78330cdf873114ffaa6'
p419
sg12
S'xx19db038d4d766b641ece1a49a097cca1'
p420
sg14
S'Mozilla/5.0 (Linux; Android 5.1.1; OPPO A33m Build/LMY47V) AppleWebKit/537.36 (KHTML, like Gecko) Version/4.0 Chrome/37.0.0.0 Mobile MQQBrowser/6.8 TBS/036849 Safari/537.36 MicroMessenger/6.3.27.880 NetType/WIFI Language/zh_CN'
p421
sg16
S'759f2e16a7cf17181ad86f9b491ac761'
p422
sa(dp423
g2
S'42144'
p424
sg4
S'4670'
p425
sg6
S'03f52a4f7e66c7ccc384ce91e7bd50e9'
p426
sg8
S'xx65fb85131ae39510134a20fd84a33be7'
p427
sg10
S'xxe180077fe8d7d78330cdf873114ffaa6'
p428
sg12
S'xx19db038d4d766b641ece1a49a097cca1'
p429
sg14
S'Mozilla/5.0 (Linux; Android 5.1.1; OPPO A33m Build/LMY47V) AppleWebKit/537.36 (KHTML, like Gecko) Version/4.0 Chrome/37.0.0.0 Mobile MQQBrowser/6.8 TBS/036849 Safari/537.36 MicroMessenger/6.3.27.880 NetType/WIFI Language/zh_CN'
p430
sg16
S'759f2e16a7cf17181ad86f9b491ac761'
p431
sa(dp432
g2
S'42144'
p433
sg4
S'4686'
p434
sg6
S'03f52a4f7e66c7ccc384ce91e7bd50e9'
p435
sg8
S'xx65fb85131ae39510134a20fd84a33be7'
p436
sg10
S'xxe180077fe8d7d78330cdf873114ffaa6'
p437
sg12
S'xx19db038d4d766b641ece1a49a097cca1'
p438
sg14
S'Mozilla/5.0 (Linux; Android 5.1.1; OPPO A33m Build/LMY47V) AppleWebKit/537.36 (KHTML, like Gecko) Version/4.0 Chrome/37.0.0.0 Mobile MQQBrowser/6.8 TBS/036849 Safari/537.36 MicroMessenger/6.3.27.880 NetType/WIFI Language/zh_CN'
p439
sg16
S'759f2e16a7cf17181ad86f9b491ac761'
p440
sa(dp441
g2
S'42144'
p442
sg4
S'4702'
p443
sg6
S'03f52a4f7e66c7ccc384ce91e7bd50e9'
p444
sg8
S'xx65fb85131ae39510134a20fd84a33be7'
p445
sg10
S'xxe180077fe8d7d78330cdf873114ffaa6'
p446
sg12
S'xx19db038d4d766b641ece1a49a097cca1'
p447
sg14
S'Mozilla/5.0 (Linux; Android 5.1.1; OPPO A33m Build/LMY47V) AppleWebKit/537.36 (KHTML, like Gecko) Version/4.0 Chrome/37.0.0.0 Mobile MQQBrowser/6.8 TBS/036849 Safari/537.36 MicroMessenger/6.3.27.880 NetType/WIFI Language/zh_CN'
p448
sg16
S'759f2e16a7cf17181ad86f9b491ac761'
p449
sa(dp450
g2
S'37849'
p451
sg4
S'5139'
p452
sg6
S'cbb5213867fd345f0c9e699b16abb6cb'
p453
sg8
S'xx8157ccb00c8e7b5af928a9dd4ea7a46b'
p454
sg10
S'xxe180077fe8d7d78330cdf873114ffaa6'
p455
sg12
S'xx19db038d4d766b641ece1a49a097cca1'
p456
sg14
S'Mozilla/5.0 (Linux; Android 5.1.1; OPPO A33m Build/LMY47V) AppleWebKit/537.36 (KHTML, like Gecko) Version/4.0 Chrome/37.0.0.0 Mobile MQQBrowser/6.8 TBS/036869 Safari/537.36 MicroMessenger/6.3.27.880 NetType/WIFI Language/zh_CN'
p457
sg16
S'660593a9d319913e014da5cb99341c9e'
p458
sa(dp459
g2
S'37849'
p460
sg4
S'5152'
p461
sg6
S'cbb5213867fd345f0c9e699b16abb6cb'
p462
sg8
S'xx8157ccb00c8e7b5af928a9dd4ea7a46b'
p463
sg10
S'xxe180077fe8d7d78330cdf873114ffaa6'
p464
sg12
S'xx19db038d4d766b641ece1a49a097cca1'
p465
sg14
S'Mozilla/5.0 (Linux; Android 5.1.1; OPPO A33m Build/LMY47V) AppleWebKit/537.36 (KHTML, like Gecko) Version/4.0 Chrome/37.0.0.0 Mobile MQQBrowser/6.8 TBS/036869 Safari/537.36 MicroMessenger/6.3.27.880 NetType/WIFI Language/zh_CN'
p466
sg16
S'660593a9d319913e014da5cb99341c9e'
p467
sa(dp468
g2
S'37849'
p469
sg4
S'5169'
p470
sg6
S'cbb5213867fd345f0c9e699b16abb6cb'
p471
sg8
S'xx8157ccb00c8e7b5af928a9dd4ea7a46b'
p472
sg10
S'xxe180077fe8d7d78330cdf873114ffaa6'
p473
sg12
S'xx19db038d4d766b641ece1a49a097cca1'
p474
sg14
S'Mozilla/5.0 (Linux; Android 5.1.1; OPPO A33m Build/LMY47V) AppleWebKit/537.36 (KHTML, like Gecko) Version/4.0 Chrome/37.0.0.0 Mobile MQQBrowser/6.8 TBS/036869 Safari/537.36 MicroMessenger/6.3.27.880 NetType/WIFI Language/zh_CN'
p475
sg16
S'660593a9d319913e014da5cb99341c9e'
p476
sa(dp477
g2
S'37849'
p478
sg4
S'5188'
p479
sg6
S'cbb5213867fd345f0c9e699b16abb6cb'
p480
sg8
S'xx8157ccb00c8e7b5af928a9dd4ea7a46b'
p481
sg10
S'xxe180077fe8d7d78330cdf873114ffaa6'
p482
sg12
S'xx19db038d4d766b641ece1a49a097cca1'
p483
sg14
S'Mozilla/5.0 (Linux; Android 5.1.1; OPPO A33m Build/LMY47V) AppleWebKit/537.36 (KHTML, like Gecko) Version/4.0 Chrome/37.0.0.0 Mobile MQQBrowser/6.8 TBS/036869 Safari/537.36 MicroMessenger/6.3.27.880 NetType/WIFI Language/zh_CN'
p484
sg16
S'660593a9d319913e014da5cb99341c9e'
p485
sa(dp486
g2
S'18258'
p487
sg4
S'7060'
p488
sg6
S'4ee990ab108e83f65445cb4f6625d2b2'
p489
sg8
S'xx964baa9bb92afaa8c1b50fb814f53b19'
p490
sg10
S'xxe180077fe8d7d78330cdf873114ffaa6'
p491
sg12
S'xx19db038d4d766b641ece1a49a097cca1'
p492
sg14
S'Mozilla/5.0 (Linux; Android 5.1.1; OPPO A33m Build/LMY47V) AppleWebKit/537.36 (KHTML, like Gecko) Version/4.0 Chrome/37.0.0.0 Mobile MQQBrowser/6.8 TBS/036849 Safari/537.36 MicroMessenger/6.3.27.880 NetType/3gnet Language/zh_CN'
p493
sg16
S'd1093cbbf09fb5352b1b27702e85d472'
p494
sa(dp495
g2
S'18258'
p496
sg4
S'7072'
p497
sg6
S'4ee990ab108e83f65445cb4f6625d2b2'
p498
sg8
S'xx964baa9bb92afaa8c1b50fb814f53b19'
p499
sg10
S'xxe180077fe8d7d78330cdf873114ffaa6'
p500
sg12
S'xx19db038d4d766b641ece1a49a097cca1'
p501
sg14
S'Mozilla/5.0 (Linux; Android 5.1.1; OPPO A33m Build/LMY47V) AppleWebKit/537.36 (KHTML, like Gecko) Version/4.0 Chrome/37.0.0.0 Mobile MQQBrowser/6.8 TBS/036849 Safari/537.36 MicroMessenger/6.3.27.880 NetType/3gnet Language/zh_CN'
p502
sg16
S'd1093cbbf09fb5352b1b27702e85d472'
p503
sa.