(lp0
(dp1
S'user_id'
p2
S'17146'
p3
sS'data_id'
p4
S'478'
p5
sS'ip'
p6
S'0f8b3fbd158ce5bb75598246451f6336'
p7
sS'phone_B'
p8
S'xx874f51107c72a0711e5c66bd81285ac4'
p9
sS'phone_C'
p10
S'xxc92b030bf87f6cfcadb4139eda2373d7'
p11
sS'phone_A'
p12
S'xx19c52cf68426e2c015ac63806d7def0d'
p13
sS'user_agent'
p14
S'Mozilla/5.0 (Linux; Android 5.0.2; vivo Y51 Build/LRX22G) AppleWebKit/537.36 (KHTML, like Gecko) Version/4.0 Chrome/37.0.0.0 Mobile MQQBrowser/6.8 TBS/036849 Safari/537.36 MicroMessenger/6.3.27.880 NetType/WIFI Language/zh_CN'
p15
sS'ua'
p16
S'dd13b5fa44e59fb67b60ff9553e4958f'
p17
sa(dp18
g2
S'17146'
p19
sg4
S'492'
p20
sg6
S'0f8b3fbd158ce5bb75598246451f6336'
p21
sg8
S'xx874f51107c72a0711e5c66bd81285ac4'
p22
sg10
S'xxc92b030bf87f6cfcadb4139eda2373d7'
p23
sg12
S'xx19c52cf68426e2c015ac63806d7def0d'
p24
sg14
S'Mozilla/5.0 (Linux; Android 5.0.2; vivo Y51 Build/LRX22G) AppleWebKit/537.36 (KHTML, like Gecko) Version/4.0 Chrome/37.0.0.0 Mobile MQQBrowser/6.8 TBS/036849 Safari/537.36 MicroMessenger/6.3.27.880 NetType/WIFI Language/zh_CN'
p25
sg16
S'dd13b5fa44e59fb67b60ff9553e4958f'
p26
sa(dp27
g2
S'24310'
p28
sg4
S'928'
p29
sg6
S'2b06672f5c80a2ee52d2c2944ab68788'
p30
sg8
S'xx4aed7d6dbabff8aafafec47c2f9cd9d8'
p31
sg10
S'xxc92b030bf87f6cfcadb4139eda2373d7'
p32
sg12
S'xx19c52cf68426e2c015ac63806d7def0d'
p33
sg14
S'Mozilla/5.0 (Linux; Android 5.0.2; vivo Y51 Build/LRX22G) AppleWebKit/537.36 (KHTML, like Gecko) Version/4.0 Chrome/37.0.0.0 Mobile MQQBrowser/6.8 TBS/036862 Safari/537.36 MicroMessenger/6.3.25.861 NetType/cmnet Language/zh_CN'
p34
sg16
S'bc543d88bf01613fcb6fe854783e4945'
p35
sa(dp36
g2
S'24310'
p37
sg4
S'943'
p38
sg6
S'2b06672f5c80a2ee52d2c2944ab68788'
p39
sg8
S'xx4aed7d6dbabff8aafafec47c2f9cd9d8'
p40
sg10
S'xxc92b030bf87f6cfcadb4139eda2373d7'
p41
sg12
S'xx19c52cf68426e2c015ac63806d7def0d'
p42
sg14
S'Mozilla/5.0 (Linux; Android 5.0.2; vivo Y51 Build/LRX22G) AppleWebKit/537.36 (KHTML, like Gecko) Version/4.0 Chrome/37.0.0.0 Mobile MQQBrowser/6.8 TBS/036862 Safari/537.36 MicroMessenger/6.3.25.861 NetType/cmnet Language/zh_CN'
p43
sg16
S'bc543d88bf01613fcb6fe854783e4945'
p44
sa(dp45
g2
S'24310'
p46
sg4
S'1037'
p47
sg6
S'2b06672f5c80a2ee52d2c2944ab68788'
p48
sg8
S'xx4aed7d6dbabff8aafafec47c2f9cd9d8'
p49
sg10
S'xxc92b030bf87f6cfcadb4139eda2373d7'
p50
sg12
S'xx19c52cf68426e2c015ac63806d7def0d'
p51
sg14
S'Mozilla/5.0 (Linux; Android 5.0.2; vivo Y51 Build/LRX22G) AppleWebKit/537.36 (KHTML, like Gecko) Version/4.0 Chrome/37.0.0.0 Mobile MQQBrowser/6.8 TBS/036862 Safari/537.36 MicroMessenger/6.3.25.861 NetType/cmnet Language/zh_CN'
p52
sg16
S'bc543d88bf01613fcb6fe854783e4945'
p53
sa(dp54
g2
S'24310'
p55
sg4
S'1046'
p56
sg6
S'2b06672f5c80a2ee52d2c2944ab68788'
p57
sg8
S'xx4aed7d6dbabff8aafafec47c2f9cd9d8'
p58
sg10
S'xxc92b030bf87f6cfcadb4139eda2373d7'
p59
sg12
S'xx19c52cf68426e2c015ac63806d7def0d'
p60
sg14
S'Mozilla/5.0 (Linux; Android 5.0.2; vivo Y51 Build/LRX22G) AppleWebKit/537.36 (KHTML, like Gecko) Version/4.0 Chrome/37.0.0.0 Mobile MQQBrowser/6.8 TBS/036862 Safari/537.36 MicroMessenger/6.3.25.861 NetType/cmnet Language/zh_CN'
p61
sg16
S'bc543d88bf01613fcb6fe854783e4945'
p62
sa(dp63
g2
S'24310'
p64
sg4
S'1070'
p65
sg6
S'2b06672f5c80a2ee52d2c2944ab68788'
p66
sg8
S'xx4aed7d6dbabff8aafafec47c2f9cd9d8'
p67
sg10
S'xxc92b030bf87f6cfcadb4139eda2373d7'
p68
sg12
S'xx19c52cf68426e2c015ac63806d7def0d'
p69
sg14
S'Mozilla/5.0 (Linux; Android 5.0.2; vivo Y51 Build/LRX22G) AppleWebKit/537.36 (KHTML, like Gecko) Version/4.0 Chrome/37.0.0.0 Mobile MQQBrowser/6.8 TBS/036862 Safari/537.36 MicroMessenger/6.3.25.861 NetType/cmnet Language/zh_CN'
p70
sg16
S'bc543d88bf01613fcb6fe854783e4945'
p71
sa(dp72
g2
S'24310'
p73
sg4
S'1080'
p74
sg6
S'2b06672f5c80a2ee52d2c2944ab68788'
p75
sg8
S'xx4aed7d6dbabff8aafafec47c2f9cd9d8'
p76
sg10
S'xxc92b030bf87f6cfcadb4139eda2373d7'
p77
sg12
S'xx19c52cf68426e2c015ac63806d7def0d'
p78
sg14
S'Mozilla/5.0 (Linux; Android 5.0.2; vivo Y51 Build/LRX22G) AppleWebKit/537.36 (KHTML, like Gecko) Version/4.0 Chrome/37.0.0.0 Mobile MQQBrowser/6.8 TBS/036862 Safari/537.36 MicroMessenger/6.3.25.861 NetType/cmnet Language/zh_CN'
p79
sg16
S'bc543d88bf01613fcb6fe854783e4945'
p80
sa(dp81
g2
S'24310'
p82
sg4
S'1097'
p83
sg6
S'2b06672f5c80a2ee52d2c2944ab68788'
p84
sg8
S'xx4aed7d6dbabff8aafafec47c2f9cd9d8'
p85
sg10
S'xxc92b030bf87f6cfcadb4139eda2373d7'
p86
sg12
S'xx19c52cf68426e2c015ac63806d7def0d'
p87
sg14
S'Mozilla/5.0 (Linux; Android 5.0.2; vivo Y51 Build/LRX22G) AppleWebKit/537.36 (KHTML, like Gecko) Version/4.0 Chrome/37.0.0.0 Mobile MQQBrowser/6.8 TBS/036862 Safari/537.36 MicroMessenger/6.3.25.861 NetType/cmnet Language/zh_CN'
p88
sg16
S'bc543d88bf01613fcb6fe854783e4945'
p89
sa(dp90
g2
S'24310'
p91
sg4
S'1130'
p92
sg6
S'2b06672f5c80a2ee52d2c2944ab68788'
p93
sg8
S'xx4aed7d6dbabff8aafafec47c2f9cd9d8'
p94
sg10
S'xxc92b030bf87f6cfcadb4139eda2373d7'
p95
sg12
S'xx19c52cf68426e2c015ac63806d7def0d'
p96
sg14
S'Mozilla/5.0 (Linux; Android 5.0.2; vivo Y51 Build/LRX22G) AppleWebKit/537.36 (KHTML, like Gecko) Version/4.0 Chrome/37.0.0.0 Mobile MQQBrowser/6.8 TBS/036862 Safari/537.36 MicroMessenger/6.3.25.861 NetType/cmnet Language/zh_CN'
p97
sg16
S'bc543d88bf01613fcb6fe854783e4945'
p98
sa(dp99
g2
S'24310'
p100
sg4
S'1140'
p101
sg6
S'2b06672f5c80a2ee52d2c2944ab68788'
p102
sg8
S'xx4aed7d6dbabff8aafafec47c2f9cd9d8'
p103
sg10
S'xxc92b030bf87f6cfcadb4139eda2373d7'
p104
sg12
S'xx19c52cf68426e2c015ac63806d7def0d'
p105
sg14
S'Mozilla/5.0 (Linux; Android 5.0.2; vivo Y51 Build/LRX22G) AppleWebKit/537.36 (KHTML, like Gecko) Version/4.0 Chrome/37.0.0.0 Mobile MQQBrowser/6.8 TBS/036862 Safari/537.36 MicroMessenger/6.3.25.861 NetType/cmnet Language/zh_CN'
p106
sg16
S'bc543d88bf01613fcb6fe854783e4945'
p107
sa(dp108
g2
S'31411'
p109
sg4
S'2024'
p110
sg6
S'8c9a83a416f3791d6c35d17f27a69f81'
p111
sg8
S'xx30d85e737c458172d4a2dc1748b1bbc9'
p112
sg10
S'xxc92b030bf87f6cfcadb4139eda2373d7'
p113
sg12
S'xx19c52cf68426e2c015ac63806d7def0d'
p114
sg14
S'Mozilla/5.0 (Linux; Android 5.0.2; vivo Y51 Build/LRX22G) AppleWebKit/537.36 (KHTML, like Gecko) Version/4.0 Chrome/37.0.0.0 Mobile MQQBrowser/6.8 TBS/036849 Safari/537.36 MicroMessenger/6.3.27.880 NetType/cmnet Language/zh_CN'
p115
sg16
S'735379aba0d263bee2fcfa140b8b5d27'
p116
sa(dp117
g2
S'31411'
p118
sg4
S'2040'
p119
sg6
S'8c9a83a416f3791d6c35d17f27a69f81'
p120
sg8
S'xx30d85e737c458172d4a2dc1748b1bbc9'
p121
sg10
S'xxc92b030bf87f6cfcadb4139eda2373d7'
p122
sg12
S'xx19c52cf68426e2c015ac63806d7def0d'
p123
sg14
S'Mozilla/5.0 (Linux; Android 5.0.2; vivo Y51 Build/LRX22G) AppleWebKit/537.36 (KHTML, like Gecko) Version/4.0 Chrome/37.0.0.0 Mobile MQQBrowser/6.8 TBS/036849 Safari/537.36 MicroMessenger/6.3.27.880 NetType/cmnet Language/zh_CN'
p124
sg16
S'735379aba0d263bee2fcfa140b8b5d27'
p125
sa(dp126
g2
S'31411'
p127
sg4
S'2054'
p128
sg6
S'8c9a83a416f3791d6c35d17f27a69f81'
p129
sg8
S'xx30d85e737c458172d4a2dc1748b1bbc9'
p130
sg10
S'xxc92b030bf87f6cfcadb4139eda2373d7'
p131
sg12
S'xx19c52cf68426e2c015ac63806d7def0d'
p132
sg14
S'Mozilla/5.0 (Linux; Android 5.0.2; vivo Y51 Build/LRX22G) AppleWebKit/537.36 (KHTML, like Gecko) Version/4.0 Chrome/37.0.0.0 Mobile MQQBrowser/6.8 TBS/036849 Safari/537.36 MicroMessenger/6.3.27.880 NetType/cmnet Language/zh_CN'
p133
sg16
S'735379aba0d263bee2fcfa140b8b5d27'
p134
sa(dp135
g2
S'17146'
p136
sg4
S'2632'
p137
sg6
S'0f8b3fbd158ce5bb75598246451f6336'
p138
sg8
S'xx874f51107c72a0711e5c66bd81285ac4'
p139
sg10
S'xxc92b030bf87f6cfcadb4139eda2373d7'
p140
sg12
S'xx19c52cf68426e2c015ac63806d7def0d'
p141
sg14
S'Mozilla/5.0 (Linux; Android 5.0.2; vivo Y51 Build/LRX22G) AppleWebKit/537.36 (KHTML, like Gecko) Version/4.0 Chrome/37.0.0.0 Mobile MQQBrowser/6.8 TBS/036849 Safari/537.36 MicroMessenger/6.3.27.880 NetType/WIFI Language/zh_CN'
p142
sg16
S'dd13b5fa44e59fb67b60ff9553e4958f'
p143
sa(dp144
g2
S'17146'
p145
sg4
S'2650'
p146
sg6
S'0f8b3fbd158ce5bb75598246451f6336'
p147
sg8
S'xx874f51107c72a0711e5c66bd81285ac4'
p148
sg10
S'xxc92b030bf87f6cfcadb4139eda2373d7'
p149
sg12
S'xx19c52cf68426e2c015ac63806d7def0d'
p150
sg14
S'Mozilla/5.0 (Linux; Android 5.0.2; vivo Y51 Build/LRX22G) AppleWebKit/537.36 (KHTML, like Gecko) Version/4.0 Chrome/37.0.0.0 Mobile MQQBrowser/6.8 TBS/036849 Safari/537.36 MicroMessenger/6.3.27.880 NetType/WIFI Language/zh_CN'
p151
sg16
S'dd13b5fa44e59fb67b60ff9553e4958f'
p152
sa(dp153
g2
S'36222'
p154
sg4
S'2848'
p155
sg6
S'84c6fea1a0efc618b52a026523e50a51'
p156
sg8
S'xxec689d71eb3034a70e7af49188edbaf8'
p157
sg10
S'xxc92b030bf87f6cfcadb4139eda2373d7'
p158
sg12
S'xx19c52cf68426e2c015ac63806d7def0d'
p159
sg14
S'Mozilla/5.0 (Linux; Android 5.0.2; vivo Y51 Build/LRX22G) AppleWebKit/537.36 (KHTML, like Gecko) Version/4.0 Chrome/37.0.0.0 Mobile MQQBrowser/6.8 TBS/036869 Safari/537.36 MicroMessenger/6.3.27.880 NetType/WIFI Language/zh_CN'
p160
sg16
S'cad998fef7d94d303c76408e182321d1'
p161
sa(dp162
g2
S'36222'
p163
sg4
S'2866'
p164
sg6
S'84c6fea1a0efc618b52a026523e50a51'
p165
sg8
S'xxec689d71eb3034a70e7af49188edbaf8'
p166
sg10
S'xxc92b030bf87f6cfcadb4139eda2373d7'
p167
sg12
S'xx19c52cf68426e2c015ac63806d7def0d'
p168
sg14
S'Mozilla/5.0 (Linux; Android 5.0.2; vivo Y51 Build/LRX22G) AppleWebKit/537.36 (KHTML, like Gecko) Version/4.0 Chrome/37.0.0.0 Mobile MQQBrowser/6.8 TBS/036869 Safari/537.36 MicroMessenger/6.3.27.880 NetType/WIFI Language/zh_CN'
p169
sg16
S'cad998fef7d94d303c76408e182321d1'
p170
sa(dp171
g2
S'44481'
p172
sg4
S'2969'
p173
sg6
S'a9178732a905478fe713174dc3bc2579'
p174
sg8
S'xx874f51107c72a0711e5c66bd81285ac4'
p175
sg10
S'xxc92b030bf87f6cfcadb4139eda2373d7'
p176
sg12
S'xx19c52cf68426e2c015ac63806d7def0d'
p177
sg14
S'Mozilla/5.0 (Linux; Android 5.0.2; vivo Y51 Build/LRX22G) AppleWebKit/537.36 (KHTML, like Gecko) Version/4.0 Chrome/37.0.0.0 Mobile MQQBrowser/6.8 TBS/036849 Safari/537.36 MicroMessenger/6.3.27.880 NetType/WIFI Language/zh_CN'
p178
sg16
S'dd13b5fa44e59fb67b60ff9553e4958f'
p179
sa(dp180
g2
S'31369'
p181
sg4
S'3029'
p182
sg6
S'509368e6f61d2e7b8daf31e0cb12da6d'
p183
sg8
S'xx874f51107c72a0711e5c66bd81285ac4'
p184
sg10
S'xxc92b030bf87f6cfcadb4139eda2373d7'
p185
sg12
S'xx19c52cf68426e2c015ac63806d7def0d'
p186
sg14
S'Mozilla/5.0 (Linux; Android 5.0.2; vivo Y51 Build/LRX22G) AppleWebKit/537.36 (KHTML, like Gecko) Version/4.0 Chrome/37.0.0.0 Mobile MQQBrowser/6.8 TBS/036849 Safari/537.36 MicroMessenger/6.3.27.880 NetType/WIFI Language/zh_CN'
p187
sg16
S'dd13b5fa44e59fb67b60ff9553e4958f'
p188
sa(dp189
g2
S'31369'
p190
sg4
S'3048'
p191
sg6
S'509368e6f61d2e7b8daf31e0cb12da6d'
p192
sg8
S'xx874f51107c72a0711e5c66bd81285ac4'
p193
sg10
S'xxc92b030bf87f6cfcadb4139eda2373d7'
p194
sg12
S'xx19c52cf68426e2c015ac63806d7def0d'
p195
sg14
S'Mozilla/5.0 (Linux; Android 5.0.2; vivo Y51 Build/LRX22G) AppleWebKit/537.36 (KHTML, like Gecko) Version/4.0 Chrome/37.0.0.0 Mobile MQQBrowser/6.8 TBS/036849 Safari/537.36 MicroMessenger/6.3.27.880 NetType/WIFI Language/zh_CN'
p196
sg16
S'dd13b5fa44e59fb67b60ff9553e4958f'
p197
sa(dp198
g2
S'17146'
p199
sg4
S'3716'
p200
sg6
S'0f8b3fbd158ce5bb75598246451f6336'
p201
sg8
S'xx874f51107c72a0711e5c66bd81285ac4'
p202
sg10
S'xxc92b030bf87f6cfcadb4139eda2373d7'
p203
sg12
S'xx19c52cf68426e2c015ac63806d7def0d'
p204
sg14
S'Mozilla/5.0 (Linux; Android 5.0.2; vivo Y51 Build/LRX22G) AppleWebKit/537.36 (KHTML, like Gecko) Version/4.0 Chrome/37.0.0.0 Mobile MQQBrowser/6.8 TBS/036849 Safari/537.36 MicroMessenger/6.3.27.880 NetType/WIFI Language/zh_CN'
p205
sg16
S'dd13b5fa44e59fb67b60ff9553e4958f'
p206
sa(dp207
g2
S'17146'
p208
sg4
S'3735'
p209
sg6
S'0f8b3fbd158ce5bb75598246451f6336'
p210
sg8
S'xx874f51107c72a0711e5c66bd81285ac4'
p211
sg10
S'xxc92b030bf87f6cfcadb4139eda2373d7'
p212
sg12
S'xx19c52cf68426e2c015ac63806d7def0d'
p213
sg14
S'Mozilla/5.0 (Linux; Android 5.0.2; vivo Y51 Build/LRX22G) AppleWebKit/537.36 (KHTML, like Gecko) Version/4.0 Chrome/37.0.0.0 Mobile MQQBrowser/6.8 TBS/036849 Safari/537.36 MicroMessenger/6.3.27.880 NetType/WIFI Language/zh_CN'
p214
sg16
S'dd13b5fa44e59fb67b60ff9553e4958f'
p215
sa(dp216
g2
S'6476'
p217
sg4
S'4369'
p218
sg6
S'03058ff25b1b7f26625c3e6dad07f9c3'
p219
sg8
S'xx617d437d90b6537e1576dd7e70fb3afb'
p220
sg10
S'xxc92b030bf87f6cfcadb4139eda2373d7'
p221
sg12
S'xx19c52cf68426e2c015ac63806d7def0d'
p222
sg14
S'Mozilla/5.0 (Linux; Android 5.0.2; vivo Y51 Build/LRX22G) AppleWebKit/537.36 (KHTML, like Gecko) Version/4.0 Chrome/37.0.0.0 Mobile MQQBrowser/6.8 TBS/036849 Safari/537.36 MicroMessenger/6.3.25.861 NetType/WIFI Language/zh_CN'
p223
sg16
S'8de01c6677dd820cc4dfdb20744327f6'
p224
sa(dp225
g2
S'6476'
p226
sg4
S'4400'
p227
sg6
S'03058ff25b1b7f26625c3e6dad07f9c3'
p228
sg8
S'xx617d437d90b6537e1576dd7e70fb3afb'
p229
sg10
S'xxc92b030bf87f6cfcadb4139eda2373d7'
p230
sg12
S'xx19c52cf68426e2c015ac63806d7def0d'
p231
sg14
S'Mozilla/5.0 (Linux; Android 5.0.2; vivo Y51 Build/LRX22G) AppleWebKit/537.36 (KHTML, like Gecko) Version/4.0 Chrome/37.0.0.0 Mobile MQQBrowser/6.8 TBS/036849 Safari/537.36 MicroMessenger/6.3.25.861 NetType/WIFI Language/zh_CN'
p232
sg16
S'8de01c6677dd820cc4dfdb20744327f6'
p233
sa(dp234
g2
S'6476'
p235
sg4
S'4478'
p236
sg6
S'03058ff25b1b7f26625c3e6dad07f9c3'
p237
sg8
S'xx617d437d90b6537e1576dd7e70fb3afb'
p238
sg10
S'xxc92b030bf87f6cfcadb4139eda2373d7'
p239
sg12
S'xx19c52cf68426e2c015ac63806d7def0d'
p240
sg14
S'Mozilla/5.0 (Linux; Android 5.0.2; vivo Y51 Build/LRX22G) AppleWebKit/537.36 (KHTML, like Gecko) Version/4.0 Chrome/37.0.0.0 Mobile MQQBrowser/6.8 TBS/036849 Safari/537.36 MicroMessenger/6.3.25.861 NetType/WIFI Language/zh_CN'
p241
sg16
S'8de01c6677dd820cc4dfdb20744327f6'
p242
sa(dp243
g2
S'49786'
p244
sg4
S'4632'
p245
sg6
S'783ec5c440b55f32ca4f1c46a5126757'
p246
sg8
S'xxf1b70528696e922d5c6dd99daa4ac1bf'
p247
sg10
S'xxc92b030bf87f6cfcadb4139eda2373d7'
p248
sg12
S'xx19c52cf68426e2c015ac63806d7def0d'
p249
sg14
S'Mozilla/5.0 (Linux; Android 5.0.2; vivo Y51 Build/LRX22G) AppleWebKit/537.36 (KHTML, like Gecko) Version/4.0 Chrome/37.0.0.0 Mobile MQQBrowser/6.8 TBS/036863 Safari/537.36 MicroMessenger/6.3.27.880 NetType/WIFI Language/zh_CN'
p250
sg16
S'5d5f531f357a3c48bd04f066524418a3'
p251
sa(dp252
g2
S'35236'
p253
sg4
S'4642'
p254
sg6
S'c03ccec4447076a1e8fd2adb0b060f05'
p255
sg8
S'xx30d85e737c458172d4a2dc1748b1bbc9'
p256
sg10
S'xxc92b030bf87f6cfcadb4139eda2373d7'
p257
sg12
S'xx19c52cf68426e2c015ac63806d7def0d'
p258
sg14
S'Mozilla/5.0 (Linux; Android 5.0.2; vivo Y51 Build/LRX22G) AppleWebKit/537.36 (KHTML, like Gecko) Version/4.0 Chrome/37.0.0.0 Mobile MQQBrowser/6.8 TBS/036849 Safari/537.36 MicroMessenger/6.3.27.880 NetType/cmnet Language/zh_CN'
p259
sg16
S'735379aba0d263bee2fcfa140b8b5d27'
p260
sa(dp261
g2
S'49786'
p262
sg4
S'4654'
p263
sg6
S'783ec5c440b55f32ca4f1c46a5126757'
p264
sg8
S'xxf1b70528696e922d5c6dd99daa4ac1bf'
p265
sg10
S'xxc92b030bf87f6cfcadb4139eda2373d7'
p266
sg12
S'xx19c52cf68426e2c015ac63806d7def0d'
p267
sg14
S'Mozilla/5.0 (Linux; Android 5.0.2; vivo Y51 Build/LRX22G) AppleWebKit/537.36 (KHTML, like Gecko) Version/4.0 Chrome/37.0.0.0 Mobile MQQBrowser/6.8 TBS/036863 Safari/537.36 MicroMessenger/6.3.27.880 NetType/WIFI Language/zh_CN'
p268
sg16
S'5d5f531f357a3c48bd04f066524418a3'
p269
sa(dp270
g2
S'49786'
p271
sg4
S'4675'
p272
sg6
S'783ec5c440b55f32ca4f1c46a5126757'
p273
sg8
S'xxf1b70528696e922d5c6dd99daa4ac1bf'
p274
sg10
S'xxc92b030bf87f6cfcadb4139eda2373d7'
p275
sg12
S'xx19c52cf68426e2c015ac63806d7def0d'
p276
sg14
S'Mozilla/5.0 (Linux; Android 5.0.2; vivo Y51 Build/LRX22G) AppleWebKit/537.36 (KHTML, like Gecko) Version/4.0 Chrome/37.0.0.0 Mobile MQQBrowser/6.8 TBS/036863 Safari/537.36 MicroMessenger/6.3.27.880 NetType/WIFI Language/zh_CN'
p277
sg16
S'5d5f531f357a3c48bd04f066524418a3'
p278
sa(dp279
g2
S'17146'
p280
sg4
S'4724'
p281
sg6
S'0f8b3fbd158ce5bb75598246451f6336'
p282
sg8
S'xx874f51107c72a0711e5c66bd81285ac4'
p283
sg10
S'xxc92b030bf87f6cfcadb4139eda2373d7'
p284
sg12
S'xx19c52cf68426e2c015ac63806d7def0d'
p285
sg14
S'Mozilla/5.0 (Linux; Android 5.0.2; vivo Y51 Build/LRX22G) AppleWebKit/537.36 (KHTML, like Gecko) Version/4.0 Chrome/37.0.0.0 Mobile MQQBrowser/6.8 TBS/036849 Safari/537.36 MicroMessenger/6.3.27.880 NetType/WIFI Language/zh_CN'
p286
sg16
S'dd13b5fa44e59fb67b60ff9553e4958f'
p287
sa(dp288
g2
S'17146'
p289
sg4
S'4745'
p290
sg6
S'0f8b3fbd158ce5bb75598246451f6336'
p291
sg8
S'xx874f51107c72a0711e5c66bd81285ac4'
p292
sg10
S'xxc92b030bf87f6cfcadb4139eda2373d7'
p293
sg12
S'xx19c52cf68426e2c015ac63806d7def0d'
p294
sg14
S'Mozilla/5.0 (Linux; Android 5.0.2; vivo Y51 Build/LRX22G) AppleWebKit/537.36 (KHTML, like Gecko) Version/4.0 Chrome/37.0.0.0 Mobile MQQBrowser/6.8 TBS/036849 Safari/537.36 MicroMessenger/6.3.27.880 NetType/WIFI Language/zh_CN'
p295
sg16
S'dd13b5fa44e59fb67b60ff9553e4958f'
p296
sa(dp297
g2
S'17146'
p298
sg4
S'6007'
p299
sg6
S'0f8b3fbd158ce5bb75598246451f6336'
p300
sg8
S'xx874f51107c72a0711e5c66bd81285ac4'
p301
sg10
S'xxc92b030bf87f6cfcadb4139eda2373d7'
p302
sg12
S'xx19c52cf68426e2c015ac63806d7def0d'
p303
sg14
S'Mozilla/5.0 (Linux; Android 5.0.2; vivo Y51 Build/LRX22G) AppleWebKit/537.36 (KHTML, like Gecko) Version/4.0 Chrome/37.0.0.0 Mobile MQQBrowser/6.8 TBS/036849 Safari/537.36 MicroMessenger/6.3.27.880 NetType/WIFI Language/zh_CN'
p304
sg16
S'dd13b5fa44e59fb67b60ff9553e4958f'
p305
sa(dp306
g2
S'17146'
p307
sg4
S'6019'
p308
sg6
S'0f8b3fbd158ce5bb75598246451f6336'
p309
sg8
S'xx874f51107c72a0711e5c66bd81285ac4'
p310
sg10
S'xxc92b030bf87f6cfcadb4139eda2373d7'
p311
sg12
S'xx19c52cf68426e2c015ac63806d7def0d'
p312
sg14
S'Mozilla/5.0 (Linux; Android 5.0.2; vivo Y51 Build/LRX22G) AppleWebKit/537.36 (KHTML, like Gecko) Version/4.0 Chrome/37.0.0.0 Mobile MQQBrowser/6.8 TBS/036849 Safari/537.36 MicroMessenger/6.3.27.880 NetType/WIFI Language/zh_CN'
p313
sg16
S'dd13b5fa44e59fb67b60ff9553e4958f'
p314
sa(dp315
g2
S'49828'
p316
sg4
S'7148'
p317
sg6
S'79b2b9904f23a9b5f103957129608106'
p318
sg8
S'xx692b4e8fe220a42b135b053d6dd159e2'
p319
sg10
S'xxc92b030bf87f6cfcadb4139eda2373d7'
p320
sg12
S'xx19c52cf68426e2c015ac63806d7def0d'
p321
sg14
S'Mozilla/5.0 (Linux; Android 5.0.2; vivo Y51 Build/LRX22G) AppleWebKit/537.36 (KHTML, like Gecko) Version/4.0 Chrome/37.0.0.0 Mobile MQQBrowser/6.8 TBS/036865 Safari/537.36 MicroMessenger/6.3.27.880 NetType/cmnet Language/zh_CN'
p322
sg16
S'6dd5a06864dd008595231a36cb1ea33c'
p323
sa(dp324
g2
S'49828'
p325
sg4
S'7164'
p326
sg6
S'79b2b9904f23a9b5f103957129608106'
p327
sg8
S'xx692b4e8fe220a42b135b053d6dd159e2'
p328
sg10
S'xxc92b030bf87f6cfcadb4139eda2373d7'
p329
sg12
S'xx19c52cf68426e2c015ac63806d7def0d'
p330
sg14
S'Mozilla/5.0 (Linux; Android 5.0.2; vivo Y51 Build/LRX22G) AppleWebKit/537.36 (KHTML, like Gecko) Version/4.0 Chrome/37.0.0.0 Mobile MQQBrowser/6.8 TBS/036865 Safari/537.36 MicroMessenger/6.3.27.880 NetType/cmnet Language/zh_CN'
p331
sg16
S'6dd5a06864dd008595231a36cb1ea33c'
p332
sa(dp333
g2
S'49828'
p334
sg4
S'7179'
p335
sg6
S'79b2b9904f23a9b5f103957129608106'
p336
sg8
S'xx692b4e8fe220a42b135b053d6dd159e2'
p337
sg10
S'xxc92b030bf87f6cfcadb4139eda2373d7'
p338
sg12
S'xx19c52cf68426e2c015ac63806d7def0d'
p339
sg14
S'Mozilla/5.0 (Linux; Android 5.0.2; vivo Y51 Build/LRX22G) AppleWebKit/537.36 (KHTML, like Gecko) Version/4.0 Chrome/37.0.0.0 Mobile MQQBrowser/6.8 TBS/036865 Safari/537.36 MicroMessenger/6.3.27.880 NetType/cmnet Language/zh_CN'
p340
sg16
S'6dd5a06864dd008595231a36cb1ea33c'
p341
sa(dp342
g2
S'49828'
p343
sg4
S'7216'
p344
sg6
S'79b2b9904f23a9b5f103957129608106'
p345
sg8
S'xxef0579cee95aa6d40ddb1b8ad422d03d'
p346
sg10
S'xxc92b030bf87f6cfcadb4139eda2373d7'
p347
sg12
S'xx19c52cf68426e2c015ac63806d7def0d'
p348
sg14
S'Mozilla/5.0 (Linux; Android 5.0.2; vivo Y51 Build/LRX22G) AppleWebKit/537.36 (KHTML, like Gecko) Version/4.0 Chrome/37.0.0.0 Mobile MQQBrowser/6.8 TBS/036865 Safari/537.36 MicroMessenger/6.3.27.880 NetType/WIFI Language/zh_CN'
p349
sg16
S'ba70aeaee42c25bd1a8be87ad06c2a3a'
p350
sa(dp351
g2
S'49828'
p352
sg4
S'7668'
p353
sg6
S'79b2b9904f23a9b5f103957129608106'
p354
sg8
S'xxef0579cee95aa6d40ddb1b8ad422d03d'
p355
sg10
S'xxc92b030bf87f6cfcadb4139eda2373d7'
p356
sg12
S'xx19c52cf68426e2c015ac63806d7def0d'
p357
sg14
S'Mozilla/5.0 (Linux; Android 5.0.2; vivo Y51 Build/LRX22G) AppleWebKit/537.36 (KHTML, like Gecko) Version/4.0 Chrome/37.0.0.0 Mobile MQQBrowser/6.8 TBS/036865 Safari/537.36 MicroMessenger/6.3.27.880 NetType/WIFI Language/zh_CN'
p358
sg16
S'ba70aeaee42c25bd1a8be87ad06c2a3a'
p359
sa(dp360
g2
S'49828'
p361
sg4
S'7677'
p362
sg6
S'79b2b9904f23a9b5f103957129608106'
p363
sg8
S'xxef0579cee95aa6d40ddb1b8ad422d03d'
p364
sg10
S'xxc92b030bf87f6cfcadb4139eda2373d7'
p365
sg12
S'xx19c52cf68426e2c015ac63806d7def0d'
p366
sg14
S'Mozilla/5.0 (Linux; Android 5.0.2; vivo Y51 Build/LRX22G) AppleWebKit/537.36 (KHTML, like Gecko) Version/4.0 Chrome/37.0.0.0 Mobile MQQBrowser/6.8 TBS/036865 Safari/537.36 MicroMessenger/6.3.27.880 NetType/WIFI Language/zh_CN'
p367
sg16
S'ba70aeaee42c25bd1a8be87ad06c2a3a'
p368
sa(dp369
g2
S'49828'
p370
sg4
S'7702'
p371
sg6
S'79b2b9904f23a9b5f103957129608106'
p372
sg8
S'xxef0579cee95aa6d40ddb1b8ad422d03d'
p373
sg10
S'xxc92b030bf87f6cfcadb4139eda2373d7'
p374
sg12
S'xx19c52cf68426e2c015ac63806d7def0d'
p375
sg14
S'Mozilla/5.0 (Linux; Android 5.0.2; vivo Y51 Build/LRX22G) AppleWebKit/537.36 (KHTML, like Gecko) Version/4.0 Chrome/37.0.0.0 Mobile MQQBrowser/6.8 TBS/036865 Safari/537.36 MicroMessenger/6.3.27.880 NetType/WIFI Language/zh_CN'
p376
sg16
S'ba70aeaee42c25bd1a8be87ad06c2a3a'
p377
sa(dp378
g2
S'49828'
p379
sg4
S'7733'
p380
sg6
S'79b2b9904f23a9b5f103957129608106'
p381
sg8
S'xxef0579cee95aa6d40ddb1b8ad422d03d'
p382
sg10
S'xxc92b030bf87f6cfcadb4139eda2373d7'
p383
sg12
S'xx19c52cf68426e2c015ac63806d7def0d'
p384
sg14
S'Mozilla/5.0 (Linux; Android 5.0.2; vivo Y51 Build/LRX22G) AppleWebKit/537.36 (KHTML, like Gecko) Version/4.0 Chrome/37.0.0.0 Mobile MQQBrowser/6.8 TBS/036865 Safari/537.36 MicroMessenger/6.3.27.880 NetType/WIFI Language/zh_CN'
p385
sg16
S'ba70aeaee42c25bd1a8be87ad06c2a3a'
p386
sa(dp387
g2
S'49828'
p388
sg4
S'7751'
p389
sg6
S'79b2b9904f23a9b5f103957129608106'
p390
sg8
S'xxef0579cee95aa6d40ddb1b8ad422d03d'
p391
sg10
S'xxc92b030bf87f6cfcadb4139eda2373d7'
p392
sg12
S'xx19c52cf68426e2c015ac63806d7def0d'
p393
sg14
S'Mozilla/5.0 (Linux; Android 5.0.2; vivo Y51 Build/LRX22G) AppleWebKit/537.36 (KHTML, like Gecko) Version/4.0 Chrome/37.0.0.0 Mobile MQQBrowser/6.8 TBS/036865 Safari/537.36 MicroMessenger/6.3.27.880 NetType/WIFI Language/zh_CN'
p394
sg16
S'ba70aeaee42c25bd1a8be87ad06c2a3a'
p395
sa(dp396
g2
S'49828'
p397
sg4
S'7819'
p398
sg6
S'79b2b9904f23a9b5f103957129608106'
p399
sg8
S'xxef0579cee95aa6d40ddb1b8ad422d03d'
p400
sg10
S'xxc92b030bf87f6cfcadb4139eda2373d7'
p401
sg12
S'xx19c52cf68426e2c015ac63806d7def0d'
p402
sg14
S'Mozilla/5.0 (Linux; Android 5.0.2; vivo Y51 Build/LRX22G) AppleWebKit/537.36 (KHTML, like Gecko) Version/4.0 Chrome/37.0.0.0 Mobile MQQBrowser/6.8 TBS/036865 Safari/537.36 MicroMessenger/6.3.27.880 NetType/WIFI Language/zh_CN'
p403
sg16
S'ba70aeaee42c25bd1a8be87ad06c2a3a'
p404
sa(dp405
g2
S'49828'
p406
sg4
S'7825'
p407
sg6
S'79b2b9904f23a9b5f103957129608106'
p408
sg8
S'xxef0579cee95aa6d40ddb1b8ad422d03d'
p409
sg10
S'xxc92b030bf87f6cfcadb4139eda2373d7'
p410
sg12
S'xx19c52cf68426e2c015ac63806d7def0d'
p411
sg14
S'Mozilla/5.0 (Linux; Android 5.0.2; vivo Y51 Build/LRX22G) AppleWebKit/537.36 (KHTML, like Gecko) Version/4.0 Chrome/37.0.0.0 Mobile MQQBrowser/6.8 TBS/036865 Safari/537.36 MicroMessenger/6.3.27.880 NetType/WIFI Language/zh_CN'
p412
sg16
S'ba70aeaee42c25bd1a8be87ad06c2a3a'
p413
sa(dp414
g2
S'49828'
p415
sg4
S'7834'
p416
sg6
S'79b2b9904f23a9b5f103957129608106'
p417
sg8
S'xxef0579cee95aa6d40ddb1b8ad422d03d'
p418
sg10
S'xxc92b030bf87f6cfcadb4139eda2373d7'
p419
sg12
S'xx19c52cf68426e2c015ac63806d7def0d'
p420
sg14
S'Mozilla/5.0 (Linux; Android 5.0.2; vivo Y51 Build/LRX22G) AppleWebKit/537.36 (KHTML, like Gecko) Version/4.0 Chrome/37.0.0.0 Mobile MQQBrowser/6.8 TBS/036865 Safari/537.36 MicroMessenger/6.3.27.880 NetType/WIFI Language/zh_CN'
p421
sg16
S'ba70aeaee42c25bd1a8be87ad06c2a3a'
p422
sa(dp423
g2
S'49828'
p424
sg4
S'7935'
p425
sg6
S'79b2b9904f23a9b5f103957129608106'
p426
sg8
S'xxef0579cee95aa6d40ddb1b8ad422d03d'
p427
sg10
S'xxc92b030bf87f6cfcadb4139eda2373d7'
p428
sg12
S'xx19c52cf68426e2c015ac63806d7def0d'
p429
sg14
S'Mozilla/5.0 (Linux; Android 5.0.2; vivo Y51 Build/LRX22G) AppleWebKit/537.36 (KHTML, like Gecko) Version/4.0 Chrome/37.0.0.0 Mobile MQQBrowser/6.8 TBS/036865 Safari/537.36 MicroMessenger/6.3.27.880 NetType/WIFI Language/zh_CN'
p430
sg16
S'ba70aeaee42c25bd1a8be87ad06c2a3a'
p431
sa(dp432
g2
S'49828'
p433
sg4
S'7947'
p434
sg6
S'79b2b9904f23a9b5f103957129608106'
p435
sg8
S'xxef0579cee95aa6d40ddb1b8ad422d03d'
p436
sg10
S'xxc92b030bf87f6cfcadb4139eda2373d7'
p437
sg12
S'xx19c52cf68426e2c015ac63806d7def0d'
p438
sg14
S'Mozilla/5.0 (Linux; Android 5.0.2; vivo Y51 Build/LRX22G) AppleWebKit/537.36 (KHTML, like Gecko) Version/4.0 Chrome/37.0.0.0 Mobile MQQBrowser/6.8 TBS/036865 Safari/537.36 MicroMessenger/6.3.27.880 NetType/WIFI Language/zh_CN'
p439
sg16
S'ba70aeaee42c25bd1a8be87ad06c2a3a'
p440
sa(dp441
g2
S'49828'
p442
sg4
S'7965'
p443
sg6
S'79b2b9904f23a9b5f103957129608106'
p444
sg8
S'xxef0579cee95aa6d40ddb1b8ad422d03d'
p445
sg10
S'xxc92b030bf87f6cfcadb4139eda2373d7'
p446
sg12
S'xx19c52cf68426e2c015ac63806d7def0d'
p447
sg14
S'Mozilla/5.0 (Linux; Android 5.0.2; vivo Y51 Build/LRX22G) AppleWebKit/537.36 (KHTML, like Gecko) Version/4.0 Chrome/37.0.0.0 Mobile MQQBrowser/6.8 TBS/036865 Safari/537.36 MicroMessenger/6.3.27.880 NetType/WIFI Language/zh_CN'
p448
sg16
S'ba70aeaee42c25bd1a8be87ad06c2a3a'
p449
sa(dp450
g2
S'49828'
p451
sg4
S'7980'
p452
sg6
S'79b2b9904f23a9b5f103957129608106'
p453
sg8
S'xxef0579cee95aa6d40ddb1b8ad422d03d'
p454
sg10
S'xxc92b030bf87f6cfcadb4139eda2373d7'
p455
sg12
S'xx19c52cf68426e2c015ac63806d7def0d'
p456
sg14
S'Mozilla/5.0 (Linux; Android 5.0.2; vivo Y51 Build/LRX22G) AppleWebKit/537.36 (KHTML, like Gecko) Version/4.0 Chrome/37.0.0.0 Mobile MQQBrowser/6.8 TBS/036865 Safari/537.36 MicroMessenger/6.3.27.880 NetType/WIFI Language/zh_CN'
p457
sg16
S'ba70aeaee42c25bd1a8be87ad06c2a3a'
p458
sa(dp459
g2
S'49828'
p460
sg4
S'7997'
p461
sg6
S'79b2b9904f23a9b5f103957129608106'
p462
sg8
S'xxef0579cee95aa6d40ddb1b8ad422d03d'
p463
sg10
S'xxc92b030bf87f6cfcadb4139eda2373d7'
p464
sg12
S'xx19c52cf68426e2c015ac63806d7def0d'
p465
sg14
S'Mozilla/5.0 (Linux; Android 5.0.2; vivo Y51 Build/LRX22G) AppleWebKit/537.36 (KHTML, like Gecko) Version/4.0 Chrome/37.0.0.0 Mobile MQQBrowser/6.8 TBS/036865 Safari/537.36 MicroMessenger/6.3.27.880 NetType/WIFI Language/zh_CN'
p466
sg16
S'ba70aeaee42c25bd1a8be87ad06c2a3a'
p467
sa(dp468
g2
S'49828'
p469
sg4
S'8022'
p470
sg6
S'79b2b9904f23a9b5f103957129608106'
p471
sg8
S'xxef0579cee95aa6d40ddb1b8ad422d03d'
p472
sg10
S'xxc92b030bf87f6cfcadb4139eda2373d7'
p473
sg12
S'xx19c52cf68426e2c015ac63806d7def0d'
p474
sg14
S'Mozilla/5.0 (Linux; Android 5.0.2; vivo Y51 Build/LRX22G) AppleWebKit/537.36 (KHTML, like Gecko) Version/4.0 Chrome/37.0.0.0 Mobile MQQBrowser/6.8 TBS/036865 Safari/537.36 MicroMessenger/6.3.27.880 NetType/WIFI Language/zh_CN'
p475
sg16
S'ba70aeaee42c25bd1a8be87ad06c2a3a'
p476
sa(dp477
g2
S'49828'
p478
sg4
S'8040'
p479
sg6
S'79b2b9904f23a9b5f103957129608106'
p480
sg8
S'xxef0579cee95aa6d40ddb1b8ad422d03d'
p481
sg10
S'xxc92b030bf87f6cfcadb4139eda2373d7'
p482
sg12
S'xx19c52cf68426e2c015ac63806d7def0d'
p483
sg14
S'Mozilla/5.0 (Linux; Android 5.0.2; vivo Y51 Build/LRX22G) AppleWebKit/537.36 (KHTML, like Gecko) Version/4.0 Chrome/37.0.0.0 Mobile MQQBrowser/6.8 TBS/036865 Safari/537.36 MicroMessenger/6.3.27.880 NetType/WIFI Language/zh_CN'
p484
sg16
S'ba70aeaee42c25bd1a8be87ad06c2a3a'
p485
sa(dp486
g2
S'49828'
p487
sg4
S'8104'
p488
sg6
S'79b2b9904f23a9b5f103957129608106'
p489
sg8
S'xxef0579cee95aa6d40ddb1b8ad422d03d'
p490
sg10
S'xxc92b030bf87f6cfcadb4139eda2373d7'
p491
sg12
S'xx19c52cf68426e2c015ac63806d7def0d'
p492
sg14
S'Mozilla/5.0 (Linux; Android 5.0.2; vivo Y51 Build/LRX22G) AppleWebKit/537.36 (KHTML, like Gecko) Version/4.0 Chrome/37.0.0.0 Mobile MQQBrowser/6.8 TBS/036865 Safari/537.36 MicroMessenger/6.3.27.880 NetType/WIFI Language/zh_CN'
p493
sg16
S'ba70aeaee42c25bd1a8be87ad06c2a3a'
p494
sa(dp495
g2
S'49828'
p496
sg4
S'8119'
p497
sg6
S'79b2b9904f23a9b5f103957129608106'
p498
sg8
S'xxef0579cee95aa6d40ddb1b8ad422d03d'
p499
sg10
S'xxc92b030bf87f6cfcadb4139eda2373d7'
p500
sg12
S'xx19c52cf68426e2c015ac63806d7def0d'
p501
sg14
S'Mozilla/5.0 (Linux; Android 5.0.2; vivo Y51 Build/LRX22G) AppleWebKit/537.36 (KHTML, like Gecko) Version/4.0 Chrome/37.0.0.0 Mobile MQQBrowser/6.8 TBS/036865 Safari/537.36 MicroMessenger/6.3.27.880 NetType/WIFI Language/zh_CN'
p502
sg16
S'ba70aeaee42c25bd1a8be87ad06c2a3a'
p503
sa(dp504
g2
S'49828'
p505
sg4
S'8396'
p506
sg6
S'79b2b9904f23a9b5f103957129608106'
p507
sg8
S'xxef0579cee95aa6d40ddb1b8ad422d03d'
p508
sg10
S'xxc92b030bf87f6cfcadb4139eda2373d7'
p509
sg12
S'xx19c52cf68426e2c015ac63806d7def0d'
p510
sg14
S'Mozilla/5.0 (Linux; Android 5.0.2; vivo Y51 Build/LRX22G) AppleWebKit/537.36 (KHTML, like Gecko) Version/4.0 Chrome/37.0.0.0 Mobile MQQBrowser/6.8 TBS/036865 Safari/537.36 MicroMessenger/6.3.27.880 NetType/WIFI Language/zh_CN'
p511
sg16
S'ba70aeaee42c25bd1a8be87ad06c2a3a'
p512
sa(dp513
g2
S'49828'
p514
sg4
S'8410'
p515
sg6
S'79b2b9904f23a9b5f103957129608106'
p516
sg8
S'xxef0579cee95aa6d40ddb1b8ad422d03d'
p517
sg10
S'xxc92b030bf87f6cfcadb4139eda2373d7'
p518
sg12
S'xx19c52cf68426e2c015ac63806d7def0d'
p519
sg14
S'Mozilla/5.0 (Linux; Android 5.0.2; vivo Y51 Build/LRX22G) AppleWebKit/537.36 (KHTML, like Gecko) Version/4.0 Chrome/37.0.0.0 Mobile MQQBrowser/6.8 TBS/036865 Safari/537.36 MicroMessenger/6.3.27.880 NetType/WIFI Language/zh_CN'
p520
sg16
S'ba70aeaee42c25bd1a8be87ad06c2a3a'
p521
sa(dp522
g2
S'49828'
p523
sg4
S'8417'
p524
sg6
S'79b2b9904f23a9b5f103957129608106'
p525
sg8
S'xxef0579cee95aa6d40ddb1b8ad422d03d'
p526
sg10
S'xxc92b030bf87f6cfcadb4139eda2373d7'
p527
sg12
S'xx19c52cf68426e2c015ac63806d7def0d'
p528
sg14
S'Mozilla/5.0 (Linux; Android 5.0.2; vivo Y51 Build/LRX22G) AppleWebKit/537.36 (KHTML, like Gecko) Version/4.0 Chrome/37.0.0.0 Mobile MQQBrowser/6.8 TBS/036865 Safari/537.36 MicroMessenger/6.3.27.880 NetType/WIFI Language/zh_CN'
p529
sg16
S'ba70aeaee42c25bd1a8be87ad06c2a3a'
p530
sa(dp531
g2
S'49828'
p532
sg4
S'8610'
p533
sg6
S'79b2b9904f23a9b5f103957129608106'
p534
sg8
S'xxef0579cee95aa6d40ddb1b8ad422d03d'
p535
sg10
S'xxc92b030bf87f6cfcadb4139eda2373d7'
p536
sg12
S'xx19c52cf68426e2c015ac63806d7def0d'
p537
sg14
S'Mozilla/5.0 (Linux; Android 5.0.2; vivo Y51 Build/LRX22G) AppleWebKit/537.36 (KHTML, like Gecko) Version/4.0 Chrome/37.0.0.0 Mobile MQQBrowser/6.8 TBS/036865 Safari/537.36 MicroMessenger/6.3.27.880 NetType/WIFI Language/zh_CN'
p538
sg16
S'ba70aeaee42c25bd1a8be87ad06c2a3a'
p539
sa.