(lp0
(dp1
S'user_id'
p2
S'21603'
p3
sS'data_id'
p4
S'1603'
p5
sS'ip'
p6
S'79b2b9904f23a9b5f103957129608106'
p7
sS'phone_B'
p8
S'xx4efcdbd555e1c94c9a5537958e2281e6'
p9
sS'phone_C'
p10
S'xx9f8c1a29d2a02bd6671eff3bc0a906e3'
p11
sS'phone_A'
p12
S'xx1afe07efc2c22af193922fc322db61a5'
p13
sS'user_agent'
p14
S'Mozilla/5.0 (Linux; Android 6.0.1; Le X528 Build/IJXCNCM5801809291S) AppleWebKit/537.36 (KHTML, like Gecko) Version/4.0 Chrome/37.0.0.0 Mobile MQQBrowser/6.8 TBS/036849 Safari/537.36 MicroMessenger/6.3.25.861 NetType/WIFI Language/zh_CN'
p15
sS'ua'
p16
S'38714b52cbfad5f2fefe908385aab149'
p17
sa(dp18
g2
S'21603'
p19
sg4
S'1618'
p20
sg6
S'79b2b9904f23a9b5f103957129608106'
p21
sg8
S'xx4efcdbd555e1c94c9a5537958e2281e6'
p22
sg10
S'xx9f8c1a29d2a02bd6671eff3bc0a906e3'
p23
sg12
S'xx1afe07efc2c22af193922fc322db61a5'
p24
sg14
S'Mozilla/5.0 (Linux; Android 6.0.1; Le X528 Build/IJXCNCM5801809291S) AppleWebKit/537.36 (KHTML, like Gecko) Version/4.0 Chrome/37.0.0.0 Mobile MQQBrowser/6.8 TBS/036849 Safari/537.36 MicroMessenger/6.3.25.861 NetType/WIFI Language/zh_CN'
p25
sg16
S'38714b52cbfad5f2fefe908385aab149'
p26
sa(dp27
g2
S'21603'
p28
sg4
S'1632'
p29
sg6
S'79b2b9904f23a9b5f103957129608106'
p30
sg8
S'xx4efcdbd555e1c94c9a5537958e2281e6'
p31
sg10
S'xx9f8c1a29d2a02bd6671eff3bc0a906e3'
p32
sg12
S'xx1afe07efc2c22af193922fc322db61a5'
p33
sg14
S'Mozilla/5.0 (Linux; Android 6.0.1; Le X528 Build/IJXCNCM5801809291S) AppleWebKit/537.36 (KHTML, like Gecko) Version/4.0 Chrome/37.0.0.0 Mobile MQQBrowser/6.8 TBS/036849 Safari/537.36 MicroMessenger/6.3.25.861 NetType/WIFI Language/zh_CN'
p34
sg16
S'38714b52cbfad5f2fefe908385aab149'
p35
sa(dp36
g2
S'21603'
p37
sg4
S'2170'
p38
sg6
S'79b2b9904f23a9b5f103957129608106'
p39
sg8
S'xx4efcdbd555e1c94c9a5537958e2281e6'
p40
sg10
S'xx9f8c1a29d2a02bd6671eff3bc0a906e3'
p41
sg12
S'xx1afe07efc2c22af193922fc322db61a5'
p42
sg14
S'Mozilla/5.0 (Linux; Android 6.0.1; Le X528 Build/IJXCNCM5801809291S) AppleWebKit/537.36 (KHTML, like Gecko) Version/4.0 Chrome/37.0.0.0 Mobile MQQBrowser/6.8 TBS/036849 Safari/537.36 MicroMessenger/6.3.25.861 NetType/WIFI Language/zh_CN'
p43
sg16
S'38714b52cbfad5f2fefe908385aab149'
p44
sa(dp45
g2
S'21603'
p46
sg4
S'2185'
p47
sg6
S'79b2b9904f23a9b5f103957129608106'
p48
sg8
S'xx4efcdbd555e1c94c9a5537958e2281e6'
p49
sg10
S'xx9f8c1a29d2a02bd6671eff3bc0a906e3'
p50
sg12
S'xx1afe07efc2c22af193922fc322db61a5'
p51
sg14
S'Mozilla/5.0 (Linux; Android 6.0.1; Le X528 Build/IJXCNCM5801809291S) AppleWebKit/537.36 (KHTML, like Gecko) Version/4.0 Chrome/37.0.0.0 Mobile MQQBrowser/6.8 TBS/036849 Safari/537.36 MicroMessenger/6.3.25.861 NetType/WIFI Language/zh_CN'
p52
sg16
S'38714b52cbfad5f2fefe908385aab149'
p53
sa(dp54
g2
S'21603'
p55
sg4
S'2723'
p56
sg6
S'79b2b9904f23a9b5f103957129608106'
p57
sg8
S'xx4efcdbd555e1c94c9a5537958e2281e6'
p58
sg10
S'xx9f8c1a29d2a02bd6671eff3bc0a906e3'
p59
sg12
S'xx1afe07efc2c22af193922fc322db61a5'
p60
sg14
S'Mozilla/5.0 (Linux; Android 6.0.1; Le X528 Build/IJXCNCM5801809291S) AppleWebKit/537.36 (KHTML, like Gecko) Version/4.0 Chrome/37.0.0.0 Mobile MQQBrowser/6.8 TBS/036849 Safari/537.36 MicroMessenger/6.3.25.861 NetType/WIFI Language/zh_CN'
p61
sg16
S'38714b52cbfad5f2fefe908385aab149'
p62
sa(dp63
g2
S'21603'
p64
sg4
S'2747'
p65
sg6
S'79b2b9904f23a9b5f103957129608106'
p66
sg8
S'xx4efcdbd555e1c94c9a5537958e2281e6'
p67
sg10
S'xx9f8c1a29d2a02bd6671eff3bc0a906e3'
p68
sg12
S'xx1afe07efc2c22af193922fc322db61a5'
p69
sg14
S'Mozilla/5.0 (Linux; Android 6.0.1; Le X528 Build/IJXCNCM5801809291S) AppleWebKit/537.36 (KHTML, like Gecko) Version/4.0 Chrome/37.0.0.0 Mobile MQQBrowser/6.8 TBS/036849 Safari/537.36 MicroMessenger/6.3.25.861 NetType/WIFI Language/zh_CN'
p70
sg16
S'38714b52cbfad5f2fefe908385aab149'
p71
sa(dp72
g2
S'21603'
p73
sg4
S'2801'
p74
sg6
S'79b2b9904f23a9b5f103957129608106'
p75
sg8
S'xx4efcdbd555e1c94c9a5537958e2281e6'
p76
sg10
S'xx9f8c1a29d2a02bd6671eff3bc0a906e3'
p77
sg12
S'xx1afe07efc2c22af193922fc322db61a5'
p78
sg14
S'Mozilla/5.0 (Linux; Android 6.0.1; Le X528 Build/IJXCNCM5801809291S) AppleWebKit/537.36 (KHTML, like Gecko) Version/4.0 Chrome/37.0.0.0 Mobile MQQBrowser/6.8 TBS/036849 Safari/537.36 MicroMessenger/6.3.25.861 NetType/WIFI Language/zh_CN'
p79
sg16
S'38714b52cbfad5f2fefe908385aab149'
p80
sa(dp81
g2
S'21603'
p82
sg4
S'2818'
p83
sg6
S'79b2b9904f23a9b5f103957129608106'
p84
sg8
S'xx4efcdbd555e1c94c9a5537958e2281e6'
p85
sg10
S'xx9f8c1a29d2a02bd6671eff3bc0a906e3'
p86
sg12
S'xx1afe07efc2c22af193922fc322db61a5'
p87
sg14
S'Mozilla/5.0 (Linux; Android 6.0.1; Le X528 Build/IJXCNCM5801809291S) AppleWebKit/537.36 (KHTML, like Gecko) Version/4.0 Chrome/37.0.0.0 Mobile MQQBrowser/6.8 TBS/036849 Safari/537.36 MicroMessenger/6.3.25.861 NetType/WIFI Language/zh_CN'
p88
sg16
S'38714b52cbfad5f2fefe908385aab149'
p89
sa(dp90
g2
S'21603'
p91
sg4
S'3330'
p92
sg6
S'79b2b9904f23a9b5f103957129608106'
p93
sg8
S'xx4efcdbd555e1c94c9a5537958e2281e6'
p94
sg10
S'xx9f8c1a29d2a02bd6671eff3bc0a906e3'
p95
sg12
S'xx1afe07efc2c22af193922fc322db61a5'
p96
sg14
S'Mozilla/5.0 (Linux; Android 6.0.1; Le X528 Build/IJXCNCM5801809291S) AppleWebKit/537.36 (KHTML, like Gecko) Version/4.0 Chrome/37.0.0.0 Mobile MQQBrowser/6.8 TBS/036849 Safari/537.36 MicroMessenger/6.3.25.861 NetType/WIFI Language/zh_CN'
p97
sg16
S'38714b52cbfad5f2fefe908385aab149'
p98
sa(dp99
g2
S'21603'
p100
sg4
S'3343'
p101
sg6
S'79b2b9904f23a9b5f103957129608106'
p102
sg8
S'xx4efcdbd555e1c94c9a5537958e2281e6'
p103
sg10
S'xx9f8c1a29d2a02bd6671eff3bc0a906e3'
p104
sg12
S'xx1afe07efc2c22af193922fc322db61a5'
p105
sg14
S'Mozilla/5.0 (Linux; Android 6.0.1; Le X528 Build/IJXCNCM5801809291S) AppleWebKit/537.36 (KHTML, like Gecko) Version/4.0 Chrome/37.0.0.0 Mobile MQQBrowser/6.8 TBS/036849 Safari/537.36 MicroMessenger/6.3.25.861 NetType/WIFI Language/zh_CN'
p106
sg16
S'38714b52cbfad5f2fefe908385aab149'
p107
sa(dp108
g2
S'21603'
p109
sg4
S'3361'
p110
sg6
S'79b2b9904f23a9b5f103957129608106'
p111
sg8
S'xx4efcdbd555e1c94c9a5537958e2281e6'
p112
sg10
S'xx9f8c1a29d2a02bd6671eff3bc0a906e3'
p113
sg12
S'xx1afe07efc2c22af193922fc322db61a5'
p114
sg14
S'Mozilla/5.0 (Linux; Android 6.0.1; Le X528 Build/IJXCNCM5801809291S) AppleWebKit/537.36 (KHTML, like Gecko) Version/4.0 Chrome/37.0.0.0 Mobile MQQBrowser/6.8 TBS/036849 Safari/537.36 MicroMessenger/6.3.25.861 NetType/WIFI Language/zh_CN'
p115
sg16
S'38714b52cbfad5f2fefe908385aab149'
p116
sa(dp117
g2
S'21603'
p118
sg4
S'3385'
p119
sg6
S'79b2b9904f23a9b5f103957129608106'
p120
sg8
S'xx4efcdbd555e1c94c9a5537958e2281e6'
p121
sg10
S'xx9f8c1a29d2a02bd6671eff3bc0a906e3'
p122
sg12
S'xx1afe07efc2c22af193922fc322db61a5'
p123
sg14
S'Mozilla/5.0 (Linux; Android 6.0.1; Le X528 Build/IJXCNCM5801809291S) AppleWebKit/537.36 (KHTML, like Gecko) Version/4.0 Chrome/37.0.0.0 Mobile MQQBrowser/6.8 TBS/036849 Safari/537.36 MicroMessenger/6.3.25.861 NetType/WIFI Language/zh_CN'
p124
sg16
S'38714b52cbfad5f2fefe908385aab149'
p125
sa(dp126
g2
S'21603'
p127
sg4
S'3403'
p128
sg6
S'79b2b9904f23a9b5f103957129608106'
p129
sg8
S'xx4efcdbd555e1c94c9a5537958e2281e6'
p130
sg10
S'xx9f8c1a29d2a02bd6671eff3bc0a906e3'
p131
sg12
S'xx1afe07efc2c22af193922fc322db61a5'
p132
sg14
S'Mozilla/5.0 (Linux; Android 6.0.1; Le X528 Build/IJXCNCM5801809291S) AppleWebKit/537.36 (KHTML, like Gecko) Version/4.0 Chrome/37.0.0.0 Mobile MQQBrowser/6.8 TBS/036849 Safari/537.36 MicroMessenger/6.3.25.861 NetType/WIFI Language/zh_CN'
p133
sg16
S'38714b52cbfad5f2fefe908385aab149'
p134
sa(dp135
g2
S'21603'
p136
sg4
S'3843'
p137
sg6
S'79b2b9904f23a9b5f103957129608106'
p138
sg8
S'xx4efcdbd555e1c94c9a5537958e2281e6'
p139
sg10
S'xx9f8c1a29d2a02bd6671eff3bc0a906e3'
p140
sg12
S'xx1afe07efc2c22af193922fc322db61a5'
p141
sg14
S'Mozilla/5.0 (Linux; Android 6.0.1; Le X528 Build/IJXCNCM5801809291S) AppleWebKit/537.36 (KHTML, like Gecko) Version/4.0 Chrome/37.0.0.0 Mobile MQQBrowser/6.8 TBS/036849 Safari/537.36 MicroMessenger/6.3.25.861 NetType/WIFI Language/zh_CN'
p142
sg16
S'38714b52cbfad5f2fefe908385aab149'
p143
sa(dp144
g2
S'21603'
p145
sg4
S'3863'
p146
sg6
S'79b2b9904f23a9b5f103957129608106'
p147
sg8
S'xx4efcdbd555e1c94c9a5537958e2281e6'
p148
sg10
S'xx9f8c1a29d2a02bd6671eff3bc0a906e3'
p149
sg12
S'xx1afe07efc2c22af193922fc322db61a5'
p150
sg14
S'Mozilla/5.0 (Linux; Android 6.0.1; Le X528 Build/IJXCNCM5801809291S) AppleWebKit/537.36 (KHTML, like Gecko) Version/4.0 Chrome/37.0.0.0 Mobile MQQBrowser/6.8 TBS/036849 Safari/537.36 MicroMessenger/6.3.25.861 NetType/WIFI Language/zh_CN'
p151
sg16
S'38714b52cbfad5f2fefe908385aab149'
p152
sa(dp153
g2
S'21603'
p154
sg4
S'3891'
p155
sg6
S'79b2b9904f23a9b5f103957129608106'
p156
sg8
S'xx4efcdbd555e1c94c9a5537958e2281e6'
p157
sg10
S'xx9f8c1a29d2a02bd6671eff3bc0a906e3'
p158
sg12
S'xx1afe07efc2c22af193922fc322db61a5'
p159
sg14
S'Mozilla/5.0 (Linux; Android 6.0.1; Le X528 Build/IJXCNCM5801809291S) AppleWebKit/537.36 (KHTML, like Gecko) Version/4.0 Chrome/37.0.0.0 Mobile MQQBrowser/6.8 TBS/036849 Safari/537.36 MicroMessenger/6.3.25.861 NetType/WIFI Language/zh_CN'
p160
sg16
S'38714b52cbfad5f2fefe908385aab149'
p161
sa(dp162
g2
S'21603'
p163
sg4
S'3926'
p164
sg6
S'79b2b9904f23a9b5f103957129608106'
p165
sg8
S'xx4efcdbd555e1c94c9a5537958e2281e6'
p166
sg10
S'xx9f8c1a29d2a02bd6671eff3bc0a906e3'
p167
sg12
S'xx1afe07efc2c22af193922fc322db61a5'
p168
sg14
S'Mozilla/5.0 (Linux; Android 6.0.1; Le X528 Build/IJXCNCM5801809291S) AppleWebKit/537.36 (KHTML, like Gecko) Version/4.0 Chrome/37.0.0.0 Mobile MQQBrowser/6.8 TBS/036849 Safari/537.36 MicroMessenger/6.3.25.861 NetType/WIFI Language/zh_CN'
p169
sg16
S'38714b52cbfad5f2fefe908385aab149'
p170
sa(dp171
g2
S'21603'
p172
sg4
S'3947'
p173
sg6
S'79b2b9904f23a9b5f103957129608106'
p174
sg8
S'xx4efcdbd555e1c94c9a5537958e2281e6'
p175
sg10
S'xx9f8c1a29d2a02bd6671eff3bc0a906e3'
p176
sg12
S'xx1afe07efc2c22af193922fc322db61a5'
p177
sg14
S'Mozilla/5.0 (Linux; Android 6.0.1; Le X528 Build/IJXCNCM5801809291S) AppleWebKit/537.36 (KHTML, like Gecko) Version/4.0 Chrome/37.0.0.0 Mobile MQQBrowser/6.8 TBS/036849 Safari/537.36 MicroMessenger/6.3.25.861 NetType/WIFI Language/zh_CN'
p178
sg16
S'38714b52cbfad5f2fefe908385aab149'
p179
sa(dp180
g2
S'21603'
p181
sg4
S'4511'
p182
sg6
S'79b2b9904f23a9b5f103957129608106'
p183
sg8
S'xx4efcdbd555e1c94c9a5537958e2281e6'
p184
sg10
S'xx9f8c1a29d2a02bd6671eff3bc0a906e3'
p185
sg12
S'xx1afe07efc2c22af193922fc322db61a5'
p186
sg14
S'Mozilla/5.0 (Linux; Android 6.0.1; Le X528 Build/IJXCNCM5801809291S) AppleWebKit/537.36 (KHTML, like Gecko) Version/4.0 Chrome/37.0.0.0 Mobile MQQBrowser/6.8 TBS/036849 Safari/537.36 MicroMessenger/6.3.25.861 NetType/WIFI Language/zh_CN'
p187
sg16
S'38714b52cbfad5f2fefe908385aab149'
p188
sa(dp189
g2
S'21603'
p190
sg4
S'4601'
p191
sg6
S'79b2b9904f23a9b5f103957129608106'
p192
sg8
S'xx4efcdbd555e1c94c9a5537958e2281e6'
p193
sg10
S'xx9f8c1a29d2a02bd6671eff3bc0a906e3'
p194
sg12
S'xx1afe07efc2c22af193922fc322db61a5'
p195
sg14
S'Mozilla/5.0 (Linux; Android 6.0.1; Le X528 Build/IJXCNCM5801809291S) AppleWebKit/537.36 (KHTML, like Gecko) Version/4.0 Chrome/37.0.0.0 Mobile MQQBrowser/6.8 TBS/036849 Safari/537.36 MicroMessenger/6.3.25.861 NetType/WIFI Language/zh_CN'
p196
sg16
S'38714b52cbfad5f2fefe908385aab149'
p197
sa(dp198
g2
S'21603'
p199
sg4
S'4666'
p200
sg6
S'79b2b9904f23a9b5f103957129608106'
p201
sg8
S'xx4efcdbd555e1c94c9a5537958e2281e6'
p202
sg10
S'xx9f8c1a29d2a02bd6671eff3bc0a906e3'
p203
sg12
S'xx1afe07efc2c22af193922fc322db61a5'
p204
sg14
S'Mozilla/5.0 (Linux; Android 6.0.1; Le X528 Build/IJXCNCM5801809291S) AppleWebKit/537.36 (KHTML, like Gecko) Version/4.0 Chrome/37.0.0.0 Mobile MQQBrowser/6.8 TBS/036849 Safari/537.36 MicroMessenger/6.3.25.861 NetType/WIFI Language/zh_CN'
p205
sg16
S'38714b52cbfad5f2fefe908385aab149'
p206
sa(dp207
g2
S'21603'
p208
sg4
S'4683'
p209
sg6
S'79b2b9904f23a9b5f103957129608106'
p210
sg8
S'xx4efcdbd555e1c94c9a5537958e2281e6'
p211
sg10
S'xx9f8c1a29d2a02bd6671eff3bc0a906e3'
p212
sg12
S'xx1afe07efc2c22af193922fc322db61a5'
p213
sg14
S'Mozilla/5.0 (Linux; Android 6.0.1; Le X528 Build/IJXCNCM5801809291S) AppleWebKit/537.36 (KHTML, like Gecko) Version/4.0 Chrome/37.0.0.0 Mobile MQQBrowser/6.8 TBS/036849 Safari/537.36 MicroMessenger/6.3.25.861 NetType/WIFI Language/zh_CN'
p214
sg16
S'38714b52cbfad5f2fefe908385aab149'
p215
sa(dp216
g2
S'21603'
p217
sg4
S'4700'
p218
sg6
S'79b2b9904f23a9b5f103957129608106'
p219
sg8
S'xx4efcdbd555e1c94c9a5537958e2281e6'
p220
sg10
S'xx9f8c1a29d2a02bd6671eff3bc0a906e3'
p221
sg12
S'xx1afe07efc2c22af193922fc322db61a5'
p222
sg14
S'Mozilla/5.0 (Linux; Android 6.0.1; Le X528 Build/IJXCNCM5801809291S) AppleWebKit/537.36 (KHTML, like Gecko) Version/4.0 Chrome/37.0.0.0 Mobile MQQBrowser/6.8 TBS/036849 Safari/537.36 MicroMessenger/6.3.25.861 NetType/WIFI Language/zh_CN'
p223
sg16
S'38714b52cbfad5f2fefe908385aab149'
p224
sa(dp225
g2
S'21603'
p226
sg4
S'5306'
p227
sg6
S'79b2b9904f23a9b5f103957129608106'
p228
sg8
S'xx4efcdbd555e1c94c9a5537958e2281e6'
p229
sg10
S'xx9f8c1a29d2a02bd6671eff3bc0a906e3'
p230
sg12
S'xx1afe07efc2c22af193922fc322db61a5'
p231
sg14
S'Mozilla/5.0 (Linux; Android 6.0.1; Le X528 Build/IJXCNCM5801809291S) AppleWebKit/537.36 (KHTML, like Gecko) Version/4.0 Chrome/37.0.0.0 Mobile MQQBrowser/6.8 TBS/036849 Safari/537.36 MicroMessenger/6.3.25.861 NetType/WIFI Language/zh_CN'
p232
sg16
S'38714b52cbfad5f2fefe908385aab149'
p233
sa(dp234
g2
S'21603'
p235
sg4
S'5320'
p236
sg6
S'79b2b9904f23a9b5f103957129608106'
p237
sg8
S'xx4efcdbd555e1c94c9a5537958e2281e6'
p238
sg10
S'xx9f8c1a29d2a02bd6671eff3bc0a906e3'
p239
sg12
S'xx1afe07efc2c22af193922fc322db61a5'
p240
sg14
S'Mozilla/5.0 (Linux; Android 6.0.1; Le X528 Build/IJXCNCM5801809291S) AppleWebKit/537.36 (KHTML, like Gecko) Version/4.0 Chrome/37.0.0.0 Mobile MQQBrowser/6.8 TBS/036849 Safari/537.36 MicroMessenger/6.3.25.861 NetType/WIFI Language/zh_CN'
p241
sg16
S'38714b52cbfad5f2fefe908385aab149'
p242
sa(dp243
g2
S'21603'
p244
sg4
S'5417'
p245
sg6
S'79b2b9904f23a9b5f103957129608106'
p246
sg8
S'xx4efcdbd555e1c94c9a5537958e2281e6'
p247
sg10
S'xx9f8c1a29d2a02bd6671eff3bc0a906e3'
p248
sg12
S'xx1afe07efc2c22af193922fc322db61a5'
p249
sg14
S'Mozilla/5.0 (Linux; Android 6.0.1; Le X528 Build/IJXCNCM5801809291S) AppleWebKit/537.36 (KHTML, like Gecko) Version/4.0 Chrome/37.0.0.0 Mobile MQQBrowser/6.8 TBS/036849 Safari/537.36 MicroMessenger/6.3.25.861 NetType/WIFI Language/zh_CN'
p250
sg16
S'38714b52cbfad5f2fefe908385aab149'
p251
sa(dp252
g2
S'21603'
p253
sg4
S'5440'
p254
sg6
S'79b2b9904f23a9b5f103957129608106'
p255
sg8
S'xx4efcdbd555e1c94c9a5537958e2281e6'
p256
sg10
S'xx9f8c1a29d2a02bd6671eff3bc0a906e3'
p257
sg12
S'xx1afe07efc2c22af193922fc322db61a5'
p258
sg14
S'Mozilla/5.0 (Linux; Android 6.0.1; Le X528 Build/IJXCNCM5801809291S) AppleWebKit/537.36 (KHTML, like Gecko) Version/4.0 Chrome/37.0.0.0 Mobile MQQBrowser/6.8 TBS/036849 Safari/537.36 MicroMessenger/6.3.25.861 NetType/WIFI Language/zh_CN'
p259
sg16
S'38714b52cbfad5f2fefe908385aab149'
p260
sa(dp261
g2
S'21603'
p262
sg4
S'5851'
p263
sg6
S'79b2b9904f23a9b5f103957129608106'
p264
sg8
S'xx4efcdbd555e1c94c9a5537958e2281e6'
p265
sg10
S'xx9f8c1a29d2a02bd6671eff3bc0a906e3'
p266
sg12
S'xx1afe07efc2c22af193922fc322db61a5'
p267
sg14
S'Mozilla/5.0 (Linux; Android 6.0.1; Le X528 Build/IJXCNCM5801809291S) AppleWebKit/537.36 (KHTML, like Gecko) Version/4.0 Chrome/37.0.0.0 Mobile MQQBrowser/6.8 TBS/036849 Safari/537.36 MicroMessenger/6.3.25.861 NetType/WIFI Language/zh_CN'
p268
sg16
S'38714b52cbfad5f2fefe908385aab149'
p269
sa(dp270
g2
S'21603'
p271
sg4
S'5863'
p272
sg6
S'79b2b9904f23a9b5f103957129608106'
p273
sg8
S'xx4efcdbd555e1c94c9a5537958e2281e6'
p274
sg10
S'xx9f8c1a29d2a02bd6671eff3bc0a906e3'
p275
sg12
S'xx1afe07efc2c22af193922fc322db61a5'
p276
sg14
S'Mozilla/5.0 (Linux; Android 6.0.1; Le X528 Build/IJXCNCM5801809291S) AppleWebKit/537.36 (KHTML, like Gecko) Version/4.0 Chrome/37.0.0.0 Mobile MQQBrowser/6.8 TBS/036849 Safari/537.36 MicroMessenger/6.3.25.861 NetType/WIFI Language/zh_CN'
p277
sg16
S'38714b52cbfad5f2fefe908385aab149'
p278
sa(dp279
g2
S'21603'
p280
sg4
S'6417'
p281
sg6
S'79b2b9904f23a9b5f103957129608106'
p282
sg8
S'xx4efcdbd555e1c94c9a5537958e2281e6'
p283
sg10
S'xx9f8c1a29d2a02bd6671eff3bc0a906e3'
p284
sg12
S'xx1afe07efc2c22af193922fc322db61a5'
p285
sg14
S'Mozilla/5.0 (Linux; Android 6.0.1; Le X528 Build/IJXCNCM5801809291S) AppleWebKit/537.36 (KHTML, like Gecko) Version/4.0 Chrome/37.0.0.0 Mobile MQQBrowser/6.8 TBS/036849 Safari/537.36 MicroMessenger/6.3.25.861 NetType/WIFI Language/zh_CN'
p286
sg16
S'38714b52cbfad5f2fefe908385aab149'
p287
sa(dp288
g2
S'21603'
p289
sg4
S'6429'
p290
sg6
S'79b2b9904f23a9b5f103957129608106'
p291
sg8
S'xx4efcdbd555e1c94c9a5537958e2281e6'
p292
sg10
S'xx9f8c1a29d2a02bd6671eff3bc0a906e3'
p293
sg12
S'xx1afe07efc2c22af193922fc322db61a5'
p294
sg14
S'Mozilla/5.0 (Linux; Android 6.0.1; Le X528 Build/IJXCNCM5801809291S) AppleWebKit/537.36 (KHTML, like Gecko) Version/4.0 Chrome/37.0.0.0 Mobile MQQBrowser/6.8 TBS/036849 Safari/537.36 MicroMessenger/6.3.25.861 NetType/WIFI Language/zh_CN'
p295
sg16
S'38714b52cbfad5f2fefe908385aab149'
p296
sa(dp297
g2
S'21603'
p298
sg4
S'6630'
p299
sg6
S'79b2b9904f23a9b5f103957129608106'
p300
sg8
S'xx4efcdbd555e1c94c9a5537958e2281e6'
p301
sg10
S'xx9f8c1a29d2a02bd6671eff3bc0a906e3'
p302
sg12
S'xx1afe07efc2c22af193922fc322db61a5'
p303
sg14
S'Mozilla/5.0 (Linux; Android 6.0.1; Le X528 Build/IJXCNCM5801809291S) AppleWebKit/537.36 (KHTML, like Gecko) Version/4.0 Chrome/37.0.0.0 Mobile MQQBrowser/6.8 TBS/036849 Safari/537.36 MicroMessenger/6.3.25.861 NetType/WIFI Language/zh_CN'
p304
sg16
S'38714b52cbfad5f2fefe908385aab149'
p305
sa(dp306
g2
S'21603'
p307
sg4
S'6650'
p308
sg6
S'79b2b9904f23a9b5f103957129608106'
p309
sg8
S'xx4efcdbd555e1c94c9a5537958e2281e6'
p310
sg10
S'xx9f8c1a29d2a02bd6671eff3bc0a906e3'
p311
sg12
S'xx1afe07efc2c22af193922fc322db61a5'
p312
sg14
S'Mozilla/5.0 (Linux; Android 6.0.1; Le X528 Build/IJXCNCM5801809291S) AppleWebKit/537.36 (KHTML, like Gecko) Version/4.0 Chrome/37.0.0.0 Mobile MQQBrowser/6.8 TBS/036849 Safari/537.36 MicroMessenger/6.3.25.861 NetType/WIFI Language/zh_CN'
p313
sg16
S'38714b52cbfad5f2fefe908385aab149'
p314
sa(dp315
g2
S'21603'
p316
sg4
S'6672'
p317
sg6
S'79b2b9904f23a9b5f103957129608106'
p318
sg8
S'xx4efcdbd555e1c94c9a5537958e2281e6'
p319
sg10
S'xx9f8c1a29d2a02bd6671eff3bc0a906e3'
p320
sg12
S'xx1afe07efc2c22af193922fc322db61a5'
p321
sg14
S'Mozilla/5.0 (Linux; Android 6.0.1; Le X528 Build/IJXCNCM5801809291S) AppleWebKit/537.36 (KHTML, like Gecko) Version/4.0 Chrome/37.0.0.0 Mobile MQQBrowser/6.8 TBS/036849 Safari/537.36 MicroMessenger/6.3.25.861 NetType/WIFI Language/zh_CN'
p322
sg16
S'38714b52cbfad5f2fefe908385aab149'
p323
sa(dp324
g2
S'21603'
p325
sg4
S'6691'
p326
sg6
S'79b2b9904f23a9b5f103957129608106'
p327
sg8
S'xx4efcdbd555e1c94c9a5537958e2281e6'
p328
sg10
S'xx9f8c1a29d2a02bd6671eff3bc0a906e3'
p329
sg12
S'xx1afe07efc2c22af193922fc322db61a5'
p330
sg14
S'Mozilla/5.0 (Linux; Android 6.0.1; Le X528 Build/IJXCNCM5801809291S) AppleWebKit/537.36 (KHTML, like Gecko) Version/4.0 Chrome/37.0.0.0 Mobile MQQBrowser/6.8 TBS/036849 Safari/537.36 MicroMessenger/6.3.25.861 NetType/WIFI Language/zh_CN'
p331
sg16
S'38714b52cbfad5f2fefe908385aab149'
p332
sa(dp333
g2
S'21603'
p334
sg4
S'6712'
p335
sg6
S'79b2b9904f23a9b5f103957129608106'
p336
sg8
S'xx4efcdbd555e1c94c9a5537958e2281e6'
p337
sg10
S'xx9f8c1a29d2a02bd6671eff3bc0a906e3'
p338
sg12
S'xx1afe07efc2c22af193922fc322db61a5'
p339
sg14
S'Mozilla/5.0 (Linux; Android 6.0.1; Le X528 Build/IJXCNCM5801809291S) AppleWebKit/537.36 (KHTML, like Gecko) Version/4.0 Chrome/37.0.0.0 Mobile MQQBrowser/6.8 TBS/036849 Safari/537.36 MicroMessenger/6.3.25.861 NetType/WIFI Language/zh_CN'
p340
sg16
S'38714b52cbfad5f2fefe908385aab149'
p341
sa(dp342
g2
S'21603'
p343
sg4
S'6729'
p344
sg6
S'79b2b9904f23a9b5f103957129608106'
p345
sg8
S'xx4efcdbd555e1c94c9a5537958e2281e6'
p346
sg10
S'xx9f8c1a29d2a02bd6671eff3bc0a906e3'
p347
sg12
S'xx1afe07efc2c22af193922fc322db61a5'
p348
sg14
S'Mozilla/5.0 (Linux; Android 6.0.1; Le X528 Build/IJXCNCM5801809291S) AppleWebKit/537.36 (KHTML, like Gecko) Version/4.0 Chrome/37.0.0.0 Mobile MQQBrowser/6.8 TBS/036849 Safari/537.36 MicroMessenger/6.3.25.861 NetType/WIFI Language/zh_CN'
p349
sg16
S'38714b52cbfad5f2fefe908385aab149'
p350
sa(dp351
g2
S'21603'
p352
sg4
S'6744'
p353
sg6
S'79b2b9904f23a9b5f103957129608106'
p354
sg8
S'xx4efcdbd555e1c94c9a5537958e2281e6'
p355
sg10
S'xx9f8c1a29d2a02bd6671eff3bc0a906e3'
p356
sg12
S'xx1afe07efc2c22af193922fc322db61a5'
p357
sg14
S'Mozilla/5.0 (Linux; Android 6.0.1; Le X528 Build/IJXCNCM5801809291S) AppleWebKit/537.36 (KHTML, like Gecko) Version/4.0 Chrome/37.0.0.0 Mobile MQQBrowser/6.8 TBS/036849 Safari/537.36 MicroMessenger/6.3.25.861 NetType/WIFI Language/zh_CN'
p358
sg16
S'38714b52cbfad5f2fefe908385aab149'
p359
sa(dp360
g2
S'21603'
p361
sg4
S'6761'
p362
sg6
S'79b2b9904f23a9b5f103957129608106'
p363
sg8
S'xx4efcdbd555e1c94c9a5537958e2281e6'
p364
sg10
S'xx9f8c1a29d2a02bd6671eff3bc0a906e3'
p365
sg12
S'xx1afe07efc2c22af193922fc322db61a5'
p366
sg14
S'Mozilla/5.0 (Linux; Android 6.0.1; Le X528 Build/IJXCNCM5801809291S) AppleWebKit/537.36 (KHTML, like Gecko) Version/4.0 Chrome/37.0.0.0 Mobile MQQBrowser/6.8 TBS/036849 Safari/537.36 MicroMessenger/6.3.25.861 NetType/WIFI Language/zh_CN'
p367
sg16
S'38714b52cbfad5f2fefe908385aab149'
p368
sa(dp369
g2
S'21603'
p370
sg4
S'6777'
p371
sg6
S'79b2b9904f23a9b5f103957129608106'
p372
sg8
S'xx4efcdbd555e1c94c9a5537958e2281e6'
p373
sg10
S'xx9f8c1a29d2a02bd6671eff3bc0a906e3'
p374
sg12
S'xx1afe07efc2c22af193922fc322db61a5'
p375
sg14
S'Mozilla/5.0 (Linux; Android 6.0.1; Le X528 Build/IJXCNCM5801809291S) AppleWebKit/537.36 (KHTML, like Gecko) Version/4.0 Chrome/37.0.0.0 Mobile MQQBrowser/6.8 TBS/036849 Safari/537.36 MicroMessenger/6.3.25.861 NetType/WIFI Language/zh_CN'
p376
sg16
S'38714b52cbfad5f2fefe908385aab149'
p377
sa(dp378
g2
S'21603'
p379
sg4
S'6795'
p380
sg6
S'79b2b9904f23a9b5f103957129608106'
p381
sg8
S'xx4efcdbd555e1c94c9a5537958e2281e6'
p382
sg10
S'xx9f8c1a29d2a02bd6671eff3bc0a906e3'
p383
sg12
S'xx1afe07efc2c22af193922fc322db61a5'
p384
sg14
S'Mozilla/5.0 (Linux; Android 6.0.1; Le X528 Build/IJXCNCM5801809291S) AppleWebKit/537.36 (KHTML, like Gecko) Version/4.0 Chrome/37.0.0.0 Mobile MQQBrowser/6.8 TBS/036849 Safari/537.36 MicroMessenger/6.3.25.861 NetType/WIFI Language/zh_CN'
p385
sg16
S'38714b52cbfad5f2fefe908385aab149'
p386
sa(dp387
g2
S'21603'
p388
sg4
S'6805'
p389
sg6
S'79b2b9904f23a9b5f103957129608106'
p390
sg8
S'xx4efcdbd555e1c94c9a5537958e2281e6'
p391
sg10
S'xx9f8c1a29d2a02bd6671eff3bc0a906e3'
p392
sg12
S'xx1afe07efc2c22af193922fc322db61a5'
p393
sg14
S'Mozilla/5.0 (Linux; Android 6.0.1; Le X528 Build/IJXCNCM5801809291S) AppleWebKit/537.36 (KHTML, like Gecko) Version/4.0 Chrome/37.0.0.0 Mobile MQQBrowser/6.8 TBS/036849 Safari/537.36 MicroMessenger/6.3.25.861 NetType/WIFI Language/zh_CN'
p394
sg16
S'38714b52cbfad5f2fefe908385aab149'
p395
sa(dp396
g2
S'21603'
p397
sg4
S'6815'
p398
sg6
S'79b2b9904f23a9b5f103957129608106'
p399
sg8
S'xx4efcdbd555e1c94c9a5537958e2281e6'
p400
sg10
S'xx9f8c1a29d2a02bd6671eff3bc0a906e3'
p401
sg12
S'xx1afe07efc2c22af193922fc322db61a5'
p402
sg14
S'Mozilla/5.0 (Linux; Android 6.0.1; Le X528 Build/IJXCNCM5801809291S) AppleWebKit/537.36 (KHTML, like Gecko) Version/4.0 Chrome/37.0.0.0 Mobile MQQBrowser/6.8 TBS/036849 Safari/537.36 MicroMessenger/6.3.25.861 NetType/WIFI Language/zh_CN'
p403
sg16
S'38714b52cbfad5f2fefe908385aab149'
p404
sa(dp405
g2
S'21603'
p406
sg4
S'6825'
p407
sg6
S'79b2b9904f23a9b5f103957129608106'
p408
sg8
S'xx4efcdbd555e1c94c9a5537958e2281e6'
p409
sg10
S'xx9f8c1a29d2a02bd6671eff3bc0a906e3'
p410
sg12
S'xx1afe07efc2c22af193922fc322db61a5'
p411
sg14
S'Mozilla/5.0 (Linux; Android 6.0.1; Le X528 Build/IJXCNCM5801809291S) AppleWebKit/537.36 (KHTML, like Gecko) Version/4.0 Chrome/37.0.0.0 Mobile MQQBrowser/6.8 TBS/036849 Safari/537.36 MicroMessenger/6.3.25.861 NetType/WIFI Language/zh_CN'
p412
sg16
S'38714b52cbfad5f2fefe908385aab149'
p413
sa(dp414
g2
S'21603'
p415
sg4
S'6838'
p416
sg6
S'79b2b9904f23a9b5f103957129608106'
p417
sg8
S'xx4efcdbd555e1c94c9a5537958e2281e6'
p418
sg10
S'xx9f8c1a29d2a02bd6671eff3bc0a906e3'
p419
sg12
S'xx1afe07efc2c22af193922fc322db61a5'
p420
sg14
S'Mozilla/5.0 (Linux; Android 6.0.1; Le X528 Build/IJXCNCM5801809291S) AppleWebKit/537.36 (KHTML, like Gecko) Version/4.0 Chrome/37.0.0.0 Mobile MQQBrowser/6.8 TBS/036849 Safari/537.36 MicroMessenger/6.3.25.861 NetType/WIFI Language/zh_CN'
p421
sg16
S'38714b52cbfad5f2fefe908385aab149'
p422
sa(dp423
g2
S'21603'
p424
sg4
S'6849'
p425
sg6
S'79b2b9904f23a9b5f103957129608106'
p426
sg8
S'xx4efcdbd555e1c94c9a5537958e2281e6'
p427
sg10
S'xx9f8c1a29d2a02bd6671eff3bc0a906e3'
p428
sg12
S'xx1afe07efc2c22af193922fc322db61a5'
p429
sg14
S'Mozilla/5.0 (Linux; Android 6.0.1; Le X528 Build/IJXCNCM5801809291S) AppleWebKit/537.36 (KHTML, like Gecko) Version/4.0 Chrome/37.0.0.0 Mobile MQQBrowser/6.8 TBS/036849 Safari/537.36 MicroMessenger/6.3.25.861 NetType/WIFI Language/zh_CN'
p430
sg16
S'38714b52cbfad5f2fefe908385aab149'
p431
sa(dp432
g2
S'21603'
p433
sg4
S'6863'
p434
sg6
S'79b2b9904f23a9b5f103957129608106'
p435
sg8
S'xx4efcdbd555e1c94c9a5537958e2281e6'
p436
sg10
S'xx9f8c1a29d2a02bd6671eff3bc0a906e3'
p437
sg12
S'xx1afe07efc2c22af193922fc322db61a5'
p438
sg14
S'Mozilla/5.0 (Linux; Android 6.0.1; Le X528 Build/IJXCNCM5801809291S) AppleWebKit/537.36 (KHTML, like Gecko) Version/4.0 Chrome/37.0.0.0 Mobile MQQBrowser/6.8 TBS/036849 Safari/537.36 MicroMessenger/6.3.25.861 NetType/WIFI Language/zh_CN'
p439
sg16
S'38714b52cbfad5f2fefe908385aab149'
p440
sa(dp441
g2
S'21603'
p442
sg4
S'6880'
p443
sg6
S'79b2b9904f23a9b5f103957129608106'
p444
sg8
S'xx4efcdbd555e1c94c9a5537958e2281e6'
p445
sg10
S'xx9f8c1a29d2a02bd6671eff3bc0a906e3'
p446
sg12
S'xx1afe07efc2c22af193922fc322db61a5'
p447
sg14
S'Mozilla/5.0 (Linux; Android 6.0.1; Le X528 Build/IJXCNCM5801809291S) AppleWebKit/537.36 (KHTML, like Gecko) Version/4.0 Chrome/37.0.0.0 Mobile MQQBrowser/6.8 TBS/036849 Safari/537.36 MicroMessenger/6.3.25.861 NetType/WIFI Language/zh_CN'
p448
sg16
S'38714b52cbfad5f2fefe908385aab149'
p449
sa(dp450
g2
S'21603'
p451
sg4
S'6894'
p452
sg6
S'79b2b9904f23a9b5f103957129608106'
p453
sg8
S'xx4efcdbd555e1c94c9a5537958e2281e6'
p454
sg10
S'xx9f8c1a29d2a02bd6671eff3bc0a906e3'
p455
sg12
S'xx1afe07efc2c22af193922fc322db61a5'
p456
sg14
S'Mozilla/5.0 (Linux; Android 6.0.1; Le X528 Build/IJXCNCM5801809291S) AppleWebKit/537.36 (KHTML, like Gecko) Version/4.0 Chrome/37.0.0.0 Mobile MQQBrowser/6.8 TBS/036849 Safari/537.36 MicroMessenger/6.3.25.861 NetType/WIFI Language/zh_CN'
p457
sg16
S'38714b52cbfad5f2fefe908385aab149'
p458
sa(dp459
g2
S'21603'
p460
sg4
S'6914'
p461
sg6
S'79b2b9904f23a9b5f103957129608106'
p462
sg8
S'xx4efcdbd555e1c94c9a5537958e2281e6'
p463
sg10
S'xx9f8c1a29d2a02bd6671eff3bc0a906e3'
p464
sg12
S'xx1afe07efc2c22af193922fc322db61a5'
p465
sg14
S'Mozilla/5.0 (Linux; Android 6.0.1; Le X528 Build/IJXCNCM5801809291S) AppleWebKit/537.36 (KHTML, like Gecko) Version/4.0 Chrome/37.0.0.0 Mobile MQQBrowser/6.8 TBS/036849 Safari/537.36 MicroMessenger/6.3.25.861 NetType/WIFI Language/zh_CN'
p466
sg16
S'38714b52cbfad5f2fefe908385aab149'
p467
sa(dp468
g2
S'21603'
p469
sg4
S'6929'
p470
sg6
S'79b2b9904f23a9b5f103957129608106'
p471
sg8
S'xx4efcdbd555e1c94c9a5537958e2281e6'
p472
sg10
S'xx9f8c1a29d2a02bd6671eff3bc0a906e3'
p473
sg12
S'xx1afe07efc2c22af193922fc322db61a5'
p474
sg14
S'Mozilla/5.0 (Linux; Android 6.0.1; Le X528 Build/IJXCNCM5801809291S) AppleWebKit/537.36 (KHTML, like Gecko) Version/4.0 Chrome/37.0.0.0 Mobile MQQBrowser/6.8 TBS/036849 Safari/537.36 MicroMessenger/6.3.25.861 NetType/WIFI Language/zh_CN'
p475
sg16
S'38714b52cbfad5f2fefe908385aab149'
p476
sa(dp477
g2
S'21603'
p478
sg4
S'6946'
p479
sg6
S'79b2b9904f23a9b5f103957129608106'
p480
sg8
S'xx4efcdbd555e1c94c9a5537958e2281e6'
p481
sg10
S'xx9f8c1a29d2a02bd6671eff3bc0a906e3'
p482
sg12
S'xx1afe07efc2c22af193922fc322db61a5'
p483
sg14
S'Mozilla/5.0 (Linux; Android 6.0.1; Le X528 Build/IJXCNCM5801809291S) AppleWebKit/537.36 (KHTML, like Gecko) Version/4.0 Chrome/37.0.0.0 Mobile MQQBrowser/6.8 TBS/036849 Safari/537.36 MicroMessenger/6.3.25.861 NetType/WIFI Language/zh_CN'
p484
sg16
S'38714b52cbfad5f2fefe908385aab149'
p485
sa(dp486
g2
S'21603'
p487
sg4
S'7114'
p488
sg6
S'79b2b9904f23a9b5f103957129608106'
p489
sg8
S'xx4efcdbd555e1c94c9a5537958e2281e6'
p490
sg10
S'xx9f8c1a29d2a02bd6671eff3bc0a906e3'
p491
sg12
S'xx1afe07efc2c22af193922fc322db61a5'
p492
sg14
S'Mozilla/5.0 (Linux; Android 6.0.1; Le X528 Build/IJXCNCM5801809291S) AppleWebKit/537.36 (KHTML, like Gecko) Version/4.0 Chrome/37.0.0.0 Mobile MQQBrowser/6.8 TBS/036849 Safari/537.36 MicroMessenger/6.3.25.861 NetType/WIFI Language/zh_CN'
p493
sg16
S'38714b52cbfad5f2fefe908385aab149'
p494
sa(dp495
g2
S'21603'
p496
sg4
S'7129'
p497
sg6
S'79b2b9904f23a9b5f103957129608106'
p498
sg8
S'xx4efcdbd555e1c94c9a5537958e2281e6'
p499
sg10
S'xx9f8c1a29d2a02bd6671eff3bc0a906e3'
p500
sg12
S'xx1afe07efc2c22af193922fc322db61a5'
p501
sg14
S'Mozilla/5.0 (Linux; Android 6.0.1; Le X528 Build/IJXCNCM5801809291S) AppleWebKit/537.36 (KHTML, like Gecko) Version/4.0 Chrome/37.0.0.0 Mobile MQQBrowser/6.8 TBS/036849 Safari/537.36 MicroMessenger/6.3.25.861 NetType/WIFI Language/zh_CN'
p502
sg16
S'38714b52cbfad5f2fefe908385aab149'
p503
sa(dp504
g2
S'21603'
p505
sg4
S'7146'
p506
sg6
S'79b2b9904f23a9b5f103957129608106'
p507
sg8
S'xx4efcdbd555e1c94c9a5537958e2281e6'
p508
sg10
S'xx9f8c1a29d2a02bd6671eff3bc0a906e3'
p509
sg12
S'xx1afe07efc2c22af193922fc322db61a5'
p510
sg14
S'Mozilla/5.0 (Linux; Android 6.0.1; Le X528 Build/IJXCNCM5801809291S) AppleWebKit/537.36 (KHTML, like Gecko) Version/4.0 Chrome/37.0.0.0 Mobile MQQBrowser/6.8 TBS/036849 Safari/537.36 MicroMessenger/6.3.25.861 NetType/WIFI Language/zh_CN'
p511
sg16
S'38714b52cbfad5f2fefe908385aab149'
p512
sa.