(lp0
(dp1
S'user_id'
p2
S'36008'
p3
sS'data_id'
p4
S'7558'
p5
sS'ip'
p6
S'2a35c7b98d0ac647cbd90b24e790348a'
p7
sS'phone_B'
p8
S'xxf2bd52bfbb3e8b805a85c6685456ee0b'
p9
sS'phone_C'
p10
S'xxa1eddb067d69156b5a420a68e90e67cd'
p11
sS'phone_A'
p12
S'xx1a59cba24bd501c95f5abfc238c70d68'
p13
sS'user_agent'
p14
S'Mozilla/5.0 (Linux; Android 4.4.2; Coolpad 8675-HD Build/KOT49H) AppleWebKit/537.36 (KHTML, like Gecko) Version/4.0 Chrome/37.0.0.0 Mobile MQQBrowser/6.8 TBS/036849 Safari/537.36 MicroMessenger/6.3.25.861 NetType/cmnet Language/zh_CN'
p15
sS'ua'
p16
S'4949a946c5585b4bc031059654bd2fc0'
p17
sa(dp18
g2
S'36008'
p19
sg4
S'7571'
p20
sg6
S'2a35c7b98d0ac647cbd90b24e790348a'
p21
sg8
S'xxf2bd52bfbb3e8b805a85c6685456ee0b'
p22
sg10
S'xxa1eddb067d69156b5a420a68e90e67cd'
p23
sg12
S'xx1a59cba24bd501c95f5abfc238c70d68'
p24
sg14
S'Mozilla/5.0 (Linux; Android 4.4.2; Coolpad 8675-HD Build/KOT49H) AppleWebKit/537.36 (KHTML, like Gecko) Version/4.0 Chrome/37.0.0.0 Mobile MQQBrowser/6.8 TBS/036849 Safari/537.36 MicroMessenger/6.3.25.861 NetType/cmnet Language/zh_CN'
p25
sg16
S'4949a946c5585b4bc031059654bd2fc0'
p26
sa(dp27
g2
S'36008'
p28
sg4
S'7620'
p29
sg6
S'2a35c7b98d0ac647cbd90b24e790348a'
p30
sg8
S'xxf2bd52bfbb3e8b805a85c6685456ee0b'
p31
sg10
S'xxa1eddb067d69156b5a420a68e90e67cd'
p32
sg12
S'xx1a59cba24bd501c95f5abfc238c70d68'
p33
sg14
S'Mozilla/5.0 (Linux; Android 4.4.2; Coolpad 8675-HD Build/KOT49H) AppleWebKit/537.36 (KHTML, like Gecko) Version/4.0 Chrome/37.0.0.0 Mobile MQQBrowser/6.8 TBS/036849 Safari/537.36 MicroMessenger/6.3.25.861 NetType/cmnet Language/zh_CN'
p34
sg16
S'4949a946c5585b4bc031059654bd2fc0'
p35
sa(dp36
g2
S'36008'
p37
sg4
S'7644'
p38
sg6
S'2a35c7b98d0ac647cbd90b24e790348a'
p39
sg8
S'xxf2bd52bfbb3e8b805a85c6685456ee0b'
p40
sg10
S'xxa1eddb067d69156b5a420a68e90e67cd'
p41
sg12
S'xx1a59cba24bd501c95f5abfc238c70d68'
p42
sg14
S'Mozilla/5.0 (Linux; Android 4.4.2; Coolpad 8675-HD Build/KOT49H) AppleWebKit/537.36 (KHTML, like Gecko) Version/4.0 Chrome/37.0.0.0 Mobile MQQBrowser/6.8 TBS/036849 Safari/537.36 MicroMessenger/6.3.25.861 NetType/cmnet Language/zh_CN'
p43
sg16
S'4949a946c5585b4bc031059654bd2fc0'
p44
sa(dp45
g2
S'36008'
p46
sg4
S'7661'
p47
sg6
S'2a35c7b98d0ac647cbd90b24e790348a'
p48
sg8
S'xxf2bd52bfbb3e8b805a85c6685456ee0b'
p49
sg10
S'xxa1eddb067d69156b5a420a68e90e67cd'
p50
sg12
S'xx1a59cba24bd501c95f5abfc238c70d68'
p51
sg14
S'Mozilla/5.0 (Linux; Android 4.4.2; Coolpad 8675-HD Build/KOT49H) AppleWebKit/537.36 (KHTML, like Gecko) Version/4.0 Chrome/37.0.0.0 Mobile MQQBrowser/6.8 TBS/036849 Safari/537.36 MicroMessenger/6.3.25.861 NetType/cmnet Language/zh_CN'
p52
sg16
S'4949a946c5585b4bc031059654bd2fc0'
p53
sa.