(lp0
(dp1
S'user_id'
p2
S'43074'
p3
sS'data_id'
p4
S'161'
p5
sS'ip'
p6
S'5b48c78089c6f21a864d9e71cbaf0c9d'
p7
sS'phone_B'
p8
S'xx92fff3a4164b7dd675abd3f48b7121d7'
p9
sS'phone_C'
p10
S'xx38b25a64be81a94d5818411f340d977f'
p11
sS'phone_A'
p12
S'xx1b0d6c3ddf55414a4175cef0678dd66c'
p13
sS'user_agent'
p14
S'Mozilla/5.0 (Linux; Android 5.1.1; A51 Build/LMY47V) AppleWebKit/537.36 (KHTML, like Gecko) Version/4.0 Chrome/37.0.0.0 Mobile MQQBrowser/6.8 TBS/036849 Safari/537.36 MicroMessenger/6.3.27.880 NetType/WIFI Language/zh_CN'
p15
sS'ua'
p16
S'882689a34c8a9515395927ef9c654acd'
p17
sa(dp18
g2
S'43074'
p19
sg4
S'176'
p20
sg6
S'5b48c78089c6f21a864d9e71cbaf0c9d'
p21
sg8
S'xx92fff3a4164b7dd675abd3f48b7121d7'
p22
sg10
S'xx38b25a64be81a94d5818411f340d977f'
p23
sg12
S'xx1b0d6c3ddf55414a4175cef0678dd66c'
p24
sg14
S'Mozilla/5.0 (Linux; Android 5.1.1; A51 Build/LMY47V) AppleWebKit/537.36 (KHTML, like Gecko) Version/4.0 Chrome/37.0.0.0 Mobile MQQBrowser/6.8 TBS/036849 Safari/537.36 MicroMessenger/6.3.27.880 NetType/WIFI Language/zh_CN'
p25
sg16
S'882689a34c8a9515395927ef9c654acd'
p26
sa(dp27
g2
S'43074'
p28
sg4
S'337'
p29
sg6
S'5b48c78089c6f21a864d9e71cbaf0c9d'
p30
sg8
S'xx92fff3a4164b7dd675abd3f48b7121d7'
p31
sg10
S'xx38b25a64be81a94d5818411f340d977f'
p32
sg12
S'xx1b0d6c3ddf55414a4175cef0678dd66c'
p33
sg14
S'Mozilla/5.0 (Linux; Android 5.1.1; A51 Build/LMY47V) AppleWebKit/537.36 (KHTML, like Gecko) Version/4.0 Chrome/37.0.0.0 Mobile MQQBrowser/6.8 TBS/036849 Safari/537.36 MicroMessenger/6.3.27.880 NetType/WIFI Language/zh_CN'
p34
sg16
S'882689a34c8a9515395927ef9c654acd'
p35
sa(dp36
g2
S'43074'
p37
sg4
S'355'
p38
sg6
S'5b48c78089c6f21a864d9e71cbaf0c9d'
p39
sg8
S'xx92fff3a4164b7dd675abd3f48b7121d7'
p40
sg10
S'xx38b25a64be81a94d5818411f340d977f'
p41
sg12
S'xx1b0d6c3ddf55414a4175cef0678dd66c'
p42
sg14
S'Mozilla/5.0 (Linux; Android 5.1.1; A51 Build/LMY47V) AppleWebKit/537.36 (KHTML, like Gecko) Version/4.0 Chrome/37.0.0.0 Mobile MQQBrowser/6.8 TBS/036849 Safari/537.36 MicroMessenger/6.3.27.880 NetType/WIFI Language/zh_CN'
p43
sg16
S'882689a34c8a9515395927ef9c654acd'
p44
sa(dp45
g2
S'43074'
p46
sg4
S'369'
p47
sg6
S'5b48c78089c6f21a864d9e71cbaf0c9d'
p48
sg8
S'xx92fff3a4164b7dd675abd3f48b7121d7'
p49
sg10
S'xx38b25a64be81a94d5818411f340d977f'
p50
sg12
S'xx1b0d6c3ddf55414a4175cef0678dd66c'
p51
sg14
S'Mozilla/5.0 (Linux; Android 5.1.1; A51 Build/LMY47V) AppleWebKit/537.36 (KHTML, like Gecko) Version/4.0 Chrome/37.0.0.0 Mobile MQQBrowser/6.8 TBS/036849 Safari/537.36 MicroMessenger/6.3.27.880 NetType/WIFI Language/zh_CN'
p52
sg16
S'882689a34c8a9515395927ef9c654acd'
p53
sa(dp54
g2
S'43074'
p55
sg4
S'380'
p56
sg6
S'5b48c78089c6f21a864d9e71cbaf0c9d'
p57
sg8
S'xx92fff3a4164b7dd675abd3f48b7121d7'
p58
sg10
S'xx38b25a64be81a94d5818411f340d977f'
p59
sg12
S'xx1b0d6c3ddf55414a4175cef0678dd66c'
p60
sg14
S'Mozilla/5.0 (Linux; Android 5.1.1; A51 Build/LMY47V) AppleWebKit/537.36 (KHTML, like Gecko) Version/4.0 Chrome/37.0.0.0 Mobile MQQBrowser/6.8 TBS/036849 Safari/537.36 MicroMessenger/6.3.27.880 NetType/WIFI Language/zh_CN'
p61
sg16
S'882689a34c8a9515395927ef9c654acd'
p62
sa(dp63
g2
S'43074'
p64
sg4
S'390'
p65
sg6
S'5b48c78089c6f21a864d9e71cbaf0c9d'
p66
sg8
S'xx92fff3a4164b7dd675abd3f48b7121d7'
p67
sg10
S'xx38b25a64be81a94d5818411f340d977f'
p68
sg12
S'xx1b0d6c3ddf55414a4175cef0678dd66c'
p69
sg14
S'Mozilla/5.0 (Linux; Android 5.1.1; A51 Build/LMY47V) AppleWebKit/537.36 (KHTML, like Gecko) Version/4.0 Chrome/37.0.0.0 Mobile MQQBrowser/6.8 TBS/036849 Safari/537.36 MicroMessenger/6.3.27.880 NetType/WIFI Language/zh_CN'
p70
sg16
S'882689a34c8a9515395927ef9c654acd'
p71
sa(dp72
g2
S'43074'
p73
sg4
S'405'
p74
sg6
S'5b48c78089c6f21a864d9e71cbaf0c9d'
p75
sg8
S'xx92fff3a4164b7dd675abd3f48b7121d7'
p76
sg10
S'xx38b25a64be81a94d5818411f340d977f'
p77
sg12
S'xx1b0d6c3ddf55414a4175cef0678dd66c'
p78
sg14
S'Mozilla/5.0 (Linux; Android 5.1.1; A51 Build/LMY47V) AppleWebKit/537.36 (KHTML, like Gecko) Version/4.0 Chrome/37.0.0.0 Mobile MQQBrowser/6.8 TBS/036849 Safari/537.36 MicroMessenger/6.3.27.880 NetType/WIFI Language/zh_CN'
p79
sg16
S'882689a34c8a9515395927ef9c654acd'
p80
sa(dp81
g2
S'43074'
p82
sg4
S'420'
p83
sg6
S'5b48c78089c6f21a864d9e71cbaf0c9d'
p84
sg8
S'xx92fff3a4164b7dd675abd3f48b7121d7'
p85
sg10
S'xx38b25a64be81a94d5818411f340d977f'
p86
sg12
S'xx1b0d6c3ddf55414a4175cef0678dd66c'
p87
sg14
S'Mozilla/5.0 (Linux; Android 5.1.1; A51 Build/LMY47V) AppleWebKit/537.36 (KHTML, like Gecko) Version/4.0 Chrome/37.0.0.0 Mobile MQQBrowser/6.8 TBS/036849 Safari/537.36 MicroMessenger/6.3.27.880 NetType/WIFI Language/zh_CN'
p88
sg16
S'882689a34c8a9515395927ef9c654acd'
p89
sa(dp90
g2
S'43074'
p91
sg4
S'430'
p92
sg6
S'5b48c78089c6f21a864d9e71cbaf0c9d'
p93
sg8
S'xx92fff3a4164b7dd675abd3f48b7121d7'
p94
sg10
S'xx38b25a64be81a94d5818411f340d977f'
p95
sg12
S'xx1b0d6c3ddf55414a4175cef0678dd66c'
p96
sg14
S'Mozilla/5.0 (Linux; Android 5.1.1; A51 Build/LMY47V) AppleWebKit/537.36 (KHTML, like Gecko) Version/4.0 Chrome/37.0.0.0 Mobile MQQBrowser/6.8 TBS/036849 Safari/537.36 MicroMessenger/6.3.27.880 NetType/WIFI Language/zh_CN'
p97
sg16
S'882689a34c8a9515395927ef9c654acd'
p98
sa(dp99
g2
S'43074'
p100
sg4
S'458'
p101
sg6
S'5b48c78089c6f21a864d9e71cbaf0c9d'
p102
sg8
S'xx92fff3a4164b7dd675abd3f48b7121d7'
p103
sg10
S'xx38b25a64be81a94d5818411f340d977f'
p104
sg12
S'xx1b0d6c3ddf55414a4175cef0678dd66c'
p105
sg14
S'Mozilla/5.0 (Linux; Android 5.1.1; A51 Build/LMY47V) AppleWebKit/537.36 (KHTML, like Gecko) Version/4.0 Chrome/37.0.0.0 Mobile MQQBrowser/6.8 TBS/036849 Safari/537.36 MicroMessenger/6.3.27.880 NetType/WIFI Language/zh_CN'
p106
sg16
S'882689a34c8a9515395927ef9c654acd'
p107
sa(dp108
g2
S'43074'
p109
sg4
S'467'
p110
sg6
S'b64d15794d0f4c5248a4506e1f89b036'
p111
sg8
S'xx9138e91c6f54ad50fb638bc3335f50ca'
p112
sg10
S'xx38b25a64be81a94d5818411f340d977f'
p113
sg12
S'xx1b0d6c3ddf55414a4175cef0678dd66c'
p114
sg14
S'Mozilla/5.0 (Linux; Android 5.1.1; A51 Build/LMY47V) AppleWebKit/537.36 (KHTML, like Gecko) Version/4.0 Chrome/37.0.0.0 Mobile MQQBrowser/6.8 TBS/036849 Safari/537.36 MicroMessenger/6.3.27.880 NetType/cmnet Language/zh_CN'
p115
sg16
S'07b7033b994bb1ddbb71cb7203082439'
p116
sa(dp117
g2
S'43074'
p118
sg4
S'479'
p119
sg6
S'b64d15794d0f4c5248a4506e1f89b036'
p120
sg8
S'xx9138e91c6f54ad50fb638bc3335f50ca'
p121
sg10
S'xx38b25a64be81a94d5818411f340d977f'
p122
sg12
S'xx1b0d6c3ddf55414a4175cef0678dd66c'
p123
sg14
S'Mozilla/5.0 (Linux; Android 5.1.1; A51 Build/LMY47V) AppleWebKit/537.36 (KHTML, like Gecko) Version/4.0 Chrome/37.0.0.0 Mobile MQQBrowser/6.8 TBS/036849 Safari/537.36 MicroMessenger/6.3.27.880 NetType/cmnet Language/zh_CN'
p124
sg16
S'07b7033b994bb1ddbb71cb7203082439'
p125
sa(dp126
g2
S'43074'
p127
sg4
S'493'
p128
sg6
S'b64d15794d0f4c5248a4506e1f89b036'
p129
sg8
S'xx9138e91c6f54ad50fb638bc3335f50ca'
p130
sg10
S'xx38b25a64be81a94d5818411f340d977f'
p131
sg12
S'xx1b0d6c3ddf55414a4175cef0678dd66c'
p132
sg14
S'Mozilla/5.0 (Linux; Android 5.1.1; A51 Build/LMY47V) AppleWebKit/537.36 (KHTML, like Gecko) Version/4.0 Chrome/37.0.0.0 Mobile MQQBrowser/6.8 TBS/036849 Safari/537.36 MicroMessenger/6.3.27.880 NetType/cmnet Language/zh_CN'
p133
sg16
S'07b7033b994bb1ddbb71cb7203082439'
p134
sa(dp135
g2
S'43074'
p136
sg4
S'504'
p137
sg6
S'b64d15794d0f4c5248a4506e1f89b036'
p138
sg8
S'xx9138e91c6f54ad50fb638bc3335f50ca'
p139
sg10
S'xx38b25a64be81a94d5818411f340d977f'
p140
sg12
S'xx1b0d6c3ddf55414a4175cef0678dd66c'
p141
sg14
S'Mozilla/5.0 (Linux; Android 5.1.1; A51 Build/LMY47V) AppleWebKit/537.36 (KHTML, like Gecko) Version/4.0 Chrome/37.0.0.0 Mobile MQQBrowser/6.8 TBS/036849 Safari/537.36 MicroMessenger/6.3.27.880 NetType/cmnet Language/zh_CN'
p142
sg16
S'07b7033b994bb1ddbb71cb7203082439'
p143
sa(dp144
g2
S'43074'
p145
sg4
S'518'
p146
sg6
S'b64d15794d0f4c5248a4506e1f89b036'
p147
sg8
S'xx9138e91c6f54ad50fb638bc3335f50ca'
p148
sg10
S'xx38b25a64be81a94d5818411f340d977f'
p149
sg12
S'xx1b0d6c3ddf55414a4175cef0678dd66c'
p150
sg14
S'Mozilla/5.0 (Linux; Android 5.1.1; A51 Build/LMY47V) AppleWebKit/537.36 (KHTML, like Gecko) Version/4.0 Chrome/37.0.0.0 Mobile MQQBrowser/6.8 TBS/036849 Safari/537.36 MicroMessenger/6.3.27.880 NetType/cmnet Language/zh_CN'
p151
sg16
S'07b7033b994bb1ddbb71cb7203082439'
p152
sa(dp153
g2
S'43074'
p154
sg4
S'533'
p155
sg6
S'b64d15794d0f4c5248a4506e1f89b036'
p156
sg8
S'xx9138e91c6f54ad50fb638bc3335f50ca'
p157
sg10
S'xx38b25a64be81a94d5818411f340d977f'
p158
sg12
S'xx1b0d6c3ddf55414a4175cef0678dd66c'
p159
sg14
S'Mozilla/5.0 (Linux; Android 5.1.1; A51 Build/LMY47V) AppleWebKit/537.36 (KHTML, like Gecko) Version/4.0 Chrome/37.0.0.0 Mobile MQQBrowser/6.8 TBS/036849 Safari/537.36 MicroMessenger/6.3.27.880 NetType/cmnet Language/zh_CN'
p160
sg16
S'07b7033b994bb1ddbb71cb7203082439'
p161
sa(dp162
g2
S'43074'
p163
sg4
S'553'
p164
sg6
S'b64d15794d0f4c5248a4506e1f89b036'
p165
sg8
S'xx9138e91c6f54ad50fb638bc3335f50ca'
p166
sg10
S'xx38b25a64be81a94d5818411f340d977f'
p167
sg12
S'xx1b0d6c3ddf55414a4175cef0678dd66c'
p168
sg14
S'Mozilla/5.0 (Linux; Android 5.1.1; A51 Build/LMY47V) AppleWebKit/537.36 (KHTML, like Gecko) Version/4.0 Chrome/37.0.0.0 Mobile MQQBrowser/6.8 TBS/036849 Safari/537.36 MicroMessenger/6.3.27.880 NetType/cmnet Language/zh_CN'
p169
sg16
S'07b7033b994bb1ddbb71cb7203082439'
p170
sa(dp171
g2
S'43074'
p172
sg4
S'582'
p173
sg6
S'b64d15794d0f4c5248a4506e1f89b036'
p174
sg8
S'xx9138e91c6f54ad50fb638bc3335f50ca'
p175
sg10
S'xx38b25a64be81a94d5818411f340d977f'
p176
sg12
S'xx1b0d6c3ddf55414a4175cef0678dd66c'
p177
sg14
S'Mozilla/5.0 (Linux; Android 5.1.1; A51 Build/LMY47V) AppleWebKit/537.36 (KHTML, like Gecko) Version/4.0 Chrome/37.0.0.0 Mobile MQQBrowser/6.8 TBS/036849 Safari/537.36 MicroMessenger/6.3.27.880 NetType/cmnet Language/zh_CN'
p178
sg16
S'07b7033b994bb1ddbb71cb7203082439'
p179
sa(dp180
g2
S'43074'
p181
sg4
S'598'
p182
sg6
S'b64d15794d0f4c5248a4506e1f89b036'
p183
sg8
S'xx9138e91c6f54ad50fb638bc3335f50ca'
p184
sg10
S'xx38b25a64be81a94d5818411f340d977f'
p185
sg12
S'xx1b0d6c3ddf55414a4175cef0678dd66c'
p186
sg14
S'Mozilla/5.0 (Linux; Android 5.1.1; A51 Build/LMY47V) AppleWebKit/537.36 (KHTML, like Gecko) Version/4.0 Chrome/37.0.0.0 Mobile MQQBrowser/6.8 TBS/036849 Safari/537.36 MicroMessenger/6.3.27.880 NetType/cmnet Language/zh_CN'
p187
sg16
S'07b7033b994bb1ddbb71cb7203082439'
p188
sa(dp189
g2
S'43074'
p190
sg4
S'1310'
p191
sg6
S'b64d15794d0f4c5248a4506e1f89b036'
p192
sg8
S'xx9138e91c6f54ad50fb638bc3335f50ca'
p193
sg10
S'xx38b25a64be81a94d5818411f340d977f'
p194
sg12
S'xx1b0d6c3ddf55414a4175cef0678dd66c'
p195
sg14
S'Mozilla/5.0 (Linux; Android 5.1.1; A51 Build/LMY47V) AppleWebKit/537.36 (KHTML, like Gecko) Version/4.0 Chrome/37.0.0.0 Mobile MQQBrowser/6.8 TBS/036849 Safari/537.36 MicroMessenger/6.3.27.880 NetType/cmnet Language/zh_CN'
p196
sg16
S'07b7033b994bb1ddbb71cb7203082439'
p197
sa(dp198
g2
S'43074'
p199
sg4
S'2144'
p200
sg6
S'b64d15794d0f4c5248a4506e1f89b036'
p201
sg8
S'xx9138e91c6f54ad50fb638bc3335f50ca'
p202
sg10
S'xx38b25a64be81a94d5818411f340d977f'
p203
sg12
S'xx1b0d6c3ddf55414a4175cef0678dd66c'
p204
sg14
S'Mozilla/5.0 (Linux; Android 5.1.1; A51 Build/LMY47V) AppleWebKit/537.36 (KHTML, like Gecko) Version/4.0 Chrome/37.0.0.0 Mobile MQQBrowser/6.8 TBS/036849 Safari/537.36 MicroMessenger/6.3.27.880 NetType/cmnet Language/zh_CN'
p205
sg16
S'07b7033b994bb1ddbb71cb7203082439'
p206
sa(dp207
g2
S'43074'
p208
sg4
S'2153'
p209
sg6
S'b64d15794d0f4c5248a4506e1f89b036'
p210
sg8
S'xx9138e91c6f54ad50fb638bc3335f50ca'
p211
sg10
S'xx38b25a64be81a94d5818411f340d977f'
p212
sg12
S'xx1b0d6c3ddf55414a4175cef0678dd66c'
p213
sg14
S'Mozilla/5.0 (Linux; Android 5.1.1; A51 Build/LMY47V) AppleWebKit/537.36 (KHTML, like Gecko) Version/4.0 Chrome/37.0.0.0 Mobile MQQBrowser/6.8 TBS/036849 Safari/537.36 MicroMessenger/6.3.27.880 NetType/cmnet Language/zh_CN'
p214
sg16
S'07b7033b994bb1ddbb71cb7203082439'
p215
sa(dp216
g2
S'43074'
p217
sg4
S'2159'
p218
sg6
S'b64d15794d0f4c5248a4506e1f89b036'
p219
sg8
S'xx9138e91c6f54ad50fb638bc3335f50ca'
p220
sg10
S'xx38b25a64be81a94d5818411f340d977f'
p221
sg12
S'xx1b0d6c3ddf55414a4175cef0678dd66c'
p222
sg14
S'Mozilla/5.0 (Linux; Android 5.1.1; A51 Build/LMY47V) AppleWebKit/537.36 (KHTML, like Gecko) Version/4.0 Chrome/37.0.0.0 Mobile MQQBrowser/6.8 TBS/036849 Safari/537.36 MicroMessenger/6.3.27.880 NetType/cmnet Language/zh_CN'
p223
sg16
S'07b7033b994bb1ddbb71cb7203082439'
p224
sa(dp225
g2
S'43074'
p226
sg4
S'2179'
p227
sg6
S'b64d15794d0f4c5248a4506e1f89b036'
p228
sg8
S'xx9138e91c6f54ad50fb638bc3335f50ca'
p229
sg10
S'xx38b25a64be81a94d5818411f340d977f'
p230
sg12
S'xx1b0d6c3ddf55414a4175cef0678dd66c'
p231
sg14
S'Mozilla/5.0 (Linux; Android 5.1.1; A51 Build/LMY47V) AppleWebKit/537.36 (KHTML, like Gecko) Version/4.0 Chrome/37.0.0.0 Mobile MQQBrowser/6.8 TBS/036849 Safari/537.36 MicroMessenger/6.3.27.880 NetType/cmnet Language/zh_CN'
p232
sg16
S'07b7033b994bb1ddbb71cb7203082439'
p233
sa(dp234
g2
S'43074'
p235
sg4
S'2231'
p236
sg6
S'b64d15794d0f4c5248a4506e1f89b036'
p237
sg8
S'xx9138e91c6f54ad50fb638bc3335f50ca'
p238
sg10
S'xx38b25a64be81a94d5818411f340d977f'
p239
sg12
S'xx1b0d6c3ddf55414a4175cef0678dd66c'
p240
sg14
S'Mozilla/5.0 (Linux; Android 5.1.1; A51 Build/LMY47V) AppleWebKit/537.36 (KHTML, like Gecko) Version/4.0 Chrome/37.0.0.0 Mobile MQQBrowser/6.8 TBS/036849 Safari/537.36 MicroMessenger/6.3.27.880 NetType/cmnet Language/zh_CN'
p241
sg16
S'07b7033b994bb1ddbb71cb7203082439'
p242
sa(dp243
g2
S'43074'
p244
sg4
S'2262'
p245
sg6
S'b64d15794d0f4c5248a4506e1f89b036'
p246
sg8
S'xx9138e91c6f54ad50fb638bc3335f50ca'
p247
sg10
S'xx38b25a64be81a94d5818411f340d977f'
p248
sg12
S'xx1b0d6c3ddf55414a4175cef0678dd66c'
p249
sg14
S'Mozilla/5.0 (Linux; Android 5.1.1; A51 Build/LMY47V) AppleWebKit/537.36 (KHTML, like Gecko) Version/4.0 Chrome/37.0.0.0 Mobile MQQBrowser/6.8 TBS/036849 Safari/537.36 MicroMessenger/6.3.27.880 NetType/cmnet Language/zh_CN'
p250
sg16
S'07b7033b994bb1ddbb71cb7203082439'
p251
sa(dp252
g2
S'43074'
p253
sg4
S'2306'
p254
sg6
S'b64d15794d0f4c5248a4506e1f89b036'
p255
sg8
S'xx9138e91c6f54ad50fb638bc3335f50ca'
p256
sg10
S'xx38b25a64be81a94d5818411f340d977f'
p257
sg12
S'xx1b0d6c3ddf55414a4175cef0678dd66c'
p258
sg14
S'Mozilla/5.0 (Linux; Android 5.1.1; A51 Build/LMY47V) AppleWebKit/537.36 (KHTML, like Gecko) Version/4.0 Chrome/37.0.0.0 Mobile MQQBrowser/6.8 TBS/036849 Safari/537.36 MicroMessenger/6.3.27.880 NetType/cmnet Language/zh_CN'
p259
sg16
S'07b7033b994bb1ddbb71cb7203082439'
p260
sa(dp261
g2
S'43074'
p262
sg4
S'2347'
p263
sg6
S'b64d15794d0f4c5248a4506e1f89b036'
p264
sg8
S'xx9138e91c6f54ad50fb638bc3335f50ca'
p265
sg10
S'xx38b25a64be81a94d5818411f340d977f'
p266
sg12
S'xx1b0d6c3ddf55414a4175cef0678dd66c'
p267
sg14
S'Mozilla/5.0 (Linux; Android 5.1.1; A51 Build/LMY47V) AppleWebKit/537.36 (KHTML, like Gecko) Version/4.0 Chrome/37.0.0.0 Mobile MQQBrowser/6.8 TBS/036849 Safari/537.36 MicroMessenger/6.3.27.880 NetType/cmnet Language/zh_CN'
p268
sg16
S'07b7033b994bb1ddbb71cb7203082439'
p269
sa(dp270
g2
S'43074'
p271
sg4
S'2365'
p272
sg6
S'b64d15794d0f4c5248a4506e1f89b036'
p273
sg8
S'xx9138e91c6f54ad50fb638bc3335f50ca'
p274
sg10
S'xx38b25a64be81a94d5818411f340d977f'
p275
sg12
S'xx1b0d6c3ddf55414a4175cef0678dd66c'
p276
sg14
S'Mozilla/5.0 (Linux; Android 5.1.1; A51 Build/LMY47V) AppleWebKit/537.36 (KHTML, like Gecko) Version/4.0 Chrome/37.0.0.0 Mobile MQQBrowser/6.8 TBS/036849 Safari/537.36 MicroMessenger/6.3.27.880 NetType/cmnet Language/zh_CN'
p277
sg16
S'07b7033b994bb1ddbb71cb7203082439'
p278
sa(dp279
g2
S'43074'
p280
sg4
S'2382'
p281
sg6
S'b64d15794d0f4c5248a4506e1f89b036'
p282
sg8
S'xx9138e91c6f54ad50fb638bc3335f50ca'
p283
sg10
S'xx38b25a64be81a94d5818411f340d977f'
p284
sg12
S'xx1b0d6c3ddf55414a4175cef0678dd66c'
p285
sg14
S'Mozilla/5.0 (Linux; Android 5.1.1; A51 Build/LMY47V) AppleWebKit/537.36 (KHTML, like Gecko) Version/4.0 Chrome/37.0.0.0 Mobile MQQBrowser/6.8 TBS/036849 Safari/537.36 MicroMessenger/6.3.27.880 NetType/cmnet Language/zh_CN'
p286
sg16
S'07b7033b994bb1ddbb71cb7203082439'
p287
sa(dp288
g2
S'43074'
p289
sg4
S'2401'
p290
sg6
S'b64d15794d0f4c5248a4506e1f89b036'
p291
sg8
S'xx9138e91c6f54ad50fb638bc3335f50ca'
p292
sg10
S'xx38b25a64be81a94d5818411f340d977f'
p293
sg12
S'xx1b0d6c3ddf55414a4175cef0678dd66c'
p294
sg14
S'Mozilla/5.0 (Linux; Android 5.1.1; A51 Build/LMY47V) AppleWebKit/537.36 (KHTML, like Gecko) Version/4.0 Chrome/37.0.0.0 Mobile MQQBrowser/6.8 TBS/036849 Safari/537.36 MicroMessenger/6.3.27.880 NetType/cmnet Language/zh_CN'
p295
sg16
S'07b7033b994bb1ddbb71cb7203082439'
p296
sa(dp297
g2
S'43074'
p298
sg4
S'2425'
p299
sg6
S'b64d15794d0f4c5248a4506e1f89b036'
p300
sg8
S'xx9138e91c6f54ad50fb638bc3335f50ca'
p301
sg10
S'xx38b25a64be81a94d5818411f340d977f'
p302
sg12
S'xx1b0d6c3ddf55414a4175cef0678dd66c'
p303
sg14
S'Mozilla/5.0 (Linux; Android 5.1.1; A51 Build/LMY47V) AppleWebKit/537.36 (KHTML, like Gecko) Version/4.0 Chrome/37.0.0.0 Mobile MQQBrowser/6.8 TBS/036849 Safari/537.36 MicroMessenger/6.3.27.880 NetType/cmnet Language/zh_CN'
p304
sg16
S'07b7033b994bb1ddbb71cb7203082439'
p305
sa(dp306
g2
S'43074'
p307
sg4
S'2443'
p308
sg6
S'b64d15794d0f4c5248a4506e1f89b036'
p309
sg8
S'xx9138e91c6f54ad50fb638bc3335f50ca'
p310
sg10
S'xx38b25a64be81a94d5818411f340d977f'
p311
sg12
S'xx1b0d6c3ddf55414a4175cef0678dd66c'
p312
sg14
S'Mozilla/5.0 (Linux; Android 5.1.1; A51 Build/LMY47V) AppleWebKit/537.36 (KHTML, like Gecko) Version/4.0 Chrome/37.0.0.0 Mobile MQQBrowser/6.8 TBS/036849 Safari/537.36 MicroMessenger/6.3.27.880 NetType/cmnet Language/zh_CN'
p313
sg16
S'07b7033b994bb1ddbb71cb7203082439'
p314
sa(dp315
g2
S'43074'
p316
sg4
S'2456'
p317
sg6
S'b64d15794d0f4c5248a4506e1f89b036'
p318
sg8
S'xx9138e91c6f54ad50fb638bc3335f50ca'
p319
sg10
S'xx38b25a64be81a94d5818411f340d977f'
p320
sg12
S'xx1b0d6c3ddf55414a4175cef0678dd66c'
p321
sg14
S'Mozilla/5.0 (Linux; Android 5.1.1; A51 Build/LMY47V) AppleWebKit/537.36 (KHTML, like Gecko) Version/4.0 Chrome/37.0.0.0 Mobile MQQBrowser/6.8 TBS/036849 Safari/537.36 MicroMessenger/6.3.27.880 NetType/cmnet Language/zh_CN'
p322
sg16
S'07b7033b994bb1ddbb71cb7203082439'
p323
sa(dp324
g2
S'43074'
p325
sg4
S'2479'
p326
sg6
S'b64d15794d0f4c5248a4506e1f89b036'
p327
sg8
S'xx9138e91c6f54ad50fb638bc3335f50ca'
p328
sg10
S'xx38b25a64be81a94d5818411f340d977f'
p329
sg12
S'xx1b0d6c3ddf55414a4175cef0678dd66c'
p330
sg14
S'Mozilla/5.0 (Linux; Android 5.1.1; A51 Build/LMY47V) AppleWebKit/537.36 (KHTML, like Gecko) Version/4.0 Chrome/37.0.0.0 Mobile MQQBrowser/6.8 TBS/036849 Safari/537.36 MicroMessenger/6.3.27.880 NetType/cmnet Language/zh_CN'
p331
sg16
S'07b7033b994bb1ddbb71cb7203082439'
p332
sa(dp333
g2
S'43074'
p334
sg4
S'2503'
p335
sg6
S'b64d15794d0f4c5248a4506e1f89b036'
p336
sg8
S'xx9138e91c6f54ad50fb638bc3335f50ca'
p337
sg10
S'xx38b25a64be81a94d5818411f340d977f'
p338
sg12
S'xx1b0d6c3ddf55414a4175cef0678dd66c'
p339
sg14
S'Mozilla/5.0 (Linux; Android 5.1.1; A51 Build/LMY47V) AppleWebKit/537.36 (KHTML, like Gecko) Version/4.0 Chrome/37.0.0.0 Mobile MQQBrowser/6.8 TBS/036849 Safari/537.36 MicroMessenger/6.3.27.880 NetType/cmnet Language/zh_CN'
p340
sg16
S'07b7033b994bb1ddbb71cb7203082439'
p341
sa(dp342
g2
S'43074'
p343
sg4
S'2529'
p344
sg6
S'b64d15794d0f4c5248a4506e1f89b036'
p345
sg8
S'xx9138e91c6f54ad50fb638bc3335f50ca'
p346
sg10
S'xx38b25a64be81a94d5818411f340d977f'
p347
sg12
S'xx1b0d6c3ddf55414a4175cef0678dd66c'
p348
sg14
S'Mozilla/5.0 (Linux; Android 5.1.1; A51 Build/LMY47V) AppleWebKit/537.36 (KHTML, like Gecko) Version/4.0 Chrome/37.0.0.0 Mobile MQQBrowser/6.8 TBS/036849 Safari/537.36 MicroMessenger/6.3.27.880 NetType/cmnet Language/zh_CN'
p349
sg16
S'07b7033b994bb1ddbb71cb7203082439'
p350
sa(dp351
g2
S'43074'
p352
sg4
S'2557'
p353
sg6
S'b64d15794d0f4c5248a4506e1f89b036'
p354
sg8
S'xx9138e91c6f54ad50fb638bc3335f50ca'
p355
sg10
S'xx38b25a64be81a94d5818411f340d977f'
p356
sg12
S'xx1b0d6c3ddf55414a4175cef0678dd66c'
p357
sg14
S'Mozilla/5.0 (Linux; Android 5.1.1; A51 Build/LMY47V) AppleWebKit/537.36 (KHTML, like Gecko) Version/4.0 Chrome/37.0.0.0 Mobile MQQBrowser/6.8 TBS/036849 Safari/537.36 MicroMessenger/6.3.27.880 NetType/cmnet Language/zh_CN'
p358
sg16
S'07b7033b994bb1ddbb71cb7203082439'
p359
sa(dp360
g2
S'43074'
p361
sg4
S'2576'
p362
sg6
S'b64d15794d0f4c5248a4506e1f89b036'
p363
sg8
S'xx9138e91c6f54ad50fb638bc3335f50ca'
p364
sg10
S'xx38b25a64be81a94d5818411f340d977f'
p365
sg12
S'xx1b0d6c3ddf55414a4175cef0678dd66c'
p366
sg14
S'Mozilla/5.0 (Linux; Android 5.1.1; A51 Build/LMY47V) AppleWebKit/537.36 (KHTML, like Gecko) Version/4.0 Chrome/37.0.0.0 Mobile MQQBrowser/6.8 TBS/036849 Safari/537.36 MicroMessenger/6.3.27.880 NetType/cmnet Language/zh_CN'
p367
sg16
S'07b7033b994bb1ddbb71cb7203082439'
p368
sa(dp369
g2
S'43074'
p370
sg4
S'2627'
p371
sg6
S'b64d15794d0f4c5248a4506e1f89b036'
p372
sg8
S'xx9138e91c6f54ad50fb638bc3335f50ca'
p373
sg10
S'xx38b25a64be81a94d5818411f340d977f'
p374
sg12
S'xx1b0d6c3ddf55414a4175cef0678dd66c'
p375
sg14
S'Mozilla/5.0 (Linux; Android 5.1.1; A51 Build/LMY47V) AppleWebKit/537.36 (KHTML, like Gecko) Version/4.0 Chrome/37.0.0.0 Mobile MQQBrowser/6.8 TBS/036849 Safari/537.36 MicroMessenger/6.3.27.880 NetType/cmnet Language/zh_CN'
p376
sg16
S'07b7033b994bb1ddbb71cb7203082439'
p377
sa(dp378
g2
S'43074'
p379
sg4
S'2639'
p380
sg6
S'b64d15794d0f4c5248a4506e1f89b036'
p381
sg8
S'xx9138e91c6f54ad50fb638bc3335f50ca'
p382
sg10
S'xx38b25a64be81a94d5818411f340d977f'
p383
sg12
S'xx1b0d6c3ddf55414a4175cef0678dd66c'
p384
sg14
S'Mozilla/5.0 (Linux; Android 5.1.1; A51 Build/LMY47V) AppleWebKit/537.36 (KHTML, like Gecko) Version/4.0 Chrome/37.0.0.0 Mobile MQQBrowser/6.8 TBS/036849 Safari/537.36 MicroMessenger/6.3.27.880 NetType/cmnet Language/zh_CN'
p385
sg16
S'07b7033b994bb1ddbb71cb7203082439'
p386
sa(dp387
g2
S'43074'
p388
sg4
S'2665'
p389
sg6
S'b64d15794d0f4c5248a4506e1f89b036'
p390
sg8
S'xx9138e91c6f54ad50fb638bc3335f50ca'
p391
sg10
S'xx38b25a64be81a94d5818411f340d977f'
p392
sg12
S'xx1b0d6c3ddf55414a4175cef0678dd66c'
p393
sg14
S'Mozilla/5.0 (Linux; Android 5.1.1; A51 Build/LMY47V) AppleWebKit/537.36 (KHTML, like Gecko) Version/4.0 Chrome/37.0.0.0 Mobile MQQBrowser/6.8 TBS/036849 Safari/537.36 MicroMessenger/6.3.27.880 NetType/cmnet Language/zh_CN'
p394
sg16
S'07b7033b994bb1ddbb71cb7203082439'
p395
sa(dp396
g2
S'43074'
p397
sg4
S'2687'
p398
sg6
S'b64d15794d0f4c5248a4506e1f89b036'
p399
sg8
S'xx9138e91c6f54ad50fb638bc3335f50ca'
p400
sg10
S'xx38b25a64be81a94d5818411f340d977f'
p401
sg12
S'xx1b0d6c3ddf55414a4175cef0678dd66c'
p402
sg14
S'Mozilla/5.0 (Linux; Android 5.1.1; A51 Build/LMY47V) AppleWebKit/537.36 (KHTML, like Gecko) Version/4.0 Chrome/37.0.0.0 Mobile MQQBrowser/6.8 TBS/036849 Safari/537.36 MicroMessenger/6.3.27.880 NetType/cmnet Language/zh_CN'
p403
sg16
S'07b7033b994bb1ddbb71cb7203082439'
p404
sa(dp405
g2
S'43074'
p406
sg4
S'2707'
p407
sg6
S'b64d15794d0f4c5248a4506e1f89b036'
p408
sg8
S'xx9138e91c6f54ad50fb638bc3335f50ca'
p409
sg10
S'xx38b25a64be81a94d5818411f340d977f'
p410
sg12
S'xx1b0d6c3ddf55414a4175cef0678dd66c'
p411
sg14
S'Mozilla/5.0 (Linux; Android 5.1.1; A51 Build/LMY47V) AppleWebKit/537.36 (KHTML, like Gecko) Version/4.0 Chrome/37.0.0.0 Mobile MQQBrowser/6.8 TBS/036849 Safari/537.36 MicroMessenger/6.3.27.880 NetType/cmnet Language/zh_CN'
p412
sg16
S'07b7033b994bb1ddbb71cb7203082439'
p413
sa(dp414
g2
S'43074'
p415
sg4
S'2726'
p416
sg6
S'b64d15794d0f4c5248a4506e1f89b036'
p417
sg8
S'xx9138e91c6f54ad50fb638bc3335f50ca'
p418
sg10
S'xx38b25a64be81a94d5818411f340d977f'
p419
sg12
S'xx1b0d6c3ddf55414a4175cef0678dd66c'
p420
sg14
S'Mozilla/5.0 (Linux; Android 5.1.1; A51 Build/LMY47V) AppleWebKit/537.36 (KHTML, like Gecko) Version/4.0 Chrome/37.0.0.0 Mobile MQQBrowser/6.8 TBS/036849 Safari/537.36 MicroMessenger/6.3.27.880 NetType/cmnet Language/zh_CN'
p421
sg16
S'07b7033b994bb1ddbb71cb7203082439'
p422
sa(dp423
g2
S'43074'
p424
sg4
S'2746'
p425
sg6
S'b64d15794d0f4c5248a4506e1f89b036'
p426
sg8
S'xx9138e91c6f54ad50fb638bc3335f50ca'
p427
sg10
S'xx38b25a64be81a94d5818411f340d977f'
p428
sg12
S'xx1b0d6c3ddf55414a4175cef0678dd66c'
p429
sg14
S'Mozilla/5.0 (Linux; Android 5.1.1; A51 Build/LMY47V) AppleWebKit/537.36 (KHTML, like Gecko) Version/4.0 Chrome/37.0.0.0 Mobile MQQBrowser/6.8 TBS/036849 Safari/537.36 MicroMessenger/6.3.27.880 NetType/cmnet Language/zh_CN'
p430
sg16
S'07b7033b994bb1ddbb71cb7203082439'
p431
sa(dp432
g2
S'43074'
p433
sg4
S'2802'
p434
sg6
S'b64d15794d0f4c5248a4506e1f89b036'
p435
sg8
S'xx9138e91c6f54ad50fb638bc3335f50ca'
p436
sg10
S'xx38b25a64be81a94d5818411f340d977f'
p437
sg12
S'xx1b0d6c3ddf55414a4175cef0678dd66c'
p438
sg14
S'Mozilla/5.0 (Linux; Android 5.1.1; A51 Build/LMY47V) AppleWebKit/537.36 (KHTML, like Gecko) Version/4.0 Chrome/37.0.0.0 Mobile MQQBrowser/6.8 TBS/036849 Safari/537.36 MicroMessenger/6.3.27.880 NetType/cmnet Language/zh_CN'
p439
sg16
S'07b7033b994bb1ddbb71cb7203082439'
p440
sa(dp441
g2
S'43074'
p442
sg4
S'2819'
p443
sg6
S'b64d15794d0f4c5248a4506e1f89b036'
p444
sg8
S'xx9138e91c6f54ad50fb638bc3335f50ca'
p445
sg10
S'xx38b25a64be81a94d5818411f340d977f'
p446
sg12
S'xx1b0d6c3ddf55414a4175cef0678dd66c'
p447
sg14
S'Mozilla/5.0 (Linux; Android 5.1.1; A51 Build/LMY47V) AppleWebKit/537.36 (KHTML, like Gecko) Version/4.0 Chrome/37.0.0.0 Mobile MQQBrowser/6.8 TBS/036849 Safari/537.36 MicroMessenger/6.3.27.880 NetType/cmnet Language/zh_CN'
p448
sg16
S'07b7033b994bb1ddbb71cb7203082439'
p449
sa(dp450
g2
S'43074'
p451
sg4
S'2838'
p452
sg6
S'b64d15794d0f4c5248a4506e1f89b036'
p453
sg8
S'xx9138e91c6f54ad50fb638bc3335f50ca'
p454
sg10
S'xx38b25a64be81a94d5818411f340d977f'
p455
sg12
S'xx1b0d6c3ddf55414a4175cef0678dd66c'
p456
sg14
S'Mozilla/5.0 (Linux; Android 5.1.1; A51 Build/LMY47V) AppleWebKit/537.36 (KHTML, like Gecko) Version/4.0 Chrome/37.0.0.0 Mobile MQQBrowser/6.8 TBS/036849 Safari/537.36 MicroMessenger/6.3.27.880 NetType/cmnet Language/zh_CN'
p457
sg16
S'07b7033b994bb1ddbb71cb7203082439'
p458
sa(dp459
g2
S'30322'
p460
sg4
S'3271'
p461
sg6
S'a9f31e12a2cb8b23a96e46d60b589c24'
p462
sg8
S'xx92fff3a4164b7dd675abd3f48b7121d7'
p463
sg10
S'xx38b25a64be81a94d5818411f340d977f'
p464
sg12
S'xx1b0d6c3ddf55414a4175cef0678dd66c'
p465
sg14
S'Mozilla/5.0 (Linux; Android 5.1.1; A51 Build/LMY47V) AppleWebKit/537.36 (KHTML, like Gecko) Version/4.0 Chrome/37.0.0.0 Mobile MQQBrowser/6.8 TBS/036849 Safari/537.36 MicroMessenger/6.3.27.880 NetType/WIFI Language/zh_CN'
p466
sg16
S'882689a34c8a9515395927ef9c654acd'
p467
sa(dp468
g2
S'30322'
p469
sg4
S'3289'
p470
sg6
S'a9f31e12a2cb8b23a96e46d60b589c24'
p471
sg8
S'xx92fff3a4164b7dd675abd3f48b7121d7'
p472
sg10
S'xx38b25a64be81a94d5818411f340d977f'
p473
sg12
S'xx1b0d6c3ddf55414a4175cef0678dd66c'
p474
sg14
S'Mozilla/5.0 (Linux; Android 5.1.1; A51 Build/LMY47V) AppleWebKit/537.36 (KHTML, like Gecko) Version/4.0 Chrome/37.0.0.0 Mobile MQQBrowser/6.8 TBS/036849 Safari/537.36 MicroMessenger/6.3.27.880 NetType/WIFI Language/zh_CN'
p475
sg16
S'882689a34c8a9515395927ef9c654acd'
p476
sa(dp477
g2
S'30322'
p478
sg4
S'3302'
p479
sg6
S'a9f31e12a2cb8b23a96e46d60b589c24'
p480
sg8
S'xx92fff3a4164b7dd675abd3f48b7121d7'
p481
sg10
S'xx38b25a64be81a94d5818411f340d977f'
p482
sg12
S'xx1b0d6c3ddf55414a4175cef0678dd66c'
p483
sg14
S'Mozilla/5.0 (Linux; Android 5.1.1; A51 Build/LMY47V) AppleWebKit/537.36 (KHTML, like Gecko) Version/4.0 Chrome/37.0.0.0 Mobile MQQBrowser/6.8 TBS/036849 Safari/537.36 MicroMessenger/6.3.27.880 NetType/WIFI Language/zh_CN'
p484
sg16
S'882689a34c8a9515395927ef9c654acd'
p485
sa(dp486
g2
S'33285'
p487
sg4
S'8196'
p488
sg6
S'e472478d9c40c956bd3ba6c4ffc4e3e4'
p489
sg8
S'xx92fff3a4164b7dd675abd3f48b7121d7'
p490
sg10
S'xx38b25a64be81a94d5818411f340d977f'
p491
sg12
S'xx1b0d6c3ddf55414a4175cef0678dd66c'
p492
sg14
S'Mozilla/5.0 (Linux; Android 5.1.1; A51 Build/LMY47V) AppleWebKit/537.36 (KHTML, like Gecko) Version/4.0 Chrome/37.0.0.0 Mobile MQQBrowser/6.8 TBS/036849 Safari/537.36 MicroMessenger/6.3.27.880 NetType/WIFI Language/zh_CN'
p493
sg16
S'882689a34c8a9515395927ef9c654acd'
p494
sa(dp495
g2
S'33285'
p496
sg4
S'8210'
p497
sg6
S'e472478d9c40c956bd3ba6c4ffc4e3e4'
p498
sg8
S'xx92fff3a4164b7dd675abd3f48b7121d7'
p499
sg10
S'xx38b25a64be81a94d5818411f340d977f'
p500
sg12
S'xx1b0d6c3ddf55414a4175cef0678dd66c'
p501
sg14
S'Mozilla/5.0 (Linux; Android 5.1.1; A51 Build/LMY47V) AppleWebKit/537.36 (KHTML, like Gecko) Version/4.0 Chrome/37.0.0.0 Mobile MQQBrowser/6.8 TBS/036849 Safari/537.36 MicroMessenger/6.3.27.880 NetType/WIFI Language/zh_CN'
p502
sg16
S'882689a34c8a9515395927ef9c654acd'
p503
sa.