(lp0
(dp1
S'user_id'
p2
S'44586'
p3
sS'data_id'
p4
S'5064'
p5
sS'ip'
p6
S'2f020b9c014fa275d9b97e4e01e69685'
p7
sS'phone_B'
p8
S'xxd3ee5ec7b605aa9da2d7840f3835b428'
p9
sS'phone_C'
p10
S'xx138ec6372d625692957d4a987a28dc44'
p11
sS'phone_A'
p12
S'xx1b4b4ba809f8b872a8d7473c77183326'
p13
sS'user_agent'
p14
S'Mozilla/5.0 (Linux; Android 5.1; BOWAY_U7 Build/LMY47D) AppleWebKit/537.36 (KHTML, like Gecko) Version/4.0 Chrome/39.0.0.0 Mobile Safari/537.36 MicroMessenger/6.3.27.880 NetType/cmnet Language/zh_CN'
p15
sS'ua'
p16
S'5132a1e06e6534b57e00cc17e3ed6bfc'
p17
sa(dp18
g2
S'44586'
p19
sg4
S'5081'
p20
sg6
S'2f020b9c014fa275d9b97e4e01e69685'
p21
sg8
S'xxd3ee5ec7b605aa9da2d7840f3835b428'
p22
sg10
S'xx138ec6372d625692957d4a987a28dc44'
p23
sg12
S'xx1b4b4ba809f8b872a8d7473c77183326'
p24
sg14
S'Mozilla/5.0 (Linux; Android 5.1; BOWAY_U7 Build/LMY47D) AppleWebKit/537.36 (KHTML, like Gecko) Version/4.0 Chrome/39.0.0.0 Mobile Safari/537.36 MicroMessenger/6.3.27.880 NetType/cmnet Language/zh_CN'
p25
sg16
S'5132a1e06e6534b57e00cc17e3ed6bfc'
p26
sa.