(lp0
(dp1
S'user_id'
p2
S'30548'
p3
sS'data_id'
p4
S'345'
p5
sS'ip'
p6
S'8c45aec587d8586e0964fb81b7ce4547'
p7
sS'phone_B'
p8
S'xx8c0e59ce07ae46905e0bdbf6402cb53c'
p9
sS'phone_C'
p10
S'xx1973121695db2f180215a77f8aceaf46'
p11
sS'phone_A'
p12
S'xx1c11a32f7bf3b83531c4d48a544ab82a'
p13
sS'user_agent'
p14
S'Mozilla/5.0 (Linux; Android 5.0; vivo Y33 Build/LRX21M) AppleWebKit/537.36 (KHTML, like Gecko) Version/4.0 Chrome/37.0.0.0 Mobile MQQBrowser/6.8 TBS/036849 Safari/537.36 MicroMessenger/6.3.27.880 NetType/WIFI Language/zh_CN'
p15
sS'ua'
p16
S'59434e3dad8651142fed4cde8cc13d30'
p17
sa(dp18
g2
S'30548'
p19
sg4
S'361'
p20
sg6
S'8c45aec587d8586e0964fb81b7ce4547'
p21
sg8
S'xx8c0e59ce07ae46905e0bdbf6402cb53c'
p22
sg10
S'xx1973121695db2f180215a77f8aceaf46'
p23
sg12
S'xx1c11a32f7bf3b83531c4d48a544ab82a'
p24
sg14
S'Mozilla/5.0 (Linux; Android 5.0; vivo Y33 Build/LRX21M) AppleWebKit/537.36 (KHTML, like Gecko) Version/4.0 Chrome/37.0.0.0 Mobile MQQBrowser/6.8 TBS/036849 Safari/537.36 MicroMessenger/6.3.27.880 NetType/WIFI Language/zh_CN'
p25
sg16
S'59434e3dad8651142fed4cde8cc13d30'
p26
sa(dp27
g2
S'30548'
p28
sg4
S'373'
p29
sg6
S'8c45aec587d8586e0964fb81b7ce4547'
p30
sg8
S'xx8c0e59ce07ae46905e0bdbf6402cb53c'
p31
sg10
S'xx1973121695db2f180215a77f8aceaf46'
p32
sg12
S'xx1c11a32f7bf3b83531c4d48a544ab82a'
p33
sg14
S'Mozilla/5.0 (Linux; Android 5.0; vivo Y33 Build/LRX21M) AppleWebKit/537.36 (KHTML, like Gecko) Version/4.0 Chrome/37.0.0.0 Mobile MQQBrowser/6.8 TBS/036849 Safari/537.36 MicroMessenger/6.3.27.880 NetType/WIFI Language/zh_CN'
p34
sg16
S'59434e3dad8651142fed4cde8cc13d30'
p35
sa(dp36
g2
S'30756'
p37
sg4
S'1635'
p38
sg6
S'5d46bd510df8e12954dc9ce0b6b18ebe'
p39
sg8
S'xx5c86c46e8e3a6a65f670dc1b922517f4'
p40
sg10
S'xx1973121695db2f180215a77f8aceaf46'
p41
sg12
S'xx1c11a32f7bf3b83531c4d48a544ab82a'
p42
sg14
S'Mozilla/5.0 (Linux; Android 5.0; vivo Y33 Build/LRX21M) AppleWebKit/537.36 (KHTML, like Gecko) Version/4.0 Chrome/37.0.0.0 Mobile MQQBrowser/6.8 TBS/036869 Safari/537.36 MicroMessenger/6.3.27.880 NetType/WIFI Language/zh_CN'
p43
sg16
S'448c43fc8d20210596b331d1d678f05c'
p44
sa(dp45
g2
S'30756'
p46
sg4
S'1647'
p47
sg6
S'5d46bd510df8e12954dc9ce0b6b18ebe'
p48
sg8
S'xx5c86c46e8e3a6a65f670dc1b922517f4'
p49
sg10
S'xx1973121695db2f180215a77f8aceaf46'
p50
sg12
S'xx1c11a32f7bf3b83531c4d48a544ab82a'
p51
sg14
S'Mozilla/5.0 (Linux; Android 5.0; vivo Y33 Build/LRX21M) AppleWebKit/537.36 (KHTML, like Gecko) Version/4.0 Chrome/37.0.0.0 Mobile MQQBrowser/6.8 TBS/036869 Safari/537.36 MicroMessenger/6.3.27.880 NetType/WIFI Language/zh_CN'
p52
sg16
S'448c43fc8d20210596b331d1d678f05c'
p53
sa(dp54
g2
S'22645'
p55
sg4
S'5912'
p56
sg6
S'fca8f5236f19ebce72d5785aa76f8758'
p57
sg8
S'xxa5f9354a03faf549c692ebb3ac3a5212'
p58
sg10
S'xx1973121695db2f180215a77f8aceaf46'
p59
sg12
S'xx1c11a32f7bf3b83531c4d48a544ab82a'
p60
sg14
S'Mozilla/5.0 (Linux; Android 5.0; vivo Y33 Build/LRX21M) AppleWebKit/537.36 (KHTML, like Gecko) Version/4.0 Chrome/37.0.0.0 Mobile MQQBrowser/6.8 TBS/036824 Safari/537.36 MicroMessenger/6.3.27.880 NetType/WIFI Language/zh_CN'
p61
sg16
S'5cb1a913a68a95f50a79aacdbc5a65c5'
p62
sa(dp63
g2
S'22645'
p64
sg4
S'5932'
p65
sg6
S'fca8f5236f19ebce72d5785aa76f8758'
p66
sg8
S'xxa5f9354a03faf549c692ebb3ac3a5212'
p67
sg10
S'xx1973121695db2f180215a77f8aceaf46'
p68
sg12
S'xx1c11a32f7bf3b83531c4d48a544ab82a'
p69
sg14
S'Mozilla/5.0 (Linux; Android 5.0; vivo Y33 Build/LRX21M) AppleWebKit/537.36 (KHTML, like Gecko) Version/4.0 Chrome/37.0.0.0 Mobile MQQBrowser/6.8 TBS/036824 Safari/537.36 MicroMessenger/6.3.27.880 NetType/WIFI Language/zh_CN'
p70
sg16
S'5cb1a913a68a95f50a79aacdbc5a65c5'
p71
sa(dp72
g2
S'22645'
p73
sg4
S'5949'
p74
sg6
S'fca8f5236f19ebce72d5785aa76f8758'
p75
sg8
S'xxa5f9354a03faf549c692ebb3ac3a5212'
p76
sg10
S'xx1973121695db2f180215a77f8aceaf46'
p77
sg12
S'xx1c11a32f7bf3b83531c4d48a544ab82a'
p78
sg14
S'Mozilla/5.0 (Linux; Android 5.0; vivo Y33 Build/LRX21M) AppleWebKit/537.36 (KHTML, like Gecko) Version/4.0 Chrome/37.0.0.0 Mobile MQQBrowser/6.8 TBS/036824 Safari/537.36 MicroMessenger/6.3.27.880 NetType/WIFI Language/zh_CN'
p79
sg16
S'5cb1a913a68a95f50a79aacdbc5a65c5'
p80
sa(dp81
g2
S'49816'
p82
sg4
S'6524'
p83
sg6
S'd992942af7bc5f9aa683b083e37c771a'
p84
sg8
S'xxcaf55a3c1efc9911c8a6d6e786186e8d'
p85
sg10
S'xx7265de9e5324cc2f429710a879facd1b'
p86
sg12
S'xx1c11a32f7bf3b83531c4d48a544ab82a'
p87
sg14
S'Mozilla/5.0 (Linux; Android 5.0; vivo Y33 Build/LRX21M) AppleWebKit/537.36 (KHTML, like Gecko) Version/4.0 Chrome/37.0.0.0 Mobile MQQBrowser/6.8 TBS/036849 Safari/537.36 MicroMessenger/6.3.27.880 NetType/cmnet Language/zh_CN'
p88
sg16
S'aa67f664da8f5f8891c9b482d538c437'
p89
sa(dp90
g2
S'49816'
p91
sg4
S'6543'
p92
sg6
S'd992942af7bc5f9aa683b083e37c771a'
p93
sg8
S'xxcaf55a3c1efc9911c8a6d6e786186e8d'
p94
sg10
S'xx7265de9e5324cc2f429710a879facd1b'
p95
sg12
S'xx1c11a32f7bf3b83531c4d48a544ab82a'
p96
sg14
S'Mozilla/5.0 (Linux; Android 5.0; vivo Y33 Build/LRX21M) AppleWebKit/537.36 (KHTML, like Gecko) Version/4.0 Chrome/37.0.0.0 Mobile MQQBrowser/6.8 TBS/036849 Safari/537.36 MicroMessenger/6.3.27.880 NetType/cmnet Language/zh_CN'
p97
sg16
S'aa67f664da8f5f8891c9b482d538c437'
p98
sa.