(lp0
(dp1
S'user_id'
p2
S'48380'
p3
sS'data_id'
p4
S'4540'
p5
sS'ip'
p6
S'd0088bbb724aad1d00c2f73fd5f65f85'
p7
sS'phone_B'
p8
S'xx14f2e8fce9734cbb5e1f0ae2c91274fe'
p9
sS'phone_C'
p10
S'xxec256c0b8dc2651c251d9d80309631c4'
p11
sS'phone_A'
p12
S'xx1c94c9447b6d67e85ca804a802b08543'
p13
sS'user_agent'
p14
S'Mozilla/5.0 (Linux; Android 4.4.4; JXD Build/KTU84P) AppleWebKit/537.36 (KHTML, like Gecko) Version/4.0 Chrome/37.0.0.0 Mobile MQQBrowser/6.8 TBS/036865 Safari/537.36 MicroMessenger/6.3.27.880 NetType/WIFI Language/zh_CN'
p15
sS'ua'
p16
S'2b9aa4dba9ab7acea2f55a15d1f46ad0'
p17
sa(dp18
g2
S'48380'
p19
sg4
S'4565'
p20
sg6
S'd0088bbb724aad1d00c2f73fd5f65f85'
p21
sg8
S'xx14f2e8fce9734cbb5e1f0ae2c91274fe'
p22
sg10
S'xxec256c0b8dc2651c251d9d80309631c4'
p23
sg12
S'xx1c94c9447b6d67e85ca804a802b08543'
p24
sg14
S'Mozilla/5.0 (Linux; Android 4.4.4; JXD Build/KTU84P) AppleWebKit/537.36 (KHTML, like Gecko) Version/4.0 Chrome/37.0.0.0 Mobile MQQBrowser/6.8 TBS/036865 Safari/537.36 MicroMessenger/6.3.27.880 NetType/WIFI Language/zh_CN'
p25
sg16
S'2b9aa4dba9ab7acea2f55a15d1f46ad0'
p26
sa(dp27
g2
S'48380'
p28
sg4
S'4588'
p29
sg6
S'd0088bbb724aad1d00c2f73fd5f65f85'
p30
sg8
S'xx14f2e8fce9734cbb5e1f0ae2c91274fe'
p31
sg10
S'xxec256c0b8dc2651c251d9d80309631c4'
p32
sg12
S'xx1c94c9447b6d67e85ca804a802b08543'
p33
sg14
S'Mozilla/5.0 (Linux; Android 4.4.4; JXD Build/KTU84P) AppleWebKit/537.36 (KHTML, like Gecko) Version/4.0 Chrome/37.0.0.0 Mobile MQQBrowser/6.8 TBS/036865 Safari/537.36 MicroMessenger/6.3.27.880 NetType/WIFI Language/zh_CN'
p34
sg16
S'2b9aa4dba9ab7acea2f55a15d1f46ad0'
p35
sa(dp36
g2
S'48380'
p37
sg4
S'4604'
p38
sg6
S'd0088bbb724aad1d00c2f73fd5f65f85'
p39
sg8
S'xx14f2e8fce9734cbb5e1f0ae2c91274fe'
p40
sg10
S'xxec256c0b8dc2651c251d9d80309631c4'
p41
sg12
S'xx1c94c9447b6d67e85ca804a802b08543'
p42
sg14
S'Mozilla/5.0 (Linux; Android 4.4.4; JXD Build/KTU84P) AppleWebKit/537.36 (KHTML, like Gecko) Version/4.0 Chrome/37.0.0.0 Mobile MQQBrowser/6.8 TBS/036865 Safari/537.36 MicroMessenger/6.3.27.880 NetType/WIFI Language/zh_CN'
p43
sg16
S'2b9aa4dba9ab7acea2f55a15d1f46ad0'
p44
sa(dp45
g2
S'48380'
p46
sg4
S'4646'
p47
sg6
S'd0088bbb724aad1d00c2f73fd5f65f85'
p48
sg8
S'xx14f2e8fce9734cbb5e1f0ae2c91274fe'
p49
sg10
S'xxec256c0b8dc2651c251d9d80309631c4'
p50
sg12
S'xx1c94c9447b6d67e85ca804a802b08543'
p51
sg14
S'Mozilla/5.0 (Linux; Android 4.4.4; JXD Build/KTU84P) AppleWebKit/537.36 (KHTML, like Gecko) Version/4.0 Chrome/37.0.0.0 Mobile MQQBrowser/6.8 TBS/036865 Safari/537.36 MicroMessenger/6.3.27.880 NetType/WIFI Language/zh_CN'
p52
sg16
S'2b9aa4dba9ab7acea2f55a15d1f46ad0'
p53
sa.