(lp0
(dp1
S'user_id'
p2
S'11654'
p3
sS'data_id'
p4
S'8072'
p5
sS'ip'
p6
S'0651ca454e3fb2ad2ff6a602bdf9d99c'
p7
sS'phone_B'
p8
S'xx0d8542ee3689167e47c3d4bc5845e817'
p9
sS'phone_C'
p10
S'xxd9948d7491372a2084c1899b0a1c7791'
p11
sS'phone_A'
p12
S'xx1c8b7d12527f300ed9583d75bd7b80e1'
p13
sS'user_agent'
p14
S'Mozilla/5.0 (Linux; Android 4.4.2; HUAWEI G750-T01 Build/HuaweiG750-T01) AppleWebKit/537.36 (KHTML, like Gecko) Version/4.0 Chrome/37.0.0.0 Mobile MQQBrowser/6.8 TBS/036849 Safari/537.36 MicroMessenger/6.3.27.880 NetType/WIFI Language/zh_CN'
p15
sS'ua'
p16
S'8faaaf291bffcee3ec0c60b0d00f6af0'
p17
sa(dp18
g2
S'11654'
p19
sg4
S'8158'
p20
sg6
S'0651ca454e3fb2ad2ff6a602bdf9d99c'
p21
sg8
S'xx0d8542ee3689167e47c3d4bc5845e817'
p22
sg10
S'xxd9948d7491372a2084c1899b0a1c7791'
p23
sg12
S'xx1c8b7d12527f300ed9583d75bd7b80e1'
p24
sg14
S'Mozilla/5.0 (Linux; Android 4.4.2; HUAWEI G750-T01 Build/HuaweiG750-T01) AppleWebKit/537.36 (KHTML, like Gecko) Version/4.0 Chrome/37.0.0.0 Mobile MQQBrowser/6.8 TBS/036849 Safari/537.36 MicroMessenger/6.3.27.880 NetType/WIFI Language/zh_CN'
p25
sg16
S'8faaaf291bffcee3ec0c60b0d00f6af0'
p26
sa(dp27
g2
S'11654'
p28
sg4
S'8253'
p29
sg6
S'0651ca454e3fb2ad2ff6a602bdf9d99c'
p30
sg8
S'xx0d8542ee3689167e47c3d4bc5845e817'
p31
sg10
S'xxd9948d7491372a2084c1899b0a1c7791'
p32
sg12
S'xx1c8b7d12527f300ed9583d75bd7b80e1'
p33
sg14
S'Mozilla/5.0 (Linux; Android 4.4.2; HUAWEI G750-T01 Build/HuaweiG750-T01) AppleWebKit/537.36 (KHTML, like Gecko) Version/4.0 Chrome/37.0.0.0 Mobile MQQBrowser/6.8 TBS/036849 Safari/537.36 MicroMessenger/6.3.27.880 NetType/WIFI Language/zh_CN'
p34
sg16
S'8faaaf291bffcee3ec0c60b0d00f6af0'
p35
sa(dp36
g2
S'11654'
p37
sg4
S'8354'
p38
sg6
S'0651ca454e3fb2ad2ff6a602bdf9d99c'
p39
sg8
S'xx0d8542ee3689167e47c3d4bc5845e817'
p40
sg10
S'xxd9948d7491372a2084c1899b0a1c7791'
p41
sg12
S'xx1c8b7d12527f300ed9583d75bd7b80e1'
p42
sg14
S'Mozilla/5.0 (Linux; Android 4.4.2; HUAWEI G750-T01 Build/HuaweiG750-T01) AppleWebKit/537.36 (KHTML, like Gecko) Version/4.0 Chrome/37.0.0.0 Mobile MQQBrowser/6.8 TBS/036849 Safari/537.36 MicroMessenger/6.3.27.880 NetType/WIFI Language/zh_CN'
p43
sg16
S'8faaaf291bffcee3ec0c60b0d00f6af0'
p44
sa.