(lp0
(dp1
S'user_id'
p2
S'33928'
p3
sS'data_id'
p4
S'7869'
p5
sS'ip'
p6
S'1537e900b1b6ba3d5ce5c92ff8a89779'
p7
sS'phone_B'
p8
S'xx21d7f2e09a7de06f74745554976deb9c'
p9
sS'phone_C'
p10
S'xxa2688a2f031d413266952588af165010'
p11
sS'phone_A'
p12
S'xx1dd25e8453b7889c8e6d94f4a0cb373e'
p13
sS'user_agent'
p14
S'Mozilla/5.0 (Linux; Android 5.1; GN5001S Build/LMY47D) AppleWebKit/537.36 (KHTML, like Gecko) Version/4.0 Chrome/37.0.0.0 Mobile MQQBrowser/6.8 TBS/036860 Safari/537.36 MicroMessenger/6.3.27.880 NetType/WIFI Language/zh_CN'
p15
sS'ua'
p16
S'd5acaee1a08fa7ff4d812d319d39f4be'
p17
sa(dp18
g2
S'33928'
p19
sg4
S'7884'
p20
sg6
S'1537e900b1b6ba3d5ce5c92ff8a89779'
p21
sg8
S'xx21d7f2e09a7de06f74745554976deb9c'
p22
sg10
S'xxa2688a2f031d413266952588af165010'
p23
sg12
S'xx1dd25e8453b7889c8e6d94f4a0cb373e'
p24
sg14
S'Mozilla/5.0 (Linux; Android 5.1; GN5001S Build/LMY47D) AppleWebKit/537.36 (KHTML, like Gecko) Version/4.0 Chrome/37.0.0.0 Mobile MQQBrowser/6.8 TBS/036860 Safari/537.36 MicroMessenger/6.3.27.880 NetType/WIFI Language/zh_CN'
p25
sg16
S'd5acaee1a08fa7ff4d812d319d39f4be'
p26
sa(dp27
g2
S'33928'
p28
sg4
S'7896'
p29
sg6
S'1537e900b1b6ba3d5ce5c92ff8a89779'
p30
sg8
S'xx21d7f2e09a7de06f74745554976deb9c'
p31
sg10
S'xxa2688a2f031d413266952588af165010'
p32
sg12
S'xx1dd25e8453b7889c8e6d94f4a0cb373e'
p33
sg14
S'Mozilla/5.0 (Linux; Android 5.1; GN5001S Build/LMY47D) AppleWebKit/537.36 (KHTML, like Gecko) Version/4.0 Chrome/37.0.0.0 Mobile MQQBrowser/6.8 TBS/036860 Safari/537.36 MicroMessenger/6.3.27.880 NetType/WIFI Language/zh_CN'
p34
sg16
S'd5acaee1a08fa7ff4d812d319d39f4be'
p35
sa.