(lp0
(dp1
S'user_id'
p2
S'36681'
p3
sS'data_id'
p4
S'1779'
p5
sS'ip'
p6
S'55354d7eaad0a85c7da9f23784797167'
p7
sS'phone_B'
p8
S'xxeca75ec13a5095e2c1ec419a21d26cc8'
p9
sS'phone_C'
p10
S'xx0cd7a6f2e85b8e05fb014b9b634a62b4'
p11
sS'phone_A'
p12
S'xx1f45a993e4f2503e24d97be146210de7'
p13
sS'user_agent'
p14
S'Mozilla/5.0 (Linux; Android 5.1; T02 Build/LMY47D) AppleWebKit/537.36 (KHTML, like Gecko) Version/4.0 Chrome/37.0.0.0 Mobile MQQBrowser/6.8 TBS/036869 Safari/537.36 MicroMessenger/6.3.27.880 NetType/WIFI Language/zh_CN'
p15
sS'ua'
p16
S'c4cefd24cfcfe878d6e786a6832020db'
p17
sa.