(lp0
(dp1
S'user_id'
p2
S'8670'
p3
sS'data_id'
p4
S'17'
p5
sS'ip'
p6
S'79b2b9904f23a9b5f103957129608106'
p7
sS'phone_B'
p8
S'xx90ba04370caf03f040d467678cad3eb1'
p9
sS'phone_C'
p10
S'xx5ba6e83ab19ca3a94d39ebfc36eb8d6b'
p11
sS'phone_A'
p12
S'xx21fbaeaebc051a2f8a9eb28bd541301b'
p13
sS'user_agent'
p14
S'Mozilla/5.0 (Linux; Android 4.4.4; G620S-UL00 Build/HuaweiG620S-UL00) AppleWebKit/537.36 (KHTML, like Gecko) Version/4.0 Chrome/37.0.0.0 Mobile MQQBrowser/6.8 TBS/036849 Safari/537.36 MicroMessenger/6.3.27.880 NetType/WIFI Language/zh_CN'
p15
sS'ua'
p16
S'4a269b56803034dcf1d905d0d5cdb93b'
p17
sa(dp18
g2
S'8670'
p19
sg4
S'28'
p20
sg6
S'79b2b9904f23a9b5f103957129608106'
p21
sg8
S'xx90ba04370caf03f040d467678cad3eb1'
p22
sg10
S'xx5ba6e83ab19ca3a94d39ebfc36eb8d6b'
p23
sg12
S'xx21fbaeaebc051a2f8a9eb28bd541301b'
p24
sg14
S'Mozilla/5.0 (Linux; Android 4.4.4; G620S-UL00 Build/HuaweiG620S-UL00) AppleWebKit/537.36 (KHTML, like Gecko) Version/4.0 Chrome/37.0.0.0 Mobile MQQBrowser/6.8 TBS/036849 Safari/537.36 MicroMessenger/6.3.27.880 NetType/WIFI Language/zh_CN'
p25
sg16
S'4a269b56803034dcf1d905d0d5cdb93b'
p26
sa(dp27
g2
S'46600'
p28
sg4
S'84'
p29
sg6
S'79b2b9904f23a9b5f103957129608106'
p30
sg8
S'xx90ba04370caf03f040d467678cad3eb1'
p31
sg10
S'xx5ba6e83ab19ca3a94d39ebfc36eb8d6b'
p32
sg12
S'xx21fbaeaebc051a2f8a9eb28bd541301b'
p33
sg14
S'Mozilla/5.0 (Linux; Android 4.4.4; G620S-UL00 Build/HuaweiG620S-UL00) AppleWebKit/537.36 (KHTML, like Gecko) Version/4.0 Chrome/37.0.0.0 Mobile MQQBrowser/6.8 TBS/036849 Safari/537.36 MicroMessenger/6.3.27.880 NetType/WIFI Language/zh_CN'
p34
sg16
S'4a269b56803034dcf1d905d0d5cdb93b'
p35
sa(dp36
g2
S'46600'
p37
sg4
S'91'
p38
sg6
S'79b2b9904f23a9b5f103957129608106'
p39
sg8
S'xx90ba04370caf03f040d467678cad3eb1'
p40
sg10
S'xx5ba6e83ab19ca3a94d39ebfc36eb8d6b'
p41
sg12
S'xx21fbaeaebc051a2f8a9eb28bd541301b'
p42
sg14
S'Mozilla/5.0 (Linux; Android 4.4.4; G620S-UL00 Build/HuaweiG620S-UL00) AppleWebKit/537.36 (KHTML, like Gecko) Version/4.0 Chrome/37.0.0.0 Mobile MQQBrowser/6.8 TBS/036849 Safari/537.36 MicroMessenger/6.3.27.880 NetType/WIFI Language/zh_CN'
p43
sg16
S'4a269b56803034dcf1d905d0d5cdb93b'
p44
sa(dp45
g2
S'46600'
p46
sg4
S'292'
p47
sg6
S'79b2b9904f23a9b5f103957129608106'
p48
sg8
S'xx90ba04370caf03f040d467678cad3eb1'
p49
sg10
S'xx5ba6e83ab19ca3a94d39ebfc36eb8d6b'
p50
sg12
S'xx21fbaeaebc051a2f8a9eb28bd541301b'
p51
sg14
S'Mozilla/5.0 (Linux; Android 4.4.4; G620S-UL00 Build/HuaweiG620S-UL00) AppleWebKit/537.36 (KHTML, like Gecko) Version/4.0 Chrome/37.0.0.0 Mobile MQQBrowser/6.8 TBS/036849 Safari/537.36 MicroMessenger/6.3.27.880 NetType/WIFI Language/zh_CN'
p52
sg16
S'4a269b56803034dcf1d905d0d5cdb93b'
p53
sa(dp54
g2
S'46600'
p55
sg4
S'309'
p56
sg6
S'79b2b9904f23a9b5f103957129608106'
p57
sg8
S'xx90ba04370caf03f040d467678cad3eb1'
p58
sg10
S'xx5ba6e83ab19ca3a94d39ebfc36eb8d6b'
p59
sg12
S'xx21fbaeaebc051a2f8a9eb28bd541301b'
p60
sg14
S'Mozilla/5.0 (Linux; Android 4.4.4; G620S-UL00 Build/HuaweiG620S-UL00) AppleWebKit/537.36 (KHTML, like Gecko) Version/4.0 Chrome/37.0.0.0 Mobile MQQBrowser/6.8 TBS/036849 Safari/537.36 MicroMessenger/6.3.27.880 NetType/WIFI Language/zh_CN'
p61
sg16
S'4a269b56803034dcf1d905d0d5cdb93b'
p62
sa(dp63
g2
S'46600'
p64
sg4
S'425'
p65
sg6
S'79b2b9904f23a9b5f103957129608106'
p66
sg8
S'xx90ba04370caf03f040d467678cad3eb1'
p67
sg10
S'xx5ba6e83ab19ca3a94d39ebfc36eb8d6b'
p68
sg12
S'xx21fbaeaebc051a2f8a9eb28bd541301b'
p69
sg14
S'Mozilla/5.0 (Linux; Android 4.4.4; G620S-UL00 Build/HuaweiG620S-UL00) AppleWebKit/537.36 (KHTML, like Gecko) Version/4.0 Chrome/37.0.0.0 Mobile MQQBrowser/6.8 TBS/036849 Safari/537.36 MicroMessenger/6.3.27.880 NetType/WIFI Language/zh_CN'
p70
sg16
S'4a269b56803034dcf1d905d0d5cdb93b'
p71
sa(dp72
g2
S'46600'
p73
sg4
S'579'
p74
sg6
S'79b2b9904f23a9b5f103957129608106'
p75
sg8
S'xx90ba04370caf03f040d467678cad3eb1'
p76
sg10
S'xx5ba6e83ab19ca3a94d39ebfc36eb8d6b'
p77
sg12
S'xx21fbaeaebc051a2f8a9eb28bd541301b'
p78
sg14
S'Mozilla/5.0 (Linux; Android 4.4.4; G620S-UL00 Build/HuaweiG620S-UL00) AppleWebKit/537.36 (KHTML, like Gecko) Version/4.0 Chrome/37.0.0.0 Mobile MQQBrowser/6.8 TBS/036849 Safari/537.36 MicroMessenger/6.3.27.880 NetType/WIFI Language/zh_CN'
p79
sg16
S'4a269b56803034dcf1d905d0d5cdb93b'
p80
sa(dp81
g2
S'8670'
p82
sg4
S'708'
p83
sg6
S'79b2b9904f23a9b5f103957129608106'
p84
sg8
S'xx90ba04370caf03f040d467678cad3eb1'
p85
sg10
S'xx5ba6e83ab19ca3a94d39ebfc36eb8d6b'
p86
sg12
S'xx21fbaeaebc051a2f8a9eb28bd541301b'
p87
sg14
S'Mozilla/5.0 (Linux; Android 4.4.4; G620S-UL00 Build/HuaweiG620S-UL00) AppleWebKit/537.36 (KHTML, like Gecko) Version/4.0 Chrome/37.0.0.0 Mobile MQQBrowser/6.8 TBS/036849 Safari/537.36 MicroMessenger/6.3.27.880 NetType/WIFI Language/zh_CN'
p88
sg16
S'4a269b56803034dcf1d905d0d5cdb93b'
p89
sa(dp90
g2
S'8670'
p91
sg4
S'723'
p92
sg6
S'79b2b9904f23a9b5f103957129608106'
p93
sg8
S'xx90ba04370caf03f040d467678cad3eb1'
p94
sg10
S'xx5ba6e83ab19ca3a94d39ebfc36eb8d6b'
p95
sg12
S'xx21fbaeaebc051a2f8a9eb28bd541301b'
p96
sg14
S'Mozilla/5.0 (Linux; Android 4.4.4; G620S-UL00 Build/HuaweiG620S-UL00) AppleWebKit/537.36 (KHTML, like Gecko) Version/4.0 Chrome/37.0.0.0 Mobile MQQBrowser/6.8 TBS/036849 Safari/537.36 MicroMessenger/6.3.27.880 NetType/WIFI Language/zh_CN'
p97
sg16
S'4a269b56803034dcf1d905d0d5cdb93b'
p98
sa(dp99
g2
S'8670'
p100
sg4
S'1437'
p101
sg6
S'79b2b9904f23a9b5f103957129608106'
p102
sg8
S'xx90ba04370caf03f040d467678cad3eb1'
p103
sg10
S'xx5ba6e83ab19ca3a94d39ebfc36eb8d6b'
p104
sg12
S'xx21fbaeaebc051a2f8a9eb28bd541301b'
p105
sg14
S'Mozilla/5.0 (Linux; Android 4.4.4; G620S-UL00 Build/HuaweiG620S-UL00) AppleWebKit/537.36 (KHTML, like Gecko) Version/4.0 Chrome/37.0.0.0 Mobile MQQBrowser/6.8 TBS/036849 Safari/537.36 MicroMessenger/6.3.27.880 NetType/WIFI Language/zh_CN'
p106
sg16
S'4a269b56803034dcf1d905d0d5cdb93b'
p107
sa(dp108
g2
S'8670'
p109
sg4
S'1455'
p110
sg6
S'79b2b9904f23a9b5f103957129608106'
p111
sg8
S'xx90ba04370caf03f040d467678cad3eb1'
p112
sg10
S'xx5ba6e83ab19ca3a94d39ebfc36eb8d6b'
p113
sg12
S'xx21fbaeaebc051a2f8a9eb28bd541301b'
p114
sg14
S'Mozilla/5.0 (Linux; Android 4.4.4; G620S-UL00 Build/HuaweiG620S-UL00) AppleWebKit/537.36 (KHTML, like Gecko) Version/4.0 Chrome/37.0.0.0 Mobile MQQBrowser/6.8 TBS/036849 Safari/537.36 MicroMessenger/6.3.27.880 NetType/WIFI Language/zh_CN'
p115
sg16
S'4a269b56803034dcf1d905d0d5cdb93b'
p116
sa(dp117
g2
S'46600'
p118
sg4
S'1531'
p119
sg6
S'79b2b9904f23a9b5f103957129608106'
p120
sg8
S'xx90ba04370caf03f040d467678cad3eb1'
p121
sg10
S'xx5ba6e83ab19ca3a94d39ebfc36eb8d6b'
p122
sg12
S'xx21fbaeaebc051a2f8a9eb28bd541301b'
p123
sg14
S'Mozilla/5.0 (Linux; Android 4.4.4; G620S-UL00 Build/HuaweiG620S-UL00) AppleWebKit/537.36 (KHTML, like Gecko) Version/4.0 Chrome/37.0.0.0 Mobile MQQBrowser/6.8 TBS/036849 Safari/537.36 MicroMessenger/6.3.27.880 NetType/WIFI Language/zh_CN'
p124
sg16
S'4a269b56803034dcf1d905d0d5cdb93b'
p125
sa(dp126
g2
S'46600'
p127
sg4
S'2287'
p128
sg6
S'79b2b9904f23a9b5f103957129608106'
p129
sg8
S'xx90ba04370caf03f040d467678cad3eb1'
p130
sg10
S'xx5ba6e83ab19ca3a94d39ebfc36eb8d6b'
p131
sg12
S'xx21fbaeaebc051a2f8a9eb28bd541301b'
p132
sg14
S'Mozilla/5.0 (Linux; Android 4.4.4; G620S-UL00 Build/HuaweiG620S-UL00) AppleWebKit/537.36 (KHTML, like Gecko) Version/4.0 Chrome/37.0.0.0 Mobile MQQBrowser/6.8 TBS/036849 Safari/537.36 MicroMessenger/6.3.27.880 NetType/WIFI Language/zh_CN'
p133
sg16
S'4a269b56803034dcf1d905d0d5cdb93b'
p134
sa(dp135
g2
S'46600'
p136
sg4
S'2298'
p137
sg6
S'79b2b9904f23a9b5f103957129608106'
p138
sg8
S'xx90ba04370caf03f040d467678cad3eb1'
p139
sg10
S'xx5ba6e83ab19ca3a94d39ebfc36eb8d6b'
p140
sg12
S'xx21fbaeaebc051a2f8a9eb28bd541301b'
p141
sg14
S'Mozilla/5.0 (Linux; Android 4.4.4; G620S-UL00 Build/HuaweiG620S-UL00) AppleWebKit/537.36 (KHTML, like Gecko) Version/4.0 Chrome/37.0.0.0 Mobile MQQBrowser/6.8 TBS/036849 Safari/537.36 MicroMessenger/6.3.27.880 NetType/WIFI Language/zh_CN'
p142
sg16
S'4a269b56803034dcf1d905d0d5cdb93b'
p143
sa(dp144
g2
S'8670'
p145
sg4
S'2399'
p146
sg6
S'79b2b9904f23a9b5f103957129608106'
p147
sg8
S'xx90ba04370caf03f040d467678cad3eb1'
p148
sg10
S'xx5ba6e83ab19ca3a94d39ebfc36eb8d6b'
p149
sg12
S'xx21fbaeaebc051a2f8a9eb28bd541301b'
p150
sg14
S'Mozilla/5.0 (Linux; Android 4.4.4; G620S-UL00 Build/HuaweiG620S-UL00) AppleWebKit/537.36 (KHTML, like Gecko) Version/4.0 Chrome/37.0.0.0 Mobile MQQBrowser/6.8 TBS/036849 Safari/537.36 MicroMessenger/6.3.27.880 NetType/WIFI Language/zh_CN'
p151
sg16
S'4a269b56803034dcf1d905d0d5cdb93b'
p152
sa(dp153
g2
S'8670'
p154
sg4
S'2424'
p155
sg6
S'79b2b9904f23a9b5f103957129608106'
p156
sg8
S'xx90ba04370caf03f040d467678cad3eb1'
p157
sg10
S'xx5ba6e83ab19ca3a94d39ebfc36eb8d6b'
p158
sg12
S'xx21fbaeaebc051a2f8a9eb28bd541301b'
p159
sg14
S'Mozilla/5.0 (Linux; Android 4.4.4; G620S-UL00 Build/HuaweiG620S-UL00) AppleWebKit/537.36 (KHTML, like Gecko) Version/4.0 Chrome/37.0.0.0 Mobile MQQBrowser/6.8 TBS/036849 Safari/537.36 MicroMessenger/6.3.27.880 NetType/WIFI Language/zh_CN'
p160
sg16
S'4a269b56803034dcf1d905d0d5cdb93b'
p161
sa(dp162
g2
S'8670'
p163
sg4
S'3383'
p164
sg6
S'79b2b9904f23a9b5f103957129608106'
p165
sg8
S'xx90ba04370caf03f040d467678cad3eb1'
p166
sg10
S'xx5ba6e83ab19ca3a94d39ebfc36eb8d6b'
p167
sg12
S'xx21fbaeaebc051a2f8a9eb28bd541301b'
p168
sg14
S'Mozilla/5.0 (Linux; Android 4.4.4; G620S-UL00 Build/HuaweiG620S-UL00) AppleWebKit/537.36 (KHTML, like Gecko) Version/4.0 Chrome/37.0.0.0 Mobile MQQBrowser/6.8 TBS/036849 Safari/537.36 MicroMessenger/6.3.27.880 NetType/WIFI Language/zh_CN'
p169
sg16
S'4a269b56803034dcf1d905d0d5cdb93b'
p170
sa(dp171
g2
S'8670'
p172
sg4
S'3399'
p173
sg6
S'79b2b9904f23a9b5f103957129608106'
p174
sg8
S'xx90ba04370caf03f040d467678cad3eb1'
p175
sg10
S'xx5ba6e83ab19ca3a94d39ebfc36eb8d6b'
p176
sg12
S'xx21fbaeaebc051a2f8a9eb28bd541301b'
p177
sg14
S'Mozilla/5.0 (Linux; Android 4.4.4; G620S-UL00 Build/HuaweiG620S-UL00) AppleWebKit/537.36 (KHTML, like Gecko) Version/4.0 Chrome/37.0.0.0 Mobile MQQBrowser/6.8 TBS/036849 Safari/537.36 MicroMessenger/6.3.27.880 NetType/WIFI Language/zh_CN'
p178
sg16
S'4a269b56803034dcf1d905d0d5cdb93b'
p179
sa(dp180
g2
S'46600'
p181
sg4
S'3478'
p182
sg6
S'79b2b9904f23a9b5f103957129608106'
p183
sg8
S'xx90ba04370caf03f040d467678cad3eb1'
p184
sg10
S'xx5ba6e83ab19ca3a94d39ebfc36eb8d6b'
p185
sg12
S'xx21fbaeaebc051a2f8a9eb28bd541301b'
p186
sg14
S'Mozilla/5.0 (Linux; Android 4.4.4; G620S-UL00 Build/HuaweiG620S-UL00) AppleWebKit/537.36 (KHTML, like Gecko) Version/4.0 Chrome/37.0.0.0 Mobile MQQBrowser/6.8 TBS/036849 Safari/537.36 MicroMessenger/6.3.27.880 NetType/WIFI Language/zh_CN'
p187
sg16
S'4a269b56803034dcf1d905d0d5cdb93b'
p188
sa(dp189
g2
S'46600'
p190
sg4
S'3493'
p191
sg6
S'79b2b9904f23a9b5f103957129608106'
p192
sg8
S'xx90ba04370caf03f040d467678cad3eb1'
p193
sg10
S'xx5ba6e83ab19ca3a94d39ebfc36eb8d6b'
p194
sg12
S'xx21fbaeaebc051a2f8a9eb28bd541301b'
p195
sg14
S'Mozilla/5.0 (Linux; Android 4.4.4; G620S-UL00 Build/HuaweiG620S-UL00) AppleWebKit/537.36 (KHTML, like Gecko) Version/4.0 Chrome/37.0.0.0 Mobile MQQBrowser/6.8 TBS/036849 Safari/537.36 MicroMessenger/6.3.27.880 NetType/WIFI Language/zh_CN'
p196
sg16
S'4a269b56803034dcf1d905d0d5cdb93b'
p197
sa(dp198
g2
S'46600'
p199
sg4
S'4125'
p200
sg6
S'79b2b9904f23a9b5f103957129608106'
p201
sg8
S'xx90ba04370caf03f040d467678cad3eb1'
p202
sg10
S'xx5ba6e83ab19ca3a94d39ebfc36eb8d6b'
p203
sg12
S'xx21fbaeaebc051a2f8a9eb28bd541301b'
p204
sg14
S'Mozilla/5.0 (Linux; Android 4.4.4; G620S-UL00 Build/HuaweiG620S-UL00) AppleWebKit/537.36 (KHTML, like Gecko) Version/4.0 Chrome/37.0.0.0 Mobile MQQBrowser/6.8 TBS/036849 Safari/537.36 MicroMessenger/6.3.27.880 NetType/WIFI Language/zh_CN'
p205
sg16
S'4a269b56803034dcf1d905d0d5cdb93b'
p206
sa(dp207
g2
S'46600'
p208
sg4
S'4149'
p209
sg6
S'79b2b9904f23a9b5f103957129608106'
p210
sg8
S'xx90ba04370caf03f040d467678cad3eb1'
p211
sg10
S'xx5ba6e83ab19ca3a94d39ebfc36eb8d6b'
p212
sg12
S'xx21fbaeaebc051a2f8a9eb28bd541301b'
p213
sg14
S'Mozilla/5.0 (Linux; Android 4.4.4; G620S-UL00 Build/HuaweiG620S-UL00) AppleWebKit/537.36 (KHTML, like Gecko) Version/4.0 Chrome/37.0.0.0 Mobile MQQBrowser/6.8 TBS/036849 Safari/537.36 MicroMessenger/6.3.27.880 NetType/WIFI Language/zh_CN'
p214
sg16
S'4a269b56803034dcf1d905d0d5cdb93b'
p215
sa(dp216
g2
S'8670'
p217
sg4
S'4327'
p218
sg6
S'79b2b9904f23a9b5f103957129608106'
p219
sg8
S'xx90ba04370caf03f040d467678cad3eb1'
p220
sg10
S'xx5ba6e83ab19ca3a94d39ebfc36eb8d6b'
p221
sg12
S'xx21fbaeaebc051a2f8a9eb28bd541301b'
p222
sg14
S'Mozilla/5.0 (Linux; Android 4.4.4; G620S-UL00 Build/HuaweiG620S-UL00) AppleWebKit/537.36 (KHTML, like Gecko) Version/4.0 Chrome/37.0.0.0 Mobile MQQBrowser/6.8 TBS/036849 Safari/537.36 MicroMessenger/6.3.27.880 NetType/WIFI Language/zh_CN'
p223
sg16
S'4a269b56803034dcf1d905d0d5cdb93b'
p224
sa(dp225
g2
S'8670'
p226
sg4
S'4347'
p227
sg6
S'79b2b9904f23a9b5f103957129608106'
p228
sg8
S'xx90ba04370caf03f040d467678cad3eb1'
p229
sg10
S'xx5ba6e83ab19ca3a94d39ebfc36eb8d6b'
p230
sg12
S'xx21fbaeaebc051a2f8a9eb28bd541301b'
p231
sg14
S'Mozilla/5.0 (Linux; Android 4.4.4; G620S-UL00 Build/HuaweiG620S-UL00) AppleWebKit/537.36 (KHTML, like Gecko) Version/4.0 Chrome/37.0.0.0 Mobile MQQBrowser/6.8 TBS/036849 Safari/537.36 MicroMessenger/6.3.27.880 NetType/WIFI Language/zh_CN'
p232
sg16
S'4a269b56803034dcf1d905d0d5cdb93b'
p233
sa(dp234
g2
S'8670'
p235
sg4
S'5230'
p236
sg6
S'79b2b9904f23a9b5f103957129608106'
p237
sg8
S'xx90ba04370caf03f040d467678cad3eb1'
p238
sg10
S'xx5ba6e83ab19ca3a94d39ebfc36eb8d6b'
p239
sg12
S'xx21fbaeaebc051a2f8a9eb28bd541301b'
p240
sg14
S'Mozilla/5.0 (Linux; Android 4.4.4; G620S-UL00 Build/HuaweiG620S-UL00) AppleWebKit/537.36 (KHTML, like Gecko) Version/4.0 Chrome/37.0.0.0 Mobile MQQBrowser/6.8 TBS/036849 Safari/537.36 MicroMessenger/6.3.27.880 NetType/WIFI Language/zh_CN'
p241
sg16
S'4a269b56803034dcf1d905d0d5cdb93b'
p242
sa(dp243
g2
S'8670'
p244
sg4
S'5242'
p245
sg6
S'79b2b9904f23a9b5f103957129608106'
p246
sg8
S'xx90ba04370caf03f040d467678cad3eb1'
p247
sg10
S'xx5ba6e83ab19ca3a94d39ebfc36eb8d6b'
p248
sg12
S'xx21fbaeaebc051a2f8a9eb28bd541301b'
p249
sg14
S'Mozilla/5.0 (Linux; Android 4.4.4; G620S-UL00 Build/HuaweiG620S-UL00) AppleWebKit/537.36 (KHTML, like Gecko) Version/4.0 Chrome/37.0.0.0 Mobile MQQBrowser/6.8 TBS/036849 Safari/537.36 MicroMessenger/6.3.27.880 NetType/WIFI Language/zh_CN'
p250
sg16
S'4a269b56803034dcf1d905d0d5cdb93b'
p251
sa(dp252
g2
S'46600'
p253
sg4
S'5349'
p254
sg6
S'79b2b9904f23a9b5f103957129608106'
p255
sg8
S'xx90ba04370caf03f040d467678cad3eb1'
p256
sg10
S'xx5ba6e83ab19ca3a94d39ebfc36eb8d6b'
p257
sg12
S'xx21fbaeaebc051a2f8a9eb28bd541301b'
p258
sg14
S'Mozilla/5.0 (Linux; Android 4.4.4; G620S-UL00 Build/HuaweiG620S-UL00) AppleWebKit/537.36 (KHTML, like Gecko) Version/4.0 Chrome/37.0.0.0 Mobile MQQBrowser/6.8 TBS/036849 Safari/537.36 MicroMessenger/6.3.27.880 NetType/WIFI Language/zh_CN'
p259
sg16
S'4a269b56803034dcf1d905d0d5cdb93b'
p260
sa(dp261
g2
S'46600'
p262
sg4
S'5365'
p263
sg6
S'79b2b9904f23a9b5f103957129608106'
p264
sg8
S'xx90ba04370caf03f040d467678cad3eb1'
p265
sg10
S'xx5ba6e83ab19ca3a94d39ebfc36eb8d6b'
p266
sg12
S'xx21fbaeaebc051a2f8a9eb28bd541301b'
p267
sg14
S'Mozilla/5.0 (Linux; Android 4.4.4; G620S-UL00 Build/HuaweiG620S-UL00) AppleWebKit/537.36 (KHTML, like Gecko) Version/4.0 Chrome/37.0.0.0 Mobile MQQBrowser/6.8 TBS/036849 Safari/537.36 MicroMessenger/6.3.27.880 NetType/WIFI Language/zh_CN'
p268
sg16
S'4a269b56803034dcf1d905d0d5cdb93b'
p269
sa(dp270
g2
S'46600'
p271
sg4
S'6056'
p272
sg6
S'79b2b9904f23a9b5f103957129608106'
p273
sg8
S'xx90ba04370caf03f040d467678cad3eb1'
p274
sg10
S'xx5ba6e83ab19ca3a94d39ebfc36eb8d6b'
p275
sg12
S'xx21fbaeaebc051a2f8a9eb28bd541301b'
p276
sg14
S'Mozilla/5.0 (Linux; Android 4.4.4; G620S-UL00 Build/HuaweiG620S-UL00) AppleWebKit/537.36 (KHTML, like Gecko) Version/4.0 Chrome/37.0.0.0 Mobile MQQBrowser/6.8 TBS/036849 Safari/537.36 MicroMessenger/6.3.27.880 NetType/WIFI Language/zh_CN'
p277
sg16
S'4a269b56803034dcf1d905d0d5cdb93b'
p278
sa(dp279
g2
S'46600'
p280
sg4
S'6069'
p281
sg6
S'79b2b9904f23a9b5f103957129608106'
p282
sg8
S'xx90ba04370caf03f040d467678cad3eb1'
p283
sg10
S'xx5ba6e83ab19ca3a94d39ebfc36eb8d6b'
p284
sg12
S'xx21fbaeaebc051a2f8a9eb28bd541301b'
p285
sg14
S'Mozilla/5.0 (Linux; Android 4.4.4; G620S-UL00 Build/HuaweiG620S-UL00) AppleWebKit/537.36 (KHTML, like Gecko) Version/4.0 Chrome/37.0.0.0 Mobile MQQBrowser/6.8 TBS/036849 Safari/537.36 MicroMessenger/6.3.27.880 NetType/WIFI Language/zh_CN'
p286
sg16
S'4a269b56803034dcf1d905d0d5cdb93b'
p287
sa(dp288
g2
S'8670'
p289
sg4
S'6207'
p290
sg6
S'79b2b9904f23a9b5f103957129608106'
p291
sg8
S'xx90ba04370caf03f040d467678cad3eb1'
p292
sg10
S'xx5ba6e83ab19ca3a94d39ebfc36eb8d6b'
p293
sg12
S'xx21fbaeaebc051a2f8a9eb28bd541301b'
p294
sg14
S'Mozilla/5.0 (Linux; Android 4.4.4; G620S-UL00 Build/HuaweiG620S-UL00) AppleWebKit/537.36 (KHTML, like Gecko) Version/4.0 Chrome/37.0.0.0 Mobile MQQBrowser/6.8 TBS/036849 Safari/537.36 MicroMessenger/6.3.27.880 NetType/WIFI Language/zh_CN'
p295
sg16
S'4a269b56803034dcf1d905d0d5cdb93b'
p296
sa(dp297
g2
S'8670'
p298
sg4
S'6219'
p299
sg6
S'79b2b9904f23a9b5f103957129608106'
p300
sg8
S'xx90ba04370caf03f040d467678cad3eb1'
p301
sg10
S'xx5ba6e83ab19ca3a94d39ebfc36eb8d6b'
p302
sg12
S'xx21fbaeaebc051a2f8a9eb28bd541301b'
p303
sg14
S'Mozilla/5.0 (Linux; Android 4.4.4; G620S-UL00 Build/HuaweiG620S-UL00) AppleWebKit/537.36 (KHTML, like Gecko) Version/4.0 Chrome/37.0.0.0 Mobile MQQBrowser/6.8 TBS/036849 Safari/537.36 MicroMessenger/6.3.27.880 NetType/WIFI Language/zh_CN'
p304
sg16
S'4a269b56803034dcf1d905d0d5cdb93b'
p305
sa(dp306
g2
S'8670'
p307
sg4
S'6234'
p308
sg6
S'79b2b9904f23a9b5f103957129608106'
p309
sg8
S'xx90ba04370caf03f040d467678cad3eb1'
p310
sg10
S'xx5ba6e83ab19ca3a94d39ebfc36eb8d6b'
p311
sg12
S'xx21fbaeaebc051a2f8a9eb28bd541301b'
p312
sg14
S'Mozilla/5.0 (Linux; Android 4.4.4; G620S-UL00 Build/HuaweiG620S-UL00) AppleWebKit/537.36 (KHTML, like Gecko) Version/4.0 Chrome/37.0.0.0 Mobile MQQBrowser/6.8 TBS/036849 Safari/537.36 MicroMessenger/6.3.27.880 NetType/WIFI Language/zh_CN'
p313
sg16
S'4a269b56803034dcf1d905d0d5cdb93b'
p314
sa(dp315
g2
S'8670'
p316
sg4
S'6821'
p317
sg6
S'79b2b9904f23a9b5f103957129608106'
p318
sg8
S'xx90ba04370caf03f040d467678cad3eb1'
p319
sg10
S'xx5ba6e83ab19ca3a94d39ebfc36eb8d6b'
p320
sg12
S'xx21fbaeaebc051a2f8a9eb28bd541301b'
p321
sg14
S'Mozilla/5.0 (Linux; Android 4.4.4; G620S-UL00 Build/HuaweiG620S-UL00) AppleWebKit/537.36 (KHTML, like Gecko) Version/4.0 Chrome/37.0.0.0 Mobile MQQBrowser/6.8 TBS/036849 Safari/537.36 MicroMessenger/6.3.27.880 NetType/WIFI Language/zh_CN'
p322
sg16
S'4a269b56803034dcf1d905d0d5cdb93b'
p323
sa(dp324
g2
S'8670'
p325
sg4
S'6833'
p326
sg6
S'79b2b9904f23a9b5f103957129608106'
p327
sg8
S'xx90ba04370caf03f040d467678cad3eb1'
p328
sg10
S'xx5ba6e83ab19ca3a94d39ebfc36eb8d6b'
p329
sg12
S'xx21fbaeaebc051a2f8a9eb28bd541301b'
p330
sg14
S'Mozilla/5.0 (Linux; Android 4.4.4; G620S-UL00 Build/HuaweiG620S-UL00) AppleWebKit/537.36 (KHTML, like Gecko) Version/4.0 Chrome/37.0.0.0 Mobile MQQBrowser/6.8 TBS/036849 Safari/537.36 MicroMessenger/6.3.27.880 NetType/WIFI Language/zh_CN'
p331
sg16
S'4a269b56803034dcf1d905d0d5cdb93b'
p332
sa(dp333
g2
S'46600'
p334
sg4
S'6932'
p335
sg6
S'79b2b9904f23a9b5f103957129608106'
p336
sg8
S'xx90ba04370caf03f040d467678cad3eb1'
p337
sg10
S'xx5ba6e83ab19ca3a94d39ebfc36eb8d6b'
p338
sg12
S'xx21fbaeaebc051a2f8a9eb28bd541301b'
p339
sg14
S'Mozilla/5.0 (Linux; Android 4.4.4; G620S-UL00 Build/HuaweiG620S-UL00) AppleWebKit/537.36 (KHTML, like Gecko) Version/4.0 Chrome/37.0.0.0 Mobile MQQBrowser/6.8 TBS/036849 Safari/537.36 MicroMessenger/6.3.27.880 NetType/WIFI Language/zh_CN'
p340
sg16
S'4a269b56803034dcf1d905d0d5cdb93b'
p341
sa(dp342
g2
S'8670'
p343
sg4
S'7395'
p344
sg6
S'79b2b9904f23a9b5f103957129608106'
p345
sg8
S'xx90ba04370caf03f040d467678cad3eb1'
p346
sg10
S'xx5ba6e83ab19ca3a94d39ebfc36eb8d6b'
p347
sg12
S'xx21fbaeaebc051a2f8a9eb28bd541301b'
p348
sg14
S'Mozilla/5.0 (Linux; Android 4.4.4; G620S-UL00 Build/HuaweiG620S-UL00) AppleWebKit/537.36 (KHTML, like Gecko) Version/4.0 Chrome/37.0.0.0 Mobile MQQBrowser/6.8 TBS/036849 Safari/537.36 MicroMessenger/6.3.27.880 NetType/WIFI Language/zh_CN'
p349
sg16
S'4a269b56803034dcf1d905d0d5cdb93b'
p350
sa(dp351
g2
S'8670'
p352
sg4
S'7409'
p353
sg6
S'79b2b9904f23a9b5f103957129608106'
p354
sg8
S'xx90ba04370caf03f040d467678cad3eb1'
p355
sg10
S'xx5ba6e83ab19ca3a94d39ebfc36eb8d6b'
p356
sg12
S'xx21fbaeaebc051a2f8a9eb28bd541301b'
p357
sg14
S'Mozilla/5.0 (Linux; Android 4.4.4; G620S-UL00 Build/HuaweiG620S-UL00) AppleWebKit/537.36 (KHTML, like Gecko) Version/4.0 Chrome/37.0.0.0 Mobile MQQBrowser/6.8 TBS/036849 Safari/537.36 MicroMessenger/6.3.27.880 NetType/WIFI Language/zh_CN'
p358
sg16
S'4a269b56803034dcf1d905d0d5cdb93b'
p359
sa(dp360
g2
S'8670'
p361
sg4
S'7424'
p362
sg6
S'79b2b9904f23a9b5f103957129608106'
p363
sg8
S'xx90ba04370caf03f040d467678cad3eb1'
p364
sg10
S'xx5ba6e83ab19ca3a94d39ebfc36eb8d6b'
p365
sg12
S'xx21fbaeaebc051a2f8a9eb28bd541301b'
p366
sg14
S'Mozilla/5.0 (Linux; Android 4.4.4; G620S-UL00 Build/HuaweiG620S-UL00) AppleWebKit/537.36 (KHTML, like Gecko) Version/4.0 Chrome/37.0.0.0 Mobile MQQBrowser/6.8 TBS/036849 Safari/537.36 MicroMessenger/6.3.27.880 NetType/WIFI Language/zh_CN'
p367
sg16
S'4a269b56803034dcf1d905d0d5cdb93b'
p368
sa(dp369
g2
S'46600'
p370
sg4
S'8134'
p371
sg6
S'79b2b9904f23a9b5f103957129608106'
p372
sg8
S'xx90ba04370caf03f040d467678cad3eb1'
p373
sg10
S'xx5ba6e83ab19ca3a94d39ebfc36eb8d6b'
p374
sg12
S'xx21fbaeaebc051a2f8a9eb28bd541301b'
p375
sg14
S'Mozilla/5.0 (Linux; Android 4.4.4; G620S-UL00 Build/HuaweiG620S-UL00) AppleWebKit/537.36 (KHTML, like Gecko) Version/4.0 Chrome/37.0.0.0 Mobile MQQBrowser/6.8 TBS/036849 Safari/537.36 MicroMessenger/6.3.27.880 NetType/WIFI Language/zh_CN'
p376
sg16
S'4a269b56803034dcf1d905d0d5cdb93b'
p377
sa(dp378
g2
S'46600'
p379
sg4
S'8146'
p380
sg6
S'79b2b9904f23a9b5f103957129608106'
p381
sg8
S'xx90ba04370caf03f040d467678cad3eb1'
p382
sg10
S'xx5ba6e83ab19ca3a94d39ebfc36eb8d6b'
p383
sg12
S'xx21fbaeaebc051a2f8a9eb28bd541301b'
p384
sg14
S'Mozilla/5.0 (Linux; Android 4.4.4; G620S-UL00 Build/HuaweiG620S-UL00) AppleWebKit/537.36 (KHTML, like Gecko) Version/4.0 Chrome/37.0.0.0 Mobile MQQBrowser/6.8 TBS/036849 Safari/537.36 MicroMessenger/6.3.27.880 NetType/WIFI Language/zh_CN'
p385
sg16
S'4a269b56803034dcf1d905d0d5cdb93b'
p386
sa.