(lp0
(dp1
S'user_id'
p2
S'29604'
p3
sS'data_id'
p4
S'6578'
p5
sS'ip'
p6
S'8ac4bc508bd0f308e6f7a0002f018e01'
p7
sS'phone_B'
p8
S'xx04439fab2e5be87151ba547597c1ea18'
p9
sS'phone_C'
p10
S'xx8618cf8b470aeea6498d50d7b4382280'
p11
sS'phone_A'
p12
S'xx22db4ca382c80ab0f48eae294bd150be'
p13
sS'user_agent'
p14
S'Mozilla/5.0 (Linux; Android 5.1.1; vivo X6SPlus D Build/LMY47V) AppleWebKit/537.36 (KHTML, like Gecko) Version/4.0 Chrome/37.0.0.0 Mobile MQQBrowser/6.8 TBS/036849 Safari/537.36 MicroMessenger/6.3.27.880 NetType/WIFI Language/zh_CN'
p15
sS'ua'
p16
S'9bb8626464ee2368da648e016214e317'
p17
sa(dp18
g2
S'29604'
p19
sg4
S'6596'
p20
sg6
S'8ac4bc508bd0f308e6f7a0002f018e01'
p21
sg8
S'xx04439fab2e5be87151ba547597c1ea18'
p22
sg10
S'xx8618cf8b470aeea6498d50d7b4382280'
p23
sg12
S'xx22db4ca382c80ab0f48eae294bd150be'
p24
sg14
S'Mozilla/5.0 (Linux; Android 5.1.1; vivo X6SPlus D Build/LMY47V) AppleWebKit/537.36 (KHTML, like Gecko) Version/4.0 Chrome/37.0.0.0 Mobile MQQBrowser/6.8 TBS/036849 Safari/537.36 MicroMessenger/6.3.27.880 NetType/WIFI Language/zh_CN'
p25
sg16
S'9bb8626464ee2368da648e016214e317'
p26
sa(dp27
g2
S'42971'
p28
sg4
S'8744'
p29
sg6
S'52f0e6136e15510ff4ed6ee9e2d7c545'
p30
sg8
S'xx2fbc0a957bff19cdd343b542ff972b1b'
p31
sg10
S'xx9158be43a7940005404467d991c074b8'
p32
sg12
S'xx22db4ca382c80ab0f48eae294bd150be'
p33
sg14
S'Mozilla/5.0 (Linux; Android 5.1.1; vivo X6SPlus D Build/LMY47V) AppleWebKit/537.36 (KHTML, like Gecko) Version/4.0 Chrome/37.0.0.0 Mobile MQQBrowser/6.8 TBS/036824 Safari/537.36 MicroMessenger/6.3.27.880 NetType/WIFI Language/zh_CN'
p34
sg16
S'ef527b8e42f369cd7c33bbf46bb59372'
p35
sa(dp36
g2
S'42971'
p37
sg4
S'8758'
p38
sg6
S'52f0e6136e15510ff4ed6ee9e2d7c545'
p39
sg8
S'xx2fbc0a957bff19cdd343b542ff972b1b'
p40
sg10
S'xx9158be43a7940005404467d991c074b8'
p41
sg12
S'xx22db4ca382c80ab0f48eae294bd150be'
p42
sg14
S'Mozilla/5.0 (Linux; Android 5.1.1; vivo X6SPlus D Build/LMY47V) AppleWebKit/537.36 (KHTML, like Gecko) Version/4.0 Chrome/37.0.0.0 Mobile MQQBrowser/6.8 TBS/036824 Safari/537.36 MicroMessenger/6.3.27.880 NetType/WIFI Language/zh_CN'
p43
sg16
S'ef527b8e42f369cd7c33bbf46bb59372'
p44
sa.