(lp0
(dp1
S'user_id'
p2
S'36616'
p3
sS'data_id'
p4
S'13'
p5
sS'ip'
p6
S'f23eff39a2e678a77bb517242bc40d94'
p7
sS'phone_B'
p8
S'xxfd32693b4353929b62e13ad38a167eae'
p9
sS'phone_C'
p10
S'xx33da841852f262a0d8d976e467a70d31'
p11
sS'phone_A'
p12
S'xx22a6129d643a2911de30c1ba2300303e'
p13
sS'user_agent'
p14
S'Mozilla/5.0 (Linux; Android 5.0.2; Redmi Note 2 Build/LRX22G) AppleWebKit/537.36 (KHTML, like Gecko) Version/4.0 Chrome/37.0.0.0 Mobile MQQBrowser/6.8 TBS/036849 Safari/537.36 MicroMessenger/6.3.27.880 NetType/cmnet Language/zh_CN'
p15
sS'ua'
p16
S'8099cc2732272fbf0be707d60643a2c4'
p17
sa(dp18
g2
S'46978'
p19
sg4
S'29'
p20
sg6
S'716045ac0a643389933fb93fd735fce7'
p21
sg8
S'xx9de3993838f06e36d8e55a5136a2aba6'
p22
sg10
S'xx33da841852f262a0d8d976e467a70d31'
p23
sg12
S'xx22a6129d643a2911de30c1ba2300303e'
p24
sg14
S'Mozilla/5.0 (Linux; Android 5.0.2; Redmi Note 2 Build/LRX22G) AppleWebKit/537.36 (KHTML, like Gecko) Version/4.0 Chrome/37.0.0.0 Mobile MQQBrowser/6.8 TBS/036849 Safari/537.36 MicroMessenger/6.3.27.880 NetType/WIFI Language/zh_CN'
p25
sg16
S'105f70bfcaedb445b810821f29793d16'
p26
sa(dp27
g2
S'46978'
p28
sg4
S'36'
p29
sg6
S'716045ac0a643389933fb93fd735fce7'
p30
sg8
S'xx9de3993838f06e36d8e55a5136a2aba6'
p31
sg10
S'xx33da841852f262a0d8d976e467a70d31'
p32
sg12
S'xx22a6129d643a2911de30c1ba2300303e'
p33
sg14
S'Mozilla/5.0 (Linux; Android 5.0.2; Redmi Note 2 Build/LRX22G) AppleWebKit/537.36 (KHTML, like Gecko) Version/4.0 Chrome/37.0.0.0 Mobile MQQBrowser/6.8 TBS/036849 Safari/537.36 MicroMessenger/6.3.27.880 NetType/WIFI Language/zh_CN'
p34
sg16
S'105f70bfcaedb445b810821f29793d16'
p35
sa(dp36
g2
S'45145'
p37
sg4
S'291'
p38
sg6
S'79b2b9904f23a9b5f103957129608106'
p39
sg8
S'xx9de3993838f06e36d8e55a5136a2aba6'
p40
sg10
S'xx33da841852f262a0d8d976e467a70d31'
p41
sg12
S'xx22a6129d643a2911de30c1ba2300303e'
p42
sg14
S'Mozilla/5.0 (Linux; Android 5.0.2; Redmi Note 2 Build/LRX22G) AppleWebKit/537.36 (KHTML, like Gecko) Version/4.0 Chrome/37.0.0.0 Mobile MQQBrowser/6.8 TBS/036849 Safari/537.36 MicroMessenger/6.3.27.880 NetType/WIFI Language/zh_CN'
p43
sg16
S'105f70bfcaedb445b810821f29793d16'
p44
sa(dp45
g2
S'27653'
p46
sg4
S'305'
p47
sg6
S'37ec7b91655b3c964292df15710fad2a'
p48
sg8
S'xx9de3993838f06e36d8e55a5136a2aba6'
p49
sg10
S'xx33da841852f262a0d8d976e467a70d31'
p50
sg12
S'xx22a6129d643a2911de30c1ba2300303e'
p51
sg14
S'Mozilla/5.0 (Linux; Android 5.0.2; Redmi Note 2 Build/LRX22G) AppleWebKit/537.36 (KHTML, like Gecko) Version/4.0 Chrome/37.0.0.0 Mobile MQQBrowser/6.8 TBS/036849 Safari/537.36 MicroMessenger/6.3.27.880 NetType/WIFI Language/zh_CN'
p52
sg16
S'105f70bfcaedb445b810821f29793d16'
p53
sa(dp54
g2
S'45145'
p55
sg4
S'308'
p56
sg6
S'79b2b9904f23a9b5f103957129608106'
p57
sg8
S'xx9de3993838f06e36d8e55a5136a2aba6'
p58
sg10
S'xx33da841852f262a0d8d976e467a70d31'
p59
sg12
S'xx22a6129d643a2911de30c1ba2300303e'
p60
sg14
S'Mozilla/5.0 (Linux; Android 5.0.2; Redmi Note 2 Build/LRX22G) AppleWebKit/537.36 (KHTML, like Gecko) Version/4.0 Chrome/37.0.0.0 Mobile MQQBrowser/6.8 TBS/036849 Safari/537.36 MicroMessenger/6.3.27.880 NetType/WIFI Language/zh_CN'
p61
sg16
S'105f70bfcaedb445b810821f29793d16'
p62
sa(dp63
g2
S'27653'
p64
sg4
S'322'
p65
sg6
S'37ec7b91655b3c964292df15710fad2a'
p66
sg8
S'xx9de3993838f06e36d8e55a5136a2aba6'
p67
sg10
S'xx33da841852f262a0d8d976e467a70d31'
p68
sg12
S'xx22a6129d643a2911de30c1ba2300303e'
p69
sg14
S'Mozilla/5.0 (Linux; Android 5.0.2; Redmi Note 2 Build/LRX22G) AppleWebKit/537.36 (KHTML, like Gecko) Version/4.0 Chrome/37.0.0.0 Mobile MQQBrowser/6.8 TBS/036849 Safari/537.36 MicroMessenger/6.3.27.880 NetType/WIFI Language/zh_CN'
p70
sg16
S'105f70bfcaedb445b810821f29793d16'
p71
sa(dp72
g2
S'21986'
p73
sg4
S'431'
p74
sg6
S'd89a497bab8d0f3c29d89ae19eb7e300'
p75
sg8
S'xx9de3993838f06e36d8e55a5136a2aba6'
p76
sg10
S'xx33da841852f262a0d8d976e467a70d31'
p77
sg12
S'xx22a6129d643a2911de30c1ba2300303e'
p78
sg14
S'Mozilla/5.0 (Linux; Android 5.0.2; Redmi Note 2 Build/LRX22G) AppleWebKit/537.36 (KHTML, like Gecko) Version/4.0 Chrome/37.0.0.0 Mobile MQQBrowser/6.8 TBS/036849 Safari/537.36 MicroMessenger/6.3.27.880 NetType/WIFI Language/zh_CN'
p79
sg16
S'105f70bfcaedb445b810821f29793d16'
p80
sa(dp81
g2
S'21986'
p82
sg4
S'441'
p83
sg6
S'd89a497bab8d0f3c29d89ae19eb7e300'
p84
sg8
S'xx9de3993838f06e36d8e55a5136a2aba6'
p85
sg10
S'xx33da841852f262a0d8d976e467a70d31'
p86
sg12
S'xx22a6129d643a2911de30c1ba2300303e'
p87
sg14
S'Mozilla/5.0 (Linux; Android 5.0.2; Redmi Note 2 Build/LRX22G) AppleWebKit/537.36 (KHTML, like Gecko) Version/4.0 Chrome/37.0.0.0 Mobile MQQBrowser/6.8 TBS/036849 Safari/537.36 MicroMessenger/6.3.27.880 NetType/WIFI Language/zh_CN'
p88
sg16
S'105f70bfcaedb445b810821f29793d16'
p89
sa(dp90
g2
S'31000'
p91
sg4
S'676'
p92
sg6
S'd66c95a4c1c7aa3ad1fe1162a8491ff3'
p93
sg8
S'xx17684f15253b2987f1807aab65fcba76'
p94
sg10
S'xx33da841852f262a0d8d976e467a70d31'
p95
sg12
S'xx22a6129d643a2911de30c1ba2300303e'
p96
sg14
S'Mozilla/5.0 (Linux; Android 5.0.2; Redmi Note 2 Build/LRX22G) AppleWebKit/537.36 (KHTML, like Gecko) Version/4.0 Chrome/37.0.0.0 Mobile MQQBrowser/6.8 TBS/036869 Safari/537.36 MicroMessenger/6.3.25.861 NetType/WIFI Language/zh_CN'
p97
sg16
S'd60dadeb0cca6bd36e3a02ae9f8a1fe6'
p98
sa(dp99
g2
S'31000'
p100
sg4
S'687'
p101
sg6
S'd66c95a4c1c7aa3ad1fe1162a8491ff3'
p102
sg8
S'xx17684f15253b2987f1807aab65fcba76'
p103
sg10
S'xx33da841852f262a0d8d976e467a70d31'
p104
sg12
S'xx22a6129d643a2911de30c1ba2300303e'
p105
sg14
S'Mozilla/5.0 (Linux; Android 5.0.2; Redmi Note 2 Build/LRX22G) AppleWebKit/537.36 (KHTML, like Gecko) Version/4.0 Chrome/37.0.0.0 Mobile MQQBrowser/6.8 TBS/036869 Safari/537.36 MicroMessenger/6.3.25.861 NetType/WIFI Language/zh_CN'
p106
sg16
S'd60dadeb0cca6bd36e3a02ae9f8a1fe6'
p107
sa(dp108
g2
S'21986'
p109
sg4
S'796'
p110
sg6
S'd89a497bab8d0f3c29d89ae19eb7e300'
p111
sg8
S'xx9de3993838f06e36d8e55a5136a2aba6'
p112
sg10
S'xx33da841852f262a0d8d976e467a70d31'
p113
sg12
S'xx22a6129d643a2911de30c1ba2300303e'
p114
sg14
S'Mozilla/5.0 (Linux; Android 5.0.2; Redmi Note 2 Build/LRX22G) AppleWebKit/537.36 (KHTML, like Gecko) Version/4.0 Chrome/37.0.0.0 Mobile MQQBrowser/6.8 TBS/036849 Safari/537.36 MicroMessenger/6.3.27.880 NetType/WIFI Language/zh_CN'
p115
sg16
S'105f70bfcaedb445b810821f29793d16'
p116
sa(dp117
g2
S'31000'
p118
sg4
S'1165'
p119
sg6
S'd66c95a4c1c7aa3ad1fe1162a8491ff3'
p120
sg8
S'xx17684f15253b2987f1807aab65fcba76'
p121
sg10
S'xx33da841852f262a0d8d976e467a70d31'
p122
sg12
S'xx22a6129d643a2911de30c1ba2300303e'
p123
sg14
S'Mozilla/5.0 (Linux; Android 5.0.2; Redmi Note 2 Build/LRX22G) AppleWebKit/537.36 (KHTML, like Gecko) Version/4.0 Chrome/37.0.0.0 Mobile MQQBrowser/6.8 TBS/036869 Safari/537.36 MicroMessenger/6.3.25.861 NetType/WIFI Language/zh_CN'
p124
sg16
S'd60dadeb0cca6bd36e3a02ae9f8a1fe6'
p125
sa(dp126
g2
S'45145'
p127
sg4
S'1331'
p128
sg6
S'79b2b9904f23a9b5f103957129608106'
p129
sg8
S'xx9de3993838f06e36d8e55a5136a2aba6'
p130
sg10
S'xx33da841852f262a0d8d976e467a70d31'
p131
sg12
S'xx22a6129d643a2911de30c1ba2300303e'
p132
sg14
S'Mozilla/5.0 (Linux; Android 5.0.2; Redmi Note 2 Build/LRX22G) AppleWebKit/537.36 (KHTML, like Gecko) Version/4.0 Chrome/37.0.0.0 Mobile MQQBrowser/6.8 TBS/036849 Safari/537.36 MicroMessenger/6.3.27.880 NetType/WIFI Language/zh_CN'
p133
sg16
S'105f70bfcaedb445b810821f29793d16'
p134
sa(dp135
g2
S'45145'
p136
sg4
S'1344'
p137
sg6
S'79b2b9904f23a9b5f103957129608106'
p138
sg8
S'xx9de3993838f06e36d8e55a5136a2aba6'
p139
sg10
S'xx33da841852f262a0d8d976e467a70d31'
p140
sg12
S'xx22a6129d643a2911de30c1ba2300303e'
p141
sg14
S'Mozilla/5.0 (Linux; Android 5.0.2; Redmi Note 2 Build/LRX22G) AppleWebKit/537.36 (KHTML, like Gecko) Version/4.0 Chrome/37.0.0.0 Mobile MQQBrowser/6.8 TBS/036849 Safari/537.36 MicroMessenger/6.3.27.880 NetType/WIFI Language/zh_CN'
p142
sg16
S'105f70bfcaedb445b810821f29793d16'
p143
sa(dp144
g2
S'31000'
p145
sg4
S'2093'
p146
sg6
S'e6043c7d8d59c09899fef934f46b77c0'
p147
sg8
S'xx17684f15253b2987f1807aab65fcba76'
p148
sg10
S'xx33da841852f262a0d8d976e467a70d31'
p149
sg12
S'xx22a6129d643a2911de30c1ba2300303e'
p150
sg14
S'Mozilla/5.0 (Linux; Android 5.0.2; Redmi Note 2 Build/LRX22G) AppleWebKit/537.36 (KHTML, like Gecko) Version/4.0 Chrome/37.0.0.0 Mobile MQQBrowser/6.8 TBS/036869 Safari/537.36 MicroMessenger/6.3.25.861 NetType/WIFI Language/zh_CN'
p151
sg16
S'd60dadeb0cca6bd36e3a02ae9f8a1fe6'
p152
sa(dp153
g2
S'31000'
p154
sg4
S'2106'
p155
sg6
S'e6043c7d8d59c09899fef934f46b77c0'
p156
sg8
S'xx17684f15253b2987f1807aab65fcba76'
p157
sg10
S'xx33da841852f262a0d8d976e467a70d31'
p158
sg12
S'xx22a6129d643a2911de30c1ba2300303e'
p159
sg14
S'Mozilla/5.0 (Linux; Android 5.0.2; Redmi Note 2 Build/LRX22G) AppleWebKit/537.36 (KHTML, like Gecko) Version/4.0 Chrome/37.0.0.0 Mobile MQQBrowser/6.8 TBS/036869 Safari/537.36 MicroMessenger/6.3.25.861 NetType/WIFI Language/zh_CN'
p160
sg16
S'd60dadeb0cca6bd36e3a02ae9f8a1fe6'
p161
sa(dp162
g2
S'45145'
p163
sg4
S'2735'
p164
sg6
S'79b2b9904f23a9b5f103957129608106'
p165
sg8
S'xx9de3993838f06e36d8e55a5136a2aba6'
p166
sg10
S'xx33da841852f262a0d8d976e467a70d31'
p167
sg12
S'xx22a6129d643a2911de30c1ba2300303e'
p168
sg14
S'Mozilla/5.0 (Linux; Android 5.0.2; Redmi Note 2 Build/LRX22G) AppleWebKit/537.36 (KHTML, like Gecko) Version/4.0 Chrome/37.0.0.0 Mobile MQQBrowser/6.8 TBS/036849 Safari/537.36 MicroMessenger/6.3.27.880 NetType/WIFI Language/zh_CN'
p169
sg16
S'105f70bfcaedb445b810821f29793d16'
p170
sa(dp171
g2
S'45145'
p172
sg4
S'2756'
p173
sg6
S'79b2b9904f23a9b5f103957129608106'
p174
sg8
S'xx9de3993838f06e36d8e55a5136a2aba6'
p175
sg10
S'xx33da841852f262a0d8d976e467a70d31'
p176
sg12
S'xx22a6129d643a2911de30c1ba2300303e'
p177
sg14
S'Mozilla/5.0 (Linux; Android 5.0.2; Redmi Note 2 Build/LRX22G) AppleWebKit/537.36 (KHTML, like Gecko) Version/4.0 Chrome/37.0.0.0 Mobile MQQBrowser/6.8 TBS/036849 Safari/537.36 MicroMessenger/6.3.27.880 NetType/WIFI Language/zh_CN'
p178
sg16
S'105f70bfcaedb445b810821f29793d16'
p179
sa(dp180
g2
S'31000'
p181
sg4
S'3112'
p182
sg6
S'd66c95a4c1c7aa3ad1fe1162a8491ff3'
p183
sg8
S'xx17684f15253b2987f1807aab65fcba76'
p184
sg10
S'xx33da841852f262a0d8d976e467a70d31'
p185
sg12
S'xx22a6129d643a2911de30c1ba2300303e'
p186
sg14
S'Mozilla/5.0 (Linux; Android 5.0.2; Redmi Note 2 Build/LRX22G) AppleWebKit/537.36 (KHTML, like Gecko) Version/4.0 Chrome/37.0.0.0 Mobile MQQBrowser/6.8 TBS/036869 Safari/537.36 MicroMessenger/6.3.25.861 NetType/WIFI Language/zh_CN'
p187
sg16
S'd60dadeb0cca6bd36e3a02ae9f8a1fe6'
p188
sa(dp189
g2
S'31000'
p190
sg4
S'3130'
p191
sg6
S'd66c95a4c1c7aa3ad1fe1162a8491ff3'
p192
sg8
S'xx17684f15253b2987f1807aab65fcba76'
p193
sg10
S'xx33da841852f262a0d8d976e467a70d31'
p194
sg12
S'xx22a6129d643a2911de30c1ba2300303e'
p195
sg14
S'Mozilla/5.0 (Linux; Android 5.0.2; Redmi Note 2 Build/LRX22G) AppleWebKit/537.36 (KHTML, like Gecko) Version/4.0 Chrome/37.0.0.0 Mobile MQQBrowser/6.8 TBS/036869 Safari/537.36 MicroMessenger/6.3.25.861 NetType/WIFI Language/zh_CN'
p196
sg16
S'd60dadeb0cca6bd36e3a02ae9f8a1fe6'
p197
sa(dp198
g2
S'30329'
p199
sg4
S'3351'
p200
sg6
S'37adcabb4bd30f1f2144e826fd42738a'
p201
sg8
S'xx9de3993838f06e36d8e55a5136a2aba6'
p202
sg10
S'xx33da841852f262a0d8d976e467a70d31'
p203
sg12
S'xx22a6129d643a2911de30c1ba2300303e'
p204
sg14
S'Mozilla/5.0 (Linux; Android 5.0.2; Redmi Note 2 Build/LRX22G) AppleWebKit/537.36 (KHTML, like Gecko) Version/4.0 Chrome/37.0.0.0 Mobile MQQBrowser/6.8 TBS/036849 Safari/537.36 MicroMessenger/6.3.27.880 NetType/WIFI Language/zh_CN'
p205
sg16
S'105f70bfcaedb445b810821f29793d16'
p206
sa(dp207
g2
S'30329'
p208
sg4
S'3369'
p209
sg6
S'37adcabb4bd30f1f2144e826fd42738a'
p210
sg8
S'xx9de3993838f06e36d8e55a5136a2aba6'
p211
sg10
S'xx33da841852f262a0d8d976e467a70d31'
p212
sg12
S'xx22a6129d643a2911de30c1ba2300303e'
p213
sg14
S'Mozilla/5.0 (Linux; Android 5.0.2; Redmi Note 2 Build/LRX22G) AppleWebKit/537.36 (KHTML, like Gecko) Version/4.0 Chrome/37.0.0.0 Mobile MQQBrowser/6.8 TBS/036849 Safari/537.36 MicroMessenger/6.3.27.880 NetType/WIFI Language/zh_CN'
p214
sg16
S'105f70bfcaedb445b810821f29793d16'
p215
sa(dp216
g2
S'30329'
p217
sg4
S'3389'
p218
sg6
S'37adcabb4bd30f1f2144e826fd42738a'
p219
sg8
S'xx9de3993838f06e36d8e55a5136a2aba6'
p220
sg10
S'xx33da841852f262a0d8d976e467a70d31'
p221
sg12
S'xx22a6129d643a2911de30c1ba2300303e'
p222
sg14
S'Mozilla/5.0 (Linux; Android 5.0.2; Redmi Note 2 Build/LRX22G) AppleWebKit/537.36 (KHTML, like Gecko) Version/4.0 Chrome/37.0.0.0 Mobile MQQBrowser/6.8 TBS/036849 Safari/537.36 MicroMessenger/6.3.27.880 NetType/WIFI Language/zh_CN'
p223
sg16
S'105f70bfcaedb445b810821f29793d16'
p224
sa(dp225
g2
S'26032'
p226
sg4
S'3460'
p227
sg6
S'de17a6a29674548500739afde18b53d1'
p228
sg8
S'xx9de3993838f06e36d8e55a5136a2aba6'
p229
sg10
S'xx33da841852f262a0d8d976e467a70d31'
p230
sg12
S'xx22a6129d643a2911de30c1ba2300303e'
p231
sg14
S'Mozilla/5.0 (Linux; Android 5.0.2; Redmi Note 2 Build/LRX22G) AppleWebKit/537.36 (KHTML, like Gecko) Version/4.0 Chrome/37.0.0.0 Mobile MQQBrowser/6.8 TBS/036849 Safari/537.36 MicroMessenger/6.3.27.880 NetType/WIFI Language/zh_CN'
p232
sg16
S'105f70bfcaedb445b810821f29793d16'
p233
sa(dp234
g2
S'26032'
p235
sg4
S'3474'
p236
sg6
S'de17a6a29674548500739afde18b53d1'
p237
sg8
S'xx9de3993838f06e36d8e55a5136a2aba6'
p238
sg10
S'xx33da841852f262a0d8d976e467a70d31'
p239
sg12
S'xx22a6129d643a2911de30c1ba2300303e'
p240
sg14
S'Mozilla/5.0 (Linux; Android 5.0.2; Redmi Note 2 Build/LRX22G) AppleWebKit/537.36 (KHTML, like Gecko) Version/4.0 Chrome/37.0.0.0 Mobile MQQBrowser/6.8 TBS/036849 Safari/537.36 MicroMessenger/6.3.27.880 NetType/WIFI Language/zh_CN'
p241
sg16
S'105f70bfcaedb445b810821f29793d16'
p242
sa(dp243
g2
S'26032'
p244
sg4
S'3627'
p245
sg6
S'de17a6a29674548500739afde18b53d1'
p246
sg8
S'xx9de3993838f06e36d8e55a5136a2aba6'
p247
sg10
S'xx33da841852f262a0d8d976e467a70d31'
p248
sg12
S'xx22a6129d643a2911de30c1ba2300303e'
p249
sg14
S'Mozilla/5.0 (Linux; Android 5.0.2; Redmi Note 2 Build/LRX22G) AppleWebKit/537.36 (KHTML, like Gecko) Version/4.0 Chrome/37.0.0.0 Mobile MQQBrowser/6.8 TBS/036849 Safari/537.36 MicroMessenger/6.3.27.880 NetType/WIFI Language/zh_CN'
p250
sg16
S'105f70bfcaedb445b810821f29793d16'
p251
sa(dp252
g2
S'31000'
p253
sg4
S'3691'
p254
sg6
S'd66c95a4c1c7aa3ad1fe1162a8491ff3'
p255
sg8
S'xx17684f15253b2987f1807aab65fcba76'
p256
sg10
S'xx33da841852f262a0d8d976e467a70d31'
p257
sg12
S'xx22a6129d643a2911de30c1ba2300303e'
p258
sg14
S'Mozilla/5.0 (Linux; Android 5.0.2; Redmi Note 2 Build/LRX22G) AppleWebKit/537.36 (KHTML, like Gecko) Version/4.0 Chrome/37.0.0.0 Mobile MQQBrowser/6.8 TBS/036869 Safari/537.36 MicroMessenger/6.3.25.861 NetType/WIFI Language/zh_CN'
p259
sg16
S'd60dadeb0cca6bd36e3a02ae9f8a1fe6'
p260
sa(dp261
g2
S'31000'
p262
sg4
S'3708'
p263
sg6
S'd66c95a4c1c7aa3ad1fe1162a8491ff3'
p264
sg8
S'xx17684f15253b2987f1807aab65fcba76'
p265
sg10
S'xx33da841852f262a0d8d976e467a70d31'
p266
sg12
S'xx22a6129d643a2911de30c1ba2300303e'
p267
sg14
S'Mozilla/5.0 (Linux; Android 5.0.2; Redmi Note 2 Build/LRX22G) AppleWebKit/537.36 (KHTML, like Gecko) Version/4.0 Chrome/37.0.0.0 Mobile MQQBrowser/6.8 TBS/036869 Safari/537.36 MicroMessenger/6.3.25.861 NetType/WIFI Language/zh_CN'
p268
sg16
S'd60dadeb0cca6bd36e3a02ae9f8a1fe6'
p269
sa(dp270
g2
S'26032'
p271
sg4
S'3950'
p272
sg6
S'de17a6a29674548500739afde18b53d1'
p273
sg8
S'xx9de3993838f06e36d8e55a5136a2aba6'
p274
sg10
S'xx33da841852f262a0d8d976e467a70d31'
p275
sg12
S'xx22a6129d643a2911de30c1ba2300303e'
p276
sg14
S'Mozilla/5.0 (Linux; Android 5.0.2; Redmi Note 2 Build/LRX22G) AppleWebKit/537.36 (KHTML, like Gecko) Version/4.0 Chrome/37.0.0.0 Mobile MQQBrowser/6.8 TBS/036849 Safari/537.36 MicroMessenger/6.3.27.880 NetType/WIFI Language/zh_CN'
p277
sg16
S'105f70bfcaedb445b810821f29793d16'
p278
sa(dp279
g2
S'26032'
p280
sg4
S'3970'
p281
sg6
S'de17a6a29674548500739afde18b53d1'
p282
sg8
S'xx9de3993838f06e36d8e55a5136a2aba6'
p283
sg10
S'xx33da841852f262a0d8d976e467a70d31'
p284
sg12
S'xx22a6129d643a2911de30c1ba2300303e'
p285
sg14
S'Mozilla/5.0 (Linux; Android 5.0.2; Redmi Note 2 Build/LRX22G) AppleWebKit/537.36 (KHTML, like Gecko) Version/4.0 Chrome/37.0.0.0 Mobile MQQBrowser/6.8 TBS/036849 Safari/537.36 MicroMessenger/6.3.27.880 NetType/WIFI Language/zh_CN'
p286
sg16
S'105f70bfcaedb445b810821f29793d16'
p287
sa(dp288
g2
S'47432'
p289
sg4
S'4085'
p290
sg6
S'60ca6e04daf18609a6a5b95258eeeaa3'
p291
sg8
S'xxfd32693b4353929b62e13ad38a167eae'
p292
sg10
S'xx33da841852f262a0d8d976e467a70d31'
p293
sg12
S'xx22a6129d643a2911de30c1ba2300303e'
p294
sg14
S'Mozilla/5.0 (Linux; Android 5.0.2; Redmi Note 2 Build/LRX22G) AppleWebKit/537.36 (KHTML, like Gecko) Version/4.0 Chrome/37.0.0.0 Mobile MQQBrowser/6.8 TBS/036849 Safari/537.36 MicroMessenger/6.3.27.880 NetType/cmnet Language/zh_CN'
p295
sg16
S'8099cc2732272fbf0be707d60643a2c4'
p296
sa(dp297
g2
S'47432'
p298
sg4
S'4108'
p299
sg6
S'60ca6e04daf18609a6a5b95258eeeaa3'
p300
sg8
S'xxfd32693b4353929b62e13ad38a167eae'
p301
sg10
S'xx33da841852f262a0d8d976e467a70d31'
p302
sg12
S'xx22a6129d643a2911de30c1ba2300303e'
p303
sg14
S'Mozilla/5.0 (Linux; Android 5.0.2; Redmi Note 2 Build/LRX22G) AppleWebKit/537.36 (KHTML, like Gecko) Version/4.0 Chrome/37.0.0.0 Mobile MQQBrowser/6.8 TBS/036849 Safari/537.36 MicroMessenger/6.3.27.880 NetType/cmnet Language/zh_CN'
p304
sg16
S'8099cc2732272fbf0be707d60643a2c4'
p305
sa(dp306
g2
S'26032'
p307
sg4
S'4140'
p308
sg6
S'de17a6a29674548500739afde18b53d1'
p309
sg8
S'xx9de3993838f06e36d8e55a5136a2aba6'
p310
sg10
S'xx33da841852f262a0d8d976e467a70d31'
p311
sg12
S'xx22a6129d643a2911de30c1ba2300303e'
p312
sg14
S'Mozilla/5.0 (Linux; Android 5.0.2; Redmi Note 2 Build/LRX22G) AppleWebKit/537.36 (KHTML, like Gecko) Version/4.0 Chrome/37.0.0.0 Mobile MQQBrowser/6.8 TBS/036849 Safari/537.36 MicroMessenger/6.3.27.880 NetType/WIFI Language/zh_CN'
p313
sg16
S'105f70bfcaedb445b810821f29793d16'
p314
sa(dp315
g2
S'26032'
p316
sg4
S'4163'
p317
sg6
S'de17a6a29674548500739afde18b53d1'
p318
sg8
S'xx9de3993838f06e36d8e55a5136a2aba6'
p319
sg10
S'xx33da841852f262a0d8d976e467a70d31'
p320
sg12
S'xx22a6129d643a2911de30c1ba2300303e'
p321
sg14
S'Mozilla/5.0 (Linux; Android 5.0.2; Redmi Note 2 Build/LRX22G) AppleWebKit/537.36 (KHTML, like Gecko) Version/4.0 Chrome/37.0.0.0 Mobile MQQBrowser/6.8 TBS/036849 Safari/537.36 MicroMessenger/6.3.27.880 NetType/WIFI Language/zh_CN'
p322
sg16
S'105f70bfcaedb445b810821f29793d16'
p323
sa(dp324
g2
S'26032'
p325
sg4
S'4180'
p326
sg6
S'de17a6a29674548500739afde18b53d1'
p327
sg8
S'xx9de3993838f06e36d8e55a5136a2aba6'
p328
sg10
S'xx33da841852f262a0d8d976e467a70d31'
p329
sg12
S'xx22a6129d643a2911de30c1ba2300303e'
p330
sg14
S'Mozilla/5.0 (Linux; Android 5.0.2; Redmi Note 2 Build/LRX22G) AppleWebKit/537.36 (KHTML, like Gecko) Version/4.0 Chrome/37.0.0.0 Mobile MQQBrowser/6.8 TBS/036849 Safari/537.36 MicroMessenger/6.3.27.880 NetType/WIFI Language/zh_CN'
p331
sg16
S'105f70bfcaedb445b810821f29793d16'
p332
sa(dp333
g2
S'31000'
p334
sg4
S'4464'
p335
sg6
S'd66c95a4c1c7aa3ad1fe1162a8491ff3'
p336
sg8
S'xx17684f15253b2987f1807aab65fcba76'
p337
sg10
S'xx33da841852f262a0d8d976e467a70d31'
p338
sg12
S'xx22a6129d643a2911de30c1ba2300303e'
p339
sg14
S'Mozilla/5.0 (Linux; Android 5.0.2; Redmi Note 2 Build/LRX22G) AppleWebKit/537.36 (KHTML, like Gecko) Version/4.0 Chrome/37.0.0.0 Mobile MQQBrowser/6.8 TBS/036869 Safari/537.36 MicroMessenger/6.3.25.861 NetType/WIFI Language/zh_CN'
p340
sg16
S'd60dadeb0cca6bd36e3a02ae9f8a1fe6'
p341
sa(dp342
g2
S'31000'
p343
sg4
S'4484'
p344
sg6
S'd66c95a4c1c7aa3ad1fe1162a8491ff3'
p345
sg8
S'xx17684f15253b2987f1807aab65fcba76'
p346
sg10
S'xx33da841852f262a0d8d976e467a70d31'
p347
sg12
S'xx22a6129d643a2911de30c1ba2300303e'
p348
sg14
S'Mozilla/5.0 (Linux; Android 5.0.2; Redmi Note 2 Build/LRX22G) AppleWebKit/537.36 (KHTML, like Gecko) Version/4.0 Chrome/37.0.0.0 Mobile MQQBrowser/6.8 TBS/036869 Safari/537.36 MicroMessenger/6.3.25.861 NetType/WIFI Language/zh_CN'
p349
sg16
S'd60dadeb0cca6bd36e3a02ae9f8a1fe6'
p350
sa(dp351
g2
S'31000'
p352
sg4
S'4538'
p353
sg6
S'd66c95a4c1c7aa3ad1fe1162a8491ff3'
p354
sg8
S'xx17684f15253b2987f1807aab65fcba76'
p355
sg10
S'xx33da841852f262a0d8d976e467a70d31'
p356
sg12
S'xx22a6129d643a2911de30c1ba2300303e'
p357
sg14
S'Mozilla/5.0 (Linux; Android 5.0.2; Redmi Note 2 Build/LRX22G) AppleWebKit/537.36 (KHTML, like Gecko) Version/4.0 Chrome/37.0.0.0 Mobile MQQBrowser/6.8 TBS/036869 Safari/537.36 MicroMessenger/6.3.25.861 NetType/WIFI Language/zh_CN'
p358
sg16
S'd60dadeb0cca6bd36e3a02ae9f8a1fe6'
p359
sa(dp360
g2
S'47302'
p361
sg4
S'4690'
p362
sg6
S'98a7d9a4ff2e97e34f24f1ab39ba3feb'
p363
sg8
S'xx3f6ae5654bb358ff0c845a401e7c16a7'
p364
sg10
S'xx33da841852f262a0d8d976e467a70d31'
p365
sg12
S'xx22a6129d643a2911de30c1ba2300303e'
p366
sg14
S'Mozilla/5.0 (Linux; Android 5.0.2; Redmi Note 2 Build/LRX22G) AppleWebKit/537.36 (KHTML, like Gecko) Version/4.0 Chrome/37.0.0.0 Mobile MQQBrowser/6.8 TBS/036824 Safari/537.36 MicroMessenger/6.3.27.880 NetType/WIFI Language/zh_CN'
p367
sg16
S'eb09ae20ba03a35542365b2f998bfbd9'
p368
sa(dp369
g2
S'47302'
p370
sg4
S'4706'
p371
sg6
S'98a7d9a4ff2e97e34f24f1ab39ba3feb'
p372
sg8
S'xx3f6ae5654bb358ff0c845a401e7c16a7'
p373
sg10
S'xx33da841852f262a0d8d976e467a70d31'
p374
sg12
S'xx22a6129d643a2911de30c1ba2300303e'
p375
sg14
S'Mozilla/5.0 (Linux; Android 5.0.2; Redmi Note 2 Build/LRX22G) AppleWebKit/537.36 (KHTML, like Gecko) Version/4.0 Chrome/37.0.0.0 Mobile MQQBrowser/6.8 TBS/036824 Safari/537.36 MicroMessenger/6.3.27.880 NetType/WIFI Language/zh_CN'
p376
sg16
S'eb09ae20ba03a35542365b2f998bfbd9'
p377
sa(dp378
g2
S'47302'
p379
sg4
S'4723'
p380
sg6
S'98a7d9a4ff2e97e34f24f1ab39ba3feb'
p381
sg8
S'xx3f6ae5654bb358ff0c845a401e7c16a7'
p382
sg10
S'xx33da841852f262a0d8d976e467a70d31'
p383
sg12
S'xx22a6129d643a2911de30c1ba2300303e'
p384
sg14
S'Mozilla/5.0 (Linux; Android 5.0.2; Redmi Note 2 Build/LRX22G) AppleWebKit/537.36 (KHTML, like Gecko) Version/4.0 Chrome/37.0.0.0 Mobile MQQBrowser/6.8 TBS/036824 Safari/537.36 MicroMessenger/6.3.27.880 NetType/WIFI Language/zh_CN'
p385
sg16
S'eb09ae20ba03a35542365b2f998bfbd9'
p386
sa(dp387
g2
S'47302'
p388
sg4
S'4743'
p389
sg6
S'98a7d9a4ff2e97e34f24f1ab39ba3feb'
p390
sg8
S'xx3f6ae5654bb358ff0c845a401e7c16a7'
p391
sg10
S'xx33da841852f262a0d8d976e467a70d31'
p392
sg12
S'xx22a6129d643a2911de30c1ba2300303e'
p393
sg14
S'Mozilla/5.0 (Linux; Android 5.0.2; Redmi Note 2 Build/LRX22G) AppleWebKit/537.36 (KHTML, like Gecko) Version/4.0 Chrome/37.0.0.0 Mobile MQQBrowser/6.8 TBS/036824 Safari/537.36 MicroMessenger/6.3.27.880 NetType/WIFI Language/zh_CN'
p394
sg16
S'eb09ae20ba03a35542365b2f998bfbd9'
p395
sa(dp396
g2
S'47302'
p397
sg4
S'4755'
p398
sg6
S'98a7d9a4ff2e97e34f24f1ab39ba3feb'
p399
sg8
S'xx3f6ae5654bb358ff0c845a401e7c16a7'
p400
sg10
S'xx33da841852f262a0d8d976e467a70d31'
p401
sg12
S'xx22a6129d643a2911de30c1ba2300303e'
p402
sg14
S'Mozilla/5.0 (Linux; Android 5.0.2; Redmi Note 2 Build/LRX22G) AppleWebKit/537.36 (KHTML, like Gecko) Version/4.0 Chrome/37.0.0.0 Mobile MQQBrowser/6.8 TBS/036824 Safari/537.36 MicroMessenger/6.3.27.880 NetType/WIFI Language/zh_CN'
p403
sg16
S'eb09ae20ba03a35542365b2f998bfbd9'
p404
sa(dp405
g2
S'26032'
p406
sg4
S'4952'
p407
sg6
S'd7d1ed04b61f69c47dc358f380a24a8b'
p408
sg8
S'xx9de3993838f06e36d8e55a5136a2aba6'
p409
sg10
S'xx33da841852f262a0d8d976e467a70d31'
p410
sg12
S'xx22a6129d643a2911de30c1ba2300303e'
p411
sg14
S'Mozilla/5.0 (Linux; Android 5.0.2; Redmi Note 2 Build/LRX22G) AppleWebKit/537.36 (KHTML, like Gecko) Version/4.0 Chrome/37.0.0.0 Mobile MQQBrowser/6.8 TBS/036849 Safari/537.36 MicroMessenger/6.3.27.880 NetType/WIFI Language/zh_CN'
p412
sg16
S'105f70bfcaedb445b810821f29793d16'
p413
sa(dp414
g2
S'26032'
p415
sg4
S'4967'
p416
sg6
S'd7d1ed04b61f69c47dc358f380a24a8b'
p417
sg8
S'xx9de3993838f06e36d8e55a5136a2aba6'
p418
sg10
S'xx33da841852f262a0d8d976e467a70d31'
p419
sg12
S'xx22a6129d643a2911de30c1ba2300303e'
p420
sg14
S'Mozilla/5.0 (Linux; Android 5.0.2; Redmi Note 2 Build/LRX22G) AppleWebKit/537.36 (KHTML, like Gecko) Version/4.0 Chrome/37.0.0.0 Mobile MQQBrowser/6.8 TBS/036849 Safari/537.36 MicroMessenger/6.3.27.880 NetType/WIFI Language/zh_CN'
p421
sg16
S'105f70bfcaedb445b810821f29793d16'
p422
sa(dp423
g2
S'26032'
p424
sg4
S'4985'
p425
sg6
S'd7d1ed04b61f69c47dc358f380a24a8b'
p426
sg8
S'xx9de3993838f06e36d8e55a5136a2aba6'
p427
sg10
S'xx33da841852f262a0d8d976e467a70d31'
p428
sg12
S'xx22a6129d643a2911de30c1ba2300303e'
p429
sg14
S'Mozilla/5.0 (Linux; Android 5.0.2; Redmi Note 2 Build/LRX22G) AppleWebKit/537.36 (KHTML, like Gecko) Version/4.0 Chrome/37.0.0.0 Mobile MQQBrowser/6.8 TBS/036849 Safari/537.36 MicroMessenger/6.3.27.880 NetType/WIFI Language/zh_CN'
p430
sg16
S'105f70bfcaedb445b810821f29793d16'
p431
sa(dp432
g2
S'26032'
p433
sg4
S'5049'
p434
sg6
S'd7d1ed04b61f69c47dc358f380a24a8b'
p435
sg8
S'xx9de3993838f06e36d8e55a5136a2aba6'
p436
sg10
S'xx33da841852f262a0d8d976e467a70d31'
p437
sg12
S'xx22a6129d643a2911de30c1ba2300303e'
p438
sg14
S'Mozilla/5.0 (Linux; Android 5.0.2; Redmi Note 2 Build/LRX22G) AppleWebKit/537.36 (KHTML, like Gecko) Version/4.0 Chrome/37.0.0.0 Mobile MQQBrowser/6.8 TBS/036849 Safari/537.36 MicroMessenger/6.3.27.880 NetType/WIFI Language/zh_CN'
p439
sg16
S'105f70bfcaedb445b810821f29793d16'
p440
sa(dp441
g2
S'31000'
p442
sg4
S'5265'
p443
sg6
S'd66c95a4c1c7aa3ad1fe1162a8491ff3'
p444
sg8
S'xx17684f15253b2987f1807aab65fcba76'
p445
sg10
S'xx33da841852f262a0d8d976e467a70d31'
p446
sg12
S'xx22a6129d643a2911de30c1ba2300303e'
p447
sg14
S'Mozilla/5.0 (Linux; Android 5.0.2; Redmi Note 2 Build/LRX22G) AppleWebKit/537.36 (KHTML, like Gecko) Version/4.0 Chrome/37.0.0.0 Mobile MQQBrowser/6.8 TBS/036869 Safari/537.36 MicroMessenger/6.3.25.861 NetType/WIFI Language/zh_CN'
p448
sg16
S'd60dadeb0cca6bd36e3a02ae9f8a1fe6'
p449
sa(dp450
g2
S'31000'
p451
sg4
S'5283'
p452
sg6
S'd66c95a4c1c7aa3ad1fe1162a8491ff3'
p453
sg8
S'xx17684f15253b2987f1807aab65fcba76'
p454
sg10
S'xx33da841852f262a0d8d976e467a70d31'
p455
sg12
S'xx22a6129d643a2911de30c1ba2300303e'
p456
sg14
S'Mozilla/5.0 (Linux; Android 5.0.2; Redmi Note 2 Build/LRX22G) AppleWebKit/537.36 (KHTML, like Gecko) Version/4.0 Chrome/37.0.0.0 Mobile MQQBrowser/6.8 TBS/036869 Safari/537.36 MicroMessenger/6.3.25.861 NetType/WIFI Language/zh_CN'
p457
sg16
S'd60dadeb0cca6bd36e3a02ae9f8a1fe6'
p458
sa(dp459
g2
S'31000'
p460
sg4
S'5299'
p461
sg6
S'd66c95a4c1c7aa3ad1fe1162a8491ff3'
p462
sg8
S'xx17684f15253b2987f1807aab65fcba76'
p463
sg10
S'xx33da841852f262a0d8d976e467a70d31'
p464
sg12
S'xx22a6129d643a2911de30c1ba2300303e'
p465
sg14
S'Mozilla/5.0 (Linux; Android 5.0.2; Redmi Note 2 Build/LRX22G) AppleWebKit/537.36 (KHTML, like Gecko) Version/4.0 Chrome/37.0.0.0 Mobile MQQBrowser/6.8 TBS/036869 Safari/537.36 MicroMessenger/6.3.25.861 NetType/WIFI Language/zh_CN'
p466
sg16
S'd60dadeb0cca6bd36e3a02ae9f8a1fe6'
p467
sa(dp468
g2
S'45145'
p469
sg4
S'5382'
p470
sg6
S'79b2b9904f23a9b5f103957129608106'
p471
sg8
S'xx9de3993838f06e36d8e55a5136a2aba6'
p472
sg10
S'xx33da841852f262a0d8d976e467a70d31'
p473
sg12
S'xx22a6129d643a2911de30c1ba2300303e'
p474
sg14
S'Mozilla/5.0 (Linux; Android 5.0.2; Redmi Note 2 Build/LRX22G) AppleWebKit/537.36 (KHTML, like Gecko) Version/4.0 Chrome/37.0.0.0 Mobile MQQBrowser/6.8 TBS/036849 Safari/537.36 MicroMessenger/6.3.27.880 NetType/WIFI Language/zh_CN'
p475
sg16
S'105f70bfcaedb445b810821f29793d16'
p476
sa(dp477
g2
S'45145'
p478
sg4
S'5397'
p479
sg6
S'79b2b9904f23a9b5f103957129608106'
p480
sg8
S'xx9de3993838f06e36d8e55a5136a2aba6'
p481
sg10
S'xx33da841852f262a0d8d976e467a70d31'
p482
sg12
S'xx22a6129d643a2911de30c1ba2300303e'
p483
sg14
S'Mozilla/5.0 (Linux; Android 5.0.2; Redmi Note 2 Build/LRX22G) AppleWebKit/537.36 (KHTML, like Gecko) Version/4.0 Chrome/37.0.0.0 Mobile MQQBrowser/6.8 TBS/036849 Safari/537.36 MicroMessenger/6.3.27.880 NetType/WIFI Language/zh_CN'
p484
sg16
S'105f70bfcaedb445b810821f29793d16'
p485
sa(dp486
g2
S'26032'
p487
sg4
S'5669'
p488
sg6
S'de17a6a29674548500739afde18b53d1'
p489
sg8
S'xx9de3993838f06e36d8e55a5136a2aba6'
p490
sg10
S'xx33da841852f262a0d8d976e467a70d31'
p491
sg12
S'xx22a6129d643a2911de30c1ba2300303e'
p492
sg14
S'Mozilla/5.0 (Linux; Android 5.0.2; Redmi Note 2 Build/LRX22G) AppleWebKit/537.36 (KHTML, like Gecko) Version/4.0 Chrome/37.0.0.0 Mobile MQQBrowser/6.8 TBS/036849 Safari/537.36 MicroMessenger/6.3.27.880 NetType/WIFI Language/zh_CN'
p493
sg16
S'105f70bfcaedb445b810821f29793d16'
p494
sa(dp495
g2
S'26032'
p496
sg4
S'5685'
p497
sg6
S'de17a6a29674548500739afde18b53d1'
p498
sg8
S'xx9de3993838f06e36d8e55a5136a2aba6'
p499
sg10
S'xx33da841852f262a0d8d976e467a70d31'
p500
sg12
S'xx22a6129d643a2911de30c1ba2300303e'
p501
sg14
S'Mozilla/5.0 (Linux; Android 5.0.2; Redmi Note 2 Build/LRX22G) AppleWebKit/537.36 (KHTML, like Gecko) Version/4.0 Chrome/37.0.0.0 Mobile MQQBrowser/6.8 TBS/036849 Safari/537.36 MicroMessenger/6.3.27.880 NetType/WIFI Language/zh_CN'
p502
sg16
S'105f70bfcaedb445b810821f29793d16'
p503
sa(dp504
g2
S'26032'
p505
sg4
S'5719'
p506
sg6
S'de17a6a29674548500739afde18b53d1'
p507
sg8
S'xx9de3993838f06e36d8e55a5136a2aba6'
p508
sg10
S'xx33da841852f262a0d8d976e467a70d31'
p509
sg12
S'xx22a6129d643a2911de30c1ba2300303e'
p510
sg14
S'Mozilla/5.0 (Linux; Android 5.0.2; Redmi Note 2 Build/LRX22G) AppleWebKit/537.36 (KHTML, like Gecko) Version/4.0 Chrome/37.0.0.0 Mobile MQQBrowser/6.8 TBS/036849 Safari/537.36 MicroMessenger/6.3.27.880 NetType/WIFI Language/zh_CN'
p511
sg16
S'105f70bfcaedb445b810821f29793d16'
p512
sa(dp513
g2
S'26032'
p514
sg4
S'5775'
p515
sg6
S'de17a6a29674548500739afde18b53d1'
p516
sg8
S'xx9de3993838f06e36d8e55a5136a2aba6'
p517
sg10
S'xx33da841852f262a0d8d976e467a70d31'
p518
sg12
S'xx22a6129d643a2911de30c1ba2300303e'
p519
sg14
S'Mozilla/5.0 (Linux; Android 5.0.2; Redmi Note 2 Build/LRX22G) AppleWebKit/537.36 (KHTML, like Gecko) Version/4.0 Chrome/37.0.0.0 Mobile MQQBrowser/6.8 TBS/036849 Safari/537.36 MicroMessenger/6.3.27.880 NetType/WIFI Language/zh_CN'
p520
sg16
S'105f70bfcaedb445b810821f29793d16'
p521
sa(dp522
g2
S'31000'
p523
sg4
S'5888'
p524
sg6
S'd66c95a4c1c7aa3ad1fe1162a8491ff3'
p525
sg8
S'xx17684f15253b2987f1807aab65fcba76'
p526
sg10
S'xx33da841852f262a0d8d976e467a70d31'
p527
sg12
S'xx22a6129d643a2911de30c1ba2300303e'
p528
sg14
S'Mozilla/5.0 (Linux; Android 5.0.2; Redmi Note 2 Build/LRX22G) AppleWebKit/537.36 (KHTML, like Gecko) Version/4.0 Chrome/37.0.0.0 Mobile MQQBrowser/6.8 TBS/036869 Safari/537.36 MicroMessenger/6.3.25.861 NetType/WIFI Language/zh_CN'
p529
sg16
S'd60dadeb0cca6bd36e3a02ae9f8a1fe6'
p530
sa(dp531
g2
S'47708'
p532
sg4
S'5896'
p533
sg6
S'c4c0a6a204d535761a4c01bcc47331e3'
p534
sg8
S'xxe08a8e9d71e6c14b4aaf83cf22d9f2c1'
p535
sg10
S'xx33da841852f262a0d8d976e467a70d31'
p536
sg12
S'xx22a6129d643a2911de30c1ba2300303e'
p537
sg14
S'Mozilla/5.0 (Linux; Android 5.0.2; Redmi Note 2 Build/LRX22G) AppleWebKit/537.36 (KHTML, like Gecko) Version/4.0 Chrome/37.0.0.0 Mobile MQQBrowser/6.8 TBS/036869 Safari/537.36 MicroMessenger/6.3.27.880 NetType/WIFI Language/zh_CN'
p538
sg16
S'497ef74a9c75a754d1572a87e64bc0ed'
p539
sa(dp540
g2
S'31000'
p541
sg4
S'5904'
p542
sg6
S'd66c95a4c1c7aa3ad1fe1162a8491ff3'
p543
sg8
S'xx17684f15253b2987f1807aab65fcba76'
p544
sg10
S'xx33da841852f262a0d8d976e467a70d31'
p545
sg12
S'xx22a6129d643a2911de30c1ba2300303e'
p546
sg14
S'Mozilla/5.0 (Linux; Android 5.0.2; Redmi Note 2 Build/LRX22G) AppleWebKit/537.36 (KHTML, like Gecko) Version/4.0 Chrome/37.0.0.0 Mobile MQQBrowser/6.8 TBS/036869 Safari/537.36 MicroMessenger/6.3.25.861 NetType/WIFI Language/zh_CN'
p547
sg16
S'd60dadeb0cca6bd36e3a02ae9f8a1fe6'
p548
sa(dp549
g2
S'47708'
p550
sg4
S'5913'
p551
sg6
S'c4c0a6a204d535761a4c01bcc47331e3'
p552
sg8
S'xxe08a8e9d71e6c14b4aaf83cf22d9f2c1'
p553
sg10
S'xx33da841852f262a0d8d976e467a70d31'
p554
sg12
S'xx22a6129d643a2911de30c1ba2300303e'
p555
sg14
S'Mozilla/5.0 (Linux; Android 5.0.2; Redmi Note 2 Build/LRX22G) AppleWebKit/537.36 (KHTML, like Gecko) Version/4.0 Chrome/37.0.0.0 Mobile MQQBrowser/6.8 TBS/036869 Safari/537.36 MicroMessenger/6.3.27.880 NetType/WIFI Language/zh_CN'
p556
sg16
S'497ef74a9c75a754d1572a87e64bc0ed'
p557
sa(dp558
g2
S'47708'
p559
sg4
S'5934'
p560
sg6
S'c4c0a6a204d535761a4c01bcc47331e3'
p561
sg8
S'xxe08a8e9d71e6c14b4aaf83cf22d9f2c1'
p562
sg10
S'xx33da841852f262a0d8d976e467a70d31'
p563
sg12
S'xx22a6129d643a2911de30c1ba2300303e'
p564
sg14
S'Mozilla/5.0 (Linux; Android 5.0.2; Redmi Note 2 Build/LRX22G) AppleWebKit/537.36 (KHTML, like Gecko) Version/4.0 Chrome/37.0.0.0 Mobile MQQBrowser/6.8 TBS/036869 Safari/537.36 MicroMessenger/6.3.27.880 NetType/WIFI Language/zh_CN'
p565
sg16
S'497ef74a9c75a754d1572a87e64bc0ed'
p566
sa(dp567
g2
S'46082'
p568
sg4
S'6089'
p569
sg6
S'b6f412a08f7c92e1441560dc1997abb0'
p570
sg8
S'xxf67092dbe92e26b545c7e84de8d21581'
p571
sg10
S'xx029f581d3ccab28d8a91aae0b2c5c96f'
p572
sg12
S'xx22a6129d643a2911de30c1ba2300303e'
p573
sg14
S'Mozilla/5.0 (Linux; Android 5.0.2; Redmi Note 2 Build/LRX22G) AppleWebKit/537.36 (KHTML, like Gecko) Version/4.0 Chrome/37.0.0.0 Mobile Safari/537.36 MicroMessenger/6.3.27.880 NetType/WIFI Language/zh_CN'
p574
sg16
S'96fd4c8df72b81e5c0fd8cd12705eafa'
p575
sa(dp576
g2
S'49813'
p577
sg4
S'6322'
p578
sg6
S'9ca30f1e8dd1d7ea945b61c8cb5f8ec9'
p579
sg8
S'xxe08a8e9d71e6c14b4aaf83cf22d9f2c1'
p580
sg10
S'xx33da841852f262a0d8d976e467a70d31'
p581
sg12
S'xx22a6129d643a2911de30c1ba2300303e'
p582
sg14
S'Mozilla/5.0 (Linux; Android 5.0.2; Redmi Note 2 Build/LRX22G) AppleWebKit/537.36 (KHTML, like Gecko) Version/4.0 Chrome/37.0.0.0 Mobile MQQBrowser/6.8 TBS/036869 Safari/537.36 MicroMessenger/6.3.27.880 NetType/WIFI Language/zh_CN'
p583
sg16
S'497ef74a9c75a754d1572a87e64bc0ed'
p584
sa(dp585
g2
S'49813'
p586
sg4
S'6337'
p587
sg6
S'9ca30f1e8dd1d7ea945b61c8cb5f8ec9'
p588
sg8
S'xxe08a8e9d71e6c14b4aaf83cf22d9f2c1'
p589
sg10
S'xx33da841852f262a0d8d976e467a70d31'
p590
sg12
S'xx22a6129d643a2911de30c1ba2300303e'
p591
sg14
S'Mozilla/5.0 (Linux; Android 5.0.2; Redmi Note 2 Build/LRX22G) AppleWebKit/537.36 (KHTML, like Gecko) Version/4.0 Chrome/37.0.0.0 Mobile MQQBrowser/6.8 TBS/036869 Safari/537.36 MicroMessenger/6.3.27.880 NetType/WIFI Language/zh_CN'
p592
sg16
S'497ef74a9c75a754d1572a87e64bc0ed'
p593
sa(dp594
g2
S'49813'
p595
sg4
S'6350'
p596
sg6
S'9ca30f1e8dd1d7ea945b61c8cb5f8ec9'
p597
sg8
S'xxe08a8e9d71e6c14b4aaf83cf22d9f2c1'
p598
sg10
S'xx33da841852f262a0d8d976e467a70d31'
p599
sg12
S'xx22a6129d643a2911de30c1ba2300303e'
p600
sg14
S'Mozilla/5.0 (Linux; Android 5.0.2; Redmi Note 2 Build/LRX22G) AppleWebKit/537.36 (KHTML, like Gecko) Version/4.0 Chrome/37.0.0.0 Mobile MQQBrowser/6.8 TBS/036869 Safari/537.36 MicroMessenger/6.3.27.880 NetType/WIFI Language/zh_CN'
p601
sg16
S'497ef74a9c75a754d1572a87e64bc0ed'
p602
sa(dp603
g2
S'46395'
p604
sg4
S'6373'
p605
sg6
S'e7864f5e12451282a13b868c46224054'
p606
sg8
S'xx9de3993838f06e36d8e55a5136a2aba6'
p607
sg10
S'xx33da841852f262a0d8d976e467a70d31'
p608
sg12
S'xx22a6129d643a2911de30c1ba2300303e'
p609
sg14
S'Mozilla/5.0 (Linux; Android 5.0.2; Redmi Note 2 Build/LRX22G) AppleWebKit/537.36 (KHTML, like Gecko) Version/4.0 Chrome/37.0.0.0 Mobile MQQBrowser/6.8 TBS/036849 Safari/537.36 MicroMessenger/6.3.27.880 NetType/WIFI Language/zh_CN'
p610
sg16
S'105f70bfcaedb445b810821f29793d16'
p611
sa(dp612
g2
S'46395'
p613
sg4
S'6390'
p614
sg6
S'e7864f5e12451282a13b868c46224054'
p615
sg8
S'xx9de3993838f06e36d8e55a5136a2aba6'
p616
sg10
S'xx33da841852f262a0d8d976e467a70d31'
p617
sg12
S'xx22a6129d643a2911de30c1ba2300303e'
p618
sg14
S'Mozilla/5.0 (Linux; Android 5.0.2; Redmi Note 2 Build/LRX22G) AppleWebKit/537.36 (KHTML, like Gecko) Version/4.0 Chrome/37.0.0.0 Mobile MQQBrowser/6.8 TBS/036849 Safari/537.36 MicroMessenger/6.3.27.880 NetType/WIFI Language/zh_CN'
p619
sg16
S'105f70bfcaedb445b810821f29793d16'
p620
sa(dp621
g2
S'26032'
p622
sg4
S'6443'
p623
sg6
S'd7d1ed04b61f69c47dc358f380a24a8b'
p624
sg8
S'xx9de3993838f06e36d8e55a5136a2aba6'
p625
sg10
S'xx33da841852f262a0d8d976e467a70d31'
p626
sg12
S'xx22a6129d643a2911de30c1ba2300303e'
p627
sg14
S'Mozilla/5.0 (Linux; Android 5.0.2; Redmi Note 2 Build/LRX22G) AppleWebKit/537.36 (KHTML, like Gecko) Version/4.0 Chrome/37.0.0.0 Mobile MQQBrowser/6.8 TBS/036849 Safari/537.36 MicroMessenger/6.3.27.880 NetType/WIFI Language/zh_CN'
p628
sg16
S'105f70bfcaedb445b810821f29793d16'
p629
sa(dp630
g2
S'46395'
p631
sg4
S'6447'
p632
sg6
S'e7864f5e12451282a13b868c46224054'
p633
sg8
S'xx9de3993838f06e36d8e55a5136a2aba6'
p634
sg10
S'xx33da841852f262a0d8d976e467a70d31'
p635
sg12
S'xx22a6129d643a2911de30c1ba2300303e'
p636
sg14
S'Mozilla/5.0 (Linux; Android 5.0.2; Redmi Note 2 Build/LRX22G) AppleWebKit/537.36 (KHTML, like Gecko) Version/4.0 Chrome/37.0.0.0 Mobile MQQBrowser/6.8 TBS/036849 Safari/537.36 MicroMessenger/6.3.27.880 NetType/WIFI Language/zh_CN'
p637
sg16
S'105f70bfcaedb445b810821f29793d16'
p638
sa(dp639
g2
S'26032'
p640
sg4
S'6459'
p641
sg6
S'd7d1ed04b61f69c47dc358f380a24a8b'
p642
sg8
S'xx9de3993838f06e36d8e55a5136a2aba6'
p643
sg10
S'xx33da841852f262a0d8d976e467a70d31'
p644
sg12
S'xx22a6129d643a2911de30c1ba2300303e'
p645
sg14
S'Mozilla/5.0 (Linux; Android 5.0.2; Redmi Note 2 Build/LRX22G) AppleWebKit/537.36 (KHTML, like Gecko) Version/4.0 Chrome/37.0.0.0 Mobile MQQBrowser/6.8 TBS/036849 Safari/537.36 MicroMessenger/6.3.27.880 NetType/WIFI Language/zh_CN'
p646
sg16
S'105f70bfcaedb445b810821f29793d16'
p647
sa(dp648
g2
S'46395'
p649
sg4
S'6464'
p650
sg6
S'e7864f5e12451282a13b868c46224054'
p651
sg8
S'xx9de3993838f06e36d8e55a5136a2aba6'
p652
sg10
S'xx33da841852f262a0d8d976e467a70d31'
p653
sg12
S'xx22a6129d643a2911de30c1ba2300303e'
p654
sg14
S'Mozilla/5.0 (Linux; Android 5.0.2; Redmi Note 2 Build/LRX22G) AppleWebKit/537.36 (KHTML, like Gecko) Version/4.0 Chrome/37.0.0.0 Mobile MQQBrowser/6.8 TBS/036849 Safari/537.36 MicroMessenger/6.3.27.880 NetType/WIFI Language/zh_CN'
p655
sg16
S'105f70bfcaedb445b810821f29793d16'
p656
sa(dp657
g2
S'26032'
p658
sg4
S'6479'
p659
sg6
S'd7d1ed04b61f69c47dc358f380a24a8b'
p660
sg8
S'xx9de3993838f06e36d8e55a5136a2aba6'
p661
sg10
S'xx33da841852f262a0d8d976e467a70d31'
p662
sg12
S'xx22a6129d643a2911de30c1ba2300303e'
p663
sg14
S'Mozilla/5.0 (Linux; Android 5.0.2; Redmi Note 2 Build/LRX22G) AppleWebKit/537.36 (KHTML, like Gecko) Version/4.0 Chrome/37.0.0.0 Mobile MQQBrowser/6.8 TBS/036849 Safari/537.36 MicroMessenger/6.3.27.880 NetType/WIFI Language/zh_CN'
p664
sg16
S'105f70bfcaedb445b810821f29793d16'
p665
sa(dp666
g2
S'26032'
p667
sg4
S'6492'
p668
sg6
S'd7d1ed04b61f69c47dc358f380a24a8b'
p669
sg8
S'xx9de3993838f06e36d8e55a5136a2aba6'
p670
sg10
S'xx33da841852f262a0d8d976e467a70d31'
p671
sg12
S'xx22a6129d643a2911de30c1ba2300303e'
p672
sg14
S'Mozilla/5.0 (Linux; Android 5.0.2; Redmi Note 2 Build/LRX22G) AppleWebKit/537.36 (KHTML, like Gecko) Version/4.0 Chrome/37.0.0.0 Mobile MQQBrowser/6.8 TBS/036849 Safari/537.36 MicroMessenger/6.3.27.880 NetType/WIFI Language/zh_CN'
p673
sg16
S'105f70bfcaedb445b810821f29793d16'
p674
sa(dp675
g2
S'46395'
p676
sg4
S'6515'
p677
sg6
S'e7864f5e12451282a13b868c46224054'
p678
sg8
S'xx9de3993838f06e36d8e55a5136a2aba6'
p679
sg10
S'xx33da841852f262a0d8d976e467a70d31'
p680
sg12
S'xx22a6129d643a2911de30c1ba2300303e'
p681
sg14
S'Mozilla/5.0 (Linux; Android 5.0.2; Redmi Note 2 Build/LRX22G) AppleWebKit/537.36 (KHTML, like Gecko) Version/4.0 Chrome/37.0.0.0 Mobile MQQBrowser/6.8 TBS/036849 Safari/537.36 MicroMessenger/6.3.27.880 NetType/WIFI Language/zh_CN'
p682
sg16
S'105f70bfcaedb445b810821f29793d16'
p683
sa(dp684
g2
S'26032'
p685
sg4
S'6533'
p686
sg6
S'd7d1ed04b61f69c47dc358f380a24a8b'
p687
sg8
S'xx9de3993838f06e36d8e55a5136a2aba6'
p688
sg10
S'xx33da841852f262a0d8d976e467a70d31'
p689
sg12
S'xx22a6129d643a2911de30c1ba2300303e'
p690
sg14
S'Mozilla/5.0 (Linux; Android 5.0.2; Redmi Note 2 Build/LRX22G) AppleWebKit/537.36 (KHTML, like Gecko) Version/4.0 Chrome/37.0.0.0 Mobile MQQBrowser/6.8 TBS/036849 Safari/537.36 MicroMessenger/6.3.27.880 NetType/WIFI Language/zh_CN'
p691
sg16
S'105f70bfcaedb445b810821f29793d16'
p692
sa(dp693
g2
S'46395'
p694
sg4
S'6535'
p695
sg6
S'e7864f5e12451282a13b868c46224054'
p696
sg8
S'xx9de3993838f06e36d8e55a5136a2aba6'
p697
sg10
S'xx33da841852f262a0d8d976e467a70d31'
p698
sg12
S'xx22a6129d643a2911de30c1ba2300303e'
p699
sg14
S'Mozilla/5.0 (Linux; Android 5.0.2; Redmi Note 2 Build/LRX22G) AppleWebKit/537.36 (KHTML, like Gecko) Version/4.0 Chrome/37.0.0.0 Mobile MQQBrowser/6.8 TBS/036849 Safari/537.36 MicroMessenger/6.3.27.880 NetType/WIFI Language/zh_CN'
p700
sg16
S'105f70bfcaedb445b810821f29793d16'
p701
sa(dp702
g2
S'46395'
p703
sg4
S'6544'
p704
sg6
S'e7864f5e12451282a13b868c46224054'
p705
sg8
S'xx9de3993838f06e36d8e55a5136a2aba6'
p706
sg10
S'xx33da841852f262a0d8d976e467a70d31'
p707
sg12
S'xx22a6129d643a2911de30c1ba2300303e'
p708
sg14
S'Mozilla/5.0 (Linux; Android 5.0.2; Redmi Note 2 Build/LRX22G) AppleWebKit/537.36 (KHTML, like Gecko) Version/4.0 Chrome/37.0.0.0 Mobile MQQBrowser/6.8 TBS/036849 Safari/537.36 MicroMessenger/6.3.27.880 NetType/WIFI Language/zh_CN'
p709
sg16
S'105f70bfcaedb445b810821f29793d16'
p710
sa(dp711
g2
S'46395'
p712
sg4
S'6565'
p713
sg6
S'e7864f5e12451282a13b868c46224054'
p714
sg8
S'xx9de3993838f06e36d8e55a5136a2aba6'
p715
sg10
S'xx33da841852f262a0d8d976e467a70d31'
p716
sg12
S'xx22a6129d643a2911de30c1ba2300303e'
p717
sg14
S'Mozilla/5.0 (Linux; Android 5.0.2; Redmi Note 2 Build/LRX22G) AppleWebKit/537.36 (KHTML, like Gecko) Version/4.0 Chrome/37.0.0.0 Mobile MQQBrowser/6.8 TBS/036849 Safari/537.36 MicroMessenger/6.3.27.880 NetType/WIFI Language/zh_CN'
p718
sg16
S'105f70bfcaedb445b810821f29793d16'
p719
sa(dp720
g2
S'46395'
p721
sg4
S'6582'
p722
sg6
S'e7864f5e12451282a13b868c46224054'
p723
sg8
S'xx9de3993838f06e36d8e55a5136a2aba6'
p724
sg10
S'xx33da841852f262a0d8d976e467a70d31'
p725
sg12
S'xx22a6129d643a2911de30c1ba2300303e'
p726
sg14
S'Mozilla/5.0 (Linux; Android 5.0.2; Redmi Note 2 Build/LRX22G) AppleWebKit/537.36 (KHTML, like Gecko) Version/4.0 Chrome/37.0.0.0 Mobile MQQBrowser/6.8 TBS/036849 Safari/537.36 MicroMessenger/6.3.27.880 NetType/WIFI Language/zh_CN'
p727
sg16
S'105f70bfcaedb445b810821f29793d16'
p728
sa(dp729
g2
S'46395'
p730
sg4
S'6595'
p731
sg6
S'e7864f5e12451282a13b868c46224054'
p732
sg8
S'xx9de3993838f06e36d8e55a5136a2aba6'
p733
sg10
S'xx33da841852f262a0d8d976e467a70d31'
p734
sg12
S'xx22a6129d643a2911de30c1ba2300303e'
p735
sg14
S'Mozilla/5.0 (Linux; Android 5.0.2; Redmi Note 2 Build/LRX22G) AppleWebKit/537.36 (KHTML, like Gecko) Version/4.0 Chrome/37.0.0.0 Mobile MQQBrowser/6.8 TBS/036849 Safari/537.36 MicroMessenger/6.3.27.880 NetType/WIFI Language/zh_CN'
p736
sg16
S'105f70bfcaedb445b810821f29793d16'
p737
sa(dp738
g2
S'46395'
p739
sg4
S'6610'
p740
sg6
S'e7864f5e12451282a13b868c46224054'
p741
sg8
S'xx9de3993838f06e36d8e55a5136a2aba6'
p742
sg10
S'xx33da841852f262a0d8d976e467a70d31'
p743
sg12
S'xx22a6129d643a2911de30c1ba2300303e'
p744
sg14
S'Mozilla/5.0 (Linux; Android 5.0.2; Redmi Note 2 Build/LRX22G) AppleWebKit/537.36 (KHTML, like Gecko) Version/4.0 Chrome/37.0.0.0 Mobile MQQBrowser/6.8 TBS/036849 Safari/537.36 MicroMessenger/6.3.27.880 NetType/WIFI Language/zh_CN'
p745
sg16
S'105f70bfcaedb445b810821f29793d16'
p746
sa(dp747
g2
S'46395'
p748
sg4
S'6625'
p749
sg6
S'e7864f5e12451282a13b868c46224054'
p750
sg8
S'xx9de3993838f06e36d8e55a5136a2aba6'
p751
sg10
S'xx33da841852f262a0d8d976e467a70d31'
p752
sg12
S'xx22a6129d643a2911de30c1ba2300303e'
p753
sg14
S'Mozilla/5.0 (Linux; Android 5.0.2; Redmi Note 2 Build/LRX22G) AppleWebKit/537.36 (KHTML, like Gecko) Version/4.0 Chrome/37.0.0.0 Mobile MQQBrowser/6.8 TBS/036849 Safari/537.36 MicroMessenger/6.3.27.880 NetType/WIFI Language/zh_CN'
p754
sg16
S'105f70bfcaedb445b810821f29793d16'
p755
sa(dp756
g2
S'46395'
p757
sg4
S'6654'
p758
sg6
S'e7864f5e12451282a13b868c46224054'
p759
sg8
S'xx9de3993838f06e36d8e55a5136a2aba6'
p760
sg10
S'xx33da841852f262a0d8d976e467a70d31'
p761
sg12
S'xx22a6129d643a2911de30c1ba2300303e'
p762
sg14
S'Mozilla/5.0 (Linux; Android 5.0.2; Redmi Note 2 Build/LRX22G) AppleWebKit/537.36 (KHTML, like Gecko) Version/4.0 Chrome/37.0.0.0 Mobile MQQBrowser/6.8 TBS/036849 Safari/537.36 MicroMessenger/6.3.27.880 NetType/WIFI Language/zh_CN'
p763
sg16
S'105f70bfcaedb445b810821f29793d16'
p764
sa(dp765
g2
S'26032'
p766
sg4
S'6655'
p767
sg6
S'd7d1ed04b61f69c47dc358f380a24a8b'
p768
sg8
S'xx9de3993838f06e36d8e55a5136a2aba6'
p769
sg10
S'xx33da841852f262a0d8d976e467a70d31'
p770
sg12
S'xx22a6129d643a2911de30c1ba2300303e'
p771
sg14
S'Mozilla/5.0 (Linux; Android 5.0.2; Redmi Note 2 Build/LRX22G) AppleWebKit/537.36 (KHTML, like Gecko) Version/4.0 Chrome/37.0.0.0 Mobile MQQBrowser/6.8 TBS/036849 Safari/537.36 MicroMessenger/6.3.27.880 NetType/WIFI Language/zh_CN'
p772
sg16
S'105f70bfcaedb445b810821f29793d16'
p773
sa(dp774
g2
S'26032'
p775
sg4
S'7306'
p776
sg6
S'd7d1ed04b61f69c47dc358f380a24a8b'
p777
sg8
S'xx9de3993838f06e36d8e55a5136a2aba6'
p778
sg10
S'xx33da841852f262a0d8d976e467a70d31'
p779
sg12
S'xx22a6129d643a2911de30c1ba2300303e'
p780
sg14
S'Mozilla/5.0 (Linux; Android 5.0.2; Redmi Note 2 Build/LRX22G) AppleWebKit/537.36 (KHTML, like Gecko) Version/4.0 Chrome/37.0.0.0 Mobile MQQBrowser/6.8 TBS/036849 Safari/537.36 MicroMessenger/6.3.27.880 NetType/WIFI Language/zh_CN'
p781
sg16
S'105f70bfcaedb445b810821f29793d16'
p782
sa(dp783
g2
S'26032'
p784
sg4
S'7323'
p785
sg6
S'd7d1ed04b61f69c47dc358f380a24a8b'
p786
sg8
S'xx9de3993838f06e36d8e55a5136a2aba6'
p787
sg10
S'xx33da841852f262a0d8d976e467a70d31'
p788
sg12
S'xx22a6129d643a2911de30c1ba2300303e'
p789
sg14
S'Mozilla/5.0 (Linux; Android 5.0.2; Redmi Note 2 Build/LRX22G) AppleWebKit/537.36 (KHTML, like Gecko) Version/4.0 Chrome/37.0.0.0 Mobile MQQBrowser/6.8 TBS/036849 Safari/537.36 MicroMessenger/6.3.27.880 NetType/WIFI Language/zh_CN'
p790
sg16
S'105f70bfcaedb445b810821f29793d16'
p791
sa(dp792
g2
S'21986'
p793
sg4
S'7399'
p794
sg6
S'd89a497bab8d0f3c29d89ae19eb7e300'
p795
sg8
S'xx9de3993838f06e36d8e55a5136a2aba6'
p796
sg10
S'xx33da841852f262a0d8d976e467a70d31'
p797
sg12
S'xx22a6129d643a2911de30c1ba2300303e'
p798
sg14
S'Mozilla/5.0 (Linux; Android 5.0.2; Redmi Note 2 Build/LRX22G) AppleWebKit/537.36 (KHTML, like Gecko) Version/4.0 Chrome/37.0.0.0 Mobile MQQBrowser/6.8 TBS/036849 Safari/537.36 MicroMessenger/6.3.27.880 NetType/WIFI Language/zh_CN'
p799
sg16
S'105f70bfcaedb445b810821f29793d16'
p800
sa(dp801
g2
S'21986'
p802
sg4
S'7413'
p803
sg6
S'd89a497bab8d0f3c29d89ae19eb7e300'
p804
sg8
S'xx9de3993838f06e36d8e55a5136a2aba6'
p805
sg10
S'xx33da841852f262a0d8d976e467a70d31'
p806
sg12
S'xx22a6129d643a2911de30c1ba2300303e'
p807
sg14
S'Mozilla/5.0 (Linux; Android 5.0.2; Redmi Note 2 Build/LRX22G) AppleWebKit/537.36 (KHTML, like Gecko) Version/4.0 Chrome/37.0.0.0 Mobile MQQBrowser/6.8 TBS/036849 Safari/537.36 MicroMessenger/6.3.27.880 NetType/WIFI Language/zh_CN'
p808
sg16
S'105f70bfcaedb445b810821f29793d16'
p809
sa(dp810
g2
S'21986'
p811
sg4
S'7446'
p812
sg6
S'd89a497bab8d0f3c29d89ae19eb7e300'
p813
sg8
S'xx9de3993838f06e36d8e55a5136a2aba6'
p814
sg10
S'xx33da841852f262a0d8d976e467a70d31'
p815
sg12
S'xx22a6129d643a2911de30c1ba2300303e'
p816
sg14
S'Mozilla/5.0 (Linux; Android 5.0.2; Redmi Note 2 Build/LRX22G) AppleWebKit/537.36 (KHTML, like Gecko) Version/4.0 Chrome/37.0.0.0 Mobile MQQBrowser/6.8 TBS/036849 Safari/537.36 MicroMessenger/6.3.27.880 NetType/WIFI Language/zh_CN'
p817
sg16
S'105f70bfcaedb445b810821f29793d16'
p818
sa(dp819
g2
S'21986'
p820
sg4
S'7462'
p821
sg6
S'd89a497bab8d0f3c29d89ae19eb7e300'
p822
sg8
S'xx9de3993838f06e36d8e55a5136a2aba6'
p823
sg10
S'xx33da841852f262a0d8d976e467a70d31'
p824
sg12
S'xx22a6129d643a2911de30c1ba2300303e'
p825
sg14
S'Mozilla/5.0 (Linux; Android 5.0.2; Redmi Note 2 Build/LRX22G) AppleWebKit/537.36 (KHTML, like Gecko) Version/4.0 Chrome/37.0.0.0 Mobile MQQBrowser/6.8 TBS/036849 Safari/537.36 MicroMessenger/6.3.27.880 NetType/WIFI Language/zh_CN'
p826
sg16
S'105f70bfcaedb445b810821f29793d16'
p827
sa(dp828
g2
S'21986'
p829
sg4
S'7474'
p830
sg6
S'd89a497bab8d0f3c29d89ae19eb7e300'
p831
sg8
S'xx9de3993838f06e36d8e55a5136a2aba6'
p832
sg10
S'xx33da841852f262a0d8d976e467a70d31'
p833
sg12
S'xx22a6129d643a2911de30c1ba2300303e'
p834
sg14
S'Mozilla/5.0 (Linux; Android 5.0.2; Redmi Note 2 Build/LRX22G) AppleWebKit/537.36 (KHTML, like Gecko) Version/4.0 Chrome/37.0.0.0 Mobile MQQBrowser/6.8 TBS/036849 Safari/537.36 MicroMessenger/6.3.27.880 NetType/WIFI Language/zh_CN'
p835
sg16
S'105f70bfcaedb445b810821f29793d16'
p836
sa(dp837
g2
S'25171'
p838
sg4
S'7501'
p839
sg6
S'7470be4cdd895a5288c45b70e34cddc6'
p840
sg8
S'xx9de3993838f06e36d8e55a5136a2aba6'
p841
sg10
S'xx33da841852f262a0d8d976e467a70d31'
p842
sg12
S'xx22a6129d643a2911de30c1ba2300303e'
p843
sg14
S'Mozilla/5.0 (Linux; Android 5.0.2; Redmi Note 2 Build/LRX22G) AppleWebKit/537.36 (KHTML, like Gecko) Version/4.0 Chrome/37.0.0.0 Mobile MQQBrowser/6.8 TBS/036849 Safari/537.36 MicroMessenger/6.3.27.880 NetType/WIFI Language/zh_CN'
p844
sg16
S'105f70bfcaedb445b810821f29793d16'
p845
sa(dp846
g2
S'25171'
p847
sg4
S'7512'
p848
sg6
S'7470be4cdd895a5288c45b70e34cddc6'
p849
sg8
S'xx9de3993838f06e36d8e55a5136a2aba6'
p850
sg10
S'xx33da841852f262a0d8d976e467a70d31'
p851
sg12
S'xx22a6129d643a2911de30c1ba2300303e'
p852
sg14
S'Mozilla/5.0 (Linux; Android 5.0.2; Redmi Note 2 Build/LRX22G) AppleWebKit/537.36 (KHTML, like Gecko) Version/4.0 Chrome/37.0.0.0 Mobile MQQBrowser/6.8 TBS/036849 Safari/537.36 MicroMessenger/6.3.27.880 NetType/WIFI Language/zh_CN'
p853
sg16
S'105f70bfcaedb445b810821f29793d16'
p854
sa(dp855
g2
S'25171'
p856
sg4
S'7525'
p857
sg6
S'7470be4cdd895a5288c45b70e34cddc6'
p858
sg8
S'xx9de3993838f06e36d8e55a5136a2aba6'
p859
sg10
S'xx33da841852f262a0d8d976e467a70d31'
p860
sg12
S'xx22a6129d643a2911de30c1ba2300303e'
p861
sg14
S'Mozilla/5.0 (Linux; Android 5.0.2; Redmi Note 2 Build/LRX22G) AppleWebKit/537.36 (KHTML, like Gecko) Version/4.0 Chrome/37.0.0.0 Mobile MQQBrowser/6.8 TBS/036849 Safari/537.36 MicroMessenger/6.3.27.880 NetType/WIFI Language/zh_CN'
p862
sg16
S'105f70bfcaedb445b810821f29793d16'
p863
sa(dp864
g2
S'21986'
p865
sg4
S'7532'
p866
sg6
S'd89a497bab8d0f3c29d89ae19eb7e300'
p867
sg8
S'xx9de3993838f06e36d8e55a5136a2aba6'
p868
sg10
S'xx33da841852f262a0d8d976e467a70d31'
p869
sg12
S'xx22a6129d643a2911de30c1ba2300303e'
p870
sg14
S'Mozilla/5.0 (Linux; Android 5.0.2; Redmi Note 2 Build/LRX22G) AppleWebKit/537.36 (KHTML, like Gecko) Version/4.0 Chrome/37.0.0.0 Mobile MQQBrowser/6.8 TBS/036849 Safari/537.36 MicroMessenger/6.3.27.880 NetType/WIFI Language/zh_CN'
p871
sg16
S'105f70bfcaedb445b810821f29793d16'
p872
sa(dp873
g2
S'21986'
p874
sg4
S'7572'
p875
sg6
S'd89a497bab8d0f3c29d89ae19eb7e300'
p876
sg8
S'xx9de3993838f06e36d8e55a5136a2aba6'
p877
sg10
S'xx33da841852f262a0d8d976e467a70d31'
p878
sg12
S'xx22a6129d643a2911de30c1ba2300303e'
p879
sg14
S'Mozilla/5.0 (Linux; Android 5.0.2; Redmi Note 2 Build/LRX22G) AppleWebKit/537.36 (KHTML, like Gecko) Version/4.0 Chrome/37.0.0.0 Mobile MQQBrowser/6.8 TBS/036849 Safari/537.36 MicroMessenger/6.3.27.880 NetType/WIFI Language/zh_CN'
p880
sg16
S'105f70bfcaedb445b810821f29793d16'
p881
sa(dp882
g2
S'25171'
p883
sg4
S'7603'
p884
sg6
S'7470be4cdd895a5288c45b70e34cddc6'
p885
sg8
S'xx9de3993838f06e36d8e55a5136a2aba6'
p886
sg10
S'xx33da841852f262a0d8d976e467a70d31'
p887
sg12
S'xx22a6129d643a2911de30c1ba2300303e'
p888
sg14
S'Mozilla/5.0 (Linux; Android 5.0.2; Redmi Note 2 Build/LRX22G) AppleWebKit/537.36 (KHTML, like Gecko) Version/4.0 Chrome/37.0.0.0 Mobile MQQBrowser/6.8 TBS/036849 Safari/537.36 MicroMessenger/6.3.27.880 NetType/WIFI Language/zh_CN'
p889
sg16
S'105f70bfcaedb445b810821f29793d16'
p890
sa(dp891
g2
S'25171'
p892
sg4
S'7611'
p893
sg6
S'7470be4cdd895a5288c45b70e34cddc6'
p894
sg8
S'xx9de3993838f06e36d8e55a5136a2aba6'
p895
sg10
S'xx33da841852f262a0d8d976e467a70d31'
p896
sg12
S'xx22a6129d643a2911de30c1ba2300303e'
p897
sg14
S'Mozilla/5.0 (Linux; Android 5.0.2; Redmi Note 2 Build/LRX22G) AppleWebKit/537.36 (KHTML, like Gecko) Version/4.0 Chrome/37.0.0.0 Mobile MQQBrowser/6.8 TBS/036849 Safari/537.36 MicroMessenger/6.3.27.880 NetType/WIFI Language/zh_CN'
p898
sg16
S'105f70bfcaedb445b810821f29793d16'
p899
sa(dp900
g2
S'21986'
p901
sg4
S'7671'
p902
sg6
S'd89a497bab8d0f3c29d89ae19eb7e300'
p903
sg8
S'xx9de3993838f06e36d8e55a5136a2aba6'
p904
sg10
S'xx33da841852f262a0d8d976e467a70d31'
p905
sg12
S'xx22a6129d643a2911de30c1ba2300303e'
p906
sg14
S'Mozilla/5.0 (Linux; Android 5.0.2; Redmi Note 2 Build/LRX22G) AppleWebKit/537.36 (KHTML, like Gecko) Version/4.0 Chrome/37.0.0.0 Mobile MQQBrowser/6.8 TBS/036849 Safari/537.36 MicroMessenger/6.3.27.880 NetType/WIFI Language/zh_CN'
p907
sg16
S'105f70bfcaedb445b810821f29793d16'
p908
sa(dp909
g2
S'25171'
p910
sg4
S'7723'
p911
sg6
S'7470be4cdd895a5288c45b70e34cddc6'
p912
sg8
S'xx9de3993838f06e36d8e55a5136a2aba6'
p913
sg10
S'xx33da841852f262a0d8d976e467a70d31'
p914
sg12
S'xx22a6129d643a2911de30c1ba2300303e'
p915
sg14
S'Mozilla/5.0 (Linux; Android 5.0.2; Redmi Note 2 Build/LRX22G) AppleWebKit/537.36 (KHTML, like Gecko) Version/4.0 Chrome/37.0.0.0 Mobile MQQBrowser/6.8 TBS/036849 Safari/537.36 MicroMessenger/6.3.27.880 NetType/WIFI Language/zh_CN'
p916
sg16
S'105f70bfcaedb445b810821f29793d16'
p917
sa(dp918
g2
S'25171'
p919
sg4
S'7736'
p920
sg6
S'7470be4cdd895a5288c45b70e34cddc6'
p921
sg8
S'xx9de3993838f06e36d8e55a5136a2aba6'
p922
sg10
S'xx33da841852f262a0d8d976e467a70d31'
p923
sg12
S'xx22a6129d643a2911de30c1ba2300303e'
p924
sg14
S'Mozilla/5.0 (Linux; Android 5.0.2; Redmi Note 2 Build/LRX22G) AppleWebKit/537.36 (KHTML, like Gecko) Version/4.0 Chrome/37.0.0.0 Mobile MQQBrowser/6.8 TBS/036849 Safari/537.36 MicroMessenger/6.3.27.880 NetType/WIFI Language/zh_CN'
p925
sg16
S'105f70bfcaedb445b810821f29793d16'
p926
sa(dp927
g2
S'21986'
p928
sg4
S'7745'
p929
sg6
S'd89a497bab8d0f3c29d89ae19eb7e300'
p930
sg8
S'xx9de3993838f06e36d8e55a5136a2aba6'
p931
sg10
S'xx33da841852f262a0d8d976e467a70d31'
p932
sg12
S'xx22a6129d643a2911de30c1ba2300303e'
p933
sg14
S'Mozilla/5.0 (Linux; Android 5.0.2; Redmi Note 2 Build/LRX22G) AppleWebKit/537.36 (KHTML, like Gecko) Version/4.0 Chrome/37.0.0.0 Mobile MQQBrowser/6.8 TBS/036849 Safari/537.36 MicroMessenger/6.3.27.880 NetType/WIFI Language/zh_CN'
p934
sg16
S'105f70bfcaedb445b810821f29793d16'
p935
sa(dp936
g2
S'21986'
p937
sg4
S'7927'
p938
sg6
S'd89a497bab8d0f3c29d89ae19eb7e300'
p939
sg8
S'xx9de3993838f06e36d8e55a5136a2aba6'
p940
sg10
S'xx33da841852f262a0d8d976e467a70d31'
p941
sg12
S'xx22a6129d643a2911de30c1ba2300303e'
p942
sg14
S'Mozilla/5.0 (Linux; Android 5.0.2; Redmi Note 2 Build/LRX22G) AppleWebKit/537.36 (KHTML, like Gecko) Version/4.0 Chrome/37.0.0.0 Mobile MQQBrowser/6.8 TBS/036849 Safari/537.36 MicroMessenger/6.3.27.880 NetType/WIFI Language/zh_CN'
p943
sg16
S'105f70bfcaedb445b810821f29793d16'
p944
sa(dp945
g2
S'21986'
p946
sg4
S'7940'
p947
sg6
S'd89a497bab8d0f3c29d89ae19eb7e300'
p948
sg8
S'xx9de3993838f06e36d8e55a5136a2aba6'
p949
sg10
S'xx33da841852f262a0d8d976e467a70d31'
p950
sg12
S'xx22a6129d643a2911de30c1ba2300303e'
p951
sg14
S'Mozilla/5.0 (Linux; Android 5.0.2; Redmi Note 2 Build/LRX22G) AppleWebKit/537.36 (KHTML, like Gecko) Version/4.0 Chrome/37.0.0.0 Mobile MQQBrowser/6.8 TBS/036849 Safari/537.36 MicroMessenger/6.3.27.880 NetType/WIFI Language/zh_CN'
p952
sg16
S'105f70bfcaedb445b810821f29793d16'
p953
sa(dp954
g2
S'21986'
p955
sg4
S'7954'
p956
sg6
S'd89a497bab8d0f3c29d89ae19eb7e300'
p957
sg8
S'xx9de3993838f06e36d8e55a5136a2aba6'
p958
sg10
S'xx33da841852f262a0d8d976e467a70d31'
p959
sg12
S'xx22a6129d643a2911de30c1ba2300303e'
p960
sg14
S'Mozilla/5.0 (Linux; Android 5.0.2; Redmi Note 2 Build/LRX22G) AppleWebKit/537.36 (KHTML, like Gecko) Version/4.0 Chrome/37.0.0.0 Mobile MQQBrowser/6.8 TBS/036849 Safari/537.36 MicroMessenger/6.3.27.880 NetType/WIFI Language/zh_CN'
p961
sg16
S'105f70bfcaedb445b810821f29793d16'
p962
sa(dp963
g2
S'21986'
p964
sg4
S'7971'
p965
sg6
S'd89a497bab8d0f3c29d89ae19eb7e300'
p966
sg8
S'xx9de3993838f06e36d8e55a5136a2aba6'
p967
sg10
S'xx33da841852f262a0d8d976e467a70d31'
p968
sg12
S'xx22a6129d643a2911de30c1ba2300303e'
p969
sg14
S'Mozilla/5.0 (Linux; Android 5.0.2; Redmi Note 2 Build/LRX22G) AppleWebKit/537.36 (KHTML, like Gecko) Version/4.0 Chrome/37.0.0.0 Mobile MQQBrowser/6.8 TBS/036849 Safari/537.36 MicroMessenger/6.3.27.880 NetType/WIFI Language/zh_CN'
p970
sg16
S'105f70bfcaedb445b810821f29793d16'
p971
sa(dp972
g2
S'25171'
p973
sg4
S'7985'
p974
sg6
S'7470be4cdd895a5288c45b70e34cddc6'
p975
sg8
S'xx9de3993838f06e36d8e55a5136a2aba6'
p976
sg10
S'xx33da841852f262a0d8d976e467a70d31'
p977
sg12
S'xx22a6129d643a2911de30c1ba2300303e'
p978
sg14
S'Mozilla/5.0 (Linux; Android 5.0.2; Redmi Note 2 Build/LRX22G) AppleWebKit/537.36 (KHTML, like Gecko) Version/4.0 Chrome/37.0.0.0 Mobile MQQBrowser/6.8 TBS/036849 Safari/537.36 MicroMessenger/6.3.27.880 NetType/WIFI Language/zh_CN'
p979
sg16
S'105f70bfcaedb445b810821f29793d16'
p980
sa(dp981
g2
S'21986'
p982
sg4
S'7988'
p983
sg6
S'd89a497bab8d0f3c29d89ae19eb7e300'
p984
sg8
S'xx9de3993838f06e36d8e55a5136a2aba6'
p985
sg10
S'xx33da841852f262a0d8d976e467a70d31'
p986
sg12
S'xx22a6129d643a2911de30c1ba2300303e'
p987
sg14
S'Mozilla/5.0 (Linux; Android 5.0.2; Redmi Note 2 Build/LRX22G) AppleWebKit/537.36 (KHTML, like Gecko) Version/4.0 Chrome/37.0.0.0 Mobile MQQBrowser/6.8 TBS/036849 Safari/537.36 MicroMessenger/6.3.27.880 NetType/WIFI Language/zh_CN'
p988
sg16
S'105f70bfcaedb445b810821f29793d16'
p989
sa(dp990
g2
S'21986'
p991
sg4
S'8004'
p992
sg6
S'd89a497bab8d0f3c29d89ae19eb7e300'
p993
sg8
S'xx9de3993838f06e36d8e55a5136a2aba6'
p994
sg10
S'xx33da841852f262a0d8d976e467a70d31'
p995
sg12
S'xx22a6129d643a2911de30c1ba2300303e'
p996
sg14
S'Mozilla/5.0 (Linux; Android 5.0.2; Redmi Note 2 Build/LRX22G) AppleWebKit/537.36 (KHTML, like Gecko) Version/4.0 Chrome/37.0.0.0 Mobile MQQBrowser/6.8 TBS/036849 Safari/537.36 MicroMessenger/6.3.27.880 NetType/WIFI Language/zh_CN'
p997
sg16
S'105f70bfcaedb445b810821f29793d16'
p998
sa(dp999
g2
S'25171'
p1000
sg4
S'8014'
p1001
sg6
S'7470be4cdd895a5288c45b70e34cddc6'
p1002
sg8
S'xx9de3993838f06e36d8e55a5136a2aba6'
p1003
sg10
S'xx33da841852f262a0d8d976e467a70d31'
p1004
sg12
S'xx22a6129d643a2911de30c1ba2300303e'
p1005
sg14
S'Mozilla/5.0 (Linux; Android 5.0.2; Redmi Note 2 Build/LRX22G) AppleWebKit/537.36 (KHTML, like Gecko) Version/4.0 Chrome/37.0.0.0 Mobile MQQBrowser/6.8 TBS/036849 Safari/537.36 MicroMessenger/6.3.27.880 NetType/WIFI Language/zh_CN'
p1006
sg16
S'105f70bfcaedb445b810821f29793d16'
p1007
sa(dp1008
g2
S'21986'
p1009
sg4
S'8037'
p1010
sg6
S'd89a497bab8d0f3c29d89ae19eb7e300'
p1011
sg8
S'xx9de3993838f06e36d8e55a5136a2aba6'
p1012
sg10
S'xx33da841852f262a0d8d976e467a70d31'
p1013
sg12
S'xx22a6129d643a2911de30c1ba2300303e'
p1014
sg14
S'Mozilla/5.0 (Linux; Android 5.0.2; Redmi Note 2 Build/LRX22G) AppleWebKit/537.36 (KHTML, like Gecko) Version/4.0 Chrome/37.0.0.0 Mobile MQQBrowser/6.8 TBS/036849 Safari/537.36 MicroMessenger/6.3.27.880 NetType/WIFI Language/zh_CN'
p1015
sg16
S'105f70bfcaedb445b810821f29793d16'
p1016
sa(dp1017
g2
S'30105'
p1018
sg4
S'8038'
p1019
sg6
S'f7569616c9cabfcda10b9a4d51694372'
p1020
sg8
S'xxe08a8e9d71e6c14b4aaf83cf22d9f2c1'
p1021
sg10
S'xx33da841852f262a0d8d976e467a70d31'
p1022
sg12
S'xx22a6129d643a2911de30c1ba2300303e'
p1023
sg14
S'Mozilla/5.0 (Linux; Android 5.0.2; Redmi Note 2 Build/LRX22G) AppleWebKit/537.36 (KHTML, like Gecko) Version/4.0 Chrome/37.0.0.0 Mobile MQQBrowser/6.8 TBS/036869 Safari/537.36 MicroMessenger/6.3.27.880 NetType/WIFI Language/zh_CN'
p1024
sg16
S'497ef74a9c75a754d1572a87e64bc0ed'
p1025
sa(dp1026
g2
S'30105'
p1027
sg4
S'8053'
p1028
sg6
S'f7569616c9cabfcda10b9a4d51694372'
p1029
sg8
S'xxe08a8e9d71e6c14b4aaf83cf22d9f2c1'
p1030
sg10
S'xx33da841852f262a0d8d976e467a70d31'
p1031
sg12
S'xx22a6129d643a2911de30c1ba2300303e'
p1032
sg14
S'Mozilla/5.0 (Linux; Android 5.0.2; Redmi Note 2 Build/LRX22G) AppleWebKit/537.36 (KHTML, like Gecko) Version/4.0 Chrome/37.0.0.0 Mobile MQQBrowser/6.8 TBS/036869 Safari/537.36 MicroMessenger/6.3.27.880 NetType/WIFI Language/zh_CN'
p1033
sg16
S'497ef74a9c75a754d1572a87e64bc0ed'
p1034
sa(dp1035
g2
S'21986'
p1036
sg4
S'8116'
p1037
sg6
S'd89a497bab8d0f3c29d89ae19eb7e300'
p1038
sg8
S'xx9de3993838f06e36d8e55a5136a2aba6'
p1039
sg10
S'xx33da841852f262a0d8d976e467a70d31'
p1040
sg12
S'xx22a6129d643a2911de30c1ba2300303e'
p1041
sg14
S'Mozilla/5.0 (Linux; Android 5.0.2; Redmi Note 2 Build/LRX22G) AppleWebKit/537.36 (KHTML, like Gecko) Version/4.0 Chrome/37.0.0.0 Mobile MQQBrowser/6.8 TBS/036849 Safari/537.36 MicroMessenger/6.3.27.880 NetType/WIFI Language/zh_CN'
p1042
sg16
S'105f70bfcaedb445b810821f29793d16'
p1043
sa(dp1044
g2
S'21986'
p1045
sg4
S'8166'
p1046
sg6
S'd89a497bab8d0f3c29d89ae19eb7e300'
p1047
sg8
S'xx9de3993838f06e36d8e55a5136a2aba6'
p1048
sg10
S'xx33da841852f262a0d8d976e467a70d31'
p1049
sg12
S'xx22a6129d643a2911de30c1ba2300303e'
p1050
sg14
S'Mozilla/5.0 (Linux; Android 5.0.2; Redmi Note 2 Build/LRX22G) AppleWebKit/537.36 (KHTML, like Gecko) Version/4.0 Chrome/37.0.0.0 Mobile MQQBrowser/6.8 TBS/036849 Safari/537.36 MicroMessenger/6.3.27.880 NetType/WIFI Language/zh_CN'
p1051
sg16
S'105f70bfcaedb445b810821f29793d16'
p1052
sa(dp1053
g2
S'21986'
p1054
sg4
S'8245'
p1055
sg6
S'd89a497bab8d0f3c29d89ae19eb7e300'
p1056
sg8
S'xx9de3993838f06e36d8e55a5136a2aba6'
p1057
sg10
S'xx33da841852f262a0d8d976e467a70d31'
p1058
sg12
S'xx22a6129d643a2911de30c1ba2300303e'
p1059
sg14
S'Mozilla/5.0 (Linux; Android 5.0.2; Redmi Note 2 Build/LRX22G) AppleWebKit/537.36 (KHTML, like Gecko) Version/4.0 Chrome/37.0.0.0 Mobile MQQBrowser/6.8 TBS/036849 Safari/537.36 MicroMessenger/6.3.27.880 NetType/WIFI Language/zh_CN'
p1060
sg16
S'105f70bfcaedb445b810821f29793d16'
p1061
sa(dp1062
g2
S'21986'
p1063
sg4
S'8329'
p1064
sg6
S'd89a497bab8d0f3c29d89ae19eb7e300'
p1065
sg8
S'xx9de3993838f06e36d8e55a5136a2aba6'
p1066
sg10
S'xx33da841852f262a0d8d976e467a70d31'
p1067
sg12
S'xx22a6129d643a2911de30c1ba2300303e'
p1068
sg14
S'Mozilla/5.0 (Linux; Android 5.0.2; Redmi Note 2 Build/LRX22G) AppleWebKit/537.36 (KHTML, like Gecko) Version/4.0 Chrome/37.0.0.0 Mobile MQQBrowser/6.8 TBS/036849 Safari/537.36 MicroMessenger/6.3.27.880 NetType/WIFI Language/zh_CN'
p1069
sg16
S'105f70bfcaedb445b810821f29793d16'
p1070
sa(dp1071
g2
S'25171'
p1072
sg4
S'8371'
p1073
sg6
S'7470be4cdd895a5288c45b70e34cddc6'
p1074
sg8
S'xx9de3993838f06e36d8e55a5136a2aba6'
p1075
sg10
S'xx33da841852f262a0d8d976e467a70d31'
p1076
sg12
S'xx22a6129d643a2911de30c1ba2300303e'
p1077
sg14
S'Mozilla/5.0 (Linux; Android 5.0.2; Redmi Note 2 Build/LRX22G) AppleWebKit/537.36 (KHTML, like Gecko) Version/4.0 Chrome/37.0.0.0 Mobile MQQBrowser/6.8 TBS/036849 Safari/537.36 MicroMessenger/6.3.27.880 NetType/WIFI Language/zh_CN'
p1078
sg16
S'105f70bfcaedb445b810821f29793d16'
p1079
sa(dp1080
g2
S'25171'
p1081
sg4
S'8401'
p1082
sg6
S'7470be4cdd895a5288c45b70e34cddc6'
p1083
sg8
S'xx9de3993838f06e36d8e55a5136a2aba6'
p1084
sg10
S'xx33da841852f262a0d8d976e467a70d31'
p1085
sg12
S'xx22a6129d643a2911de30c1ba2300303e'
p1086
sg14
S'Mozilla/5.0 (Linux; Android 5.0.2; Redmi Note 2 Build/LRX22G) AppleWebKit/537.36 (KHTML, like Gecko) Version/4.0 Chrome/37.0.0.0 Mobile MQQBrowser/6.8 TBS/036849 Safari/537.36 MicroMessenger/6.3.27.880 NetType/WIFI Language/zh_CN'
p1087
sg16
S'105f70bfcaedb445b810821f29793d16'
p1088
sa(dp1089
g2
S'25171'
p1090
sg4
S'8413'
p1091
sg6
S'7470be4cdd895a5288c45b70e34cddc6'
p1092
sg8
S'xx9de3993838f06e36d8e55a5136a2aba6'
p1093
sg10
S'xx33da841852f262a0d8d976e467a70d31'
p1094
sg12
S'xx22a6129d643a2911de30c1ba2300303e'
p1095
sg14
S'Mozilla/5.0 (Linux; Android 5.0.2; Redmi Note 2 Build/LRX22G) AppleWebKit/537.36 (KHTML, like Gecko) Version/4.0 Chrome/37.0.0.0 Mobile MQQBrowser/6.8 TBS/036849 Safari/537.36 MicroMessenger/6.3.27.880 NetType/WIFI Language/zh_CN'
p1096
sg16
S'105f70bfcaedb445b810821f29793d16'
p1097
sa(dp1098
g2
S'21986'
p1099
sg4
S'8438'
p1100
sg6
S'd89a497bab8d0f3c29d89ae19eb7e300'
p1101
sg8
S'xx9de3993838f06e36d8e55a5136a2aba6'
p1102
sg10
S'xx33da841852f262a0d8d976e467a70d31'
p1103
sg12
S'xx22a6129d643a2911de30c1ba2300303e'
p1104
sg14
S'Mozilla/5.0 (Linux; Android 5.0.2; Redmi Note 2 Build/LRX22G) AppleWebKit/537.36 (KHTML, like Gecko) Version/4.0 Chrome/37.0.0.0 Mobile MQQBrowser/6.8 TBS/036849 Safari/537.36 MicroMessenger/6.3.27.880 NetType/WIFI Language/zh_CN'
p1105
sg16
S'105f70bfcaedb445b810821f29793d16'
p1106
sa(dp1107
g2
S'21986'
p1108
sg4
S'8513'
p1109
sg6
S'd89a497bab8d0f3c29d89ae19eb7e300'
p1110
sg8
S'xx9de3993838f06e36d8e55a5136a2aba6'
p1111
sg10
S'xx33da841852f262a0d8d976e467a70d31'
p1112
sg12
S'xx22a6129d643a2911de30c1ba2300303e'
p1113
sg14
S'Mozilla/5.0 (Linux; Android 5.0.2; Redmi Note 2 Build/LRX22G) AppleWebKit/537.36 (KHTML, like Gecko) Version/4.0 Chrome/37.0.0.0 Mobile MQQBrowser/6.8 TBS/036849 Safari/537.36 MicroMessenger/6.3.27.880 NetType/WIFI Language/zh_CN'
p1114
sg16
S'105f70bfcaedb445b810821f29793d16'
p1115
sa(dp1116
g2
S'25171'
p1117
sg4
S'8582'
p1118
sg6
S'7470be4cdd895a5288c45b70e34cddc6'
p1119
sg8
S'xx9de3993838f06e36d8e55a5136a2aba6'
p1120
sg10
S'xx33da841852f262a0d8d976e467a70d31'
p1121
sg12
S'xx22a6129d643a2911de30c1ba2300303e'
p1122
sg14
S'Mozilla/5.0 (Linux; Android 5.0.2; Redmi Note 2 Build/LRX22G) AppleWebKit/537.36 (KHTML, like Gecko) Version/4.0 Chrome/37.0.0.0 Mobile MQQBrowser/6.8 TBS/036849 Safari/537.36 MicroMessenger/6.3.27.880 NetType/WIFI Language/zh_CN'
p1123
sg16
S'105f70bfcaedb445b810821f29793d16'
p1124
sa(dp1125
g2
S'26660'
p1126
sg4
S'8789'
p1127
sg6
S'7470be4cdd895a5288c45b70e34cddc6'
p1128
sg8
S'xx9de3993838f06e36d8e55a5136a2aba6'
p1129
sg10
S'xx33da841852f262a0d8d976e467a70d31'
p1130
sg12
S'xx22a6129d643a2911de30c1ba2300303e'
p1131
sg14
S'Mozilla/5.0 (Linux; Android 5.0.2; Redmi Note 2 Build/LRX22G) AppleWebKit/537.36 (KHTML, like Gecko) Version/4.0 Chrome/37.0.0.0 Mobile MQQBrowser/6.8 TBS/036849 Safari/537.36 MicroMessenger/6.3.27.880 NetType/WIFI Language/zh_CN'
p1132
sg16
S'105f70bfcaedb445b810821f29793d16'
p1133
sa.