(lp0
(dp1
S'user_id'
p2
S'36228'
p3
sS'data_id'
p4
S'6253'
p5
sS'ip'
p6
S'031fa0c2a5151c69be2ddcd87198bd1f'
p7
sS'phone_B'
p8
S'xxe89f49e44c915f1aa5c2d3ac44ba2ae0'
p9
sS'phone_C'
p10
S'xxa1eddb067d69156b5a420a68e90e67cd'
p11
sS'phone_A'
p12
S'xx228e82651ef17ddbcabb7ff769d44779'
p13
sS'user_agent'
p14
S'Mozilla/5.0 (Linux; Android 4.4.2; TCL P728M Build/KOT49H) AppleWebKit/537.36 (KHTML, like Gecko) Version/4.0 Chrome/37.0.0.0 Mobile MQQBrowser/6.8 TBS/036824 Safari/537.36 MicroMessenger/6.3.27.880 NetType/WIFI Language/zh_CN'
p15
sS'ua'
p16
S'1ee52748a9df7bbae67c35ccc2fff044'
p17
sa(dp18
g2
S'36228'
p19
sg4
S'6264'
p20
sg6
S'031fa0c2a5151c69be2ddcd87198bd1f'
p21
sg8
S'xxe89f49e44c915f1aa5c2d3ac44ba2ae0'
p22
sg10
S'xxa1eddb067d69156b5a420a68e90e67cd'
p23
sg12
S'xx228e82651ef17ddbcabb7ff769d44779'
p24
sg14
S'Mozilla/5.0 (Linux; Android 4.4.2; TCL P728M Build/KOT49H) AppleWebKit/537.36 (KHTML, like Gecko) Version/4.0 Chrome/37.0.0.0 Mobile MQQBrowser/6.8 TBS/036824 Safari/537.36 MicroMessenger/6.3.27.880 NetType/WIFI Language/zh_CN'
p25
sg16
S'1ee52748a9df7bbae67c35ccc2fff044'
p26
sa.