(lp0
(dp1
S'user_id'
p2
S'24871'
p3
sS'data_id'
p4
S'670'
p5
sS'ip'
p6
S'699a9570432b9430ebb13c5ee5d4cf8d'
p7
sS'phone_B'
p8
S'xx02a2fa90c7f826e15443c589c3537268'
p9
sS'phone_C'
p10
S'xx67556e4c6ea78f216639210feedb429c'
p11
sS'phone_A'
p12
S'xx22aa37a4f9be4fb429c7f885dc505bd8'
p13
sS'user_agent'
p14
S'Mozilla/5.0 (Linux; Android 5.1; M3s Build/LMY47I) AppleWebKit/537.36 (KHTML, like Gecko) Version/4.0 Chrome/37.0.0.0 Mobile MQQBrowser/6.8 TBS/036865 Safari/537.36 MicroMessenger/6.3.27.880 NetType/WIFI Language/zh_CN'
p15
sS'ua'
p16
S'667d2f9d31c801ec137577ca9af47c13'
p17
sa(dp18
g2
S'24871'
p19
sg4
S'683'
p20
sg6
S'699a9570432b9430ebb13c5ee5d4cf8d'
p21
sg8
S'xx02a2fa90c7f826e15443c589c3537268'
p22
sg10
S'xx67556e4c6ea78f216639210feedb429c'
p23
sg12
S'xx22aa37a4f9be4fb429c7f885dc505bd8'
p24
sg14
S'Mozilla/5.0 (Linux; Android 5.1; M3s Build/LMY47I) AppleWebKit/537.36 (KHTML, like Gecko) Version/4.0 Chrome/37.0.0.0 Mobile MQQBrowser/6.8 TBS/036865 Safari/537.36 MicroMessenger/6.3.27.880 NetType/WIFI Language/zh_CN'
p25
sg16
S'667d2f9d31c801ec137577ca9af47c13'
p26
sa.