(lp0
(dp1
S'user_id'
p2
S'38377'
p3
sS'data_id'
p4
S'1202'
p5
sS'ip'
p6
S'6713efd9151e3a6e09b763363ee0a432'
p7
sS'phone_B'
p8
S'xxfbc503848559631b8620938964dceedc'
p9
sS'phone_C'
p10
S'xxa6d6c8e9e0447e2601cc502360739b8e'
p11
sS'phone_A'
p12
S'xx23e681d3394bf60deb337520398a2adc'
p13
sS'user_agent'
p14
S'Mozilla/5.0 (Linux; Android 5.1.1; SCL-TL00H Build/HonorSCL-TL00H) AppleWebKit/537.36 (KHTML, like Gecko) Version/4.0 Chrome/37.0.0.0 Mobile MQQBrowser/6.8 TBS/036849 Safari/537.36 MicroMessenger/6.3.27.880 NetType/WIFI Language/zh_CN'
p15
sS'ua'
p16
S'137670ead1f507610507ff539630326e'
p17
sa(dp18
g2
S'38377'
p19
sg4
S'1218'
p20
sg6
S'6713efd9151e3a6e09b763363ee0a432'
p21
sg8
S'xxfbc503848559631b8620938964dceedc'
p22
sg10
S'xxa6d6c8e9e0447e2601cc502360739b8e'
p23
sg12
S'xx23e681d3394bf60deb337520398a2adc'
p24
sg14
S'Mozilla/5.0 (Linux; Android 5.1.1; SCL-TL00H Build/HonorSCL-TL00H) AppleWebKit/537.36 (KHTML, like Gecko) Version/4.0 Chrome/37.0.0.0 Mobile MQQBrowser/6.8 TBS/036849 Safari/537.36 MicroMessenger/6.3.27.880 NetType/WIFI Language/zh_CN'
p25
sg16
S'137670ead1f507610507ff539630326e'
p26
sa(dp27
g2
S'38377'
p28
sg4
S'1234'
p29
sg6
S'6713efd9151e3a6e09b763363ee0a432'
p30
sg8
S'xxfbc503848559631b8620938964dceedc'
p31
sg10
S'xxa6d6c8e9e0447e2601cc502360739b8e'
p32
sg12
S'xx23e681d3394bf60deb337520398a2adc'
p33
sg14
S'Mozilla/5.0 (Linux; Android 5.1.1; SCL-TL00H Build/HonorSCL-TL00H) AppleWebKit/537.36 (KHTML, like Gecko) Version/4.0 Chrome/37.0.0.0 Mobile MQQBrowser/6.8 TBS/036849 Safari/537.36 MicroMessenger/6.3.27.880 NetType/WIFI Language/zh_CN'
p34
sg16
S'137670ead1f507610507ff539630326e'
p35
sa(dp36
g2
S'21391'
p37
sg4
S'1683'
p38
sg6
S'11ab56f83cd59e236be74abf1fa0502f'
p39
sg8
S'xx4c2baf55d7c32070e8a6070ef9e9cab6'
p40
sg10
S'xxa6d6c8e9e0447e2601cc502360739b8e'
p41
sg12
S'xx23e681d3394bf60deb337520398a2adc'
p42
sg14
S'Mozilla/5.0 (Linux; Android 5.1.1; SCL-TL00H Build/HonorSCL-TL00H) AppleWebKit/537.36 (KHTML, like Gecko) Version/4.0 Chrome/37.0.0.0 Mobile MQQBrowser/6.8 TBS/036849 Safari/537.36 MicroMessenger/6.3.27.880 NetType/cmnet Language/zh_CN'
p43
sg16
S'051e274552681a180c23fee6e61c2709'
p44
sa(dp45
g2
S'21391'
p46
sg4
S'1693'
p47
sg6
S'11ab56f83cd59e236be74abf1fa0502f'
p48
sg8
S'xx4c2baf55d7c32070e8a6070ef9e9cab6'
p49
sg10
S'xxa6d6c8e9e0447e2601cc502360739b8e'
p50
sg12
S'xx23e681d3394bf60deb337520398a2adc'
p51
sg14
S'Mozilla/5.0 (Linux; Android 5.1.1; SCL-TL00H Build/HonorSCL-TL00H) AppleWebKit/537.36 (KHTML, like Gecko) Version/4.0 Chrome/37.0.0.0 Mobile MQQBrowser/6.8 TBS/036849 Safari/537.36 MicroMessenger/6.3.27.880 NetType/cmnet Language/zh_CN'
p52
sg16
S'051e274552681a180c23fee6e61c2709'
p53
sa(dp54
g2
S'21391'
p55
sg4
S'2038'
p56
sg6
S'11ab56f83cd59e236be74abf1fa0502f'
p57
sg8
S'xx4c2baf55d7c32070e8a6070ef9e9cab6'
p58
sg10
S'xxa6d6c8e9e0447e2601cc502360739b8e'
p59
sg12
S'xx23e681d3394bf60deb337520398a2adc'
p60
sg14
S'Mozilla/5.0 (Linux; Android 5.1.1; SCL-TL00H Build/HonorSCL-TL00H) AppleWebKit/537.36 (KHTML, like Gecko) Version/4.0 Chrome/37.0.0.0 Mobile MQQBrowser/6.8 TBS/036849 Safari/537.36 MicroMessenger/6.3.27.880 NetType/cmnet Language/zh_CN'
p61
sg16
S'051e274552681a180c23fee6e61c2709'
p62
sa(dp63
g2
S'21391'
p64
sg4
S'2051'
p65
sg6
S'11ab56f83cd59e236be74abf1fa0502f'
p66
sg8
S'xx4c2baf55d7c32070e8a6070ef9e9cab6'
p67
sg10
S'xxa6d6c8e9e0447e2601cc502360739b8e'
p68
sg12
S'xx23e681d3394bf60deb337520398a2adc'
p69
sg14
S'Mozilla/5.0 (Linux; Android 5.1.1; SCL-TL00H Build/HonorSCL-TL00H) AppleWebKit/537.36 (KHTML, like Gecko) Version/4.0 Chrome/37.0.0.0 Mobile MQQBrowser/6.8 TBS/036849 Safari/537.36 MicroMessenger/6.3.27.880 NetType/cmnet Language/zh_CN'
p70
sg16
S'051e274552681a180c23fee6e61c2709'
p71
sa(dp72
g2
S'21391'
p73
sg4
S'2060'
p74
sg6
S'11ab56f83cd59e236be74abf1fa0502f'
p75
sg8
S'xx4c2baf55d7c32070e8a6070ef9e9cab6'
p76
sg10
S'xxa6d6c8e9e0447e2601cc502360739b8e'
p77
sg12
S'xx23e681d3394bf60deb337520398a2adc'
p78
sg14
S'Mozilla/5.0 (Linux; Android 5.1.1; SCL-TL00H Build/HonorSCL-TL00H) AppleWebKit/537.36 (KHTML, like Gecko) Version/4.0 Chrome/37.0.0.0 Mobile MQQBrowser/6.8 TBS/036849 Safari/537.36 MicroMessenger/6.3.27.880 NetType/cmnet Language/zh_CN'
p79
sg16
S'051e274552681a180c23fee6e61c2709'
p80
sa(dp81
g2
S'21391'
p82
sg4
S'2074'
p83
sg6
S'11ab56f83cd59e236be74abf1fa0502f'
p84
sg8
S'xx4c2baf55d7c32070e8a6070ef9e9cab6'
p85
sg10
S'xxa6d6c8e9e0447e2601cc502360739b8e'
p86
sg12
S'xx23e681d3394bf60deb337520398a2adc'
p87
sg14
S'Mozilla/5.0 (Linux; Android 5.1.1; SCL-TL00H Build/HonorSCL-TL00H) AppleWebKit/537.36 (KHTML, like Gecko) Version/4.0 Chrome/37.0.0.0 Mobile MQQBrowser/6.8 TBS/036849 Safari/537.36 MicroMessenger/6.3.27.880 NetType/cmnet Language/zh_CN'
p88
sg16
S'051e274552681a180c23fee6e61c2709'
p89
sa(dp90
g2
S'21391'
p91
sg4
S'2087'
p92
sg6
S'11ab56f83cd59e236be74abf1fa0502f'
p93
sg8
S'xx4c2baf55d7c32070e8a6070ef9e9cab6'
p94
sg10
S'xxa6d6c8e9e0447e2601cc502360739b8e'
p95
sg12
S'xx23e681d3394bf60deb337520398a2adc'
p96
sg14
S'Mozilla/5.0 (Linux; Android 5.1.1; SCL-TL00H Build/HonorSCL-TL00H) AppleWebKit/537.36 (KHTML, like Gecko) Version/4.0 Chrome/37.0.0.0 Mobile MQQBrowser/6.8 TBS/036849 Safari/537.36 MicroMessenger/6.3.27.880 NetType/cmnet Language/zh_CN'
p97
sg16
S'051e274552681a180c23fee6e61c2709'
p98
sa(dp99
g2
S'21391'
p100
sg4
S'2112'
p101
sg6
S'11ab56f83cd59e236be74abf1fa0502f'
p102
sg8
S'xx4c2baf55d7c32070e8a6070ef9e9cab6'
p103
sg10
S'xxa6d6c8e9e0447e2601cc502360739b8e'
p104
sg12
S'xx23e681d3394bf60deb337520398a2adc'
p105
sg14
S'Mozilla/5.0 (Linux; Android 5.1.1; SCL-TL00H Build/HonorSCL-TL00H) AppleWebKit/537.36 (KHTML, like Gecko) Version/4.0 Chrome/37.0.0.0 Mobile MQQBrowser/6.8 TBS/036849 Safari/537.36 MicroMessenger/6.3.27.880 NetType/cmnet Language/zh_CN'
p106
sg16
S'051e274552681a180c23fee6e61c2709'
p107
sa(dp108
g2
S'21391'
p109
sg4
S'2130'
p110
sg6
S'11ab56f83cd59e236be74abf1fa0502f'
p111
sg8
S'xx4c2baf55d7c32070e8a6070ef9e9cab6'
p112
sg10
S'xxa6d6c8e9e0447e2601cc502360739b8e'
p113
sg12
S'xx23e681d3394bf60deb337520398a2adc'
p114
sg14
S'Mozilla/5.0 (Linux; Android 5.1.1; SCL-TL00H Build/HonorSCL-TL00H) AppleWebKit/537.36 (KHTML, like Gecko) Version/4.0 Chrome/37.0.0.0 Mobile MQQBrowser/6.8 TBS/036849 Safari/537.36 MicroMessenger/6.3.27.880 NetType/cmnet Language/zh_CN'
p115
sg16
S'051e274552681a180c23fee6e61c2709'
p116
sa(dp117
g2
S'21391'
p118
sg4
S'2139'
p119
sg6
S'11ab56f83cd59e236be74abf1fa0502f'
p120
sg8
S'xx4c2baf55d7c32070e8a6070ef9e9cab6'
p121
sg10
S'xxa6d6c8e9e0447e2601cc502360739b8e'
p122
sg12
S'xx23e681d3394bf60deb337520398a2adc'
p123
sg14
S'Mozilla/5.0 (Linux; Android 5.1.1; SCL-TL00H Build/HonorSCL-TL00H) AppleWebKit/537.36 (KHTML, like Gecko) Version/4.0 Chrome/37.0.0.0 Mobile MQQBrowser/6.8 TBS/036849 Safari/537.36 MicroMessenger/6.3.27.880 NetType/cmnet Language/zh_CN'
p124
sg16
S'051e274552681a180c23fee6e61c2709'
p125
sa.