(lp0
(dp1
S'user_id'
p2
S'49821'
p3
sS'data_id'
p4
S'6853'
p5
sS'ip'
p6
S'9f923ca3323e5a4fc0c2843ff39078d1'
p7
sS'phone_B'
p8
S'xx6725bb2c0e40fb1856d2cf4e2e835ea4'
p9
sS'phone_C'
p10
S'xxb97f9323cbd03196520282f9ff0004e2'
p11
sS'phone_A'
p12
S'xx23ec4356546d094c5bff42f6f8031f3a'
p13
sS'user_agent'
p14
S'Mozilla/5.0 (Linux; Android 6.0; HUAWEI VNS-TL00 Build/HUAWEIVNS-TL00) AppleWebKit/537.36 (KHTML, like Gecko) Version/4.0 Chrome/37.0.0.0 Mobile MQQBrowser/6.8 TBS/036849 Safari/537.36 MicroMessenger/6.3.27.880 NetType/cmnet Language/zh_CN'
p15
sS'ua'
p16
S'd395871540ba25f1d91b7eedd21e52f3'
p17
sa(dp18
g2
S'49821'
p19
sg4
S'6868'
p20
sg6
S'9f923ca3323e5a4fc0c2843ff39078d1'
p21
sg8
S'xx6725bb2c0e40fb1856d2cf4e2e835ea4'
p22
sg10
S'xxb97f9323cbd03196520282f9ff0004e2'
p23
sg12
S'xx23ec4356546d094c5bff42f6f8031f3a'
p24
sg14
S'Mozilla/5.0 (Linux; Android 6.0; HUAWEI VNS-TL00 Build/HUAWEIVNS-TL00) AppleWebKit/537.36 (KHTML, like Gecko) Version/4.0 Chrome/37.0.0.0 Mobile MQQBrowser/6.8 TBS/036849 Safari/537.36 MicroMessenger/6.3.27.880 NetType/cmnet Language/zh_CN'
p25
sg16
S'd395871540ba25f1d91b7eedd21e52f3'
p26
sa(dp27
g2
S'49821'
p28
sg4
S'6884'
p29
sg6
S'9f923ca3323e5a4fc0c2843ff39078d1'
p30
sg8
S'xx6725bb2c0e40fb1856d2cf4e2e835ea4'
p31
sg10
S'xxb97f9323cbd03196520282f9ff0004e2'
p32
sg12
S'xx23ec4356546d094c5bff42f6f8031f3a'
p33
sg14
S'Mozilla/5.0 (Linux; Android 6.0; HUAWEI VNS-TL00 Build/HUAWEIVNS-TL00) AppleWebKit/537.36 (KHTML, like Gecko) Version/4.0 Chrome/37.0.0.0 Mobile MQQBrowser/6.8 TBS/036849 Safari/537.36 MicroMessenger/6.3.27.880 NetType/cmnet Language/zh_CN'
p34
sg16
S'd395871540ba25f1d91b7eedd21e52f3'
p35
sa(dp36
g2
S'49821'
p37
sg4
S'6899'
p38
sg6
S'9f923ca3323e5a4fc0c2843ff39078d1'
p39
sg8
S'xx6725bb2c0e40fb1856d2cf4e2e835ea4'
p40
sg10
S'xxb97f9323cbd03196520282f9ff0004e2'
p41
sg12
S'xx23ec4356546d094c5bff42f6f8031f3a'
p42
sg14
S'Mozilla/5.0 (Linux; Android 6.0; HUAWEI VNS-TL00 Build/HUAWEIVNS-TL00) AppleWebKit/537.36 (KHTML, like Gecko) Version/4.0 Chrome/37.0.0.0 Mobile MQQBrowser/6.8 TBS/036849 Safari/537.36 MicroMessenger/6.3.27.880 NetType/cmnet Language/zh_CN'
p43
sg16
S'd395871540ba25f1d91b7eedd21e52f3'
p44
sa(dp45
g2
S'49821'
p46
sg4
S'6918'
p47
sg6
S'9f923ca3323e5a4fc0c2843ff39078d1'
p48
sg8
S'xx6725bb2c0e40fb1856d2cf4e2e835ea4'
p49
sg10
S'xxb97f9323cbd03196520282f9ff0004e2'
p50
sg12
S'xx23ec4356546d094c5bff42f6f8031f3a'
p51
sg14
S'Mozilla/5.0 (Linux; Android 6.0; HUAWEI VNS-TL00 Build/HUAWEIVNS-TL00) AppleWebKit/537.36 (KHTML, like Gecko) Version/4.0 Chrome/37.0.0.0 Mobile MQQBrowser/6.8 TBS/036849 Safari/537.36 MicroMessenger/6.3.27.880 NetType/cmnet Language/zh_CN'
p52
sg16
S'd395871540ba25f1d91b7eedd21e52f3'
p53
sa.