(lp0
(dp1
S'user_id'
p2
S'20434'
p3
sS'data_id'
p4
S'2128'
p5
sS'ip'
p6
S'c053915e38aa9f35ab188f266fa74b8a'
p7
sS'phone_B'
p8
S'xxd07cff87de41c59f9b2fa1d204c48bb1'
p9
sS'phone_C'
p10
S'xx28a807eca3f2b7174e4a290f4d241170'
p11
sS'phone_A'
p12
S'xx244829af724399857b82a690cbd15a5d'
p13
sS'user_agent'
p14
S'Mozilla/5.0 (Linux; Android 5.1.1; OPPO R9 Plusm A Build/LMY47V) AppleWebKit/537.36 (KHTML, like Gecko) Version/4.0 Chrome/37.0.0.0 Mobile MQQBrowser/6.8 TBS/036865 Safari/537.36 MicroMessenger/6.3.27.880 NetType/WIFI Language/zh_CN'
p15
sS'ua'
p16
S'a38ed3a94e2188b0635351dc32d27890'
p17
sa(dp18
g2
S'20434'
p19
sg4
S'2751'
p20
sg6
S'5ab17f45167dd911e3ea7abcacf0112b'
p21
sg8
S'xx8e3d55d803b72431177023f945f9b2a6'
p22
sg10
S'xx28a807eca3f2b7174e4a290f4d241170'
p23
sg12
S'xx244829af724399857b82a690cbd15a5d'
p24
sg14
S'Mozilla/5.0 (Linux; Android 5.1.1; OPPO R9 Plusm A Build/LMY47V) AppleWebKit/537.36 (KHTML, like Gecko) Version/4.0 Chrome/37.0.0.0 Mobile MQQBrowser/6.8 TBS/036865 Safari/537.36 MicroMessenger/6.3.27.880 NetType/cmnet Language/zh_CN'
p25
sg16
S'd5014a4b6a68b3ff106d35060394834b'
p26
sa(dp27
g2
S'20434'
p28
sg4
S'3131'
p29
sg6
S'5ab17f45167dd911e3ea7abcacf0112b'
p30
sg8
S'xx8e3d55d803b72431177023f945f9b2a6'
p31
sg10
S'xx28a807eca3f2b7174e4a290f4d241170'
p32
sg12
S'xx244829af724399857b82a690cbd15a5d'
p33
sg14
S'Mozilla/5.0 (Linux; Android 5.1.1; OPPO R9 Plusm A Build/LMY47V) AppleWebKit/537.36 (KHTML, like Gecko) Version/4.0 Chrome/37.0.0.0 Mobile MQQBrowser/6.8 TBS/036865 Safari/537.36 MicroMessenger/6.3.27.880 NetType/cmnet Language/zh_CN'
p34
sg16
S'd5014a4b6a68b3ff106d35060394834b'
p35
sa(dp36
g2
S'20434'
p37
sg4
S'3148'
p38
sg6
S'5ab17f45167dd911e3ea7abcacf0112b'
p39
sg8
S'xx8e3d55d803b72431177023f945f9b2a6'
p40
sg10
S'xx28a807eca3f2b7174e4a290f4d241170'
p41
sg12
S'xx244829af724399857b82a690cbd15a5d'
p42
sg14
S'Mozilla/5.0 (Linux; Android 5.1.1; OPPO R9 Plusm A Build/LMY47V) AppleWebKit/537.36 (KHTML, like Gecko) Version/4.0 Chrome/37.0.0.0 Mobile MQQBrowser/6.8 TBS/036865 Safari/537.36 MicroMessenger/6.3.27.880 NetType/cmnet Language/zh_CN'
p43
sg16
S'd5014a4b6a68b3ff106d35060394834b'
p44
sa(dp45
g2
S'20434'
p46
sg4
S'3371'
p47
sg6
S'5ab17f45167dd911e3ea7abcacf0112b'
p48
sg8
S'xx8e3d55d803b72431177023f945f9b2a6'
p49
sg10
S'xx28a807eca3f2b7174e4a290f4d241170'
p50
sg12
S'xx244829af724399857b82a690cbd15a5d'
p51
sg14
S'Mozilla/5.0 (Linux; Android 5.1.1; OPPO R9 Plusm A Build/LMY47V) AppleWebKit/537.36 (KHTML, like Gecko) Version/4.0 Chrome/37.0.0.0 Mobile MQQBrowser/6.8 TBS/036865 Safari/537.36 MicroMessenger/6.3.27.880 NetType/cmnet Language/zh_CN'
p52
sg16
S'd5014a4b6a68b3ff106d35060394834b'
p53
sa(dp54
g2
S'30673'
p55
sg4
S'3419'
p56
sg6
S'c053915e38aa9f35ab188f266fa74b8a'
p57
sg8
S'xxaf8877b75f2174e5aff4bd442e277771'
p58
sg10
S'xx28a807eca3f2b7174e4a290f4d241170'
p59
sg12
S'xx244829af724399857b82a690cbd15a5d'
p60
sg14
S'Mozilla/5.0 (Linux; Android 5.1.1; OPPO R9 Plusm A Build/LMY47V) AppleWebKit/537.36 (KHTML, like Gecko) Version/4.0 Chrome/37.0.0.0 Mobile MQQBrowser/6.8 TBS/036860 Safari/537.36 MicroMessenger/6.3.27.880 NetType/WIFI Language/zh_CN'
p61
sg16
S'c9a88a72161f2f59f32cef1fa97e5adf'
p62
sa(dp63
g2
S'30673'
p64
sg4
S'3435'
p65
sg6
S'c053915e38aa9f35ab188f266fa74b8a'
p66
sg8
S'xxaf8877b75f2174e5aff4bd442e277771'
p67
sg10
S'xx28a807eca3f2b7174e4a290f4d241170'
p68
sg12
S'xx244829af724399857b82a690cbd15a5d'
p69
sg14
S'Mozilla/5.0 (Linux; Android 5.1.1; OPPO R9 Plusm A Build/LMY47V) AppleWebKit/537.36 (KHTML, like Gecko) Version/4.0 Chrome/37.0.0.0 Mobile MQQBrowser/6.8 TBS/036860 Safari/537.36 MicroMessenger/6.3.27.880 NetType/WIFI Language/zh_CN'
p70
sg16
S'c9a88a72161f2f59f32cef1fa97e5adf'
p71
sa(dp72
g2
S'30673'
p73
sg4
S'3464'
p74
sg6
S'c053915e38aa9f35ab188f266fa74b8a'
p75
sg8
S'xxaf8877b75f2174e5aff4bd442e277771'
p76
sg10
S'xx28a807eca3f2b7174e4a290f4d241170'
p77
sg12
S'xx244829af724399857b82a690cbd15a5d'
p78
sg14
S'Mozilla/5.0 (Linux; Android 5.1.1; OPPO R9 Plusm A Build/LMY47V) AppleWebKit/537.36 (KHTML, like Gecko) Version/4.0 Chrome/37.0.0.0 Mobile MQQBrowser/6.8 TBS/036860 Safari/537.36 MicroMessenger/6.3.27.880 NetType/WIFI Language/zh_CN'
p79
sg16
S'c9a88a72161f2f59f32cef1fa97e5adf'
p80
sa(dp81
g2
S'30673'
p82
sg4
S'3476'
p83
sg6
S'c053915e38aa9f35ab188f266fa74b8a'
p84
sg8
S'xxaf8877b75f2174e5aff4bd442e277771'
p85
sg10
S'xx28a807eca3f2b7174e4a290f4d241170'
p86
sg12
S'xx244829af724399857b82a690cbd15a5d'
p87
sg14
S'Mozilla/5.0 (Linux; Android 5.1.1; OPPO R9 Plusm A Build/LMY47V) AppleWebKit/537.36 (KHTML, like Gecko) Version/4.0 Chrome/37.0.0.0 Mobile MQQBrowser/6.8 TBS/036860 Safari/537.36 MicroMessenger/6.3.27.880 NetType/WIFI Language/zh_CN'
p88
sg16
S'c9a88a72161f2f59f32cef1fa97e5adf'
p89
sa(dp90
g2
S'30673'
p91
sg4
S'3494'
p92
sg6
S'c053915e38aa9f35ab188f266fa74b8a'
p93
sg8
S'xxaf8877b75f2174e5aff4bd442e277771'
p94
sg10
S'xx28a807eca3f2b7174e4a290f4d241170'
p95
sg12
S'xx244829af724399857b82a690cbd15a5d'
p96
sg14
S'Mozilla/5.0 (Linux; Android 5.1.1; OPPO R9 Plusm A Build/LMY47V) AppleWebKit/537.36 (KHTML, like Gecko) Version/4.0 Chrome/37.0.0.0 Mobile MQQBrowser/6.8 TBS/036860 Safari/537.36 MicroMessenger/6.3.27.880 NetType/WIFI Language/zh_CN'
p97
sg16
S'c9a88a72161f2f59f32cef1fa97e5adf'
p98
sa(dp99
g2
S'20434'
p100
sg4
S'3577'
p101
sg6
S'5ab17f45167dd911e3ea7abcacf0112b'
p102
sg8
S'xx8e3d55d803b72431177023f945f9b2a6'
p103
sg10
S'xx28a807eca3f2b7174e4a290f4d241170'
p104
sg12
S'xx244829af724399857b82a690cbd15a5d'
p105
sg14
S'Mozilla/5.0 (Linux; Android 5.1.1; OPPO R9 Plusm A Build/LMY47V) AppleWebKit/537.36 (KHTML, like Gecko) Version/4.0 Chrome/37.0.0.0 Mobile MQQBrowser/6.8 TBS/036865 Safari/537.36 MicroMessenger/6.3.27.880 NetType/cmnet Language/zh_CN'
p106
sg16
S'd5014a4b6a68b3ff106d35060394834b'
p107
sa(dp108
g2
S'20434'
p109
sg4
S'3700'
p110
sg6
S'5ab17f45167dd911e3ea7abcacf0112b'
p111
sg8
S'xx8e3d55d803b72431177023f945f9b2a6'
p112
sg10
S'xx28a807eca3f2b7174e4a290f4d241170'
p113
sg12
S'xx244829af724399857b82a690cbd15a5d'
p114
sg14
S'Mozilla/5.0 (Linux; Android 5.1.1; OPPO R9 Plusm A Build/LMY47V) AppleWebKit/537.36 (KHTML, like Gecko) Version/4.0 Chrome/37.0.0.0 Mobile MQQBrowser/6.8 TBS/036865 Safari/537.36 MicroMessenger/6.3.27.880 NetType/cmnet Language/zh_CN'
p115
sg16
S'd5014a4b6a68b3ff106d35060394834b'
p116
sa(dp117
g2
S'20434'
p118
sg4
S'3788'
p119
sg6
S'5ab17f45167dd911e3ea7abcacf0112b'
p120
sg8
S'xx8e3d55d803b72431177023f945f9b2a6'
p121
sg10
S'xx28a807eca3f2b7174e4a290f4d241170'
p122
sg12
S'xx244829af724399857b82a690cbd15a5d'
p123
sg14
S'Mozilla/5.0 (Linux; Android 5.1.1; OPPO R9 Plusm A Build/LMY47V) AppleWebKit/537.36 (KHTML, like Gecko) Version/4.0 Chrome/37.0.0.0 Mobile MQQBrowser/6.8 TBS/036865 Safari/537.36 MicroMessenger/6.3.27.880 NetType/cmnet Language/zh_CN'
p124
sg16
S'd5014a4b6a68b3ff106d35060394834b'
p125
sa(dp126
g2
S'20434'
p127
sg4
S'3798'
p128
sg6
S'5ab17f45167dd911e3ea7abcacf0112b'
p129
sg8
S'xx8e3d55d803b72431177023f945f9b2a6'
p130
sg10
S'xx28a807eca3f2b7174e4a290f4d241170'
p131
sg12
S'xx244829af724399857b82a690cbd15a5d'
p132
sg14
S'Mozilla/5.0 (Linux; Android 5.1.1; OPPO R9 Plusm A Build/LMY47V) AppleWebKit/537.36 (KHTML, like Gecko) Version/4.0 Chrome/37.0.0.0 Mobile MQQBrowser/6.8 TBS/036865 Safari/537.36 MicroMessenger/6.3.27.880 NetType/cmnet Language/zh_CN'
p133
sg16
S'd5014a4b6a68b3ff106d35060394834b'
p134
sa(dp135
g2
S'20434'
p136
sg4
S'3814'
p137
sg6
S'5ab17f45167dd911e3ea7abcacf0112b'
p138
sg8
S'xx8e3d55d803b72431177023f945f9b2a6'
p139
sg10
S'xx28a807eca3f2b7174e4a290f4d241170'
p140
sg12
S'xx244829af724399857b82a690cbd15a5d'
p141
sg14
S'Mozilla/5.0 (Linux; Android 5.1.1; OPPO R9 Plusm A Build/LMY47V) AppleWebKit/537.36 (KHTML, like Gecko) Version/4.0 Chrome/37.0.0.0 Mobile MQQBrowser/6.8 TBS/036865 Safari/537.36 MicroMessenger/6.3.27.880 NetType/cmnet Language/zh_CN'
p142
sg16
S'd5014a4b6a68b3ff106d35060394834b'
p143
sa(dp144
g2
S'20434'
p145
sg4
S'3836'
p146
sg6
S'5ab17f45167dd911e3ea7abcacf0112b'
p147
sg8
S'xx8e3d55d803b72431177023f945f9b2a6'
p148
sg10
S'xx28a807eca3f2b7174e4a290f4d241170'
p149
sg12
S'xx244829af724399857b82a690cbd15a5d'
p150
sg14
S'Mozilla/5.0 (Linux; Android 5.1.1; OPPO R9 Plusm A Build/LMY47V) AppleWebKit/537.36 (KHTML, like Gecko) Version/4.0 Chrome/37.0.0.0 Mobile MQQBrowser/6.8 TBS/036865 Safari/537.36 MicroMessenger/6.3.27.880 NetType/cmnet Language/zh_CN'
p151
sg16
S'd5014a4b6a68b3ff106d35060394834b'
p152
sa(dp153
g2
S'20434'
p154
sg4
S'3845'
p155
sg6
S'5ab17f45167dd911e3ea7abcacf0112b'
p156
sg8
S'xx8e3d55d803b72431177023f945f9b2a6'
p157
sg10
S'xx28a807eca3f2b7174e4a290f4d241170'
p158
sg12
S'xx244829af724399857b82a690cbd15a5d'
p159
sg14
S'Mozilla/5.0 (Linux; Android 5.1.1; OPPO R9 Plusm A Build/LMY47V) AppleWebKit/537.36 (KHTML, like Gecko) Version/4.0 Chrome/37.0.0.0 Mobile MQQBrowser/6.8 TBS/036865 Safari/537.36 MicroMessenger/6.3.27.880 NetType/cmnet Language/zh_CN'
p160
sg16
S'd5014a4b6a68b3ff106d35060394834b'
p161
sa(dp162
g2
S'20434'
p163
sg4
S'3864'
p164
sg6
S'5ab17f45167dd911e3ea7abcacf0112b'
p165
sg8
S'xx8e3d55d803b72431177023f945f9b2a6'
p166
sg10
S'xx28a807eca3f2b7174e4a290f4d241170'
p167
sg12
S'xx244829af724399857b82a690cbd15a5d'
p168
sg14
S'Mozilla/5.0 (Linux; Android 5.1.1; OPPO R9 Plusm A Build/LMY47V) AppleWebKit/537.36 (KHTML, like Gecko) Version/4.0 Chrome/37.0.0.0 Mobile MQQBrowser/6.8 TBS/036865 Safari/537.36 MicroMessenger/6.3.27.880 NetType/cmnet Language/zh_CN'
p169
sg16
S'd5014a4b6a68b3ff106d35060394834b'
p170
sa(dp171
g2
S'20434'
p172
sg4
S'3882'
p173
sg6
S'5ab17f45167dd911e3ea7abcacf0112b'
p174
sg8
S'xx8e3d55d803b72431177023f945f9b2a6'
p175
sg10
S'xx28a807eca3f2b7174e4a290f4d241170'
p176
sg12
S'xx244829af724399857b82a690cbd15a5d'
p177
sg14
S'Mozilla/5.0 (Linux; Android 5.1.1; OPPO R9 Plusm A Build/LMY47V) AppleWebKit/537.36 (KHTML, like Gecko) Version/4.0 Chrome/37.0.0.0 Mobile MQQBrowser/6.8 TBS/036865 Safari/537.36 MicroMessenger/6.3.27.880 NetType/cmnet Language/zh_CN'
p178
sg16
S'd5014a4b6a68b3ff106d35060394834b'
p179
sa(dp180
g2
S'20434'
p181
sg4
S'3906'
p182
sg6
S'5ab17f45167dd911e3ea7abcacf0112b'
p183
sg8
S'xx8e3d55d803b72431177023f945f9b2a6'
p184
sg10
S'xx28a807eca3f2b7174e4a290f4d241170'
p185
sg12
S'xx244829af724399857b82a690cbd15a5d'
p186
sg14
S'Mozilla/5.0 (Linux; Android 5.1.1; OPPO R9 Plusm A Build/LMY47V) AppleWebKit/537.36 (KHTML, like Gecko) Version/4.0 Chrome/37.0.0.0 Mobile MQQBrowser/6.8 TBS/036865 Safari/537.36 MicroMessenger/6.3.27.880 NetType/cmnet Language/zh_CN'
p187
sg16
S'd5014a4b6a68b3ff106d35060394834b'
p188
sa(dp189
g2
S'20434'
p190
sg4
S'3931'
p191
sg6
S'5ab17f45167dd911e3ea7abcacf0112b'
p192
sg8
S'xx8e3d55d803b72431177023f945f9b2a6'
p193
sg10
S'xx28a807eca3f2b7174e4a290f4d241170'
p194
sg12
S'xx244829af724399857b82a690cbd15a5d'
p195
sg14
S'Mozilla/5.0 (Linux; Android 5.1.1; OPPO R9 Plusm A Build/LMY47V) AppleWebKit/537.36 (KHTML, like Gecko) Version/4.0 Chrome/37.0.0.0 Mobile MQQBrowser/6.8 TBS/036865 Safari/537.36 MicroMessenger/6.3.27.880 NetType/cmnet Language/zh_CN'
p196
sg16
S'd5014a4b6a68b3ff106d35060394834b'
p197
sa(dp198
g2
S'20434'
p199
sg4
S'3951'
p200
sg6
S'5ab17f45167dd911e3ea7abcacf0112b'
p201
sg8
S'xx8e3d55d803b72431177023f945f9b2a6'
p202
sg10
S'xx28a807eca3f2b7174e4a290f4d241170'
p203
sg12
S'xx244829af724399857b82a690cbd15a5d'
p204
sg14
S'Mozilla/5.0 (Linux; Android 5.1.1; OPPO R9 Plusm A Build/LMY47V) AppleWebKit/537.36 (KHTML, like Gecko) Version/4.0 Chrome/37.0.0.0 Mobile MQQBrowser/6.8 TBS/036865 Safari/537.36 MicroMessenger/6.3.27.880 NetType/cmnet Language/zh_CN'
p205
sg16
S'd5014a4b6a68b3ff106d35060394834b'
p206
sa(dp207
g2
S'20434'
p208
sg4
S'3972'
p209
sg6
S'5ab17f45167dd911e3ea7abcacf0112b'
p210
sg8
S'xx8e3d55d803b72431177023f945f9b2a6'
p211
sg10
S'xx28a807eca3f2b7174e4a290f4d241170'
p212
sg12
S'xx244829af724399857b82a690cbd15a5d'
p213
sg14
S'Mozilla/5.0 (Linux; Android 5.1.1; OPPO R9 Plusm A Build/LMY47V) AppleWebKit/537.36 (KHTML, like Gecko) Version/4.0 Chrome/37.0.0.0 Mobile MQQBrowser/6.8 TBS/036865 Safari/537.36 MicroMessenger/6.3.27.880 NetType/cmnet Language/zh_CN'
p214
sg16
S'd5014a4b6a68b3ff106d35060394834b'
p215
sa(dp216
g2
S'30673'
p217
sg4
S'3985'
p218
sg6
S'c053915e38aa9f35ab188f266fa74b8a'
p219
sg8
S'xxaf8877b75f2174e5aff4bd442e277771'
p220
sg10
S'xx28a807eca3f2b7174e4a290f4d241170'
p221
sg12
S'xx244829af724399857b82a690cbd15a5d'
p222
sg14
S'Mozilla/5.0 (Linux; Android 5.1.1; OPPO R9 Plusm A Build/LMY47V) AppleWebKit/537.36 (KHTML, like Gecko) Version/4.0 Chrome/37.0.0.0 Mobile MQQBrowser/6.8 TBS/036860 Safari/537.36 MicroMessenger/6.3.27.880 NetType/WIFI Language/zh_CN'
p223
sg16
S'c9a88a72161f2f59f32cef1fa97e5adf'
p224
sa(dp225
g2
S'20434'
p226
sg4
S'3988'
p227
sg6
S'5ab17f45167dd911e3ea7abcacf0112b'
p228
sg8
S'xx8e3d55d803b72431177023f945f9b2a6'
p229
sg10
S'xx28a807eca3f2b7174e4a290f4d241170'
p230
sg12
S'xx244829af724399857b82a690cbd15a5d'
p231
sg14
S'Mozilla/5.0 (Linux; Android 5.1.1; OPPO R9 Plusm A Build/LMY47V) AppleWebKit/537.36 (KHTML, like Gecko) Version/4.0 Chrome/37.0.0.0 Mobile MQQBrowser/6.8 TBS/036865 Safari/537.36 MicroMessenger/6.3.27.880 NetType/cmnet Language/zh_CN'
p232
sg16
S'd5014a4b6a68b3ff106d35060394834b'
p233
sa(dp234
g2
S'30673'
p235
sg4
S'4005'
p236
sg6
S'c053915e38aa9f35ab188f266fa74b8a'
p237
sg8
S'xxaf8877b75f2174e5aff4bd442e277771'
p238
sg10
S'xx28a807eca3f2b7174e4a290f4d241170'
p239
sg12
S'xx244829af724399857b82a690cbd15a5d'
p240
sg14
S'Mozilla/5.0 (Linux; Android 5.1.1; OPPO R9 Plusm A Build/LMY47V) AppleWebKit/537.36 (KHTML, like Gecko) Version/4.0 Chrome/37.0.0.0 Mobile MQQBrowser/6.8 TBS/036860 Safari/537.36 MicroMessenger/6.3.27.880 NetType/WIFI Language/zh_CN'
p241
sg16
S'c9a88a72161f2f59f32cef1fa97e5adf'
p242
sa(dp243
g2
S'20434'
p244
sg4
S'4006'
p245
sg6
S'5ab17f45167dd911e3ea7abcacf0112b'
p246
sg8
S'xx8e3d55d803b72431177023f945f9b2a6'
p247
sg10
S'xx28a807eca3f2b7174e4a290f4d241170'
p248
sg12
S'xx244829af724399857b82a690cbd15a5d'
p249
sg14
S'Mozilla/5.0 (Linux; Android 5.1.1; OPPO R9 Plusm A Build/LMY47V) AppleWebKit/537.36 (KHTML, like Gecko) Version/4.0 Chrome/37.0.0.0 Mobile MQQBrowser/6.8 TBS/036865 Safari/537.36 MicroMessenger/6.3.27.880 NetType/cmnet Language/zh_CN'
p250
sg16
S'd5014a4b6a68b3ff106d35060394834b'
p251
sa(dp252
g2
S'20434'
p253
sg4
S'4022'
p254
sg6
S'5ab17f45167dd911e3ea7abcacf0112b'
p255
sg8
S'xx8e3d55d803b72431177023f945f9b2a6'
p256
sg10
S'xx28a807eca3f2b7174e4a290f4d241170'
p257
sg12
S'xx244829af724399857b82a690cbd15a5d'
p258
sg14
S'Mozilla/5.0 (Linux; Android 5.1.1; OPPO R9 Plusm A Build/LMY47V) AppleWebKit/537.36 (KHTML, like Gecko) Version/4.0 Chrome/37.0.0.0 Mobile MQQBrowser/6.8 TBS/036865 Safari/537.36 MicroMessenger/6.3.27.880 NetType/cmnet Language/zh_CN'
p259
sg16
S'd5014a4b6a68b3ff106d35060394834b'
p260
sa(dp261
g2
S'20434'
p262
sg4
S'4037'
p263
sg6
S'5ab17f45167dd911e3ea7abcacf0112b'
p264
sg8
S'xx8e3d55d803b72431177023f945f9b2a6'
p265
sg10
S'xx28a807eca3f2b7174e4a290f4d241170'
p266
sg12
S'xx244829af724399857b82a690cbd15a5d'
p267
sg14
S'Mozilla/5.0 (Linux; Android 5.1.1; OPPO R9 Plusm A Build/LMY47V) AppleWebKit/537.36 (KHTML, like Gecko) Version/4.0 Chrome/37.0.0.0 Mobile MQQBrowser/6.8 TBS/036865 Safari/537.36 MicroMessenger/6.3.27.880 NetType/cmnet Language/zh_CN'
p268
sg16
S'd5014a4b6a68b3ff106d35060394834b'
p269
sa(dp270
g2
S'49811'
p271
sg4
S'6252'
p272
sg6
S'fee2db41a617b5a4e84be4e51e35553a'
p273
sg8
S'xx84e4d9294e15115456ae5cb8b670c51b'
p274
sg10
S'xx28a807eca3f2b7174e4a290f4d241170'
p275
sg12
S'xx244829af724399857b82a690cbd15a5d'
p276
sg14
S'Mozilla/5.0 (Linux; Android 5.1.1; OPPO R9 Plusm A Build/LMY47V) AppleWebKit/537.36 (KHTML, like Gecko) Version/4.0 Chrome/37.0.0.0 Mobile MQQBrowser/6.8 TBS/036849 Safari/537.36 MicroMessenger/6.3.27.880 NetType/cmnet Language/zh_CN'
p277
sg16
S'5ffc705d22381db2f1e38ca2cb4f0259'
p278
sa(dp279
g2
S'49811'
p280
sg4
S'6263'
p281
sg6
S'fee2db41a617b5a4e84be4e51e35553a'
p282
sg8
S'xx84e4d9294e15115456ae5cb8b670c51b'
p283
sg10
S'xx28a807eca3f2b7174e4a290f4d241170'
p284
sg12
S'xx244829af724399857b82a690cbd15a5d'
p285
sg14
S'Mozilla/5.0 (Linux; Android 5.1.1; OPPO R9 Plusm A Build/LMY47V) AppleWebKit/537.36 (KHTML, like Gecko) Version/4.0 Chrome/37.0.0.0 Mobile MQQBrowser/6.8 TBS/036849 Safari/537.36 MicroMessenger/6.3.27.880 NetType/cmnet Language/zh_CN'
p286
sg16
S'5ffc705d22381db2f1e38ca2cb4f0259'
p287
sa(dp288
g2
S'49811'
p289
sg4
S'6275'
p290
sg6
S'fee2db41a617b5a4e84be4e51e35553a'
p291
sg8
S'xx84e4d9294e15115456ae5cb8b670c51b'
p292
sg10
S'xx28a807eca3f2b7174e4a290f4d241170'
p293
sg12
S'xx244829af724399857b82a690cbd15a5d'
p294
sg14
S'Mozilla/5.0 (Linux; Android 5.1.1; OPPO R9 Plusm A Build/LMY47V) AppleWebKit/537.36 (KHTML, like Gecko) Version/4.0 Chrome/37.0.0.0 Mobile MQQBrowser/6.8 TBS/036849 Safari/537.36 MicroMessenger/6.3.27.880 NetType/cmnet Language/zh_CN'
p295
sg16
S'5ffc705d22381db2f1e38ca2cb4f0259'
p296
sa(dp297
g2
S'49811'
p298
sg4
S'6286'
p299
sg6
S'fee2db41a617b5a4e84be4e51e35553a'
p300
sg8
S'xx84e4d9294e15115456ae5cb8b670c51b'
p301
sg10
S'xx28a807eca3f2b7174e4a290f4d241170'
p302
sg12
S'xx244829af724399857b82a690cbd15a5d'
p303
sg14
S'Mozilla/5.0 (Linux; Android 5.1.1; OPPO R9 Plusm A Build/LMY47V) AppleWebKit/537.36 (KHTML, like Gecko) Version/4.0 Chrome/37.0.0.0 Mobile MQQBrowser/6.8 TBS/036849 Safari/537.36 MicroMessenger/6.3.27.880 NetType/cmnet Language/zh_CN'
p304
sg16
S'5ffc705d22381db2f1e38ca2cb4f0259'
p305
sa(dp306
g2
S'30242'
p307
sg4
S'6291'
p308
sg6
S'269ada9eb9f889abb8b8833f5a709933'
p309
sg8
S'xxe3e52da4d98ae2bf474d224f890c65a0'
p310
sg10
S'xx28a807eca3f2b7174e4a290f4d241170'
p311
sg12
S'xx244829af724399857b82a690cbd15a5d'
p312
sg14
S'Mozilla/5.0 (Linux; Android 5.1.1; OPPO R9 Plusm A Build/LMY47V) AppleWebKit/537.36 (KHTML, like Gecko) Version/4.0 Chrome/37.0.0.0 Mobile MQQBrowser/6.8 TBS/036849 Safari/537.36 MicroMessenger/6.3.27.880 NetType/WIFI Language/zh_CN'
p313
sg16
S'4dfa338056455a5a3d1c79bf1e47c39e'
p314
sa(dp315
g2
S'49811'
p316
sg4
S'6301'
p317
sg6
S'fee2db41a617b5a4e84be4e51e35553a'
p318
sg8
S'xx84e4d9294e15115456ae5cb8b670c51b'
p319
sg10
S'xx28a807eca3f2b7174e4a290f4d241170'
p320
sg12
S'xx244829af724399857b82a690cbd15a5d'
p321
sg14
S'Mozilla/5.0 (Linux; Android 5.1.1; OPPO R9 Plusm A Build/LMY47V) AppleWebKit/537.36 (KHTML, like Gecko) Version/4.0 Chrome/37.0.0.0 Mobile MQQBrowser/6.8 TBS/036849 Safari/537.36 MicroMessenger/6.3.27.880 NetType/cmnet Language/zh_CN'
p322
sg16
S'5ffc705d22381db2f1e38ca2cb4f0259'
p323
sa(dp324
g2
S'30242'
p325
sg4
S'6305'
p326
sg6
S'269ada9eb9f889abb8b8833f5a709933'
p327
sg8
S'xxe3e52da4d98ae2bf474d224f890c65a0'
p328
sg10
S'xx28a807eca3f2b7174e4a290f4d241170'
p329
sg12
S'xx244829af724399857b82a690cbd15a5d'
p330
sg14
S'Mozilla/5.0 (Linux; Android 5.1.1; OPPO R9 Plusm A Build/LMY47V) AppleWebKit/537.36 (KHTML, like Gecko) Version/4.0 Chrome/37.0.0.0 Mobile MQQBrowser/6.8 TBS/036849 Safari/537.36 MicroMessenger/6.3.27.880 NetType/WIFI Language/zh_CN'
p331
sg16
S'4dfa338056455a5a3d1c79bf1e47c39e'
p332
sa(dp333
g2
S'30242'
p334
sg4
S'6319'
p335
sg6
S'269ada9eb9f889abb8b8833f5a709933'
p336
sg8
S'xxe3e52da4d98ae2bf474d224f890c65a0'
p337
sg10
S'xx28a807eca3f2b7174e4a290f4d241170'
p338
sg12
S'xx244829af724399857b82a690cbd15a5d'
p339
sg14
S'Mozilla/5.0 (Linux; Android 5.1.1; OPPO R9 Plusm A Build/LMY47V) AppleWebKit/537.36 (KHTML, like Gecko) Version/4.0 Chrome/37.0.0.0 Mobile MQQBrowser/6.8 TBS/036849 Safari/537.36 MicroMessenger/6.3.27.880 NetType/WIFI Language/zh_CN'
p340
sg16
S'4dfa338056455a5a3d1c79bf1e47c39e'
p341
sa(dp342
g2
S'9224'
p343
sg4
S'7967'
p344
sg6
S'4244e9be9ee4359c7c9376c4a1bbf51f'
p345
sg8
S'xx84e4d9294e15115456ae5cb8b670c51b'
p346
sg10
S'xx28a807eca3f2b7174e4a290f4d241170'
p347
sg12
S'xx244829af724399857b82a690cbd15a5d'
p348
sg14
S'Mozilla/5.0 (Linux; Android 5.1.1; OPPO R9 Plusm A Build/LMY47V) AppleWebKit/537.36 (KHTML, like Gecko) Version/4.0 Chrome/37.0.0.0 Mobile MQQBrowser/6.8 TBS/036849 Safari/537.36 MicroMessenger/6.3.27.880 NetType/cmnet Language/zh_CN'
p349
sg16
S'5ffc705d22381db2f1e38ca2cb4f0259'
p350
sa(dp351
g2
S'9224'
p352
sg4
S'7981'
p353
sg6
S'4244e9be9ee4359c7c9376c4a1bbf51f'
p354
sg8
S'xx84e4d9294e15115456ae5cb8b670c51b'
p355
sg10
S'xx28a807eca3f2b7174e4a290f4d241170'
p356
sg12
S'xx244829af724399857b82a690cbd15a5d'
p357
sg14
S'Mozilla/5.0 (Linux; Android 5.1.1; OPPO R9 Plusm A Build/LMY47V) AppleWebKit/537.36 (KHTML, like Gecko) Version/4.0 Chrome/37.0.0.0 Mobile MQQBrowser/6.8 TBS/036849 Safari/537.36 MicroMessenger/6.3.27.880 NetType/cmnet Language/zh_CN'
p358
sg16
S'5ffc705d22381db2f1e38ca2cb4f0259'
p359
sa(dp360
g2
S'9224'
p361
sg4
S'8136'
p362
sg6
S'4244e9be9ee4359c7c9376c4a1bbf51f'
p363
sg8
S'xx84e4d9294e15115456ae5cb8b670c51b'
p364
sg10
S'xx28a807eca3f2b7174e4a290f4d241170'
p365
sg12
S'xx244829af724399857b82a690cbd15a5d'
p366
sg14
S'Mozilla/5.0 (Linux; Android 5.1.1; OPPO R9 Plusm A Build/LMY47V) AppleWebKit/537.36 (KHTML, like Gecko) Version/4.0 Chrome/37.0.0.0 Mobile MQQBrowser/6.8 TBS/036849 Safari/537.36 MicroMessenger/6.3.27.880 NetType/cmnet Language/zh_CN'
p367
sg16
S'5ffc705d22381db2f1e38ca2cb4f0259'
p368
sa(dp369
g2
S'9224'
p370
sg4
S'8182'
p371
sg6
S'4244e9be9ee4359c7c9376c4a1bbf51f'
p372
sg8
S'xx84e4d9294e15115456ae5cb8b670c51b'
p373
sg10
S'xx28a807eca3f2b7174e4a290f4d241170'
p374
sg12
S'xx244829af724399857b82a690cbd15a5d'
p375
sg14
S'Mozilla/5.0 (Linux; Android 5.1.1; OPPO R9 Plusm A Build/LMY47V) AppleWebKit/537.36 (KHTML, like Gecko) Version/4.0 Chrome/37.0.0.0 Mobile MQQBrowser/6.8 TBS/036849 Safari/537.36 MicroMessenger/6.3.27.880 NetType/cmnet Language/zh_CN'
p376
sg16
S'5ffc705d22381db2f1e38ca2cb4f0259'
p377
sa(dp378
g2
S'49850'
p379
sg4
S'8238'
p380
sg6
S'9ef23f3ccd6ee2f4c2c88a34dc06737a'
p381
sg8
S'xx072e3157ec64fb19d5f730e4268cb1f3'
p382
sg10
S'xx28a807eca3f2b7174e4a290f4d241170'
p383
sg12
S'xx244829af724399857b82a690cbd15a5d'
p384
sg14
S'Mozilla/5.0 (Linux; Android 5.1.1; OPPO R9 Plusm A Build/LMY47V) AppleWebKit/537.36 (KHTML, like Gecko) Version/4.0 Chrome/37.0.0.0 Mobile MQQBrowser/6.8 TBS/036869 Safari/537.36 MicroMessenger/6.3.27.880 NetType/cmnet Language/zh_CN'
p385
sg16
S'53fa85a3d3fcd5a40721a5241dde13ca'
p386
sa(dp387
g2
S'9224'
p388
sg4
S'8244'
p389
sg6
S'4244e9be9ee4359c7c9376c4a1bbf51f'
p390
sg8
S'xx84e4d9294e15115456ae5cb8b670c51b'
p391
sg10
S'xx28a807eca3f2b7174e4a290f4d241170'
p392
sg12
S'xx244829af724399857b82a690cbd15a5d'
p393
sg14
S'Mozilla/5.0 (Linux; Android 5.1.1; OPPO R9 Plusm A Build/LMY47V) AppleWebKit/537.36 (KHTML, like Gecko) Version/4.0 Chrome/37.0.0.0 Mobile MQQBrowser/6.8 TBS/036849 Safari/537.36 MicroMessenger/6.3.27.880 NetType/cmnet Language/zh_CN'
p394
sg16
S'5ffc705d22381db2f1e38ca2cb4f0259'
p395
sa(dp396
g2
S'49850'
p397
sg4
S'8256'
p398
sg6
S'9ef23f3ccd6ee2f4c2c88a34dc06737a'
p399
sg8
S'xx072e3157ec64fb19d5f730e4268cb1f3'
p400
sg10
S'xx28a807eca3f2b7174e4a290f4d241170'
p401
sg12
S'xx244829af724399857b82a690cbd15a5d'
p402
sg14
S'Mozilla/5.0 (Linux; Android 5.1.1; OPPO R9 Plusm A Build/LMY47V) AppleWebKit/537.36 (KHTML, like Gecko) Version/4.0 Chrome/37.0.0.0 Mobile MQQBrowser/6.8 TBS/036869 Safari/537.36 MicroMessenger/6.3.27.880 NetType/cmnet Language/zh_CN'
p403
sg16
S'53fa85a3d3fcd5a40721a5241dde13ca'
p404
sa(dp405
g2
S'49850'
p406
sg4
S'8271'
p407
sg6
S'9ef23f3ccd6ee2f4c2c88a34dc06737a'
p408
sg8
S'xx072e3157ec64fb19d5f730e4268cb1f3'
p409
sg10
S'xx28a807eca3f2b7174e4a290f4d241170'
p410
sg12
S'xx244829af724399857b82a690cbd15a5d'
p411
sg14
S'Mozilla/5.0 (Linux; Android 5.1.1; OPPO R9 Plusm A Build/LMY47V) AppleWebKit/537.36 (KHTML, like Gecko) Version/4.0 Chrome/37.0.0.0 Mobile MQQBrowser/6.8 TBS/036869 Safari/537.36 MicroMessenger/6.3.27.880 NetType/cmnet Language/zh_CN'
p412
sg16
S'53fa85a3d3fcd5a40721a5241dde13ca'
p413
sa.