(lp0
(dp1
S'user_id'
p2
S'31024'
p3
sS'data_id'
p4
S'4241'
p5
sS'ip'
p6
S'76bf2b3bbb5e0bc9816642a7858b57e1'
p7
sS'phone_B'
p8
S'xx9bdf2277b722842a9c4f136d17e87452'
p9
sS'phone_C'
p10
S'xx345474f7f4c162365ccc980e6a4738c3'
p11
sS'phone_A'
p12
S'xx24c0ae4b3f52a76925b5fb3bdeb8ff09'
p13
sS'user_agent'
p14
S'Mozilla/5.0 (Linux; Android 6.0; Le X620 Build/HBXCNCU5801809301S) AppleWebKit/537.36 (KHTML, like Gecko) Version/4.0 Chrome/37.0.0.0 Mobile MQQBrowser/6.8 TBS/036869 Safari/537.36 MicroMessenger/6.3.27.880 NetType/WIFI Language/zh_CN'
p15
sS'ua'
p16
S'ada1a2d3b22fbdd86cf8fceb4f80e174'
p17
sa(dp18
g2
S'31024'
p19
sg4
S'4266'
p20
sg6
S'76bf2b3bbb5e0bc9816642a7858b57e1'
p21
sg8
S'xx9bdf2277b722842a9c4f136d17e87452'
p22
sg10
S'xx345474f7f4c162365ccc980e6a4738c3'
p23
sg12
S'xx24c0ae4b3f52a76925b5fb3bdeb8ff09'
p24
sg14
S'Mozilla/5.0 (Linux; Android 6.0; Le X620 Build/HBXCNCU5801809301S) AppleWebKit/537.36 (KHTML, like Gecko) Version/4.0 Chrome/37.0.0.0 Mobile MQQBrowser/6.8 TBS/036869 Safari/537.36 MicroMessenger/6.3.27.880 NetType/WIFI Language/zh_CN'
p25
sg16
S'ada1a2d3b22fbdd86cf8fceb4f80e174'
p26
sa(dp27
g2
S'31024'
p28
sg4
S'4286'
p29
sg6
S'76bf2b3bbb5e0bc9816642a7858b57e1'
p30
sg8
S'xx9bdf2277b722842a9c4f136d17e87452'
p31
sg10
S'xx345474f7f4c162365ccc980e6a4738c3'
p32
sg12
S'xx24c0ae4b3f52a76925b5fb3bdeb8ff09'
p33
sg14
S'Mozilla/5.0 (Linux; Android 6.0; Le X620 Build/HBXCNCU5801809301S) AppleWebKit/537.36 (KHTML, like Gecko) Version/4.0 Chrome/37.0.0.0 Mobile MQQBrowser/6.8 TBS/036869 Safari/537.36 MicroMessenger/6.3.27.880 NetType/WIFI Language/zh_CN'
p34
sg16
S'ada1a2d3b22fbdd86cf8fceb4f80e174'
p35
sa(dp36
g2
S'49784'
p37
sg4
S'4457'
p38
sg6
S'76bf2b3bbb5e0bc9816642a7858b57e1'
p39
sg8
S'xx7cf5e7ddd45f0bf7b43099a293858318'
p40
sg10
S'xx345474f7f4c162365ccc980e6a4738c3'
p41
sg12
S'xx24c0ae4b3f52a76925b5fb3bdeb8ff09'
p42
sg14
S'Mozilla/5.0 (Linux; Android 6.0; Le X620 Build/HBXCNCU5801809301S) AppleWebKit/537.36 (KHTML, like Gecko) Version/4.0 Chrome/37.0.0.0 Mobile MQQBrowser/6.8 TBS/036824 Safari/537.36 MicroMessenger/6.3.27.880 NetType/WIFI Language/zh_CN'
p43
sg16
S'19cce3bb855bd3d227a044d123021ab9'
p44
sa(dp45
g2
S'49784'
p46
sg4
S'4475'
p47
sg6
S'76bf2b3bbb5e0bc9816642a7858b57e1'
p48
sg8
S'xx7cf5e7ddd45f0bf7b43099a293858318'
p49
sg10
S'xx345474f7f4c162365ccc980e6a4738c3'
p50
sg12
S'xx24c0ae4b3f52a76925b5fb3bdeb8ff09'
p51
sg14
S'Mozilla/5.0 (Linux; Android 6.0; Le X620 Build/HBXCNCU5801809301S) AppleWebKit/537.36 (KHTML, like Gecko) Version/4.0 Chrome/37.0.0.0 Mobile MQQBrowser/6.8 TBS/036824 Safari/537.36 MicroMessenger/6.3.27.880 NetType/WIFI Language/zh_CN'
p52
sg16
S'19cce3bb855bd3d227a044d123021ab9'
p53
sa.