(lp0
(dp1
S'user_id'
p2
S'33859'
p3
sS'data_id'
p4
S'3032'
p5
sS'ip'
p6
S'68caf753a98483aa8f8b9f741c3481c6'
p7
sS'phone_B'
p8
S'xx4c92fa395236c5f596393908dc05ed05'
p9
sS'phone_C'
p10
S'xx05987d638af1ce55320b3964a5e03230'
p11
sS'phone_A'
p12
S'xx24ad24448523bcc8b540cc7eac639428'
p13
sS'user_agent'
p14
S'Mozilla/5.0 (Linux; Android 4.3; X9007 Build/JLS36C) AppleWebKit/537.36 (KHTML, like Gecko) Version/4.0 Chrome/37.0.0.0 Mobile MQQBrowser/6.8 TBS/036849 Safari/537.36 MicroMessenger/6.3.27.880 NetType/cmnet Language/zh_CN'
p15
sS'ua'
p16
S'0a669c870617ec1bdc10eb5f7b13a88a'
p17
sa(dp18
g2
S'33859'
p19
sg4
S'3051'
p20
sg6
S'68caf753a98483aa8f8b9f741c3481c6'
p21
sg8
S'xx4c92fa395236c5f596393908dc05ed05'
p22
sg10
S'xx05987d638af1ce55320b3964a5e03230'
p23
sg12
S'xx24ad24448523bcc8b540cc7eac639428'
p24
sg14
S'Mozilla/5.0 (Linux; Android 4.3; X9007 Build/JLS36C) AppleWebKit/537.36 (KHTML, like Gecko) Version/4.0 Chrome/37.0.0.0 Mobile MQQBrowser/6.8 TBS/036849 Safari/537.36 MicroMessenger/6.3.27.880 NetType/cmnet Language/zh_CN'
p25
sg16
S'0a669c870617ec1bdc10eb5f7b13a88a'
p26
sa.