(lp0
(dp1
S'user_id'
p2
S'49426'
p3
sS'data_id'
p4
S'3887'
p5
sS'ip'
p6
S'0bccc9bd92cec250153f52f822777683'
p7
sS'phone_B'
p8
S'xx11712b11acb82071a237e03b48b45435'
p9
sS'phone_C'
p10
S'xx22423b398df6520f04b840312b6817b6'
p11
sS'phone_A'
p12
S'xx25e02915dca38cb759000bbd2240b1e1'
p13
sS'user_agent'
p14
S'Mozilla/5.0 (Linux; Android 4.4.2; Coolpad 8690_T00 Build/KOT49H) AppleWebKit/537.36 (KHTML, like Gecko) Version/4.0 Chrome/37.0.0.0 Mobile MQQBrowser/6.8 TBS/036824 Safari/537.36 MicroMessenger/6.3.27.880 NetType/WIFI Language/zh_CN'
p15
sS'ua'
p16
S'fd40816a6bcad525193f80dd07f0408b'
p17
sa(dp18
g2
S'49426'
p19
sg4
S'3910'
p20
sg6
S'0bccc9bd92cec250153f52f822777683'
p21
sg8
S'xx11712b11acb82071a237e03b48b45435'
p22
sg10
S'xx22423b398df6520f04b840312b6817b6'
p23
sg12
S'xx25e02915dca38cb759000bbd2240b1e1'
p24
sg14
S'Mozilla/5.0 (Linux; Android 4.4.2; Coolpad 8690_T00 Build/KOT49H) AppleWebKit/537.36 (KHTML, like Gecko) Version/4.0 Chrome/37.0.0.0 Mobile MQQBrowser/6.8 TBS/036824 Safari/537.36 MicroMessenger/6.3.27.880 NetType/WIFI Language/zh_CN'
p25
sg16
S'fd40816a6bcad525193f80dd07f0408b'
p26
sa.