(lp0
(dp1
S'user_id'
p2
S'49109'
p3
sS'data_id'
p4
S'5151'
p5
sS'ip'
p6
S'912aa21bed4a03bc5f6e9ca2abcae2c5'
p7
sS'phone_B'
p8
S'xxb9059f80a08881885de064a5079b28f3'
p9
sS'phone_C'
p10
S'xx7ee850a15eb31f2b34978e56015c717a'
p11
sS'phone_A'
p12
S'xx2685867ee1453664f5d2dd849c12f630'
p13
sS'user_agent'
p14
S'Mozilla/5.0 (Linux; Android 4.4.4; Coolpad Y90 Build/KTU84P) AppleWebKit/537.36 (KHTML, like Gecko) Version/4.0 Chrome/37.0.0.0 Mobile MQQBrowser/6.8 TBS/036849 Safari/537.36 MicroMessenger/6.3.27.880 NetType/cmnet Language/zh_CN'
p15
sS'ua'
p16
S'e7550ba3af47eadf0bb4cf149a80aa41'
p17
sa(dp18
g2
S'49109'
p19
sg4
S'5168'
p20
sg6
S'912aa21bed4a03bc5f6e9ca2abcae2c5'
p21
sg8
S'xxb9059f80a08881885de064a5079b28f3'
p22
sg10
S'xx7ee850a15eb31f2b34978e56015c717a'
p23
sg12
S'xx2685867ee1453664f5d2dd849c12f630'
p24
sg14
S'Mozilla/5.0 (Linux; Android 4.4.4; Coolpad Y90 Build/KTU84P) AppleWebKit/537.36 (KHTML, like Gecko) Version/4.0 Chrome/37.0.0.0 Mobile MQQBrowser/6.8 TBS/036849 Safari/537.36 MicroMessenger/6.3.27.880 NetType/cmnet Language/zh_CN'
p25
sg16
S'e7550ba3af47eadf0bb4cf149a80aa41'
p26
sa(dp27
g2
S'49109'
p28
sg4
S'5187'
p29
sg6
S'912aa21bed4a03bc5f6e9ca2abcae2c5'
p30
sg8
S'xxb9059f80a08881885de064a5079b28f3'
p31
sg10
S'xx7ee850a15eb31f2b34978e56015c717a'
p32
sg12
S'xx2685867ee1453664f5d2dd849c12f630'
p33
sg14
S'Mozilla/5.0 (Linux; Android 4.4.4; Coolpad Y90 Build/KTU84P) AppleWebKit/537.36 (KHTML, like Gecko) Version/4.0 Chrome/37.0.0.0 Mobile MQQBrowser/6.8 TBS/036849 Safari/537.36 MicroMessenger/6.3.27.880 NetType/cmnet Language/zh_CN'
p34
sg16
S'e7550ba3af47eadf0bb4cf149a80aa41'
p35
sa.