(lp0
(dp1
S'user_id'
p2
S'20332'
p3
sS'data_id'
p4
S'41'
p5
sS'ip'
p6
S'8a4fd3c7f338c790c410d13b8e02ee22'
p7
sS'phone_B'
p8
S'xx39f58fe8420c95988b4923f4ecec2d7b'
p9
sS'phone_C'
p10
S'xx72999533ad0b2519baee41025ec716c1'
p11
sS'phone_A'
p12
S'xx278c162870272e6bac7959868624ab3c'
p13
sS'user_agent'
p14
S'Mozilla/5.0 (Linux; Android 5.1; WP_V2 Build/LMY47D) AppleWebKit/537.36 (KHTML, like Gecko) Version/4.0 Chrome/37.0.0.0 Mobile MQQBrowser/6.8 TBS/036824 Safari/537.36 MicroMessenger/6.3.27.880 NetType/cmnet Language/zh_CN'
p15
sS'ua'
p16
S'b622612dc16fe6b65e9d332fd0fdf7a7'
p17
sa(dp18
g2
S'20332'
p19
sg4
S'503'
p20
sg6
S'8a4fd3c7f338c790c410d13b8e02ee22'
p21
sg8
S'xx39f58fe8420c95988b4923f4ecec2d7b'
p22
sg10
S'xx72999533ad0b2519baee41025ec716c1'
p23
sg12
S'xx278c162870272e6bac7959868624ab3c'
p24
sg14
S'Mozilla/5.0 (Linux; Android 5.1; WP_V2 Build/LMY47D) AppleWebKit/537.36 (KHTML, like Gecko) Version/4.0 Chrome/37.0.0.0 Mobile MQQBrowser/6.8 TBS/036824 Safari/537.36 MicroMessenger/6.3.27.880 NetType/cmnet Language/zh_CN'
p25
sg16
S'b622612dc16fe6b65e9d332fd0fdf7a7'
p26
sa(dp27
g2
S'20332'
p28
sg4
S'516'
p29
sg6
S'8a4fd3c7f338c790c410d13b8e02ee22'
p30
sg8
S'xx39f58fe8420c95988b4923f4ecec2d7b'
p31
sg10
S'xx72999533ad0b2519baee41025ec716c1'
p32
sg12
S'xx278c162870272e6bac7959868624ab3c'
p33
sg14
S'Mozilla/5.0 (Linux; Android 5.1; WP_V2 Build/LMY47D) AppleWebKit/537.36 (KHTML, like Gecko) Version/4.0 Chrome/37.0.0.0 Mobile MQQBrowser/6.8 TBS/036824 Safari/537.36 MicroMessenger/6.3.27.880 NetType/cmnet Language/zh_CN'
p34
sg16
S'b622612dc16fe6b65e9d332fd0fdf7a7'
p35
sa(dp36
g2
S'20332'
p37
sg4
S'1018'
p38
sg6
S'8a4fd3c7f338c790c410d13b8e02ee22'
p39
sg8
S'xx39f58fe8420c95988b4923f4ecec2d7b'
p40
sg10
S'xx72999533ad0b2519baee41025ec716c1'
p41
sg12
S'xx278c162870272e6bac7959868624ab3c'
p42
sg14
S'Mozilla/5.0 (Linux; Android 5.1; WP_V2 Build/LMY47D) AppleWebKit/537.36 (KHTML, like Gecko) Version/4.0 Chrome/37.0.0.0 Mobile MQQBrowser/6.8 TBS/036824 Safari/537.36 MicroMessenger/6.3.27.880 NetType/cmnet Language/zh_CN'
p43
sg16
S'b622612dc16fe6b65e9d332fd0fdf7a7'
p44
sa(dp45
g2
S'43104'
p46
sg4
S'1126'
p47
sg6
S'5b48c78089c6f21a864d9e71cbaf0c9d'
p48
sg8
S'xxdf51be01d8e80fa215da5783bf744a1e'
p49
sg10
S'xxee8c9af14ebad53f4510645f71e5b59f'
p50
sg12
S'xx278c162870272e6bac7959868624ab3c'
p51
sg14
S'Mozilla/5.0 (Linux; Android 5.1; WP_V2 Build/LMY47D) AppleWebKit/537.36 (KHTML, like Gecko) Version/4.0 Chrome/39.0.0.0 Mobile Safari/537.36 MicroMessenger/6.3.27.880 NetType/WIFI Language/zh_CN'
p52
sg16
S'3f528128cb168897f0c9377e4d2905c0'
p53
sa(dp54
g2
S'43104'
p55
sg4
S'1147'
p56
sg6
S'5b48c78089c6f21a864d9e71cbaf0c9d'
p57
sg8
S'xxdf51be01d8e80fa215da5783bf744a1e'
p58
sg10
S'xxee8c9af14ebad53f4510645f71e5b59f'
p59
sg12
S'xx278c162870272e6bac7959868624ab3c'
p60
sg14
S'Mozilla/5.0 (Linux; Android 5.1; WP_V2 Build/LMY47D) AppleWebKit/537.36 (KHTML, like Gecko) Version/4.0 Chrome/39.0.0.0 Mobile Safari/537.36 MicroMessenger/6.3.27.880 NetType/WIFI Language/zh_CN'
p61
sg16
S'3f528128cb168897f0c9377e4d2905c0'
p62
sa(dp63
g2
S'5450'
p64
sg4
S'1227'
p65
sg6
S'5b48c78089c6f21a864d9e71cbaf0c9d'
p66
sg8
S'xx336df4556b39efa0b1e289f0c8ef4527'
p67
sg10
S'xx908bf547724305c5350bdee33b4fd8bf'
p68
sg12
S'xx278c162870272e6bac7959868624ab3c'
p69
sg14
S'Mozilla/5.0 (Linux; Android 5.1; WP_V2 Build/LMY47D) AppleWebKit/537.36 (KHTML, like Gecko) Version/4.0 Chrome/37.0.0.0 Mobile MQQBrowser/6.8 TBS/036849 Safari/537.36 MicroMessenger/6.3.27.880 NetType/WIFI Language/zh_CN'
p70
sg16
S'6e5d91d9361b08404a4e33ac3d42e79a'
p71
sa(dp72
g2
S'5450'
p73
sg4
S'1243'
p74
sg6
S'5b48c78089c6f21a864d9e71cbaf0c9d'
p75
sg8
S'xx336df4556b39efa0b1e289f0c8ef4527'
p76
sg10
S'xx908bf547724305c5350bdee33b4fd8bf'
p77
sg12
S'xx278c162870272e6bac7959868624ab3c'
p78
sg14
S'Mozilla/5.0 (Linux; Android 5.1; WP_V2 Build/LMY47D) AppleWebKit/537.36 (KHTML, like Gecko) Version/4.0 Chrome/37.0.0.0 Mobile MQQBrowser/6.8 TBS/036849 Safari/537.36 MicroMessenger/6.3.27.880 NetType/WIFI Language/zh_CN'
p79
sg16
S'6e5d91d9361b08404a4e33ac3d42e79a'
p80
sa(dp81
g2
S'43104'
p82
sg4
S'2501'
p83
sg6
S'5b48c78089c6f21a864d9e71cbaf0c9d'
p84
sg8
S'xxdf51be01d8e80fa215da5783bf744a1e'
p85
sg10
S'xxee8c9af14ebad53f4510645f71e5b59f'
p86
sg12
S'xx278c162870272e6bac7959868624ab3c'
p87
sg14
S'Mozilla/5.0 (Linux; Android 5.1; WP_V2 Build/LMY47D) AppleWebKit/537.36 (KHTML, like Gecko) Version/4.0 Chrome/39.0.0.0 Mobile Safari/537.36 MicroMessenger/6.3.27.880 NetType/WIFI Language/zh_CN'
p88
sg16
S'3f528128cb168897f0c9377e4d2905c0'
p89
sa(dp90
g2
S'43104'
p91
sg4
S'2526'
p92
sg6
S'5b48c78089c6f21a864d9e71cbaf0c9d'
p93
sg8
S'xxdf51be01d8e80fa215da5783bf744a1e'
p94
sg10
S'xxee8c9af14ebad53f4510645f71e5b59f'
p95
sg12
S'xx278c162870272e6bac7959868624ab3c'
p96
sg14
S'Mozilla/5.0 (Linux; Android 5.1; WP_V2 Build/LMY47D) AppleWebKit/537.36 (KHTML, like Gecko) Version/4.0 Chrome/39.0.0.0 Mobile Safari/537.36 MicroMessenger/6.3.27.880 NetType/WIFI Language/zh_CN'
p97
sg16
S'3f528128cb168897f0c9377e4d2905c0'
p98
sa(dp99
g2
S'43104'
p100
sg4
S'2572'
p101
sg6
S'5b48c78089c6f21a864d9e71cbaf0c9d'
p102
sg8
S'xxdf51be01d8e80fa215da5783bf744a1e'
p103
sg10
S'xxee8c9af14ebad53f4510645f71e5b59f'
p104
sg12
S'xx278c162870272e6bac7959868624ab3c'
p105
sg14
S'Mozilla/5.0 (Linux; Android 5.1; WP_V2 Build/LMY47D) AppleWebKit/537.36 (KHTML, like Gecko) Version/4.0 Chrome/39.0.0.0 Mobile Safari/537.36 MicroMessenger/6.3.27.880 NetType/WIFI Language/zh_CN'
p106
sg16
S'3f528128cb168897f0c9377e4d2905c0'
p107
sa(dp108
g2
S'43104'
p109
sg4
S'2834'
p110
sg6
S'5b48c78089c6f21a864d9e71cbaf0c9d'
p111
sg8
S'xxdf51be01d8e80fa215da5783bf744a1e'
p112
sg10
S'xxee8c9af14ebad53f4510645f71e5b59f'
p113
sg12
S'xx278c162870272e6bac7959868624ab3c'
p114
sg14
S'Mozilla/5.0 (Linux; Android 5.1; WP_V2 Build/LMY47D) AppleWebKit/537.36 (KHTML, like Gecko) Version/4.0 Chrome/39.0.0.0 Mobile Safari/537.36 MicroMessenger/6.3.27.880 NetType/WIFI Language/zh_CN'
p115
sg16
S'3f528128cb168897f0c9377e4d2905c0'
p116
sa(dp117
g2
S'43104'
p118
sg4
S'3124'
p119
sg6
S'5b48c78089c6f21a864d9e71cbaf0c9d'
p120
sg8
S'xxdf51be01d8e80fa215da5783bf744a1e'
p121
sg10
S'xxee8c9af14ebad53f4510645f71e5b59f'
p122
sg12
S'xx278c162870272e6bac7959868624ab3c'
p123
sg14
S'Mozilla/5.0 (Linux; Android 5.1; WP_V2 Build/LMY47D) AppleWebKit/537.36 (KHTML, like Gecko) Version/4.0 Chrome/39.0.0.0 Mobile Safari/537.36 MicroMessenger/6.3.27.880 NetType/WIFI Language/zh_CN'
p124
sg16
S'3f528128cb168897f0c9377e4d2905c0'
p125
sa(dp126
g2
S'43104'
p127
sg4
S'3141'
p128
sg6
S'5b48c78089c6f21a864d9e71cbaf0c9d'
p129
sg8
S'xxdf51be01d8e80fa215da5783bf744a1e'
p130
sg10
S'xxee8c9af14ebad53f4510645f71e5b59f'
p131
sg12
S'xx278c162870272e6bac7959868624ab3c'
p132
sg14
S'Mozilla/5.0 (Linux; Android 5.1; WP_V2 Build/LMY47D) AppleWebKit/537.36 (KHTML, like Gecko) Version/4.0 Chrome/39.0.0.0 Mobile Safari/537.36 MicroMessenger/6.3.27.880 NetType/WIFI Language/zh_CN'
p133
sg16
S'3f528128cb168897f0c9377e4d2905c0'
p134
sa(dp135
g2
S'43104'
p136
sg4
S'3165'
p137
sg6
S'5b48c78089c6f21a864d9e71cbaf0c9d'
p138
sg8
S'xxdf51be01d8e80fa215da5783bf744a1e'
p139
sg10
S'xxee8c9af14ebad53f4510645f71e5b59f'
p140
sg12
S'xx278c162870272e6bac7959868624ab3c'
p141
sg14
S'Mozilla/5.0 (Linux; Android 5.1; WP_V2 Build/LMY47D) AppleWebKit/537.36 (KHTML, like Gecko) Version/4.0 Chrome/39.0.0.0 Mobile Safari/537.36 MicroMessenger/6.3.27.880 NetType/WIFI Language/zh_CN'
p142
sg16
S'3f528128cb168897f0c9377e4d2905c0'
p143
sa(dp144
g2
S'43104'
p145
sg4
S'3179'
p146
sg6
S'5b48c78089c6f21a864d9e71cbaf0c9d'
p147
sg8
S'xxdf51be01d8e80fa215da5783bf744a1e'
p148
sg10
S'xxee8c9af14ebad53f4510645f71e5b59f'
p149
sg12
S'xx278c162870272e6bac7959868624ab3c'
p150
sg14
S'Mozilla/5.0 (Linux; Android 5.1; WP_V2 Build/LMY47D) AppleWebKit/537.36 (KHTML, like Gecko) Version/4.0 Chrome/39.0.0.0 Mobile Safari/537.36 MicroMessenger/6.3.27.880 NetType/WIFI Language/zh_CN'
p151
sg16
S'3f528128cb168897f0c9377e4d2905c0'
p152
sa(dp153
g2
S'43104'
p154
sg4
S'3196'
p155
sg6
S'5b48c78089c6f21a864d9e71cbaf0c9d'
p156
sg8
S'xxdf51be01d8e80fa215da5783bf744a1e'
p157
sg10
S'xxee8c9af14ebad53f4510645f71e5b59f'
p158
sg12
S'xx278c162870272e6bac7959868624ab3c'
p159
sg14
S'Mozilla/5.0 (Linux; Android 5.1; WP_V2 Build/LMY47D) AppleWebKit/537.36 (KHTML, like Gecko) Version/4.0 Chrome/39.0.0.0 Mobile Safari/537.36 MicroMessenger/6.3.27.880 NetType/WIFI Language/zh_CN'
p160
sg16
S'3f528128cb168897f0c9377e4d2905c0'
p161
sa(dp162
g2
S'28291'
p163
sg4
S'3679'
p164
sg6
S'8a4fd3c7f338c790c410d13b8e02ee22'
p165
sg8
S'xx39f58fe8420c95988b4923f4ecec2d7b'
p166
sg10
S'xx72999533ad0b2519baee41025ec716c1'
p167
sg12
S'xx278c162870272e6bac7959868624ab3c'
p168
sg14
S'Mozilla/5.0 (Linux; Android 5.1; WP_V2 Build/LMY47D) AppleWebKit/537.36 (KHTML, like Gecko) Version/4.0 Chrome/37.0.0.0 Mobile MQQBrowser/6.8 TBS/036824 Safari/537.36 MicroMessenger/6.3.27.880 NetType/cmnet Language/zh_CN'
p169
sg16
S'b622612dc16fe6b65e9d332fd0fdf7a7'
p170
sa(dp171
g2
S'43104'
p172
sg4
S'4502'
p173
sg6
S'5b48c78089c6f21a864d9e71cbaf0c9d'
p174
sg8
S'xxdf51be01d8e80fa215da5783bf744a1e'
p175
sg10
S'xxee8c9af14ebad53f4510645f71e5b59f'
p176
sg12
S'xx278c162870272e6bac7959868624ab3c'
p177
sg14
S'Mozilla/5.0 (Linux; Android 5.1; WP_V2 Build/LMY47D) AppleWebKit/537.36 (KHTML, like Gecko) Version/4.0 Chrome/39.0.0.0 Mobile Safari/537.36 MicroMessenger/6.3.27.880 NetType/WIFI Language/zh_CN'
p178
sg16
S'3f528128cb168897f0c9377e4d2905c0'
p179
sa(dp180
g2
S'43104'
p181
sg4
S'4525'
p182
sg6
S'5b48c78089c6f21a864d9e71cbaf0c9d'
p183
sg8
S'xxdf51be01d8e80fa215da5783bf744a1e'
p184
sg10
S'xxee8c9af14ebad53f4510645f71e5b59f'
p185
sg12
S'xx278c162870272e6bac7959868624ab3c'
p186
sg14
S'Mozilla/5.0 (Linux; Android 5.1; WP_V2 Build/LMY47D) AppleWebKit/537.36 (KHTML, like Gecko) Version/4.0 Chrome/39.0.0.0 Mobile Safari/537.36 MicroMessenger/6.3.27.880 NetType/WIFI Language/zh_CN'
p187
sg16
S'3f528128cb168897f0c9377e4d2905c0'
p188
sa(dp189
g2
S'43104'
p190
sg4
S'4560'
p191
sg6
S'5b48c78089c6f21a864d9e71cbaf0c9d'
p192
sg8
S'xxdf51be01d8e80fa215da5783bf744a1e'
p193
sg10
S'xxee8c9af14ebad53f4510645f71e5b59f'
p194
sg12
S'xx278c162870272e6bac7959868624ab3c'
p195
sg14
S'Mozilla/5.0 (Linux; Android 5.1; WP_V2 Build/LMY47D) AppleWebKit/537.36 (KHTML, like Gecko) Version/4.0 Chrome/39.0.0.0 Mobile Safari/537.36 MicroMessenger/6.3.27.880 NetType/WIFI Language/zh_CN'
p196
sg16
S'3f528128cb168897f0c9377e4d2905c0'
p197
sa(dp198
g2
S'43104'
p199
sg4
S'4586'
p200
sg6
S'5b48c78089c6f21a864d9e71cbaf0c9d'
p201
sg8
S'xxdf51be01d8e80fa215da5783bf744a1e'
p202
sg10
S'xxee8c9af14ebad53f4510645f71e5b59f'
p203
sg12
S'xx278c162870272e6bac7959868624ab3c'
p204
sg14
S'Mozilla/5.0 (Linux; Android 5.1; WP_V2 Build/LMY47D) AppleWebKit/537.36 (KHTML, like Gecko) Version/4.0 Chrome/39.0.0.0 Mobile Safari/537.36 MicroMessenger/6.3.27.880 NetType/WIFI Language/zh_CN'
p205
sg16
S'3f528128cb168897f0c9377e4d2905c0'
p206
sa(dp207
g2
S'43104'
p208
sg4
S'4605'
p209
sg6
S'5b48c78089c6f21a864d9e71cbaf0c9d'
p210
sg8
S'xxdf51be01d8e80fa215da5783bf744a1e'
p211
sg10
S'xxee8c9af14ebad53f4510645f71e5b59f'
p212
sg12
S'xx278c162870272e6bac7959868624ab3c'
p213
sg14
S'Mozilla/5.0 (Linux; Android 5.1; WP_V2 Build/LMY47D) AppleWebKit/537.36 (KHTML, like Gecko) Version/4.0 Chrome/39.0.0.0 Mobile Safari/537.36 MicroMessenger/6.3.27.880 NetType/WIFI Language/zh_CN'
p214
sg16
S'3f528128cb168897f0c9377e4d2905c0'
p215
sa(dp216
g2
S'43104'
p217
sg4
S'4618'
p218
sg6
S'5b48c78089c6f21a864d9e71cbaf0c9d'
p219
sg8
S'xxdf51be01d8e80fa215da5783bf744a1e'
p220
sg10
S'xxee8c9af14ebad53f4510645f71e5b59f'
p221
sg12
S'xx278c162870272e6bac7959868624ab3c'
p222
sg14
S'Mozilla/5.0 (Linux; Android 5.1; WP_V2 Build/LMY47D) AppleWebKit/537.36 (KHTML, like Gecko) Version/4.0 Chrome/39.0.0.0 Mobile Safari/537.36 MicroMessenger/6.3.27.880 NetType/WIFI Language/zh_CN'
p223
sg16
S'3f528128cb168897f0c9377e4d2905c0'
p224
sa(dp225
g2
S'43104'
p226
sg4
S'4957'
p227
sg6
S'5b48c78089c6f21a864d9e71cbaf0c9d'
p228
sg8
S'xxdf51be01d8e80fa215da5783bf744a1e'
p229
sg10
S'xxee8c9af14ebad53f4510645f71e5b59f'
p230
sg12
S'xx278c162870272e6bac7959868624ab3c'
p231
sg14
S'Mozilla/5.0 (Linux; Android 5.1; WP_V2 Build/LMY47D) AppleWebKit/537.36 (KHTML, like Gecko) Version/4.0 Chrome/39.0.0.0 Mobile Safari/537.36 MicroMessenger/6.3.27.880 NetType/WIFI Language/zh_CN'
p232
sg16
S'3f528128cb168897f0c9377e4d2905c0'
p233
sa(dp234
g2
S'43104'
p235
sg4
S'5132'
p236
sg6
S'5b48c78089c6f21a864d9e71cbaf0c9d'
p237
sg8
S'xxdf51be01d8e80fa215da5783bf744a1e'
p238
sg10
S'xxee8c9af14ebad53f4510645f71e5b59f'
p239
sg12
S'xx278c162870272e6bac7959868624ab3c'
p240
sg14
S'Mozilla/5.0 (Linux; Android 5.1; WP_V2 Build/LMY47D) AppleWebKit/537.36 (KHTML, like Gecko) Version/4.0 Chrome/39.0.0.0 Mobile Safari/537.36 MicroMessenger/6.3.27.880 NetType/WIFI Language/zh_CN'
p241
sg16
S'3f528128cb168897f0c9377e4d2905c0'
p242
sa(dp243
g2
S'43104'
p244
sg4
S'5170'
p245
sg6
S'5b48c78089c6f21a864d9e71cbaf0c9d'
p246
sg8
S'xxdf51be01d8e80fa215da5783bf744a1e'
p247
sg10
S'xxee8c9af14ebad53f4510645f71e5b59f'
p248
sg12
S'xx278c162870272e6bac7959868624ab3c'
p249
sg14
S'Mozilla/5.0 (Linux; Android 5.1; WP_V2 Build/LMY47D) AppleWebKit/537.36 (KHTML, like Gecko) Version/4.0 Chrome/39.0.0.0 Mobile Safari/537.36 MicroMessenger/6.3.27.880 NetType/WIFI Language/zh_CN'
p250
sg16
S'3f528128cb168897f0c9377e4d2905c0'
p251
sa(dp252
g2
S'43104'
p253
sg4
S'5189'
p254
sg6
S'5b48c78089c6f21a864d9e71cbaf0c9d'
p255
sg8
S'xxdf51be01d8e80fa215da5783bf744a1e'
p256
sg10
S'xxee8c9af14ebad53f4510645f71e5b59f'
p257
sg12
S'xx278c162870272e6bac7959868624ab3c'
p258
sg14
S'Mozilla/5.0 (Linux; Android 5.1; WP_V2 Build/LMY47D) AppleWebKit/537.36 (KHTML, like Gecko) Version/4.0 Chrome/39.0.0.0 Mobile Safari/537.36 MicroMessenger/6.3.27.880 NetType/WIFI Language/zh_CN'
p259
sg16
S'3f528128cb168897f0c9377e4d2905c0'
p260
sa(dp261
g2
S'43104'
p262
sg4
S'6047'
p263
sg6
S'5b48c78089c6f21a864d9e71cbaf0c9d'
p264
sg8
S'xxdf51be01d8e80fa215da5783bf744a1e'
p265
sg10
S'xxee8c9af14ebad53f4510645f71e5b59f'
p266
sg12
S'xx278c162870272e6bac7959868624ab3c'
p267
sg14
S'Mozilla/5.0 (Linux; Android 5.1; WP_V2 Build/LMY47D) AppleWebKit/537.36 (KHTML, like Gecko) Version/4.0 Chrome/39.0.0.0 Mobile Safari/537.36 MicroMessenger/6.3.27.880 NetType/WIFI Language/zh_CN'
p268
sg16
S'3f528128cb168897f0c9377e4d2905c0'
p269
sa(dp270
g2
S'4595'
p271
sg4
S'7445'
p272
sg6
S'd66c95a4c1c7aa3ad1fe1162a8491ff3'
p273
sg8
S'xx7a9370a1f1b3ce17d444213da7c9d659'
p274
sg10
S'xx5b896e7332cd15a0a1e7ec85569e20e9'
p275
sg12
S'xx278c162870272e6bac7959868624ab3c'
p276
sg14
S'Mozilla/5.0 (Linux; Android 5.1; WP_V2 Build/LMY47D) AppleWebKit/537.36 (KHTML, like Gecko) Version/4.0 Chrome/37.0.0.0 Mobile MQQBrowser/6.8 TBS/036869 Safari/537.36 MicroMessenger/6.3.27.880 NetType/WIFI Language/zh_CN'
p277
sg16
S'c022a685bf97c45f611d95d6d7404d8e'
p278
sa(dp279
g2
S'4595'
p280
sg4
S'7460'
p281
sg6
S'd66c95a4c1c7aa3ad1fe1162a8491ff3'
p282
sg8
S'xx7a9370a1f1b3ce17d444213da7c9d659'
p283
sg10
S'xx5b896e7332cd15a0a1e7ec85569e20e9'
p284
sg12
S'xx278c162870272e6bac7959868624ab3c'
p285
sg14
S'Mozilla/5.0 (Linux; Android 5.1; WP_V2 Build/LMY47D) AppleWebKit/537.36 (KHTML, like Gecko) Version/4.0 Chrome/37.0.0.0 Mobile MQQBrowser/6.8 TBS/036869 Safari/537.36 MicroMessenger/6.3.27.880 NetType/WIFI Language/zh_CN'
p286
sg16
S'c022a685bf97c45f611d95d6d7404d8e'
p287
sa(dp288
g2
S'4595'
p289
sg4
S'7482'
p290
sg6
S'd66c95a4c1c7aa3ad1fe1162a8491ff3'
p291
sg8
S'xx7a9370a1f1b3ce17d444213da7c9d659'
p292
sg10
S'xx5b896e7332cd15a0a1e7ec85569e20e9'
p293
sg12
S'xx278c162870272e6bac7959868624ab3c'
p294
sg14
S'Mozilla/5.0 (Linux; Android 5.1; WP_V2 Build/LMY47D) AppleWebKit/537.36 (KHTML, like Gecko) Version/4.0 Chrome/37.0.0.0 Mobile MQQBrowser/6.8 TBS/036869 Safari/537.36 MicroMessenger/6.3.27.880 NetType/WIFI Language/zh_CN'
p295
sg16
S'c022a685bf97c45f611d95d6d7404d8e'
p296
sa(dp297
g2
S'4595'
p298
sg4
S'7496'
p299
sg6
S'd66c95a4c1c7aa3ad1fe1162a8491ff3'
p300
sg8
S'xx7a9370a1f1b3ce17d444213da7c9d659'
p301
sg10
S'xx5b896e7332cd15a0a1e7ec85569e20e9'
p302
sg12
S'xx278c162870272e6bac7959868624ab3c'
p303
sg14
S'Mozilla/5.0 (Linux; Android 5.1; WP_V2 Build/LMY47D) AppleWebKit/537.36 (KHTML, like Gecko) Version/4.0 Chrome/37.0.0.0 Mobile MQQBrowser/6.8 TBS/036869 Safari/537.36 MicroMessenger/6.3.27.880 NetType/WIFI Language/zh_CN'
p304
sg16
S'c022a685bf97c45f611d95d6d7404d8e'
p305
sa(dp306
g2
S'4595'
p307
sg4
S'7622'
p308
sg6
S'd66c95a4c1c7aa3ad1fe1162a8491ff3'
p309
sg8
S'xx7a9370a1f1b3ce17d444213da7c9d659'
p310
sg10
S'xx5b896e7332cd15a0a1e7ec85569e20e9'
p311
sg12
S'xx278c162870272e6bac7959868624ab3c'
p312
sg14
S'Mozilla/5.0 (Linux; Android 5.1; WP_V2 Build/LMY47D) AppleWebKit/537.36 (KHTML, like Gecko) Version/4.0 Chrome/37.0.0.0 Mobile MQQBrowser/6.8 TBS/036869 Safari/537.36 MicroMessenger/6.3.27.880 NetType/WIFI Language/zh_CN'
p313
sg16
S'c022a685bf97c45f611d95d6d7404d8e'
p314
sa(dp315
g2
S'4595'
p316
sg4
S'7634'
p317
sg6
S'd66c95a4c1c7aa3ad1fe1162a8491ff3'
p318
sg8
S'xx7a9370a1f1b3ce17d444213da7c9d659'
p319
sg10
S'xx5b896e7332cd15a0a1e7ec85569e20e9'
p320
sg12
S'xx278c162870272e6bac7959868624ab3c'
p321
sg14
S'Mozilla/5.0 (Linux; Android 5.1; WP_V2 Build/LMY47D) AppleWebKit/537.36 (KHTML, like Gecko) Version/4.0 Chrome/37.0.0.0 Mobile MQQBrowser/6.8 TBS/036869 Safari/537.36 MicroMessenger/6.3.27.880 NetType/WIFI Language/zh_CN'
p322
sg16
S'c022a685bf97c45f611d95d6d7404d8e'
p323
sa(dp324
g2
S'32578'
p325
sg4
S'7811'
p326
sg6
S'd66c95a4c1c7aa3ad1fe1162a8491ff3'
p327
sg8
S'xx288736afed4a5eaea99043371b406cab'
p328
sg10
S'xx0cd7a6f2e85b8e05fb014b9b634a62b4'
p329
sg12
S'xx278c162870272e6bac7959868624ab3c'
p330
sg14
S'Mozilla/5.0 (Linux; Android 5.1; WP_V2 Build/LMY47D) AppleWebKit/537.36 (KHTML, like Gecko) Version/4.0 Chrome/37.0.0.0 Mobile MQQBrowser/6.8 TBS/036869 Safari/537.36 MicroMessenger/6.3.27.880 NetType/WIFI Language/zh_CN'
p331
sg16
S'c022a685bf97c45f611d95d6d7404d8e'
p332
sa(dp333
g2
S'32578'
p334
sg4
S'7818'
p335
sg6
S'd66c95a4c1c7aa3ad1fe1162a8491ff3'
p336
sg8
S'xx288736afed4a5eaea99043371b406cab'
p337
sg10
S'xx0cd7a6f2e85b8e05fb014b9b634a62b4'
p338
sg12
S'xx278c162870272e6bac7959868624ab3c'
p339
sg14
S'Mozilla/5.0 (Linux; Android 5.1; WP_V2 Build/LMY47D) AppleWebKit/537.36 (KHTML, like Gecko) Version/4.0 Chrome/37.0.0.0 Mobile MQQBrowser/6.8 TBS/036869 Safari/537.36 MicroMessenger/6.3.27.880 NetType/WIFI Language/zh_CN'
p340
sg16
S'c022a685bf97c45f611d95d6d7404d8e'
p341
sa(dp342
g2
S'32578'
p343
sg4
S'7824'
p344
sg6
S'd66c95a4c1c7aa3ad1fe1162a8491ff3'
p345
sg8
S'xx288736afed4a5eaea99043371b406cab'
p346
sg10
S'xx0cd7a6f2e85b8e05fb014b9b634a62b4'
p347
sg12
S'xx278c162870272e6bac7959868624ab3c'
p348
sg14
S'Mozilla/5.0 (Linux; Android 5.1; WP_V2 Build/LMY47D) AppleWebKit/537.36 (KHTML, like Gecko) Version/4.0 Chrome/37.0.0.0 Mobile MQQBrowser/6.8 TBS/036869 Safari/537.36 MicroMessenger/6.3.27.880 NetType/WIFI Language/zh_CN'
p349
sg16
S'c022a685bf97c45f611d95d6d7404d8e'
p350
sa(dp351
g2
S'33637'
p352
sg4
S'8092'
p353
sg6
S'd66c95a4c1c7aa3ad1fe1162a8491ff3'
p354
sg8
S'xx288736afed4a5eaea99043371b406cab'
p355
sg10
S'xx0cd7a6f2e85b8e05fb014b9b634a62b4'
p356
sg12
S'xx278c162870272e6bac7959868624ab3c'
p357
sg14
S'Mozilla/5.0 (Linux; Android 5.1; WP_V2 Build/LMY47D) AppleWebKit/537.36 (KHTML, like Gecko) Version/4.0 Chrome/37.0.0.0 Mobile MQQBrowser/6.8 TBS/036869 Safari/537.36 MicroMessenger/6.3.27.880 NetType/WIFI Language/zh_CN'
p358
sg16
S'c022a685bf97c45f611d95d6d7404d8e'
p359
sa(dp360
g2
S'33637'
p361
sg4
S'8109'
p362
sg6
S'd66c95a4c1c7aa3ad1fe1162a8491ff3'
p363
sg8
S'xx288736afed4a5eaea99043371b406cab'
p364
sg10
S'xx0cd7a6f2e85b8e05fb014b9b634a62b4'
p365
sg12
S'xx278c162870272e6bac7959868624ab3c'
p366
sg14
S'Mozilla/5.0 (Linux; Android 5.1; WP_V2 Build/LMY47D) AppleWebKit/537.36 (KHTML, like Gecko) Version/4.0 Chrome/37.0.0.0 Mobile MQQBrowser/6.8 TBS/036869 Safari/537.36 MicroMessenger/6.3.27.880 NetType/WIFI Language/zh_CN'
p367
sg16
S'c022a685bf97c45f611d95d6d7404d8e'
p368
sa(dp369
g2
S'33625'
p370
sg4
S'8453'
p371
sg6
S'd66c95a4c1c7aa3ad1fe1162a8491ff3'
p372
sg8
S'xx288736afed4a5eaea99043371b406cab'
p373
sg10
S'xx0cd7a6f2e85b8e05fb014b9b634a62b4'
p374
sg12
S'xx278c162870272e6bac7959868624ab3c'
p375
sg14
S'Mozilla/5.0 (Linux; Android 5.1; WP_V2 Build/LMY47D) AppleWebKit/537.36 (KHTML, like Gecko) Version/4.0 Chrome/37.0.0.0 Mobile MQQBrowser/6.8 TBS/036869 Safari/537.36 MicroMessenger/6.3.27.880 NetType/WIFI Language/zh_CN'
p376
sg16
S'c022a685bf97c45f611d95d6d7404d8e'
p377
sa(dp378
g2
S'33625'
p379
sg4
S'8468'
p380
sg6
S'd66c95a4c1c7aa3ad1fe1162a8491ff3'
p381
sg8
S'xx288736afed4a5eaea99043371b406cab'
p382
sg10
S'xx0cd7a6f2e85b8e05fb014b9b634a62b4'
p383
sg12
S'xx278c162870272e6bac7959868624ab3c'
p384
sg14
S'Mozilla/5.0 (Linux; Android 5.1; WP_V2 Build/LMY47D) AppleWebKit/537.36 (KHTML, like Gecko) Version/4.0 Chrome/37.0.0.0 Mobile MQQBrowser/6.8 TBS/036869 Safari/537.36 MicroMessenger/6.3.27.880 NetType/WIFI Language/zh_CN'
p385
sg16
S'c022a685bf97c45f611d95d6d7404d8e'
p386
sa(dp387
g2
S'4595'
p388
sg4
S'8729'
p389
sg6
S'd66c95a4c1c7aa3ad1fe1162a8491ff3'
p390
sg8
S'xx7a9370a1f1b3ce17d444213da7c9d659'
p391
sg10
S'xx5b896e7332cd15a0a1e7ec85569e20e9'
p392
sg12
S'xx278c162870272e6bac7959868624ab3c'
p393
sg14
S'Mozilla/5.0 (Linux; Android 5.1; WP_V2 Build/LMY47D) AppleWebKit/537.36 (KHTML, like Gecko) Version/4.0 Chrome/37.0.0.0 Mobile MQQBrowser/6.8 TBS/036869 Safari/537.36 MicroMessenger/6.3.27.880 NetType/WIFI Language/zh_CN'
p394
sg16
S'c022a685bf97c45f611d95d6d7404d8e'
p395
sa(dp396
g2
S'4595'
p397
sg4
S'8743'
p398
sg6
S'd66c95a4c1c7aa3ad1fe1162a8491ff3'
p399
sg8
S'xx7a9370a1f1b3ce17d444213da7c9d659'
p400
sg10
S'xx5b896e7332cd15a0a1e7ec85569e20e9'
p401
sg12
S'xx278c162870272e6bac7959868624ab3c'
p402
sg14
S'Mozilla/5.0 (Linux; Android 5.1; WP_V2 Build/LMY47D) AppleWebKit/537.36 (KHTML, like Gecko) Version/4.0 Chrome/37.0.0.0 Mobile MQQBrowser/6.8 TBS/036869 Safari/537.36 MicroMessenger/6.3.27.880 NetType/WIFI Language/zh_CN'
p403
sg16
S'c022a685bf97c45f611d95d6d7404d8e'
p404
sa.