(lp0
(dp1
S'user_id'
p2
S'44827'
p3
sS'data_id'
p4
S'240'
p5
sS'ip'
p6
S'b1600bdca2a74f5f77f8758d9e6f829f'
p7
sS'phone_B'
p8
S'xx311deb8d3c203ab3be72863ea5170221'
p9
sS'phone_C'
p10
S'xx5ba6e83ab19ca3a94d39ebfc36eb8d6b'
p11
sS'phone_A'
p12
S'xx28bb0bca72f8136dc896c0477386b47c'
p13
sS'user_agent'
p14
S'Mozilla/5.0 (Linux; Android 4.4.4; HM NOTE 1S Build/KTU84P) AppleWebKit/537.36 (KHTML, like Gecko) Version/4.0 Chrome/37.0.0.0 Mobile MQQBrowser/6.8 TBS/036865 Safari/537.36 MicroMessenger/6.3.27.880 NetType/WIFI Language/zh_CN'
p15
sS'ua'
p16
S'9c2ab98bbdd34ad93d961a9e37f55148'
p17
sa(dp18
g2
S'43364'
p19
sg4
S'323'
p20
sg6
S'3b329cfce90cf1535808562e8f7e1a5d'
p21
sg8
S'xxe026effa6cffa41e9350a9c5cd0a509c'
p22
sg10
S'xx5ba6e83ab19ca3a94d39ebfc36eb8d6b'
p23
sg12
S'xx28bb0bca72f8136dc896c0477386b47c'
p24
sg14
S'Mozilla/5.0 (Linux; Android 4.4.4; HM NOTE 1S Build/KTU84P) AppleWebKit/537.36 (KHTML, like Gecko) Version/4.0 Chrome/37.0.0.0 Mobile MQQBrowser/6.8 TBS/036869 Safari/537.36 MicroMessenger/6.3.27.880 NetType/WIFI Language/zh_CN'
p25
sg16
S'e9601ae84135a9d157eaf645ba85f10e'
p26
sa(dp27
g2
S'43364'
p28
sg4
S'338'
p29
sg6
S'3b329cfce90cf1535808562e8f7e1a5d'
p30
sg8
S'xxe026effa6cffa41e9350a9c5cd0a509c'
p31
sg10
S'xx5ba6e83ab19ca3a94d39ebfc36eb8d6b'
p32
sg12
S'xx28bb0bca72f8136dc896c0477386b47c'
p33
sg14
S'Mozilla/5.0 (Linux; Android 4.4.4; HM NOTE 1S Build/KTU84P) AppleWebKit/537.36 (KHTML, like Gecko) Version/4.0 Chrome/37.0.0.0 Mobile MQQBrowser/6.8 TBS/036869 Safari/537.36 MicroMessenger/6.3.27.880 NetType/WIFI Language/zh_CN'
p34
sg16
S'e9601ae84135a9d157eaf645ba85f10e'
p35
sa(dp36
g2
S'43364'
p37
sg4
S'354'
p38
sg6
S'3b329cfce90cf1535808562e8f7e1a5d'
p39
sg8
S'xxe026effa6cffa41e9350a9c5cd0a509c'
p40
sg10
S'xx5ba6e83ab19ca3a94d39ebfc36eb8d6b'
p41
sg12
S'xx28bb0bca72f8136dc896c0477386b47c'
p42
sg14
S'Mozilla/5.0 (Linux; Android 4.4.4; HM NOTE 1S Build/KTU84P) AppleWebKit/537.36 (KHTML, like Gecko) Version/4.0 Chrome/37.0.0.0 Mobile MQQBrowser/6.8 TBS/036869 Safari/537.36 MicroMessenger/6.3.27.880 NetType/WIFI Language/zh_CN'
p43
sg16
S'e9601ae84135a9d157eaf645ba85f10e'
p44
sa(dp45
g2
S'44827'
p46
sg4
S'686'
p47
sg6
S'b1600bdca2a74f5f77f8758d9e6f829f'
p48
sg8
S'xx311deb8d3c203ab3be72863ea5170221'
p49
sg10
S'xx5ba6e83ab19ca3a94d39ebfc36eb8d6b'
p50
sg12
S'xx28bb0bca72f8136dc896c0477386b47c'
p51
sg14
S'Mozilla/5.0 (Linux; Android 4.4.4; HM NOTE 1S Build/KTU84P) AppleWebKit/537.36 (KHTML, like Gecko) Version/4.0 Chrome/37.0.0.0 Mobile MQQBrowser/6.8 TBS/036865 Safari/537.36 MicroMessenger/6.3.27.880 NetType/WIFI Language/zh_CN'
p52
sg16
S'9c2ab98bbdd34ad93d961a9e37f55148'
p53
sa(dp54
g2
S'44827'
p55
sg4
S'718'
p56
sg6
S'b1600bdca2a74f5f77f8758d9e6f829f'
p57
sg8
S'xx311deb8d3c203ab3be72863ea5170221'
p58
sg10
S'xx5ba6e83ab19ca3a94d39ebfc36eb8d6b'
p59
sg12
S'xx28bb0bca72f8136dc896c0477386b47c'
p60
sg14
S'Mozilla/5.0 (Linux; Android 4.4.4; HM NOTE 1S Build/KTU84P) AppleWebKit/537.36 (KHTML, like Gecko) Version/4.0 Chrome/37.0.0.0 Mobile MQQBrowser/6.8 TBS/036865 Safari/537.36 MicroMessenger/6.3.27.880 NetType/WIFI Language/zh_CN'
p61
sg16
S'9c2ab98bbdd34ad93d961a9e37f55148'
p62
sa(dp63
g2
S'44827'
p64
sg4
S'731'
p65
sg6
S'b1600bdca2a74f5f77f8758d9e6f829f'
p66
sg8
S'xx311deb8d3c203ab3be72863ea5170221'
p67
sg10
S'xx5ba6e83ab19ca3a94d39ebfc36eb8d6b'
p68
sg12
S'xx28bb0bca72f8136dc896c0477386b47c'
p69
sg14
S'Mozilla/5.0 (Linux; Android 4.4.4; HM NOTE 1S Build/KTU84P) AppleWebKit/537.36 (KHTML, like Gecko) Version/4.0 Chrome/37.0.0.0 Mobile MQQBrowser/6.8 TBS/036865 Safari/537.36 MicroMessenger/6.3.27.880 NetType/WIFI Language/zh_CN'
p70
sg16
S'9c2ab98bbdd34ad93d961a9e37f55148'
p71
sa(dp72
g2
S'44827'
p73
sg4
S'743'
p74
sg6
S'b1600bdca2a74f5f77f8758d9e6f829f'
p75
sg8
S'xx311deb8d3c203ab3be72863ea5170221'
p76
sg10
S'xx5ba6e83ab19ca3a94d39ebfc36eb8d6b'
p77
sg12
S'xx28bb0bca72f8136dc896c0477386b47c'
p78
sg14
S'Mozilla/5.0 (Linux; Android 4.4.4; HM NOTE 1S Build/KTU84P) AppleWebKit/537.36 (KHTML, like Gecko) Version/4.0 Chrome/37.0.0.0 Mobile MQQBrowser/6.8 TBS/036865 Safari/537.36 MicroMessenger/6.3.27.880 NetType/WIFI Language/zh_CN'
p79
sg16
S'9c2ab98bbdd34ad93d961a9e37f55148'
p80
sa(dp81
g2
S'44827'
p82
sg4
S'754'
p83
sg6
S'b1600bdca2a74f5f77f8758d9e6f829f'
p84
sg8
S'xx311deb8d3c203ab3be72863ea5170221'
p85
sg10
S'xx5ba6e83ab19ca3a94d39ebfc36eb8d6b'
p86
sg12
S'xx28bb0bca72f8136dc896c0477386b47c'
p87
sg14
S'Mozilla/5.0 (Linux; Android 4.4.4; HM NOTE 1S Build/KTU84P) AppleWebKit/537.36 (KHTML, like Gecko) Version/4.0 Chrome/37.0.0.0 Mobile MQQBrowser/6.8 TBS/036865 Safari/537.36 MicroMessenger/6.3.27.880 NetType/WIFI Language/zh_CN'
p88
sg16
S'9c2ab98bbdd34ad93d961a9e37f55148'
p89
sa(dp90
g2
S'44827'
p91
sg4
S'764'
p92
sg6
S'b1600bdca2a74f5f77f8758d9e6f829f'
p93
sg8
S'xx311deb8d3c203ab3be72863ea5170221'
p94
sg10
S'xx5ba6e83ab19ca3a94d39ebfc36eb8d6b'
p95
sg12
S'xx28bb0bca72f8136dc896c0477386b47c'
p96
sg14
S'Mozilla/5.0 (Linux; Android 4.4.4; HM NOTE 1S Build/KTU84P) AppleWebKit/537.36 (KHTML, like Gecko) Version/4.0 Chrome/37.0.0.0 Mobile MQQBrowser/6.8 TBS/036865 Safari/537.36 MicroMessenger/6.3.27.880 NetType/WIFI Language/zh_CN'
p97
sg16
S'9c2ab98bbdd34ad93d961a9e37f55148'
p98
sa(dp99
g2
S'44827'
p100
sg4
S'775'
p101
sg6
S'b1600bdca2a74f5f77f8758d9e6f829f'
p102
sg8
S'xx311deb8d3c203ab3be72863ea5170221'
p103
sg10
S'xx5ba6e83ab19ca3a94d39ebfc36eb8d6b'
p104
sg12
S'xx28bb0bca72f8136dc896c0477386b47c'
p105
sg14
S'Mozilla/5.0 (Linux; Android 4.4.4; HM NOTE 1S Build/KTU84P) AppleWebKit/537.36 (KHTML, like Gecko) Version/4.0 Chrome/37.0.0.0 Mobile MQQBrowser/6.8 TBS/036865 Safari/537.36 MicroMessenger/6.3.27.880 NetType/WIFI Language/zh_CN'
p106
sg16
S'9c2ab98bbdd34ad93d961a9e37f55148'
p107
sa(dp108
g2
S'44827'
p109
sg4
S'784'
p110
sg6
S'b1600bdca2a74f5f77f8758d9e6f829f'
p111
sg8
S'xx311deb8d3c203ab3be72863ea5170221'
p112
sg10
S'xx5ba6e83ab19ca3a94d39ebfc36eb8d6b'
p113
sg12
S'xx28bb0bca72f8136dc896c0477386b47c'
p114
sg14
S'Mozilla/5.0 (Linux; Android 4.4.4; HM NOTE 1S Build/KTU84P) AppleWebKit/537.36 (KHTML, like Gecko) Version/4.0 Chrome/37.0.0.0 Mobile MQQBrowser/6.8 TBS/036865 Safari/537.36 MicroMessenger/6.3.27.880 NetType/WIFI Language/zh_CN'
p115
sg16
S'9c2ab98bbdd34ad93d961a9e37f55148'
p116
sa(dp117
g2
S'44827'
p118
sg4
S'800'
p119
sg6
S'b1600bdca2a74f5f77f8758d9e6f829f'
p120
sg8
S'xx311deb8d3c203ab3be72863ea5170221'
p121
sg10
S'xx5ba6e83ab19ca3a94d39ebfc36eb8d6b'
p122
sg12
S'xx28bb0bca72f8136dc896c0477386b47c'
p123
sg14
S'Mozilla/5.0 (Linux; Android 4.4.4; HM NOTE 1S Build/KTU84P) AppleWebKit/537.36 (KHTML, like Gecko) Version/4.0 Chrome/37.0.0.0 Mobile MQQBrowser/6.8 TBS/036865 Safari/537.36 MicroMessenger/6.3.27.880 NetType/WIFI Language/zh_CN'
p124
sg16
S'9c2ab98bbdd34ad93d961a9e37f55148'
p125
sa(dp126
g2
S'44827'
p127
sg4
S'817'
p128
sg6
S'b1600bdca2a74f5f77f8758d9e6f829f'
p129
sg8
S'xx311deb8d3c203ab3be72863ea5170221'
p130
sg10
S'xx5ba6e83ab19ca3a94d39ebfc36eb8d6b'
p131
sg12
S'xx28bb0bca72f8136dc896c0477386b47c'
p132
sg14
S'Mozilla/5.0 (Linux; Android 4.4.4; HM NOTE 1S Build/KTU84P) AppleWebKit/537.36 (KHTML, like Gecko) Version/4.0 Chrome/37.0.0.0 Mobile MQQBrowser/6.8 TBS/036865 Safari/537.36 MicroMessenger/6.3.27.880 NetType/WIFI Language/zh_CN'
p133
sg16
S'9c2ab98bbdd34ad93d961a9e37f55148'
p134
sa(dp135
g2
S'44827'
p136
sg4
S'830'
p137
sg6
S'b1600bdca2a74f5f77f8758d9e6f829f'
p138
sg8
S'xx311deb8d3c203ab3be72863ea5170221'
p139
sg10
S'xx5ba6e83ab19ca3a94d39ebfc36eb8d6b'
p140
sg12
S'xx28bb0bca72f8136dc896c0477386b47c'
p141
sg14
S'Mozilla/5.0 (Linux; Android 4.4.4; HM NOTE 1S Build/KTU84P) AppleWebKit/537.36 (KHTML, like Gecko) Version/4.0 Chrome/37.0.0.0 Mobile MQQBrowser/6.8 TBS/036865 Safari/537.36 MicroMessenger/6.3.27.880 NetType/WIFI Language/zh_CN'
p142
sg16
S'9c2ab98bbdd34ad93d961a9e37f55148'
p143
sa(dp144
g2
S'44827'
p145
sg4
S'844'
p146
sg6
S'b1600bdca2a74f5f77f8758d9e6f829f'
p147
sg8
S'xx311deb8d3c203ab3be72863ea5170221'
p148
sg10
S'xx5ba6e83ab19ca3a94d39ebfc36eb8d6b'
p149
sg12
S'xx28bb0bca72f8136dc896c0477386b47c'
p150
sg14
S'Mozilla/5.0 (Linux; Android 4.4.4; HM NOTE 1S Build/KTU84P) AppleWebKit/537.36 (KHTML, like Gecko) Version/4.0 Chrome/37.0.0.0 Mobile MQQBrowser/6.8 TBS/036865 Safari/537.36 MicroMessenger/6.3.27.880 NetType/WIFI Language/zh_CN'
p151
sg16
S'9c2ab98bbdd34ad93d961a9e37f55148'
p152
sa(dp153
g2
S'44827'
p154
sg4
S'864'
p155
sg6
S'b1600bdca2a74f5f77f8758d9e6f829f'
p156
sg8
S'xx311deb8d3c203ab3be72863ea5170221'
p157
sg10
S'xx5ba6e83ab19ca3a94d39ebfc36eb8d6b'
p158
sg12
S'xx28bb0bca72f8136dc896c0477386b47c'
p159
sg14
S'Mozilla/5.0 (Linux; Android 4.4.4; HM NOTE 1S Build/KTU84P) AppleWebKit/537.36 (KHTML, like Gecko) Version/4.0 Chrome/37.0.0.0 Mobile MQQBrowser/6.8 TBS/036865 Safari/537.36 MicroMessenger/6.3.27.880 NetType/WIFI Language/zh_CN'
p160
sg16
S'9c2ab98bbdd34ad93d961a9e37f55148'
p161
sa(dp162
g2
S'44827'
p163
sg4
S'889'
p164
sg6
S'b1600bdca2a74f5f77f8758d9e6f829f'
p165
sg8
S'xx311deb8d3c203ab3be72863ea5170221'
p166
sg10
S'xx5ba6e83ab19ca3a94d39ebfc36eb8d6b'
p167
sg12
S'xx28bb0bca72f8136dc896c0477386b47c'
p168
sg14
S'Mozilla/5.0 (Linux; Android 4.4.4; HM NOTE 1S Build/KTU84P) AppleWebKit/537.36 (KHTML, like Gecko) Version/4.0 Chrome/37.0.0.0 Mobile MQQBrowser/6.8 TBS/036865 Safari/537.36 MicroMessenger/6.3.27.880 NetType/WIFI Language/zh_CN'
p169
sg16
S'9c2ab98bbdd34ad93d961a9e37f55148'
p170
sa(dp171
g2
S'44827'
p172
sg4
S'909'
p173
sg6
S'b1600bdca2a74f5f77f8758d9e6f829f'
p174
sg8
S'xx311deb8d3c203ab3be72863ea5170221'
p175
sg10
S'xx5ba6e83ab19ca3a94d39ebfc36eb8d6b'
p176
sg12
S'xx28bb0bca72f8136dc896c0477386b47c'
p177
sg14
S'Mozilla/5.0 (Linux; Android 4.4.4; HM NOTE 1S Build/KTU84P) AppleWebKit/537.36 (KHTML, like Gecko) Version/4.0 Chrome/37.0.0.0 Mobile MQQBrowser/6.8 TBS/036865 Safari/537.36 MicroMessenger/6.3.27.880 NetType/WIFI Language/zh_CN'
p178
sg16
S'9c2ab98bbdd34ad93d961a9e37f55148'
p179
sa(dp180
g2
S'44827'
p181
sg4
S'925'
p182
sg6
S'b1600bdca2a74f5f77f8758d9e6f829f'
p183
sg8
S'xx311deb8d3c203ab3be72863ea5170221'
p184
sg10
S'xx5ba6e83ab19ca3a94d39ebfc36eb8d6b'
p185
sg12
S'xx28bb0bca72f8136dc896c0477386b47c'
p186
sg14
S'Mozilla/5.0 (Linux; Android 4.4.4; HM NOTE 1S Build/KTU84P) AppleWebKit/537.36 (KHTML, like Gecko) Version/4.0 Chrome/37.0.0.0 Mobile MQQBrowser/6.8 TBS/036865 Safari/537.36 MicroMessenger/6.3.27.880 NetType/WIFI Language/zh_CN'
p187
sg16
S'9c2ab98bbdd34ad93d961a9e37f55148'
p188
sa(dp189
g2
S'44827'
p190
sg4
S'941'
p191
sg6
S'b1600bdca2a74f5f77f8758d9e6f829f'
p192
sg8
S'xx311deb8d3c203ab3be72863ea5170221'
p193
sg10
S'xx5ba6e83ab19ca3a94d39ebfc36eb8d6b'
p194
sg12
S'xx28bb0bca72f8136dc896c0477386b47c'
p195
sg14
S'Mozilla/5.0 (Linux; Android 4.4.4; HM NOTE 1S Build/KTU84P) AppleWebKit/537.36 (KHTML, like Gecko) Version/4.0 Chrome/37.0.0.0 Mobile MQQBrowser/6.8 TBS/036865 Safari/537.36 MicroMessenger/6.3.27.880 NetType/WIFI Language/zh_CN'
p196
sg16
S'9c2ab98bbdd34ad93d961a9e37f55148'
p197
sa(dp198
g2
S'44827'
p199
sg4
S'960'
p200
sg6
S'b1600bdca2a74f5f77f8758d9e6f829f'
p201
sg8
S'xx311deb8d3c203ab3be72863ea5170221'
p202
sg10
S'xx5ba6e83ab19ca3a94d39ebfc36eb8d6b'
p203
sg12
S'xx28bb0bca72f8136dc896c0477386b47c'
p204
sg14
S'Mozilla/5.0 (Linux; Android 4.4.4; HM NOTE 1S Build/KTU84P) AppleWebKit/537.36 (KHTML, like Gecko) Version/4.0 Chrome/37.0.0.0 Mobile MQQBrowser/6.8 TBS/036865 Safari/537.36 MicroMessenger/6.3.27.880 NetType/WIFI Language/zh_CN'
p205
sg16
S'9c2ab98bbdd34ad93d961a9e37f55148'
p206
sa(dp207
g2
S'44827'
p208
sg4
S'978'
p209
sg6
S'b1600bdca2a74f5f77f8758d9e6f829f'
p210
sg8
S'xx311deb8d3c203ab3be72863ea5170221'
p211
sg10
S'xx5ba6e83ab19ca3a94d39ebfc36eb8d6b'
p212
sg12
S'xx28bb0bca72f8136dc896c0477386b47c'
p213
sg14
S'Mozilla/5.0 (Linux; Android 4.4.4; HM NOTE 1S Build/KTU84P) AppleWebKit/537.36 (KHTML, like Gecko) Version/4.0 Chrome/37.0.0.0 Mobile MQQBrowser/6.8 TBS/036865 Safari/537.36 MicroMessenger/6.3.27.880 NetType/WIFI Language/zh_CN'
p214
sg16
S'9c2ab98bbdd34ad93d961a9e37f55148'
p215
sa(dp216
g2
S'44827'
p217
sg4
S'994'
p218
sg6
S'b1600bdca2a74f5f77f8758d9e6f829f'
p219
sg8
S'xx311deb8d3c203ab3be72863ea5170221'
p220
sg10
S'xx5ba6e83ab19ca3a94d39ebfc36eb8d6b'
p221
sg12
S'xx28bb0bca72f8136dc896c0477386b47c'
p222
sg14
S'Mozilla/5.0 (Linux; Android 4.4.4; HM NOTE 1S Build/KTU84P) AppleWebKit/537.36 (KHTML, like Gecko) Version/4.0 Chrome/37.0.0.0 Mobile MQQBrowser/6.8 TBS/036865 Safari/537.36 MicroMessenger/6.3.27.880 NetType/WIFI Language/zh_CN'
p223
sg16
S'9c2ab98bbdd34ad93d961a9e37f55148'
p224
sa(dp225
g2
S'44827'
p226
sg4
S'1010'
p227
sg6
S'b1600bdca2a74f5f77f8758d9e6f829f'
p228
sg8
S'xx311deb8d3c203ab3be72863ea5170221'
p229
sg10
S'xx5ba6e83ab19ca3a94d39ebfc36eb8d6b'
p230
sg12
S'xx28bb0bca72f8136dc896c0477386b47c'
p231
sg14
S'Mozilla/5.0 (Linux; Android 4.4.4; HM NOTE 1S Build/KTU84P) AppleWebKit/537.36 (KHTML, like Gecko) Version/4.0 Chrome/37.0.0.0 Mobile MQQBrowser/6.8 TBS/036865 Safari/537.36 MicroMessenger/6.3.27.880 NetType/WIFI Language/zh_CN'
p232
sg16
S'9c2ab98bbdd34ad93d961a9e37f55148'
p233
sa(dp234
g2
S'44827'
p235
sg4
S'1024'
p236
sg6
S'b1600bdca2a74f5f77f8758d9e6f829f'
p237
sg8
S'xx311deb8d3c203ab3be72863ea5170221'
p238
sg10
S'xx5ba6e83ab19ca3a94d39ebfc36eb8d6b'
p239
sg12
S'xx28bb0bca72f8136dc896c0477386b47c'
p240
sg14
S'Mozilla/5.0 (Linux; Android 4.4.4; HM NOTE 1S Build/KTU84P) AppleWebKit/537.36 (KHTML, like Gecko) Version/4.0 Chrome/37.0.0.0 Mobile MQQBrowser/6.8 TBS/036865 Safari/537.36 MicroMessenger/6.3.27.880 NetType/WIFI Language/zh_CN'
p241
sg16
S'9c2ab98bbdd34ad93d961a9e37f55148'
p242
sa(dp243
g2
S'44827'
p244
sg4
S'1048'
p245
sg6
S'b1600bdca2a74f5f77f8758d9e6f829f'
p246
sg8
S'xx311deb8d3c203ab3be72863ea5170221'
p247
sg10
S'xx5ba6e83ab19ca3a94d39ebfc36eb8d6b'
p248
sg12
S'xx28bb0bca72f8136dc896c0477386b47c'
p249
sg14
S'Mozilla/5.0 (Linux; Android 4.4.4; HM NOTE 1S Build/KTU84P) AppleWebKit/537.36 (KHTML, like Gecko) Version/4.0 Chrome/37.0.0.0 Mobile MQQBrowser/6.8 TBS/036865 Safari/537.36 MicroMessenger/6.3.27.880 NetType/WIFI Language/zh_CN'
p250
sg16
S'9c2ab98bbdd34ad93d961a9e37f55148'
p251
sa(dp252
g2
S'44827'
p253
sg4
S'1068'
p254
sg6
S'b1600bdca2a74f5f77f8758d9e6f829f'
p255
sg8
S'xx311deb8d3c203ab3be72863ea5170221'
p256
sg10
S'xx5ba6e83ab19ca3a94d39ebfc36eb8d6b'
p257
sg12
S'xx28bb0bca72f8136dc896c0477386b47c'
p258
sg14
S'Mozilla/5.0 (Linux; Android 4.4.4; HM NOTE 1S Build/KTU84P) AppleWebKit/537.36 (KHTML, like Gecko) Version/4.0 Chrome/37.0.0.0 Mobile MQQBrowser/6.8 TBS/036865 Safari/537.36 MicroMessenger/6.3.27.880 NetType/WIFI Language/zh_CN'
p259
sg16
S'9c2ab98bbdd34ad93d961a9e37f55148'
p260
sa(dp261
g2
S'44827'
p262
sg4
S'1086'
p263
sg6
S'b1600bdca2a74f5f77f8758d9e6f829f'
p264
sg8
S'xx311deb8d3c203ab3be72863ea5170221'
p265
sg10
S'xx5ba6e83ab19ca3a94d39ebfc36eb8d6b'
p266
sg12
S'xx28bb0bca72f8136dc896c0477386b47c'
p267
sg14
S'Mozilla/5.0 (Linux; Android 4.4.4; HM NOTE 1S Build/KTU84P) AppleWebKit/537.36 (KHTML, like Gecko) Version/4.0 Chrome/37.0.0.0 Mobile MQQBrowser/6.8 TBS/036865 Safari/537.36 MicroMessenger/6.3.27.880 NetType/WIFI Language/zh_CN'
p268
sg16
S'9c2ab98bbdd34ad93d961a9e37f55148'
p269
sa(dp270
g2
S'44827'
p271
sg4
S'1104'
p272
sg6
S'b1600bdca2a74f5f77f8758d9e6f829f'
p273
sg8
S'xx311deb8d3c203ab3be72863ea5170221'
p274
sg10
S'xx5ba6e83ab19ca3a94d39ebfc36eb8d6b'
p275
sg12
S'xx28bb0bca72f8136dc896c0477386b47c'
p276
sg14
S'Mozilla/5.0 (Linux; Android 4.4.4; HM NOTE 1S Build/KTU84P) AppleWebKit/537.36 (KHTML, like Gecko) Version/4.0 Chrome/37.0.0.0 Mobile MQQBrowser/6.8 TBS/036865 Safari/537.36 MicroMessenger/6.3.27.880 NetType/WIFI Language/zh_CN'
p277
sg16
S'9c2ab98bbdd34ad93d961a9e37f55148'
p278
sa(dp279
g2
S'44827'
p280
sg4
S'1122'
p281
sg6
S'b1600bdca2a74f5f77f8758d9e6f829f'
p282
sg8
S'xx311deb8d3c203ab3be72863ea5170221'
p283
sg10
S'xx5ba6e83ab19ca3a94d39ebfc36eb8d6b'
p284
sg12
S'xx28bb0bca72f8136dc896c0477386b47c'
p285
sg14
S'Mozilla/5.0 (Linux; Android 4.4.4; HM NOTE 1S Build/KTU84P) AppleWebKit/537.36 (KHTML, like Gecko) Version/4.0 Chrome/37.0.0.0 Mobile MQQBrowser/6.8 TBS/036865 Safari/537.36 MicroMessenger/6.3.27.880 NetType/WIFI Language/zh_CN'
p286
sg16
S'9c2ab98bbdd34ad93d961a9e37f55148'
p287
sa(dp288
g2
S'44827'
p289
sg4
S'1133'
p290
sg6
S'b1600bdca2a74f5f77f8758d9e6f829f'
p291
sg8
S'xx311deb8d3c203ab3be72863ea5170221'
p292
sg10
S'xx5ba6e83ab19ca3a94d39ebfc36eb8d6b'
p293
sg12
S'xx28bb0bca72f8136dc896c0477386b47c'
p294
sg14
S'Mozilla/5.0 (Linux; Android 4.4.4; HM NOTE 1S Build/KTU84P) AppleWebKit/537.36 (KHTML, like Gecko) Version/4.0 Chrome/37.0.0.0 Mobile MQQBrowser/6.8 TBS/036865 Safari/537.36 MicroMessenger/6.3.27.880 NetType/WIFI Language/zh_CN'
p295
sg16
S'9c2ab98bbdd34ad93d961a9e37f55148'
p296
sa(dp297
g2
S'44827'
p298
sg4
S'1150'
p299
sg6
S'b1600bdca2a74f5f77f8758d9e6f829f'
p300
sg8
S'xx311deb8d3c203ab3be72863ea5170221'
p301
sg10
S'xx5ba6e83ab19ca3a94d39ebfc36eb8d6b'
p302
sg12
S'xx28bb0bca72f8136dc896c0477386b47c'
p303
sg14
S'Mozilla/5.0 (Linux; Android 4.4.4; HM NOTE 1S Build/KTU84P) AppleWebKit/537.36 (KHTML, like Gecko) Version/4.0 Chrome/37.0.0.0 Mobile MQQBrowser/6.8 TBS/036865 Safari/537.36 MicroMessenger/6.3.27.880 NetType/WIFI Language/zh_CN'
p304
sg16
S'9c2ab98bbdd34ad93d961a9e37f55148'
p305
sa(dp306
g2
S'44827'
p307
sg4
S'1171'
p308
sg6
S'b1600bdca2a74f5f77f8758d9e6f829f'
p309
sg8
S'xx311deb8d3c203ab3be72863ea5170221'
p310
sg10
S'xx5ba6e83ab19ca3a94d39ebfc36eb8d6b'
p311
sg12
S'xx28bb0bca72f8136dc896c0477386b47c'
p312
sg14
S'Mozilla/5.0 (Linux; Android 4.4.4; HM NOTE 1S Build/KTU84P) AppleWebKit/537.36 (KHTML, like Gecko) Version/4.0 Chrome/37.0.0.0 Mobile MQQBrowser/6.8 TBS/036865 Safari/537.36 MicroMessenger/6.3.27.880 NetType/WIFI Language/zh_CN'
p313
sg16
S'9c2ab98bbdd34ad93d961a9e37f55148'
p314
sa(dp315
g2
S'44827'
p316
sg4
S'1182'
p317
sg6
S'b1600bdca2a74f5f77f8758d9e6f829f'
p318
sg8
S'xx311deb8d3c203ab3be72863ea5170221'
p319
sg10
S'xx5ba6e83ab19ca3a94d39ebfc36eb8d6b'
p320
sg12
S'xx28bb0bca72f8136dc896c0477386b47c'
p321
sg14
S'Mozilla/5.0 (Linux; Android 4.4.4; HM NOTE 1S Build/KTU84P) AppleWebKit/537.36 (KHTML, like Gecko) Version/4.0 Chrome/37.0.0.0 Mobile MQQBrowser/6.8 TBS/036865 Safari/537.36 MicroMessenger/6.3.27.880 NetType/WIFI Language/zh_CN'
p322
sg16
S'9c2ab98bbdd34ad93d961a9e37f55148'
p323
sa(dp324
g2
S'44827'
p325
sg4
S'1191'
p326
sg6
S'b1600bdca2a74f5f77f8758d9e6f829f'
p327
sg8
S'xx311deb8d3c203ab3be72863ea5170221'
p328
sg10
S'xx5ba6e83ab19ca3a94d39ebfc36eb8d6b'
p329
sg12
S'xx28bb0bca72f8136dc896c0477386b47c'
p330
sg14
S'Mozilla/5.0 (Linux; Android 4.4.4; HM NOTE 1S Build/KTU84P) AppleWebKit/537.36 (KHTML, like Gecko) Version/4.0 Chrome/37.0.0.0 Mobile MQQBrowser/6.8 TBS/036865 Safari/537.36 MicroMessenger/6.3.27.880 NetType/WIFI Language/zh_CN'
p331
sg16
S'9c2ab98bbdd34ad93d961a9e37f55148'
p332
sa(dp333
g2
S'44827'
p334
sg4
S'1205'
p335
sg6
S'b1600bdca2a74f5f77f8758d9e6f829f'
p336
sg8
S'xx311deb8d3c203ab3be72863ea5170221'
p337
sg10
S'xx5ba6e83ab19ca3a94d39ebfc36eb8d6b'
p338
sg12
S'xx28bb0bca72f8136dc896c0477386b47c'
p339
sg14
S'Mozilla/5.0 (Linux; Android 4.4.4; HM NOTE 1S Build/KTU84P) AppleWebKit/537.36 (KHTML, like Gecko) Version/4.0 Chrome/37.0.0.0 Mobile MQQBrowser/6.8 TBS/036865 Safari/537.36 MicroMessenger/6.3.27.880 NetType/WIFI Language/zh_CN'
p340
sg16
S'9c2ab98bbdd34ad93d961a9e37f55148'
p341
sa(dp342
g2
S'44827'
p343
sg4
S'1221'
p344
sg6
S'b1600bdca2a74f5f77f8758d9e6f829f'
p345
sg8
S'xx311deb8d3c203ab3be72863ea5170221'
p346
sg10
S'xx5ba6e83ab19ca3a94d39ebfc36eb8d6b'
p347
sg12
S'xx28bb0bca72f8136dc896c0477386b47c'
p348
sg14
S'Mozilla/5.0 (Linux; Android 4.4.4; HM NOTE 1S Build/KTU84P) AppleWebKit/537.36 (KHTML, like Gecko) Version/4.0 Chrome/37.0.0.0 Mobile MQQBrowser/6.8 TBS/036865 Safari/537.36 MicroMessenger/6.3.27.880 NetType/WIFI Language/zh_CN'
p349
sg16
S'9c2ab98bbdd34ad93d961a9e37f55148'
p350
sa(dp351
g2
S'44827'
p352
sg4
S'1237'
p353
sg6
S'b1600bdca2a74f5f77f8758d9e6f829f'
p354
sg8
S'xx311deb8d3c203ab3be72863ea5170221'
p355
sg10
S'xx5ba6e83ab19ca3a94d39ebfc36eb8d6b'
p356
sg12
S'xx28bb0bca72f8136dc896c0477386b47c'
p357
sg14
S'Mozilla/5.0 (Linux; Android 4.4.4; HM NOTE 1S Build/KTU84P) AppleWebKit/537.36 (KHTML, like Gecko) Version/4.0 Chrome/37.0.0.0 Mobile MQQBrowser/6.8 TBS/036865 Safari/537.36 MicroMessenger/6.3.27.880 NetType/WIFI Language/zh_CN'
p358
sg16
S'9c2ab98bbdd34ad93d961a9e37f55148'
p359
sa(dp360
g2
S'33360'
p361
sg4
S'1240'
p362
sg6
S'34c156f810d734131375eac471ebece3'
p363
sg8
S'xx55cdb67f553863a4fa8fd6e8b1ad3abe'
p364
sg10
S'xx05b061af4b8e431874e3030795007468'
p365
sg12
S'xx28bb0bca72f8136dc896c0477386b47c'
p366
sg14
S'Mozilla/5.0 (Linux; Android 4.4.4; HM NOTE 1S Build/KTU84P) AppleWebKit/537.36 (KHTML, like Gecko) Version/4.0 Chrome/37.0.0.0 Mobile MQQBrowser/6.8 TBS/036869 Safari/537.36 MicroMessenger/6.3.27.880 NetType/WIFI Language/zh_CN'
p367
sg16
S'e9601ae84135a9d157eaf645ba85f10e'
p368
sa(dp369
g2
S'44827'
p370
sg4
S'1250'
p371
sg6
S'b1600bdca2a74f5f77f8758d9e6f829f'
p372
sg8
S'xx311deb8d3c203ab3be72863ea5170221'
p373
sg10
S'xx5ba6e83ab19ca3a94d39ebfc36eb8d6b'
p374
sg12
S'xx28bb0bca72f8136dc896c0477386b47c'
p375
sg14
S'Mozilla/5.0 (Linux; Android 4.4.4; HM NOTE 1S Build/KTU84P) AppleWebKit/537.36 (KHTML, like Gecko) Version/4.0 Chrome/37.0.0.0 Mobile MQQBrowser/6.8 TBS/036865 Safari/537.36 MicroMessenger/6.3.27.880 NetType/WIFI Language/zh_CN'
p376
sg16
S'9c2ab98bbdd34ad93d961a9e37f55148'
p377
sa(dp378
g2
S'33360'
p379
sg4
S'1251'
p380
sg6
S'34c156f810d734131375eac471ebece3'
p381
sg8
S'xx55cdb67f553863a4fa8fd6e8b1ad3abe'
p382
sg10
S'xx05b061af4b8e431874e3030795007468'
p383
sg12
S'xx28bb0bca72f8136dc896c0477386b47c'
p384
sg14
S'Mozilla/5.0 (Linux; Android 4.4.4; HM NOTE 1S Build/KTU84P) AppleWebKit/537.36 (KHTML, like Gecko) Version/4.0 Chrome/37.0.0.0 Mobile MQQBrowser/6.8 TBS/036869 Safari/537.36 MicroMessenger/6.3.27.880 NetType/WIFI Language/zh_CN'
p385
sg16
S'e9601ae84135a9d157eaf645ba85f10e'
p386
sa(dp387
g2
S'33360'
p388
sg4
S'1262'
p389
sg6
S'34c156f810d734131375eac471ebece3'
p390
sg8
S'xx55cdb67f553863a4fa8fd6e8b1ad3abe'
p391
sg10
S'xx05b061af4b8e431874e3030795007468'
p392
sg12
S'xx28bb0bca72f8136dc896c0477386b47c'
p393
sg14
S'Mozilla/5.0 (Linux; Android 4.4.4; HM NOTE 1S Build/KTU84P) AppleWebKit/537.36 (KHTML, like Gecko) Version/4.0 Chrome/37.0.0.0 Mobile MQQBrowser/6.8 TBS/036869 Safari/537.36 MicroMessenger/6.3.27.880 NetType/WIFI Language/zh_CN'
p394
sg16
S'e9601ae84135a9d157eaf645ba85f10e'
p395
sa(dp396
g2
S'33360'
p397
sg4
S'1274'
p398
sg6
S'34c156f810d734131375eac471ebece3'
p399
sg8
S'xx55cdb67f553863a4fa8fd6e8b1ad3abe'
p400
sg10
S'xx05b061af4b8e431874e3030795007468'
p401
sg12
S'xx28bb0bca72f8136dc896c0477386b47c'
p402
sg14
S'Mozilla/5.0 (Linux; Android 4.4.4; HM NOTE 1S Build/KTU84P) AppleWebKit/537.36 (KHTML, like Gecko) Version/4.0 Chrome/37.0.0.0 Mobile MQQBrowser/6.8 TBS/036869 Safari/537.36 MicroMessenger/6.3.27.880 NetType/WIFI Language/zh_CN'
p403
sg16
S'e9601ae84135a9d157eaf645ba85f10e'
p404
sa(dp405
g2
S'33360'
p406
sg4
S'1290'
p407
sg6
S'34c156f810d734131375eac471ebece3'
p408
sg8
S'xx55cdb67f553863a4fa8fd6e8b1ad3abe'
p409
sg10
S'xx05b061af4b8e431874e3030795007468'
p410
sg12
S'xx28bb0bca72f8136dc896c0477386b47c'
p411
sg14
S'Mozilla/5.0 (Linux; Android 4.4.4; HM NOTE 1S Build/KTU84P) AppleWebKit/537.36 (KHTML, like Gecko) Version/4.0 Chrome/37.0.0.0 Mobile MQQBrowser/6.8 TBS/036869 Safari/537.36 MicroMessenger/6.3.27.880 NetType/WIFI Language/zh_CN'
p412
sg16
S'e9601ae84135a9d157eaf645ba85f10e'
p413
sa(dp414
g2
S'19201'
p415
sg4
S'1291'
p416
sg6
S'5c69fd92d88283b456ef625572ccc6c4'
p417
sg8
S'xx3a047917dec5ece90b09a0994131f914'
p418
sg10
S'xx5ba6e83ab19ca3a94d39ebfc36eb8d6b'
p419
sg12
S'xx28bb0bca72f8136dc896c0477386b47c'
p420
sg14
S'Mozilla/5.0 (Linux; Android 4.4.4; HM NOTE 1S Build/KTU84P) AppleWebKit/537.36 (KHTML, like Gecko) Version/4.0 Chrome/37.0.0.0 Mobile MQQBrowser/6.8 TBS/036849 Safari/537.36 MicroMessenger/6.3.27.880 NetType/cmnet Language/zh_CN'
p421
sg16
S'44bf1b07949f479f92bb8f6d272662f3'
p422
sa(dp423
g2
S'19201'
p424
sg4
S'1309'
p425
sg6
S'2a75b89358b4eeeb6745eed3945c5d44'
p426
sg8
S'xx3a047917dec5ece90b09a0994131f914'
p427
sg10
S'xx5ba6e83ab19ca3a94d39ebfc36eb8d6b'
p428
sg12
S'xx28bb0bca72f8136dc896c0477386b47c'
p429
sg14
S'Mozilla/5.0 (Linux; Android 4.4.4; HM NOTE 1S Build/KTU84P) AppleWebKit/537.36 (KHTML, like Gecko) Version/4.0 Chrome/37.0.0.0 Mobile MQQBrowser/6.8 TBS/036849 Safari/537.36 MicroMessenger/6.3.27.880 NetType/cmnet Language/zh_CN'
p430
sg16
S'44bf1b07949f479f92bb8f6d272662f3'
p431
sa(dp432
g2
S'19201'
p433
sg4
S'1323'
p434
sg6
S'2a75b89358b4eeeb6745eed3945c5d44'
p435
sg8
S'xx3a047917dec5ece90b09a0994131f914'
p436
sg10
S'xx5ba6e83ab19ca3a94d39ebfc36eb8d6b'
p437
sg12
S'xx28bb0bca72f8136dc896c0477386b47c'
p438
sg14
S'Mozilla/5.0 (Linux; Android 4.4.4; HM NOTE 1S Build/KTU84P) AppleWebKit/537.36 (KHTML, like Gecko) Version/4.0 Chrome/37.0.0.0 Mobile MQQBrowser/6.8 TBS/036849 Safari/537.36 MicroMessenger/6.3.27.880 NetType/cmnet Language/zh_CN'
p439
sg16
S'44bf1b07949f479f92bb8f6d272662f3'
p440
sa(dp441
g2
S'49263'
p442
sg4
S'1664'
p443
sg6
S'b1600bdca2a74f5f77f8758d9e6f829f'
p444
sg8
S'xx311deb8d3c203ab3be72863ea5170221'
p445
sg10
S'xx5ba6e83ab19ca3a94d39ebfc36eb8d6b'
p446
sg12
S'xx28bb0bca72f8136dc896c0477386b47c'
p447
sg14
S'Mozilla/5.0 (Linux; Android 4.4.4; HM NOTE 1S Build/KTU84P) AppleWebKit/537.36 (KHTML, like Gecko) Version/4.0 Chrome/37.0.0.0 Mobile MQQBrowser/6.8 TBS/036865 Safari/537.36 MicroMessenger/6.3.27.880 NetType/WIFI Language/zh_CN'
p448
sg16
S'9c2ab98bbdd34ad93d961a9e37f55148'
p449
sa(dp450
g2
S'49263'
p451
sg4
S'1677'
p452
sg6
S'b1600bdca2a74f5f77f8758d9e6f829f'
p453
sg8
S'xx311deb8d3c203ab3be72863ea5170221'
p454
sg10
S'xx5ba6e83ab19ca3a94d39ebfc36eb8d6b'
p455
sg12
S'xx28bb0bca72f8136dc896c0477386b47c'
p456
sg14
S'Mozilla/5.0 (Linux; Android 4.4.4; HM NOTE 1S Build/KTU84P) AppleWebKit/537.36 (KHTML, like Gecko) Version/4.0 Chrome/37.0.0.0 Mobile MQQBrowser/6.8 TBS/036865 Safari/537.36 MicroMessenger/6.3.27.880 NetType/WIFI Language/zh_CN'
p457
sg16
S'9c2ab98bbdd34ad93d961a9e37f55148'
p458
sa(dp459
g2
S'20004'
p460
sg4
S'3413'
p461
sg6
S'1dc889c5d6202d34a546b88afcfd9686'
p462
sg8
S'xxceafd389091246e9b841b3804bff7c21'
p463
sg10
S'xx5ba6e83ab19ca3a94d39ebfc36eb8d6b'
p464
sg12
S'xx28bb0bca72f8136dc896c0477386b47c'
p465
sg14
S'Mozilla/5.0 (Linux; Android 4.4.4; HM NOTE 1S Build/KTU84P) AppleWebKit/537.36 (KHTML, like Gecko) Version/4.0 Chrome/37.0.0.0 Mobile MQQBrowser/6.8 TBS/036849 Safari/537.36 MicroMessenger/6.3.27.880 NetType/WIFI Language/zh_CN'
p466
sg16
S'3e4e73a488e5f6101f427bb64a38e645'
p467
sa(dp468
g2
S'20004'
p469
sg4
S'3425'
p470
sg6
S'1dc889c5d6202d34a546b88afcfd9686'
p471
sg8
S'xxceafd389091246e9b841b3804bff7c21'
p472
sg10
S'xx5ba6e83ab19ca3a94d39ebfc36eb8d6b'
p473
sg12
S'xx28bb0bca72f8136dc896c0477386b47c'
p474
sg14
S'Mozilla/5.0 (Linux; Android 4.4.4; HM NOTE 1S Build/KTU84P) AppleWebKit/537.36 (KHTML, like Gecko) Version/4.0 Chrome/37.0.0.0 Mobile MQQBrowser/6.8 TBS/036849 Safari/537.36 MicroMessenger/6.3.27.880 NetType/WIFI Language/zh_CN'
p475
sg16
S'3e4e73a488e5f6101f427bb64a38e645'
p476
sa(dp477
g2
S'20004'
p478
sg4
S'3440'
p479
sg6
S'1dc889c5d6202d34a546b88afcfd9686'
p480
sg8
S'xxceafd389091246e9b841b3804bff7c21'
p481
sg10
S'xx5ba6e83ab19ca3a94d39ebfc36eb8d6b'
p482
sg12
S'xx28bb0bca72f8136dc896c0477386b47c'
p483
sg14
S'Mozilla/5.0 (Linux; Android 4.4.4; HM NOTE 1S Build/KTU84P) AppleWebKit/537.36 (KHTML, like Gecko) Version/4.0 Chrome/37.0.0.0 Mobile MQQBrowser/6.8 TBS/036849 Safari/537.36 MicroMessenger/6.3.27.880 NetType/WIFI Language/zh_CN'
p484
sg16
S'3e4e73a488e5f6101f427bb64a38e645'
p485
sa(dp486
g2
S'35198'
p487
sg4
S'3752'
p488
sg6
S'0890abc304d8b8db3146a79e278d5012'
p489
sg8
S'xxe9391829efb7caf96ac6893cc1652f38'
p490
sg10
S'xx5ba6e83ab19ca3a94d39ebfc36eb8d6b'
p491
sg12
S'xx28bb0bca72f8136dc896c0477386b47c'
p492
sg14
S'Mozilla/5.0 (Linux; Android 4.4.4; HM NOTE 1S Build/KTU84P) AppleWebKit/537.36 (KHTML, like Gecko) Version/4.0 Chrome/37.0.0.0 Mobile MQQBrowser/6.8 TBS/036869 Safari/537.36 MicroMessenger/6.3.27.880 NetType/ctlte Language/zh_CN'
p493
sg16
S'836f542369b114dcc5f64a798c0575ef'
p494
sa(dp495
g2
S'35198'
p496
sg4
S'3771'
p497
sg6
S'0890abc304d8b8db3146a79e278d5012'
p498
sg8
S'xxe9391829efb7caf96ac6893cc1652f38'
p499
sg10
S'xx5ba6e83ab19ca3a94d39ebfc36eb8d6b'
p500
sg12
S'xx28bb0bca72f8136dc896c0477386b47c'
p501
sg14
S'Mozilla/5.0 (Linux; Android 4.4.4; HM NOTE 1S Build/KTU84P) AppleWebKit/537.36 (KHTML, like Gecko) Version/4.0 Chrome/37.0.0.0 Mobile MQQBrowser/6.8 TBS/036869 Safari/537.36 MicroMessenger/6.3.27.880 NetType/ctlte Language/zh_CN'
p502
sg16
S'836f542369b114dcc5f64a798c0575ef'
p503
sa(dp504
g2
S'43512'
p505
sg4
S'4341'
p506
sg6
S'ac94386e7a288746a37b833fdab04f64'
p507
sg8
S'xxceafd389091246e9b841b3804bff7c21'
p508
sg10
S'xx5ba6e83ab19ca3a94d39ebfc36eb8d6b'
p509
sg12
S'xx28bb0bca72f8136dc896c0477386b47c'
p510
sg14
S'Mozilla/5.0 (Linux; Android 4.4.4; HM NOTE 1S Build/KTU84P) AppleWebKit/537.36 (KHTML, like Gecko) Version/4.0 Chrome/37.0.0.0 Mobile MQQBrowser/6.8 TBS/036849 Safari/537.36 MicroMessenger/6.3.27.880 NetType/WIFI Language/zh_CN'
p511
sg16
S'3e4e73a488e5f6101f427bb64a38e645'
p512
sa(dp513
g2
S'43512'
p514
sg4
S'4363'
p515
sg6
S'ac94386e7a288746a37b833fdab04f64'
p516
sg8
S'xxceafd389091246e9b841b3804bff7c21'
p517
sg10
S'xx5ba6e83ab19ca3a94d39ebfc36eb8d6b'
p518
sg12
S'xx28bb0bca72f8136dc896c0477386b47c'
p519
sg14
S'Mozilla/5.0 (Linux; Android 4.4.4; HM NOTE 1S Build/KTU84P) AppleWebKit/537.36 (KHTML, like Gecko) Version/4.0 Chrome/37.0.0.0 Mobile MQQBrowser/6.8 TBS/036849 Safari/537.36 MicroMessenger/6.3.27.880 NetType/WIFI Language/zh_CN'
p520
sg16
S'3e4e73a488e5f6101f427bb64a38e645'
p521
sa(dp522
g2
S'38014'
p523
sg4
S'4928'
p524
sg6
S'5aed78690d86fb465be0e63a638c1bb9'
p525
sg8
S'xxceafd389091246e9b841b3804bff7c21'
p526
sg10
S'xx5ba6e83ab19ca3a94d39ebfc36eb8d6b'
p527
sg12
S'xx28bb0bca72f8136dc896c0477386b47c'
p528
sg14
S'Mozilla/5.0 (Linux; Android 4.4.4; HM NOTE 1S Build/KTU84P) AppleWebKit/537.36 (KHTML, like Gecko) Version/4.0 Chrome/37.0.0.0 Mobile MQQBrowser/6.8 TBS/036849 Safari/537.36 MicroMessenger/6.3.27.880 NetType/WIFI Language/zh_CN'
p529
sg16
S'3e4e73a488e5f6101f427bb64a38e645'
p530
sa(dp531
g2
S'38014'
p532
sg4
S'4942'
p533
sg6
S'5aed78690d86fb465be0e63a638c1bb9'
p534
sg8
S'xxceafd389091246e9b841b3804bff7c21'
p535
sg10
S'xx5ba6e83ab19ca3a94d39ebfc36eb8d6b'
p536
sg12
S'xx28bb0bca72f8136dc896c0477386b47c'
p537
sg14
S'Mozilla/5.0 (Linux; Android 4.4.4; HM NOTE 1S Build/KTU84P) AppleWebKit/537.36 (KHTML, like Gecko) Version/4.0 Chrome/37.0.0.0 Mobile MQQBrowser/6.8 TBS/036849 Safari/537.36 MicroMessenger/6.3.27.880 NetType/WIFI Language/zh_CN'
p538
sg16
S'3e4e73a488e5f6101f427bb64a38e645'
p539
sa(dp540
g2
S'38014'
p541
sg4
S'4956'
p542
sg6
S'5aed78690d86fb465be0e63a638c1bb9'
p543
sg8
S'xxceafd389091246e9b841b3804bff7c21'
p544
sg10
S'xx5ba6e83ab19ca3a94d39ebfc36eb8d6b'
p545
sg12
S'xx28bb0bca72f8136dc896c0477386b47c'
p546
sg14
S'Mozilla/5.0 (Linux; Android 4.4.4; HM NOTE 1S Build/KTU84P) AppleWebKit/537.36 (KHTML, like Gecko) Version/4.0 Chrome/37.0.0.0 Mobile MQQBrowser/6.8 TBS/036849 Safari/537.36 MicroMessenger/6.3.27.880 NetType/WIFI Language/zh_CN'
p547
sg16
S'3e4e73a488e5f6101f427bb64a38e645'
p548
sa(dp549
g2
S'19201'
p550
sg4
S'6176'
p551
sg6
S'79b2b9904f23a9b5f103957129608106'
p552
sg8
S'xxceafd389091246e9b841b3804bff7c21'
p553
sg10
S'xx5ba6e83ab19ca3a94d39ebfc36eb8d6b'
p554
sg12
S'xx28bb0bca72f8136dc896c0477386b47c'
p555
sg14
S'Mozilla/5.0 (Linux; Android 4.4.4; HM NOTE 1S Build/KTU84P) AppleWebKit/537.36 (KHTML, like Gecko) Version/4.0 Chrome/37.0.0.0 Mobile MQQBrowser/6.8 TBS/036849 Safari/537.36 MicroMessenger/6.3.27.880 NetType/WIFI Language/zh_CN'
p556
sg16
S'3e4e73a488e5f6101f427bb64a38e645'
p557
sa(dp558
g2
S'19201'
p559
sg4
S'6193'
p560
sg6
S'79b2b9904f23a9b5f103957129608106'
p561
sg8
S'xxceafd389091246e9b841b3804bff7c21'
p562
sg10
S'xx5ba6e83ab19ca3a94d39ebfc36eb8d6b'
p563
sg12
S'xx28bb0bca72f8136dc896c0477386b47c'
p564
sg14
S'Mozilla/5.0 (Linux; Android 4.4.4; HM NOTE 1S Build/KTU84P) AppleWebKit/537.36 (KHTML, like Gecko) Version/4.0 Chrome/37.0.0.0 Mobile MQQBrowser/6.8 TBS/036849 Safari/537.36 MicroMessenger/6.3.27.880 NetType/WIFI Language/zh_CN'
p565
sg16
S'3e4e73a488e5f6101f427bb64a38e645'
p566
sa(dp567
g2
S'19201'
p568
sg4
S'6209'
p569
sg6
S'79b2b9904f23a9b5f103957129608106'
p570
sg8
S'xxceafd389091246e9b841b3804bff7c21'
p571
sg10
S'xx5ba6e83ab19ca3a94d39ebfc36eb8d6b'
p572
sg12
S'xx28bb0bca72f8136dc896c0477386b47c'
p573
sg14
S'Mozilla/5.0 (Linux; Android 4.4.4; HM NOTE 1S Build/KTU84P) AppleWebKit/537.36 (KHTML, like Gecko) Version/4.0 Chrome/37.0.0.0 Mobile MQQBrowser/6.8 TBS/036849 Safari/537.36 MicroMessenger/6.3.27.880 NetType/WIFI Language/zh_CN'
p574
sg16
S'3e4e73a488e5f6101f427bb64a38e645'
p575
sa(dp576
g2
S'19201'
p577
sg4
S'6221'
p578
sg6
S'79b2b9904f23a9b5f103957129608106'
p579
sg8
S'xxceafd389091246e9b841b3804bff7c21'
p580
sg10
S'xx5ba6e83ab19ca3a94d39ebfc36eb8d6b'
p581
sg12
S'xx28bb0bca72f8136dc896c0477386b47c'
p582
sg14
S'Mozilla/5.0 (Linux; Android 4.4.4; HM NOTE 1S Build/KTU84P) AppleWebKit/537.36 (KHTML, like Gecko) Version/4.0 Chrome/37.0.0.0 Mobile MQQBrowser/6.8 TBS/036849 Safari/537.36 MicroMessenger/6.3.27.880 NetType/WIFI Language/zh_CN'
p583
sg16
S'3e4e73a488e5f6101f427bb64a38e645'
p584
sa(dp585
g2
S'19201'
p586
sg4
S'6250'
p587
sg6
S'79b2b9904f23a9b5f103957129608106'
p588
sg8
S'xxceafd389091246e9b841b3804bff7c21'
p589
sg10
S'xx5ba6e83ab19ca3a94d39ebfc36eb8d6b'
p590
sg12
S'xx28bb0bca72f8136dc896c0477386b47c'
p591
sg14
S'Mozilla/5.0 (Linux; Android 4.4.4; HM NOTE 1S Build/KTU84P) AppleWebKit/537.36 (KHTML, like Gecko) Version/4.0 Chrome/37.0.0.0 Mobile MQQBrowser/6.8 TBS/036849 Safari/537.36 MicroMessenger/6.3.27.880 NetType/WIFI Language/zh_CN'
p592
sg16
S'3e4e73a488e5f6101f427bb64a38e645'
p593
sa(dp594
g2
S'9783'
p595
sg4
S'6933'
p596
sg6
S'69db45200c6426b190b4c0c116787cde'
p597
sg8
S'xxeb257479cbd7fb9144b46222852a8549'
p598
sg10
S'xx5ba6e83ab19ca3a94d39ebfc36eb8d6b'
p599
sg12
S'xx28bb0bca72f8136dc896c0477386b47c'
p600
sg14
S'Mozilla/5.0 (Linux; Android 4.4.4; HM NOTE 1S Build/KTU84P) AppleWebKit/537.36 (KHTML, like Gecko) Version/4.0 Chrome/37.0.0.0 Mobile MQQBrowser/6.8 TBS/036849 Safari/537.36 MicroMessenger/6.3.25.861 NetType/WIFI Language/zh_CN'
p601
sg16
S'17472cae82d7e2b772fef295f9542937'
p602
sa(dp603
g2
S'9783'
p604
sg4
S'6949'
p605
sg6
S'69db45200c6426b190b4c0c116787cde'
p606
sg8
S'xxeb257479cbd7fb9144b46222852a8549'
p607
sg10
S'xx5ba6e83ab19ca3a94d39ebfc36eb8d6b'
p608
sg12
S'xx28bb0bca72f8136dc896c0477386b47c'
p609
sg14
S'Mozilla/5.0 (Linux; Android 4.4.4; HM NOTE 1S Build/KTU84P) AppleWebKit/537.36 (KHTML, like Gecko) Version/4.0 Chrome/37.0.0.0 Mobile MQQBrowser/6.8 TBS/036849 Safari/537.36 MicroMessenger/6.3.25.861 NetType/WIFI Language/zh_CN'
p610
sg16
S'17472cae82d7e2b772fef295f9542937'
p611
sa(dp612
g2
S'9783'
p613
sg4
S'6962'
p614
sg6
S'69db45200c6426b190b4c0c116787cde'
p615
sg8
S'xxeb257479cbd7fb9144b46222852a8549'
p616
sg10
S'xx5ba6e83ab19ca3a94d39ebfc36eb8d6b'
p617
sg12
S'xx28bb0bca72f8136dc896c0477386b47c'
p618
sg14
S'Mozilla/5.0 (Linux; Android 4.4.4; HM NOTE 1S Build/KTU84P) AppleWebKit/537.36 (KHTML, like Gecko) Version/4.0 Chrome/37.0.0.0 Mobile MQQBrowser/6.8 TBS/036849 Safari/537.36 MicroMessenger/6.3.25.861 NetType/WIFI Language/zh_CN'
p619
sg16
S'17472cae82d7e2b772fef295f9542937'
p620
sa(dp621
g2
S'9783'
p622
sg4
S'6970'
p623
sg6
S'69db45200c6426b190b4c0c116787cde'
p624
sg8
S'xxeb257479cbd7fb9144b46222852a8549'
p625
sg10
S'xx5ba6e83ab19ca3a94d39ebfc36eb8d6b'
p626
sg12
S'xx28bb0bca72f8136dc896c0477386b47c'
p627
sg14
S'Mozilla/5.0 (Linux; Android 4.4.4; HM NOTE 1S Build/KTU84P) AppleWebKit/537.36 (KHTML, like Gecko) Version/4.0 Chrome/37.0.0.0 Mobile MQQBrowser/6.8 TBS/036849 Safari/537.36 MicroMessenger/6.3.25.861 NetType/WIFI Language/zh_CN'
p628
sg16
S'17472cae82d7e2b772fef295f9542937'
p629
sa(dp630
g2
S'49831'
p631
sg4
S'7202'
p632
sg6
S'6d68c4e9dec13ada3f6b36e367528dae'
p633
sg8
S'xxceafd389091246e9b841b3804bff7c21'
p634
sg10
S'xx5ba6e83ab19ca3a94d39ebfc36eb8d6b'
p635
sg12
S'xx28bb0bca72f8136dc896c0477386b47c'
p636
sg14
S'Mozilla/5.0 (Linux; Android 4.4.4; HM NOTE 1S Build/KTU84P) AppleWebKit/537.36 (KHTML, like Gecko) Version/4.0 Chrome/37.0.0.0 Mobile MQQBrowser/6.8 TBS/036849 Safari/537.36 MicroMessenger/6.3.27.880 NetType/WIFI Language/zh_CN'
p637
sg16
S'3e4e73a488e5f6101f427bb64a38e645'
p638
sa(dp639
g2
S'49831'
p640
sg4
S'7214'
p641
sg6
S'6d68c4e9dec13ada3f6b36e367528dae'
p642
sg8
S'xxceafd389091246e9b841b3804bff7c21'
p643
sg10
S'xx5ba6e83ab19ca3a94d39ebfc36eb8d6b'
p644
sg12
S'xx28bb0bca72f8136dc896c0477386b47c'
p645
sg14
S'Mozilla/5.0 (Linux; Android 4.4.4; HM NOTE 1S Build/KTU84P) AppleWebKit/537.36 (KHTML, like Gecko) Version/4.0 Chrome/37.0.0.0 Mobile MQQBrowser/6.8 TBS/036849 Safari/537.36 MicroMessenger/6.3.27.880 NetType/WIFI Language/zh_CN'
p646
sg16
S'3e4e73a488e5f6101f427bb64a38e645'
p647
sa(dp648
g2
S'49831'
p649
sg4
S'7227'
p650
sg6
S'6d68c4e9dec13ada3f6b36e367528dae'
p651
sg8
S'xxceafd389091246e9b841b3804bff7c21'
p652
sg10
S'xx5ba6e83ab19ca3a94d39ebfc36eb8d6b'
p653
sg12
S'xx28bb0bca72f8136dc896c0477386b47c'
p654
sg14
S'Mozilla/5.0 (Linux; Android 4.4.4; HM NOTE 1S Build/KTU84P) AppleWebKit/537.36 (KHTML, like Gecko) Version/4.0 Chrome/37.0.0.0 Mobile MQQBrowser/6.8 TBS/036849 Safari/537.36 MicroMessenger/6.3.27.880 NetType/WIFI Language/zh_CN'
p655
sg16
S'3e4e73a488e5f6101f427bb64a38e645'
p656
sa(dp657
g2
S'49263'
p658
sg4
S'7285'
p659
sg6
S'b1600bdca2a74f5f77f8758d9e6f829f'
p660
sg8
S'xx311deb8d3c203ab3be72863ea5170221'
p661
sg10
S'xx5ba6e83ab19ca3a94d39ebfc36eb8d6b'
p662
sg12
S'xx28bb0bca72f8136dc896c0477386b47c'
p663
sg14
S'Mozilla/5.0 (Linux; Android 4.4.4; HM NOTE 1S Build/KTU84P) AppleWebKit/537.36 (KHTML, like Gecko) Version/4.0 Chrome/37.0.0.0 Mobile MQQBrowser/6.8 TBS/036865 Safari/537.36 MicroMessenger/6.3.27.880 NetType/WIFI Language/zh_CN'
p664
sg16
S'9c2ab98bbdd34ad93d961a9e37f55148'
p665
sa(dp666
g2
S'19201'
p667
sg4
S'7358'
p668
sg6
S'79b2b9904f23a9b5f103957129608106'
p669
sg8
S'xxceafd389091246e9b841b3804bff7c21'
p670
sg10
S'xx5ba6e83ab19ca3a94d39ebfc36eb8d6b'
p671
sg12
S'xx28bb0bca72f8136dc896c0477386b47c'
p672
sg14
S'Mozilla/5.0 (Linux; Android 4.4.4; HM NOTE 1S Build/KTU84P) AppleWebKit/537.36 (KHTML, like Gecko) Version/4.0 Chrome/37.0.0.0 Mobile MQQBrowser/6.8 TBS/036849 Safari/537.36 MicroMessenger/6.3.27.880 NetType/WIFI Language/zh_CN'
p673
sg16
S'3e4e73a488e5f6101f427bb64a38e645'
p674
sa(dp675
g2
S'19201'
p676
sg4
S'7373'
p677
sg6
S'79b2b9904f23a9b5f103957129608106'
p678
sg8
S'xxceafd389091246e9b841b3804bff7c21'
p679
sg10
S'xx5ba6e83ab19ca3a94d39ebfc36eb8d6b'
p680
sg12
S'xx28bb0bca72f8136dc896c0477386b47c'
p681
sg14
S'Mozilla/5.0 (Linux; Android 4.4.4; HM NOTE 1S Build/KTU84P) AppleWebKit/537.36 (KHTML, like Gecko) Version/4.0 Chrome/37.0.0.0 Mobile MQQBrowser/6.8 TBS/036849 Safari/537.36 MicroMessenger/6.3.27.880 NetType/WIFI Language/zh_CN'
p682
sg16
S'3e4e73a488e5f6101f427bb64a38e645'
p683
sa(dp684
g2
S'19201'
p685
sg4
S'7387'
p686
sg6
S'79b2b9904f23a9b5f103957129608106'
p687
sg8
S'xxceafd389091246e9b841b3804bff7c21'
p688
sg10
S'xx5ba6e83ab19ca3a94d39ebfc36eb8d6b'
p689
sg12
S'xx28bb0bca72f8136dc896c0477386b47c'
p690
sg14
S'Mozilla/5.0 (Linux; Android 4.4.4; HM NOTE 1S Build/KTU84P) AppleWebKit/537.36 (KHTML, like Gecko) Version/4.0 Chrome/37.0.0.0 Mobile MQQBrowser/6.8 TBS/036849 Safari/537.36 MicroMessenger/6.3.27.880 NetType/WIFI Language/zh_CN'
p691
sg16
S'3e4e73a488e5f6101f427bb64a38e645'
p692
sa(dp693
g2
S'49263'
p694
sg4
S'7789'
p695
sg6
S'b1600bdca2a74f5f77f8758d9e6f829f'
p696
sg8
S'xx311deb8d3c203ab3be72863ea5170221'
p697
sg10
S'xx5ba6e83ab19ca3a94d39ebfc36eb8d6b'
p698
sg12
S'xx28bb0bca72f8136dc896c0477386b47c'
p699
sg14
S'Mozilla/5.0 (Linux; Android 4.4.4; HM NOTE 1S Build/KTU84P) AppleWebKit/537.36 (KHTML, like Gecko) Version/4.0 Chrome/37.0.0.0 Mobile MQQBrowser/6.8 TBS/036865 Safari/537.36 MicroMessenger/6.3.27.880 NetType/WIFI Language/zh_CN'
p700
sg16
S'9c2ab98bbdd34ad93d961a9e37f55148'
p701
sa(dp702
g2
S'49263'
p703
sg4
S'7795'
p704
sg6
S'b1600bdca2a74f5f77f8758d9e6f829f'
p705
sg8
S'xx311deb8d3c203ab3be72863ea5170221'
p706
sg10
S'xx5ba6e83ab19ca3a94d39ebfc36eb8d6b'
p707
sg12
S'xx28bb0bca72f8136dc896c0477386b47c'
p708
sg14
S'Mozilla/5.0 (Linux; Android 4.4.4; HM NOTE 1S Build/KTU84P) AppleWebKit/537.36 (KHTML, like Gecko) Version/4.0 Chrome/37.0.0.0 Mobile MQQBrowser/6.8 TBS/036865 Safari/537.36 MicroMessenger/6.3.27.880 NetType/WIFI Language/zh_CN'
p709
sg16
S'9c2ab98bbdd34ad93d961a9e37f55148'
p710
sa(dp711
g2
S'19201'
p712
sg4
S'7835'
p713
sg6
S'79b2b9904f23a9b5f103957129608106'
p714
sg8
S'xxceafd389091246e9b841b3804bff7c21'
p715
sg10
S'xx5ba6e83ab19ca3a94d39ebfc36eb8d6b'
p716
sg12
S'xx28bb0bca72f8136dc896c0477386b47c'
p717
sg14
S'Mozilla/5.0 (Linux; Android 4.4.4; HM NOTE 1S Build/KTU84P) AppleWebKit/537.36 (KHTML, like Gecko) Version/4.0 Chrome/37.0.0.0 Mobile MQQBrowser/6.8 TBS/036849 Safari/537.36 MicroMessenger/6.3.27.880 NetType/WIFI Language/zh_CN'
p718
sg16
S'3e4e73a488e5f6101f427bb64a38e645'
p719
sa(dp720
g2
S'19201'
p721
sg4
S'7844'
p722
sg6
S'79b2b9904f23a9b5f103957129608106'
p723
sg8
S'xxceafd389091246e9b841b3804bff7c21'
p724
sg10
S'xx5ba6e83ab19ca3a94d39ebfc36eb8d6b'
p725
sg12
S'xx28bb0bca72f8136dc896c0477386b47c'
p726
sg14
S'Mozilla/5.0 (Linux; Android 4.4.4; HM NOTE 1S Build/KTU84P) AppleWebKit/537.36 (KHTML, like Gecko) Version/4.0 Chrome/37.0.0.0 Mobile MQQBrowser/6.8 TBS/036849 Safari/537.36 MicroMessenger/6.3.27.880 NetType/WIFI Language/zh_CN'
p727
sg16
S'3e4e73a488e5f6101f427bb64a38e645'
p728
sa(dp729
g2
S'19201'
p730
sg4
S'7862'
p731
sg6
S'79b2b9904f23a9b5f103957129608106'
p732
sg8
S'xxceafd389091246e9b841b3804bff7c21'
p733
sg10
S'xx5ba6e83ab19ca3a94d39ebfc36eb8d6b'
p734
sg12
S'xx28bb0bca72f8136dc896c0477386b47c'
p735
sg14
S'Mozilla/5.0 (Linux; Android 4.4.4; HM NOTE 1S Build/KTU84P) AppleWebKit/537.36 (KHTML, like Gecko) Version/4.0 Chrome/37.0.0.0 Mobile MQQBrowser/6.8 TBS/036849 Safari/537.36 MicroMessenger/6.3.27.880 NetType/WIFI Language/zh_CN'
p736
sg16
S'3e4e73a488e5f6101f427bb64a38e645'
p737
sa(dp738
g2
S'19201'
p739
sg4
S'7877'
p740
sg6
S'79b2b9904f23a9b5f103957129608106'
p741
sg8
S'xxceafd389091246e9b841b3804bff7c21'
p742
sg10
S'xx5ba6e83ab19ca3a94d39ebfc36eb8d6b'
p743
sg12
S'xx28bb0bca72f8136dc896c0477386b47c'
p744
sg14
S'Mozilla/5.0 (Linux; Android 4.4.4; HM NOTE 1S Build/KTU84P) AppleWebKit/537.36 (KHTML, like Gecko) Version/4.0 Chrome/37.0.0.0 Mobile MQQBrowser/6.8 TBS/036849 Safari/537.36 MicroMessenger/6.3.27.880 NetType/WIFI Language/zh_CN'
p745
sg16
S'3e4e73a488e5f6101f427bb64a38e645'
p746
sa(dp747
g2
S'49263'
p748
sg4
S'8001'
p749
sg6
S'b1600bdca2a74f5f77f8758d9e6f829f'
p750
sg8
S'xx311deb8d3c203ab3be72863ea5170221'
p751
sg10
S'xx5ba6e83ab19ca3a94d39ebfc36eb8d6b'
p752
sg12
S'xx28bb0bca72f8136dc896c0477386b47c'
p753
sg14
S'Mozilla/5.0 (Linux; Android 4.4.4; HM NOTE 1S Build/KTU84P) AppleWebKit/537.36 (KHTML, like Gecko) Version/4.0 Chrome/37.0.0.0 Mobile MQQBrowser/6.8 TBS/036865 Safari/537.36 MicroMessenger/6.3.27.880 NetType/WIFI Language/zh_CN'
p754
sg16
S'9c2ab98bbdd34ad93d961a9e37f55148'
p755
sa(dp756
g2
S'49263'
p757
sg4
S'8017'
p758
sg6
S'b1600bdca2a74f5f77f8758d9e6f829f'
p759
sg8
S'xx311deb8d3c203ab3be72863ea5170221'
p760
sg10
S'xx5ba6e83ab19ca3a94d39ebfc36eb8d6b'
p761
sg12
S'xx28bb0bca72f8136dc896c0477386b47c'
p762
sg14
S'Mozilla/5.0 (Linux; Android 4.4.4; HM NOTE 1S Build/KTU84P) AppleWebKit/537.36 (KHTML, like Gecko) Version/4.0 Chrome/37.0.0.0 Mobile MQQBrowser/6.8 TBS/036865 Safari/537.36 MicroMessenger/6.3.27.880 NetType/WIFI Language/zh_CN'
p763
sg16
S'9c2ab98bbdd34ad93d961a9e37f55148'
p764
sa(dp765
g2
S'49263'
p766
sg4
S'8032'
p767
sg6
S'b1600bdca2a74f5f77f8758d9e6f829f'
p768
sg8
S'xx311deb8d3c203ab3be72863ea5170221'
p769
sg10
S'xx5ba6e83ab19ca3a94d39ebfc36eb8d6b'
p770
sg12
S'xx28bb0bca72f8136dc896c0477386b47c'
p771
sg14
S'Mozilla/5.0 (Linux; Android 4.4.4; HM NOTE 1S Build/KTU84P) AppleWebKit/537.36 (KHTML, like Gecko) Version/4.0 Chrome/37.0.0.0 Mobile MQQBrowser/6.8 TBS/036865 Safari/537.36 MicroMessenger/6.3.27.880 NetType/WIFI Language/zh_CN'
p772
sg16
S'9c2ab98bbdd34ad93d961a9e37f55148'
p773
sa(dp774
g2
S'49263'
p775
sg4
S'8044'
p776
sg6
S'b1600bdca2a74f5f77f8758d9e6f829f'
p777
sg8
S'xx311deb8d3c203ab3be72863ea5170221'
p778
sg10
S'xx5ba6e83ab19ca3a94d39ebfc36eb8d6b'
p779
sg12
S'xx28bb0bca72f8136dc896c0477386b47c'
p780
sg14
S'Mozilla/5.0 (Linux; Android 4.4.4; HM NOTE 1S Build/KTU84P) AppleWebKit/537.36 (KHTML, like Gecko) Version/4.0 Chrome/37.0.0.0 Mobile MQQBrowser/6.8 TBS/036865 Safari/537.36 MicroMessenger/6.3.27.880 NetType/WIFI Language/zh_CN'
p781
sg16
S'9c2ab98bbdd34ad93d961a9e37f55148'
p782
sa(dp783
g2
S'49263'
p784
sg4
S'8056'
p785
sg6
S'b1600bdca2a74f5f77f8758d9e6f829f'
p786
sg8
S'xx311deb8d3c203ab3be72863ea5170221'
p787
sg10
S'xx5ba6e83ab19ca3a94d39ebfc36eb8d6b'
p788
sg12
S'xx28bb0bca72f8136dc896c0477386b47c'
p789
sg14
S'Mozilla/5.0 (Linux; Android 4.4.4; HM NOTE 1S Build/KTU84P) AppleWebKit/537.36 (KHTML, like Gecko) Version/4.0 Chrome/37.0.0.0 Mobile MQQBrowser/6.8 TBS/036865 Safari/537.36 MicroMessenger/6.3.27.880 NetType/WIFI Language/zh_CN'
p790
sg16
S'9c2ab98bbdd34ad93d961a9e37f55148'
p791
sa(dp792
g2
S'49263'
p793
sg4
S'8065'
p794
sg6
S'b1600bdca2a74f5f77f8758d9e6f829f'
p795
sg8
S'xx311deb8d3c203ab3be72863ea5170221'
p796
sg10
S'xx5ba6e83ab19ca3a94d39ebfc36eb8d6b'
p797
sg12
S'xx28bb0bca72f8136dc896c0477386b47c'
p798
sg14
S'Mozilla/5.0 (Linux; Android 4.4.4; HM NOTE 1S Build/KTU84P) AppleWebKit/537.36 (KHTML, like Gecko) Version/4.0 Chrome/37.0.0.0 Mobile MQQBrowser/6.8 TBS/036865 Safari/537.36 MicroMessenger/6.3.27.880 NetType/WIFI Language/zh_CN'
p799
sg16
S'9c2ab98bbdd34ad93d961a9e37f55148'
p800
sa(dp801
g2
S'49263'
p802
sg4
S'8080'
p803
sg6
S'b1600bdca2a74f5f77f8758d9e6f829f'
p804
sg8
S'xx311deb8d3c203ab3be72863ea5170221'
p805
sg10
S'xx5ba6e83ab19ca3a94d39ebfc36eb8d6b'
p806
sg12
S'xx28bb0bca72f8136dc896c0477386b47c'
p807
sg14
S'Mozilla/5.0 (Linux; Android 4.4.4; HM NOTE 1S Build/KTU84P) AppleWebKit/537.36 (KHTML, like Gecko) Version/4.0 Chrome/37.0.0.0 Mobile MQQBrowser/6.8 TBS/036865 Safari/537.36 MicroMessenger/6.3.27.880 NetType/WIFI Language/zh_CN'
p808
sg16
S'9c2ab98bbdd34ad93d961a9e37f55148'
p809
sa(dp810
g2
S'49263'
p811
sg4
S'8093'
p812
sg6
S'b1600bdca2a74f5f77f8758d9e6f829f'
p813
sg8
S'xx311deb8d3c203ab3be72863ea5170221'
p814
sg10
S'xx5ba6e83ab19ca3a94d39ebfc36eb8d6b'
p815
sg12
S'xx28bb0bca72f8136dc896c0477386b47c'
p816
sg14
S'Mozilla/5.0 (Linux; Android 4.4.4; HM NOTE 1S Build/KTU84P) AppleWebKit/537.36 (KHTML, like Gecko) Version/4.0 Chrome/37.0.0.0 Mobile MQQBrowser/6.8 TBS/036865 Safari/537.36 MicroMessenger/6.3.27.880 NetType/WIFI Language/zh_CN'
p817
sg16
S'9c2ab98bbdd34ad93d961a9e37f55148'
p818
sa(dp819
g2
S'49263'
p820
sg4
S'8111'
p821
sg6
S'b1600bdca2a74f5f77f8758d9e6f829f'
p822
sg8
S'xx311deb8d3c203ab3be72863ea5170221'
p823
sg10
S'xx5ba6e83ab19ca3a94d39ebfc36eb8d6b'
p824
sg12
S'xx28bb0bca72f8136dc896c0477386b47c'
p825
sg14
S'Mozilla/5.0 (Linux; Android 4.4.4; HM NOTE 1S Build/KTU84P) AppleWebKit/537.36 (KHTML, like Gecko) Version/4.0 Chrome/37.0.0.0 Mobile MQQBrowser/6.8 TBS/036865 Safari/537.36 MicroMessenger/6.3.27.880 NetType/WIFI Language/zh_CN'
p826
sg16
S'9c2ab98bbdd34ad93d961a9e37f55148'
p827
sa(dp828
g2
S'49263'
p829
sg4
S'8129'
p830
sg6
S'b1600bdca2a74f5f77f8758d9e6f829f'
p831
sg8
S'xx311deb8d3c203ab3be72863ea5170221'
p832
sg10
S'xx5ba6e83ab19ca3a94d39ebfc36eb8d6b'
p833
sg12
S'xx28bb0bca72f8136dc896c0477386b47c'
p834
sg14
S'Mozilla/5.0 (Linux; Android 4.4.4; HM NOTE 1S Build/KTU84P) AppleWebKit/537.36 (KHTML, like Gecko) Version/4.0 Chrome/37.0.0.0 Mobile MQQBrowser/6.8 TBS/036865 Safari/537.36 MicroMessenger/6.3.27.880 NetType/WIFI Language/zh_CN'
p835
sg16
S'9c2ab98bbdd34ad93d961a9e37f55148'
p836
sa(dp837
g2
S'49263'
p838
sg4
S'8142'
p839
sg6
S'b1600bdca2a74f5f77f8758d9e6f829f'
p840
sg8
S'xx311deb8d3c203ab3be72863ea5170221'
p841
sg10
S'xx5ba6e83ab19ca3a94d39ebfc36eb8d6b'
p842
sg12
S'xx28bb0bca72f8136dc896c0477386b47c'
p843
sg14
S'Mozilla/5.0 (Linux; Android 4.4.4; HM NOTE 1S Build/KTU84P) AppleWebKit/537.36 (KHTML, like Gecko) Version/4.0 Chrome/37.0.0.0 Mobile MQQBrowser/6.8 TBS/036865 Safari/537.36 MicroMessenger/6.3.27.880 NetType/WIFI Language/zh_CN'
p844
sg16
S'9c2ab98bbdd34ad93d961a9e37f55148'
p845
sa(dp846
g2
S'49263'
p847
sg4
S'8154'
p848
sg6
S'b1600bdca2a74f5f77f8758d9e6f829f'
p849
sg8
S'xx311deb8d3c203ab3be72863ea5170221'
p850
sg10
S'xx5ba6e83ab19ca3a94d39ebfc36eb8d6b'
p851
sg12
S'xx28bb0bca72f8136dc896c0477386b47c'
p852
sg14
S'Mozilla/5.0 (Linux; Android 4.4.4; HM NOTE 1S Build/KTU84P) AppleWebKit/537.36 (KHTML, like Gecko) Version/4.0 Chrome/37.0.0.0 Mobile MQQBrowser/6.8 TBS/036865 Safari/537.36 MicroMessenger/6.3.27.880 NetType/WIFI Language/zh_CN'
p853
sg16
S'9c2ab98bbdd34ad93d961a9e37f55148'
p854
sa(dp855
g2
S'49263'
p856
sg4
S'8165'
p857
sg6
S'b1600bdca2a74f5f77f8758d9e6f829f'
p858
sg8
S'xx311deb8d3c203ab3be72863ea5170221'
p859
sg10
S'xx5ba6e83ab19ca3a94d39ebfc36eb8d6b'
p860
sg12
S'xx28bb0bca72f8136dc896c0477386b47c'
p861
sg14
S'Mozilla/5.0 (Linux; Android 4.4.4; HM NOTE 1S Build/KTU84P) AppleWebKit/537.36 (KHTML, like Gecko) Version/4.0 Chrome/37.0.0.0 Mobile MQQBrowser/6.8 TBS/036865 Safari/537.36 MicroMessenger/6.3.27.880 NetType/WIFI Language/zh_CN'
p862
sg16
S'9c2ab98bbdd34ad93d961a9e37f55148'
p863
sa(dp864
g2
S'49263'
p865
sg4
S'8181'
p866
sg6
S'b1600bdca2a74f5f77f8758d9e6f829f'
p867
sg8
S'xx311deb8d3c203ab3be72863ea5170221'
p868
sg10
S'xx5ba6e83ab19ca3a94d39ebfc36eb8d6b'
p869
sg12
S'xx28bb0bca72f8136dc896c0477386b47c'
p870
sg14
S'Mozilla/5.0 (Linux; Android 4.4.4; HM NOTE 1S Build/KTU84P) AppleWebKit/537.36 (KHTML, like Gecko) Version/4.0 Chrome/37.0.0.0 Mobile MQQBrowser/6.8 TBS/036865 Safari/537.36 MicroMessenger/6.3.27.880 NetType/WIFI Language/zh_CN'
p871
sg16
S'9c2ab98bbdd34ad93d961a9e37f55148'
p872
sa(dp873
g2
S'49263'
p874
sg4
S'8194'
p875
sg6
S'b1600bdca2a74f5f77f8758d9e6f829f'
p876
sg8
S'xx311deb8d3c203ab3be72863ea5170221'
p877
sg10
S'xx5ba6e83ab19ca3a94d39ebfc36eb8d6b'
p878
sg12
S'xx28bb0bca72f8136dc896c0477386b47c'
p879
sg14
S'Mozilla/5.0 (Linux; Android 4.4.4; HM NOTE 1S Build/KTU84P) AppleWebKit/537.36 (KHTML, like Gecko) Version/4.0 Chrome/37.0.0.0 Mobile MQQBrowser/6.8 TBS/036865 Safari/537.36 MicroMessenger/6.3.27.880 NetType/WIFI Language/zh_CN'
p880
sg16
S'9c2ab98bbdd34ad93d961a9e37f55148'
p881
sa(dp882
g2
S'49263'
p883
sg4
S'8209'
p884
sg6
S'b1600bdca2a74f5f77f8758d9e6f829f'
p885
sg8
S'xx311deb8d3c203ab3be72863ea5170221'
p886
sg10
S'xx5ba6e83ab19ca3a94d39ebfc36eb8d6b'
p887
sg12
S'xx28bb0bca72f8136dc896c0477386b47c'
p888
sg14
S'Mozilla/5.0 (Linux; Android 4.4.4; HM NOTE 1S Build/KTU84P) AppleWebKit/537.36 (KHTML, like Gecko) Version/4.0 Chrome/37.0.0.0 Mobile MQQBrowser/6.8 TBS/036865 Safari/537.36 MicroMessenger/6.3.27.880 NetType/WIFI Language/zh_CN'
p889
sg16
S'9c2ab98bbdd34ad93d961a9e37f55148'
p890
sa(dp891
g2
S'49263'
p892
sg4
S'8219'
p893
sg6
S'b1600bdca2a74f5f77f8758d9e6f829f'
p894
sg8
S'xx311deb8d3c203ab3be72863ea5170221'
p895
sg10
S'xx5ba6e83ab19ca3a94d39ebfc36eb8d6b'
p896
sg12
S'xx28bb0bca72f8136dc896c0477386b47c'
p897
sg14
S'Mozilla/5.0 (Linux; Android 4.4.4; HM NOTE 1S Build/KTU84P) AppleWebKit/537.36 (KHTML, like Gecko) Version/4.0 Chrome/37.0.0.0 Mobile MQQBrowser/6.8 TBS/036865 Safari/537.36 MicroMessenger/6.3.27.880 NetType/WIFI Language/zh_CN'
p898
sg16
S'9c2ab98bbdd34ad93d961a9e37f55148'
p899
sa(dp900
g2
S'49263'
p901
sg4
S'8228'
p902
sg6
S'b1600bdca2a74f5f77f8758d9e6f829f'
p903
sg8
S'xx311deb8d3c203ab3be72863ea5170221'
p904
sg10
S'xx5ba6e83ab19ca3a94d39ebfc36eb8d6b'
p905
sg12
S'xx28bb0bca72f8136dc896c0477386b47c'
p906
sg14
S'Mozilla/5.0 (Linux; Android 4.4.4; HM NOTE 1S Build/KTU84P) AppleWebKit/537.36 (KHTML, like Gecko) Version/4.0 Chrome/37.0.0.0 Mobile MQQBrowser/6.8 TBS/036865 Safari/537.36 MicroMessenger/6.3.27.880 NetType/WIFI Language/zh_CN'
p907
sg16
S'9c2ab98bbdd34ad93d961a9e37f55148'
p908
sa(dp909
g2
S'49263'
p910
sg4
S'8243'
p911
sg6
S'b1600bdca2a74f5f77f8758d9e6f829f'
p912
sg8
S'xx311deb8d3c203ab3be72863ea5170221'
p913
sg10
S'xx5ba6e83ab19ca3a94d39ebfc36eb8d6b'
p914
sg12
S'xx28bb0bca72f8136dc896c0477386b47c'
p915
sg14
S'Mozilla/5.0 (Linux; Android 4.4.4; HM NOTE 1S Build/KTU84P) AppleWebKit/537.36 (KHTML, like Gecko) Version/4.0 Chrome/37.0.0.0 Mobile MQQBrowser/6.8 TBS/036865 Safari/537.36 MicroMessenger/6.3.27.880 NetType/WIFI Language/zh_CN'
p916
sg16
S'9c2ab98bbdd34ad93d961a9e37f55148'
p917
sa(dp918
g2
S'19201'
p919
sg4
S'8257'
p920
sg6
S'79b2b9904f23a9b5f103957129608106'
p921
sg8
S'xxceafd389091246e9b841b3804bff7c21'
p922
sg10
S'xx5ba6e83ab19ca3a94d39ebfc36eb8d6b'
p923
sg12
S'xx28bb0bca72f8136dc896c0477386b47c'
p924
sg14
S'Mozilla/5.0 (Linux; Android 4.4.4; HM NOTE 1S Build/KTU84P) AppleWebKit/537.36 (KHTML, like Gecko) Version/4.0 Chrome/37.0.0.0 Mobile MQQBrowser/6.8 TBS/036849 Safari/537.36 MicroMessenger/6.3.27.880 NetType/WIFI Language/zh_CN'
p925
sg16
S'3e4e73a488e5f6101f427bb64a38e645'
p926
sa(dp927
g2
S'19201'
p928
sg4
S'8277'
p929
sg6
S'79b2b9904f23a9b5f103957129608106'
p930
sg8
S'xxceafd389091246e9b841b3804bff7c21'
p931
sg10
S'xx5ba6e83ab19ca3a94d39ebfc36eb8d6b'
p932
sg12
S'xx28bb0bca72f8136dc896c0477386b47c'
p933
sg14
S'Mozilla/5.0 (Linux; Android 4.4.4; HM NOTE 1S Build/KTU84P) AppleWebKit/537.36 (KHTML, like Gecko) Version/4.0 Chrome/37.0.0.0 Mobile MQQBrowser/6.8 TBS/036849 Safari/537.36 MicroMessenger/6.3.27.880 NetType/WIFI Language/zh_CN'
p934
sg16
S'3e4e73a488e5f6101f427bb64a38e645'
p935
sa(dp936
g2
S'19201'
p937
sg4
S'8289'
p938
sg6
S'79b2b9904f23a9b5f103957129608106'
p939
sg8
S'xxceafd389091246e9b841b3804bff7c21'
p940
sg10
S'xx5ba6e83ab19ca3a94d39ebfc36eb8d6b'
p941
sg12
S'xx28bb0bca72f8136dc896c0477386b47c'
p942
sg14
S'Mozilla/5.0 (Linux; Android 4.4.4; HM NOTE 1S Build/KTU84P) AppleWebKit/537.36 (KHTML, like Gecko) Version/4.0 Chrome/37.0.0.0 Mobile MQQBrowser/6.8 TBS/036849 Safari/537.36 MicroMessenger/6.3.27.880 NetType/WIFI Language/zh_CN'
p943
sg16
S'3e4e73a488e5f6101f427bb64a38e645'
p944
sa(dp945
g2
S'19201'
p946
sg4
S'8297'
p947
sg6
S'79b2b9904f23a9b5f103957129608106'
p948
sg8
S'xxceafd389091246e9b841b3804bff7c21'
p949
sg10
S'xx5ba6e83ab19ca3a94d39ebfc36eb8d6b'
p950
sg12
S'xx28bb0bca72f8136dc896c0477386b47c'
p951
sg14
S'Mozilla/5.0 (Linux; Android 4.4.4; HM NOTE 1S Build/KTU84P) AppleWebKit/537.36 (KHTML, like Gecko) Version/4.0 Chrome/37.0.0.0 Mobile MQQBrowser/6.8 TBS/036849 Safari/537.36 MicroMessenger/6.3.27.880 NetType/WIFI Language/zh_CN'
p952
sg16
S'3e4e73a488e5f6101f427bb64a38e645'
p953
sa(dp954
g2
S'49263'
p955
sg4
S'8301'
p956
sg6
S'b1600bdca2a74f5f77f8758d9e6f829f'
p957
sg8
S'xx311deb8d3c203ab3be72863ea5170221'
p958
sg10
S'xx5ba6e83ab19ca3a94d39ebfc36eb8d6b'
p959
sg12
S'xx28bb0bca72f8136dc896c0477386b47c'
p960
sg14
S'Mozilla/5.0 (Linux; Android 4.4.4; HM NOTE 1S Build/KTU84P) AppleWebKit/537.36 (KHTML, like Gecko) Version/4.0 Chrome/37.0.0.0 Mobile MQQBrowser/6.8 TBS/036865 Safari/537.36 MicroMessenger/6.3.27.880 NetType/WIFI Language/zh_CN'
p961
sg16
S'9c2ab98bbdd34ad93d961a9e37f55148'
p962
sa(dp963
g2
S'19201'
p964
sg4
S'8307'
p965
sg6
S'79b2b9904f23a9b5f103957129608106'
p966
sg8
S'xxceafd389091246e9b841b3804bff7c21'
p967
sg10
S'xx5ba6e83ab19ca3a94d39ebfc36eb8d6b'
p968
sg12
S'xx28bb0bca72f8136dc896c0477386b47c'
p969
sg14
S'Mozilla/5.0 (Linux; Android 4.4.4; HM NOTE 1S Build/KTU84P) AppleWebKit/537.36 (KHTML, like Gecko) Version/4.0 Chrome/37.0.0.0 Mobile MQQBrowser/6.8 TBS/036849 Safari/537.36 MicroMessenger/6.3.27.880 NetType/WIFI Language/zh_CN'
p970
sg16
S'3e4e73a488e5f6101f427bb64a38e645'
p971
sa(dp972
g2
S'19201'
p973
sg4
S'8321'
p974
sg6
S'79b2b9904f23a9b5f103957129608106'
p975
sg8
S'xxceafd389091246e9b841b3804bff7c21'
p976
sg10
S'xx5ba6e83ab19ca3a94d39ebfc36eb8d6b'
p977
sg12
S'xx28bb0bca72f8136dc896c0477386b47c'
p978
sg14
S'Mozilla/5.0 (Linux; Android 4.4.4; HM NOTE 1S Build/KTU84P) AppleWebKit/537.36 (KHTML, like Gecko) Version/4.0 Chrome/37.0.0.0 Mobile MQQBrowser/6.8 TBS/036849 Safari/537.36 MicroMessenger/6.3.27.880 NetType/WIFI Language/zh_CN'
p979
sg16
S'3e4e73a488e5f6101f427bb64a38e645'
p980
sa(dp981
g2
S'19201'
p982
sg4
S'8333'
p983
sg6
S'79b2b9904f23a9b5f103957129608106'
p984
sg8
S'xxceafd389091246e9b841b3804bff7c21'
p985
sg10
S'xx5ba6e83ab19ca3a94d39ebfc36eb8d6b'
p986
sg12
S'xx28bb0bca72f8136dc896c0477386b47c'
p987
sg14
S'Mozilla/5.0 (Linux; Android 4.4.4; HM NOTE 1S Build/KTU84P) AppleWebKit/537.36 (KHTML, like Gecko) Version/4.0 Chrome/37.0.0.0 Mobile MQQBrowser/6.8 TBS/036849 Safari/537.36 MicroMessenger/6.3.27.880 NetType/WIFI Language/zh_CN'
p988
sg16
S'3e4e73a488e5f6101f427bb64a38e645'
p989
sa(dp990
g2
S'19201'
p991
sg4
S'8345'
p992
sg6
S'79b2b9904f23a9b5f103957129608106'
p993
sg8
S'xxceafd389091246e9b841b3804bff7c21'
p994
sg10
S'xx5ba6e83ab19ca3a94d39ebfc36eb8d6b'
p995
sg12
S'xx28bb0bca72f8136dc896c0477386b47c'
p996
sg14
S'Mozilla/5.0 (Linux; Android 4.4.4; HM NOTE 1S Build/KTU84P) AppleWebKit/537.36 (KHTML, like Gecko) Version/4.0 Chrome/37.0.0.0 Mobile MQQBrowser/6.8 TBS/036849 Safari/537.36 MicroMessenger/6.3.27.880 NetType/WIFI Language/zh_CN'
p997
sg16
S'3e4e73a488e5f6101f427bb64a38e645'
p998
sa(dp999
g2
S'49263'
p1000
sg4
S'8349'
p1001
sg6
S'b1600bdca2a74f5f77f8758d9e6f829f'
p1002
sg8
S'xx311deb8d3c203ab3be72863ea5170221'
p1003
sg10
S'xx5ba6e83ab19ca3a94d39ebfc36eb8d6b'
p1004
sg12
S'xx28bb0bca72f8136dc896c0477386b47c'
p1005
sg14
S'Mozilla/5.0 (Linux; Android 4.4.4; HM NOTE 1S Build/KTU84P) AppleWebKit/537.36 (KHTML, like Gecko) Version/4.0 Chrome/37.0.0.0 Mobile MQQBrowser/6.8 TBS/036865 Safari/537.36 MicroMessenger/6.3.27.880 NetType/WIFI Language/zh_CN'
p1006
sg16
S'9c2ab98bbdd34ad93d961a9e37f55148'
p1007
sa(dp1008
g2
S'49263'
p1009
sg4
S'8363'
p1010
sg6
S'b1600bdca2a74f5f77f8758d9e6f829f'
p1011
sg8
S'xx311deb8d3c203ab3be72863ea5170221'
p1012
sg10
S'xx5ba6e83ab19ca3a94d39ebfc36eb8d6b'
p1013
sg12
S'xx28bb0bca72f8136dc896c0477386b47c'
p1014
sg14
S'Mozilla/5.0 (Linux; Android 4.4.4; HM NOTE 1S Build/KTU84P) AppleWebKit/537.36 (KHTML, like Gecko) Version/4.0 Chrome/37.0.0.0 Mobile MQQBrowser/6.8 TBS/036865 Safari/537.36 MicroMessenger/6.3.27.880 NetType/WIFI Language/zh_CN'
p1015
sg16
S'9c2ab98bbdd34ad93d961a9e37f55148'
p1016
sa(dp1017
g2
S'49263'
p1018
sg4
S'8373'
p1019
sg6
S'b1600bdca2a74f5f77f8758d9e6f829f'
p1020
sg8
S'xx311deb8d3c203ab3be72863ea5170221'
p1021
sg10
S'xx5ba6e83ab19ca3a94d39ebfc36eb8d6b'
p1022
sg12
S'xx28bb0bca72f8136dc896c0477386b47c'
p1023
sg14
S'Mozilla/5.0 (Linux; Android 4.4.4; HM NOTE 1S Build/KTU84P) AppleWebKit/537.36 (KHTML, like Gecko) Version/4.0 Chrome/37.0.0.0 Mobile MQQBrowser/6.8 TBS/036865 Safari/537.36 MicroMessenger/6.3.27.880 NetType/WIFI Language/zh_CN'
p1024
sg16
S'9c2ab98bbdd34ad93d961a9e37f55148'
p1025
sa(dp1026
g2
S'19201'
p1027
sg4
S'8378'
p1028
sg6
S'79b2b9904f23a9b5f103957129608106'
p1029
sg8
S'xxceafd389091246e9b841b3804bff7c21'
p1030
sg10
S'xx5ba6e83ab19ca3a94d39ebfc36eb8d6b'
p1031
sg12
S'xx28bb0bca72f8136dc896c0477386b47c'
p1032
sg14
S'Mozilla/5.0 (Linux; Android 4.4.4; HM NOTE 1S Build/KTU84P) AppleWebKit/537.36 (KHTML, like Gecko) Version/4.0 Chrome/37.0.0.0 Mobile MQQBrowser/6.8 TBS/036849 Safari/537.36 MicroMessenger/6.3.27.880 NetType/WIFI Language/zh_CN'
p1033
sg16
S'3e4e73a488e5f6101f427bb64a38e645'
p1034
sa(dp1035
g2
S'49263'
p1036
sg4
S'8388'
p1037
sg6
S'b1600bdca2a74f5f77f8758d9e6f829f'
p1038
sg8
S'xx311deb8d3c203ab3be72863ea5170221'
p1039
sg10
S'xx5ba6e83ab19ca3a94d39ebfc36eb8d6b'
p1040
sg12
S'xx28bb0bca72f8136dc896c0477386b47c'
p1041
sg14
S'Mozilla/5.0 (Linux; Android 4.4.4; HM NOTE 1S Build/KTU84P) AppleWebKit/537.36 (KHTML, like Gecko) Version/4.0 Chrome/37.0.0.0 Mobile MQQBrowser/6.8 TBS/036865 Safari/537.36 MicroMessenger/6.3.27.880 NetType/WIFI Language/zh_CN'
p1042
sg16
S'9c2ab98bbdd34ad93d961a9e37f55148'
p1043
sa(dp1044
g2
S'19201'
p1045
sg4
S'8437'
p1046
sg6
S'79b2b9904f23a9b5f103957129608106'
p1047
sg8
S'xxceafd389091246e9b841b3804bff7c21'
p1048
sg10
S'xx5ba6e83ab19ca3a94d39ebfc36eb8d6b'
p1049
sg12
S'xx28bb0bca72f8136dc896c0477386b47c'
p1050
sg14
S'Mozilla/5.0 (Linux; Android 4.4.4; HM NOTE 1S Build/KTU84P) AppleWebKit/537.36 (KHTML, like Gecko) Version/4.0 Chrome/37.0.0.0 Mobile MQQBrowser/6.8 TBS/036849 Safari/537.36 MicroMessenger/6.3.27.880 NetType/WIFI Language/zh_CN'
p1051
sg16
S'3e4e73a488e5f6101f427bb64a38e645'
p1052
sa(dp1053
g2
S'19201'
p1054
sg4
S'8830'
p1055
sg6
S'79b2b9904f23a9b5f103957129608106'
p1056
sg8
S'xxceafd389091246e9b841b3804bff7c21'
p1057
sg10
S'xx5ba6e83ab19ca3a94d39ebfc36eb8d6b'
p1058
sg12
S'xx28bb0bca72f8136dc896c0477386b47c'
p1059
sg14
S'Mozilla/5.0 (Linux; Android 4.4.4; HM NOTE 1S Build/KTU84P) AppleWebKit/537.36 (KHTML, like Gecko) Version/4.0 Chrome/37.0.0.0 Mobile MQQBrowser/6.8 TBS/036849 Safari/537.36 MicroMessenger/6.3.27.880 NetType/WIFI Language/zh_CN'
p1060
sg16
S'3e4e73a488e5f6101f427bb64a38e645'
p1061
sa.