(lp0
(dp1
S'user_id'
p2
S'20089'
p3
sS'data_id'
p4
S'849'
p5
sS'ip'
p6
S'11fe3b39e716310acdc6f6083b0c047d'
p7
sS'phone_B'
p8
S'xx1d97a14e70f4c10a1c0571f1ff176ce5'
p9
sS'phone_C'
p10
S'xx8748096f9307c5d03b91d51e0578c56c'
p11
sS'phone_A'
p12
S'xx29f25fc63294d6584b2ac7bb5ccd6522'
p13
sS'user_agent'
p14
S'Mozilla/5.0 (Linux; Android 4.4.2; Che2-UL00 Build/HonorChe2-UL00) AppleWebKit/537.36 (KHTML, like Gecko) Version/4.0 Chrome/37.0.0.0 Mobile MQQBrowser/6.8 TBS/036849 Safari/537.36 MicroMessenger/6.3.27.880 NetType/3gnet Language/zh_CN'
p15
sS'ua'
p16
S'fa0007f296004d6cd4c8ae58955681a3'
p17
sa(dp18
g2
S'20089'
p19
sg4
S'870'
p20
sg6
S'11fe3b39e716310acdc6f6083b0c047d'
p21
sg8
S'xx1d97a14e70f4c10a1c0571f1ff176ce5'
p22
sg10
S'xx8748096f9307c5d03b91d51e0578c56c'
p23
sg12
S'xx29f25fc63294d6584b2ac7bb5ccd6522'
p24
sg14
S'Mozilla/5.0 (Linux; Android 4.4.2; Che2-UL00 Build/HonorChe2-UL00) AppleWebKit/537.36 (KHTML, like Gecko) Version/4.0 Chrome/37.0.0.0 Mobile MQQBrowser/6.8 TBS/036849 Safari/537.36 MicroMessenger/6.3.27.880 NetType/3gnet Language/zh_CN'
p25
sg16
S'fa0007f296004d6cd4c8ae58955681a3'
p26
sa(dp27
g2
S'38789'
p28
sg4
S'2855'
p29
sg6
S'e1c2fc5e7f6ef30f31c1f9ff5279a183'
p30
sg8
S'xx2152b497b5de8e599e8474a331996682'
p31
sg10
S'xx8748096f9307c5d03b91d51e0578c56c'
p32
sg12
S'xx29f25fc63294d6584b2ac7bb5ccd6522'
p33
sg14
S'Mozilla/5.0 (Linux; Android 4.4.2; Che2-UL00 Build/HonorChe2-UL00) AppleWebKit/537.36 (KHTML, like Gecko) Version/4.0 Chrome/37.0.0.0 Mobile MQQBrowser/6.8 TBS/036849 Safari/537.36 MicroMessenger/6.3.27.880 NetType/WIFI Language/zh_CN'
p34
sg16
S'0d7f0aed8ab4769c2840bb5b458d4cb6'
p35
sa(dp36
g2
S'38789'
p37
sg4
S'2874'
p38
sg6
S'e1c2fc5e7f6ef30f31c1f9ff5279a183'
p39
sg8
S'xx2152b497b5de8e599e8474a331996682'
p40
sg10
S'xx8748096f9307c5d03b91d51e0578c56c'
p41
sg12
S'xx29f25fc63294d6584b2ac7bb5ccd6522'
p42
sg14
S'Mozilla/5.0 (Linux; Android 4.4.2; Che2-UL00 Build/HonorChe2-UL00) AppleWebKit/537.36 (KHTML, like Gecko) Version/4.0 Chrome/37.0.0.0 Mobile MQQBrowser/6.8 TBS/036849 Safari/537.36 MicroMessenger/6.3.27.880 NetType/WIFI Language/zh_CN'
p43
sg16
S'0d7f0aed8ab4769c2840bb5b458d4cb6'
p44
sa(dp45
g2
S'30445'
p46
sg4
S'6227'
p47
sg6
S'7fbbff5dab458d7230f9df5b49da6c4a'
p48
sg8
S'xxa0526bb4133f507427962a1a81dde99e'
p49
sg10
S'xx015190e786c6ccb41aefc4bdf8201243'
p50
sg12
S'xx29f25fc63294d6584b2ac7bb5ccd6522'
p51
sg14
S'Mozilla/5.0 (Linux; Android 4.4.2; Che2-UL00 Build/HonorChe2-UL00) AppleWebKit/537.36 (KHTML, like Gecko) Version/4.0 Chrome/37.0.0.0 Mobile MQQBrowser/6.8 TBS/036849 Safari/537.36 MicroMessenger/6.3.28.880 NetType/3gnet Language/zh_CN'
p52
sg16
S'f21e6498c727a173255acae6e71a1a81'
p53
sa(dp54
g2
S'30445'
p55
sg4
S'6242'
p56
sg6
S'7fbbff5dab458d7230f9df5b49da6c4a'
p57
sg8
S'xxa0526bb4133f507427962a1a81dde99e'
p58
sg10
S'xx015190e786c6ccb41aefc4bdf8201243'
p59
sg12
S'xx29f25fc63294d6584b2ac7bb5ccd6522'
p60
sg14
S'Mozilla/5.0 (Linux; Android 4.4.2; Che2-UL00 Build/HonorChe2-UL00) AppleWebKit/537.36 (KHTML, like Gecko) Version/4.0 Chrome/37.0.0.0 Mobile MQQBrowser/6.8 TBS/036849 Safari/537.36 MicroMessenger/6.3.28.880 NetType/3gnet Language/zh_CN'
p61
sg16
S'f21e6498c727a173255acae6e71a1a81'
p62
sa.