(lp0
(dp1
S'user_id'
p2
S'33851'
p3
sS'data_id'
p4
S'351'
p5
sS'ip'
p6
S'6d9be4f3deb5c49bc8d2d61f4a867a09'
p7
sS'phone_B'
p8
S'xxe3310934632c56757c6f92851cbd5cbd'
p9
sS'phone_C'
p10
S'xxa1eddb067d69156b5a420a68e90e67cd'
p11
sS'phone_A'
p12
S'xx2a50b8001c32b57756f69c5c6098c8e2'
p13
sS'user_agent'
p14
S'Mozilla/5.0 (Linux; Android 4.4.2; CHM-TL00H Build/HonorCHM-TL00H) AppleWebKit/537.36 (KHTML, like Gecko) Version/4.0 Chrome/37.0.0.0 Mobile MQQBrowser/6.8 TBS/036849 Safari/537.36 MicroMessenger/6.3.27.880 NetType/WIFI Language/zh_CN'
p15
sS'ua'
p16
S'9352c741dd852daa53b7eb1dfd3c9f16'
p17
sa(dp18
g2
S'33851'
p19
sg4
S'386'
p20
sg6
S'6d9be4f3deb5c49bc8d2d61f4a867a09'
p21
sg8
S'xxe3310934632c56757c6f92851cbd5cbd'
p22
sg10
S'xxa1eddb067d69156b5a420a68e90e67cd'
p23
sg12
S'xx2a50b8001c32b57756f69c5c6098c8e2'
p24
sg14
S'Mozilla/5.0 (Linux; Android 4.4.2; CHM-TL00H Build/HonorCHM-TL00H) AppleWebKit/537.36 (KHTML, like Gecko) Version/4.0 Chrome/37.0.0.0 Mobile MQQBrowser/6.8 TBS/036849 Safari/537.36 MicroMessenger/6.3.27.880 NetType/WIFI Language/zh_CN'
p25
sg16
S'9352c741dd852daa53b7eb1dfd3c9f16'
p26
sa(dp27
g2
S'39891'
p28
sg4
S'462'
p29
sg6
S'6d9be4f3deb5c49bc8d2d61f4a867a09'
p30
sg8
S'xxe3310934632c56757c6f92851cbd5cbd'
p31
sg10
S'xxa1eddb067d69156b5a420a68e90e67cd'
p32
sg12
S'xx2a50b8001c32b57756f69c5c6098c8e2'
p33
sg14
S'Mozilla/5.0 (Linux; Android 4.4.2; CHM-TL00H Build/HonorCHM-TL00H) AppleWebKit/537.36 (KHTML, like Gecko) Version/4.0 Chrome/37.0.0.0 Mobile MQQBrowser/6.8 TBS/036849 Safari/537.36 MicroMessenger/6.3.27.880 NetType/WIFI Language/zh_CN'
p34
sg16
S'9352c741dd852daa53b7eb1dfd3c9f16'
p35
sa(dp36
g2
S'39891'
p37
sg4
S'468'
p38
sg6
S'6d9be4f3deb5c49bc8d2d61f4a867a09'
p39
sg8
S'xxe3310934632c56757c6f92851cbd5cbd'
p40
sg10
S'xxa1eddb067d69156b5a420a68e90e67cd'
p41
sg12
S'xx2a50b8001c32b57756f69c5c6098c8e2'
p42
sg14
S'Mozilla/5.0 (Linux; Android 4.4.2; CHM-TL00H Build/HonorCHM-TL00H) AppleWebKit/537.36 (KHTML, like Gecko) Version/4.0 Chrome/37.0.0.0 Mobile MQQBrowser/6.8 TBS/036849 Safari/537.36 MicroMessenger/6.3.27.880 NetType/WIFI Language/zh_CN'
p43
sg16
S'9352c741dd852daa53b7eb1dfd3c9f16'
p44
sa(dp45
g2
S'39891'
p46
sg4
S'490'
p47
sg6
S'6d9be4f3deb5c49bc8d2d61f4a867a09'
p48
sg8
S'xxe3310934632c56757c6f92851cbd5cbd'
p49
sg10
S'xxa1eddb067d69156b5a420a68e90e67cd'
p50
sg12
S'xx2a50b8001c32b57756f69c5c6098c8e2'
p51
sg14
S'Mozilla/5.0 (Linux; Android 4.4.2; CHM-TL00H Build/HonorCHM-TL00H) AppleWebKit/537.36 (KHTML, like Gecko) Version/4.0 Chrome/37.0.0.0 Mobile MQQBrowser/6.8 TBS/036849 Safari/537.36 MicroMessenger/6.3.27.880 NetType/WIFI Language/zh_CN'
p52
sg16
S'9352c741dd852daa53b7eb1dfd3c9f16'
p53
sa(dp54
g2
S'33851'
p55
sg4
S'613'
p56
sg6
S'6d9be4f3deb5c49bc8d2d61f4a867a09'
p57
sg8
S'xxe3310934632c56757c6f92851cbd5cbd'
p58
sg10
S'xxa1eddb067d69156b5a420a68e90e67cd'
p59
sg12
S'xx2a50b8001c32b57756f69c5c6098c8e2'
p60
sg14
S'Mozilla/5.0 (Linux; Android 4.4.2; CHM-TL00H Build/HonorCHM-TL00H) AppleWebKit/537.36 (KHTML, like Gecko) Version/4.0 Chrome/37.0.0.0 Mobile MQQBrowser/6.8 TBS/036849 Safari/537.36 MicroMessenger/6.3.27.880 NetType/WIFI Language/zh_CN'
p61
sg16
S'9352c741dd852daa53b7eb1dfd3c9f16'
p62
sa(dp63
g2
S'33851'
p64
sg4
S'2057'
p65
sg6
S'6cdc68a9d92aca403cbca8e8e5b5a104'
p66
sg8
S'xxe3310934632c56757c6f92851cbd5cbd'
p67
sg10
S'xxa1eddb067d69156b5a420a68e90e67cd'
p68
sg12
S'xx2a50b8001c32b57756f69c5c6098c8e2'
p69
sg14
S'Mozilla/5.0 (Linux; Android 4.4.2; CHM-TL00H Build/HonorCHM-TL00H) AppleWebKit/537.36 (KHTML, like Gecko) Version/4.0 Chrome/37.0.0.0 Mobile MQQBrowser/6.8 TBS/036849 Safari/537.36 MicroMessenger/6.3.27.880 NetType/WIFI Language/zh_CN'
p70
sg16
S'9352c741dd852daa53b7eb1dfd3c9f16'
p71
sa(dp72
g2
S'33851'
p73
sg4
S'2068'
p74
sg6
S'6cdc68a9d92aca403cbca8e8e5b5a104'
p75
sg8
S'xxe3310934632c56757c6f92851cbd5cbd'
p76
sg10
S'xxa1eddb067d69156b5a420a68e90e67cd'
p77
sg12
S'xx2a50b8001c32b57756f69c5c6098c8e2'
p78
sg14
S'Mozilla/5.0 (Linux; Android 4.4.2; CHM-TL00H Build/HonorCHM-TL00H) AppleWebKit/537.36 (KHTML, like Gecko) Version/4.0 Chrome/37.0.0.0 Mobile MQQBrowser/6.8 TBS/036849 Safari/537.36 MicroMessenger/6.3.27.880 NetType/WIFI Language/zh_CN'
p79
sg16
S'9352c741dd852daa53b7eb1dfd3c9f16'
p80
sa.