(lp0
(dp1
S'user_id'
p2
S'24592'
p3
sS'data_id'
p4
S'7993'
p5
sS'ip'
p6
S'db54bc6f771455fe2172e2768209c47e'
p7
sS'phone_B'
p8
S'xx09522b07dd4bfc42cb873a15191e1440'
p9
sS'phone_C'
p10
S'xx52151d64d779d05003cb50bd155cc58b'
p11
sS'phone_A'
p12
S'xx2a494350b70c0a48d1b61a4ee40e5fa1'
p13
sS'user_agent'
p14
S'Mozilla/5.0 (Linux; Android 4.3; R7007 Build/JLS36C) AppleWebKit/537.36 (KHTML, like Gecko) Version/4.0 Chrome/37.0.0.0 Mobile MQQBrowser/6.8 TBS/036849 Safari/537.36 MicroMessenger/6.3.27.880 NetType/cmnet Language/zh_CN'
p15
sS'ua'
p16
S'2f937cba724607c9a4b1a720c4ccab37'
p17
sa(dp18
g2
S'24592'
p19
sg4
S'8010'
p20
sg6
S'db54bc6f771455fe2172e2768209c47e'
p21
sg8
S'xx09522b07dd4bfc42cb873a15191e1440'
p22
sg10
S'xx52151d64d779d05003cb50bd155cc58b'
p23
sg12
S'xx2a494350b70c0a48d1b61a4ee40e5fa1'
p24
sg14
S'Mozilla/5.0 (Linux; Android 4.3; R7007 Build/JLS36C) AppleWebKit/537.36 (KHTML, like Gecko) Version/4.0 Chrome/37.0.0.0 Mobile MQQBrowser/6.8 TBS/036849 Safari/537.36 MicroMessenger/6.3.27.880 NetType/cmnet Language/zh_CN'
p25
sg16
S'2f937cba724607c9a4b1a720c4ccab37'
p26
sa(dp27
g2
S'24592'
p28
sg4
S'8028'
p29
sg6
S'db54bc6f771455fe2172e2768209c47e'
p30
sg8
S'xx09522b07dd4bfc42cb873a15191e1440'
p31
sg10
S'xx52151d64d779d05003cb50bd155cc58b'
p32
sg12
S'xx2a494350b70c0a48d1b61a4ee40e5fa1'
p33
sg14
S'Mozilla/5.0 (Linux; Android 4.3; R7007 Build/JLS36C) AppleWebKit/537.36 (KHTML, like Gecko) Version/4.0 Chrome/37.0.0.0 Mobile MQQBrowser/6.8 TBS/036849 Safari/537.36 MicroMessenger/6.3.27.880 NetType/cmnet Language/zh_CN'
p34
sg16
S'2f937cba724607c9a4b1a720c4ccab37'
p35
sa.