(lp0
(dp1
S'user_id'
p2
S'24068'
p3
sS'data_id'
p4
S'6674'
p5
sS'ip'
p6
S'f58f5b701ad86a313d226e16a9ef0b9f'
p7
sS'phone_B'
p8
S'xxf381c8102cf606325c9fdbbf4be72a35'
p9
sS'phone_C'
p10
S'xx5ba6e83ab19ca3a94d39ebfc36eb8d6b'
p11
sS'phone_A'
p12
S'xx2aedb31856af15f2bb8586155e8e00a9'
p13
sS'user_agent'
p14
S'Mozilla/5.0 (Linux; Android 4.4.4; C8817D Build/HuaweiC8817D) AppleWebKit/537.36 (KHTML, like Gecko) Version/4.0 Chrome/37.0.0.0 Mobile MQQBrowser/6.8 TBS/036849 Safari/537.36 MicroMessenger/6.3.27.880 NetType/ctlte Language/zh_CN'
p15
sS'ua'
p16
S'1534157de17967ae6fa02162a27795f5'
p17
sa(dp18
g2
S'24068'
p19
sg4
S'6693'
p20
sg6
S'f58f5b701ad86a313d226e16a9ef0b9f'
p21
sg8
S'xxf381c8102cf606325c9fdbbf4be72a35'
p22
sg10
S'xx5ba6e83ab19ca3a94d39ebfc36eb8d6b'
p23
sg12
S'xx2aedb31856af15f2bb8586155e8e00a9'
p24
sg14
S'Mozilla/5.0 (Linux; Android 4.4.4; C8817D Build/HuaweiC8817D) AppleWebKit/537.36 (KHTML, like Gecko) Version/4.0 Chrome/37.0.0.0 Mobile MQQBrowser/6.8 TBS/036849 Safari/537.36 MicroMessenger/6.3.27.880 NetType/ctlte Language/zh_CN'
p25
sg16
S'1534157de17967ae6fa02162a27795f5'
p26
sa.