(lp0
(dp1
S'user_id'
p2
S'23859'
p3
sS'data_id'
p4
S'8779'
p5
sS'ip'
p6
S'4e19a7f6501f2104da79f7d00f9b204d'
p7
sS'phone_B'
p8
S'xx43d9011a795fa62d32b4c8ff41831868'
p9
sS'phone_C'
p10
S'xx0cd7a6f2e85b8e05fb014b9b634a62b4'
p11
sS'phone_A'
p12
S'xx2a38131d777865875d1193af01a33b7a'
p13
sS'user_agent'
p14
S'Mozilla/5.0 (Linux; Android 5.1; R9 Build/LMY47D) AppleWebKit/537.36 (KHTML, like Gecko) Version/4.0 Chrome/37.0.0.0 Mobile MQQBrowser/6.8 TBS/036849 Safari/537.36 MicroMessenger/6.3.25.861 NetType/WIFI Language/zh_CN'
p15
sS'ua'
p16
S'7d360d61705ae592142db877235f89bf'
p17
sa(dp18
g2
S'23859'
p19
sg4
S'8792'
p20
sg6
S'4e19a7f6501f2104da79f7d00f9b204d'
p21
sg8
S'xx43d9011a795fa62d32b4c8ff41831868'
p22
sg10
S'xx0cd7a6f2e85b8e05fb014b9b634a62b4'
p23
sg12
S'xx2a38131d777865875d1193af01a33b7a'
p24
sg14
S'Mozilla/5.0 (Linux; Android 5.1; R9 Build/LMY47D) AppleWebKit/537.36 (KHTML, like Gecko) Version/4.0 Chrome/37.0.0.0 Mobile MQQBrowser/6.8 TBS/036849 Safari/537.36 MicroMessenger/6.3.25.861 NetType/WIFI Language/zh_CN'
p25
sg16
S'7d360d61705ae592142db877235f89bf'
p26
sa(dp27
g2
S'23859'
p28
sg4
S'8803'
p29
sg6
S'4e19a7f6501f2104da79f7d00f9b204d'
p30
sg8
S'xx43d9011a795fa62d32b4c8ff41831868'
p31
sg10
S'xx0cd7a6f2e85b8e05fb014b9b634a62b4'
p32
sg12
S'xx2a38131d777865875d1193af01a33b7a'
p33
sg14
S'Mozilla/5.0 (Linux; Android 5.1; R9 Build/LMY47D) AppleWebKit/537.36 (KHTML, like Gecko) Version/4.0 Chrome/37.0.0.0 Mobile MQQBrowser/6.8 TBS/036849 Safari/537.36 MicroMessenger/6.3.25.861 NetType/WIFI Language/zh_CN'
p34
sg16
S'7d360d61705ae592142db877235f89bf'
p35
sa(dp36
g2
S'23859'
p37
sg4
S'8811'
p38
sg6
S'4e19a7f6501f2104da79f7d00f9b204d'
p39
sg8
S'xx43d9011a795fa62d32b4c8ff41831868'
p40
sg10
S'xx0cd7a6f2e85b8e05fb014b9b634a62b4'
p41
sg12
S'xx2a38131d777865875d1193af01a33b7a'
p42
sg14
S'Mozilla/5.0 (Linux; Android 5.1; R9 Build/LMY47D) AppleWebKit/537.36 (KHTML, like Gecko) Version/4.0 Chrome/37.0.0.0 Mobile MQQBrowser/6.8 TBS/036849 Safari/537.36 MicroMessenger/6.3.25.861 NetType/WIFI Language/zh_CN'
p43
sg16
S'7d360d61705ae592142db877235f89bf'
p44
sa(dp45
g2
S'23859'
p46
sg4
S'8820'
p47
sg6
S'4e19a7f6501f2104da79f7d00f9b204d'
p48
sg8
S'xx43d9011a795fa62d32b4c8ff41831868'
p49
sg10
S'xx0cd7a6f2e85b8e05fb014b9b634a62b4'
p50
sg12
S'xx2a38131d777865875d1193af01a33b7a'
p51
sg14
S'Mozilla/5.0 (Linux; Android 5.1; R9 Build/LMY47D) AppleWebKit/537.36 (KHTML, like Gecko) Version/4.0 Chrome/37.0.0.0 Mobile MQQBrowser/6.8 TBS/036849 Safari/537.36 MicroMessenger/6.3.25.861 NetType/WIFI Language/zh_CN'
p52
sg16
S'7d360d61705ae592142db877235f89bf'
p53
sa(dp54
g2
S'23859'
p55
sg4
S'8828'
p56
sg6
S'4e19a7f6501f2104da79f7d00f9b204d'
p57
sg8
S'xx43d9011a795fa62d32b4c8ff41831868'
p58
sg10
S'xx0cd7a6f2e85b8e05fb014b9b634a62b4'
p59
sg12
S'xx2a38131d777865875d1193af01a33b7a'
p60
sg14
S'Mozilla/5.0 (Linux; Android 5.1; R9 Build/LMY47D) AppleWebKit/537.36 (KHTML, like Gecko) Version/4.0 Chrome/37.0.0.0 Mobile MQQBrowser/6.8 TBS/036849 Safari/537.36 MicroMessenger/6.3.25.861 NetType/WIFI Language/zh_CN'
p61
sg16
S'7d360d61705ae592142db877235f89bf'
p62
sa(dp63
g2
S'23859'
p64
sg4
S'8840'
p65
sg6
S'4e19a7f6501f2104da79f7d00f9b204d'
p66
sg8
S'xx43d9011a795fa62d32b4c8ff41831868'
p67
sg10
S'xx0cd7a6f2e85b8e05fb014b9b634a62b4'
p68
sg12
S'xx2a38131d777865875d1193af01a33b7a'
p69
sg14
S'Mozilla/5.0 (Linux; Android 5.1; R9 Build/LMY47D) AppleWebKit/537.36 (KHTML, like Gecko) Version/4.0 Chrome/37.0.0.0 Mobile MQQBrowser/6.8 TBS/036849 Safari/537.36 MicroMessenger/6.3.25.861 NetType/WIFI Language/zh_CN'
p70
sg16
S'7d360d61705ae592142db877235f89bf'
p71
sa.