(lp0
(dp1
S'user_id'
p2
S'49764'
p3
sS'data_id'
p4
S'2651'
p5
sS'ip'
p6
S'4fa65abd9fff46e5a0c4ca637fa45b32'
p7
sS'phone_B'
p8
S'xxafec5f2eebcd7aa0a0c14ad170a35eff'
p9
sS'phone_C'
p10
S'xxda419851033273d199bbe592c0970f7f'
p11
sS'phone_A'
p12
S'xx2d36b36934eb3614e68874cd466e0cc5'
p13
sS'user_agent'
p14
S'Mozilla/5.0 (Linux; Android 6.0.1; SM-G9200 Build/MMB29K) AppleWebKit/537.36 (KHTML, like Gecko) Version/4.0 Chrome/37.0.0.0 Mobile MQQBrowser/6.8 TBS/036869 Safari/537.36 MicroMessenger/6.3.27.880 NetType/cmnet Language/zh_CN'
p15
sS'ua'
p16
S'edf225294cf0183d1f1445a8baa4fbfa'
p17
sa(dp18
g2
S'49764'
p19
sg4
S'2672'
p20
sg6
S'4fa65abd9fff46e5a0c4ca637fa45b32'
p21
sg8
S'xxafec5f2eebcd7aa0a0c14ad170a35eff'
p22
sg10
S'xxda419851033273d199bbe592c0970f7f'
p23
sg12
S'xx2d36b36934eb3614e68874cd466e0cc5'
p24
sg14
S'Mozilla/5.0 (Linux; Android 6.0.1; SM-G9200 Build/MMB29K) AppleWebKit/537.36 (KHTML, like Gecko) Version/4.0 Chrome/37.0.0.0 Mobile MQQBrowser/6.8 TBS/036869 Safari/537.36 MicroMessenger/6.3.27.880 NetType/cmnet Language/zh_CN'
p25
sg16
S'edf225294cf0183d1f1445a8baa4fbfa'
p26
sa(dp27
g2
S'49375'
p28
sg4
S'3870'
p29
sg6
S'02282188ddf12b499b6a2e17c244996a'
p30
sg8
S'xxa77c578517dc0757276e64a6b2d27b21'
p31
sg10
S'xxda419851033273d199bbe592c0970f7f'
p32
sg12
S'xx2d36b36934eb3614e68874cd466e0cc5'
p33
sg14
S'Mozilla/5.0 (Linux; Android 6.0.1; SM-G9200 Build/MMB29K) AppleWebKit/537.36 (KHTML, like Gecko) Version/4.0 Chrome/37.0.0.0 Mobile MQQBrowser/6.8 TBS/036849 Safari/537.36 MicroMessenger/6.3.27.880 NetType/WIFI Language/zh_CN'
p34
sg16
S'3eb256729aab03f288eea8245d6bda66'
p35
sa(dp36
g2
S'49375'
p37
sg4
S'3889'
p38
sg6
S'02282188ddf12b499b6a2e17c244996a'
p39
sg8
S'xxa77c578517dc0757276e64a6b2d27b21'
p40
sg10
S'xxda419851033273d199bbe592c0970f7f'
p41
sg12
S'xx2d36b36934eb3614e68874cd466e0cc5'
p42
sg14
S'Mozilla/5.0 (Linux; Android 6.0.1; SM-G9200 Build/MMB29K) AppleWebKit/537.36 (KHTML, like Gecko) Version/4.0 Chrome/37.0.0.0 Mobile MQQBrowser/6.8 TBS/036849 Safari/537.36 MicroMessenger/6.3.27.880 NetType/WIFI Language/zh_CN'
p43
sg16
S'3eb256729aab03f288eea8245d6bda66'
p44
sa(dp45
g2
S'49375'
p46
sg4
S'3913'
p47
sg6
S'02282188ddf12b499b6a2e17c244996a'
p48
sg8
S'xxa77c578517dc0757276e64a6b2d27b21'
p49
sg10
S'xxda419851033273d199bbe592c0970f7f'
p50
sg12
S'xx2d36b36934eb3614e68874cd466e0cc5'
p51
sg14
S'Mozilla/5.0 (Linux; Android 6.0.1; SM-G9200 Build/MMB29K) AppleWebKit/537.36 (KHTML, like Gecko) Version/4.0 Chrome/37.0.0.0 Mobile MQQBrowser/6.8 TBS/036849 Safari/537.36 MicroMessenger/6.3.27.880 NetType/WIFI Language/zh_CN'
p52
sg16
S'3eb256729aab03f288eea8245d6bda66'
p53
sa(dp54
g2
S'49375'
p55
sg4
S'3936'
p56
sg6
S'02282188ddf12b499b6a2e17c244996a'
p57
sg8
S'xxa77c578517dc0757276e64a6b2d27b21'
p58
sg10
S'xxda419851033273d199bbe592c0970f7f'
p59
sg12
S'xx2d36b36934eb3614e68874cd466e0cc5'
p60
sg14
S'Mozilla/5.0 (Linux; Android 6.0.1; SM-G9200 Build/MMB29K) AppleWebKit/537.36 (KHTML, like Gecko) Version/4.0 Chrome/37.0.0.0 Mobile MQQBrowser/6.8 TBS/036849 Safari/537.36 MicroMessenger/6.3.27.880 NetType/WIFI Language/zh_CN'
p61
sg16
S'3eb256729aab03f288eea8245d6bda66'
p62
sa(dp63
g2
S'49375'
p64
sg4
S'3956'
p65
sg6
S'02282188ddf12b499b6a2e17c244996a'
p66
sg8
S'xxa77c578517dc0757276e64a6b2d27b21'
p67
sg10
S'xxda419851033273d199bbe592c0970f7f'
p68
sg12
S'xx2d36b36934eb3614e68874cd466e0cc5'
p69
sg14
S'Mozilla/5.0 (Linux; Android 6.0.1; SM-G9200 Build/MMB29K) AppleWebKit/537.36 (KHTML, like Gecko) Version/4.0 Chrome/37.0.0.0 Mobile MQQBrowser/6.8 TBS/036849 Safari/537.36 MicroMessenger/6.3.27.880 NetType/WIFI Language/zh_CN'
p70
sg16
S'3eb256729aab03f288eea8245d6bda66'
p71
sa(dp72
g2
S'49375'
p73
sg4
S'3974'
p74
sg6
S'02282188ddf12b499b6a2e17c244996a'
p75
sg8
S'xxa77c578517dc0757276e64a6b2d27b21'
p76
sg10
S'xxda419851033273d199bbe592c0970f7f'
p77
sg12
S'xx2d36b36934eb3614e68874cd466e0cc5'
p78
sg14
S'Mozilla/5.0 (Linux; Android 6.0.1; SM-G9200 Build/MMB29K) AppleWebKit/537.36 (KHTML, like Gecko) Version/4.0 Chrome/37.0.0.0 Mobile MQQBrowser/6.8 TBS/036849 Safari/537.36 MicroMessenger/6.3.27.880 NetType/WIFI Language/zh_CN'
p79
sg16
S'3eb256729aab03f288eea8245d6bda66'
p80
sa(dp81
g2
S'49375'
p82
sg4
S'3991'
p83
sg6
S'02282188ddf12b499b6a2e17c244996a'
p84
sg8
S'xxa77c578517dc0757276e64a6b2d27b21'
p85
sg10
S'xxda419851033273d199bbe592c0970f7f'
p86
sg12
S'xx2d36b36934eb3614e68874cd466e0cc5'
p87
sg14
S'Mozilla/5.0 (Linux; Android 6.0.1; SM-G9200 Build/MMB29K) AppleWebKit/537.36 (KHTML, like Gecko) Version/4.0 Chrome/37.0.0.0 Mobile MQQBrowser/6.8 TBS/036849 Safari/537.36 MicroMessenger/6.3.27.880 NetType/WIFI Language/zh_CN'
p88
sg16
S'3eb256729aab03f288eea8245d6bda66'
p89
sa(dp90
g2
S'49375'
p91
sg4
S'4011'
p92
sg6
S'02282188ddf12b499b6a2e17c244996a'
p93
sg8
S'xxa77c578517dc0757276e64a6b2d27b21'
p94
sg10
S'xxda419851033273d199bbe592c0970f7f'
p95
sg12
S'xx2d36b36934eb3614e68874cd466e0cc5'
p96
sg14
S'Mozilla/5.0 (Linux; Android 6.0.1; SM-G9200 Build/MMB29K) AppleWebKit/537.36 (KHTML, like Gecko) Version/4.0 Chrome/37.0.0.0 Mobile MQQBrowser/6.8 TBS/036849 Safari/537.36 MicroMessenger/6.3.27.880 NetType/WIFI Language/zh_CN'
p97
sg16
S'3eb256729aab03f288eea8245d6bda66'
p98
sa(dp99
g2
S'49375'
p100
sg4
S'4059'
p101
sg6
S'02282188ddf12b499b6a2e17c244996a'
p102
sg8
S'xxa77c578517dc0757276e64a6b2d27b21'
p103
sg10
S'xxda419851033273d199bbe592c0970f7f'
p104
sg12
S'xx2d36b36934eb3614e68874cd466e0cc5'
p105
sg14
S'Mozilla/5.0 (Linux; Android 6.0.1; SM-G9200 Build/MMB29K) AppleWebKit/537.36 (KHTML, like Gecko) Version/4.0 Chrome/37.0.0.0 Mobile MQQBrowser/6.8 TBS/036849 Safari/537.36 MicroMessenger/6.3.27.880 NetType/WIFI Language/zh_CN'
p106
sg16
S'3eb256729aab03f288eea8245d6bda66'
p107
sa(dp108
g2
S'49375'
p109
sg4
S'4122'
p110
sg6
S'02282188ddf12b499b6a2e17c244996a'
p111
sg8
S'xxa77c578517dc0757276e64a6b2d27b21'
p112
sg10
S'xxda419851033273d199bbe592c0970f7f'
p113
sg12
S'xx2d36b36934eb3614e68874cd466e0cc5'
p114
sg14
S'Mozilla/5.0 (Linux; Android 6.0.1; SM-G9200 Build/MMB29K) AppleWebKit/537.36 (KHTML, like Gecko) Version/4.0 Chrome/37.0.0.0 Mobile MQQBrowser/6.8 TBS/036849 Safari/537.36 MicroMessenger/6.3.27.880 NetType/WIFI Language/zh_CN'
p115
sg16
S'3eb256729aab03f288eea8245d6bda66'
p116
sa(dp117
g2
S'49375'
p118
sg4
S'4306'
p119
sg6
S'02282188ddf12b499b6a2e17c244996a'
p120
sg8
S'xxa77c578517dc0757276e64a6b2d27b21'
p121
sg10
S'xxda419851033273d199bbe592c0970f7f'
p122
sg12
S'xx2d36b36934eb3614e68874cd466e0cc5'
p123
sg14
S'Mozilla/5.0 (Linux; Android 6.0.1; SM-G9200 Build/MMB29K) AppleWebKit/537.36 (KHTML, like Gecko) Version/4.0 Chrome/37.0.0.0 Mobile MQQBrowser/6.8 TBS/036849 Safari/537.36 MicroMessenger/6.3.27.880 NetType/WIFI Language/zh_CN'
p124
sg16
S'3eb256729aab03f288eea8245d6bda66'
p125
sa(dp126
g2
S'49375'
p127
sg4
S'4359'
p128
sg6
S'02282188ddf12b499b6a2e17c244996a'
p129
sg8
S'xxa77c578517dc0757276e64a6b2d27b21'
p130
sg10
S'xxda419851033273d199bbe592c0970f7f'
p131
sg12
S'xx2d36b36934eb3614e68874cd466e0cc5'
p132
sg14
S'Mozilla/5.0 (Linux; Android 6.0.1; SM-G9200 Build/MMB29K) AppleWebKit/537.36 (KHTML, like Gecko) Version/4.0 Chrome/37.0.0.0 Mobile MQQBrowser/6.8 TBS/036849 Safari/537.36 MicroMessenger/6.3.27.880 NetType/WIFI Language/zh_CN'
p133
sg16
S'3eb256729aab03f288eea8245d6bda66'
p134
sa(dp135
g2
S'49375'
p136
sg4
S'4382'
p137
sg6
S'02282188ddf12b499b6a2e17c244996a'
p138
sg8
S'xxa77c578517dc0757276e64a6b2d27b21'
p139
sg10
S'xxda419851033273d199bbe592c0970f7f'
p140
sg12
S'xx2d36b36934eb3614e68874cd466e0cc5'
p141
sg14
S'Mozilla/5.0 (Linux; Android 6.0.1; SM-G9200 Build/MMB29K) AppleWebKit/537.36 (KHTML, like Gecko) Version/4.0 Chrome/37.0.0.0 Mobile MQQBrowser/6.8 TBS/036849 Safari/537.36 MicroMessenger/6.3.27.880 NetType/WIFI Language/zh_CN'
p142
sg16
S'3eb256729aab03f288eea8245d6bda66'
p143
sa(dp144
g2
S'49375'
p145
sg4
S'4408'
p146
sg6
S'02282188ddf12b499b6a2e17c244996a'
p147
sg8
S'xxa77c578517dc0757276e64a6b2d27b21'
p148
sg10
S'xxda419851033273d199bbe592c0970f7f'
p149
sg12
S'xx2d36b36934eb3614e68874cd466e0cc5'
p150
sg14
S'Mozilla/5.0 (Linux; Android 6.0.1; SM-G9200 Build/MMB29K) AppleWebKit/537.36 (KHTML, like Gecko) Version/4.0 Chrome/37.0.0.0 Mobile MQQBrowser/6.8 TBS/036849 Safari/537.36 MicroMessenger/6.3.27.880 NetType/WIFI Language/zh_CN'
p151
sg16
S'3eb256729aab03f288eea8245d6bda66'
p152
sa(dp153
g2
S'49375'
p154
sg4
S'4456'
p155
sg6
S'02282188ddf12b499b6a2e17c244996a'
p156
sg8
S'xxa77c578517dc0757276e64a6b2d27b21'
p157
sg10
S'xxda419851033273d199bbe592c0970f7f'
p158
sg12
S'xx2d36b36934eb3614e68874cd466e0cc5'
p159
sg14
S'Mozilla/5.0 (Linux; Android 6.0.1; SM-G9200 Build/MMB29K) AppleWebKit/537.36 (KHTML, like Gecko) Version/4.0 Chrome/37.0.0.0 Mobile MQQBrowser/6.8 TBS/036849 Safari/537.36 MicroMessenger/6.3.27.880 NetType/WIFI Language/zh_CN'
p160
sg16
S'3eb256729aab03f288eea8245d6bda66'
p161
sa(dp162
g2
S'49375'
p163
sg4
S'4473'
p164
sg6
S'02282188ddf12b499b6a2e17c244996a'
p165
sg8
S'xxa77c578517dc0757276e64a6b2d27b21'
p166
sg10
S'xxda419851033273d199bbe592c0970f7f'
p167
sg12
S'xx2d36b36934eb3614e68874cd466e0cc5'
p168
sg14
S'Mozilla/5.0 (Linux; Android 6.0.1; SM-G9200 Build/MMB29K) AppleWebKit/537.36 (KHTML, like Gecko) Version/4.0 Chrome/37.0.0.0 Mobile MQQBrowser/6.8 TBS/036849 Safari/537.36 MicroMessenger/6.3.27.880 NetType/WIFI Language/zh_CN'
p169
sg16
S'3eb256729aab03f288eea8245d6bda66'
p170
sa(dp171
g2
S'49375'
p172
sg4
S'4485'
p173
sg6
S'02282188ddf12b499b6a2e17c244996a'
p174
sg8
S'xxa77c578517dc0757276e64a6b2d27b21'
p175
sg10
S'xxda419851033273d199bbe592c0970f7f'
p176
sg12
S'xx2d36b36934eb3614e68874cd466e0cc5'
p177
sg14
S'Mozilla/5.0 (Linux; Android 6.0.1; SM-G9200 Build/MMB29K) AppleWebKit/537.36 (KHTML, like Gecko) Version/4.0 Chrome/37.0.0.0 Mobile MQQBrowser/6.8 TBS/036849 Safari/537.36 MicroMessenger/6.3.27.880 NetType/WIFI Language/zh_CN'
p178
sg16
S'3eb256729aab03f288eea8245d6bda66'
p179
sa(dp180
g2
S'49375'
p181
sg4
S'4501'
p182
sg6
S'02282188ddf12b499b6a2e17c244996a'
p183
sg8
S'xxa77c578517dc0757276e64a6b2d27b21'
p184
sg10
S'xxda419851033273d199bbe592c0970f7f'
p185
sg12
S'xx2d36b36934eb3614e68874cd466e0cc5'
p186
sg14
S'Mozilla/5.0 (Linux; Android 6.0.1; SM-G9200 Build/MMB29K) AppleWebKit/537.36 (KHTML, like Gecko) Version/4.0 Chrome/37.0.0.0 Mobile MQQBrowser/6.8 TBS/036849 Safari/537.36 MicroMessenger/6.3.27.880 NetType/WIFI Language/zh_CN'
p187
sg16
S'3eb256729aab03f288eea8245d6bda66'
p188
sa(dp189
g2
S'49375'
p190
sg4
S'4522'
p191
sg6
S'02282188ddf12b499b6a2e17c244996a'
p192
sg8
S'xxa77c578517dc0757276e64a6b2d27b21'
p193
sg10
S'xxda419851033273d199bbe592c0970f7f'
p194
sg12
S'xx2d36b36934eb3614e68874cd466e0cc5'
p195
sg14
S'Mozilla/5.0 (Linux; Android 6.0.1; SM-G9200 Build/MMB29K) AppleWebKit/537.36 (KHTML, like Gecko) Version/4.0 Chrome/37.0.0.0 Mobile MQQBrowser/6.8 TBS/036849 Safari/537.36 MicroMessenger/6.3.27.880 NetType/WIFI Language/zh_CN'
p196
sg16
S'3eb256729aab03f288eea8245d6bda66'
p197
sa(dp198
g2
S'49375'
p199
sg4
S'4554'
p200
sg6
S'02282188ddf12b499b6a2e17c244996a'
p201
sg8
S'xxa77c578517dc0757276e64a6b2d27b21'
p202
sg10
S'xxda419851033273d199bbe592c0970f7f'
p203
sg12
S'xx2d36b36934eb3614e68874cd466e0cc5'
p204
sg14
S'Mozilla/5.0 (Linux; Android 6.0.1; SM-G9200 Build/MMB29K) AppleWebKit/537.36 (KHTML, like Gecko) Version/4.0 Chrome/37.0.0.0 Mobile MQQBrowser/6.8 TBS/036849 Safari/537.36 MicroMessenger/6.3.27.880 NetType/WIFI Language/zh_CN'
p205
sg16
S'3eb256729aab03f288eea8245d6bda66'
p206
sa(dp207
g2
S'49375'
p208
sg4
S'4576'
p209
sg6
S'02282188ddf12b499b6a2e17c244996a'
p210
sg8
S'xxa77c578517dc0757276e64a6b2d27b21'
p211
sg10
S'xxda419851033273d199bbe592c0970f7f'
p212
sg12
S'xx2d36b36934eb3614e68874cd466e0cc5'
p213
sg14
S'Mozilla/5.0 (Linux; Android 6.0.1; SM-G9200 Build/MMB29K) AppleWebKit/537.36 (KHTML, like Gecko) Version/4.0 Chrome/37.0.0.0 Mobile MQQBrowser/6.8 TBS/036849 Safari/537.36 MicroMessenger/6.3.27.880 NetType/WIFI Language/zh_CN'
p214
sg16
S'3eb256729aab03f288eea8245d6bda66'
p215
sa(dp216
g2
S'49375'
p217
sg4
S'4600'
p218
sg6
S'02282188ddf12b499b6a2e17c244996a'
p219
sg8
S'xxa77c578517dc0757276e64a6b2d27b21'
p220
sg10
S'xxda419851033273d199bbe592c0970f7f'
p221
sg12
S'xx2d36b36934eb3614e68874cd466e0cc5'
p222
sg14
S'Mozilla/5.0 (Linux; Android 6.0.1; SM-G9200 Build/MMB29K) AppleWebKit/537.36 (KHTML, like Gecko) Version/4.0 Chrome/37.0.0.0 Mobile MQQBrowser/6.8 TBS/036849 Safari/537.36 MicroMessenger/6.3.27.880 NetType/WIFI Language/zh_CN'
p223
sg16
S'3eb256729aab03f288eea8245d6bda66'
p224
sa(dp225
g2
S'49375'
p226
sg4
S'4617'
p227
sg6
S'02282188ddf12b499b6a2e17c244996a'
p228
sg8
S'xxa77c578517dc0757276e64a6b2d27b21'
p229
sg10
S'xxda419851033273d199bbe592c0970f7f'
p230
sg12
S'xx2d36b36934eb3614e68874cd466e0cc5'
p231
sg14
S'Mozilla/5.0 (Linux; Android 6.0.1; SM-G9200 Build/MMB29K) AppleWebKit/537.36 (KHTML, like Gecko) Version/4.0 Chrome/37.0.0.0 Mobile MQQBrowser/6.8 TBS/036849 Safari/537.36 MicroMessenger/6.3.27.880 NetType/WIFI Language/zh_CN'
p232
sg16
S'3eb256729aab03f288eea8245d6bda66'
p233
sa(dp234
g2
S'49375'
p235
sg4
S'4633'
p236
sg6
S'02282188ddf12b499b6a2e17c244996a'
p237
sg8
S'xxa77c578517dc0757276e64a6b2d27b21'
p238
sg10
S'xxda419851033273d199bbe592c0970f7f'
p239
sg12
S'xx2d36b36934eb3614e68874cd466e0cc5'
p240
sg14
S'Mozilla/5.0 (Linux; Android 6.0.1; SM-G9200 Build/MMB29K) AppleWebKit/537.36 (KHTML, like Gecko) Version/4.0 Chrome/37.0.0.0 Mobile MQQBrowser/6.8 TBS/036849 Safari/537.36 MicroMessenger/6.3.27.880 NetType/WIFI Language/zh_CN'
p241
sg16
S'3eb256729aab03f288eea8245d6bda66'
p242
sa(dp243
g2
S'49375'
p244
sg4
S'4649'
p245
sg6
S'02282188ddf12b499b6a2e17c244996a'
p246
sg8
S'xxa77c578517dc0757276e64a6b2d27b21'
p247
sg10
S'xxda419851033273d199bbe592c0970f7f'
p248
sg12
S'xx2d36b36934eb3614e68874cd466e0cc5'
p249
sg14
S'Mozilla/5.0 (Linux; Android 6.0.1; SM-G9200 Build/MMB29K) AppleWebKit/537.36 (KHTML, like Gecko) Version/4.0 Chrome/37.0.0.0 Mobile MQQBrowser/6.8 TBS/036849 Safari/537.36 MicroMessenger/6.3.27.880 NetType/WIFI Language/zh_CN'
p250
sg16
S'3eb256729aab03f288eea8245d6bda66'
p251
sa(dp252
g2
S'49375'
p253
sg4
S'4668'
p254
sg6
S'02282188ddf12b499b6a2e17c244996a'
p255
sg8
S'xxa77c578517dc0757276e64a6b2d27b21'
p256
sg10
S'xxda419851033273d199bbe592c0970f7f'
p257
sg12
S'xx2d36b36934eb3614e68874cd466e0cc5'
p258
sg14
S'Mozilla/5.0 (Linux; Android 6.0.1; SM-G9200 Build/MMB29K) AppleWebKit/537.36 (KHTML, like Gecko) Version/4.0 Chrome/37.0.0.0 Mobile MQQBrowser/6.8 TBS/036849 Safari/537.36 MicroMessenger/6.3.27.880 NetType/WIFI Language/zh_CN'
p259
sg16
S'3eb256729aab03f288eea8245d6bda66'
p260
sa(dp261
g2
S'49375'
p262
sg4
S'4712'
p263
sg6
S'02282188ddf12b499b6a2e17c244996a'
p264
sg8
S'xxa77c578517dc0757276e64a6b2d27b21'
p265
sg10
S'xxda419851033273d199bbe592c0970f7f'
p266
sg12
S'xx2d36b36934eb3614e68874cd466e0cc5'
p267
sg14
S'Mozilla/5.0 (Linux; Android 6.0.1; SM-G9200 Build/MMB29K) AppleWebKit/537.36 (KHTML, like Gecko) Version/4.0 Chrome/37.0.0.0 Mobile MQQBrowser/6.8 TBS/036849 Safari/537.36 MicroMessenger/6.3.27.880 NetType/WIFI Language/zh_CN'
p268
sg16
S'3eb256729aab03f288eea8245d6bda66'
p269
sa(dp270
g2
S'49375'
p271
sg4
S'4816'
p272
sg6
S'02282188ddf12b499b6a2e17c244996a'
p273
sg8
S'xxa77c578517dc0757276e64a6b2d27b21'
p274
sg10
S'xxda419851033273d199bbe592c0970f7f'
p275
sg12
S'xx2d36b36934eb3614e68874cd466e0cc5'
p276
sg14
S'Mozilla/5.0 (Linux; Android 6.0.1; SM-G9200 Build/MMB29K) AppleWebKit/537.36 (KHTML, like Gecko) Version/4.0 Chrome/37.0.0.0 Mobile MQQBrowser/6.8 TBS/036849 Safari/537.36 MicroMessenger/6.3.27.880 NetType/WIFI Language/zh_CN'
p277
sg16
S'3eb256729aab03f288eea8245d6bda66'
p278
sa(dp279
g2
S'49375'
p280
sg4
S'4866'
p281
sg6
S'02282188ddf12b499b6a2e17c244996a'
p282
sg8
S'xxa77c578517dc0757276e64a6b2d27b21'
p283
sg10
S'xxda419851033273d199bbe592c0970f7f'
p284
sg12
S'xx2d36b36934eb3614e68874cd466e0cc5'
p285
sg14
S'Mozilla/5.0 (Linux; Android 6.0.1; SM-G9200 Build/MMB29K) AppleWebKit/537.36 (KHTML, like Gecko) Version/4.0 Chrome/37.0.0.0 Mobile MQQBrowser/6.8 TBS/036849 Safari/537.36 MicroMessenger/6.3.27.880 NetType/WIFI Language/zh_CN'
p286
sg16
S'3eb256729aab03f288eea8245d6bda66'
p287
sa.