(lp0
(dp1
S'user_id'
p2
S'49742'
p3
sS'data_id'
p4
S'694'
p5
sS'ip'
p6
S'd0088bbb724aad1d00c2f73fd5f65f85'
p7
sS'phone_B'
p8
S'xxc911b858ea2e46f4877450bf09d4b939'
p9
sS'phone_C'
p10
S'xxd5f9d5e3946bb0d8b5e333afe0f28bdd'
p11
sS'phone_A'
p12
S'xx2e3e535b94e1f8c3f23a3143b94328e1'
p13
sS'user_agent'
p14
S'Mozilla/5.0 (Linux; Android 5.0.2; vivo Y37 Build/LRX22G) AppleWebKit/537.36 (KHTML, like Gecko) Version/4.0 Chrome/37.0.0.0 Mobile MQQBrowser/6.8 TBS/036869 Safari/537.36 MicroMessenger/6.3.25.861 NetType/WIFI Language/zh_CN'
p15
sS'ua'
p16
S'548b7de9bcb757e3a0fc8c380a865d63'
p17
sa(dp18
g2
S'49742'
p19
sg4
S'710'
p20
sg6
S'd0088bbb724aad1d00c2f73fd5f65f85'
p21
sg8
S'xxc911b858ea2e46f4877450bf09d4b939'
p22
sg10
S'xxd5f9d5e3946bb0d8b5e333afe0f28bdd'
p23
sg12
S'xx2e3e535b94e1f8c3f23a3143b94328e1'
p24
sg14
S'Mozilla/5.0 (Linux; Android 5.0.2; vivo Y37 Build/LRX22G) AppleWebKit/537.36 (KHTML, like Gecko) Version/4.0 Chrome/37.0.0.0 Mobile MQQBrowser/6.8 TBS/036869 Safari/537.36 MicroMessenger/6.3.25.861 NetType/WIFI Language/zh_CN'
p25
sg16
S'548b7de9bcb757e3a0fc8c380a865d63'
p26
sa(dp27
g2
S'49742'
p28
sg4
S'726'
p29
sg6
S'd0088bbb724aad1d00c2f73fd5f65f85'
p30
sg8
S'xxc911b858ea2e46f4877450bf09d4b939'
p31
sg10
S'xxd5f9d5e3946bb0d8b5e333afe0f28bdd'
p32
sg12
S'xx2e3e535b94e1f8c3f23a3143b94328e1'
p33
sg14
S'Mozilla/5.0 (Linux; Android 5.0.2; vivo Y37 Build/LRX22G) AppleWebKit/537.36 (KHTML, like Gecko) Version/4.0 Chrome/37.0.0.0 Mobile MQQBrowser/6.8 TBS/036869 Safari/537.36 MicroMessenger/6.3.25.861 NetType/WIFI Language/zh_CN'
p34
sg16
S'548b7de9bcb757e3a0fc8c380a865d63'
p35
sa(dp36
g2
S'30147'
p37
sg4
S'1615'
p38
sg6
S'3e0d3ab94f3382ccc8516c2fb682adf3'
p39
sg8
S'xx11831bfb0785482666c215c2822ae3b0'
p40
sg10
S'xxfe297c479ac40a9d5d8d40a11ca37955'
p41
sg12
S'xx2e3e535b94e1f8c3f23a3143b94328e1'
p42
sg14
S'Mozilla/5.0 (Linux; Android 5.0.2; vivo Y37 Build/LRX22G) AppleWebKit/537.36 (KHTML, like Gecko) Version/4.0 Chrome/37.0.0.0 Mobile MQQBrowser/6.8 TBS/036824 Safari/537.36 MicroMessenger/6.3.25.861 NetType/WIFI Language/zh_CN'
p43
sg16
S'11388fe5737a2539b2929cf26495939a'
p44
sa(dp45
g2
S'30147'
p46
sg4
S'1628'
p47
sg6
S'3e0d3ab94f3382ccc8516c2fb682adf3'
p48
sg8
S'xx11831bfb0785482666c215c2822ae3b0'
p49
sg10
S'xxfe297c479ac40a9d5d8d40a11ca37955'
p50
sg12
S'xx2e3e535b94e1f8c3f23a3143b94328e1'
p51
sg14
S'Mozilla/5.0 (Linux; Android 5.0.2; vivo Y37 Build/LRX22G) AppleWebKit/537.36 (KHTML, like Gecko) Version/4.0 Chrome/37.0.0.0 Mobile MQQBrowser/6.8 TBS/036824 Safari/537.36 MicroMessenger/6.3.25.861 NetType/WIFI Language/zh_CN'
p52
sg16
S'11388fe5737a2539b2929cf26495939a'
p53
sa(dp54
g2
S'44600'
p55
sg4
S'8581'
p56
sg6
S'79b2b9904f23a9b5f103957129608106'
p57
sg8
S'xx3cad1ef5f70c8da2e985cb165dfceb2d'
p58
sg10
S'xxd5f9d5e3946bb0d8b5e333afe0f28bdd'
p59
sg12
S'xx2e3e535b94e1f8c3f23a3143b94328e1'
p60
sg14
S'Mozilla/5.0 (Linux; Android 5.0.2; vivo Y37 Build/LRX22G) AppleWebKit/537.36 (KHTML, like Gecko) Version/4.0 Chrome/37.0.0.0 Mobile MQQBrowser/6.8 TBS/036849 Safari/537.36 MicroMessenger/6.3.27.880 NetType/WIFI Language/zh_CN'
p61
sg16
S'199a2d112523ccd878f7417775f4cde9'
p62
sa(dp63
g2
S'44600'
p64
sg4
S'8599'
p65
sg6
S'79b2b9904f23a9b5f103957129608106'
p66
sg8
S'xx3cad1ef5f70c8da2e985cb165dfceb2d'
p67
sg10
S'xxd5f9d5e3946bb0d8b5e333afe0f28bdd'
p68
sg12
S'xx2e3e535b94e1f8c3f23a3143b94328e1'
p69
sg14
S'Mozilla/5.0 (Linux; Android 5.0.2; vivo Y37 Build/LRX22G) AppleWebKit/537.36 (KHTML, like Gecko) Version/4.0 Chrome/37.0.0.0 Mobile MQQBrowser/6.8 TBS/036849 Safari/537.36 MicroMessenger/6.3.27.880 NetType/WIFI Language/zh_CN'
p70
sg16
S'199a2d112523ccd878f7417775f4cde9'
p71
sa(dp72
g2
S'44600'
p73
sg4
S'8616'
p74
sg6
S'79b2b9904f23a9b5f103957129608106'
p75
sg8
S'xx3cad1ef5f70c8da2e985cb165dfceb2d'
p76
sg10
S'xxd5f9d5e3946bb0d8b5e333afe0f28bdd'
p77
sg12
S'xx2e3e535b94e1f8c3f23a3143b94328e1'
p78
sg14
S'Mozilla/5.0 (Linux; Android 5.0.2; vivo Y37 Build/LRX22G) AppleWebKit/537.36 (KHTML, like Gecko) Version/4.0 Chrome/37.0.0.0 Mobile MQQBrowser/6.8 TBS/036849 Safari/537.36 MicroMessenger/6.3.27.880 NetType/WIFI Language/zh_CN'
p79
sg16
S'199a2d112523ccd878f7417775f4cde9'
p80
sa(dp81
g2
S'44600'
p82
sg4
S'8636'
p83
sg6
S'79b2b9904f23a9b5f103957129608106'
p84
sg8
S'xx3cad1ef5f70c8da2e985cb165dfceb2d'
p85
sg10
S'xxd5f9d5e3946bb0d8b5e333afe0f28bdd'
p86
sg12
S'xx2e3e535b94e1f8c3f23a3143b94328e1'
p87
sg14
S'Mozilla/5.0 (Linux; Android 5.0.2; vivo Y37 Build/LRX22G) AppleWebKit/537.36 (KHTML, like Gecko) Version/4.0 Chrome/37.0.0.0 Mobile MQQBrowser/6.8 TBS/036849 Safari/537.36 MicroMessenger/6.3.27.880 NetType/WIFI Language/zh_CN'
p88
sg16
S'199a2d112523ccd878f7417775f4cde9'
p89
sa.