(lp0
(dp1
S'user_id'
p2
S'41537'
p3
sS'data_id'
p4
S'5712'
p5
sS'ip'
p6
S'f68b84c369cd31b3c5ccd9b154fbe8e4'
p7
sS'phone_B'
p8
S'xxc11fdf736271081e582ccaaaed7196c7'
p9
sS'phone_C'
p10
S'xx9c08b24994091c5f9a20f0a14d40be2d'
p11
sS'phone_A'
p12
S'xx2ea07df2da41c14b879681070e1bcfe9'
p13
sS'user_agent'
p14
S'Mozilla/5.0 (Linux; Android 5.1; T6 Build/LMY47D) AppleWebKit/537.36 (KHTML, like Gecko) Version/4.0 Chrome/37.0.0.0 Mobile MQQBrowser/6.8 TBS/036849 Safari/537.36 MicroMessenger/6.3.27.880 NetType/WIFI Language/zh_CN'
p15
sS'ua'
p16
S'de950af07c730f40c4732bb291058924'
p17
sa(dp18
g2
S'41537'
p19
sg4
S'5727'
p20
sg6
S'f68b84c369cd31b3c5ccd9b154fbe8e4'
p21
sg8
S'xxc11fdf736271081e582ccaaaed7196c7'
p22
sg10
S'xx9c08b24994091c5f9a20f0a14d40be2d'
p23
sg12
S'xx2ea07df2da41c14b879681070e1bcfe9'
p24
sg14
S'Mozilla/5.0 (Linux; Android 5.1; T6 Build/LMY47D) AppleWebKit/537.36 (KHTML, like Gecko) Version/4.0 Chrome/37.0.0.0 Mobile MQQBrowser/6.8 TBS/036849 Safari/537.36 MicroMessenger/6.3.27.880 NetType/WIFI Language/zh_CN'
p25
sg16
S'de950af07c730f40c4732bb291058924'
p26
sa(dp27
g2
S'41537'
p28
sg4
S'5762'
p29
sg6
S'f68b84c369cd31b3c5ccd9b154fbe8e4'
p30
sg8
S'xxc11fdf736271081e582ccaaaed7196c7'
p31
sg10
S'xx9c08b24994091c5f9a20f0a14d40be2d'
p32
sg12
S'xx2ea07df2da41c14b879681070e1bcfe9'
p33
sg14
S'Mozilla/5.0 (Linux; Android 5.1; T6 Build/LMY47D) AppleWebKit/537.36 (KHTML, like Gecko) Version/4.0 Chrome/37.0.0.0 Mobile MQQBrowser/6.8 TBS/036849 Safari/537.36 MicroMessenger/6.3.27.880 NetType/WIFI Language/zh_CN'
p34
sg16
S'de950af07c730f40c4732bb291058924'
p35
sa.