(lp0
(dp1
S'user_id'
p2
S'35855'
p3
sS'data_id'
p4
S'14'
p5
sS'ip'
p6
S'7470be4cdd895a5288c45b70e34cddc6'
p7
sS'phone_B'
p8
S'xx47018d70d80e20331cf1aa2e84006ccd'
p9
sS'phone_C'
p10
S'xxdaac1a2a72e947c418e3a77eab0fe51e'
p11
sS'phone_A'
p12
S'xx2e6bd6e8058173f544bb03fa729ed788'
p13
sS'user_agent'
p14
S'Mozilla/5.0 (Linux; Android 5.1.1; vivo X7 Build/LMY47V) AppleWebKit/537.36 (KHTML, like Gecko) Version/4.0 Chrome/37.0.0.0 Mobile MQQBrowser/6.8 TBS/036869 Safari/537.36 MicroMessenger/6.3.27.880 NetType/WIFI Language/zh_CN'
p15
sS'ua'
p16
S'7229623074e3ff9cba8c0fe66eee8cd3'
p17
sa(dp18
g2
S'26762'
p19
sg4
S'37'
p20
sg6
S'55e2c6eddaab50c6d6bf26c9e4dd3295'
p21
sg8
S'xx69576072b206fc5d9e3ef23a31975a40'
p22
sg10
S'xxdaac1a2a72e947c418e3a77eab0fe51e'
p23
sg12
S'xx2e6bd6e8058173f544bb03fa729ed788'
p24
sg14
S'Mozilla/5.0 (Linux; Android 5.1.1; vivo X7 Build/LMY47V) AppleWebKit/537.36 (KHTML, like Gecko) Version/4.0 Chrome/37.0.0.0 Mobile MQQBrowser/6.8 TBS/036849 Safari/537.36 MicroMessenger/6.3.27.880 NetType/WIFI Language/zh_CN'
p25
sg16
S'588fef1d2b4f5c8e6bfa9c4b1d5079dc'
p26
sa(dp27
g2
S'26762'
p28
sg4
S'42'
p29
sg6
S'55e2c6eddaab50c6d6bf26c9e4dd3295'
p30
sg8
S'xx69576072b206fc5d9e3ef23a31975a40'
p31
sg10
S'xxdaac1a2a72e947c418e3a77eab0fe51e'
p32
sg12
S'xx2e6bd6e8058173f544bb03fa729ed788'
p33
sg14
S'Mozilla/5.0 (Linux; Android 5.1.1; vivo X7 Build/LMY47V) AppleWebKit/537.36 (KHTML, like Gecko) Version/4.0 Chrome/37.0.0.0 Mobile MQQBrowser/6.8 TBS/036849 Safari/537.36 MicroMessenger/6.3.27.880 NetType/WIFI Language/zh_CN'
p34
sg16
S'588fef1d2b4f5c8e6bfa9c4b1d5079dc'
p35
sa(dp36
g2
S'43058'
p37
sg4
S'917'
p38
sg6
S'fca8f5236f19ebce72d5785aa76f8758'
p39
sg8
S'xx69576072b206fc5d9e3ef23a31975a40'
p40
sg10
S'xxdaac1a2a72e947c418e3a77eab0fe51e'
p41
sg12
S'xx2e6bd6e8058173f544bb03fa729ed788'
p42
sg14
S'Mozilla/5.0 (Linux; Android 5.1.1; vivo X7 Build/LMY47V) AppleWebKit/537.36 (KHTML, like Gecko) Version/4.0 Chrome/37.0.0.0 Mobile MQQBrowser/6.8 TBS/036849 Safari/537.36 MicroMessenger/6.3.27.880 NetType/WIFI Language/zh_CN'
p43
sg16
S'588fef1d2b4f5c8e6bfa9c4b1d5079dc'
p44
sa(dp45
g2
S'43058'
p46
sg4
S'930'
p47
sg6
S'fca8f5236f19ebce72d5785aa76f8758'
p48
sg8
S'xx69576072b206fc5d9e3ef23a31975a40'
p49
sg10
S'xxdaac1a2a72e947c418e3a77eab0fe51e'
p50
sg12
S'xx2e6bd6e8058173f544bb03fa729ed788'
p51
sg14
S'Mozilla/5.0 (Linux; Android 5.1.1; vivo X7 Build/LMY47V) AppleWebKit/537.36 (KHTML, like Gecko) Version/4.0 Chrome/37.0.0.0 Mobile MQQBrowser/6.8 TBS/036849 Safari/537.36 MicroMessenger/6.3.27.880 NetType/WIFI Language/zh_CN'
p52
sg16
S'588fef1d2b4f5c8e6bfa9c4b1d5079dc'
p53
sa(dp54
g2
S'43058'
p55
sg4
S'948'
p56
sg6
S'fca8f5236f19ebce72d5785aa76f8758'
p57
sg8
S'xx69576072b206fc5d9e3ef23a31975a40'
p58
sg10
S'xxdaac1a2a72e947c418e3a77eab0fe51e'
p59
sg12
S'xx2e6bd6e8058173f544bb03fa729ed788'
p60
sg14
S'Mozilla/5.0 (Linux; Android 5.1.1; vivo X7 Build/LMY47V) AppleWebKit/537.36 (KHTML, like Gecko) Version/4.0 Chrome/37.0.0.0 Mobile MQQBrowser/6.8 TBS/036849 Safari/537.36 MicroMessenger/6.3.27.880 NetType/WIFI Language/zh_CN'
p61
sg16
S'588fef1d2b4f5c8e6bfa9c4b1d5079dc'
p62
sa(dp63
g2
S'35855'
p64
sg4
S'1175'
p65
sg6
S'7470be4cdd895a5288c45b70e34cddc6'
p66
sg8
S'xx47018d70d80e20331cf1aa2e84006ccd'
p67
sg10
S'xxdaac1a2a72e947c418e3a77eab0fe51e'
p68
sg12
S'xx2e6bd6e8058173f544bb03fa729ed788'
p69
sg14
S'Mozilla/5.0 (Linux; Android 5.1.1; vivo X7 Build/LMY47V) AppleWebKit/537.36 (KHTML, like Gecko) Version/4.0 Chrome/37.0.0.0 Mobile MQQBrowser/6.8 TBS/036869 Safari/537.36 MicroMessenger/6.3.27.880 NetType/WIFI Language/zh_CN'
p70
sg16
S'7229623074e3ff9cba8c0fe66eee8cd3'
p71
sa(dp72
g2
S'27552'
p73
sg4
S'1654'
p74
sg6
S'bb68a975607e80d3425c6fe98c127ffd'
p75
sg8
S'xx9f58394891a4a9b3f08bb3fd18e05764'
p76
sg10
S'xxdaac1a2a72e947c418e3a77eab0fe51e'
p77
sg12
S'xx2e6bd6e8058173f544bb03fa729ed788'
p78
sg14
S'Mozilla/5.0 (Linux; Android 5.1.1; vivo X7 Build/LMY47V) AppleWebKit/537.36 (KHTML, like Gecko) Version/4.0 Chrome/37.0.0.0 Mobile MQQBrowser/6.8 TBS/036849 Safari/537.36 MicroMessenger/6.3.27.880 NetType/3gnet Language/zh_CN'
p79
sg16
S'97c66956a92979b64d2b5d717372cf4e'
p80
sa(dp81
g2
S'27552'
p82
sg4
S'2200'
p83
sg6
S'bb68a975607e80d3425c6fe98c127ffd'
p84
sg8
S'xx9f58394891a4a9b3f08bb3fd18e05764'
p85
sg10
S'xxdaac1a2a72e947c418e3a77eab0fe51e'
p86
sg12
S'xx2e6bd6e8058173f544bb03fa729ed788'
p87
sg14
S'Mozilla/5.0 (Linux; Android 5.1.1; vivo X7 Build/LMY47V) AppleWebKit/537.36 (KHTML, like Gecko) Version/4.0 Chrome/37.0.0.0 Mobile MQQBrowser/6.8 TBS/036849 Safari/537.36 MicroMessenger/6.3.27.880 NetType/3gnet Language/zh_CN'
p88
sg16
S'97c66956a92979b64d2b5d717372cf4e'
p89
sa(dp90
g2
S'27552'
p91
sg4
S'2220'
p92
sg6
S'bb68a975607e80d3425c6fe98c127ffd'
p93
sg8
S'xx9f58394891a4a9b3f08bb3fd18e05764'
p94
sg10
S'xxdaac1a2a72e947c418e3a77eab0fe51e'
p95
sg12
S'xx2e6bd6e8058173f544bb03fa729ed788'
p96
sg14
S'Mozilla/5.0 (Linux; Android 5.1.1; vivo X7 Build/LMY47V) AppleWebKit/537.36 (KHTML, like Gecko) Version/4.0 Chrome/37.0.0.0 Mobile MQQBrowser/6.8 TBS/036849 Safari/537.36 MicroMessenger/6.3.27.880 NetType/3gnet Language/zh_CN'
p97
sg16
S'97c66956a92979b64d2b5d717372cf4e'
p98
sa(dp99
g2
S'33368'
p100
sg4
S'2506'
p101
sg6
S'a93e64199f11f2284b3dbba61f47355b'
p102
sg8
S'xxb9d2fda583d8f05334a4648766537deb'
p103
sg10
S'xxdaac1a2a72e947c418e3a77eab0fe51e'
p104
sg12
S'xx2e6bd6e8058173f544bb03fa729ed788'
p105
sg14
S'Mozilla/5.0 (Linux; Android 5.1.1; vivo X7 Build/LMY47V) AppleWebKit/537.36 (KHTML, like Gecko) Version/4.0 Chrome/37.0.0.0 Mobile MQQBrowser/6.8 TBS/036869 Safari/537.36 MicroMessenger/6.3.27.880 NetType/cmnet Language/zh_CN'
p106
sg16
S'efe0d542a8c67cd3528aaf7accde9f74'
p107
sa(dp108
g2
S'35855'
p109
sg4
S'2513'
p110
sg6
S'7470be4cdd895a5288c45b70e34cddc6'
p111
sg8
S'xx47018d70d80e20331cf1aa2e84006ccd'
p112
sg10
S'xxdaac1a2a72e947c418e3a77eab0fe51e'
p113
sg12
S'xx2e6bd6e8058173f544bb03fa729ed788'
p114
sg14
S'Mozilla/5.0 (Linux; Android 5.1.1; vivo X7 Build/LMY47V) AppleWebKit/537.36 (KHTML, like Gecko) Version/4.0 Chrome/37.0.0.0 Mobile MQQBrowser/6.8 TBS/036869 Safari/537.36 MicroMessenger/6.3.27.880 NetType/WIFI Language/zh_CN'
p115
sg16
S'7229623074e3ff9cba8c0fe66eee8cd3'
p116
sa(dp117
g2
S'33368'
p118
sg4
S'2528'
p119
sg6
S'a93e64199f11f2284b3dbba61f47355b'
p120
sg8
S'xxb9d2fda583d8f05334a4648766537deb'
p121
sg10
S'xxdaac1a2a72e947c418e3a77eab0fe51e'
p122
sg12
S'xx2e6bd6e8058173f544bb03fa729ed788'
p123
sg14
S'Mozilla/5.0 (Linux; Android 5.1.1; vivo X7 Build/LMY47V) AppleWebKit/537.36 (KHTML, like Gecko) Version/4.0 Chrome/37.0.0.0 Mobile MQQBrowser/6.8 TBS/036869 Safari/537.36 MicroMessenger/6.3.27.880 NetType/cmnet Language/zh_CN'
p124
sg16
S'efe0d542a8c67cd3528aaf7accde9f74'
p125
sa(dp126
g2
S'33368'
p127
sg4
S'2554'
p128
sg6
S'a93e64199f11f2284b3dbba61f47355b'
p129
sg8
S'xxb9d2fda583d8f05334a4648766537deb'
p130
sg10
S'xxdaac1a2a72e947c418e3a77eab0fe51e'
p131
sg12
S'xx2e6bd6e8058173f544bb03fa729ed788'
p132
sg14
S'Mozilla/5.0 (Linux; Android 5.1.1; vivo X7 Build/LMY47V) AppleWebKit/537.36 (KHTML, like Gecko) Version/4.0 Chrome/37.0.0.0 Mobile MQQBrowser/6.8 TBS/036869 Safari/537.36 MicroMessenger/6.3.27.880 NetType/cmnet Language/zh_CN'
p133
sg16
S'efe0d542a8c67cd3528aaf7accde9f74'
p134
sa(dp135
g2
S'27552'
p136
sg4
S'2754'
p137
sg6
S'bb68a975607e80d3425c6fe98c127ffd'
p138
sg8
S'xx9f58394891a4a9b3f08bb3fd18e05764'
p139
sg10
S'xxdaac1a2a72e947c418e3a77eab0fe51e'
p140
sg12
S'xx2e6bd6e8058173f544bb03fa729ed788'
p141
sg14
S'Mozilla/5.0 (Linux; Android 5.1.1; vivo X7 Build/LMY47V) AppleWebKit/537.36 (KHTML, like Gecko) Version/4.0 Chrome/37.0.0.0 Mobile MQQBrowser/6.8 TBS/036849 Safari/537.36 MicroMessenger/6.3.27.880 NetType/3gnet Language/zh_CN'
p142
sg16
S'97c66956a92979b64d2b5d717372cf4e'
p143
sa(dp144
g2
S'27552'
p145
sg4
S'2792'
p146
sg6
S'bb68a975607e80d3425c6fe98c127ffd'
p147
sg8
S'xx9f58394891a4a9b3f08bb3fd18e05764'
p148
sg10
S'xxdaac1a2a72e947c418e3a77eab0fe51e'
p149
sg12
S'xx2e6bd6e8058173f544bb03fa729ed788'
p150
sg14
S'Mozilla/5.0 (Linux; Android 5.1.1; vivo X7 Build/LMY47V) AppleWebKit/537.36 (KHTML, like Gecko) Version/4.0 Chrome/37.0.0.0 Mobile MQQBrowser/6.8 TBS/036849 Safari/537.36 MicroMessenger/6.3.27.880 NetType/3gnet Language/zh_CN'
p151
sg16
S'97c66956a92979b64d2b5d717372cf4e'
p152
sa(dp153
g2
S'6447'
p154
sg4
S'2835'
p155
sg6
S'93aca6a245ab92d06f99899f0c016e6d'
p156
sg8
S'xx28b488c0c969c5588c06f0e74b3d9caa'
p157
sg10
S'xxe4de87140e1bdb5e853a6fb37f537c00'
p158
sg12
S'xx2e6bd6e8058173f544bb03fa729ed788'
p159
sg14
S'Mozilla/5.0 (Linux; Android 5.1.1; vivo X7 Build/LMY47V) AppleWebKit/537.36 (KHTML, like Gecko) Version/4.0 Chrome/37.0.0.0 Mobile MQQBrowser/6.8 TBS/036869 Safari/537.36 MicroMessenger/6.3.27.880 NetType/cmnet Language/zh_CN'
p160
sg16
S'efe0d542a8c67cd3528aaf7accde9f74'
p161
sa(dp162
g2
S'6447'
p163
sg4
S'2856'
p164
sg6
S'93aca6a245ab92d06f99899f0c016e6d'
p165
sg8
S'xx28b488c0c969c5588c06f0e74b3d9caa'
p166
sg10
S'xxe4de87140e1bdb5e853a6fb37f537c00'
p167
sg12
S'xx2e6bd6e8058173f544bb03fa729ed788'
p168
sg14
S'Mozilla/5.0 (Linux; Android 5.1.1; vivo X7 Build/LMY47V) AppleWebKit/537.36 (KHTML, like Gecko) Version/4.0 Chrome/37.0.0.0 Mobile MQQBrowser/6.8 TBS/036869 Safari/537.36 MicroMessenger/6.3.27.880 NetType/cmnet Language/zh_CN'
p169
sg16
S'efe0d542a8c67cd3528aaf7accde9f74'
p170
sa(dp171
g2
S'6447'
p172
sg4
S'2877'
p173
sg6
S'93aca6a245ab92d06f99899f0c016e6d'
p174
sg8
S'xx28b488c0c969c5588c06f0e74b3d9caa'
p175
sg10
S'xxe4de87140e1bdb5e853a6fb37f537c00'
p176
sg12
S'xx2e6bd6e8058173f544bb03fa729ed788'
p177
sg14
S'Mozilla/5.0 (Linux; Android 5.1.1; vivo X7 Build/LMY47V) AppleWebKit/537.36 (KHTML, like Gecko) Version/4.0 Chrome/37.0.0.0 Mobile MQQBrowser/6.8 TBS/036869 Safari/537.36 MicroMessenger/6.3.27.880 NetType/cmnet Language/zh_CN'
p178
sg16
S'efe0d542a8c67cd3528aaf7accde9f74'
p179
sa(dp180
g2
S'6447'
p181
sg4
S'2898'
p182
sg6
S'93aca6a245ab92d06f99899f0c016e6d'
p183
sg8
S'xx28b488c0c969c5588c06f0e74b3d9caa'
p184
sg10
S'xxe4de87140e1bdb5e853a6fb37f537c00'
p185
sg12
S'xx2e6bd6e8058173f544bb03fa729ed788'
p186
sg14
S'Mozilla/5.0 (Linux; Android 5.1.1; vivo X7 Build/LMY47V) AppleWebKit/537.36 (KHTML, like Gecko) Version/4.0 Chrome/37.0.0.0 Mobile MQQBrowser/6.8 TBS/036869 Safari/537.36 MicroMessenger/6.3.27.880 NetType/cmnet Language/zh_CN'
p187
sg16
S'efe0d542a8c67cd3528aaf7accde9f74'
p188
sa(dp189
g2
S'6447'
p190
sg4
S'2916'
p191
sg6
S'93aca6a245ab92d06f99899f0c016e6d'
p192
sg8
S'xx28b488c0c969c5588c06f0e74b3d9caa'
p193
sg10
S'xxe4de87140e1bdb5e853a6fb37f537c00'
p194
sg12
S'xx2e6bd6e8058173f544bb03fa729ed788'
p195
sg14
S'Mozilla/5.0 (Linux; Android 5.1.1; vivo X7 Build/LMY47V) AppleWebKit/537.36 (KHTML, like Gecko) Version/4.0 Chrome/37.0.0.0 Mobile MQQBrowser/6.8 TBS/036869 Safari/537.36 MicroMessenger/6.3.27.880 NetType/cmnet Language/zh_CN'
p196
sg16
S'efe0d542a8c67cd3528aaf7accde9f74'
p197
sa(dp198
g2
S'6447'
p199
sg4
S'2933'
p200
sg6
S'93aca6a245ab92d06f99899f0c016e6d'
p201
sg8
S'xx28b488c0c969c5588c06f0e74b3d9caa'
p202
sg10
S'xxe4de87140e1bdb5e853a6fb37f537c00'
p203
sg12
S'xx2e6bd6e8058173f544bb03fa729ed788'
p204
sg14
S'Mozilla/5.0 (Linux; Android 5.1.1; vivo X7 Build/LMY47V) AppleWebKit/537.36 (KHTML, like Gecko) Version/4.0 Chrome/37.0.0.0 Mobile MQQBrowser/6.8 TBS/036869 Safari/537.36 MicroMessenger/6.3.27.880 NetType/cmnet Language/zh_CN'
p205
sg16
S'efe0d542a8c67cd3528aaf7accde9f74'
p206
sa(dp207
g2
S'6447'
p208
sg4
S'2954'
p209
sg6
S'93aca6a245ab92d06f99899f0c016e6d'
p210
sg8
S'xx28b488c0c969c5588c06f0e74b3d9caa'
p211
sg10
S'xxe4de87140e1bdb5e853a6fb37f537c00'
p212
sg12
S'xx2e6bd6e8058173f544bb03fa729ed788'
p213
sg14
S'Mozilla/5.0 (Linux; Android 5.1.1; vivo X7 Build/LMY47V) AppleWebKit/537.36 (KHTML, like Gecko) Version/4.0 Chrome/37.0.0.0 Mobile MQQBrowser/6.8 TBS/036869 Safari/537.36 MicroMessenger/6.3.27.880 NetType/cmnet Language/zh_CN'
p214
sg16
S'efe0d542a8c67cd3528aaf7accde9f74'
p215
sa(dp216
g2
S'6447'
p217
sg4
S'2970'
p218
sg6
S'93aca6a245ab92d06f99899f0c016e6d'
p219
sg8
S'xx28b488c0c969c5588c06f0e74b3d9caa'
p220
sg10
S'xxe4de87140e1bdb5e853a6fb37f537c00'
p221
sg12
S'xx2e6bd6e8058173f544bb03fa729ed788'
p222
sg14
S'Mozilla/5.0 (Linux; Android 5.1.1; vivo X7 Build/LMY47V) AppleWebKit/537.36 (KHTML, like Gecko) Version/4.0 Chrome/37.0.0.0 Mobile MQQBrowser/6.8 TBS/036869 Safari/537.36 MicroMessenger/6.3.27.880 NetType/cmnet Language/zh_CN'
p223
sg16
S'efe0d542a8c67cd3528aaf7accde9f74'
p224
sa(dp225
g2
S'35180'
p226
sg4
S'2982'
p227
sg6
S'e9618aeeb9ce40b259b27455df1222f4'
p228
sg8
S'xx804286d79f4d65ff952957f48b7e0df0'
p229
sg10
S'xxdaac1a2a72e947c418e3a77eab0fe51e'
p230
sg12
S'xx2e6bd6e8058173f544bb03fa729ed788'
p231
sg14
S'Mozilla/5.0 (Linux; Android 5.1.1; vivo X7 Build/LMY47V) AppleWebKit/537.36 (KHTML, like Gecko) Version/4.0 Chrome/37.0.0.0 Mobile MQQBrowser/6.8 TBS/036849 Safari/537.36 MicroMessenger/6.3.27.880 NetType/cmnet Language/zh_CN'
p232
sg16
S'ddc70171039de5153c7a5d500b79221b'
p233
sa(dp234
g2
S'6447'
p235
sg4
S'2986'
p236
sg6
S'93aca6a245ab92d06f99899f0c016e6d'
p237
sg8
S'xx28b488c0c969c5588c06f0e74b3d9caa'
p238
sg10
S'xxe4de87140e1bdb5e853a6fb37f537c00'
p239
sg12
S'xx2e6bd6e8058173f544bb03fa729ed788'
p240
sg14
S'Mozilla/5.0 (Linux; Android 5.1.1; vivo X7 Build/LMY47V) AppleWebKit/537.36 (KHTML, like Gecko) Version/4.0 Chrome/37.0.0.0 Mobile MQQBrowser/6.8 TBS/036869 Safari/537.36 MicroMessenger/6.3.27.880 NetType/cmnet Language/zh_CN'
p241
sg16
S'efe0d542a8c67cd3528aaf7accde9f74'
p242
sa(dp243
g2
S'35180'
p244
sg4
S'2997'
p245
sg6
S'e9618aeeb9ce40b259b27455df1222f4'
p246
sg8
S'xx804286d79f4d65ff952957f48b7e0df0'
p247
sg10
S'xxdaac1a2a72e947c418e3a77eab0fe51e'
p248
sg12
S'xx2e6bd6e8058173f544bb03fa729ed788'
p249
sg14
S'Mozilla/5.0 (Linux; Android 5.1.1; vivo X7 Build/LMY47V) AppleWebKit/537.36 (KHTML, like Gecko) Version/4.0 Chrome/37.0.0.0 Mobile MQQBrowser/6.8 TBS/036849 Safari/537.36 MicroMessenger/6.3.27.880 NetType/cmnet Language/zh_CN'
p250
sg16
S'ddc70171039de5153c7a5d500b79221b'
p251
sa(dp252
g2
S'6447'
p253
sg4
S'3001'
p254
sg6
S'93aca6a245ab92d06f99899f0c016e6d'
p255
sg8
S'xx28b488c0c969c5588c06f0e74b3d9caa'
p256
sg10
S'xxe4de87140e1bdb5e853a6fb37f537c00'
p257
sg12
S'xx2e6bd6e8058173f544bb03fa729ed788'
p258
sg14
S'Mozilla/5.0 (Linux; Android 5.1.1; vivo X7 Build/LMY47V) AppleWebKit/537.36 (KHTML, like Gecko) Version/4.0 Chrome/37.0.0.0 Mobile MQQBrowser/6.8 TBS/036869 Safari/537.36 MicroMessenger/6.3.27.880 NetType/cmnet Language/zh_CN'
p259
sg16
S'efe0d542a8c67cd3528aaf7accde9f74'
p260
sa(dp261
g2
S'6447'
p262
sg4
S'3019'
p263
sg6
S'93aca6a245ab92d06f99899f0c016e6d'
p264
sg8
S'xx28b488c0c969c5588c06f0e74b3d9caa'
p265
sg10
S'xxe4de87140e1bdb5e853a6fb37f537c00'
p266
sg12
S'xx2e6bd6e8058173f544bb03fa729ed788'
p267
sg14
S'Mozilla/5.0 (Linux; Android 5.1.1; vivo X7 Build/LMY47V) AppleWebKit/537.36 (KHTML, like Gecko) Version/4.0 Chrome/37.0.0.0 Mobile MQQBrowser/6.8 TBS/036869 Safari/537.36 MicroMessenger/6.3.27.880 NetType/cmnet Language/zh_CN'
p268
sg16
S'efe0d542a8c67cd3528aaf7accde9f74'
p269
sa(dp270
g2
S'35180'
p271
sg4
S'3044'
p272
sg6
S'e9618aeeb9ce40b259b27455df1222f4'
p273
sg8
S'xx804286d79f4d65ff952957f48b7e0df0'
p274
sg10
S'xxdaac1a2a72e947c418e3a77eab0fe51e'
p275
sg12
S'xx2e6bd6e8058173f544bb03fa729ed788'
p276
sg14
S'Mozilla/5.0 (Linux; Android 5.1.1; vivo X7 Build/LMY47V) AppleWebKit/537.36 (KHTML, like Gecko) Version/4.0 Chrome/37.0.0.0 Mobile MQQBrowser/6.8 TBS/036849 Safari/537.36 MicroMessenger/6.3.27.880 NetType/cmnet Language/zh_CN'
p277
sg16
S'ddc70171039de5153c7a5d500b79221b'
p278
sa(dp279
g2
S'35180'
p280
sg4
S'3065'
p281
sg6
S'e9618aeeb9ce40b259b27455df1222f4'
p282
sg8
S'xx804286d79f4d65ff952957f48b7e0df0'
p283
sg10
S'xxdaac1a2a72e947c418e3a77eab0fe51e'
p284
sg12
S'xx2e6bd6e8058173f544bb03fa729ed788'
p285
sg14
S'Mozilla/5.0 (Linux; Android 5.1.1; vivo X7 Build/LMY47V) AppleWebKit/537.36 (KHTML, like Gecko) Version/4.0 Chrome/37.0.0.0 Mobile MQQBrowser/6.8 TBS/036849 Safari/537.36 MicroMessenger/6.3.27.880 NetType/cmnet Language/zh_CN'
p286
sg16
S'ddc70171039de5153c7a5d500b79221b'
p287
sa(dp288
g2
S'35180'
p289
sg4
S'3080'
p290
sg6
S'e9618aeeb9ce40b259b27455df1222f4'
p291
sg8
S'xx804286d79f4d65ff952957f48b7e0df0'
p292
sg10
S'xxdaac1a2a72e947c418e3a77eab0fe51e'
p293
sg12
S'xx2e6bd6e8058173f544bb03fa729ed788'
p294
sg14
S'Mozilla/5.0 (Linux; Android 5.1.1; vivo X7 Build/LMY47V) AppleWebKit/537.36 (KHTML, like Gecko) Version/4.0 Chrome/37.0.0.0 Mobile MQQBrowser/6.8 TBS/036849 Safari/537.36 MicroMessenger/6.3.27.880 NetType/cmnet Language/zh_CN'
p295
sg16
S'ddc70171039de5153c7a5d500b79221b'
p296
sa(dp297
g2
S'35180'
p298
sg4
S'3093'
p299
sg6
S'e9618aeeb9ce40b259b27455df1222f4'
p300
sg8
S'xx804286d79f4d65ff952957f48b7e0df0'
p301
sg10
S'xxdaac1a2a72e947c418e3a77eab0fe51e'
p302
sg12
S'xx2e6bd6e8058173f544bb03fa729ed788'
p303
sg14
S'Mozilla/5.0 (Linux; Android 5.1.1; vivo X7 Build/LMY47V) AppleWebKit/537.36 (KHTML, like Gecko) Version/4.0 Chrome/37.0.0.0 Mobile MQQBrowser/6.8 TBS/036849 Safari/537.36 MicroMessenger/6.3.27.880 NetType/cmnet Language/zh_CN'
p304
sg16
S'ddc70171039de5153c7a5d500b79221b'
p305
sa(dp306
g2
S'35180'
p307
sg4
S'3111'
p308
sg6
S'e9618aeeb9ce40b259b27455df1222f4'
p309
sg8
S'xx804286d79f4d65ff952957f48b7e0df0'
p310
sg10
S'xxdaac1a2a72e947c418e3a77eab0fe51e'
p311
sg12
S'xx2e6bd6e8058173f544bb03fa729ed788'
p312
sg14
S'Mozilla/5.0 (Linux; Android 5.1.1; vivo X7 Build/LMY47V) AppleWebKit/537.36 (KHTML, like Gecko) Version/4.0 Chrome/37.0.0.0 Mobile MQQBrowser/6.8 TBS/036849 Safari/537.36 MicroMessenger/6.3.27.880 NetType/cmnet Language/zh_CN'
p313
sg16
S'ddc70171039de5153c7a5d500b79221b'
p314
sa(dp315
g2
S'6447'
p316
sg4
S'3120'
p317
sg6
S'93aca6a245ab92d06f99899f0c016e6d'
p318
sg8
S'xx28b488c0c969c5588c06f0e74b3d9caa'
p319
sg10
S'xxe4de87140e1bdb5e853a6fb37f537c00'
p320
sg12
S'xx2e6bd6e8058173f544bb03fa729ed788'
p321
sg14
S'Mozilla/5.0 (Linux; Android 5.1.1; vivo X7 Build/LMY47V) AppleWebKit/537.36 (KHTML, like Gecko) Version/4.0 Chrome/37.0.0.0 Mobile MQQBrowser/6.8 TBS/036869 Safari/537.36 MicroMessenger/6.3.27.880 NetType/cmnet Language/zh_CN'
p322
sg16
S'efe0d542a8c67cd3528aaf7accde9f74'
p323
sa(dp324
g2
S'35180'
p325
sg4
S'3136'
p326
sg6
S'e9618aeeb9ce40b259b27455df1222f4'
p327
sg8
S'xx804286d79f4d65ff952957f48b7e0df0'
p328
sg10
S'xxdaac1a2a72e947c418e3a77eab0fe51e'
p329
sg12
S'xx2e6bd6e8058173f544bb03fa729ed788'
p330
sg14
S'Mozilla/5.0 (Linux; Android 5.1.1; vivo X7 Build/LMY47V) AppleWebKit/537.36 (KHTML, like Gecko) Version/4.0 Chrome/37.0.0.0 Mobile MQQBrowser/6.8 TBS/036849 Safari/537.36 MicroMessenger/6.3.27.880 NetType/cmnet Language/zh_CN'
p331
sg16
S'ddc70171039de5153c7a5d500b79221b'
p332
sa(dp333
g2
S'6447'
p334
sg4
S'3138'
p335
sg6
S'93aca6a245ab92d06f99899f0c016e6d'
p336
sg8
S'xx28b488c0c969c5588c06f0e74b3d9caa'
p337
sg10
S'xxe4de87140e1bdb5e853a6fb37f537c00'
p338
sg12
S'xx2e6bd6e8058173f544bb03fa729ed788'
p339
sg14
S'Mozilla/5.0 (Linux; Android 5.1.1; vivo X7 Build/LMY47V) AppleWebKit/537.36 (KHTML, like Gecko) Version/4.0 Chrome/37.0.0.0 Mobile MQQBrowser/6.8 TBS/036869 Safari/537.36 MicroMessenger/6.3.27.880 NetType/cmnet Language/zh_CN'
p340
sg16
S'efe0d542a8c67cd3528aaf7accde9f74'
p341
sa(dp342
g2
S'35180'
p343
sg4
S'3149'
p344
sg6
S'e9618aeeb9ce40b259b27455df1222f4'
p345
sg8
S'xx804286d79f4d65ff952957f48b7e0df0'
p346
sg10
S'xxdaac1a2a72e947c418e3a77eab0fe51e'
p347
sg12
S'xx2e6bd6e8058173f544bb03fa729ed788'
p348
sg14
S'Mozilla/5.0 (Linux; Android 5.1.1; vivo X7 Build/LMY47V) AppleWebKit/537.36 (KHTML, like Gecko) Version/4.0 Chrome/37.0.0.0 Mobile MQQBrowser/6.8 TBS/036849 Safari/537.36 MicroMessenger/6.3.27.880 NetType/cmnet Language/zh_CN'
p349
sg16
S'ddc70171039de5153c7a5d500b79221b'
p350
sa(dp351
g2
S'6447'
p352
sg4
S'3166'
p353
sg6
S'93aca6a245ab92d06f99899f0c016e6d'
p354
sg8
S'xx28b488c0c969c5588c06f0e74b3d9caa'
p355
sg10
S'xxe4de87140e1bdb5e853a6fb37f537c00'
p356
sg12
S'xx2e6bd6e8058173f544bb03fa729ed788'
p357
sg14
S'Mozilla/5.0 (Linux; Android 5.1.1; vivo X7 Build/LMY47V) AppleWebKit/537.36 (KHTML, like Gecko) Version/4.0 Chrome/37.0.0.0 Mobile MQQBrowser/6.8 TBS/036869 Safari/537.36 MicroMessenger/6.3.27.880 NetType/cmnet Language/zh_CN'
p358
sg16
S'efe0d542a8c67cd3528aaf7accde9f74'
p359
sa(dp360
g2
S'6447'
p361
sg4
S'3178'
p362
sg6
S'93aca6a245ab92d06f99899f0c016e6d'
p363
sg8
S'xx28b488c0c969c5588c06f0e74b3d9caa'
p364
sg10
S'xxe4de87140e1bdb5e853a6fb37f537c00'
p365
sg12
S'xx2e6bd6e8058173f544bb03fa729ed788'
p366
sg14
S'Mozilla/5.0 (Linux; Android 5.1.1; vivo X7 Build/LMY47V) AppleWebKit/537.36 (KHTML, like Gecko) Version/4.0 Chrome/37.0.0.0 Mobile MQQBrowser/6.8 TBS/036869 Safari/537.36 MicroMessenger/6.3.27.880 NetType/cmnet Language/zh_CN'
p367
sg16
S'efe0d542a8c67cd3528aaf7accde9f74'
p368
sa(dp369
g2
S'6447'
p370
sg4
S'3223'
p371
sg6
S'93aca6a245ab92d06f99899f0c016e6d'
p372
sg8
S'xx28b488c0c969c5588c06f0e74b3d9caa'
p373
sg10
S'xxe4de87140e1bdb5e853a6fb37f537c00'
p374
sg12
S'xx2e6bd6e8058173f544bb03fa729ed788'
p375
sg14
S'Mozilla/5.0 (Linux; Android 5.1.1; vivo X7 Build/LMY47V) AppleWebKit/537.36 (KHTML, like Gecko) Version/4.0 Chrome/37.0.0.0 Mobile MQQBrowser/6.8 TBS/036869 Safari/537.36 MicroMessenger/6.3.27.880 NetType/cmnet Language/zh_CN'
p376
sg16
S'efe0d542a8c67cd3528aaf7accde9f74'
p377
sa(dp378
g2
S'20668'
p379
sg4
S'3263'
p380
sg6
S'918063ef0a5eb66c7ad3a926e6de74ed'
p381
sg8
S'xx7ec0007806953b3a94eb3e0e7ffb0073'
p382
sg10
S'xxdaac1a2a72e947c418e3a77eab0fe51e'
p383
sg12
S'xx2e6bd6e8058173f544bb03fa729ed788'
p384
sg14
S'Mozilla/5.0 (Linux; Android 5.1.1; vivo X7 Build/LMY47V) AppleWebKit/537.36 (KHTML, like Gecko) Version/4.0 Chrome/37.0.0.0 Mobile MQQBrowser/6.8 TBS/036849 Safari/537.36 MicroMessenger/6.3.27.880 NetType/NON_NETWORK Language/zh_CN'
p385
sg16
S'5e3a489e54491088309d6ada9c32f49a'
p386
sa(dp387
g2
S'20668'
p388
sg4
S'3278'
p389
sg6
S'918063ef0a5eb66c7ad3a926e6de74ed'
p390
sg8
S'xx7ec0007806953b3a94eb3e0e7ffb0073'
p391
sg10
S'xxdaac1a2a72e947c418e3a77eab0fe51e'
p392
sg12
S'xx2e6bd6e8058173f544bb03fa729ed788'
p393
sg14
S'Mozilla/5.0 (Linux; Android 5.1.1; vivo X7 Build/LMY47V) AppleWebKit/537.36 (KHTML, like Gecko) Version/4.0 Chrome/37.0.0.0 Mobile MQQBrowser/6.8 TBS/036849 Safari/537.36 MicroMessenger/6.3.27.880 NetType/NON_NETWORK Language/zh_CN'
p394
sg16
S'5e3a489e54491088309d6ada9c32f49a'
p395
sa(dp396
g2
S'35211'
p397
sg4
S'3304'
p398
sg6
S'e9618aeeb9ce40b259b27455df1222f4'
p399
sg8
S'xx804286d79f4d65ff952957f48b7e0df0'
p400
sg10
S'xxdaac1a2a72e947c418e3a77eab0fe51e'
p401
sg12
S'xx2e6bd6e8058173f544bb03fa729ed788'
p402
sg14
S'Mozilla/5.0 (Linux; Android 5.1.1; vivo X7 Build/LMY47V) AppleWebKit/537.36 (KHTML, like Gecko) Version/4.0 Chrome/37.0.0.0 Mobile MQQBrowser/6.8 TBS/036849 Safari/537.36 MicroMessenger/6.3.27.880 NetType/cmnet Language/zh_CN'
p403
sg16
S'ddc70171039de5153c7a5d500b79221b'
p404
sa(dp405
g2
S'35211'
p406
sg4
S'3313'
p407
sg6
S'e9618aeeb9ce40b259b27455df1222f4'
p408
sg8
S'xx804286d79f4d65ff952957f48b7e0df0'
p409
sg10
S'xxdaac1a2a72e947c418e3a77eab0fe51e'
p410
sg12
S'xx2e6bd6e8058173f544bb03fa729ed788'
p411
sg14
S'Mozilla/5.0 (Linux; Android 5.1.1; vivo X7 Build/LMY47V) AppleWebKit/537.36 (KHTML, like Gecko) Version/4.0 Chrome/37.0.0.0 Mobile MQQBrowser/6.8 TBS/036849 Safari/537.36 MicroMessenger/6.3.27.880 NetType/cmnet Language/zh_CN'
p412
sg16
S'ddc70171039de5153c7a5d500b79221b'
p413
sa(dp414
g2
S'35211'
p415
sg4
S'3349'
p416
sg6
S'e9618aeeb9ce40b259b27455df1222f4'
p417
sg8
S'xx804286d79f4d65ff952957f48b7e0df0'
p418
sg10
S'xxdaac1a2a72e947c418e3a77eab0fe51e'
p419
sg12
S'xx2e6bd6e8058173f544bb03fa729ed788'
p420
sg14
S'Mozilla/5.0 (Linux; Android 5.1.1; vivo X7 Build/LMY47V) AppleWebKit/537.36 (KHTML, like Gecko) Version/4.0 Chrome/37.0.0.0 Mobile MQQBrowser/6.8 TBS/036849 Safari/537.36 MicroMessenger/6.3.27.880 NetType/cmnet Language/zh_CN'
p421
sg16
S'ddc70171039de5153c7a5d500b79221b'
p422
sa(dp423
g2
S'35211'
p424
sg4
S'3364'
p425
sg6
S'e9618aeeb9ce40b259b27455df1222f4'
p426
sg8
S'xx804286d79f4d65ff952957f48b7e0df0'
p427
sg10
S'xxdaac1a2a72e947c418e3a77eab0fe51e'
p428
sg12
S'xx2e6bd6e8058173f544bb03fa729ed788'
p429
sg14
S'Mozilla/5.0 (Linux; Android 5.1.1; vivo X7 Build/LMY47V) AppleWebKit/537.36 (KHTML, like Gecko) Version/4.0 Chrome/37.0.0.0 Mobile MQQBrowser/6.8 TBS/036849 Safari/537.36 MicroMessenger/6.3.27.880 NetType/cmnet Language/zh_CN'
p430
sg16
S'ddc70171039de5153c7a5d500b79221b'
p431
sa(dp432
g2
S'35211'
p433
sg4
S'3406'
p434
sg6
S'e9618aeeb9ce40b259b27455df1222f4'
p435
sg8
S'xx804286d79f4d65ff952957f48b7e0df0'
p436
sg10
S'xxdaac1a2a72e947c418e3a77eab0fe51e'
p437
sg12
S'xx2e6bd6e8058173f544bb03fa729ed788'
p438
sg14
S'Mozilla/5.0 (Linux; Android 5.1.1; vivo X7 Build/LMY47V) AppleWebKit/537.36 (KHTML, like Gecko) Version/4.0 Chrome/37.0.0.0 Mobile MQQBrowser/6.8 TBS/036849 Safari/537.36 MicroMessenger/6.3.27.880 NetType/cmnet Language/zh_CN'
p439
sg16
S'ddc70171039de5153c7a5d500b79221b'
p440
sa(dp441
g2
S'6447'
p442
sg4
S'3410'
p443
sg6
S'93aca6a245ab92d06f99899f0c016e6d'
p444
sg8
S'xx28b488c0c969c5588c06f0e74b3d9caa'
p445
sg10
S'xxe4de87140e1bdb5e853a6fb37f537c00'
p446
sg12
S'xx2e6bd6e8058173f544bb03fa729ed788'
p447
sg14
S'Mozilla/5.0 (Linux; Android 5.1.1; vivo X7 Build/LMY47V) AppleWebKit/537.36 (KHTML, like Gecko) Version/4.0 Chrome/37.0.0.0 Mobile MQQBrowser/6.8 TBS/036869 Safari/537.36 MicroMessenger/6.3.27.880 NetType/cmnet Language/zh_CN'
p448
sg16
S'efe0d542a8c67cd3528aaf7accde9f74'
p449
sa(dp450
g2
S'27552'
p451
sg4
S'3426'
p452
sg6
S'bb68a975607e80d3425c6fe98c127ffd'
p453
sg8
S'xx9f58394891a4a9b3f08bb3fd18e05764'
p454
sg10
S'xxdaac1a2a72e947c418e3a77eab0fe51e'
p455
sg12
S'xx2e6bd6e8058173f544bb03fa729ed788'
p456
sg14
S'Mozilla/5.0 (Linux; Android 5.1.1; vivo X7 Build/LMY47V) AppleWebKit/537.36 (KHTML, like Gecko) Version/4.0 Chrome/37.0.0.0 Mobile MQQBrowser/6.8 TBS/036849 Safari/537.36 MicroMessenger/6.3.27.880 NetType/3gnet Language/zh_CN'
p457
sg16
S'97c66956a92979b64d2b5d717372cf4e'
p458
sa(dp459
g2
S'6447'
p460
sg4
S'3484'
p461
sg6
S'93aca6a245ab92d06f99899f0c016e6d'
p462
sg8
S'xx28b488c0c969c5588c06f0e74b3d9caa'
p463
sg10
S'xxe4de87140e1bdb5e853a6fb37f537c00'
p464
sg12
S'xx2e6bd6e8058173f544bb03fa729ed788'
p465
sg14
S'Mozilla/5.0 (Linux; Android 5.1.1; vivo X7 Build/LMY47V) AppleWebKit/537.36 (KHTML, like Gecko) Version/4.0 Chrome/37.0.0.0 Mobile MQQBrowser/6.8 TBS/036869 Safari/537.36 MicroMessenger/6.3.27.880 NetType/cmnet Language/zh_CN'
p466
sg16
S'efe0d542a8c67cd3528aaf7accde9f74'
p467
sa(dp468
g2
S'49775'
p469
sg4
S'3513'
p470
sg6
S'21af628f1e9f61dfe409047dee7337cd'
p471
sg8
S'xx605c75f99d5c684d2bc0abb474e68e66'
p472
sg10
S'xxdaac1a2a72e947c418e3a77eab0fe51e'
p473
sg12
S'xx2e6bd6e8058173f544bb03fa729ed788'
p474
sg14
S'Mozilla/5.0 (Linux; Android 5.1.1; vivo X7 Build/LMY47V) AppleWebKit/537.36 (KHTML, like Gecko) Version/4.0 Chrome/37.0.0.0 Mobile MQQBrowser/6.8 TBS/036824 Safari/537.36 MicroMessenger/6.3.25.861 NetType/cmnet Language/zh_CN'
p475
sg16
S'23009e608222c900c73bf511512d331b'
p476
sa(dp477
g2
S'49775'
p478
sg4
S'3525'
p479
sg6
S'21af628f1e9f61dfe409047dee7337cd'
p480
sg8
S'xx605c75f99d5c684d2bc0abb474e68e66'
p481
sg10
S'xxdaac1a2a72e947c418e3a77eab0fe51e'
p482
sg12
S'xx2e6bd6e8058173f544bb03fa729ed788'
p483
sg14
S'Mozilla/5.0 (Linux; Android 5.1.1; vivo X7 Build/LMY47V) AppleWebKit/537.36 (KHTML, like Gecko) Version/4.0 Chrome/37.0.0.0 Mobile MQQBrowser/6.8 TBS/036824 Safari/537.36 MicroMessenger/6.3.25.861 NetType/cmnet Language/zh_CN'
p484
sg16
S'23009e608222c900c73bf511512d331b'
p485
sa(dp486
g2
S'33132'
p487
sg4
S'3545'
p488
sg6
S'68caf753a98483aa8f8b9f741c3481c6'
p489
sg8
S'xx15ffe61dd02edece3a279077631c2277'
p490
sg10
S'xxc438a5bda8775e499832adebd81c9e4d'
p491
sg12
S'xx2e6bd6e8058173f544bb03fa729ed788'
p492
sg14
S'Mozilla/5.0 (Linux; Android 5.1.1; vivo X7 Build/LMY47V) AppleWebKit/537.36 (KHTML, like Gecko) Version/4.0 Chrome/37.0.0.0 Mobile MQQBrowser/6.8 TBS/036849 Safari/537.36 MicroMessenger/6.3.27.880 NetType/cmnet Language/zh_CN'
p493
sg16
S'ddc70171039de5153c7a5d500b79221b'
p494
sa(dp495
g2
S'33132'
p496
sg4
S'3562'
p497
sg6
S'68caf753a98483aa8f8b9f741c3481c6'
p498
sg8
S'xx15ffe61dd02edece3a279077631c2277'
p499
sg10
S'xxc438a5bda8775e499832adebd81c9e4d'
p500
sg12
S'xx2e6bd6e8058173f544bb03fa729ed788'
p501
sg14
S'Mozilla/5.0 (Linux; Android 5.1.1; vivo X7 Build/LMY47V) AppleWebKit/537.36 (KHTML, like Gecko) Version/4.0 Chrome/37.0.0.0 Mobile MQQBrowser/6.8 TBS/036849 Safari/537.36 MicroMessenger/6.3.27.880 NetType/cmnet Language/zh_CN'
p502
sg16
S'ddc70171039de5153c7a5d500b79221b'
p503
sa(dp504
g2
S'35855'
p505
sg4
S'3762'
p506
sg6
S'7470be4cdd895a5288c45b70e34cddc6'
p507
sg8
S'xx47018d70d80e20331cf1aa2e84006ccd'
p508
sg10
S'xxdaac1a2a72e947c418e3a77eab0fe51e'
p509
sg12
S'xx2e6bd6e8058173f544bb03fa729ed788'
p510
sg14
S'Mozilla/5.0 (Linux; Android 5.1.1; vivo X7 Build/LMY47V) AppleWebKit/537.36 (KHTML, like Gecko) Version/4.0 Chrome/37.0.0.0 Mobile MQQBrowser/6.8 TBS/036869 Safari/537.36 MicroMessenger/6.3.27.880 NetType/WIFI Language/zh_CN'
p511
sg16
S'7229623074e3ff9cba8c0fe66eee8cd3'
p512
sa(dp513
g2
S'35855'
p514
sg4
S'3781'
p515
sg6
S'7470be4cdd895a5288c45b70e34cddc6'
p516
sg8
S'xx47018d70d80e20331cf1aa2e84006ccd'
p517
sg10
S'xxdaac1a2a72e947c418e3a77eab0fe51e'
p518
sg12
S'xx2e6bd6e8058173f544bb03fa729ed788'
p519
sg14
S'Mozilla/5.0 (Linux; Android 5.1.1; vivo X7 Build/LMY47V) AppleWebKit/537.36 (KHTML, like Gecko) Version/4.0 Chrome/37.0.0.0 Mobile MQQBrowser/6.8 TBS/036869 Safari/537.36 MicroMessenger/6.3.27.880 NetType/WIFI Language/zh_CN'
p520
sg16
S'7229623074e3ff9cba8c0fe66eee8cd3'
p521
sa(dp522
g2
S'35855'
p523
sg4
S'3880'
p524
sg6
S'7470be4cdd895a5288c45b70e34cddc6'
p525
sg8
S'xx47018d70d80e20331cf1aa2e84006ccd'
p526
sg10
S'xxdaac1a2a72e947c418e3a77eab0fe51e'
p527
sg12
S'xx2e6bd6e8058173f544bb03fa729ed788'
p528
sg14
S'Mozilla/5.0 (Linux; Android 5.1.1; vivo X7 Build/LMY47V) AppleWebKit/537.36 (KHTML, like Gecko) Version/4.0 Chrome/37.0.0.0 Mobile MQQBrowser/6.8 TBS/036869 Safari/537.36 MicroMessenger/6.3.27.880 NetType/WIFI Language/zh_CN'
p529
sg16
S'7229623074e3ff9cba8c0fe66eee8cd3'
p530
sa(dp531
g2
S'35855'
p532
sg4
S'3903'
p533
sg6
S'7470be4cdd895a5288c45b70e34cddc6'
p534
sg8
S'xx47018d70d80e20331cf1aa2e84006ccd'
p535
sg10
S'xxdaac1a2a72e947c418e3a77eab0fe51e'
p536
sg12
S'xx2e6bd6e8058173f544bb03fa729ed788'
p537
sg14
S'Mozilla/5.0 (Linux; Android 5.1.1; vivo X7 Build/LMY47V) AppleWebKit/537.36 (KHTML, like Gecko) Version/4.0 Chrome/37.0.0.0 Mobile MQQBrowser/6.8 TBS/036869 Safari/537.36 MicroMessenger/6.3.27.880 NetType/WIFI Language/zh_CN'
p538
sg16
S'7229623074e3ff9cba8c0fe66eee8cd3'
p539
sa(dp540
g2
S'35855'
p541
sg4
S'3922'
p542
sg6
S'7470be4cdd895a5288c45b70e34cddc6'
p543
sg8
S'xx47018d70d80e20331cf1aa2e84006ccd'
p544
sg10
S'xxdaac1a2a72e947c418e3a77eab0fe51e'
p545
sg12
S'xx2e6bd6e8058173f544bb03fa729ed788'
p546
sg14
S'Mozilla/5.0 (Linux; Android 5.1.1; vivo X7 Build/LMY47V) AppleWebKit/537.36 (KHTML, like Gecko) Version/4.0 Chrome/37.0.0.0 Mobile MQQBrowser/6.8 TBS/036869 Safari/537.36 MicroMessenger/6.3.27.880 NetType/WIFI Language/zh_CN'
p547
sg16
S'7229623074e3ff9cba8c0fe66eee8cd3'
p548
sa(dp549
g2
S'35855'
p550
sg4
S'3946'
p551
sg6
S'7470be4cdd895a5288c45b70e34cddc6'
p552
sg8
S'xx47018d70d80e20331cf1aa2e84006ccd'
p553
sg10
S'xxdaac1a2a72e947c418e3a77eab0fe51e'
p554
sg12
S'xx2e6bd6e8058173f544bb03fa729ed788'
p555
sg14
S'Mozilla/5.0 (Linux; Android 5.1.1; vivo X7 Build/LMY47V) AppleWebKit/537.36 (KHTML, like Gecko) Version/4.0 Chrome/37.0.0.0 Mobile MQQBrowser/6.8 TBS/036869 Safari/537.36 MicroMessenger/6.3.27.880 NetType/WIFI Language/zh_CN'
p556
sg16
S'7229623074e3ff9cba8c0fe66eee8cd3'
p557
sa(dp558
g2
S'35855'
p559
sg4
S'3968'
p560
sg6
S'7470be4cdd895a5288c45b70e34cddc6'
p561
sg8
S'xx47018d70d80e20331cf1aa2e84006ccd'
p562
sg10
S'xxdaac1a2a72e947c418e3a77eab0fe51e'
p563
sg12
S'xx2e6bd6e8058173f544bb03fa729ed788'
p564
sg14
S'Mozilla/5.0 (Linux; Android 5.1.1; vivo X7 Build/LMY47V) AppleWebKit/537.36 (KHTML, like Gecko) Version/4.0 Chrome/37.0.0.0 Mobile MQQBrowser/6.8 TBS/036869 Safari/537.36 MicroMessenger/6.3.27.880 NetType/WIFI Language/zh_CN'
p565
sg16
S'7229623074e3ff9cba8c0fe66eee8cd3'
p566
sa(dp567
g2
S'35855'
p568
sg4
S'3983'
p569
sg6
S'7470be4cdd895a5288c45b70e34cddc6'
p570
sg8
S'xx47018d70d80e20331cf1aa2e84006ccd'
p571
sg10
S'xxdaac1a2a72e947c418e3a77eab0fe51e'
p572
sg12
S'xx2e6bd6e8058173f544bb03fa729ed788'
p573
sg14
S'Mozilla/5.0 (Linux; Android 5.1.1; vivo X7 Build/LMY47V) AppleWebKit/537.36 (KHTML, like Gecko) Version/4.0 Chrome/37.0.0.0 Mobile MQQBrowser/6.8 TBS/036869 Safari/537.36 MicroMessenger/6.3.27.880 NetType/WIFI Language/zh_CN'
p574
sg16
S'7229623074e3ff9cba8c0fe66eee8cd3'
p575
sa(dp576
g2
S'35855'
p577
sg4
S'4002'
p578
sg6
S'7470be4cdd895a5288c45b70e34cddc6'
p579
sg8
S'xx47018d70d80e20331cf1aa2e84006ccd'
p580
sg10
S'xxdaac1a2a72e947c418e3a77eab0fe51e'
p581
sg12
S'xx2e6bd6e8058173f544bb03fa729ed788'
p582
sg14
S'Mozilla/5.0 (Linux; Android 5.1.1; vivo X7 Build/LMY47V) AppleWebKit/537.36 (KHTML, like Gecko) Version/4.0 Chrome/37.0.0.0 Mobile MQQBrowser/6.8 TBS/036869 Safari/537.36 MicroMessenger/6.3.27.880 NetType/WIFI Language/zh_CN'
p583
sg16
S'7229623074e3ff9cba8c0fe66eee8cd3'
p584
sa(dp585
g2
S'35855'
p586
sg4
S'4024'
p587
sg6
S'7470be4cdd895a5288c45b70e34cddc6'
p588
sg8
S'xx47018d70d80e20331cf1aa2e84006ccd'
p589
sg10
S'xxdaac1a2a72e947c418e3a77eab0fe51e'
p590
sg12
S'xx2e6bd6e8058173f544bb03fa729ed788'
p591
sg14
S'Mozilla/5.0 (Linux; Android 5.1.1; vivo X7 Build/LMY47V) AppleWebKit/537.36 (KHTML, like Gecko) Version/4.0 Chrome/37.0.0.0 Mobile MQQBrowser/6.8 TBS/036869 Safari/537.36 MicroMessenger/6.3.27.880 NetType/WIFI Language/zh_CN'
p592
sg16
S'7229623074e3ff9cba8c0fe66eee8cd3'
p593
sa(dp594
g2
S'35855'
p595
sg4
S'4368'
p596
sg6
S'7470be4cdd895a5288c45b70e34cddc6'
p597
sg8
S'xx47018d70d80e20331cf1aa2e84006ccd'
p598
sg10
S'xxdaac1a2a72e947c418e3a77eab0fe51e'
p599
sg12
S'xx2e6bd6e8058173f544bb03fa729ed788'
p600
sg14
S'Mozilla/5.0 (Linux; Android 5.1.1; vivo X7 Build/LMY47V) AppleWebKit/537.36 (KHTML, like Gecko) Version/4.0 Chrome/37.0.0.0 Mobile MQQBrowser/6.8 TBS/036869 Safari/537.36 MicroMessenger/6.3.27.880 NetType/WIFI Language/zh_CN'
p601
sg16
S'7229623074e3ff9cba8c0fe66eee8cd3'
p602
sa(dp603
g2
S'35855'
p604
sg4
S'4398'
p605
sg6
S'7470be4cdd895a5288c45b70e34cddc6'
p606
sg8
S'xx47018d70d80e20331cf1aa2e84006ccd'
p607
sg10
S'xxdaac1a2a72e947c418e3a77eab0fe51e'
p608
sg12
S'xx2e6bd6e8058173f544bb03fa729ed788'
p609
sg14
S'Mozilla/5.0 (Linux; Android 5.1.1; vivo X7 Build/LMY47V) AppleWebKit/537.36 (KHTML, like Gecko) Version/4.0 Chrome/37.0.0.0 Mobile MQQBrowser/6.8 TBS/036869 Safari/537.36 MicroMessenger/6.3.27.880 NetType/WIFI Language/zh_CN'
p610
sg16
S'7229623074e3ff9cba8c0fe66eee8cd3'
p611
sa(dp612
g2
S'35855'
p613
sg4
S'4418'
p614
sg6
S'7470be4cdd895a5288c45b70e34cddc6'
p615
sg8
S'xx47018d70d80e20331cf1aa2e84006ccd'
p616
sg10
S'xxdaac1a2a72e947c418e3a77eab0fe51e'
p617
sg12
S'xx2e6bd6e8058173f544bb03fa729ed788'
p618
sg14
S'Mozilla/5.0 (Linux; Android 5.1.1; vivo X7 Build/LMY47V) AppleWebKit/537.36 (KHTML, like Gecko) Version/4.0 Chrome/37.0.0.0 Mobile MQQBrowser/6.8 TBS/036869 Safari/537.36 MicroMessenger/6.3.27.880 NetType/WIFI Language/zh_CN'
p619
sg16
S'7229623074e3ff9cba8c0fe66eee8cd3'
p620
sa(dp621
g2
S'35855'
p622
sg4
S'4435'
p623
sg6
S'7470be4cdd895a5288c45b70e34cddc6'
p624
sg8
S'xx47018d70d80e20331cf1aa2e84006ccd'
p625
sg10
S'xxdaac1a2a72e947c418e3a77eab0fe51e'
p626
sg12
S'xx2e6bd6e8058173f544bb03fa729ed788'
p627
sg14
S'Mozilla/5.0 (Linux; Android 5.1.1; vivo X7 Build/LMY47V) AppleWebKit/537.36 (KHTML, like Gecko) Version/4.0 Chrome/37.0.0.0 Mobile MQQBrowser/6.8 TBS/036869 Safari/537.36 MicroMessenger/6.3.27.880 NetType/WIFI Language/zh_CN'
p628
sg16
S'7229623074e3ff9cba8c0fe66eee8cd3'
p629
sa(dp630
g2
S'27552'
p631
sg4
S'4451'
p632
sg6
S'bb68a975607e80d3425c6fe98c127ffd'
p633
sg8
S'xx9f58394891a4a9b3f08bb3fd18e05764'
p634
sg10
S'xxdaac1a2a72e947c418e3a77eab0fe51e'
p635
sg12
S'xx2e6bd6e8058173f544bb03fa729ed788'
p636
sg14
S'Mozilla/5.0 (Linux; Android 5.1.1; vivo X7 Build/LMY47V) AppleWebKit/537.36 (KHTML, like Gecko) Version/4.0 Chrome/37.0.0.0 Mobile MQQBrowser/6.8 TBS/036849 Safari/537.36 MicroMessenger/6.3.27.880 NetType/3gnet Language/zh_CN'
p637
sg16
S'97c66956a92979b64d2b5d717372cf4e'
p638
sa(dp639
g2
S'49788'
p640
sg4
S'4762'
p641
sg6
S'c0c7a0d7ae70a530a6b6d719e633c264'
p642
sg8
S'xx69576072b206fc5d9e3ef23a31975a40'
p643
sg10
S'xxdaac1a2a72e947c418e3a77eab0fe51e'
p644
sg12
S'xx2e6bd6e8058173f544bb03fa729ed788'
p645
sg14
S'Mozilla/5.0 (Linux; Android 5.1.1; vivo X7 Build/LMY47V) AppleWebKit/537.36 (KHTML, like Gecko) Version/4.0 Chrome/37.0.0.0 Mobile MQQBrowser/6.8 TBS/036849 Safari/537.36 MicroMessenger/6.3.27.880 NetType/WIFI Language/zh_CN'
p646
sg16
S'588fef1d2b4f5c8e6bfa9c4b1d5079dc'
p647
sa(dp648
g2
S'49788'
p649
sg4
S'4776'
p650
sg6
S'c0c7a0d7ae70a530a6b6d719e633c264'
p651
sg8
S'xx69576072b206fc5d9e3ef23a31975a40'
p652
sg10
S'xxdaac1a2a72e947c418e3a77eab0fe51e'
p653
sg12
S'xx2e6bd6e8058173f544bb03fa729ed788'
p654
sg14
S'Mozilla/5.0 (Linux; Android 5.1.1; vivo X7 Build/LMY47V) AppleWebKit/537.36 (KHTML, like Gecko) Version/4.0 Chrome/37.0.0.0 Mobile MQQBrowser/6.8 TBS/036849 Safari/537.36 MicroMessenger/6.3.27.880 NetType/WIFI Language/zh_CN'
p655
sg16
S'588fef1d2b4f5c8e6bfa9c4b1d5079dc'
p656
sa(dp657
g2
S'49788'
p658
sg4
S'4790'
p659
sg6
S'c0c7a0d7ae70a530a6b6d719e633c264'
p660
sg8
S'xx69576072b206fc5d9e3ef23a31975a40'
p661
sg10
S'xxdaac1a2a72e947c418e3a77eab0fe51e'
p662
sg12
S'xx2e6bd6e8058173f544bb03fa729ed788'
p663
sg14
S'Mozilla/5.0 (Linux; Android 5.1.1; vivo X7 Build/LMY47V) AppleWebKit/537.36 (KHTML, like Gecko) Version/4.0 Chrome/37.0.0.0 Mobile MQQBrowser/6.8 TBS/036849 Safari/537.36 MicroMessenger/6.3.27.880 NetType/WIFI Language/zh_CN'
p664
sg16
S'588fef1d2b4f5c8e6bfa9c4b1d5079dc'
p665
sa(dp666
g2
S'33132'
p667
sg4
S'4842'
p668
sg6
S'68caf753a98483aa8f8b9f741c3481c6'
p669
sg8
S'xx15ffe61dd02edece3a279077631c2277'
p670
sg10
S'xxc438a5bda8775e499832adebd81c9e4d'
p671
sg12
S'xx2e6bd6e8058173f544bb03fa729ed788'
p672
sg14
S'Mozilla/5.0 (Linux; Android 5.1.1; vivo X7 Build/LMY47V) AppleWebKit/537.36 (KHTML, like Gecko) Version/4.0 Chrome/37.0.0.0 Mobile MQQBrowser/6.8 TBS/036849 Safari/537.36 MicroMessenger/6.3.27.880 NetType/cmnet Language/zh_CN'
p673
sg16
S'ddc70171039de5153c7a5d500b79221b'
p674
sa(dp675
g2
S'33132'
p676
sg4
S'4861'
p677
sg6
S'68caf753a98483aa8f8b9f741c3481c6'
p678
sg8
S'xx15ffe61dd02edece3a279077631c2277'
p679
sg10
S'xxc438a5bda8775e499832adebd81c9e4d'
p680
sg12
S'xx2e6bd6e8058173f544bb03fa729ed788'
p681
sg14
S'Mozilla/5.0 (Linux; Android 5.1.1; vivo X7 Build/LMY47V) AppleWebKit/537.36 (KHTML, like Gecko) Version/4.0 Chrome/37.0.0.0 Mobile MQQBrowser/6.8 TBS/036849 Safari/537.36 MicroMessenger/6.3.27.880 NetType/cmnet Language/zh_CN'
p682
sg16
S'ddc70171039de5153c7a5d500b79221b'
p683
sa(dp684
g2
S'6447'
p685
sg4
S'4943'
p686
sg6
S'93aca6a245ab92d06f99899f0c016e6d'
p687
sg8
S'xx28b488c0c969c5588c06f0e74b3d9caa'
p688
sg10
S'xxe4de87140e1bdb5e853a6fb37f537c00'
p689
sg12
S'xx2e6bd6e8058173f544bb03fa729ed788'
p690
sg14
S'Mozilla/5.0 (Linux; Android 5.1.1; vivo X7 Build/LMY47V) AppleWebKit/537.36 (KHTML, like Gecko) Version/4.0 Chrome/37.0.0.0 Mobile MQQBrowser/6.8 TBS/036869 Safari/537.36 MicroMessenger/6.3.27.880 NetType/cmnet Language/zh_CN'
p691
sg16
S'efe0d542a8c67cd3528aaf7accde9f74'
p692
sa(dp693
g2
S'33132'
p694
sg4
S'4981'
p695
sg6
S'68caf753a98483aa8f8b9f741c3481c6'
p696
sg8
S'xx15ffe61dd02edece3a279077631c2277'
p697
sg10
S'xxc438a5bda8775e499832adebd81c9e4d'
p698
sg12
S'xx2e6bd6e8058173f544bb03fa729ed788'
p699
sg14
S'Mozilla/5.0 (Linux; Android 5.1.1; vivo X7 Build/LMY47V) AppleWebKit/537.36 (KHTML, like Gecko) Version/4.0 Chrome/37.0.0.0 Mobile MQQBrowser/6.8 TBS/036849 Safari/537.36 MicroMessenger/6.3.27.880 NetType/cmnet Language/zh_CN'
p700
sg16
S'ddc70171039de5153c7a5d500b79221b'
p701
sa(dp702
g2
S'33132'
p703
sg4
S'5033'
p704
sg6
S'68caf753a98483aa8f8b9f741c3481c6'
p705
sg8
S'xx15ffe61dd02edece3a279077631c2277'
p706
sg10
S'xxc438a5bda8775e499832adebd81c9e4d'
p707
sg12
S'xx2e6bd6e8058173f544bb03fa729ed788'
p708
sg14
S'Mozilla/5.0 (Linux; Android 5.1.1; vivo X7 Build/LMY47V) AppleWebKit/537.36 (KHTML, like Gecko) Version/4.0 Chrome/37.0.0.0 Mobile MQQBrowser/6.8 TBS/036849 Safari/537.36 MicroMessenger/6.3.27.880 NetType/cmnet Language/zh_CN'
p709
sg16
S'ddc70171039de5153c7a5d500b79221b'
p710
sa(dp711
g2
S'34209'
p712
sg4
S'5079'
p713
sg6
S'044f6da7a5d26a47ee2a8967162c6d5d'
p714
sg8
S'xx69576072b206fc5d9e3ef23a31975a40'
p715
sg10
S'xxdaac1a2a72e947c418e3a77eab0fe51e'
p716
sg12
S'xx2e6bd6e8058173f544bb03fa729ed788'
p717
sg14
S'Mozilla/5.0 (Linux; Android 5.1.1; vivo X7 Build/LMY47V) AppleWebKit/537.36 (KHTML, like Gecko) Version/4.0 Chrome/37.0.0.0 Mobile MQQBrowser/6.8 TBS/036849 Safari/537.36 MicroMessenger/6.3.27.880 NetType/WIFI Language/zh_CN'
p718
sg16
S'588fef1d2b4f5c8e6bfa9c4b1d5079dc'
p719
sa(dp720
g2
S'33132'
p721
sg4
S'5082'
p722
sg6
S'68caf753a98483aa8f8b9f741c3481c6'
p723
sg8
S'xx15ffe61dd02edece3a279077631c2277'
p724
sg10
S'xxc438a5bda8775e499832adebd81c9e4d'
p725
sg12
S'xx2e6bd6e8058173f544bb03fa729ed788'
p726
sg14
S'Mozilla/5.0 (Linux; Android 5.1.1; vivo X7 Build/LMY47V) AppleWebKit/537.36 (KHTML, like Gecko) Version/4.0 Chrome/37.0.0.0 Mobile MQQBrowser/6.8 TBS/036849 Safari/537.36 MicroMessenger/6.3.27.880 NetType/cmnet Language/zh_CN'
p727
sg16
S'ddc70171039de5153c7a5d500b79221b'
p728
sa(dp729
g2
S'34209'
p730
sg4
S'5096'
p731
sg6
S'044f6da7a5d26a47ee2a8967162c6d5d'
p732
sg8
S'xx69576072b206fc5d9e3ef23a31975a40'
p733
sg10
S'xxdaac1a2a72e947c418e3a77eab0fe51e'
p734
sg12
S'xx2e6bd6e8058173f544bb03fa729ed788'
p735
sg14
S'Mozilla/5.0 (Linux; Android 5.1.1; vivo X7 Build/LMY47V) AppleWebKit/537.36 (KHTML, like Gecko) Version/4.0 Chrome/37.0.0.0 Mobile MQQBrowser/6.8 TBS/036849 Safari/537.36 MicroMessenger/6.3.27.880 NetType/WIFI Language/zh_CN'
p736
sg16
S'588fef1d2b4f5c8e6bfa9c4b1d5079dc'
p737
sa(dp738
g2
S'33132'
p739
sg4
S'5173'
p740
sg6
S'68caf753a98483aa8f8b9f741c3481c6'
p741
sg8
S'xx15ffe61dd02edece3a279077631c2277'
p742
sg10
S'xxc438a5bda8775e499832adebd81c9e4d'
p743
sg12
S'xx2e6bd6e8058173f544bb03fa729ed788'
p744
sg14
S'Mozilla/5.0 (Linux; Android 5.1.1; vivo X7 Build/LMY47V) AppleWebKit/537.36 (KHTML, like Gecko) Version/4.0 Chrome/37.0.0.0 Mobile MQQBrowser/6.8 TBS/036849 Safari/537.36 MicroMessenger/6.3.27.880 NetType/cmnet Language/zh_CN'
p745
sg16
S'ddc70171039de5153c7a5d500b79221b'
p746
sa(dp747
g2
S'33132'
p748
sg4
S'5202'
p749
sg6
S'68caf753a98483aa8f8b9f741c3481c6'
p750
sg8
S'xx15ffe61dd02edece3a279077631c2277'
p751
sg10
S'xxc438a5bda8775e499832adebd81c9e4d'
p752
sg12
S'xx2e6bd6e8058173f544bb03fa729ed788'
p753
sg14
S'Mozilla/5.0 (Linux; Android 5.1.1; vivo X7 Build/LMY47V) AppleWebKit/537.36 (KHTML, like Gecko) Version/4.0 Chrome/37.0.0.0 Mobile MQQBrowser/6.8 TBS/036849 Safari/537.36 MicroMessenger/6.3.27.880 NetType/cmnet Language/zh_CN'
p754
sg16
S'ddc70171039de5153c7a5d500b79221b'
p755
sa(dp756
g2
S'33132'
p757
sg4
S'5286'
p758
sg6
S'68caf753a98483aa8f8b9f741c3481c6'
p759
sg8
S'xx15ffe61dd02edece3a279077631c2277'
p760
sg10
S'xxc438a5bda8775e499832adebd81c9e4d'
p761
sg12
S'xx2e6bd6e8058173f544bb03fa729ed788'
p762
sg14
S'Mozilla/5.0 (Linux; Android 5.1.1; vivo X7 Build/LMY47V) AppleWebKit/537.36 (KHTML, like Gecko) Version/4.0 Chrome/37.0.0.0 Mobile MQQBrowser/6.8 TBS/036849 Safari/537.36 MicroMessenger/6.3.27.880 NetType/cmnet Language/zh_CN'
p763
sg16
S'ddc70171039de5153c7a5d500b79221b'
p764
sa(dp765
g2
S'33132'
p766
sg4
S'5300'
p767
sg6
S'68caf753a98483aa8f8b9f741c3481c6'
p768
sg8
S'xx15ffe61dd02edece3a279077631c2277'
p769
sg10
S'xxc438a5bda8775e499832adebd81c9e4d'
p770
sg12
S'xx2e6bd6e8058173f544bb03fa729ed788'
p771
sg14
S'Mozilla/5.0 (Linux; Android 5.1.1; vivo X7 Build/LMY47V) AppleWebKit/537.36 (KHTML, like Gecko) Version/4.0 Chrome/37.0.0.0 Mobile MQQBrowser/6.8 TBS/036849 Safari/537.36 MicroMessenger/6.3.27.880 NetType/cmnet Language/zh_CN'
p772
sg16
S'ddc70171039de5153c7a5d500b79221b'
p773
sa(dp774
g2
S'27552'
p775
sg4
S'5305'
p776
sg6
S'bb68a975607e80d3425c6fe98c127ffd'
p777
sg8
S'xx9f58394891a4a9b3f08bb3fd18e05764'
p778
sg10
S'xxdaac1a2a72e947c418e3a77eab0fe51e'
p779
sg12
S'xx2e6bd6e8058173f544bb03fa729ed788'
p780
sg14
S'Mozilla/5.0 (Linux; Android 5.1.1; vivo X7 Build/LMY47V) AppleWebKit/537.36 (KHTML, like Gecko) Version/4.0 Chrome/37.0.0.0 Mobile MQQBrowser/6.8 TBS/036849 Safari/537.36 MicroMessenger/6.3.27.880 NetType/3gnet Language/zh_CN'
p781
sg16
S'97c66956a92979b64d2b5d717372cf4e'
p782
sa(dp783
g2
S'33132'
p784
sg4
S'5310'
p785
sg6
S'68caf753a98483aa8f8b9f741c3481c6'
p786
sg8
S'xx15ffe61dd02edece3a279077631c2277'
p787
sg10
S'xxc438a5bda8775e499832adebd81c9e4d'
p788
sg12
S'xx2e6bd6e8058173f544bb03fa729ed788'
p789
sg14
S'Mozilla/5.0 (Linux; Android 5.1.1; vivo X7 Build/LMY47V) AppleWebKit/537.36 (KHTML, like Gecko) Version/4.0 Chrome/37.0.0.0 Mobile MQQBrowser/6.8 TBS/036849 Safari/537.36 MicroMessenger/6.3.27.880 NetType/cmnet Language/zh_CN'
p790
sg16
S'ddc70171039de5153c7a5d500b79221b'
p791
sa(dp792
g2
S'33132'
p793
sg4
S'5324'
p794
sg6
S'68caf753a98483aa8f8b9f741c3481c6'
p795
sg8
S'xx15ffe61dd02edece3a279077631c2277'
p796
sg10
S'xxc438a5bda8775e499832adebd81c9e4d'
p797
sg12
S'xx2e6bd6e8058173f544bb03fa729ed788'
p798
sg14
S'Mozilla/5.0 (Linux; Android 5.1.1; vivo X7 Build/LMY47V) AppleWebKit/537.36 (KHTML, like Gecko) Version/4.0 Chrome/37.0.0.0 Mobile MQQBrowser/6.8 TBS/036849 Safari/537.36 MicroMessenger/6.3.27.880 NetType/cmnet Language/zh_CN'
p799
sg16
S'ddc70171039de5153c7a5d500b79221b'
p800
sa(dp801
g2
S'33132'
p802
sg4
S'5399'
p803
sg6
S'68caf753a98483aa8f8b9f741c3481c6'
p804
sg8
S'xx15ffe61dd02edece3a279077631c2277'
p805
sg10
S'xxc438a5bda8775e499832adebd81c9e4d'
p806
sg12
S'xx2e6bd6e8058173f544bb03fa729ed788'
p807
sg14
S'Mozilla/5.0 (Linux; Android 5.1.1; vivo X7 Build/LMY47V) AppleWebKit/537.36 (KHTML, like Gecko) Version/4.0 Chrome/37.0.0.0 Mobile MQQBrowser/6.8 TBS/036849 Safari/537.36 MicroMessenger/6.3.27.880 NetType/cmnet Language/zh_CN'
p808
sg16
S'ddc70171039de5153c7a5d500b79221b'
p809
sa(dp810
g2
S'35855'
p811
sg4
S'5785'
p812
sg6
S'7470be4cdd895a5288c45b70e34cddc6'
p813
sg8
S'xx47018d70d80e20331cf1aa2e84006ccd'
p814
sg10
S'xxdaac1a2a72e947c418e3a77eab0fe51e'
p815
sg12
S'xx2e6bd6e8058173f544bb03fa729ed788'
p816
sg14
S'Mozilla/5.0 (Linux; Android 5.1.1; vivo X7 Build/LMY47V) AppleWebKit/537.36 (KHTML, like Gecko) Version/4.0 Chrome/37.0.0.0 Mobile MQQBrowser/6.8 TBS/036869 Safari/537.36 MicroMessenger/6.3.27.880 NetType/WIFI Language/zh_CN'
p817
sg16
S'7229623074e3ff9cba8c0fe66eee8cd3'
p818
sa(dp819
g2
S'27552'
p820
sg4
S'5967'
p821
sg6
S'bb68a975607e80d3425c6fe98c127ffd'
p822
sg8
S'xx9f58394891a4a9b3f08bb3fd18e05764'
p823
sg10
S'xxdaac1a2a72e947c418e3a77eab0fe51e'
p824
sg12
S'xx2e6bd6e8058173f544bb03fa729ed788'
p825
sg14
S'Mozilla/5.0 (Linux; Android 5.1.1; vivo X7 Build/LMY47V) AppleWebKit/537.36 (KHTML, like Gecko) Version/4.0 Chrome/37.0.0.0 Mobile MQQBrowser/6.8 TBS/036849 Safari/537.36 MicroMessenger/6.3.27.880 NetType/3gnet Language/zh_CN'
p826
sg16
S'97c66956a92979b64d2b5d717372cf4e'
p827
sa(dp828
g2
S'27552'
p829
sg4
S'5982'
p830
sg6
S'bb68a975607e80d3425c6fe98c127ffd'
p831
sg8
S'xx9f58394891a4a9b3f08bb3fd18e05764'
p832
sg10
S'xxdaac1a2a72e947c418e3a77eab0fe51e'
p833
sg12
S'xx2e6bd6e8058173f544bb03fa729ed788'
p834
sg14
S'Mozilla/5.0 (Linux; Android 5.1.1; vivo X7 Build/LMY47V) AppleWebKit/537.36 (KHTML, like Gecko) Version/4.0 Chrome/37.0.0.0 Mobile MQQBrowser/6.8 TBS/036849 Safari/537.36 MicroMessenger/6.3.27.880 NetType/3gnet Language/zh_CN'
p835
sg16
S'97c66956a92979b64d2b5d717372cf4e'
p836
sa(dp837
g2
S'43072'
p838
sg4
S'6335'
p839
sg6
S'a14c09348dcd36fa400ffb63419523ae'
p840
sg8
S'xx804286d79f4d65ff952957f48b7e0df0'
p841
sg10
S'xxdaac1a2a72e947c418e3a77eab0fe51e'
p842
sg12
S'xx2e6bd6e8058173f544bb03fa729ed788'
p843
sg14
S'Mozilla/5.0 (Linux; Android 5.1.1; vivo X7 Build/LMY47V) AppleWebKit/537.36 (KHTML, like Gecko) Version/4.0 Chrome/37.0.0.0 Mobile MQQBrowser/6.8 TBS/036849 Safari/537.36 MicroMessenger/6.3.27.880 NetType/cmnet Language/zh_CN'
p844
sg16
S'ddc70171039de5153c7a5d500b79221b'
p845
sa(dp846
g2
S'43072'
p847
sg4
S'6348'
p848
sg6
S'a14c09348dcd36fa400ffb63419523ae'
p849
sg8
S'xx804286d79f4d65ff952957f48b7e0df0'
p850
sg10
S'xxdaac1a2a72e947c418e3a77eab0fe51e'
p851
sg12
S'xx2e6bd6e8058173f544bb03fa729ed788'
p852
sg14
S'Mozilla/5.0 (Linux; Android 5.1.1; vivo X7 Build/LMY47V) AppleWebKit/537.36 (KHTML, like Gecko) Version/4.0 Chrome/37.0.0.0 Mobile MQQBrowser/6.8 TBS/036849 Safari/537.36 MicroMessenger/6.3.27.880 NetType/cmnet Language/zh_CN'
p853
sg16
S'ddc70171039de5153c7a5d500b79221b'
p854
sa(dp855
g2
S'49814'
p856
sg4
S'6421'
p857
sg6
S'a14c09348dcd36fa400ffb63419523ae'
p858
sg8
S'xx804286d79f4d65ff952957f48b7e0df0'
p859
sg10
S'xxdaac1a2a72e947c418e3a77eab0fe51e'
p860
sg12
S'xx2e6bd6e8058173f544bb03fa729ed788'
p861
sg14
S'Mozilla/5.0 (Linux; Android 5.1.1; vivo X7 Build/LMY47V) AppleWebKit/537.36 (KHTML, like Gecko) Version/4.0 Chrome/37.0.0.0 Mobile MQQBrowser/6.8 TBS/036849 Safari/537.36 MicroMessenger/6.3.27.880 NetType/cmnet Language/zh_CN'
p862
sg16
S'ddc70171039de5153c7a5d500b79221b'
p863
sa(dp864
g2
S'49814'
p865
sg4
S'6437'
p866
sg6
S'a14c09348dcd36fa400ffb63419523ae'
p867
sg8
S'xx804286d79f4d65ff952957f48b7e0df0'
p868
sg10
S'xxdaac1a2a72e947c418e3a77eab0fe51e'
p869
sg12
S'xx2e6bd6e8058173f544bb03fa729ed788'
p870
sg14
S'Mozilla/5.0 (Linux; Android 5.1.1; vivo X7 Build/LMY47V) AppleWebKit/537.36 (KHTML, like Gecko) Version/4.0 Chrome/37.0.0.0 Mobile MQQBrowser/6.8 TBS/036849 Safari/537.36 MicroMessenger/6.3.27.880 NetType/cmnet Language/zh_CN'
p871
sg16
S'ddc70171039de5153c7a5d500b79221b'
p872
sa(dp873
g2
S'49814'
p874
sg4
S'6454'
p875
sg6
S'a14c09348dcd36fa400ffb63419523ae'
p876
sg8
S'xx804286d79f4d65ff952957f48b7e0df0'
p877
sg10
S'xxdaac1a2a72e947c418e3a77eab0fe51e'
p878
sg12
S'xx2e6bd6e8058173f544bb03fa729ed788'
p879
sg14
S'Mozilla/5.0 (Linux; Android 5.1.1; vivo X7 Build/LMY47V) AppleWebKit/537.36 (KHTML, like Gecko) Version/4.0 Chrome/37.0.0.0 Mobile MQQBrowser/6.8 TBS/036849 Safari/537.36 MicroMessenger/6.3.27.880 NetType/cmnet Language/zh_CN'
p880
sg16
S'ddc70171039de5153c7a5d500b79221b'
p881
sa(dp882
g2
S'35855'
p883
sg4
S'6493'
p884
sg6
S'7470be4cdd895a5288c45b70e34cddc6'
p885
sg8
S'xx47018d70d80e20331cf1aa2e84006ccd'
p886
sg10
S'xxdaac1a2a72e947c418e3a77eab0fe51e'
p887
sg12
S'xx2e6bd6e8058173f544bb03fa729ed788'
p888
sg14
S'Mozilla/5.0 (Linux; Android 5.1.1; vivo X7 Build/LMY47V) AppleWebKit/537.36 (KHTML, like Gecko) Version/4.0 Chrome/37.0.0.0 Mobile MQQBrowser/6.8 TBS/036869 Safari/537.36 MicroMessenger/6.3.27.880 NetType/WIFI Language/zh_CN'
p889
sg16
S'7229623074e3ff9cba8c0fe66eee8cd3'
p890
sa(dp891
g2
S'35855'
p892
sg4
S'6508'
p893
sg6
S'7470be4cdd895a5288c45b70e34cddc6'
p894
sg8
S'xx47018d70d80e20331cf1aa2e84006ccd'
p895
sg10
S'xxdaac1a2a72e947c418e3a77eab0fe51e'
p896
sg12
S'xx2e6bd6e8058173f544bb03fa729ed788'
p897
sg14
S'Mozilla/5.0 (Linux; Android 5.1.1; vivo X7 Build/LMY47V) AppleWebKit/537.36 (KHTML, like Gecko) Version/4.0 Chrome/37.0.0.0 Mobile MQQBrowser/6.8 TBS/036869 Safari/537.36 MicroMessenger/6.3.27.880 NetType/WIFI Language/zh_CN'
p898
sg16
S'7229623074e3ff9cba8c0fe66eee8cd3'
p899
sa(dp900
g2
S'40199'
p901
sg4
S'6661'
p902
sg6
S'fbd2e8c5cf51be14b3b86c6ebad30d53'
p903
sg8
S'xx0a03114eb0514505b90456efa5f7beed'
p904
sg10
S'xxdaac1a2a72e947c418e3a77eab0fe51e'
p905
sg12
S'xx2e6bd6e8058173f544bb03fa729ed788'
p906
sg14
S'Mozilla/5.0 (Linux; Android 5.1.1; vivo X7 Build/LMY47V) AppleWebKit/537.36 (KHTML, like Gecko) Version/4.0 Chrome/37.0.0.0 Mobile MQQBrowser/6.8 TBS/036865 Safari/537.36 MicroMessenger/6.3.27.880 NetType/WIFI Language/zh_CN'
p907
sg16
S'c9ed144e9028f7fa93edfec878c09462'
p908
sa(dp909
g2
S'40199'
p910
sg4
S'6681'
p911
sg6
S'fbd2e8c5cf51be14b3b86c6ebad30d53'
p912
sg8
S'xx0a03114eb0514505b90456efa5f7beed'
p913
sg10
S'xxdaac1a2a72e947c418e3a77eab0fe51e'
p914
sg12
S'xx2e6bd6e8058173f544bb03fa729ed788'
p915
sg14
S'Mozilla/5.0 (Linux; Android 5.1.1; vivo X7 Build/LMY47V) AppleWebKit/537.36 (KHTML, like Gecko) Version/4.0 Chrome/37.0.0.0 Mobile MQQBrowser/6.8 TBS/036865 Safari/537.36 MicroMessenger/6.3.27.880 NetType/WIFI Language/zh_CN'
p916
sg16
S'c9ed144e9028f7fa93edfec878c09462'
p917
sa(dp918
g2
S'40199'
p919
sg4
S'6710'
p920
sg6
S'fbd2e8c5cf51be14b3b86c6ebad30d53'
p921
sg8
S'xx974aec84fe22db57a20dbb0d24e215cf'
p922
sg10
S'xxdaac1a2a72e947c418e3a77eab0fe51e'
p923
sg12
S'xx2e6bd6e8058173f544bb03fa729ed788'
p924
sg14
S'Mozilla/5.0 (Linux; Android 5.1.1; vivo X7 Build/LMY47V) AppleWebKit/537.36 (KHTML, like Gecko) Version/4.0 Chrome/37.0.0.0 Mobile MQQBrowser/6.8 TBS/036865 Safari/537.36 MicroMessenger/6.3.27.880 NetType/cmnet Language/zh_CN'
p925
sg16
S'2445094084e7d4a469dde17390a63cb9'
p926
sa(dp927
g2
S'27552'
p928
sg4
S'6832'
p929
sg6
S'bb68a975607e80d3425c6fe98c127ffd'
p930
sg8
S'xx9f58394891a4a9b3f08bb3fd18e05764'
p931
sg10
S'xxdaac1a2a72e947c418e3a77eab0fe51e'
p932
sg12
S'xx2e6bd6e8058173f544bb03fa729ed788'
p933
sg14
S'Mozilla/5.0 (Linux; Android 5.1.1; vivo X7 Build/LMY47V) AppleWebKit/537.36 (KHTML, like Gecko) Version/4.0 Chrome/37.0.0.0 Mobile MQQBrowser/6.8 TBS/036849 Safari/537.36 MicroMessenger/6.3.27.880 NetType/3gnet Language/zh_CN'
p934
sg16
S'97c66956a92979b64d2b5d717372cf4e'
p935
sa(dp936
g2
S'28207'
p937
sg4
S'6864'
p938
sg6
S'7470be4cdd895a5288c45b70e34cddc6'
p939
sg8
S'xx47018d70d80e20331cf1aa2e84006ccd'
p940
sg10
S'xxdaac1a2a72e947c418e3a77eab0fe51e'
p941
sg12
S'xx2e6bd6e8058173f544bb03fa729ed788'
p942
sg14
S'Mozilla/5.0 (Linux; Android 5.1.1; vivo X7 Build/LMY47V) AppleWebKit/537.36 (KHTML, like Gecko) Version/4.0 Chrome/37.0.0.0 Mobile MQQBrowser/6.8 TBS/036869 Safari/537.36 MicroMessenger/6.3.27.880 NetType/WIFI Language/zh_CN'
p943
sg16
S'7229623074e3ff9cba8c0fe66eee8cd3'
p944
sa(dp945
g2
S'28207'
p946
sg4
S'6881'
p947
sg6
S'7470be4cdd895a5288c45b70e34cddc6'
p948
sg8
S'xx47018d70d80e20331cf1aa2e84006ccd'
p949
sg10
S'xxdaac1a2a72e947c418e3a77eab0fe51e'
p950
sg12
S'xx2e6bd6e8058173f544bb03fa729ed788'
p951
sg14
S'Mozilla/5.0 (Linux; Android 5.1.1; vivo X7 Build/LMY47V) AppleWebKit/537.36 (KHTML, like Gecko) Version/4.0 Chrome/37.0.0.0 Mobile MQQBrowser/6.8 TBS/036869 Safari/537.36 MicroMessenger/6.3.27.880 NetType/WIFI Language/zh_CN'
p952
sg16
S'7229623074e3ff9cba8c0fe66eee8cd3'
p953
sa(dp954
g2
S'28207'
p955
sg4
S'6896'
p956
sg6
S'7470be4cdd895a5288c45b70e34cddc6'
p957
sg8
S'xx47018d70d80e20331cf1aa2e84006ccd'
p958
sg10
S'xxdaac1a2a72e947c418e3a77eab0fe51e'
p959
sg12
S'xx2e6bd6e8058173f544bb03fa729ed788'
p960
sg14
S'Mozilla/5.0 (Linux; Android 5.1.1; vivo X7 Build/LMY47V) AppleWebKit/537.36 (KHTML, like Gecko) Version/4.0 Chrome/37.0.0.0 Mobile MQQBrowser/6.8 TBS/036869 Safari/537.36 MicroMessenger/6.3.27.880 NetType/WIFI Language/zh_CN'
p961
sg16
S'7229623074e3ff9cba8c0fe66eee8cd3'
p962
sa(dp963
g2
S'28207'
p964
sg4
S'6916'
p965
sg6
S'7470be4cdd895a5288c45b70e34cddc6'
p966
sg8
S'xx47018d70d80e20331cf1aa2e84006ccd'
p967
sg10
S'xxdaac1a2a72e947c418e3a77eab0fe51e'
p968
sg12
S'xx2e6bd6e8058173f544bb03fa729ed788'
p969
sg14
S'Mozilla/5.0 (Linux; Android 5.1.1; vivo X7 Build/LMY47V) AppleWebKit/537.36 (KHTML, like Gecko) Version/4.0 Chrome/37.0.0.0 Mobile MQQBrowser/6.8 TBS/036869 Safari/537.36 MicroMessenger/6.3.27.880 NetType/WIFI Language/zh_CN'
p970
sg16
S'7229623074e3ff9cba8c0fe66eee8cd3'
p971
sa(dp972
g2
S'28207'
p973
sg4
S'6930'
p974
sg6
S'7470be4cdd895a5288c45b70e34cddc6'
p975
sg8
S'xx47018d70d80e20331cf1aa2e84006ccd'
p976
sg10
S'xxdaac1a2a72e947c418e3a77eab0fe51e'
p977
sg12
S'xx2e6bd6e8058173f544bb03fa729ed788'
p978
sg14
S'Mozilla/5.0 (Linux; Android 5.1.1; vivo X7 Build/LMY47V) AppleWebKit/537.36 (KHTML, like Gecko) Version/4.0 Chrome/37.0.0.0 Mobile MQQBrowser/6.8 TBS/036869 Safari/537.36 MicroMessenger/6.3.27.880 NetType/WIFI Language/zh_CN'
p979
sg16
S'7229623074e3ff9cba8c0fe66eee8cd3'
p980
sa(dp981
g2
S'28207'
p982
sg4
S'6944'
p983
sg6
S'7470be4cdd895a5288c45b70e34cddc6'
p984
sg8
S'xx47018d70d80e20331cf1aa2e84006ccd'
p985
sg10
S'xxdaac1a2a72e947c418e3a77eab0fe51e'
p986
sg12
S'xx2e6bd6e8058173f544bb03fa729ed788'
p987
sg14
S'Mozilla/5.0 (Linux; Android 5.1.1; vivo X7 Build/LMY47V) AppleWebKit/537.36 (KHTML, like Gecko) Version/4.0 Chrome/37.0.0.0 Mobile MQQBrowser/6.8 TBS/036869 Safari/537.36 MicroMessenger/6.3.27.880 NetType/WIFI Language/zh_CN'
p988
sg16
S'7229623074e3ff9cba8c0fe66eee8cd3'
p989
sa(dp990
g2
S'28207'
p991
sg4
S'7483'
p992
sg6
S'7470be4cdd895a5288c45b70e34cddc6'
p993
sg8
S'xx47018d70d80e20331cf1aa2e84006ccd'
p994
sg10
S'xxdaac1a2a72e947c418e3a77eab0fe51e'
p995
sg12
S'xx2e6bd6e8058173f544bb03fa729ed788'
p996
sg14
S'Mozilla/5.0 (Linux; Android 5.1.1; vivo X7 Build/LMY47V) AppleWebKit/537.36 (KHTML, like Gecko) Version/4.0 Chrome/37.0.0.0 Mobile MQQBrowser/6.8 TBS/036869 Safari/537.36 MicroMessenger/6.3.27.880 NetType/WIFI Language/zh_CN'
p997
sg16
S'7229623074e3ff9cba8c0fe66eee8cd3'
p998
sa(dp999
g2
S'40199'
p1000
sg4
S'7739'
p1001
sg6
S'fbd2e8c5cf51be14b3b86c6ebad30d53'
p1002
sg8
S'xx974aec84fe22db57a20dbb0d24e215cf'
p1003
sg10
S'xxdaac1a2a72e947c418e3a77eab0fe51e'
p1004
sg12
S'xx2e6bd6e8058173f544bb03fa729ed788'
p1005
sg14
S'Mozilla/5.0 (Linux; Android 5.1.1; vivo X7 Build/LMY47V) AppleWebKit/537.36 (KHTML, like Gecko) Version/4.0 Chrome/37.0.0.0 Mobile MQQBrowser/6.8 TBS/036865 Safari/537.36 MicroMessenger/6.3.27.880 NetType/cmnet Language/zh_CN'
p1006
sg16
S'2445094084e7d4a469dde17390a63cb9'
p1007
sa(dp1008
g2
S'40199'
p1009
sg4
S'7756'
p1010
sg6
S'fbd2e8c5cf51be14b3b86c6ebad30d53'
p1011
sg8
S'xx974aec84fe22db57a20dbb0d24e215cf'
p1012
sg10
S'xxdaac1a2a72e947c418e3a77eab0fe51e'
p1013
sg12
S'xx2e6bd6e8058173f544bb03fa729ed788'
p1014
sg14
S'Mozilla/5.0 (Linux; Android 5.1.1; vivo X7 Build/LMY47V) AppleWebKit/537.36 (KHTML, like Gecko) Version/4.0 Chrome/37.0.0.0 Mobile MQQBrowser/6.8 TBS/036865 Safari/537.36 MicroMessenger/6.3.27.880 NetType/cmnet Language/zh_CN'
p1015
sg16
S'2445094084e7d4a469dde17390a63cb9'
p1016
sa(dp1017
g2
S'28207'
p1018
sg4
S'7798'
p1019
sg6
S'7470be4cdd895a5288c45b70e34cddc6'
p1020
sg8
S'xx47018d70d80e20331cf1aa2e84006ccd'
p1021
sg10
S'xxdaac1a2a72e947c418e3a77eab0fe51e'
p1022
sg12
S'xx2e6bd6e8058173f544bb03fa729ed788'
p1023
sg14
S'Mozilla/5.0 (Linux; Android 5.1.1; vivo X7 Build/LMY47V) AppleWebKit/537.36 (KHTML, like Gecko) Version/4.0 Chrome/37.0.0.0 Mobile MQQBrowser/6.8 TBS/036869 Safari/537.36 MicroMessenger/6.3.27.880 NetType/WIFI Language/zh_CN'
p1024
sg16
S'7229623074e3ff9cba8c0fe66eee8cd3'
p1025
sa(dp1026
g2
S'28207'
p1027
sg4
S'7809'
p1028
sg6
S'7470be4cdd895a5288c45b70e34cddc6'
p1029
sg8
S'xx47018d70d80e20331cf1aa2e84006ccd'
p1030
sg10
S'xxdaac1a2a72e947c418e3a77eab0fe51e'
p1031
sg12
S'xx2e6bd6e8058173f544bb03fa729ed788'
p1032
sg14
S'Mozilla/5.0 (Linux; Android 5.1.1; vivo X7 Build/LMY47V) AppleWebKit/537.36 (KHTML, like Gecko) Version/4.0 Chrome/37.0.0.0 Mobile MQQBrowser/6.8 TBS/036869 Safari/537.36 MicroMessenger/6.3.27.880 NetType/WIFI Language/zh_CN'
p1033
sg16
S'7229623074e3ff9cba8c0fe66eee8cd3'
p1034
sa(dp1035
g2
S'28207'
p1036
sg4
S'7816'
p1037
sg6
S'7470be4cdd895a5288c45b70e34cddc6'
p1038
sg8
S'xx47018d70d80e20331cf1aa2e84006ccd'
p1039
sg10
S'xxdaac1a2a72e947c418e3a77eab0fe51e'
p1040
sg12
S'xx2e6bd6e8058173f544bb03fa729ed788'
p1041
sg14
S'Mozilla/5.0 (Linux; Android 5.1.1; vivo X7 Build/LMY47V) AppleWebKit/537.36 (KHTML, like Gecko) Version/4.0 Chrome/37.0.0.0 Mobile MQQBrowser/6.8 TBS/036869 Safari/537.36 MicroMessenger/6.3.27.880 NetType/WIFI Language/zh_CN'
p1042
sg16
S'7229623074e3ff9cba8c0fe66eee8cd3'
p1043
sa(dp1044
g2
S'28207'
p1045
sg4
S'7822'
p1046
sg6
S'7470be4cdd895a5288c45b70e34cddc6'
p1047
sg8
S'xx47018d70d80e20331cf1aa2e84006ccd'
p1048
sg10
S'xxdaac1a2a72e947c418e3a77eab0fe51e'
p1049
sg12
S'xx2e6bd6e8058173f544bb03fa729ed788'
p1050
sg14
S'Mozilla/5.0 (Linux; Android 5.1.1; vivo X7 Build/LMY47V) AppleWebKit/537.36 (KHTML, like Gecko) Version/4.0 Chrome/37.0.0.0 Mobile MQQBrowser/6.8 TBS/036869 Safari/537.36 MicroMessenger/6.3.27.880 NetType/WIFI Language/zh_CN'
p1051
sg16
S'7229623074e3ff9cba8c0fe66eee8cd3'
p1052
sa(dp1053
g2
S'28207'
p1054
sg4
S'7829'
p1055
sg6
S'7470be4cdd895a5288c45b70e34cddc6'
p1056
sg8
S'xx47018d70d80e20331cf1aa2e84006ccd'
p1057
sg10
S'xxdaac1a2a72e947c418e3a77eab0fe51e'
p1058
sg12
S'xx2e6bd6e8058173f544bb03fa729ed788'
p1059
sg14
S'Mozilla/5.0 (Linux; Android 5.1.1; vivo X7 Build/LMY47V) AppleWebKit/537.36 (KHTML, like Gecko) Version/4.0 Chrome/37.0.0.0 Mobile MQQBrowser/6.8 TBS/036869 Safari/537.36 MicroMessenger/6.3.27.880 NetType/WIFI Language/zh_CN'
p1060
sg16
S'7229623074e3ff9cba8c0fe66eee8cd3'
p1061
sa(dp1062
g2
S'28207'
p1063
sg4
S'7838'
p1064
sg6
S'7470be4cdd895a5288c45b70e34cddc6'
p1065
sg8
S'xx47018d70d80e20331cf1aa2e84006ccd'
p1066
sg10
S'xxdaac1a2a72e947c418e3a77eab0fe51e'
p1067
sg12
S'xx2e6bd6e8058173f544bb03fa729ed788'
p1068
sg14
S'Mozilla/5.0 (Linux; Android 5.1.1; vivo X7 Build/LMY47V) AppleWebKit/537.36 (KHTML, like Gecko) Version/4.0 Chrome/37.0.0.0 Mobile MQQBrowser/6.8 TBS/036869 Safari/537.36 MicroMessenger/6.3.27.880 NetType/WIFI Language/zh_CN'
p1069
sg16
S'7229623074e3ff9cba8c0fe66eee8cd3'
p1070
sa(dp1071
g2
S'28207'
p1072
sg4
S'7849'
p1073
sg6
S'7470be4cdd895a5288c45b70e34cddc6'
p1074
sg8
S'xx47018d70d80e20331cf1aa2e84006ccd'
p1075
sg10
S'xxdaac1a2a72e947c418e3a77eab0fe51e'
p1076
sg12
S'xx2e6bd6e8058173f544bb03fa729ed788'
p1077
sg14
S'Mozilla/5.0 (Linux; Android 5.1.1; vivo X7 Build/LMY47V) AppleWebKit/537.36 (KHTML, like Gecko) Version/4.0 Chrome/37.0.0.0 Mobile MQQBrowser/6.8 TBS/036869 Safari/537.36 MicroMessenger/6.3.27.880 NetType/WIFI Language/zh_CN'
p1078
sg16
S'7229623074e3ff9cba8c0fe66eee8cd3'
p1079
sa(dp1080
g2
S'28207'
p1081
sg4
S'7857'
p1082
sg6
S'7470be4cdd895a5288c45b70e34cddc6'
p1083
sg8
S'xx47018d70d80e20331cf1aa2e84006ccd'
p1084
sg10
S'xxdaac1a2a72e947c418e3a77eab0fe51e'
p1085
sg12
S'xx2e6bd6e8058173f544bb03fa729ed788'
p1086
sg14
S'Mozilla/5.0 (Linux; Android 5.1.1; vivo X7 Build/LMY47V) AppleWebKit/537.36 (KHTML, like Gecko) Version/4.0 Chrome/37.0.0.0 Mobile MQQBrowser/6.8 TBS/036869 Safari/537.36 MicroMessenger/6.3.27.880 NetType/WIFI Language/zh_CN'
p1087
sg16
S'7229623074e3ff9cba8c0fe66eee8cd3'
p1088
sa(dp1089
g2
S'28207'
p1090
sg4
S'7918'
p1091
sg6
S'7470be4cdd895a5288c45b70e34cddc6'
p1092
sg8
S'xx47018d70d80e20331cf1aa2e84006ccd'
p1093
sg10
S'xxdaac1a2a72e947c418e3a77eab0fe51e'
p1094
sg12
S'xx2e6bd6e8058173f544bb03fa729ed788'
p1095
sg14
S'Mozilla/5.0 (Linux; Android 5.1.1; vivo X7 Build/LMY47V) AppleWebKit/537.36 (KHTML, like Gecko) Version/4.0 Chrome/37.0.0.0 Mobile MQQBrowser/6.8 TBS/036869 Safari/537.36 MicroMessenger/6.3.27.880 NetType/WIFI Language/zh_CN'
p1096
sg16
S'7229623074e3ff9cba8c0fe66eee8cd3'
p1097
sa(dp1098
g2
S'28207'
p1099
sg4
S'7928'
p1100
sg6
S'7470be4cdd895a5288c45b70e34cddc6'
p1101
sg8
S'xx47018d70d80e20331cf1aa2e84006ccd'
p1102
sg10
S'xxdaac1a2a72e947c418e3a77eab0fe51e'
p1103
sg12
S'xx2e6bd6e8058173f544bb03fa729ed788'
p1104
sg14
S'Mozilla/5.0 (Linux; Android 5.1.1; vivo X7 Build/LMY47V) AppleWebKit/537.36 (KHTML, like Gecko) Version/4.0 Chrome/37.0.0.0 Mobile MQQBrowser/6.8 TBS/036869 Safari/537.36 MicroMessenger/6.3.27.880 NetType/WIFI Language/zh_CN'
p1105
sg16
S'7229623074e3ff9cba8c0fe66eee8cd3'
p1106
sa(dp1107
g2
S'28207'
p1108
sg4
S'7941'
p1109
sg6
S'7470be4cdd895a5288c45b70e34cddc6'
p1110
sg8
S'xx47018d70d80e20331cf1aa2e84006ccd'
p1111
sg10
S'xxdaac1a2a72e947c418e3a77eab0fe51e'
p1112
sg12
S'xx2e6bd6e8058173f544bb03fa729ed788'
p1113
sg14
S'Mozilla/5.0 (Linux; Android 5.1.1; vivo X7 Build/LMY47V) AppleWebKit/537.36 (KHTML, like Gecko) Version/4.0 Chrome/37.0.0.0 Mobile MQQBrowser/6.8 TBS/036869 Safari/537.36 MicroMessenger/6.3.27.880 NetType/WIFI Language/zh_CN'
p1114
sg16
S'7229623074e3ff9cba8c0fe66eee8cd3'
p1115
sa(dp1116
g2
S'37434'
p1117
sg4
S'8224'
p1118
sg6
S'8c8c1f2c2ac15f6fab7612722b6fb90d'
p1119
sg8
S'xx69576072b206fc5d9e3ef23a31975a40'
p1120
sg10
S'xxdaac1a2a72e947c418e3a77eab0fe51e'
p1121
sg12
S'xx2e6bd6e8058173f544bb03fa729ed788'
p1122
sg14
S'Mozilla/5.0 (Linux; Android 5.1.1; vivo X7 Build/LMY47V) AppleWebKit/537.36 (KHTML, like Gecko) Version/4.0 Chrome/37.0.0.0 Mobile MQQBrowser/6.8 TBS/036849 Safari/537.36 MicroMessenger/6.3.27.880 NetType/WIFI Language/zh_CN'
p1123
sg16
S'588fef1d2b4f5c8e6bfa9c4b1d5079dc'
p1124
sa(dp1125
g2
S'37434'
p1126
sg4
S'8239'
p1127
sg6
S'8c8c1f2c2ac15f6fab7612722b6fb90d'
p1128
sg8
S'xx69576072b206fc5d9e3ef23a31975a40'
p1129
sg10
S'xxdaac1a2a72e947c418e3a77eab0fe51e'
p1130
sg12
S'xx2e6bd6e8058173f544bb03fa729ed788'
p1131
sg14
S'Mozilla/5.0 (Linux; Android 5.1.1; vivo X7 Build/LMY47V) AppleWebKit/537.36 (KHTML, like Gecko) Version/4.0 Chrome/37.0.0.0 Mobile MQQBrowser/6.8 TBS/036849 Safari/537.36 MicroMessenger/6.3.27.880 NetType/WIFI Language/zh_CN'
p1132
sg16
S'588fef1d2b4f5c8e6bfa9c4b1d5079dc'
p1133
sa(dp1134
g2
S'28207'
p1135
sg4
S'8334'
p1136
sg6
S'7470be4cdd895a5288c45b70e34cddc6'
p1137
sg8
S'xx47018d70d80e20331cf1aa2e84006ccd'
p1138
sg10
S'xxdaac1a2a72e947c418e3a77eab0fe51e'
p1139
sg12
S'xx2e6bd6e8058173f544bb03fa729ed788'
p1140
sg14
S'Mozilla/5.0 (Linux; Android 5.1.1; vivo X7 Build/LMY47V) AppleWebKit/537.36 (KHTML, like Gecko) Version/4.0 Chrome/37.0.0.0 Mobile MQQBrowser/6.8 TBS/036869 Safari/537.36 MicroMessenger/6.3.27.880 NetType/WIFI Language/zh_CN'
p1141
sg16
S'7229623074e3ff9cba8c0fe66eee8cd3'
p1142
sa(dp1143
g2
S'28207'
p1144
sg4
S'8496'
p1145
sg6
S'7470be4cdd895a5288c45b70e34cddc6'
p1146
sg8
S'xx47018d70d80e20331cf1aa2e84006ccd'
p1147
sg10
S'xxdaac1a2a72e947c418e3a77eab0fe51e'
p1148
sg12
S'xx2e6bd6e8058173f544bb03fa729ed788'
p1149
sg14
S'Mozilla/5.0 (Linux; Android 5.1.1; vivo X7 Build/LMY47V) AppleWebKit/537.36 (KHTML, like Gecko) Version/4.0 Chrome/37.0.0.0 Mobile MQQBrowser/6.8 TBS/036869 Safari/537.36 MicroMessenger/6.3.27.880 NetType/WIFI Language/zh_CN'
p1150
sg16
S'7229623074e3ff9cba8c0fe66eee8cd3'
p1151
sa(dp1152
g2
S'28207'
p1153
sg4
S'8504'
p1154
sg6
S'7470be4cdd895a5288c45b70e34cddc6'
p1155
sg8
S'xx47018d70d80e20331cf1aa2e84006ccd'
p1156
sg10
S'xxdaac1a2a72e947c418e3a77eab0fe51e'
p1157
sg12
S'xx2e6bd6e8058173f544bb03fa729ed788'
p1158
sg14
S'Mozilla/5.0 (Linux; Android 5.1.1; vivo X7 Build/LMY47V) AppleWebKit/537.36 (KHTML, like Gecko) Version/4.0 Chrome/37.0.0.0 Mobile MQQBrowser/6.8 TBS/036869 Safari/537.36 MicroMessenger/6.3.27.880 NetType/WIFI Language/zh_CN'
p1159
sg16
S'7229623074e3ff9cba8c0fe66eee8cd3'
p1160
sa(dp1161
g2
S'34209'
p1162
sg4
S'8621'
p1163
sg6
S'd6c9237b3dcad300db5e51f85434c2c1'
p1164
sg8
S'xx69576072b206fc5d9e3ef23a31975a40'
p1165
sg10
S'xxdaac1a2a72e947c418e3a77eab0fe51e'
p1166
sg12
S'xx2e6bd6e8058173f544bb03fa729ed788'
p1167
sg14
S'Mozilla/5.0 (Linux; Android 5.1.1; vivo X7 Build/LMY47V) AppleWebKit/537.36 (KHTML, like Gecko) Version/4.0 Chrome/37.0.0.0 Mobile MQQBrowser/6.8 TBS/036849 Safari/537.36 MicroMessenger/6.3.27.880 NetType/WIFI Language/zh_CN'
p1168
sg16
S'588fef1d2b4f5c8e6bfa9c4b1d5079dc'
p1169
sa(dp1170
g2
S'34209'
p1171
sg4
S'8639'
p1172
sg6
S'd6c9237b3dcad300db5e51f85434c2c1'
p1173
sg8
S'xx69576072b206fc5d9e3ef23a31975a40'
p1174
sg10
S'xxdaac1a2a72e947c418e3a77eab0fe51e'
p1175
sg12
S'xx2e6bd6e8058173f544bb03fa729ed788'
p1176
sg14
S'Mozilla/5.0 (Linux; Android 5.1.1; vivo X7 Build/LMY47V) AppleWebKit/537.36 (KHTML, like Gecko) Version/4.0 Chrome/37.0.0.0 Mobile MQQBrowser/6.8 TBS/036849 Safari/537.36 MicroMessenger/6.3.27.880 NetType/WIFI Language/zh_CN'
p1177
sg16
S'588fef1d2b4f5c8e6bfa9c4b1d5079dc'
p1178
sa(dp1179
g2
S'34209'
p1180
sg4
S'8708'
p1181
sg6
S'd6c9237b3dcad300db5e51f85434c2c1'
p1182
sg8
S'xx69576072b206fc5d9e3ef23a31975a40'
p1183
sg10
S'xxdaac1a2a72e947c418e3a77eab0fe51e'
p1184
sg12
S'xx2e6bd6e8058173f544bb03fa729ed788'
p1185
sg14
S'Mozilla/5.0 (Linux; Android 5.1.1; vivo X7 Build/LMY47V) AppleWebKit/537.36 (KHTML, like Gecko) Version/4.0 Chrome/37.0.0.0 Mobile MQQBrowser/6.8 TBS/036849 Safari/537.36 MicroMessenger/6.3.27.880 NetType/WIFI Language/zh_CN'
p1186
sg16
S'588fef1d2b4f5c8e6bfa9c4b1d5079dc'
p1187
sa.