(lp0
(dp1
S'user_id'
p2
S'40444'
p3
sS'data_id'
p4
S'8579'
p5
sS'ip'
p6
S'd233588a4e58dd991553d6f6750164dc'
p7
sS'phone_B'
p8
S'xx2088111df1fc383bd06d944c9988f6c1'
p9
sS'phone_C'
p10
S'xxb24d40ba47fc5856dc713db895c52fbf'
p11
sS'phone_A'
p12
S'xx2f599663ab24bad4b614f4ef3edfcce3'
p13
sS'user_agent'
p14
S'Mozilla/5.0 (Linux; Android 6.0; PRO 6 Build/MRA58K) AppleWebKit/537.36 (KHTML, like Gecko) Version/4.0 Chrome/37.0.0.0 Mobile MQQBrowser/6.8 TBS/036849 Safari/537.36 MicroMessenger/6.3.27.880 NetType/cmnet Language/zh_CN'
p15
sS'ua'
p16
S'0b24180450b3817fd0bf395bf49db14d'
p17
sa(dp18
g2
S'40444'
p19
sg4
S'8597'
p20
sg6
S'd233588a4e58dd991553d6f6750164dc'
p21
sg8
S'xx2088111df1fc383bd06d944c9988f6c1'
p22
sg10
S'xxb24d40ba47fc5856dc713db895c52fbf'
p23
sg12
S'xx2f599663ab24bad4b614f4ef3edfcce3'
p24
sg14
S'Mozilla/5.0 (Linux; Android 6.0; PRO 6 Build/MRA58K) AppleWebKit/537.36 (KHTML, like Gecko) Version/4.0 Chrome/37.0.0.0 Mobile MQQBrowser/6.8 TBS/036849 Safari/537.36 MicroMessenger/6.3.27.880 NetType/cmnet Language/zh_CN'
p25
sg16
S'0b24180450b3817fd0bf395bf49db14d'
p26
sa.