(lp0
(dp1
S'user_id'
p2
S'23553'
p3
sS'data_id'
p4
S'1548'
p5
sS'ip'
p6
S'c053915e38aa9f35ab188f266fa74b8a'
p7
sS'phone_B'
p8
S'xx43ad1c57428bb93852ebe56a1b567faf'
p9
sS'phone_C'
p10
S'xxf56cd5f1d0f3109e4206944447fd078e'
p11
sS'phone_A'
p12
S'xx307e60c3a4936501b771f663b0b24d53'
p13
sS'user_agent'
p14
S'Mozilla/5.0 (Linux; Android 4.3; R2017 Build/JLS36C) AppleWebKit/537.36 (KHTML, like Gecko) Version/4.0 Chrome/37.0.0.0 Mobile MQQBrowser/6.8 TBS/036849 Safari/537.36 MicroMessenger/6.3.27.880 NetType/WIFI Language/zh_CN'
p15
sS'ua'
p16
S'4164399e3e69e06bdb4c94927ce41a8b'
p17
sa(dp18
g2
S'23553'
p19
sg4
S'1564'
p20
sg6
S'c053915e38aa9f35ab188f266fa74b8a'
p21
sg8
S'xx43ad1c57428bb93852ebe56a1b567faf'
p22
sg10
S'xxf56cd5f1d0f3109e4206944447fd078e'
p23
sg12
S'xx307e60c3a4936501b771f663b0b24d53'
p24
sg14
S'Mozilla/5.0 (Linux; Android 4.3; R2017 Build/JLS36C) AppleWebKit/537.36 (KHTML, like Gecko) Version/4.0 Chrome/37.0.0.0 Mobile MQQBrowser/6.8 TBS/036849 Safari/537.36 MicroMessenger/6.3.27.880 NetType/WIFI Language/zh_CN'
p25
sg16
S'4164399e3e69e06bdb4c94927ce41a8b'
p26
sa(dp27
g2
S'23553'
p28
sg4
S'1580'
p29
sg6
S'c053915e38aa9f35ab188f266fa74b8a'
p30
sg8
S'xx43ad1c57428bb93852ebe56a1b567faf'
p31
sg10
S'xxf56cd5f1d0f3109e4206944447fd078e'
p32
sg12
S'xx307e60c3a4936501b771f663b0b24d53'
p33
sg14
S'Mozilla/5.0 (Linux; Android 4.3; R2017 Build/JLS36C) AppleWebKit/537.36 (KHTML, like Gecko) Version/4.0 Chrome/37.0.0.0 Mobile MQQBrowser/6.8 TBS/036849 Safari/537.36 MicroMessenger/6.3.27.880 NetType/WIFI Language/zh_CN'
p34
sg16
S'4164399e3e69e06bdb4c94927ce41a8b'
p35
sa(dp36
g2
S'23553'
p37
sg4
S'2317'
p38
sg6
S'c053915e38aa9f35ab188f266fa74b8a'
p39
sg8
S'xx43ad1c57428bb93852ebe56a1b567faf'
p40
sg10
S'xxf56cd5f1d0f3109e4206944447fd078e'
p41
sg12
S'xx307e60c3a4936501b771f663b0b24d53'
p42
sg14
S'Mozilla/5.0 (Linux; Android 4.3; R2017 Build/JLS36C) AppleWebKit/537.36 (KHTML, like Gecko) Version/4.0 Chrome/37.0.0.0 Mobile MQQBrowser/6.8 TBS/036849 Safari/537.36 MicroMessenger/6.3.27.880 NetType/WIFI Language/zh_CN'
p43
sg16
S'4164399e3e69e06bdb4c94927ce41a8b'
p44
sa(dp45
g2
S'23553'
p46
sg4
S'2331'
p47
sg6
S'c053915e38aa9f35ab188f266fa74b8a'
p48
sg8
S'xx43ad1c57428bb93852ebe56a1b567faf'
p49
sg10
S'xxf56cd5f1d0f3109e4206944447fd078e'
p50
sg12
S'xx307e60c3a4936501b771f663b0b24d53'
p51
sg14
S'Mozilla/5.0 (Linux; Android 4.3; R2017 Build/JLS36C) AppleWebKit/537.36 (KHTML, like Gecko) Version/4.0 Chrome/37.0.0.0 Mobile MQQBrowser/6.8 TBS/036849 Safari/537.36 MicroMessenger/6.3.27.880 NetType/WIFI Language/zh_CN'
p52
sg16
S'4164399e3e69e06bdb4c94927ce41a8b'
p53
sa(dp54
g2
S'30623'
p55
sg4
S'2519'
p56
sg6
S'c053915e38aa9f35ab188f266fa74b8a'
p57
sg8
S'xx4c2a6ed8b6b594e3e374cf13f58ad277'
p58
sg10
S'xx8aa5639ec66a4ca2995a97656ab287df'
p59
sg12
S'xx307e60c3a4936501b771f663b0b24d53'
p60
sg14
S'Mozilla/5.0 (Linux; Android 4.3; R2017 Build/JLS36C) AppleWebKit/537.36 (KHTML, like Gecko) Version/4.0 Chrome/37.0.0.0 Mobile MQQBrowser/6.8 TBS/036849 Safari/537.36 MicroMessenger/6.3.27.880 NetType/WIFI Language/zh_CN'
p61
sg16
S'4164399e3e69e06bdb4c94927ce41a8b'
p62
sa(dp63
g2
S'30623'
p64
sg4
S'2544'
p65
sg6
S'c053915e38aa9f35ab188f266fa74b8a'
p66
sg8
S'xx4c2a6ed8b6b594e3e374cf13f58ad277'
p67
sg10
S'xx8aa5639ec66a4ca2995a97656ab287df'
p68
sg12
S'xx307e60c3a4936501b771f663b0b24d53'
p69
sg14
S'Mozilla/5.0 (Linux; Android 4.3; R2017 Build/JLS36C) AppleWebKit/537.36 (KHTML, like Gecko) Version/4.0 Chrome/37.0.0.0 Mobile MQQBrowser/6.8 TBS/036849 Safari/537.36 MicroMessenger/6.3.27.880 NetType/WIFI Language/zh_CN'
p70
sg16
S'4164399e3e69e06bdb4c94927ce41a8b'
p71
sa(dp72
g2
S'30623'
p73
sg4
S'3079'
p74
sg6
S'c053915e38aa9f35ab188f266fa74b8a'
p75
sg8
S'xx4c2a6ed8b6b594e3e374cf13f58ad277'
p76
sg10
S'xx8aa5639ec66a4ca2995a97656ab287df'
p77
sg12
S'xx307e60c3a4936501b771f663b0b24d53'
p78
sg14
S'Mozilla/5.0 (Linux; Android 4.3; R2017 Build/JLS36C) AppleWebKit/537.36 (KHTML, like Gecko) Version/4.0 Chrome/37.0.0.0 Mobile MQQBrowser/6.8 TBS/036849 Safari/537.36 MicroMessenger/6.3.27.880 NetType/WIFI Language/zh_CN'
p79
sg16
S'4164399e3e69e06bdb4c94927ce41a8b'
p80
sa(dp81
g2
S'47376'
p82
sg4
S'3189'
p83
sg6
S'1c8cb4e5c3acfa7834c09f8a7622eb2a'
p84
sg8
S'xxdfe04dcd203c057609fbf3cb70d1b92d'
p85
sg10
S'xxf56cd5f1d0f3109e4206944447fd078e'
p86
sg12
S'xx307e60c3a4936501b771f663b0b24d53'
p87
sg14
S'Mozilla/5.0 (Linux; Android 4.3; R2017 Build/JLS36C) AppleWebKit/537.36 (KHTML, like Gecko) Version/4.0 Chrome/37.0.0.0 Mobile MQQBrowser/6.8 TBS/036849 Safari/537.36 MicroMessenger/6.3.25.861 NetType/WIFI Language/zh_CN'
p88
sg16
S'2e7018c6ab97f13ddcf306538a8a0a49'
p89
sa(dp90
g2
S'47376'
p91
sg4
S'3204'
p92
sg6
S'1c8cb4e5c3acfa7834c09f8a7622eb2a'
p93
sg8
S'xxdfe04dcd203c057609fbf3cb70d1b92d'
p94
sg10
S'xxf56cd5f1d0f3109e4206944447fd078e'
p95
sg12
S'xx307e60c3a4936501b771f663b0b24d53'
p96
sg14
S'Mozilla/5.0 (Linux; Android 4.3; R2017 Build/JLS36C) AppleWebKit/537.36 (KHTML, like Gecko) Version/4.0 Chrome/37.0.0.0 Mobile MQQBrowser/6.8 TBS/036849 Safari/537.36 MicroMessenger/6.3.25.861 NetType/WIFI Language/zh_CN'
p97
sg16
S'2e7018c6ab97f13ddcf306538a8a0a49'
p98
sa(dp99
g2
S'47376'
p100
sg4
S'3218'
p101
sg6
S'1c8cb4e5c3acfa7834c09f8a7622eb2a'
p102
sg8
S'xxdfe04dcd203c057609fbf3cb70d1b92d'
p103
sg10
S'xxf56cd5f1d0f3109e4206944447fd078e'
p104
sg12
S'xx307e60c3a4936501b771f663b0b24d53'
p105
sg14
S'Mozilla/5.0 (Linux; Android 4.3; R2017 Build/JLS36C) AppleWebKit/537.36 (KHTML, like Gecko) Version/4.0 Chrome/37.0.0.0 Mobile MQQBrowser/6.8 TBS/036849 Safari/537.36 MicroMessenger/6.3.25.861 NetType/WIFI Language/zh_CN'
p106
sg16
S'2e7018c6ab97f13ddcf306538a8a0a49'
p107
sa(dp108
g2
S'30623'
p109
sg4
S'4619'
p110
sg6
S'f10d2ef9ccb34ad22ce47b1f6ad4358e'
p111
sg8
S'xx4c2a6ed8b6b594e3e374cf13f58ad277'
p112
sg10
S'xx8aa5639ec66a4ca2995a97656ab287df'
p113
sg12
S'xx307e60c3a4936501b771f663b0b24d53'
p114
sg14
S'Mozilla/5.0 (Linux; Android 4.3; R2017 Build/JLS36C) AppleWebKit/537.36 (KHTML, like Gecko) Version/4.0 Chrome/37.0.0.0 Mobile MQQBrowser/6.8 TBS/036849 Safari/537.36 MicroMessenger/6.3.27.880 NetType/WIFI Language/zh_CN'
p115
sg16
S'4164399e3e69e06bdb4c94927ce41a8b'
p116
sa(dp117
g2
S'30623'
p118
sg4
S'4634'
p119
sg6
S'f10d2ef9ccb34ad22ce47b1f6ad4358e'
p120
sg8
S'xx4c2a6ed8b6b594e3e374cf13f58ad277'
p121
sg10
S'xx8aa5639ec66a4ca2995a97656ab287df'
p122
sg12
S'xx307e60c3a4936501b771f663b0b24d53'
p123
sg14
S'Mozilla/5.0 (Linux; Android 4.3; R2017 Build/JLS36C) AppleWebKit/537.36 (KHTML, like Gecko) Version/4.0 Chrome/37.0.0.0 Mobile MQQBrowser/6.8 TBS/036849 Safari/537.36 MicroMessenger/6.3.27.880 NetType/WIFI Language/zh_CN'
p124
sg16
S'4164399e3e69e06bdb4c94927ce41a8b'
p125
sa(dp126
g2
S'30623'
p127
sg4
S'4651'
p128
sg6
S'f10d2ef9ccb34ad22ce47b1f6ad4358e'
p129
sg8
S'xx4c2a6ed8b6b594e3e374cf13f58ad277'
p130
sg10
S'xx8aa5639ec66a4ca2995a97656ab287df'
p131
sg12
S'xx307e60c3a4936501b771f663b0b24d53'
p132
sg14
S'Mozilla/5.0 (Linux; Android 4.3; R2017 Build/JLS36C) AppleWebKit/537.36 (KHTML, like Gecko) Version/4.0 Chrome/37.0.0.0 Mobile MQQBrowser/6.8 TBS/036849 Safari/537.36 MicroMessenger/6.3.27.880 NetType/WIFI Language/zh_CN'
p133
sg16
S'4164399e3e69e06bdb4c94927ce41a8b'
p134
sa(dp135
g2
S'44615'
p136
sg4
S'4692'
p137
sg6
S'0c98747e7695d50b7c75f5534d6f74fd'
p138
sg8
S'xx36b3c5632521d7ff259761b8dc1a0451'
p139
sg10
S'xx8aa5639ec66a4ca2995a97656ab287df'
p140
sg12
S'xx307e60c3a4936501b771f663b0b24d53'
p141
sg14
S'Mozilla/5.0 (Linux; Android 4.3; R2017 Build/JLS36C) AppleWebKit/537.36 (KHTML, like Gecko) Version/4.0 Chrome/37.0.0.0 Mobile MQQBrowser/6.8 TBS/036866 Safari/537.36 MicroMessenger/6.3.27.880 NetType/cmnet Language/zh_CN'
p142
sg16
S'6940ec98fd5ef556363b8d78e7fad3d6'
p143
sa(dp144
g2
S'44615'
p145
sg4
S'4708'
p146
sg6
S'0c98747e7695d50b7c75f5534d6f74fd'
p147
sg8
S'xx36b3c5632521d7ff259761b8dc1a0451'
p148
sg10
S'xx8aa5639ec66a4ca2995a97656ab287df'
p149
sg12
S'xx307e60c3a4936501b771f663b0b24d53'
p150
sg14
S'Mozilla/5.0 (Linux; Android 4.3; R2017 Build/JLS36C) AppleWebKit/537.36 (KHTML, like Gecko) Version/4.0 Chrome/37.0.0.0 Mobile MQQBrowser/6.8 TBS/036866 Safari/537.36 MicroMessenger/6.3.27.880 NetType/cmnet Language/zh_CN'
p151
sg16
S'6940ec98fd5ef556363b8d78e7fad3d6'
p152
sa(dp153
g2
S'44615'
p154
sg4
S'4727'
p155
sg6
S'0c98747e7695d50b7c75f5534d6f74fd'
p156
sg8
S'xx36b3c5632521d7ff259761b8dc1a0451'
p157
sg10
S'xx8aa5639ec66a4ca2995a97656ab287df'
p158
sg12
S'xx307e60c3a4936501b771f663b0b24d53'
p159
sg14
S'Mozilla/5.0 (Linux; Android 4.3; R2017 Build/JLS36C) AppleWebKit/537.36 (KHTML, like Gecko) Version/4.0 Chrome/37.0.0.0 Mobile MQQBrowser/6.8 TBS/036866 Safari/537.36 MicroMessenger/6.3.27.880 NetType/cmnet Language/zh_CN'
p160
sg16
S'6940ec98fd5ef556363b8d78e7fad3d6'
p161
sa(dp162
g2
S'44615'
p163
sg4
S'4746'
p164
sg6
S'0c98747e7695d50b7c75f5534d6f74fd'
p165
sg8
S'xx36b3c5632521d7ff259761b8dc1a0451'
p166
sg10
S'xx8aa5639ec66a4ca2995a97656ab287df'
p167
sg12
S'xx307e60c3a4936501b771f663b0b24d53'
p168
sg14
S'Mozilla/5.0 (Linux; Android 4.3; R2017 Build/JLS36C) AppleWebKit/537.36 (KHTML, like Gecko) Version/4.0 Chrome/37.0.0.0 Mobile MQQBrowser/6.8 TBS/036866 Safari/537.36 MicroMessenger/6.3.27.880 NetType/cmnet Language/zh_CN'
p169
sg16
S'6940ec98fd5ef556363b8d78e7fad3d6'
p170
sa(dp171
g2
S'30623'
p172
sg4
S'5492'
p173
sg6
S'f10d2ef9ccb34ad22ce47b1f6ad4358e'
p174
sg8
S'xx4c2a6ed8b6b594e3e374cf13f58ad277'
p175
sg10
S'xx8aa5639ec66a4ca2995a97656ab287df'
p176
sg12
S'xx307e60c3a4936501b771f663b0b24d53'
p177
sg14
S'Mozilla/5.0 (Linux; Android 4.3; R2017 Build/JLS36C) AppleWebKit/537.36 (KHTML, like Gecko) Version/4.0 Chrome/37.0.0.0 Mobile MQQBrowser/6.8 TBS/036849 Safari/537.36 MicroMessenger/6.3.27.880 NetType/WIFI Language/zh_CN'
p178
sg16
S'4164399e3e69e06bdb4c94927ce41a8b'
p179
sa(dp180
g2
S'30623'
p181
sg4
S'5508'
p182
sg6
S'f10d2ef9ccb34ad22ce47b1f6ad4358e'
p183
sg8
S'xx4c2a6ed8b6b594e3e374cf13f58ad277'
p184
sg10
S'xx8aa5639ec66a4ca2995a97656ab287df'
p185
sg12
S'xx307e60c3a4936501b771f663b0b24d53'
p186
sg14
S'Mozilla/5.0 (Linux; Android 4.3; R2017 Build/JLS36C) AppleWebKit/537.36 (KHTML, like Gecko) Version/4.0 Chrome/37.0.0.0 Mobile MQQBrowser/6.8 TBS/036849 Safari/537.36 MicroMessenger/6.3.27.880 NetType/WIFI Language/zh_CN'
p187
sg16
S'4164399e3e69e06bdb4c94927ce41a8b'
p188
sa(dp189
g2
S'30623'
p190
sg4
S'5525'
p191
sg6
S'f10d2ef9ccb34ad22ce47b1f6ad4358e'
p192
sg8
S'xx4c2a6ed8b6b594e3e374cf13f58ad277'
p193
sg10
S'xx8aa5639ec66a4ca2995a97656ab287df'
p194
sg12
S'xx307e60c3a4936501b771f663b0b24d53'
p195
sg14
S'Mozilla/5.0 (Linux; Android 4.3; R2017 Build/JLS36C) AppleWebKit/537.36 (KHTML, like Gecko) Version/4.0 Chrome/37.0.0.0 Mobile MQQBrowser/6.8 TBS/036849 Safari/537.36 MicroMessenger/6.3.27.880 NetType/WIFI Language/zh_CN'
p196
sg16
S'4164399e3e69e06bdb4c94927ce41a8b'
p197
sa(dp198
g2
S'44030'
p199
sg4
S'6226'
p200
sg6
S'f68b84c369cd31b3c5ccd9b154fbe8e4'
p201
sg8
S'xxa7c1b98157e3f462afb7e47c07c94d48'
p202
sg10
S'xxf56cd5f1d0f3109e4206944447fd078e'
p203
sg12
S'xx307e60c3a4936501b771f663b0b24d53'
p204
sg14
S'Mozilla/5.0 (Linux; Android 4.3; R2017 Build/JLS36C) AppleWebKit/537.36 (KHTML, like Gecko) Version/4.0 Chrome/37.0.0.0 Mobile MQQBrowser/6.8 TBS/036824 Safari/537.36 MicroMessenger/6.3.27.880 NetType/WIFI Language/zh_CN'
p205
sg16
S'85a82f3968e0720089c271da7124575c'
p206
sa(dp207
g2
S'44030'
p208
sg4
S'6240'
p209
sg6
S'f68b84c369cd31b3c5ccd9b154fbe8e4'
p210
sg8
S'xxa7c1b98157e3f462afb7e47c07c94d48'
p211
sg10
S'xxf56cd5f1d0f3109e4206944447fd078e'
p212
sg12
S'xx307e60c3a4936501b771f663b0b24d53'
p213
sg14
S'Mozilla/5.0 (Linux; Android 4.3; R2017 Build/JLS36C) AppleWebKit/537.36 (KHTML, like Gecko) Version/4.0 Chrome/37.0.0.0 Mobile MQQBrowser/6.8 TBS/036824 Safari/537.36 MicroMessenger/6.3.27.880 NetType/WIFI Language/zh_CN'
p214
sg16
S'85a82f3968e0720089c271da7124575c'
p215
sa(dp216
g2
S'44030'
p217
sg4
S'6274'
p218
sg6
S'f68b84c369cd31b3c5ccd9b154fbe8e4'
p219
sg8
S'xxa7c1b98157e3f462afb7e47c07c94d48'
p220
sg10
S'xxf56cd5f1d0f3109e4206944447fd078e'
p221
sg12
S'xx307e60c3a4936501b771f663b0b24d53'
p222
sg14
S'Mozilla/5.0 (Linux; Android 4.3; R2017 Build/JLS36C) AppleWebKit/537.36 (KHTML, like Gecko) Version/4.0 Chrome/37.0.0.0 Mobile MQQBrowser/6.8 TBS/036824 Safari/537.36 MicroMessenger/6.3.27.880 NetType/WIFI Language/zh_CN'
p223
sg16
S'85a82f3968e0720089c271da7124575c'
p224
sa(dp225
g2
S'44030'
p226
sg4
S'6285'
p227
sg6
S'f68b84c369cd31b3c5ccd9b154fbe8e4'
p228
sg8
S'xxa7c1b98157e3f462afb7e47c07c94d48'
p229
sg10
S'xxf56cd5f1d0f3109e4206944447fd078e'
p230
sg12
S'xx307e60c3a4936501b771f663b0b24d53'
p231
sg14
S'Mozilla/5.0 (Linux; Android 4.3; R2017 Build/JLS36C) AppleWebKit/537.36 (KHTML, like Gecko) Version/4.0 Chrome/37.0.0.0 Mobile MQQBrowser/6.8 TBS/036824 Safari/537.36 MicroMessenger/6.3.27.880 NetType/WIFI Language/zh_CN'
p232
sg16
S'85a82f3968e0720089c271da7124575c'
p233
sa(dp234
g2
S'44030'
p235
sg4
S'6297'
p236
sg6
S'f68b84c369cd31b3c5ccd9b154fbe8e4'
p237
sg8
S'xxa7c1b98157e3f462afb7e47c07c94d48'
p238
sg10
S'xxf56cd5f1d0f3109e4206944447fd078e'
p239
sg12
S'xx307e60c3a4936501b771f663b0b24d53'
p240
sg14
S'Mozilla/5.0 (Linux; Android 4.3; R2017 Build/JLS36C) AppleWebKit/537.36 (KHTML, like Gecko) Version/4.0 Chrome/37.0.0.0 Mobile MQQBrowser/6.8 TBS/036824 Safari/537.36 MicroMessenger/6.3.27.880 NetType/WIFI Language/zh_CN'
p241
sg16
S'85a82f3968e0720089c271da7124575c'
p242
sa(dp243
g2
S'44030'
p244
sg4
S'6310'
p245
sg6
S'f68b84c369cd31b3c5ccd9b154fbe8e4'
p246
sg8
S'xxa7c1b98157e3f462afb7e47c07c94d48'
p247
sg10
S'xxf56cd5f1d0f3109e4206944447fd078e'
p248
sg12
S'xx307e60c3a4936501b771f663b0b24d53'
p249
sg14
S'Mozilla/5.0 (Linux; Android 4.3; R2017 Build/JLS36C) AppleWebKit/537.36 (KHTML, like Gecko) Version/4.0 Chrome/37.0.0.0 Mobile MQQBrowser/6.8 TBS/036824 Safari/537.36 MicroMessenger/6.3.27.880 NetType/WIFI Language/zh_CN'
p250
sg16
S'85a82f3968e0720089c271da7124575c'
p251
sa(dp252
g2
S'44030'
p253
sg4
S'6326'
p254
sg6
S'f68b84c369cd31b3c5ccd9b154fbe8e4'
p255
sg8
S'xxa7c1b98157e3f462afb7e47c07c94d48'
p256
sg10
S'xxf56cd5f1d0f3109e4206944447fd078e'
p257
sg12
S'xx307e60c3a4936501b771f663b0b24d53'
p258
sg14
S'Mozilla/5.0 (Linux; Android 4.3; R2017 Build/JLS36C) AppleWebKit/537.36 (KHTML, like Gecko) Version/4.0 Chrome/37.0.0.0 Mobile MQQBrowser/6.8 TBS/036824 Safari/537.36 MicroMessenger/6.3.27.880 NetType/WIFI Language/zh_CN'
p259
sg16
S'85a82f3968e0720089c271da7124575c'
p260
sa(dp261
g2
S'44030'
p262
sg4
S'6343'
p263
sg6
S'f68b84c369cd31b3c5ccd9b154fbe8e4'
p264
sg8
S'xxa7c1b98157e3f462afb7e47c07c94d48'
p265
sg10
S'xxf56cd5f1d0f3109e4206944447fd078e'
p266
sg12
S'xx307e60c3a4936501b771f663b0b24d53'
p267
sg14
S'Mozilla/5.0 (Linux; Android 4.3; R2017 Build/JLS36C) AppleWebKit/537.36 (KHTML, like Gecko) Version/4.0 Chrome/37.0.0.0 Mobile MQQBrowser/6.8 TBS/036824 Safari/537.36 MicroMessenger/6.3.27.880 NetType/WIFI Language/zh_CN'
p268
sg16
S'85a82f3968e0720089c271da7124575c'
p269
sa(dp270
g2
S'32485'
p271
sg4
S'6354'
p272
sg6
S'd66158796d5c9dab1579e3eddfe99576'
p273
sg8
S'xx524e4435bc3a8a1b8fd55c889473cf65'
p274
sg10
S'xx5f9d5f4f337f58c08e0090c7b817f07a'
p275
sg12
S'xx307e60c3a4936501b771f663b0b24d53'
p276
sg14
S'Mozilla/5.0 (Linux; Android 4.3; R2017 Build/JLS36C) AppleWebKit/537.36 (KHTML, like Gecko) Version/4.0 Chrome/37.0.0.0 Mobile MQQBrowser/6.8 TBS/036849 Safari/537.36 MicroMessenger/6.3.27.880 NetType/cmnet Language/zh_CN'
p277
sg16
S'd8f0746abb0567f842215c0c5fe53704'
p278
sa(dp279
g2
S'44030'
p280
sg4
S'6366'
p281
sg6
S'f68b84c369cd31b3c5ccd9b154fbe8e4'
p282
sg8
S'xxa7c1b98157e3f462afb7e47c07c94d48'
p283
sg10
S'xxf56cd5f1d0f3109e4206944447fd078e'
p284
sg12
S'xx307e60c3a4936501b771f663b0b24d53'
p285
sg14
S'Mozilla/5.0 (Linux; Android 4.3; R2017 Build/JLS36C) AppleWebKit/537.36 (KHTML, like Gecko) Version/4.0 Chrome/37.0.0.0 Mobile MQQBrowser/6.8 TBS/036824 Safari/537.36 MicroMessenger/6.3.27.880 NetType/WIFI Language/zh_CN'
p286
sg16
S'85a82f3968e0720089c271da7124575c'
p287
sa(dp288
g2
S'32485'
p289
sg4
S'6369'
p290
sg6
S'd66158796d5c9dab1579e3eddfe99576'
p291
sg8
S'xx524e4435bc3a8a1b8fd55c889473cf65'
p292
sg10
S'xx5f9d5f4f337f58c08e0090c7b817f07a'
p293
sg12
S'xx307e60c3a4936501b771f663b0b24d53'
p294
sg14
S'Mozilla/5.0 (Linux; Android 4.3; R2017 Build/JLS36C) AppleWebKit/537.36 (KHTML, like Gecko) Version/4.0 Chrome/37.0.0.0 Mobile MQQBrowser/6.8 TBS/036849 Safari/537.36 MicroMessenger/6.3.27.880 NetType/cmnet Language/zh_CN'
p295
sg16
S'd8f0746abb0567f842215c0c5fe53704'
p296
sa(dp297
g2
S'44030'
p298
sg4
S'6549'
p299
sg6
S'f68b84c369cd31b3c5ccd9b154fbe8e4'
p300
sg8
S'xxa7c1b98157e3f462afb7e47c07c94d48'
p301
sg10
S'xxf56cd5f1d0f3109e4206944447fd078e'
p302
sg12
S'xx307e60c3a4936501b771f663b0b24d53'
p303
sg14
S'Mozilla/5.0 (Linux; Android 4.3; R2017 Build/JLS36C) AppleWebKit/537.36 (KHTML, like Gecko) Version/4.0 Chrome/37.0.0.0 Mobile MQQBrowser/6.8 TBS/036824 Safari/537.36 MicroMessenger/6.3.27.880 NetType/WIFI Language/zh_CN'
p304
sg16
S'85a82f3968e0720089c271da7124575c'
p305
sa(dp306
g2
S'44030'
p307
sg4
S'6783'
p308
sg6
S'f68b84c369cd31b3c5ccd9b154fbe8e4'
p309
sg8
S'xxa7c1b98157e3f462afb7e47c07c94d48'
p310
sg10
S'xxf56cd5f1d0f3109e4206944447fd078e'
p311
sg12
S'xx307e60c3a4936501b771f663b0b24d53'
p312
sg14
S'Mozilla/5.0 (Linux; Android 4.3; R2017 Build/JLS36C) AppleWebKit/537.36 (KHTML, like Gecko) Version/4.0 Chrome/37.0.0.0 Mobile MQQBrowser/6.8 TBS/036824 Safari/537.36 MicroMessenger/6.3.27.880 NetType/WIFI Language/zh_CN'
p313
sg16
S'85a82f3968e0720089c271da7124575c'
p314
sa(dp315
g2
S'44030'
p316
sg4
S'6799'
p317
sg6
S'f68b84c369cd31b3c5ccd9b154fbe8e4'
p318
sg8
S'xxa7c1b98157e3f462afb7e47c07c94d48'
p319
sg10
S'xxf56cd5f1d0f3109e4206944447fd078e'
p320
sg12
S'xx307e60c3a4936501b771f663b0b24d53'
p321
sg14
S'Mozilla/5.0 (Linux; Android 4.3; R2017 Build/JLS36C) AppleWebKit/537.36 (KHTML, like Gecko) Version/4.0 Chrome/37.0.0.0 Mobile MQQBrowser/6.8 TBS/036824 Safari/537.36 MicroMessenger/6.3.27.880 NetType/WIFI Language/zh_CN'
p322
sg16
S'85a82f3968e0720089c271da7124575c'
p323
sa(dp324
g2
S'44030'
p325
sg4
S'6810'
p326
sg6
S'f68b84c369cd31b3c5ccd9b154fbe8e4'
p327
sg8
S'xxa7c1b98157e3f462afb7e47c07c94d48'
p328
sg10
S'xxf56cd5f1d0f3109e4206944447fd078e'
p329
sg12
S'xx307e60c3a4936501b771f663b0b24d53'
p330
sg14
S'Mozilla/5.0 (Linux; Android 4.3; R2017 Build/JLS36C) AppleWebKit/537.36 (KHTML, like Gecko) Version/4.0 Chrome/37.0.0.0 Mobile MQQBrowser/6.8 TBS/036824 Safari/537.36 MicroMessenger/6.3.27.880 NetType/WIFI Language/zh_CN'
p331
sg16
S'85a82f3968e0720089c271da7124575c'
p332
sa(dp333
g2
S'44030'
p334
sg4
S'6822'
p335
sg6
S'f68b84c369cd31b3c5ccd9b154fbe8e4'
p336
sg8
S'xxa7c1b98157e3f462afb7e47c07c94d48'
p337
sg10
S'xxf56cd5f1d0f3109e4206944447fd078e'
p338
sg12
S'xx307e60c3a4936501b771f663b0b24d53'
p339
sg14
S'Mozilla/5.0 (Linux; Android 4.3; R2017 Build/JLS36C) AppleWebKit/537.36 (KHTML, like Gecko) Version/4.0 Chrome/37.0.0.0 Mobile MQQBrowser/6.8 TBS/036824 Safari/537.36 MicroMessenger/6.3.27.880 NetType/WIFI Language/zh_CN'
p340
sg16
S'85a82f3968e0720089c271da7124575c'
p341
sa(dp342
g2
S'44030'
p343
sg4
S'6835'
p344
sg6
S'f68b84c369cd31b3c5ccd9b154fbe8e4'
p345
sg8
S'xxa7c1b98157e3f462afb7e47c07c94d48'
p346
sg10
S'xxf56cd5f1d0f3109e4206944447fd078e'
p347
sg12
S'xx307e60c3a4936501b771f663b0b24d53'
p348
sg14
S'Mozilla/5.0 (Linux; Android 4.3; R2017 Build/JLS36C) AppleWebKit/537.36 (KHTML, like Gecko) Version/4.0 Chrome/37.0.0.0 Mobile MQQBrowser/6.8 TBS/036824 Safari/537.36 MicroMessenger/6.3.27.880 NetType/WIFI Language/zh_CN'
p349
sg16
S'85a82f3968e0720089c271da7124575c'
p350
sa(dp351
g2
S'44030'
p352
sg4
S'6845'
p353
sg6
S'f68b84c369cd31b3c5ccd9b154fbe8e4'
p354
sg8
S'xxa7c1b98157e3f462afb7e47c07c94d48'
p355
sg10
S'xxf56cd5f1d0f3109e4206944447fd078e'
p356
sg12
S'xx307e60c3a4936501b771f663b0b24d53'
p357
sg14
S'Mozilla/5.0 (Linux; Android 4.3; R2017 Build/JLS36C) AppleWebKit/537.36 (KHTML, like Gecko) Version/4.0 Chrome/37.0.0.0 Mobile MQQBrowser/6.8 TBS/036824 Safari/537.36 MicroMessenger/6.3.27.880 NetType/WIFI Language/zh_CN'
p358
sg16
S'85a82f3968e0720089c271da7124575c'
p359
sa(dp360
g2
S'30623'
p361
sg4
S'6850'
p362
sg6
S'f10d2ef9ccb34ad22ce47b1f6ad4358e'
p363
sg8
S'xx4c2a6ed8b6b594e3e374cf13f58ad277'
p364
sg10
S'xx8aa5639ec66a4ca2995a97656ab287df'
p365
sg12
S'xx307e60c3a4936501b771f663b0b24d53'
p366
sg14
S'Mozilla/5.0 (Linux; Android 4.3; R2017 Build/JLS36C) AppleWebKit/537.36 (KHTML, like Gecko) Version/4.0 Chrome/37.0.0.0 Mobile MQQBrowser/6.8 TBS/036849 Safari/537.36 MicroMessenger/6.3.27.880 NetType/WIFI Language/zh_CN'
p367
sg16
S'4164399e3e69e06bdb4c94927ce41a8b'
p368
sa(dp369
g2
S'44030'
p370
sg4
S'6859'
p371
sg6
S'f68b84c369cd31b3c5ccd9b154fbe8e4'
p372
sg8
S'xxa7c1b98157e3f462afb7e47c07c94d48'
p373
sg10
S'xxf56cd5f1d0f3109e4206944447fd078e'
p374
sg12
S'xx307e60c3a4936501b771f663b0b24d53'
p375
sg14
S'Mozilla/5.0 (Linux; Android 4.3; R2017 Build/JLS36C) AppleWebKit/537.36 (KHTML, like Gecko) Version/4.0 Chrome/37.0.0.0 Mobile MQQBrowser/6.8 TBS/036824 Safari/537.36 MicroMessenger/6.3.27.880 NetType/WIFI Language/zh_CN'
p376
sg16
S'85a82f3968e0720089c271da7124575c'
p377
sa(dp378
g2
S'30623'
p379
sg4
S'6865'
p380
sg6
S'f10d2ef9ccb34ad22ce47b1f6ad4358e'
p381
sg8
S'xx4c2a6ed8b6b594e3e374cf13f58ad277'
p382
sg10
S'xx8aa5639ec66a4ca2995a97656ab287df'
p383
sg12
S'xx307e60c3a4936501b771f663b0b24d53'
p384
sg14
S'Mozilla/5.0 (Linux; Android 4.3; R2017 Build/JLS36C) AppleWebKit/537.36 (KHTML, like Gecko) Version/4.0 Chrome/37.0.0.0 Mobile MQQBrowser/6.8 TBS/036849 Safari/537.36 MicroMessenger/6.3.27.880 NetType/WIFI Language/zh_CN'
p385
sg16
S'4164399e3e69e06bdb4c94927ce41a8b'
p386
sa(dp387
g2
S'30623'
p388
sg4
S'6882'
p389
sg6
S'f10d2ef9ccb34ad22ce47b1f6ad4358e'
p390
sg8
S'xx4c2a6ed8b6b594e3e374cf13f58ad277'
p391
sg10
S'xx8aa5639ec66a4ca2995a97656ab287df'
p392
sg12
S'xx307e60c3a4936501b771f663b0b24d53'
p393
sg14
S'Mozilla/5.0 (Linux; Android 4.3; R2017 Build/JLS36C) AppleWebKit/537.36 (KHTML, like Gecko) Version/4.0 Chrome/37.0.0.0 Mobile MQQBrowser/6.8 TBS/036849 Safari/537.36 MicroMessenger/6.3.27.880 NetType/WIFI Language/zh_CN'
p394
sg16
S'4164399e3e69e06bdb4c94927ce41a8b'
p395
sa(dp396
g2
S'30623'
p397
sg4
S'6897'
p398
sg6
S'f10d2ef9ccb34ad22ce47b1f6ad4358e'
p399
sg8
S'xx4c2a6ed8b6b594e3e374cf13f58ad277'
p400
sg10
S'xx8aa5639ec66a4ca2995a97656ab287df'
p401
sg12
S'xx307e60c3a4936501b771f663b0b24d53'
p402
sg14
S'Mozilla/5.0 (Linux; Android 4.3; R2017 Build/JLS36C) AppleWebKit/537.36 (KHTML, like Gecko) Version/4.0 Chrome/37.0.0.0 Mobile MQQBrowser/6.8 TBS/036849 Safari/537.36 MicroMessenger/6.3.27.880 NetType/WIFI Language/zh_CN'
p403
sg16
S'4164399e3e69e06bdb4c94927ce41a8b'
p404
sa(dp405
g2
S'44030'
p406
sg4
S'6945'
p407
sg6
S'f68b84c369cd31b3c5ccd9b154fbe8e4'
p408
sg8
S'xxa7c1b98157e3f462afb7e47c07c94d48'
p409
sg10
S'xxf56cd5f1d0f3109e4206944447fd078e'
p410
sg12
S'xx307e60c3a4936501b771f663b0b24d53'
p411
sg14
S'Mozilla/5.0 (Linux; Android 4.3; R2017 Build/JLS36C) AppleWebKit/537.36 (KHTML, like Gecko) Version/4.0 Chrome/37.0.0.0 Mobile MQQBrowser/6.8 TBS/036824 Safari/537.36 MicroMessenger/6.3.27.880 NetType/WIFI Language/zh_CN'
p412
sg16
S'85a82f3968e0720089c271da7124575c'
p413
sa(dp414
g2
S'44030'
p415
sg4
S'6956'
p416
sg6
S'f68b84c369cd31b3c5ccd9b154fbe8e4'
p417
sg8
S'xxa7c1b98157e3f462afb7e47c07c94d48'
p418
sg10
S'xxf56cd5f1d0f3109e4206944447fd078e'
p419
sg12
S'xx307e60c3a4936501b771f663b0b24d53'
p420
sg14
S'Mozilla/5.0 (Linux; Android 4.3; R2017 Build/JLS36C) AppleWebKit/537.36 (KHTML, like Gecko) Version/4.0 Chrome/37.0.0.0 Mobile MQQBrowser/6.8 TBS/036824 Safari/537.36 MicroMessenger/6.3.27.880 NetType/WIFI Language/zh_CN'
p421
sg16
S'85a82f3968e0720089c271da7124575c'
p422
sa(dp423
g2
S'30623'
p424
sg4
S'7524'
p425
sg6
S'f10d2ef9ccb34ad22ce47b1f6ad4358e'
p426
sg8
S'xx4c2a6ed8b6b594e3e374cf13f58ad277'
p427
sg10
S'xx8aa5639ec66a4ca2995a97656ab287df'
p428
sg12
S'xx307e60c3a4936501b771f663b0b24d53'
p429
sg14
S'Mozilla/5.0 (Linux; Android 4.3; R2017 Build/JLS36C) AppleWebKit/537.36 (KHTML, like Gecko) Version/4.0 Chrome/37.0.0.0 Mobile MQQBrowser/6.8 TBS/036849 Safari/537.36 MicroMessenger/6.3.27.880 NetType/WIFI Language/zh_CN'
p430
sg16
S'4164399e3e69e06bdb4c94927ce41a8b'
p431
sa(dp432
g2
S'30623'
p433
sg4
S'7539'
p434
sg6
S'f10d2ef9ccb34ad22ce47b1f6ad4358e'
p435
sg8
S'xx4c2a6ed8b6b594e3e374cf13f58ad277'
p436
sg10
S'xx8aa5639ec66a4ca2995a97656ab287df'
p437
sg12
S'xx307e60c3a4936501b771f663b0b24d53'
p438
sg14
S'Mozilla/5.0 (Linux; Android 4.3; R2017 Build/JLS36C) AppleWebKit/537.36 (KHTML, like Gecko) Version/4.0 Chrome/37.0.0.0 Mobile MQQBrowser/6.8 TBS/036849 Safari/537.36 MicroMessenger/6.3.27.880 NetType/WIFI Language/zh_CN'
p439
sg16
S'4164399e3e69e06bdb4c94927ce41a8b'
p440
sa(dp441
g2
S'30623'
p442
sg4
S'8042'
p443
sg6
S'f10d2ef9ccb34ad22ce47b1f6ad4358e'
p444
sg8
S'xx4c2a6ed8b6b594e3e374cf13f58ad277'
p445
sg10
S'xx8aa5639ec66a4ca2995a97656ab287df'
p446
sg12
S'xx307e60c3a4936501b771f663b0b24d53'
p447
sg14
S'Mozilla/5.0 (Linux; Android 4.3; R2017 Build/JLS36C) AppleWebKit/537.36 (KHTML, like Gecko) Version/4.0 Chrome/37.0.0.0 Mobile MQQBrowser/6.8 TBS/036849 Safari/537.36 MicroMessenger/6.3.27.880 NetType/WIFI Language/zh_CN'
p448
sg16
S'4164399e3e69e06bdb4c94927ce41a8b'
p449
sa(dp450
g2
S'30623'
p451
sg4
S'8055'
p452
sg6
S'f10d2ef9ccb34ad22ce47b1f6ad4358e'
p453
sg8
S'xx4c2a6ed8b6b594e3e374cf13f58ad277'
p454
sg10
S'xx8aa5639ec66a4ca2995a97656ab287df'
p455
sg12
S'xx307e60c3a4936501b771f663b0b24d53'
p456
sg14
S'Mozilla/5.0 (Linux; Android 4.3; R2017 Build/JLS36C) AppleWebKit/537.36 (KHTML, like Gecko) Version/4.0 Chrome/37.0.0.0 Mobile MQQBrowser/6.8 TBS/036849 Safari/537.36 MicroMessenger/6.3.27.880 NetType/WIFI Language/zh_CN'
p457
sg16
S'4164399e3e69e06bdb4c94927ce41a8b'
p458
sa(dp459
g2
S'30623'
p460
sg4
S'8064'
p461
sg6
S'f10d2ef9ccb34ad22ce47b1f6ad4358e'
p462
sg8
S'xx4c2a6ed8b6b594e3e374cf13f58ad277'
p463
sg10
S'xx8aa5639ec66a4ca2995a97656ab287df'
p464
sg12
S'xx307e60c3a4936501b771f663b0b24d53'
p465
sg14
S'Mozilla/5.0 (Linux; Android 4.3; R2017 Build/JLS36C) AppleWebKit/537.36 (KHTML, like Gecko) Version/4.0 Chrome/37.0.0.0 Mobile MQQBrowser/6.8 TBS/036849 Safari/537.36 MicroMessenger/6.3.27.880 NetType/WIFI Language/zh_CN'
p466
sg16
S'4164399e3e69e06bdb4c94927ce41a8b'
p467
sa(dp468
g2
S'30623'
p469
sg4
S'8079'
p470
sg6
S'f10d2ef9ccb34ad22ce47b1f6ad4358e'
p471
sg8
S'xx4c2a6ed8b6b594e3e374cf13f58ad277'
p472
sg10
S'xx8aa5639ec66a4ca2995a97656ab287df'
p473
sg12
S'xx307e60c3a4936501b771f663b0b24d53'
p474
sg14
S'Mozilla/5.0 (Linux; Android 4.3; R2017 Build/JLS36C) AppleWebKit/537.36 (KHTML, like Gecko) Version/4.0 Chrome/37.0.0.0 Mobile MQQBrowser/6.8 TBS/036849 Safari/537.36 MicroMessenger/6.3.27.880 NetType/WIFI Language/zh_CN'
p475
sg16
S'4164399e3e69e06bdb4c94927ce41a8b'
p476
sa.