(lp0
(dp1
S'user_id'
p2
S'42697'
p3
sS'data_id'
p4
S'853'
p5
sS'ip'
p6
S'588bd03f0516069750c7a53b8a040c72'
p7
sS'phone_B'
p8
S'xx38b47ce2273fd41dfae9e484987e1ae4'
p9
sS'phone_C'
p10
S'xx345474f7f4c162365ccc980e6a4738c3'
p11
sS'phone_A'
p12
S'xx30ebaa66b2e9ec4f239d1e379fe86ca0'
p13
sS'user_agent'
p14
S'Mozilla/5.0 (Linux; Android 6.0; Le X620 Build/HEXCNFN5801708221S) AppleWebKit/537.36 (KHTML, like Gecko) Version/4.0 Chrome/37.0.0.0 Mobile MQQBrowser/6.8 TBS/036849 Safari/537.36 MicroMessenger/6.3.27.880 NetType/3gnet Language/zh_CN'
p15
sS'ua'
p16
S'71ea65fcbf92404b2e1f19818d3b09b0'
p17
sa(dp18
g2
S'42697'
p19
sg4
S'875'
p20
sg6
S'588bd03f0516069750c7a53b8a040c72'
p21
sg8
S'xx38b47ce2273fd41dfae9e484987e1ae4'
p22
sg10
S'xx345474f7f4c162365ccc980e6a4738c3'
p23
sg12
S'xx30ebaa66b2e9ec4f239d1e379fe86ca0'
p24
sg14
S'Mozilla/5.0 (Linux; Android 6.0; Le X620 Build/HEXCNFN5801708221S) AppleWebKit/537.36 (KHTML, like Gecko) Version/4.0 Chrome/37.0.0.0 Mobile MQQBrowser/6.8 TBS/036849 Safari/537.36 MicroMessenger/6.3.27.880 NetType/3gnet Language/zh_CN'
p25
sg16
S'71ea65fcbf92404b2e1f19818d3b09b0'
p26
sa(dp27
g2
S'46679'
p28
sg4
S'1471'
p29
sg6
S'ec4e871cfbc6ccc7a105c3e3b618c539'
p30
sg8
S'xxd05637c7f32894dcf84b9df2a6c50348'
p31
sg10
S'xx345474f7f4c162365ccc980e6a4738c3'
p32
sg12
S'xx30ebaa66b2e9ec4f239d1e379fe86ca0'
p33
sg14
S'Mozilla/5.0 (Linux; Android 6.0; Le X620 Build/HEXCNFN5801708221S) AppleWebKit/537.36 (KHTML, like Gecko) Version/4.0 Chrome/37.0.0.0 Mobile MQQBrowser/6.8 TBS/036824 Safari/537.36 MicroMessenger/6.3.27.880 NetType/WIFI Language/zh_CN'
p34
sg16
S'39f85401d859a1abaabb4a310c0f146b'
p35
sa(dp36
g2
S'46679'
p37
sg4
S'1479'
p38
sg6
S'ec4e871cfbc6ccc7a105c3e3b618c539'
p39
sg8
S'xxd05637c7f32894dcf84b9df2a6c50348'
p40
sg10
S'xx345474f7f4c162365ccc980e6a4738c3'
p41
sg12
S'xx30ebaa66b2e9ec4f239d1e379fe86ca0'
p42
sg14
S'Mozilla/5.0 (Linux; Android 6.0; Le X620 Build/HEXCNFN5801708221S) AppleWebKit/537.36 (KHTML, like Gecko) Version/4.0 Chrome/37.0.0.0 Mobile MQQBrowser/6.8 TBS/036824 Safari/537.36 MicroMessenger/6.3.27.880 NetType/WIFI Language/zh_CN'
p43
sg16
S'39f85401d859a1abaabb4a310c0f146b'
p44
sa(dp45
g2
S'46679'
p46
sg4
S'1492'
p47
sg6
S'ec4e871cfbc6ccc7a105c3e3b618c539'
p48
sg8
S'xxd05637c7f32894dcf84b9df2a6c50348'
p49
sg10
S'xx345474f7f4c162365ccc980e6a4738c3'
p50
sg12
S'xx30ebaa66b2e9ec4f239d1e379fe86ca0'
p51
sg14
S'Mozilla/5.0 (Linux; Android 6.0; Le X620 Build/HEXCNFN5801708221S) AppleWebKit/537.36 (KHTML, like Gecko) Version/4.0 Chrome/37.0.0.0 Mobile MQQBrowser/6.8 TBS/036824 Safari/537.36 MicroMessenger/6.3.27.880 NetType/WIFI Language/zh_CN'
p52
sg16
S'39f85401d859a1abaabb4a310c0f146b'
p53
sa(dp54
g2
S'46679'
p55
sg4
S'1499'
p56
sg6
S'ec4e871cfbc6ccc7a105c3e3b618c539'
p57
sg8
S'xxd05637c7f32894dcf84b9df2a6c50348'
p58
sg10
S'xx345474f7f4c162365ccc980e6a4738c3'
p59
sg12
S'xx30ebaa66b2e9ec4f239d1e379fe86ca0'
p60
sg14
S'Mozilla/5.0 (Linux; Android 6.0; Le X620 Build/HEXCNFN5801708221S) AppleWebKit/537.36 (KHTML, like Gecko) Version/4.0 Chrome/37.0.0.0 Mobile MQQBrowser/6.8 TBS/036824 Safari/537.36 MicroMessenger/6.3.27.880 NetType/WIFI Language/zh_CN'
p61
sg16
S'39f85401d859a1abaabb4a310c0f146b'
p62
sa(dp63
g2
S'46679'
p64
sg4
S'1512'
p65
sg6
S'ec4e871cfbc6ccc7a105c3e3b618c539'
p66
sg8
S'xxd05637c7f32894dcf84b9df2a6c50348'
p67
sg10
S'xx345474f7f4c162365ccc980e6a4738c3'
p68
sg12
S'xx30ebaa66b2e9ec4f239d1e379fe86ca0'
p69
sg14
S'Mozilla/5.0 (Linux; Android 6.0; Le X620 Build/HEXCNFN5801708221S) AppleWebKit/537.36 (KHTML, like Gecko) Version/4.0 Chrome/37.0.0.0 Mobile MQQBrowser/6.8 TBS/036824 Safari/537.36 MicroMessenger/6.3.27.880 NetType/WIFI Language/zh_CN'
p70
sg16
S'39f85401d859a1abaabb4a310c0f146b'
p71
sa(dp72
g2
S'46679'
p73
sg4
S'1516'
p74
sg6
S'ec4e871cfbc6ccc7a105c3e3b618c539'
p75
sg8
S'xxd05637c7f32894dcf84b9df2a6c50348'
p76
sg10
S'xx345474f7f4c162365ccc980e6a4738c3'
p77
sg12
S'xx30ebaa66b2e9ec4f239d1e379fe86ca0'
p78
sg14
S'Mozilla/5.0 (Linux; Android 6.0; Le X620 Build/HEXCNFN5801708221S) AppleWebKit/537.36 (KHTML, like Gecko) Version/4.0 Chrome/37.0.0.0 Mobile MQQBrowser/6.8 TBS/036824 Safari/537.36 MicroMessenger/6.3.27.880 NetType/WIFI Language/zh_CN'
p79
sg16
S'39f85401d859a1abaabb4a310c0f146b'
p80
sa(dp81
g2
S'47916'
p82
sg4
S'3579'
p83
sg6
S'675963481b37802895fdf90d70e7a814'
p84
sg8
S'xx38b47ce2273fd41dfae9e484987e1ae4'
p85
sg10
S'xx345474f7f4c162365ccc980e6a4738c3'
p86
sg12
S'xx30ebaa66b2e9ec4f239d1e379fe86ca0'
p87
sg14
S'Mozilla/5.0 (Linux; Android 6.0; Le X620 Build/HEXCNFN5801708221S) AppleWebKit/537.36 (KHTML, like Gecko) Version/4.0 Chrome/37.0.0.0 Mobile MQQBrowser/6.8 TBS/036849 Safari/537.36 MicroMessenger/6.3.27.880 NetType/3gnet Language/zh_CN'
p88
sg16
S'71ea65fcbf92404b2e1f19818d3b09b0'
p89
sa(dp90
g2
S'47916'
p91
sg4
S'3593'
p92
sg6
S'675963481b37802895fdf90d70e7a814'
p93
sg8
S'xx38b47ce2273fd41dfae9e484987e1ae4'
p94
sg10
S'xx345474f7f4c162365ccc980e6a4738c3'
p95
sg12
S'xx30ebaa66b2e9ec4f239d1e379fe86ca0'
p96
sg14
S'Mozilla/5.0 (Linux; Android 6.0; Le X620 Build/HEXCNFN5801708221S) AppleWebKit/537.36 (KHTML, like Gecko) Version/4.0 Chrome/37.0.0.0 Mobile MQQBrowser/6.8 TBS/036849 Safari/537.36 MicroMessenger/6.3.27.880 NetType/3gnet Language/zh_CN'
p97
sg16
S'71ea65fcbf92404b2e1f19818d3b09b0'
p98
sa(dp99
g2
S'47916'
p100
sg4
S'3615'
p101
sg6
S'675963481b37802895fdf90d70e7a814'
p102
sg8
S'xx38b47ce2273fd41dfae9e484987e1ae4'
p103
sg10
S'xx345474f7f4c162365ccc980e6a4738c3'
p104
sg12
S'xx30ebaa66b2e9ec4f239d1e379fe86ca0'
p105
sg14
S'Mozilla/5.0 (Linux; Android 6.0; Le X620 Build/HEXCNFN5801708221S) AppleWebKit/537.36 (KHTML, like Gecko) Version/4.0 Chrome/37.0.0.0 Mobile MQQBrowser/6.8 TBS/036849 Safari/537.36 MicroMessenger/6.3.27.880 NetType/3gnet Language/zh_CN'
p106
sg16
S'71ea65fcbf92404b2e1f19818d3b09b0'
p107
sa(dp108
g2
S'47916'
p109
sg4
S'3635'
p110
sg6
S'675963481b37802895fdf90d70e7a814'
p111
sg8
S'xx38b47ce2273fd41dfae9e484987e1ae4'
p112
sg10
S'xx345474f7f4c162365ccc980e6a4738c3'
p113
sg12
S'xx30ebaa66b2e9ec4f239d1e379fe86ca0'
p114
sg14
S'Mozilla/5.0 (Linux; Android 6.0; Le X620 Build/HEXCNFN5801708221S) AppleWebKit/537.36 (KHTML, like Gecko) Version/4.0 Chrome/37.0.0.0 Mobile MQQBrowser/6.8 TBS/036849 Safari/537.36 MicroMessenger/6.3.27.880 NetType/3gnet Language/zh_CN'
p115
sg16
S'71ea65fcbf92404b2e1f19818d3b09b0'
p116
sa(dp117
g2
S'47916'
p118
sg4
S'3651'
p119
sg6
S'675963481b37802895fdf90d70e7a814'
p120
sg8
S'xx38b47ce2273fd41dfae9e484987e1ae4'
p121
sg10
S'xx345474f7f4c162365ccc980e6a4738c3'
p122
sg12
S'xx30ebaa66b2e9ec4f239d1e379fe86ca0'
p123
sg14
S'Mozilla/5.0 (Linux; Android 6.0; Le X620 Build/HEXCNFN5801708221S) AppleWebKit/537.36 (KHTML, like Gecko) Version/4.0 Chrome/37.0.0.0 Mobile MQQBrowser/6.8 TBS/036849 Safari/537.36 MicroMessenger/6.3.27.880 NetType/3gnet Language/zh_CN'
p124
sg16
S'71ea65fcbf92404b2e1f19818d3b09b0'
p125
sa(dp126
g2
S'47916'
p127
sg4
S'3665'
p128
sg6
S'675963481b37802895fdf90d70e7a814'
p129
sg8
S'xx38b47ce2273fd41dfae9e484987e1ae4'
p130
sg10
S'xx345474f7f4c162365ccc980e6a4738c3'
p131
sg12
S'xx30ebaa66b2e9ec4f239d1e379fe86ca0'
p132
sg14
S'Mozilla/5.0 (Linux; Android 6.0; Le X620 Build/HEXCNFN5801708221S) AppleWebKit/537.36 (KHTML, like Gecko) Version/4.0 Chrome/37.0.0.0 Mobile MQQBrowser/6.8 TBS/036849 Safari/537.36 MicroMessenger/6.3.27.880 NetType/3gnet Language/zh_CN'
p133
sg16
S'71ea65fcbf92404b2e1f19818d3b09b0'
p134
sa(dp135
g2
S'49855'
p136
sg4
S'8536'
p137
sg6
S'1669fd9800bdcbc011f7e5fafe5de0bd'
p138
sg8
S'xx38b47ce2273fd41dfae9e484987e1ae4'
p139
sg10
S'xx345474f7f4c162365ccc980e6a4738c3'
p140
sg12
S'xx30ebaa66b2e9ec4f239d1e379fe86ca0'
p141
sg14
S'Mozilla/5.0 (Linux; Android 6.0; Le X620 Build/HEXCNFN5801708221S) AppleWebKit/537.36 (KHTML, like Gecko) Version/4.0 Chrome/37.0.0.0 Mobile MQQBrowser/6.8 TBS/036849 Safari/537.36 MicroMessenger/6.3.27.880 NetType/3gnet Language/zh_CN'
p142
sg16
S'71ea65fcbf92404b2e1f19818d3b09b0'
p143
sa(dp144
g2
S'49855'
p145
sg4
S'8551'
p146
sg6
S'1669fd9800bdcbc011f7e5fafe5de0bd'
p147
sg8
S'xx38b47ce2273fd41dfae9e484987e1ae4'
p148
sg10
S'xx345474f7f4c162365ccc980e6a4738c3'
p149
sg12
S'xx30ebaa66b2e9ec4f239d1e379fe86ca0'
p150
sg14
S'Mozilla/5.0 (Linux; Android 6.0; Le X620 Build/HEXCNFN5801708221S) AppleWebKit/537.36 (KHTML, like Gecko) Version/4.0 Chrome/37.0.0.0 Mobile MQQBrowser/6.8 TBS/036849 Safari/537.36 MicroMessenger/6.3.27.880 NetType/3gnet Language/zh_CN'
p151
sg16
S'71ea65fcbf92404b2e1f19818d3b09b0'
p152
sa.