(lp0
(dp1
S'user_id'
p2
S'27972'
p3
sS'data_id'
p4
S'5386'
p5
sS'ip'
p6
S'5b48c78089c6f21a864d9e71cbaf0c9d'
p7
sS'phone_B'
p8
S'xx9009b5db087c4797c651921847811b0a'
p9
sS'phone_C'
p10
S'xx0f3403a3d6b3fe3d8ac34d4d990a69d5'
p11
sS'phone_A'
p12
S'xx3168876171b330dc833e3357b28bfeac'
p13
sS'user_agent'
p14
S'Mozilla/5.0 (Linux; Android 5.0.2; vivo Y937 Build/LRX22G) AppleWebKit/537.36 (KHTML, like Gecko) Version/4.0 Chrome/37.0.0.0 Mobile MQQBrowser/6.8 TBS/036869 Safari/537.36 MicroMessenger/6.3.27.880 NetType/WIFI Language/zh_CN'
p15
sS'ua'
p16
S'692c12ca64885cbe95c6aa474c7ba228'
p17
sa(dp18
g2
S'27972'
p19
sg4
S'5405'
p20
sg6
S'5b48c78089c6f21a864d9e71cbaf0c9d'
p21
sg8
S'xx9009b5db087c4797c651921847811b0a'
p22
sg10
S'xx0f3403a3d6b3fe3d8ac34d4d990a69d5'
p23
sg12
S'xx3168876171b330dc833e3357b28bfeac'
p24
sg14
S'Mozilla/5.0 (Linux; Android 5.0.2; vivo Y937 Build/LRX22G) AppleWebKit/537.36 (KHTML, like Gecko) Version/4.0 Chrome/37.0.0.0 Mobile MQQBrowser/6.8 TBS/036869 Safari/537.36 MicroMessenger/6.3.27.880 NetType/WIFI Language/zh_CN'
p25
sg16
S'692c12ca64885cbe95c6aa474c7ba228'
p26
sa.