(lp0
(dp1
S'user_id'
p2
S'49760'
p3
sS'data_id'
p4
S'2242'
p5
sS'ip'
p6
S'4a68e8cc1ecc376c45c43aa3ea4b1dd3'
p7
sS'phone_B'
p8
S'xx358158af9af78a81254d8da5141cbcba'
p9
sS'phone_C'
p10
S'xxf9702ca0d809acfc942ee04acd3efd89'
p11
sS'phone_A'
p12
S'xx31dc4dabc7d961e6cf0230bf78f7392c'
p13
sS'user_agent'
p14
S'Mozilla/5.0 (Linux; Android 5.1; MX4 Build/LMY47I) AppleWebKit/537.36 (KHTML, like Gecko) Version/4.0 Chrome/37.0.0.0 Mobile MQQBrowser/6.8 TBS/036849 Safari/537.36 MicroMessenger/6.3.27.880 NetType/WIFI Language/zh_CN'
p15
sS'ua'
p16
S'a0e3d9e4c08274f30b05d5ea968df90a'
p17
sa(dp18
g2
S'49760'
p19
sg4
S'2259'
p20
sg6
S'4a68e8cc1ecc376c45c43aa3ea4b1dd3'
p21
sg8
S'xx358158af9af78a81254d8da5141cbcba'
p22
sg10
S'xxf9702ca0d809acfc942ee04acd3efd89'
p23
sg12
S'xx31dc4dabc7d961e6cf0230bf78f7392c'
p24
sg14
S'Mozilla/5.0 (Linux; Android 5.1; MX4 Build/LMY47I) AppleWebKit/537.36 (KHTML, like Gecko) Version/4.0 Chrome/37.0.0.0 Mobile MQQBrowser/6.8 TBS/036849 Safari/537.36 MicroMessenger/6.3.27.880 NetType/WIFI Language/zh_CN'
p25
sg16
S'a0e3d9e4c08274f30b05d5ea968df90a'
p26
sa(dp27
g2
S'49760'
p28
sg4
S'2273'
p29
sg6
S'4a68e8cc1ecc376c45c43aa3ea4b1dd3'
p30
sg8
S'xx358158af9af78a81254d8da5141cbcba'
p31
sg10
S'xxf9702ca0d809acfc942ee04acd3efd89'
p32
sg12
S'xx31dc4dabc7d961e6cf0230bf78f7392c'
p33
sg14
S'Mozilla/5.0 (Linux; Android 5.1; MX4 Build/LMY47I) AppleWebKit/537.36 (KHTML, like Gecko) Version/4.0 Chrome/37.0.0.0 Mobile MQQBrowser/6.8 TBS/036849 Safari/537.36 MicroMessenger/6.3.27.880 NetType/WIFI Language/zh_CN'
p34
sg16
S'a0e3d9e4c08274f30b05d5ea968df90a'
p35
sa(dp36
g2
S'49760'
p37
sg4
S'2329'
p38
sg6
S'4a68e8cc1ecc376c45c43aa3ea4b1dd3'
p39
sg8
S'xx358158af9af78a81254d8da5141cbcba'
p40
sg10
S'xxf9702ca0d809acfc942ee04acd3efd89'
p41
sg12
S'xx31dc4dabc7d961e6cf0230bf78f7392c'
p42
sg14
S'Mozilla/5.0 (Linux; Android 5.1; MX4 Build/LMY47I) AppleWebKit/537.36 (KHTML, like Gecko) Version/4.0 Chrome/37.0.0.0 Mobile MQQBrowser/6.8 TBS/036849 Safari/537.36 MicroMessenger/6.3.27.880 NetType/WIFI Language/zh_CN'
p43
sg16
S'a0e3d9e4c08274f30b05d5ea968df90a'
p44
sa(dp45
g2
S'49760'
p46
sg4
S'2342'
p47
sg6
S'4a68e8cc1ecc376c45c43aa3ea4b1dd3'
p48
sg8
S'xx358158af9af78a81254d8da5141cbcba'
p49
sg10
S'xxf9702ca0d809acfc942ee04acd3efd89'
p50
sg12
S'xx31dc4dabc7d961e6cf0230bf78f7392c'
p51
sg14
S'Mozilla/5.0 (Linux; Android 5.1; MX4 Build/LMY47I) AppleWebKit/537.36 (KHTML, like Gecko) Version/4.0 Chrome/37.0.0.0 Mobile MQQBrowser/6.8 TBS/036849 Safari/537.36 MicroMessenger/6.3.27.880 NetType/WIFI Language/zh_CN'
p52
sg16
S'a0e3d9e4c08274f30b05d5ea968df90a'
p53
sa(dp54
g2
S'49760'
p55
sg4
S'2362'
p56
sg6
S'4a68e8cc1ecc376c45c43aa3ea4b1dd3'
p57
sg8
S'xx358158af9af78a81254d8da5141cbcba'
p58
sg10
S'xxf9702ca0d809acfc942ee04acd3efd89'
p59
sg12
S'xx31dc4dabc7d961e6cf0230bf78f7392c'
p60
sg14
S'Mozilla/5.0 (Linux; Android 5.1; MX4 Build/LMY47I) AppleWebKit/537.36 (KHTML, like Gecko) Version/4.0 Chrome/37.0.0.0 Mobile MQQBrowser/6.8 TBS/036849 Safari/537.36 MicroMessenger/6.3.27.880 NetType/WIFI Language/zh_CN'
p61
sg16
S'a0e3d9e4c08274f30b05d5ea968df90a'
p62
sa(dp63
g2
S'49760'
p64
sg4
S'2391'
p65
sg6
S'4a68e8cc1ecc376c45c43aa3ea4b1dd3'
p66
sg8
S'xx358158af9af78a81254d8da5141cbcba'
p67
sg10
S'xxf9702ca0d809acfc942ee04acd3efd89'
p68
sg12
S'xx31dc4dabc7d961e6cf0230bf78f7392c'
p69
sg14
S'Mozilla/5.0 (Linux; Android 5.1; MX4 Build/LMY47I) AppleWebKit/537.36 (KHTML, like Gecko) Version/4.0 Chrome/37.0.0.0 Mobile MQQBrowser/6.8 TBS/036849 Safari/537.36 MicroMessenger/6.3.27.880 NetType/WIFI Language/zh_CN'
p70
sg16
S'a0e3d9e4c08274f30b05d5ea968df90a'
p71
sa(dp72
g2
S'49760'
p73
sg4
S'2404'
p74
sg6
S'4a68e8cc1ecc376c45c43aa3ea4b1dd3'
p75
sg8
S'xx358158af9af78a81254d8da5141cbcba'
p76
sg10
S'xxf9702ca0d809acfc942ee04acd3efd89'
p77
sg12
S'xx31dc4dabc7d961e6cf0230bf78f7392c'
p78
sg14
S'Mozilla/5.0 (Linux; Android 5.1; MX4 Build/LMY47I) AppleWebKit/537.36 (KHTML, like Gecko) Version/4.0 Chrome/37.0.0.0 Mobile MQQBrowser/6.8 TBS/036849 Safari/537.36 MicroMessenger/6.3.27.880 NetType/WIFI Language/zh_CN'
p79
sg16
S'a0e3d9e4c08274f30b05d5ea968df90a'
p80
sa(dp81
g2
S'49760'
p82
sg4
S'2644'
p83
sg6
S'4a68e8cc1ecc376c45c43aa3ea4b1dd3'
p84
sg8
S'xx358158af9af78a81254d8da5141cbcba'
p85
sg10
S'xxf9702ca0d809acfc942ee04acd3efd89'
p86
sg12
S'xx31dc4dabc7d961e6cf0230bf78f7392c'
p87
sg14
S'Mozilla/5.0 (Linux; Android 5.1; MX4 Build/LMY47I) AppleWebKit/537.36 (KHTML, like Gecko) Version/4.0 Chrome/37.0.0.0 Mobile MQQBrowser/6.8 TBS/036849 Safari/537.36 MicroMessenger/6.3.27.880 NetType/WIFI Language/zh_CN'
p88
sg16
S'a0e3d9e4c08274f30b05d5ea968df90a'
p89
sa(dp90
g2
S'49760'
p91
sg4
S'2668'
p92
sg6
S'4a68e8cc1ecc376c45c43aa3ea4b1dd3'
p93
sg8
S'xx358158af9af78a81254d8da5141cbcba'
p94
sg10
S'xxf9702ca0d809acfc942ee04acd3efd89'
p95
sg12
S'xx31dc4dabc7d961e6cf0230bf78f7392c'
p96
sg14
S'Mozilla/5.0 (Linux; Android 5.1; MX4 Build/LMY47I) AppleWebKit/537.36 (KHTML, like Gecko) Version/4.0 Chrome/37.0.0.0 Mobile MQQBrowser/6.8 TBS/036849 Safari/537.36 MicroMessenger/6.3.27.880 NetType/WIFI Language/zh_CN'
p97
sg16
S'a0e3d9e4c08274f30b05d5ea968df90a'
p98
sa(dp99
g2
S'49760'
p100
sg4
S'2678'
p101
sg6
S'4a68e8cc1ecc376c45c43aa3ea4b1dd3'
p102
sg8
S'xx358158af9af78a81254d8da5141cbcba'
p103
sg10
S'xxf9702ca0d809acfc942ee04acd3efd89'
p104
sg12
S'xx31dc4dabc7d961e6cf0230bf78f7392c'
p105
sg14
S'Mozilla/5.0 (Linux; Android 5.1; MX4 Build/LMY47I) AppleWebKit/537.36 (KHTML, like Gecko) Version/4.0 Chrome/37.0.0.0 Mobile MQQBrowser/6.8 TBS/036849 Safari/537.36 MicroMessenger/6.3.27.880 NetType/WIFI Language/zh_CN'
p106
sg16
S'a0e3d9e4c08274f30b05d5ea968df90a'
p107
sa(dp108
g2
S'49760'
p109
sg4
S'2699'
p110
sg6
S'4a68e8cc1ecc376c45c43aa3ea4b1dd3'
p111
sg8
S'xx358158af9af78a81254d8da5141cbcba'
p112
sg10
S'xxf9702ca0d809acfc942ee04acd3efd89'
p113
sg12
S'xx31dc4dabc7d961e6cf0230bf78f7392c'
p114
sg14
S'Mozilla/5.0 (Linux; Android 5.1; MX4 Build/LMY47I) AppleWebKit/537.36 (KHTML, like Gecko) Version/4.0 Chrome/37.0.0.0 Mobile MQQBrowser/6.8 TBS/036849 Safari/537.36 MicroMessenger/6.3.27.880 NetType/WIFI Language/zh_CN'
p115
sg16
S'a0e3d9e4c08274f30b05d5ea968df90a'
p116
sa(dp117
g2
S'49760'
p118
sg4
S'2952'
p119
sg6
S'4a68e8cc1ecc376c45c43aa3ea4b1dd3'
p120
sg8
S'xx358158af9af78a81254d8da5141cbcba'
p121
sg10
S'xxf9702ca0d809acfc942ee04acd3efd89'
p122
sg12
S'xx31dc4dabc7d961e6cf0230bf78f7392c'
p123
sg14
S'Mozilla/5.0 (Linux; Android 5.1; MX4 Build/LMY47I) AppleWebKit/537.36 (KHTML, like Gecko) Version/4.0 Chrome/37.0.0.0 Mobile MQQBrowser/6.8 TBS/036849 Safari/537.36 MicroMessenger/6.3.27.880 NetType/WIFI Language/zh_CN'
p124
sg16
S'a0e3d9e4c08274f30b05d5ea968df90a'
p125
sa(dp126
g2
S'49760'
p127
sg4
S'2967'
p128
sg6
S'4a68e8cc1ecc376c45c43aa3ea4b1dd3'
p129
sg8
S'xx358158af9af78a81254d8da5141cbcba'
p130
sg10
S'xxf9702ca0d809acfc942ee04acd3efd89'
p131
sg12
S'xx31dc4dabc7d961e6cf0230bf78f7392c'
p132
sg14
S'Mozilla/5.0 (Linux; Android 5.1; MX4 Build/LMY47I) AppleWebKit/537.36 (KHTML, like Gecko) Version/4.0 Chrome/37.0.0.0 Mobile MQQBrowser/6.8 TBS/036849 Safari/537.36 MicroMessenger/6.3.27.880 NetType/WIFI Language/zh_CN'
p133
sg16
S'a0e3d9e4c08274f30b05d5ea968df90a'
p134
sa(dp135
g2
S'49760'
p136
sg4
S'2991'
p137
sg6
S'4a68e8cc1ecc376c45c43aa3ea4b1dd3'
p138
sg8
S'xx358158af9af78a81254d8da5141cbcba'
p139
sg10
S'xxf9702ca0d809acfc942ee04acd3efd89'
p140
sg12
S'xx31dc4dabc7d961e6cf0230bf78f7392c'
p141
sg14
S'Mozilla/5.0 (Linux; Android 5.1; MX4 Build/LMY47I) AppleWebKit/537.36 (KHTML, like Gecko) Version/4.0 Chrome/37.0.0.0 Mobile MQQBrowser/6.8 TBS/036849 Safari/537.36 MicroMessenger/6.3.27.880 NetType/WIFI Language/zh_CN'
p142
sg16
S'a0e3d9e4c08274f30b05d5ea968df90a'
p143
sa(dp144
g2
S'49760'
p145
sg4
S'3008'
p146
sg6
S'4a68e8cc1ecc376c45c43aa3ea4b1dd3'
p147
sg8
S'xx358158af9af78a81254d8da5141cbcba'
p148
sg10
S'xxf9702ca0d809acfc942ee04acd3efd89'
p149
sg12
S'xx31dc4dabc7d961e6cf0230bf78f7392c'
p150
sg14
S'Mozilla/5.0 (Linux; Android 5.1; MX4 Build/LMY47I) AppleWebKit/537.36 (KHTML, like Gecko) Version/4.0 Chrome/37.0.0.0 Mobile MQQBrowser/6.8 TBS/036849 Safari/537.36 MicroMessenger/6.3.27.880 NetType/WIFI Language/zh_CN'
p151
sg16
S'a0e3d9e4c08274f30b05d5ea968df90a'
p152
sa(dp153
g2
S'49760'
p154
sg4
S'3024'
p155
sg6
S'4a68e8cc1ecc376c45c43aa3ea4b1dd3'
p156
sg8
S'xx358158af9af78a81254d8da5141cbcba'
p157
sg10
S'xxf9702ca0d809acfc942ee04acd3efd89'
p158
sg12
S'xx31dc4dabc7d961e6cf0230bf78f7392c'
p159
sg14
S'Mozilla/5.0 (Linux; Android 5.1; MX4 Build/LMY47I) AppleWebKit/537.36 (KHTML, like Gecko) Version/4.0 Chrome/37.0.0.0 Mobile MQQBrowser/6.8 TBS/036849 Safari/537.36 MicroMessenger/6.3.27.880 NetType/WIFI Language/zh_CN'
p160
sg16
S'a0e3d9e4c08274f30b05d5ea968df90a'
p161
sa(dp162
g2
S'49760'
p163
sg4
S'3041'
p164
sg6
S'4a68e8cc1ecc376c45c43aa3ea4b1dd3'
p165
sg8
S'xx358158af9af78a81254d8da5141cbcba'
p166
sg10
S'xxf9702ca0d809acfc942ee04acd3efd89'
p167
sg12
S'xx31dc4dabc7d961e6cf0230bf78f7392c'
p168
sg14
S'Mozilla/5.0 (Linux; Android 5.1; MX4 Build/LMY47I) AppleWebKit/537.36 (KHTML, like Gecko) Version/4.0 Chrome/37.0.0.0 Mobile MQQBrowser/6.8 TBS/036849 Safari/537.36 MicroMessenger/6.3.27.880 NetType/WIFI Language/zh_CN'
p169
sg16
S'a0e3d9e4c08274f30b05d5ea968df90a'
p170
sa(dp171
g2
S'49760'
p172
sg4
S'3062'
p173
sg6
S'4a68e8cc1ecc376c45c43aa3ea4b1dd3'
p174
sg8
S'xx358158af9af78a81254d8da5141cbcba'
p175
sg10
S'xxf9702ca0d809acfc942ee04acd3efd89'
p176
sg12
S'xx31dc4dabc7d961e6cf0230bf78f7392c'
p177
sg14
S'Mozilla/5.0 (Linux; Android 5.1; MX4 Build/LMY47I) AppleWebKit/537.36 (KHTML, like Gecko) Version/4.0 Chrome/37.0.0.0 Mobile MQQBrowser/6.8 TBS/036849 Safari/537.36 MicroMessenger/6.3.27.880 NetType/WIFI Language/zh_CN'
p178
sg16
S'a0e3d9e4c08274f30b05d5ea968df90a'
p179
sa(dp180
g2
S'49760'
p181
sg4
S'3085'
p182
sg6
S'4a68e8cc1ecc376c45c43aa3ea4b1dd3'
p183
sg8
S'xx358158af9af78a81254d8da5141cbcba'
p184
sg10
S'xxf9702ca0d809acfc942ee04acd3efd89'
p185
sg12
S'xx31dc4dabc7d961e6cf0230bf78f7392c'
p186
sg14
S'Mozilla/5.0 (Linux; Android 5.1; MX4 Build/LMY47I) AppleWebKit/537.36 (KHTML, like Gecko) Version/4.0 Chrome/37.0.0.0 Mobile MQQBrowser/6.8 TBS/036849 Safari/537.36 MicroMessenger/6.3.27.880 NetType/WIFI Language/zh_CN'
p187
sg16
S'a0e3d9e4c08274f30b05d5ea968df90a'
p188
sa(dp189
g2
S'49760'
p190
sg4
S'3102'
p191
sg6
S'4a68e8cc1ecc376c45c43aa3ea4b1dd3'
p192
sg8
S'xx358158af9af78a81254d8da5141cbcba'
p193
sg10
S'xxf9702ca0d809acfc942ee04acd3efd89'
p194
sg12
S'xx31dc4dabc7d961e6cf0230bf78f7392c'
p195
sg14
S'Mozilla/5.0 (Linux; Android 5.1; MX4 Build/LMY47I) AppleWebKit/537.36 (KHTML, like Gecko) Version/4.0 Chrome/37.0.0.0 Mobile MQQBrowser/6.8 TBS/036849 Safari/537.36 MicroMessenger/6.3.27.880 NetType/WIFI Language/zh_CN'
p196
sg16
S'a0e3d9e4c08274f30b05d5ea968df90a'
p197
sa(dp198
g2
S'49760'
p199
sg4
S'3123'
p200
sg6
S'4a68e8cc1ecc376c45c43aa3ea4b1dd3'
p201
sg8
S'xx358158af9af78a81254d8da5141cbcba'
p202
sg10
S'xxf9702ca0d809acfc942ee04acd3efd89'
p203
sg12
S'xx31dc4dabc7d961e6cf0230bf78f7392c'
p204
sg14
S'Mozilla/5.0 (Linux; Android 5.1; MX4 Build/LMY47I) AppleWebKit/537.36 (KHTML, like Gecko) Version/4.0 Chrome/37.0.0.0 Mobile MQQBrowser/6.8 TBS/036849 Safari/537.36 MicroMessenger/6.3.27.880 NetType/WIFI Language/zh_CN'
p205
sg16
S'a0e3d9e4c08274f30b05d5ea968df90a'
p206
sa(dp207
g2
S'49760'
p208
sg4
S'3142'
p209
sg6
S'4a68e8cc1ecc376c45c43aa3ea4b1dd3'
p210
sg8
S'xx358158af9af78a81254d8da5141cbcba'
p211
sg10
S'xxf9702ca0d809acfc942ee04acd3efd89'
p212
sg12
S'xx31dc4dabc7d961e6cf0230bf78f7392c'
p213
sg14
S'Mozilla/5.0 (Linux; Android 5.1; MX4 Build/LMY47I) AppleWebKit/537.36 (KHTML, like Gecko) Version/4.0 Chrome/37.0.0.0 Mobile MQQBrowser/6.8 TBS/036849 Safari/537.36 MicroMessenger/6.3.27.880 NetType/WIFI Language/zh_CN'
p214
sg16
S'a0e3d9e4c08274f30b05d5ea968df90a'
p215
sa.