(lp0
(dp1
S'user_id'
p2
S'31792'
p3
sS'data_id'
p4
S'1729'
p5
sS'ip'
p6
S'ce007e11f3a51fcd3cd90d7ea97dda2d'
p7
sS'phone_B'
p8
S'xxe8f647e1f20f39c2c62d5ce3f99a0db0'
p9
sS'phone_C'
p10
S'xx9ec774528e647fafeaf0a97d3645e305'
p11
sS'phone_A'
p12
S'xx321a35c2b1d9388728be6b864944c071'
p13
sS'user_agent'
p14
S'Mozilla/5.0 (Linux; Android 4.4.4; AUX T6200L Build/KTU84P) AppleWebKit/537.36 (KHTML, like Gecko) Version/4.0 Chrome/37.0.0.0 Mobile MQQBrowser/6.8 TBS/036849 Safari/537.36 MicroMessenger/6.3.27.880 NetType/WIFI Language/zh_CN'
p15
sS'ua'
p16
S'205739b50efd589d94a73bac5826a4b0'
p17
sa(dp18
g2
S'31792'
p19
sg4
S'1747'
p20
sg6
S'ce007e11f3a51fcd3cd90d7ea97dda2d'
p21
sg8
S'xxe8f647e1f20f39c2c62d5ce3f99a0db0'
p22
sg10
S'xx9ec774528e647fafeaf0a97d3645e305'
p23
sg12
S'xx321a35c2b1d9388728be6b864944c071'
p24
sg14
S'Mozilla/5.0 (Linux; Android 4.4.4; AUX T6200L Build/KTU84P) AppleWebKit/537.36 (KHTML, like Gecko) Version/4.0 Chrome/37.0.0.0 Mobile MQQBrowser/6.8 TBS/036849 Safari/537.36 MicroMessenger/6.3.27.880 NetType/WIFI Language/zh_CN'
p25
sg16
S'205739b50efd589d94a73bac5826a4b0'
p26
sa(dp27
g2
S'31792'
p28
sg4
S'1761'
p29
sg6
S'ce007e11f3a51fcd3cd90d7ea97dda2d'
p30
sg8
S'xxe8f647e1f20f39c2c62d5ce3f99a0db0'
p31
sg10
S'xx9ec774528e647fafeaf0a97d3645e305'
p32
sg12
S'xx321a35c2b1d9388728be6b864944c071'
p33
sg14
S'Mozilla/5.0 (Linux; Android 4.4.4; AUX T6200L Build/KTU84P) AppleWebKit/537.36 (KHTML, like Gecko) Version/4.0 Chrome/37.0.0.0 Mobile MQQBrowser/6.8 TBS/036849 Safari/537.36 MicroMessenger/6.3.27.880 NetType/WIFI Language/zh_CN'
p34
sg16
S'205739b50efd589d94a73bac5826a4b0'
p35
sa(dp36
g2
S'31792'
p37
sg4
S'1780'
p38
sg6
S'ce007e11f3a51fcd3cd90d7ea97dda2d'
p39
sg8
S'xxe8f647e1f20f39c2c62d5ce3f99a0db0'
p40
sg10
S'xx9ec774528e647fafeaf0a97d3645e305'
p41
sg12
S'xx321a35c2b1d9388728be6b864944c071'
p42
sg14
S'Mozilla/5.0 (Linux; Android 4.4.4; AUX T6200L Build/KTU84P) AppleWebKit/537.36 (KHTML, like Gecko) Version/4.0 Chrome/37.0.0.0 Mobile MQQBrowser/6.8 TBS/036849 Safari/537.36 MicroMessenger/6.3.27.880 NetType/WIFI Language/zh_CN'
p43
sg16
S'205739b50efd589d94a73bac5826a4b0'
p44
sa.