(lp0
(dp1
S'user_id'
p2
S'39909'
p3
sS'data_id'
p4
S'86'
p5
sS'ip'
p6
S'c17e96ac34d43b5a75b94e6c10c2580f'
p7
sS'phone_B'
p8
S'xx06d713d1b2846852f66208af255c1caf'
p9
sS'phone_C'
p10
S'xxe488179d892f9d687d720a8dddbb655b'
p11
sS'phone_A'
p12
S'xx35436efaa1ebb19e1dc3bfef80869990'
p13
sS'user_agent'
p14
S'Mozilla/5.0 (Linux; Android 4.4.4; HM 2A Build/KTU84Q) AppleWebKit/537.36 (KHTML, like Gecko) Version/4.0 Chrome/37.0.0.0 Mobile MQQBrowser/6.8 TBS/036849 Safari/537.36 MicroMessenger/6.3.27.880 NetType/WIFI Language/zh_CN'
p15
sS'ua'
p16
S'c1c433964d7589b095d86945a99ce90e'
p17
sa(dp18
g2
S'39909'
p19
sg4
S'93'
p20
sg6
S'c17e96ac34d43b5a75b94e6c10c2580f'
p21
sg8
S'xx06d713d1b2846852f66208af255c1caf'
p22
sg10
S'xxe488179d892f9d687d720a8dddbb655b'
p23
sg12
S'xx35436efaa1ebb19e1dc3bfef80869990'
p24
sg14
S'Mozilla/5.0 (Linux; Android 4.4.4; HM 2A Build/KTU84Q) AppleWebKit/537.36 (KHTML, like Gecko) Version/4.0 Chrome/37.0.0.0 Mobile MQQBrowser/6.8 TBS/036849 Safari/537.36 MicroMessenger/6.3.27.880 NetType/WIFI Language/zh_CN'
p25
sg16
S'c1c433964d7589b095d86945a99ce90e'
p26
sa(dp27
g2
S'39909'
p28
sg4
S'112'
p29
sg6
S'c17e96ac34d43b5a75b94e6c10c2580f'
p30
sg8
S'xx06d713d1b2846852f66208af255c1caf'
p31
sg10
S'xxe488179d892f9d687d720a8dddbb655b'
p32
sg12
S'xx35436efaa1ebb19e1dc3bfef80869990'
p33
sg14
S'Mozilla/5.0 (Linux; Android 4.4.4; HM 2A Build/KTU84Q) AppleWebKit/537.36 (KHTML, like Gecko) Version/4.0 Chrome/37.0.0.0 Mobile MQQBrowser/6.8 TBS/036849 Safari/537.36 MicroMessenger/6.3.27.880 NetType/WIFI Language/zh_CN'
p34
sg16
S'c1c433964d7589b095d86945a99ce90e'
p35
sa(dp36
g2
S'39909'
p37
sg4
S'121'
p38
sg6
S'c17e96ac34d43b5a75b94e6c10c2580f'
p39
sg8
S'xx06d713d1b2846852f66208af255c1caf'
p40
sg10
S'xxe488179d892f9d687d720a8dddbb655b'
p41
sg12
S'xx35436efaa1ebb19e1dc3bfef80869990'
p42
sg14
S'Mozilla/5.0 (Linux; Android 4.4.4; HM 2A Build/KTU84Q) AppleWebKit/537.36 (KHTML, like Gecko) Version/4.0 Chrome/37.0.0.0 Mobile MQQBrowser/6.8 TBS/036849 Safari/537.36 MicroMessenger/6.3.27.880 NetType/WIFI Language/zh_CN'
p43
sg16
S'c1c433964d7589b095d86945a99ce90e'
p44
sa(dp45
g2
S'39909'
p46
sg4
S'128'
p47
sg6
S'c17e96ac34d43b5a75b94e6c10c2580f'
p48
sg8
S'xx06d713d1b2846852f66208af255c1caf'
p49
sg10
S'xxe488179d892f9d687d720a8dddbb655b'
p50
sg12
S'xx35436efaa1ebb19e1dc3bfef80869990'
p51
sg14
S'Mozilla/5.0 (Linux; Android 4.4.4; HM 2A Build/KTU84Q) AppleWebKit/537.36 (KHTML, like Gecko) Version/4.0 Chrome/37.0.0.0 Mobile MQQBrowser/6.8 TBS/036849 Safari/537.36 MicroMessenger/6.3.27.880 NetType/WIFI Language/zh_CN'
p52
sg16
S'c1c433964d7589b095d86945a99ce90e'
p53
sa(dp54
g2
S'39909'
p55
sg4
S'140'
p56
sg6
S'c17e96ac34d43b5a75b94e6c10c2580f'
p57
sg8
S'xx06d713d1b2846852f66208af255c1caf'
p58
sg10
S'xxe488179d892f9d687d720a8dddbb655b'
p59
sg12
S'xx35436efaa1ebb19e1dc3bfef80869990'
p60
sg14
S'Mozilla/5.0 (Linux; Android 4.4.4; HM 2A Build/KTU84Q) AppleWebKit/537.36 (KHTML, like Gecko) Version/4.0 Chrome/37.0.0.0 Mobile MQQBrowser/6.8 TBS/036849 Safari/537.36 MicroMessenger/6.3.27.880 NetType/WIFI Language/zh_CN'
p61
sg16
S'c1c433964d7589b095d86945a99ce90e'
p62
sa(dp63
g2
S'39909'
p64
sg4
S'167'
p65
sg6
S'c17e96ac34d43b5a75b94e6c10c2580f'
p66
sg8
S'xx2770956730d40aeae2a4dbdacf35644c'
p67
sg10
S'xxe488179d892f9d687d720a8dddbb655b'
p68
sg12
S'xx35436efaa1ebb19e1dc3bfef80869990'
p69
sg14
S'Mozilla/5.0 (Linux; Android 4.4.4; HM 2A Build/KTU84Q) AppleWebKit/537.36 (KHTML, like Gecko) Version/4.0 Chrome/37.0.0.0 Mobile MQQBrowser/6.8 TBS/036869 Safari/537.36 MicroMessenger/6.3.27.880 NetType/WIFI Language/zh_CN'
p70
sg16
S'60ccdd136fc537341e4534874eabce6b'
p71
sa(dp72
g2
S'46628'
p73
sg4
S'496'
p74
sg6
S'3f829e89a2ce3cc66811479c1dd2e845'
p75
sg8
S'xx601fc976ab9607d767680fcaa325ed3b'
p76
sg10
S'xxe488179d892f9d687d720a8dddbb655b'
p77
sg12
S'xx35436efaa1ebb19e1dc3bfef80869990'
p78
sg14
S'Mozilla/5.0 (Linux; Android 4.4.4; HM 2A Build/KTU84Q) AppleWebKit/537.36 (KHTML, like Gecko) Version/4.0 Chrome/37.0.0.0 Mobile MQQBrowser/6.8 TBS/036849 Safari/537.36 MicroMessenger/6.3.27.880 NetType/cmnet Language/zh_CN'
p79
sg16
S'54beb339ec1af4cb447d3c38d6df71d7'
p80
sa(dp81
g2
S'46628'
p82
sg4
S'506'
p83
sg6
S'3f829e89a2ce3cc66811479c1dd2e845'
p84
sg8
S'xx601fc976ab9607d767680fcaa325ed3b'
p85
sg10
S'xxe488179d892f9d687d720a8dddbb655b'
p86
sg12
S'xx35436efaa1ebb19e1dc3bfef80869990'
p87
sg14
S'Mozilla/5.0 (Linux; Android 4.4.4; HM 2A Build/KTU84Q) AppleWebKit/537.36 (KHTML, like Gecko) Version/4.0 Chrome/37.0.0.0 Mobile MQQBrowser/6.8 TBS/036849 Safari/537.36 MicroMessenger/6.3.27.880 NetType/cmnet Language/zh_CN'
p88
sg16
S'54beb339ec1af4cb447d3c38d6df71d7'
p89
sa(dp90
g2
S'46628'
p91
sg4
S'521'
p92
sg6
S'3f829e89a2ce3cc66811479c1dd2e845'
p93
sg8
S'xx601fc976ab9607d767680fcaa325ed3b'
p94
sg10
S'xxe488179d892f9d687d720a8dddbb655b'
p95
sg12
S'xx35436efaa1ebb19e1dc3bfef80869990'
p96
sg14
S'Mozilla/5.0 (Linux; Android 4.4.4; HM 2A Build/KTU84Q) AppleWebKit/537.36 (KHTML, like Gecko) Version/4.0 Chrome/37.0.0.0 Mobile MQQBrowser/6.8 TBS/036849 Safari/537.36 MicroMessenger/6.3.27.880 NetType/cmnet Language/zh_CN'
p97
sg16
S'54beb339ec1af4cb447d3c38d6df71d7'
p98
sa(dp99
g2
S'46628'
p100
sg4
S'587'
p101
sg6
S'3f829e89a2ce3cc66811479c1dd2e845'
p102
sg8
S'xx601fc976ab9607d767680fcaa325ed3b'
p103
sg10
S'xxe488179d892f9d687d720a8dddbb655b'
p104
sg12
S'xx35436efaa1ebb19e1dc3bfef80869990'
p105
sg14
S'Mozilla/5.0 (Linux; Android 4.4.4; HM 2A Build/KTU84Q) AppleWebKit/537.36 (KHTML, like Gecko) Version/4.0 Chrome/37.0.0.0 Mobile MQQBrowser/6.8 TBS/036849 Safari/537.36 MicroMessenger/6.3.27.880 NetType/cmnet Language/zh_CN'
p106
sg16
S'54beb339ec1af4cb447d3c38d6df71d7'
p107
sa(dp108
g2
S'46628'
p109
sg4
S'603'
p110
sg6
S'3f829e89a2ce3cc66811479c1dd2e845'
p111
sg8
S'xx601fc976ab9607d767680fcaa325ed3b'
p112
sg10
S'xxe488179d892f9d687d720a8dddbb655b'
p113
sg12
S'xx35436efaa1ebb19e1dc3bfef80869990'
p114
sg14
S'Mozilla/5.0 (Linux; Android 4.4.4; HM 2A Build/KTU84Q) AppleWebKit/537.36 (KHTML, like Gecko) Version/4.0 Chrome/37.0.0.0 Mobile MQQBrowser/6.8 TBS/036849 Safari/537.36 MicroMessenger/6.3.27.880 NetType/cmnet Language/zh_CN'
p115
sg16
S'54beb339ec1af4cb447d3c38d6df71d7'
p116
sa(dp117
g2
S'46628'
p118
sg4
S'618'
p119
sg6
S'3f829e89a2ce3cc66811479c1dd2e845'
p120
sg8
S'xx601fc976ab9607d767680fcaa325ed3b'
p121
sg10
S'xxe488179d892f9d687d720a8dddbb655b'
p122
sg12
S'xx35436efaa1ebb19e1dc3bfef80869990'
p123
sg14
S'Mozilla/5.0 (Linux; Android 4.4.4; HM 2A Build/KTU84Q) AppleWebKit/537.36 (KHTML, like Gecko) Version/4.0 Chrome/37.0.0.0 Mobile MQQBrowser/6.8 TBS/036849 Safari/537.36 MicroMessenger/6.3.27.880 NetType/cmnet Language/zh_CN'
p124
sg16
S'54beb339ec1af4cb447d3c38d6df71d7'
p125
sa(dp126
g2
S'46628'
p127
sg4
S'635'
p128
sg6
S'3f829e89a2ce3cc66811479c1dd2e845'
p129
sg8
S'xx601fc976ab9607d767680fcaa325ed3b'
p130
sg10
S'xxe488179d892f9d687d720a8dddbb655b'
p131
sg12
S'xx35436efaa1ebb19e1dc3bfef80869990'
p132
sg14
S'Mozilla/5.0 (Linux; Android 4.4.4; HM 2A Build/KTU84Q) AppleWebKit/537.36 (KHTML, like Gecko) Version/4.0 Chrome/37.0.0.0 Mobile MQQBrowser/6.8 TBS/036849 Safari/537.36 MicroMessenger/6.3.27.880 NetType/cmnet Language/zh_CN'
p133
sg16
S'54beb339ec1af4cb447d3c38d6df71d7'
p134
sa(dp135
g2
S'46628'
p136
sg4
S'2160'
p137
sg6
S'3f829e89a2ce3cc66811479c1dd2e845'
p138
sg8
S'xx601fc976ab9607d767680fcaa325ed3b'
p139
sg10
S'xxe488179d892f9d687d720a8dddbb655b'
p140
sg12
S'xx35436efaa1ebb19e1dc3bfef80869990'
p141
sg14
S'Mozilla/5.0 (Linux; Android 4.4.4; HM 2A Build/KTU84Q) AppleWebKit/537.36 (KHTML, like Gecko) Version/4.0 Chrome/37.0.0.0 Mobile MQQBrowser/6.8 TBS/036849 Safari/537.36 MicroMessenger/6.3.27.880 NetType/cmnet Language/zh_CN'
p142
sg16
S'54beb339ec1af4cb447d3c38d6df71d7'
p143
sa(dp144
g2
S'46628'
p145
sg4
S'2168'
p146
sg6
S'3f829e89a2ce3cc66811479c1dd2e845'
p147
sg8
S'xx601fc976ab9607d767680fcaa325ed3b'
p148
sg10
S'xxe488179d892f9d687d720a8dddbb655b'
p149
sg12
S'xx35436efaa1ebb19e1dc3bfef80869990'
p150
sg14
S'Mozilla/5.0 (Linux; Android 4.4.4; HM 2A Build/KTU84Q) AppleWebKit/537.36 (KHTML, like Gecko) Version/4.0 Chrome/37.0.0.0 Mobile MQQBrowser/6.8 TBS/036849 Safari/537.36 MicroMessenger/6.3.27.880 NetType/cmnet Language/zh_CN'
p151
sg16
S'54beb339ec1af4cb447d3c38d6df71d7'
p152
sa(dp153
g2
S'46628'
p154
sg4
S'2183'
p155
sg6
S'3f829e89a2ce3cc66811479c1dd2e845'
p156
sg8
S'xx601fc976ab9607d767680fcaa325ed3b'
p157
sg10
S'xxe488179d892f9d687d720a8dddbb655b'
p158
sg12
S'xx35436efaa1ebb19e1dc3bfef80869990'
p159
sg14
S'Mozilla/5.0 (Linux; Android 4.4.4; HM 2A Build/KTU84Q) AppleWebKit/537.36 (KHTML, like Gecko) Version/4.0 Chrome/37.0.0.0 Mobile MQQBrowser/6.8 TBS/036849 Safari/537.36 MicroMessenger/6.3.27.880 NetType/cmnet Language/zh_CN'
p160
sg16
S'54beb339ec1af4cb447d3c38d6df71d7'
p161
sa(dp162
g2
S'46628'
p163
sg4
S'2204'
p164
sg6
S'3f829e89a2ce3cc66811479c1dd2e845'
p165
sg8
S'xx601fc976ab9607d767680fcaa325ed3b'
p166
sg10
S'xxe488179d892f9d687d720a8dddbb655b'
p167
sg12
S'xx35436efaa1ebb19e1dc3bfef80869990'
p168
sg14
S'Mozilla/5.0 (Linux; Android 4.4.4; HM 2A Build/KTU84Q) AppleWebKit/537.36 (KHTML, like Gecko) Version/4.0 Chrome/37.0.0.0 Mobile MQQBrowser/6.8 TBS/036849 Safari/537.36 MicroMessenger/6.3.27.880 NetType/cmnet Language/zh_CN'
p169
sg16
S'54beb339ec1af4cb447d3c38d6df71d7'
p170
sa(dp171
g2
S'32411'
p172
sg4
S'3160'
p173
sg6
S'783ec5c440b55f32ca4f1c46a5126757'
p174
sg8
S'xx06d713d1b2846852f66208af255c1caf'
p175
sg10
S'xxe488179d892f9d687d720a8dddbb655b'
p176
sg12
S'xx35436efaa1ebb19e1dc3bfef80869990'
p177
sg14
S'Mozilla/5.0 (Linux; Android 4.4.4; HM 2A Build/KTU84Q) AppleWebKit/537.36 (KHTML, like Gecko) Version/4.0 Chrome/37.0.0.0 Mobile MQQBrowser/6.8 TBS/036849 Safari/537.36 MicroMessenger/6.3.27.880 NetType/WIFI Language/zh_CN'
p178
sg16
S'c1c433964d7589b095d86945a99ce90e'
p179
sa(dp180
g2
S'32411'
p181
sg4
S'3173'
p182
sg6
S'783ec5c440b55f32ca4f1c46a5126757'
p183
sg8
S'xx06d713d1b2846852f66208af255c1caf'
p184
sg10
S'xxe488179d892f9d687d720a8dddbb655b'
p185
sg12
S'xx35436efaa1ebb19e1dc3bfef80869990'
p186
sg14
S'Mozilla/5.0 (Linux; Android 4.4.4; HM 2A Build/KTU84Q) AppleWebKit/537.36 (KHTML, like Gecko) Version/4.0 Chrome/37.0.0.0 Mobile MQQBrowser/6.8 TBS/036849 Safari/537.36 MicroMessenger/6.3.27.880 NetType/WIFI Language/zh_CN'
p187
sg16
S'c1c433964d7589b095d86945a99ce90e'
p188
sa(dp189
g2
S'46628'
p190
sg4
S'3174'
p191
sg6
S'3f829e89a2ce3cc66811479c1dd2e845'
p192
sg8
S'xx601fc976ab9607d767680fcaa325ed3b'
p193
sg10
S'xxe488179d892f9d687d720a8dddbb655b'
p194
sg12
S'xx35436efaa1ebb19e1dc3bfef80869990'
p195
sg14
S'Mozilla/5.0 (Linux; Android 4.4.4; HM 2A Build/KTU84Q) AppleWebKit/537.36 (KHTML, like Gecko) Version/4.0 Chrome/37.0.0.0 Mobile MQQBrowser/6.8 TBS/036849 Safari/537.36 MicroMessenger/6.3.27.880 NetType/cmnet Language/zh_CN'
p196
sg16
S'54beb339ec1af4cb447d3c38d6df71d7'
p197
sa(dp198
g2
S'46628'
p199
sg4
S'3188'
p200
sg6
S'3f829e89a2ce3cc66811479c1dd2e845'
p201
sg8
S'xx601fc976ab9607d767680fcaa325ed3b'
p202
sg10
S'xxe488179d892f9d687d720a8dddbb655b'
p203
sg12
S'xx35436efaa1ebb19e1dc3bfef80869990'
p204
sg14
S'Mozilla/5.0 (Linux; Android 4.4.4; HM 2A Build/KTU84Q) AppleWebKit/537.36 (KHTML, like Gecko) Version/4.0 Chrome/37.0.0.0 Mobile MQQBrowser/6.8 TBS/036849 Safari/537.36 MicroMessenger/6.3.27.880 NetType/cmnet Language/zh_CN'
p205
sg16
S'54beb339ec1af4cb447d3c38d6df71d7'
p206
sa(dp207
g2
S'46628'
p208
sg4
S'3541'
p209
sg6
S'3f829e89a2ce3cc66811479c1dd2e845'
p210
sg8
S'xx601fc976ab9607d767680fcaa325ed3b'
p211
sg10
S'xxe488179d892f9d687d720a8dddbb655b'
p212
sg12
S'xx35436efaa1ebb19e1dc3bfef80869990'
p213
sg14
S'Mozilla/5.0 (Linux; Android 4.4.4; HM 2A Build/KTU84Q) AppleWebKit/537.36 (KHTML, like Gecko) Version/4.0 Chrome/37.0.0.0 Mobile MQQBrowser/6.8 TBS/036849 Safari/537.36 MicroMessenger/6.3.27.880 NetType/cmnet Language/zh_CN'
p214
sg16
S'54beb339ec1af4cb447d3c38d6df71d7'
p215
sa(dp216
g2
S'46628'
p217
sg4
S'3554'
p218
sg6
S'3f829e89a2ce3cc66811479c1dd2e845'
p219
sg8
S'xx601fc976ab9607d767680fcaa325ed3b'
p220
sg10
S'xxe488179d892f9d687d720a8dddbb655b'
p221
sg12
S'xx35436efaa1ebb19e1dc3bfef80869990'
p222
sg14
S'Mozilla/5.0 (Linux; Android 4.4.4; HM 2A Build/KTU84Q) AppleWebKit/537.36 (KHTML, like Gecko) Version/4.0 Chrome/37.0.0.0 Mobile MQQBrowser/6.8 TBS/036849 Safari/537.36 MicroMessenger/6.3.27.880 NetType/cmnet Language/zh_CN'
p223
sg16
S'54beb339ec1af4cb447d3c38d6df71d7'
p224
sa(dp225
g2
S'39909'
p226
sg4
S'3618'
p227
sg6
S'c17e96ac34d43b5a75b94e6c10c2580f'
p228
sg8
S'xx2770956730d40aeae2a4dbdacf35644c'
p229
sg10
S'xxe488179d892f9d687d720a8dddbb655b'
p230
sg12
S'xx35436efaa1ebb19e1dc3bfef80869990'
p231
sg14
S'Mozilla/5.0 (Linux; Android 4.4.4; HM 2A Build/KTU84Q) AppleWebKit/537.36 (KHTML, like Gecko) Version/4.0 Chrome/37.0.0.0 Mobile MQQBrowser/6.8 TBS/036869 Safari/537.36 MicroMessenger/6.3.27.880 NetType/WIFI Language/zh_CN'
p232
sg16
S'60ccdd136fc537341e4534874eabce6b'
p233
sa(dp234
g2
S'39909'
p235
sg4
S'3633'
p236
sg6
S'c17e96ac34d43b5a75b94e6c10c2580f'
p237
sg8
S'xx2770956730d40aeae2a4dbdacf35644c'
p238
sg10
S'xxe488179d892f9d687d720a8dddbb655b'
p239
sg12
S'xx35436efaa1ebb19e1dc3bfef80869990'
p240
sg14
S'Mozilla/5.0 (Linux; Android 4.4.4; HM 2A Build/KTU84Q) AppleWebKit/537.36 (KHTML, like Gecko) Version/4.0 Chrome/37.0.0.0 Mobile MQQBrowser/6.8 TBS/036869 Safari/537.36 MicroMessenger/6.3.27.880 NetType/WIFI Language/zh_CN'
p241
sg16
S'60ccdd136fc537341e4534874eabce6b'
p242
sa(dp243
g2
S'39909'
p244
sg4
S'3645'
p245
sg6
S'c17e96ac34d43b5a75b94e6c10c2580f'
p246
sg8
S'xx2770956730d40aeae2a4dbdacf35644c'
p247
sg10
S'xxe488179d892f9d687d720a8dddbb655b'
p248
sg12
S'xx35436efaa1ebb19e1dc3bfef80869990'
p249
sg14
S'Mozilla/5.0 (Linux; Android 4.4.4; HM 2A Build/KTU84Q) AppleWebKit/537.36 (KHTML, like Gecko) Version/4.0 Chrome/37.0.0.0 Mobile MQQBrowser/6.8 TBS/036869 Safari/537.36 MicroMessenger/6.3.27.880 NetType/WIFI Language/zh_CN'
p250
sg16
S'60ccdd136fc537341e4534874eabce6b'
p251
sa(dp252
g2
S'46628'
p253
sg4
S'3648'
p254
sg6
S'3f829e89a2ce3cc66811479c1dd2e845'
p255
sg8
S'xx601fc976ab9607d767680fcaa325ed3b'
p256
sg10
S'xxe488179d892f9d687d720a8dddbb655b'
p257
sg12
S'xx35436efaa1ebb19e1dc3bfef80869990'
p258
sg14
S'Mozilla/5.0 (Linux; Android 4.4.4; HM 2A Build/KTU84Q) AppleWebKit/537.36 (KHTML, like Gecko) Version/4.0 Chrome/37.0.0.0 Mobile MQQBrowser/6.8 TBS/036849 Safari/537.36 MicroMessenger/6.3.27.880 NetType/cmnet Language/zh_CN'
p259
sg16
S'54beb339ec1af4cb447d3c38d6df71d7'
p260
sa(dp261
g2
S'39909'
p262
sg4
S'3663'
p263
sg6
S'c17e96ac34d43b5a75b94e6c10c2580f'
p264
sg8
S'xx2770956730d40aeae2a4dbdacf35644c'
p265
sg10
S'xxe488179d892f9d687d720a8dddbb655b'
p266
sg12
S'xx35436efaa1ebb19e1dc3bfef80869990'
p267
sg14
S'Mozilla/5.0 (Linux; Android 4.4.4; HM 2A Build/KTU84Q) AppleWebKit/537.36 (KHTML, like Gecko) Version/4.0 Chrome/37.0.0.0 Mobile MQQBrowser/6.8 TBS/036869 Safari/537.36 MicroMessenger/6.3.27.880 NetType/WIFI Language/zh_CN'
p268
sg16
S'60ccdd136fc537341e4534874eabce6b'
p269
sa(dp270
g2
S'39909'
p271
sg4
S'3674'
p272
sg6
S'c17e96ac34d43b5a75b94e6c10c2580f'
p273
sg8
S'xx2770956730d40aeae2a4dbdacf35644c'
p274
sg10
S'xxe488179d892f9d687d720a8dddbb655b'
p275
sg12
S'xx35436efaa1ebb19e1dc3bfef80869990'
p276
sg14
S'Mozilla/5.0 (Linux; Android 4.4.4; HM 2A Build/KTU84Q) AppleWebKit/537.36 (KHTML, like Gecko) Version/4.0 Chrome/37.0.0.0 Mobile MQQBrowser/6.8 TBS/036869 Safari/537.36 MicroMessenger/6.3.27.880 NetType/WIFI Language/zh_CN'
p277
sg16
S'60ccdd136fc537341e4534874eabce6b'
p278
sa(dp279
g2
S'46628'
p280
sg4
S'3802'
p281
sg6
S'3f829e89a2ce3cc66811479c1dd2e845'
p282
sg8
S'xx601fc976ab9607d767680fcaa325ed3b'
p283
sg10
S'xxe488179d892f9d687d720a8dddbb655b'
p284
sg12
S'xx35436efaa1ebb19e1dc3bfef80869990'
p285
sg14
S'Mozilla/5.0 (Linux; Android 4.4.4; HM 2A Build/KTU84Q) AppleWebKit/537.36 (KHTML, like Gecko) Version/4.0 Chrome/37.0.0.0 Mobile MQQBrowser/6.8 TBS/036849 Safari/537.36 MicroMessenger/6.3.27.880 NetType/cmnet Language/zh_CN'
p286
sg16
S'54beb339ec1af4cb447d3c38d6df71d7'
p287
sa(dp288
g2
S'46628'
p289
sg4
S'3835'
p290
sg6
S'3f829e89a2ce3cc66811479c1dd2e845'
p291
sg8
S'xx601fc976ab9607d767680fcaa325ed3b'
p292
sg10
S'xxe488179d892f9d687d720a8dddbb655b'
p293
sg12
S'xx35436efaa1ebb19e1dc3bfef80869990'
p294
sg14
S'Mozilla/5.0 (Linux; Android 4.4.4; HM 2A Build/KTU84Q) AppleWebKit/537.36 (KHTML, like Gecko) Version/4.0 Chrome/37.0.0.0 Mobile MQQBrowser/6.8 TBS/036849 Safari/537.36 MicroMessenger/6.3.27.880 NetType/cmnet Language/zh_CN'
p295
sg16
S'54beb339ec1af4cb447d3c38d6df71d7'
p296
sa(dp297
g2
S'46628'
p298
sg4
S'3859'
p299
sg6
S'3f829e89a2ce3cc66811479c1dd2e845'
p300
sg8
S'xx601fc976ab9607d767680fcaa325ed3b'
p301
sg10
S'xxe488179d892f9d687d720a8dddbb655b'
p302
sg12
S'xx35436efaa1ebb19e1dc3bfef80869990'
p303
sg14
S'Mozilla/5.0 (Linux; Android 4.4.4; HM 2A Build/KTU84Q) AppleWebKit/537.36 (KHTML, like Gecko) Version/4.0 Chrome/37.0.0.0 Mobile MQQBrowser/6.8 TBS/036849 Safari/537.36 MicroMessenger/6.3.27.880 NetType/cmnet Language/zh_CN'
p304
sg16
S'54beb339ec1af4cb447d3c38d6df71d7'
p305
sa(dp306
g2
S'39909'
p307
sg4
S'4255'
p308
sg6
S'c17e96ac34d43b5a75b94e6c10c2580f'
p309
sg8
S'xx2770956730d40aeae2a4dbdacf35644c'
p310
sg10
S'xxe488179d892f9d687d720a8dddbb655b'
p311
sg12
S'xx35436efaa1ebb19e1dc3bfef80869990'
p312
sg14
S'Mozilla/5.0 (Linux; Android 4.4.4; HM 2A Build/KTU84Q) AppleWebKit/537.36 (KHTML, like Gecko) Version/4.0 Chrome/37.0.0.0 Mobile MQQBrowser/6.8 TBS/036869 Safari/537.36 MicroMessenger/6.3.27.880 NetType/WIFI Language/zh_CN'
p313
sg16
S'60ccdd136fc537341e4534874eabce6b'
p314
sa(dp315
g2
S'39909'
p316
sg4
S'4385'
p317
sg6
S'c17e96ac34d43b5a75b94e6c10c2580f'
p318
sg8
S'xx2770956730d40aeae2a4dbdacf35644c'
p319
sg10
S'xxe488179d892f9d687d720a8dddbb655b'
p320
sg12
S'xx35436efaa1ebb19e1dc3bfef80869990'
p321
sg14
S'Mozilla/5.0 (Linux; Android 4.4.4; HM 2A Build/KTU84Q) AppleWebKit/537.36 (KHTML, like Gecko) Version/4.0 Chrome/37.0.0.0 Mobile MQQBrowser/6.8 TBS/036869 Safari/537.36 MicroMessenger/6.3.27.880 NetType/WIFI Language/zh_CN'
p322
sg16
S'60ccdd136fc537341e4534874eabce6b'
p323
sa(dp324
g2
S'39909'
p325
sg4
S'4411'
p326
sg6
S'c17e96ac34d43b5a75b94e6c10c2580f'
p327
sg8
S'xx2770956730d40aeae2a4dbdacf35644c'
p328
sg10
S'xxe488179d892f9d687d720a8dddbb655b'
p329
sg12
S'xx35436efaa1ebb19e1dc3bfef80869990'
p330
sg14
S'Mozilla/5.0 (Linux; Android 4.4.4; HM 2A Build/KTU84Q) AppleWebKit/537.36 (KHTML, like Gecko) Version/4.0 Chrome/37.0.0.0 Mobile MQQBrowser/6.8 TBS/036869 Safari/537.36 MicroMessenger/6.3.27.880 NetType/WIFI Language/zh_CN'
p331
sg16
S'60ccdd136fc537341e4534874eabce6b'
p332
sa(dp333
g2
S'46628'
p334
sg4
S'4578'
p335
sg6
S'3f829e89a2ce3cc66811479c1dd2e845'
p336
sg8
S'xx601fc976ab9607d767680fcaa325ed3b'
p337
sg10
S'xxe488179d892f9d687d720a8dddbb655b'
p338
sg12
S'xx35436efaa1ebb19e1dc3bfef80869990'
p339
sg14
S'Mozilla/5.0 (Linux; Android 4.4.4; HM 2A Build/KTU84Q) AppleWebKit/537.36 (KHTML, like Gecko) Version/4.0 Chrome/37.0.0.0 Mobile MQQBrowser/6.8 TBS/036849 Safari/537.36 MicroMessenger/6.3.27.880 NetType/cmnet Language/zh_CN'
p340
sg16
S'54beb339ec1af4cb447d3c38d6df71d7'
p341
sa(dp342
g2
S'46628'
p343
sg4
S'4597'
p344
sg6
S'3f829e89a2ce3cc66811479c1dd2e845'
p345
sg8
S'xx601fc976ab9607d767680fcaa325ed3b'
p346
sg10
S'xxe488179d892f9d687d720a8dddbb655b'
p347
sg12
S'xx35436efaa1ebb19e1dc3bfef80869990'
p348
sg14
S'Mozilla/5.0 (Linux; Android 4.4.4; HM 2A Build/KTU84Q) AppleWebKit/537.36 (KHTML, like Gecko) Version/4.0 Chrome/37.0.0.0 Mobile MQQBrowser/6.8 TBS/036849 Safari/537.36 MicroMessenger/6.3.27.880 NetType/cmnet Language/zh_CN'
p349
sg16
S'54beb339ec1af4cb447d3c38d6df71d7'
p350
sa(dp351
g2
S'46628'
p352
sg4
S'4949'
p353
sg6
S'3f829e89a2ce3cc66811479c1dd2e845'
p354
sg8
S'xx601fc976ab9607d767680fcaa325ed3b'
p355
sg10
S'xxe488179d892f9d687d720a8dddbb655b'
p356
sg12
S'xx35436efaa1ebb19e1dc3bfef80869990'
p357
sg14
S'Mozilla/5.0 (Linux; Android 4.4.4; HM 2A Build/KTU84Q) AppleWebKit/537.36 (KHTML, like Gecko) Version/4.0 Chrome/37.0.0.0 Mobile MQQBrowser/6.8 TBS/036849 Safari/537.36 MicroMessenger/6.3.27.880 NetType/cmnet Language/zh_CN'
p358
sg16
S'54beb339ec1af4cb447d3c38d6df71d7'
p359
sa(dp360
g2
S'46628'
p361
sg4
S'4964'
p362
sg6
S'3f829e89a2ce3cc66811479c1dd2e845'
p363
sg8
S'xx601fc976ab9607d767680fcaa325ed3b'
p364
sg10
S'xxe488179d892f9d687d720a8dddbb655b'
p365
sg12
S'xx35436efaa1ebb19e1dc3bfef80869990'
p366
sg14
S'Mozilla/5.0 (Linux; Android 4.4.4; HM 2A Build/KTU84Q) AppleWebKit/537.36 (KHTML, like Gecko) Version/4.0 Chrome/37.0.0.0 Mobile MQQBrowser/6.8 TBS/036849 Safari/537.36 MicroMessenger/6.3.27.880 NetType/cmnet Language/zh_CN'
p367
sg16
S'54beb339ec1af4cb447d3c38d6df71d7'
p368
sa(dp369
g2
S'46628'
p370
sg4
S'5030'
p371
sg6
S'307e5f8471dc4baa1c40a466550658f2'
p372
sg8
S'xx06d713d1b2846852f66208af255c1caf'
p373
sg10
S'xxe488179d892f9d687d720a8dddbb655b'
p374
sg12
S'xx35436efaa1ebb19e1dc3bfef80869990'
p375
sg14
S'Mozilla/5.0 (Linux; Android 4.4.4; HM 2A Build/KTU84Q) AppleWebKit/537.36 (KHTML, like Gecko) Version/4.0 Chrome/37.0.0.0 Mobile MQQBrowser/6.8 TBS/036849 Safari/537.36 MicroMessenger/6.3.27.880 NetType/WIFI Language/zh_CN'
p376
sg16
S'c1c433964d7589b095d86945a99ce90e'
p377
sa(dp378
g2
S'46628'
p379
sg4
S'5051'
p380
sg6
S'307e5f8471dc4baa1c40a466550658f2'
p381
sg8
S'xx06d713d1b2846852f66208af255c1caf'
p382
sg10
S'xxe488179d892f9d687d720a8dddbb655b'
p383
sg12
S'xx35436efaa1ebb19e1dc3bfef80869990'
p384
sg14
S'Mozilla/5.0 (Linux; Android 4.4.4; HM 2A Build/KTU84Q) AppleWebKit/537.36 (KHTML, like Gecko) Version/4.0 Chrome/37.0.0.0 Mobile MQQBrowser/6.8 TBS/036849 Safari/537.36 MicroMessenger/6.3.27.880 NetType/WIFI Language/zh_CN'
p385
sg16
S'c1c433964d7589b095d86945a99ce90e'
p386
sa(dp387
g2
S'46628'
p388
sg4
S'5076'
p389
sg6
S'307e5f8471dc4baa1c40a466550658f2'
p390
sg8
S'xx06d713d1b2846852f66208af255c1caf'
p391
sg10
S'xxe488179d892f9d687d720a8dddbb655b'
p392
sg12
S'xx35436efaa1ebb19e1dc3bfef80869990'
p393
sg14
S'Mozilla/5.0 (Linux; Android 4.4.4; HM 2A Build/KTU84Q) AppleWebKit/537.36 (KHTML, like Gecko) Version/4.0 Chrome/37.0.0.0 Mobile MQQBrowser/6.8 TBS/036849 Safari/537.36 MicroMessenger/6.3.27.880 NetType/WIFI Language/zh_CN'
p394
sg16
S'c1c433964d7589b095d86945a99ce90e'
p395
sa(dp396
g2
S'46628'
p397
sg4
S'5088'
p398
sg6
S'307e5f8471dc4baa1c40a466550658f2'
p399
sg8
S'xx06d713d1b2846852f66208af255c1caf'
p400
sg10
S'xxe488179d892f9d687d720a8dddbb655b'
p401
sg12
S'xx35436efaa1ebb19e1dc3bfef80869990'
p402
sg14
S'Mozilla/5.0 (Linux; Android 4.4.4; HM 2A Build/KTU84Q) AppleWebKit/537.36 (KHTML, like Gecko) Version/4.0 Chrome/37.0.0.0 Mobile MQQBrowser/6.8 TBS/036849 Safari/537.36 MicroMessenger/6.3.27.880 NetType/WIFI Language/zh_CN'
p403
sg16
S'c1c433964d7589b095d86945a99ce90e'
p404
sa(dp405
g2
S'46628'
p406
sg4
S'5105'
p407
sg6
S'307e5f8471dc4baa1c40a466550658f2'
p408
sg8
S'xx06d713d1b2846852f66208af255c1caf'
p409
sg10
S'xxe488179d892f9d687d720a8dddbb655b'
p410
sg12
S'xx35436efaa1ebb19e1dc3bfef80869990'
p411
sg14
S'Mozilla/5.0 (Linux; Android 4.4.4; HM 2A Build/KTU84Q) AppleWebKit/537.36 (KHTML, like Gecko) Version/4.0 Chrome/37.0.0.0 Mobile MQQBrowser/6.8 TBS/036849 Safari/537.36 MicroMessenger/6.3.27.880 NetType/WIFI Language/zh_CN'
p412
sg16
S'c1c433964d7589b095d86945a99ce90e'
p413
sa(dp414
g2
S'46628'
p415
sg4
S'5120'
p416
sg6
S'307e5f8471dc4baa1c40a466550658f2'
p417
sg8
S'xx06d713d1b2846852f66208af255c1caf'
p418
sg10
S'xxe488179d892f9d687d720a8dddbb655b'
p419
sg12
S'xx35436efaa1ebb19e1dc3bfef80869990'
p420
sg14
S'Mozilla/5.0 (Linux; Android 4.4.4; HM 2A Build/KTU84Q) AppleWebKit/537.36 (KHTML, like Gecko) Version/4.0 Chrome/37.0.0.0 Mobile MQQBrowser/6.8 TBS/036849 Safari/537.36 MicroMessenger/6.3.27.880 NetType/WIFI Language/zh_CN'
p421
sg16
S'c1c433964d7589b095d86945a99ce90e'
p422
sa(dp423
g2
S'46628'
p424
sg4
S'5133'
p425
sg6
S'307e5f8471dc4baa1c40a466550658f2'
p426
sg8
S'xx06d713d1b2846852f66208af255c1caf'
p427
sg10
S'xxe488179d892f9d687d720a8dddbb655b'
p428
sg12
S'xx35436efaa1ebb19e1dc3bfef80869990'
p429
sg14
S'Mozilla/5.0 (Linux; Android 4.4.4; HM 2A Build/KTU84Q) AppleWebKit/537.36 (KHTML, like Gecko) Version/4.0 Chrome/37.0.0.0 Mobile MQQBrowser/6.8 TBS/036849 Safari/537.36 MicroMessenger/6.3.27.880 NetType/WIFI Language/zh_CN'
p430
sg16
S'c1c433964d7589b095d86945a99ce90e'
p431
sa(dp432
g2
S'39909'
p433
sg4
S'5154'
p434
sg6
S'c17e96ac34d43b5a75b94e6c10c2580f'
p435
sg8
S'xx2770956730d40aeae2a4dbdacf35644c'
p436
sg10
S'xxe488179d892f9d687d720a8dddbb655b'
p437
sg12
S'xx35436efaa1ebb19e1dc3bfef80869990'
p438
sg14
S'Mozilla/5.0 (Linux; Android 4.4.4; HM 2A Build/KTU84Q) AppleWebKit/537.36 (KHTML, like Gecko) Version/4.0 Chrome/37.0.0.0 Mobile MQQBrowser/6.8 TBS/036869 Safari/537.36 MicroMessenger/6.3.27.880 NetType/WIFI Language/zh_CN'
p439
sg16
S'60ccdd136fc537341e4534874eabce6b'
p440
sa(dp441
g2
S'39909'
p442
sg4
S'5174'
p443
sg6
S'c17e96ac34d43b5a75b94e6c10c2580f'
p444
sg8
S'xx2770956730d40aeae2a4dbdacf35644c'
p445
sg10
S'xxe488179d892f9d687d720a8dddbb655b'
p446
sg12
S'xx35436efaa1ebb19e1dc3bfef80869990'
p447
sg14
S'Mozilla/5.0 (Linux; Android 4.4.4; HM 2A Build/KTU84Q) AppleWebKit/537.36 (KHTML, like Gecko) Version/4.0 Chrome/37.0.0.0 Mobile MQQBrowser/6.8 TBS/036869 Safari/537.36 MicroMessenger/6.3.27.880 NetType/WIFI Language/zh_CN'
p448
sg16
S'60ccdd136fc537341e4534874eabce6b'
p449
sa(dp450
g2
S'46628'
p451
sg4
S'5554'
p452
sg6
S'307e5f8471dc4baa1c40a466550658f2'
p453
sg8
S'xx06d713d1b2846852f66208af255c1caf'
p454
sg10
S'xxe488179d892f9d687d720a8dddbb655b'
p455
sg12
S'xx35436efaa1ebb19e1dc3bfef80869990'
p456
sg14
S'Mozilla/5.0 (Linux; Android 4.4.4; HM 2A Build/KTU84Q) AppleWebKit/537.36 (KHTML, like Gecko) Version/4.0 Chrome/37.0.0.0 Mobile MQQBrowser/6.8 TBS/036849 Safari/537.36 MicroMessenger/6.3.27.880 NetType/WIFI Language/zh_CN'
p457
sg16
S'c1c433964d7589b095d86945a99ce90e'
p458
sa(dp459
g2
S'46628'
p460
sg4
S'5568'
p461
sg6
S'307e5f8471dc4baa1c40a466550658f2'
p462
sg8
S'xx06d713d1b2846852f66208af255c1caf'
p463
sg10
S'xxe488179d892f9d687d720a8dddbb655b'
p464
sg12
S'xx35436efaa1ebb19e1dc3bfef80869990'
p465
sg14
S'Mozilla/5.0 (Linux; Android 4.4.4; HM 2A Build/KTU84Q) AppleWebKit/537.36 (KHTML, like Gecko) Version/4.0 Chrome/37.0.0.0 Mobile MQQBrowser/6.8 TBS/036849 Safari/537.36 MicroMessenger/6.3.27.880 NetType/WIFI Language/zh_CN'
p466
sg16
S'c1c433964d7589b095d86945a99ce90e'
p467
sa(dp468
g2
S'46628'
p469
sg4
S'5579'
p470
sg6
S'307e5f8471dc4baa1c40a466550658f2'
p471
sg8
S'xx06d713d1b2846852f66208af255c1caf'
p472
sg10
S'xxe488179d892f9d687d720a8dddbb655b'
p473
sg12
S'xx35436efaa1ebb19e1dc3bfef80869990'
p474
sg14
S'Mozilla/5.0 (Linux; Android 4.4.4; HM 2A Build/KTU84Q) AppleWebKit/537.36 (KHTML, like Gecko) Version/4.0 Chrome/37.0.0.0 Mobile MQQBrowser/6.8 TBS/036849 Safari/537.36 MicroMessenger/6.3.27.880 NetType/WIFI Language/zh_CN'
p475
sg16
S'c1c433964d7589b095d86945a99ce90e'
p476
sa(dp477
g2
S'46628'
p478
sg4
S'5604'
p479
sg6
S'307e5f8471dc4baa1c40a466550658f2'
p480
sg8
S'xx06d713d1b2846852f66208af255c1caf'
p481
sg10
S'xxe488179d892f9d687d720a8dddbb655b'
p482
sg12
S'xx35436efaa1ebb19e1dc3bfef80869990'
p483
sg14
S'Mozilla/5.0 (Linux; Android 4.4.4; HM 2A Build/KTU84Q) AppleWebKit/537.36 (KHTML, like Gecko) Version/4.0 Chrome/37.0.0.0 Mobile MQQBrowser/6.8 TBS/036849 Safari/537.36 MicroMessenger/6.3.27.880 NetType/WIFI Language/zh_CN'
p484
sg16
S'c1c433964d7589b095d86945a99ce90e'
p485
sa(dp486
g2
S'46628'
p487
sg4
S'5619'
p488
sg6
S'307e5f8471dc4baa1c40a466550658f2'
p489
sg8
S'xx06d713d1b2846852f66208af255c1caf'
p490
sg10
S'xxe488179d892f9d687d720a8dddbb655b'
p491
sg12
S'xx35436efaa1ebb19e1dc3bfef80869990'
p492
sg14
S'Mozilla/5.0 (Linux; Android 4.4.4; HM 2A Build/KTU84Q) AppleWebKit/537.36 (KHTML, like Gecko) Version/4.0 Chrome/37.0.0.0 Mobile MQQBrowser/6.8 TBS/036849 Safari/537.36 MicroMessenger/6.3.27.880 NetType/WIFI Language/zh_CN'
p493
sg16
S'c1c433964d7589b095d86945a99ce90e'
p494
sa(dp495
g2
S'46628'
p496
sg4
S'5634'
p497
sg6
S'307e5f8471dc4baa1c40a466550658f2'
p498
sg8
S'xx06d713d1b2846852f66208af255c1caf'
p499
sg10
S'xxe488179d892f9d687d720a8dddbb655b'
p500
sg12
S'xx35436efaa1ebb19e1dc3bfef80869990'
p501
sg14
S'Mozilla/5.0 (Linux; Android 4.4.4; HM 2A Build/KTU84Q) AppleWebKit/537.36 (KHTML, like Gecko) Version/4.0 Chrome/37.0.0.0 Mobile MQQBrowser/6.8 TBS/036849 Safari/537.36 MicroMessenger/6.3.27.880 NetType/WIFI Language/zh_CN'
p502
sg16
S'c1c433964d7589b095d86945a99ce90e'
p503
sa(dp504
g2
S'46628'
p505
sg4
S'5649'
p506
sg6
S'307e5f8471dc4baa1c40a466550658f2'
p507
sg8
S'xx06d713d1b2846852f66208af255c1caf'
p508
sg10
S'xxe488179d892f9d687d720a8dddbb655b'
p509
sg12
S'xx35436efaa1ebb19e1dc3bfef80869990'
p510
sg14
S'Mozilla/5.0 (Linux; Android 4.4.4; HM 2A Build/KTU84Q) AppleWebKit/537.36 (KHTML, like Gecko) Version/4.0 Chrome/37.0.0.0 Mobile MQQBrowser/6.8 TBS/036849 Safari/537.36 MicroMessenger/6.3.27.880 NetType/WIFI Language/zh_CN'
p511
sg16
S'c1c433964d7589b095d86945a99ce90e'
p512
sa(dp513
g2
S'34943'
p514
sg4
S'5703'
p515
sg6
S'7e2000ebab7c43b0c7fc851d1e875257'
p516
sg8
S'xxca7938d4a8c78d19815e4b4ff0ed2eb9'
p517
sg10
S'xxe488179d892f9d687d720a8dddbb655b'
p518
sg12
S'xx35436efaa1ebb19e1dc3bfef80869990'
p519
sg14
S'Mozilla/5.0 (Linux; Android 4.4.4; HM 2A Build/KTU84Q) AppleWebKit/537.36 (KHTML, like Gecko) Version/4.0 Chrome/37.0.0.0 Mobile MQQBrowser/6.8 TBS/036824 Safari/537.36 MicroMessenger/6.3.27.880 NetType/WIFI Language/zh_CN'
p520
sg16
S'90dd4a3d8bbac9957b59b2d5bcd06516'
p521
sa(dp522
g2
S'34943'
p523
sg4
S'5717'
p524
sg6
S'7e2000ebab7c43b0c7fc851d1e875257'
p525
sg8
S'xxca7938d4a8c78d19815e4b4ff0ed2eb9'
p526
sg10
S'xxe488179d892f9d687d720a8dddbb655b'
p527
sg12
S'xx35436efaa1ebb19e1dc3bfef80869990'
p528
sg14
S'Mozilla/5.0 (Linux; Android 4.4.4; HM 2A Build/KTU84Q) AppleWebKit/537.36 (KHTML, like Gecko) Version/4.0 Chrome/37.0.0.0 Mobile MQQBrowser/6.8 TBS/036824 Safari/537.36 MicroMessenger/6.3.27.880 NetType/WIFI Language/zh_CN'
p529
sg16
S'90dd4a3d8bbac9957b59b2d5bcd06516'
p530
sa(dp531
g2
S'49803'
p532
sg4
S'5992'
p533
sg6
S'83f5d8cfcd78f29466dca6167994ebe7'
p534
sg8
S'xx728c59427d3cef9822cd7bd5372bc020'
p535
sg10
S'xxe488179d892f9d687d720a8dddbb655b'
p536
sg12
S'xx35436efaa1ebb19e1dc3bfef80869990'
p537
sg14
S'Mozilla/5.0 (Linux; Android 4.4.4; HM 2A Build/KTU84Q) AppleWebKit/537.36 (KHTML, like Gecko) Version/4.0 Chrome/37.0.0.0 Mobile MQQBrowser/6.8 TBS/036849 Safari/537.36 MicroMessenger/6.3.25.861 NetType/WIFI Language/zh_CN'
p538
sg16
S'5a9336bffacf82f0afdc469fe118e26b'
p539
sa(dp540
g2
S'49803'
p541
sg4
S'6005'
p542
sg6
S'83f5d8cfcd78f29466dca6167994ebe7'
p543
sg8
S'xx728c59427d3cef9822cd7bd5372bc020'
p544
sg10
S'xxe488179d892f9d687d720a8dddbb655b'
p545
sg12
S'xx35436efaa1ebb19e1dc3bfef80869990'
p546
sg14
S'Mozilla/5.0 (Linux; Android 4.4.4; HM 2A Build/KTU84Q) AppleWebKit/537.36 (KHTML, like Gecko) Version/4.0 Chrome/37.0.0.0 Mobile MQQBrowser/6.8 TBS/036849 Safari/537.36 MicroMessenger/6.3.25.861 NetType/WIFI Language/zh_CN'
p547
sg16
S'5a9336bffacf82f0afdc469fe118e26b'
p548
sa(dp549
g2
S'49803'
p550
sg4
S'6018'
p551
sg6
S'83f5d8cfcd78f29466dca6167994ebe7'
p552
sg8
S'xx728c59427d3cef9822cd7bd5372bc020'
p553
sg10
S'xxe488179d892f9d687d720a8dddbb655b'
p554
sg12
S'xx35436efaa1ebb19e1dc3bfef80869990'
p555
sg14
S'Mozilla/5.0 (Linux; Android 4.4.4; HM 2A Build/KTU84Q) AppleWebKit/537.36 (KHTML, like Gecko) Version/4.0 Chrome/37.0.0.0 Mobile MQQBrowser/6.8 TBS/036849 Safari/537.36 MicroMessenger/6.3.25.861 NetType/WIFI Language/zh_CN'
p556
sg16
S'5a9336bffacf82f0afdc469fe118e26b'
p557
sa(dp558
g2
S'49803'
p559
sg4
S'6029'
p560
sg6
S'83f5d8cfcd78f29466dca6167994ebe7'
p561
sg8
S'xx728c59427d3cef9822cd7bd5372bc020'
p562
sg10
S'xxe488179d892f9d687d720a8dddbb655b'
p563
sg12
S'xx35436efaa1ebb19e1dc3bfef80869990'
p564
sg14
S'Mozilla/5.0 (Linux; Android 4.4.4; HM 2A Build/KTU84Q) AppleWebKit/537.36 (KHTML, like Gecko) Version/4.0 Chrome/37.0.0.0 Mobile MQQBrowser/6.8 TBS/036849 Safari/537.36 MicroMessenger/6.3.25.861 NetType/WIFI Language/zh_CN'
p565
sg16
S'5a9336bffacf82f0afdc469fe118e26b'
p566
sa(dp567
g2
S'49803'
p568
sg4
S'6042'
p569
sg6
S'83f5d8cfcd78f29466dca6167994ebe7'
p570
sg8
S'xx728c59427d3cef9822cd7bd5372bc020'
p571
sg10
S'xxe488179d892f9d687d720a8dddbb655b'
p572
sg12
S'xx35436efaa1ebb19e1dc3bfef80869990'
p573
sg14
S'Mozilla/5.0 (Linux; Android 4.4.4; HM 2A Build/KTU84Q) AppleWebKit/537.36 (KHTML, like Gecko) Version/4.0 Chrome/37.0.0.0 Mobile MQQBrowser/6.8 TBS/036849 Safari/537.36 MicroMessenger/6.3.25.861 NetType/WIFI Language/zh_CN'
p574
sg16
S'5a9336bffacf82f0afdc469fe118e26b'
p575
sa(dp576
g2
S'49803'
p577
sg4
S'6059'
p578
sg6
S'83f5d8cfcd78f29466dca6167994ebe7'
p579
sg8
S'xx728c59427d3cef9822cd7bd5372bc020'
p580
sg10
S'xxe488179d892f9d687d720a8dddbb655b'
p581
sg12
S'xx35436efaa1ebb19e1dc3bfef80869990'
p582
sg14
S'Mozilla/5.0 (Linux; Android 4.4.4; HM 2A Build/KTU84Q) AppleWebKit/537.36 (KHTML, like Gecko) Version/4.0 Chrome/37.0.0.0 Mobile MQQBrowser/6.8 TBS/036849 Safari/537.36 MicroMessenger/6.3.25.861 NetType/WIFI Language/zh_CN'
p583
sg16
S'5a9336bffacf82f0afdc469fe118e26b'
p584
sa(dp585
g2
S'48448'
p586
sg4
S'7218'
p587
sg6
S'269ada9eb9f889abb8b8833f5a709933'
p588
sg8
S'xxca7938d4a8c78d19815e4b4ff0ed2eb9'
p589
sg10
S'xxe488179d892f9d687d720a8dddbb655b'
p590
sg12
S'xx35436efaa1ebb19e1dc3bfef80869990'
p591
sg14
S'Mozilla/5.0 (Linux; Android 4.4.4; HM 2A Build/KTU84Q) AppleWebKit/537.36 (KHTML, like Gecko) Version/4.0 Chrome/37.0.0.0 Mobile MQQBrowser/6.8 TBS/036824 Safari/537.36 MicroMessenger/6.3.27.880 NetType/WIFI Language/zh_CN'
p592
sg16
S'90dd4a3d8bbac9957b59b2d5bcd06516'
p593
sa(dp594
g2
S'48448'
p595
sg4
S'7228'
p596
sg6
S'269ada9eb9f889abb8b8833f5a709933'
p597
sg8
S'xxca7938d4a8c78d19815e4b4ff0ed2eb9'
p598
sg10
S'xxe488179d892f9d687d720a8dddbb655b'
p599
sg12
S'xx35436efaa1ebb19e1dc3bfef80869990'
p600
sg14
S'Mozilla/5.0 (Linux; Android 4.4.4; HM 2A Build/KTU84Q) AppleWebKit/537.36 (KHTML, like Gecko) Version/4.0 Chrome/37.0.0.0 Mobile MQQBrowser/6.8 TBS/036824 Safari/537.36 MicroMessenger/6.3.27.880 NetType/WIFI Language/zh_CN'
p601
sg16
S'90dd4a3d8bbac9957b59b2d5bcd06516'
p602
sa(dp603
g2
S'48448'
p604
sg4
S'7242'
p605
sg6
S'269ada9eb9f889abb8b8833f5a709933'
p606
sg8
S'xxca7938d4a8c78d19815e4b4ff0ed2eb9'
p607
sg10
S'xxe488179d892f9d687d720a8dddbb655b'
p608
sg12
S'xx35436efaa1ebb19e1dc3bfef80869990'
p609
sg14
S'Mozilla/5.0 (Linux; Android 4.4.4; HM 2A Build/KTU84Q) AppleWebKit/537.36 (KHTML, like Gecko) Version/4.0 Chrome/37.0.0.0 Mobile MQQBrowser/6.8 TBS/036824 Safari/537.36 MicroMessenger/6.3.27.880 NetType/WIFI Language/zh_CN'
p610
sg16
S'90dd4a3d8bbac9957b59b2d5bcd06516'
p611
sa(dp612
g2
S'30056'
p613
sg4
S'7431'
p614
sg6
S'84c6fea1a0efc618b52a026523e50a51'
p615
sg8
S'xx06d713d1b2846852f66208af255c1caf'
p616
sg10
S'xxe488179d892f9d687d720a8dddbb655b'
p617
sg12
S'xx35436efaa1ebb19e1dc3bfef80869990'
p618
sg14
S'Mozilla/5.0 (Linux; Android 4.4.4; HM 2A Build/KTU84Q) AppleWebKit/537.36 (KHTML, like Gecko) Version/4.0 Chrome/37.0.0.0 Mobile MQQBrowser/6.8 TBS/036849 Safari/537.36 MicroMessenger/6.3.27.880 NetType/WIFI Language/zh_CN'
p619
sg16
S'c1c433964d7589b095d86945a99ce90e'
p620
sa(dp621
g2
S'30056'
p622
sg4
S'7452'
p623
sg6
S'84c6fea1a0efc618b52a026523e50a51'
p624
sg8
S'xx06d713d1b2846852f66208af255c1caf'
p625
sg10
S'xxe488179d892f9d687d720a8dddbb655b'
p626
sg12
S'xx35436efaa1ebb19e1dc3bfef80869990'
p627
sg14
S'Mozilla/5.0 (Linux; Android 4.4.4; HM 2A Build/KTU84Q) AppleWebKit/537.36 (KHTML, like Gecko) Version/4.0 Chrome/37.0.0.0 Mobile MQQBrowser/6.8 TBS/036849 Safari/537.36 MicroMessenger/6.3.27.880 NetType/WIFI Language/zh_CN'
p628
sg16
S'c1c433964d7589b095d86945a99ce90e'
p629
sa(dp630
g2
S'30056'
p631
sg4
S'7465'
p632
sg6
S'84c6fea1a0efc618b52a026523e50a51'
p633
sg8
S'xx06d713d1b2846852f66208af255c1caf'
p634
sg10
S'xxe488179d892f9d687d720a8dddbb655b'
p635
sg12
S'xx35436efaa1ebb19e1dc3bfef80869990'
p636
sg14
S'Mozilla/5.0 (Linux; Android 4.4.4; HM 2A Build/KTU84Q) AppleWebKit/537.36 (KHTML, like Gecko) Version/4.0 Chrome/37.0.0.0 Mobile MQQBrowser/6.8 TBS/036849 Safari/537.36 MicroMessenger/6.3.27.880 NetType/WIFI Language/zh_CN'
p637
sg16
S'c1c433964d7589b095d86945a99ce90e'
p638
sa(dp639
g2
S'49837'
p640
sg4
S'7643'
p641
sg6
S'83f5d8cfcd78f29466dca6167994ebe7'
p642
sg8
S'xx06d713d1b2846852f66208af255c1caf'
p643
sg10
S'xxe488179d892f9d687d720a8dddbb655b'
p644
sg12
S'xx35436efaa1ebb19e1dc3bfef80869990'
p645
sg14
S'Mozilla/5.0 (Linux; Android 4.4.4; HM 2A Build/KTU84Q) AppleWebKit/537.36 (KHTML, like Gecko) Version/4.0 Chrome/37.0.0.0 Mobile MQQBrowser/6.8 TBS/036849 Safari/537.36 MicroMessenger/6.3.27.880 NetType/WIFI Language/zh_CN'
p646
sg16
S'c1c433964d7589b095d86945a99ce90e'
p647
sa(dp648
g2
S'49837'
p649
sg4
S'7656'
p650
sg6
S'83f5d8cfcd78f29466dca6167994ebe7'
p651
sg8
S'xx06d713d1b2846852f66208af255c1caf'
p652
sg10
S'xxe488179d892f9d687d720a8dddbb655b'
p653
sg12
S'xx35436efaa1ebb19e1dc3bfef80869990'
p654
sg14
S'Mozilla/5.0 (Linux; Android 4.4.4; HM 2A Build/KTU84Q) AppleWebKit/537.36 (KHTML, like Gecko) Version/4.0 Chrome/37.0.0.0 Mobile MQQBrowser/6.8 TBS/036849 Safari/537.36 MicroMessenger/6.3.27.880 NetType/WIFI Language/zh_CN'
p655
sg16
S'c1c433964d7589b095d86945a99ce90e'
p656
sa(dp657
g2
S'19438'
p658
sg4
S'7950'
p659
sg6
S'd66c95a4c1c7aa3ad1fe1162a8491ff3'
p660
sg8
S'xx06d713d1b2846852f66208af255c1caf'
p661
sg10
S'xxe488179d892f9d687d720a8dddbb655b'
p662
sg12
S'xx35436efaa1ebb19e1dc3bfef80869990'
p663
sg14
S'Mozilla/5.0 (Linux; Android 4.4.4; HM 2A Build/KTU84Q) AppleWebKit/537.36 (KHTML, like Gecko) Version/4.0 Chrome/37.0.0.0 Mobile MQQBrowser/6.8 TBS/036849 Safari/537.36 MicroMessenger/6.3.27.880 NetType/WIFI Language/zh_CN'
p664
sg16
S'c1c433964d7589b095d86945a99ce90e'
p665
sa(dp666
g2
S'19438'
p667
sg4
S'7969'
p668
sg6
S'd66c95a4c1c7aa3ad1fe1162a8491ff3'
p669
sg8
S'xx06d713d1b2846852f66208af255c1caf'
p670
sg10
S'xxe488179d892f9d687d720a8dddbb655b'
p671
sg12
S'xx35436efaa1ebb19e1dc3bfef80869990'
p672
sg14
S'Mozilla/5.0 (Linux; Android 4.4.4; HM 2A Build/KTU84Q) AppleWebKit/537.36 (KHTML, like Gecko) Version/4.0 Chrome/37.0.0.0 Mobile MQQBrowser/6.8 TBS/036849 Safari/537.36 MicroMessenger/6.3.27.880 NetType/WIFI Language/zh_CN'
p673
sg16
S'c1c433964d7589b095d86945a99ce90e'
p674
sa(dp675
g2
S'37473'
p676
sg4
S'8539'
p677
sg6
S'79b2b9904f23a9b5f103957129608106'
p678
sg8
S'xx2770956730d40aeae2a4dbdacf35644c'
p679
sg10
S'xxe488179d892f9d687d720a8dddbb655b'
p680
sg12
S'xx35436efaa1ebb19e1dc3bfef80869990'
p681
sg14
S'Mozilla/5.0 (Linux; Android 4.4.4; HM 2A Build/KTU84Q) AppleWebKit/537.36 (KHTML, like Gecko) Version/4.0 Chrome/37.0.0.0 Mobile MQQBrowser/6.8 TBS/036869 Safari/537.36 MicroMessenger/6.3.27.880 NetType/WIFI Language/zh_CN'
p682
sg16
S'60ccdd136fc537341e4534874eabce6b'
p683
sa(dp684
g2
S'49856'
p685
sg4
S'8543'
p686
sg6
S'84c6fea1a0efc618b52a026523e50a51'
p687
sg8
S'xx06d713d1b2846852f66208af255c1caf'
p688
sg10
S'xxe488179d892f9d687d720a8dddbb655b'
p689
sg12
S'xx35436efaa1ebb19e1dc3bfef80869990'
p690
sg14
S'Mozilla/5.0 (Linux; Android 4.4.4; HM 2A Build/KTU84Q) AppleWebKit/537.36 (KHTML, like Gecko) Version/4.0 Chrome/37.0.0.0 Mobile MQQBrowser/6.8 TBS/036849 Safari/537.36 MicroMessenger/6.3.27.880 NetType/WIFI Language/zh_CN'
p691
sg16
S'c1c433964d7589b095d86945a99ce90e'
p692
sa(dp693
g2
S'37473'
p694
sg4
S'8554'
p695
sg6
S'79b2b9904f23a9b5f103957129608106'
p696
sg8
S'xx2770956730d40aeae2a4dbdacf35644c'
p697
sg10
S'xxe488179d892f9d687d720a8dddbb655b'
p698
sg12
S'xx35436efaa1ebb19e1dc3bfef80869990'
p699
sg14
S'Mozilla/5.0 (Linux; Android 4.4.4; HM 2A Build/KTU84Q) AppleWebKit/537.36 (KHTML, like Gecko) Version/4.0 Chrome/37.0.0.0 Mobile MQQBrowser/6.8 TBS/036869 Safari/537.36 MicroMessenger/6.3.27.880 NetType/WIFI Language/zh_CN'
p700
sg16
S'60ccdd136fc537341e4534874eabce6b'
p701
sa(dp702
g2
S'49856'
p703
sg4
S'8557'
p704
sg6
S'84c6fea1a0efc618b52a026523e50a51'
p705
sg8
S'xx06d713d1b2846852f66208af255c1caf'
p706
sg10
S'xxe488179d892f9d687d720a8dddbb655b'
p707
sg12
S'xx35436efaa1ebb19e1dc3bfef80869990'
p708
sg14
S'Mozilla/5.0 (Linux; Android 4.4.4; HM 2A Build/KTU84Q) AppleWebKit/537.36 (KHTML, like Gecko) Version/4.0 Chrome/37.0.0.0 Mobile MQQBrowser/6.8 TBS/036849 Safari/537.36 MicroMessenger/6.3.27.880 NetType/WIFI Language/zh_CN'
p709
sg16
S'c1c433964d7589b095d86945a99ce90e'
p710
sa(dp711
g2
S'37473'
p712
sg4
S'8570'
p713
sg6
S'79b2b9904f23a9b5f103957129608106'
p714
sg8
S'xx2770956730d40aeae2a4dbdacf35644c'
p715
sg10
S'xxe488179d892f9d687d720a8dddbb655b'
p716
sg12
S'xx35436efaa1ebb19e1dc3bfef80869990'
p717
sg14
S'Mozilla/5.0 (Linux; Android 4.4.4; HM 2A Build/KTU84Q) AppleWebKit/537.36 (KHTML, like Gecko) Version/4.0 Chrome/37.0.0.0 Mobile MQQBrowser/6.8 TBS/036869 Safari/537.36 MicroMessenger/6.3.27.880 NetType/WIFI Language/zh_CN'
p718
sg16
S'60ccdd136fc537341e4534874eabce6b'
p719
sa(dp720
g2
S'37473'
p721
sg4
S'8585'
p722
sg6
S'79b2b9904f23a9b5f103957129608106'
p723
sg8
S'xx2770956730d40aeae2a4dbdacf35644c'
p724
sg10
S'xxe488179d892f9d687d720a8dddbb655b'
p725
sg12
S'xx35436efaa1ebb19e1dc3bfef80869990'
p726
sg14
S'Mozilla/5.0 (Linux; Android 4.4.4; HM 2A Build/KTU84Q) AppleWebKit/537.36 (KHTML, like Gecko) Version/4.0 Chrome/37.0.0.0 Mobile MQQBrowser/6.8 TBS/036869 Safari/537.36 MicroMessenger/6.3.27.880 NetType/WIFI Language/zh_CN'
p727
sg16
S'60ccdd136fc537341e4534874eabce6b'
p728
sa(dp729
g2
S'37473'
p730
sg4
S'8604'
p731
sg6
S'79b2b9904f23a9b5f103957129608106'
p732
sg8
S'xx2770956730d40aeae2a4dbdacf35644c'
p733
sg10
S'xxe488179d892f9d687d720a8dddbb655b'
p734
sg12
S'xx35436efaa1ebb19e1dc3bfef80869990'
p735
sg14
S'Mozilla/5.0 (Linux; Android 4.4.4; HM 2A Build/KTU84Q) AppleWebKit/537.36 (KHTML, like Gecko) Version/4.0 Chrome/37.0.0.0 Mobile MQQBrowser/6.8 TBS/036869 Safari/537.36 MicroMessenger/6.3.27.880 NetType/WIFI Language/zh_CN'
p736
sg16
S'60ccdd136fc537341e4534874eabce6b'
p737
sa(dp738
g2
S'37473'
p739
sg4
S'8625'
p740
sg6
S'79b2b9904f23a9b5f103957129608106'
p741
sg8
S'xx2770956730d40aeae2a4dbdacf35644c'
p742
sg10
S'xxe488179d892f9d687d720a8dddbb655b'
p743
sg12
S'xx35436efaa1ebb19e1dc3bfef80869990'
p744
sg14
S'Mozilla/5.0 (Linux; Android 4.4.4; HM 2A Build/KTU84Q) AppleWebKit/537.36 (KHTML, like Gecko) Version/4.0 Chrome/37.0.0.0 Mobile MQQBrowser/6.8 TBS/036869 Safari/537.36 MicroMessenger/6.3.27.880 NetType/WIFI Language/zh_CN'
p745
sg16
S'60ccdd136fc537341e4534874eabce6b'
p746
sa(dp747
g2
S'37473'
p748
sg4
S'8643'
p749
sg6
S'79b2b9904f23a9b5f103957129608106'
p750
sg8
S'xx2770956730d40aeae2a4dbdacf35644c'
p751
sg10
S'xxe488179d892f9d687d720a8dddbb655b'
p752
sg12
S'xx35436efaa1ebb19e1dc3bfef80869990'
p753
sg14
S'Mozilla/5.0 (Linux; Android 4.4.4; HM 2A Build/KTU84Q) AppleWebKit/537.36 (KHTML, like Gecko) Version/4.0 Chrome/37.0.0.0 Mobile MQQBrowser/6.8 TBS/036869 Safari/537.36 MicroMessenger/6.3.27.880 NetType/WIFI Language/zh_CN'
p754
sg16
S'60ccdd136fc537341e4534874eabce6b'
p755
sa(dp756
g2
S'37473'
p757
sg4
S'8658'
p758
sg6
S'79b2b9904f23a9b5f103957129608106'
p759
sg8
S'xx2770956730d40aeae2a4dbdacf35644c'
p760
sg10
S'xxe488179d892f9d687d720a8dddbb655b'
p761
sg12
S'xx35436efaa1ebb19e1dc3bfef80869990'
p762
sg14
S'Mozilla/5.0 (Linux; Android 4.4.4; HM 2A Build/KTU84Q) AppleWebKit/537.36 (KHTML, like Gecko) Version/4.0 Chrome/37.0.0.0 Mobile MQQBrowser/6.8 TBS/036869 Safari/537.36 MicroMessenger/6.3.27.880 NetType/WIFI Language/zh_CN'
p763
sg16
S'60ccdd136fc537341e4534874eabce6b'
p764
sa(dp765
g2
S'37473'
p766
sg4
S'8677'
p767
sg6
S'79b2b9904f23a9b5f103957129608106'
p768
sg8
S'xx2770956730d40aeae2a4dbdacf35644c'
p769
sg10
S'xxe488179d892f9d687d720a8dddbb655b'
p770
sg12
S'xx35436efaa1ebb19e1dc3bfef80869990'
p771
sg14
S'Mozilla/5.0 (Linux; Android 4.4.4; HM 2A Build/KTU84Q) AppleWebKit/537.36 (KHTML, like Gecko) Version/4.0 Chrome/37.0.0.0 Mobile MQQBrowser/6.8 TBS/036869 Safari/537.36 MicroMessenger/6.3.27.880 NetType/WIFI Language/zh_CN'
p772
sg16
S'60ccdd136fc537341e4534874eabce6b'
p773
sa(dp774
g2
S'37473'
p775
sg4
S'8696'
p776
sg6
S'79b2b9904f23a9b5f103957129608106'
p777
sg8
S'xx2770956730d40aeae2a4dbdacf35644c'
p778
sg10
S'xxe488179d892f9d687d720a8dddbb655b'
p779
sg12
S'xx35436efaa1ebb19e1dc3bfef80869990'
p780
sg14
S'Mozilla/5.0 (Linux; Android 4.4.4; HM 2A Build/KTU84Q) AppleWebKit/537.36 (KHTML, like Gecko) Version/4.0 Chrome/37.0.0.0 Mobile MQQBrowser/6.8 TBS/036869 Safari/537.36 MicroMessenger/6.3.27.880 NetType/WIFI Language/zh_CN'
p781
sg16
S'60ccdd136fc537341e4534874eabce6b'
p782
sa(dp783
g2
S'37473'
p784
sg4
S'8716'
p785
sg6
S'79b2b9904f23a9b5f103957129608106'
p786
sg8
S'xx2770956730d40aeae2a4dbdacf35644c'
p787
sg10
S'xxe488179d892f9d687d720a8dddbb655b'
p788
sg12
S'xx35436efaa1ebb19e1dc3bfef80869990'
p789
sg14
S'Mozilla/5.0 (Linux; Android 4.4.4; HM 2A Build/KTU84Q) AppleWebKit/537.36 (KHTML, like Gecko) Version/4.0 Chrome/37.0.0.0 Mobile MQQBrowser/6.8 TBS/036869 Safari/537.36 MicroMessenger/6.3.27.880 NetType/WIFI Language/zh_CN'
p790
sg16
S'60ccdd136fc537341e4534874eabce6b'
p791
sa(dp792
g2
S'37473'
p793
sg4
S'8730'
p794
sg6
S'79b2b9904f23a9b5f103957129608106'
p795
sg8
S'xx2770956730d40aeae2a4dbdacf35644c'
p796
sg10
S'xxe488179d892f9d687d720a8dddbb655b'
p797
sg12
S'xx35436efaa1ebb19e1dc3bfef80869990'
p798
sg14
S'Mozilla/5.0 (Linux; Android 4.4.4; HM 2A Build/KTU84Q) AppleWebKit/537.36 (KHTML, like Gecko) Version/4.0 Chrome/37.0.0.0 Mobile MQQBrowser/6.8 TBS/036869 Safari/537.36 MicroMessenger/6.3.27.880 NetType/WIFI Language/zh_CN'
p799
sg16
S'60ccdd136fc537341e4534874eabce6b'
p800
sa(dp801
g2
S'37473'
p802
sg4
S'8750'
p803
sg6
S'79b2b9904f23a9b5f103957129608106'
p804
sg8
S'xx2770956730d40aeae2a4dbdacf35644c'
p805
sg10
S'xxe488179d892f9d687d720a8dddbb655b'
p806
sg12
S'xx35436efaa1ebb19e1dc3bfef80869990'
p807
sg14
S'Mozilla/5.0 (Linux; Android 4.4.4; HM 2A Build/KTU84Q) AppleWebKit/537.36 (KHTML, like Gecko) Version/4.0 Chrome/37.0.0.0 Mobile MQQBrowser/6.8 TBS/036869 Safari/537.36 MicroMessenger/6.3.27.880 NetType/WIFI Language/zh_CN'
p808
sg16
S'60ccdd136fc537341e4534874eabce6b'
p809
sa(dp810
g2
S'37473'
p811
sg4
S'8763'
p812
sg6
S'79b2b9904f23a9b5f103957129608106'
p813
sg8
S'xx2770956730d40aeae2a4dbdacf35644c'
p814
sg10
S'xxe488179d892f9d687d720a8dddbb655b'
p815
sg12
S'xx35436efaa1ebb19e1dc3bfef80869990'
p816
sg14
S'Mozilla/5.0 (Linux; Android 4.4.4; HM 2A Build/KTU84Q) AppleWebKit/537.36 (KHTML, like Gecko) Version/4.0 Chrome/37.0.0.0 Mobile MQQBrowser/6.8 TBS/036869 Safari/537.36 MicroMessenger/6.3.27.880 NetType/WIFI Language/zh_CN'
p817
sg16
S'60ccdd136fc537341e4534874eabce6b'
p818
sa(dp819
g2
S'37473'
p820
sg4
S'8773'
p821
sg6
S'79b2b9904f23a9b5f103957129608106'
p822
sg8
S'xx2770956730d40aeae2a4dbdacf35644c'
p823
sg10
S'xxe488179d892f9d687d720a8dddbb655b'
p824
sg12
S'xx35436efaa1ebb19e1dc3bfef80869990'
p825
sg14
S'Mozilla/5.0 (Linux; Android 4.4.4; HM 2A Build/KTU84Q) AppleWebKit/537.36 (KHTML, like Gecko) Version/4.0 Chrome/37.0.0.0 Mobile MQQBrowser/6.8 TBS/036869 Safari/537.36 MicroMessenger/6.3.27.880 NetType/WIFI Language/zh_CN'
p826
sg16
S'60ccdd136fc537341e4534874eabce6b'
p827
sa(dp828
g2
S'37473'
p829
sg4
S'8784'
p830
sg6
S'79b2b9904f23a9b5f103957129608106'
p831
sg8
S'xx2770956730d40aeae2a4dbdacf35644c'
p832
sg10
S'xxe488179d892f9d687d720a8dddbb655b'
p833
sg12
S'xx35436efaa1ebb19e1dc3bfef80869990'
p834
sg14
S'Mozilla/5.0 (Linux; Android 4.4.4; HM 2A Build/KTU84Q) AppleWebKit/537.36 (KHTML, like Gecko) Version/4.0 Chrome/37.0.0.0 Mobile MQQBrowser/6.8 TBS/036869 Safari/537.36 MicroMessenger/6.3.27.880 NetType/WIFI Language/zh_CN'
p835
sg16
S'60ccdd136fc537341e4534874eabce6b'
p836
sa.