(lp0
(dp1
S'user_id'
p2
S'36773'
p3
sS'data_id'
p4
S'3477'
p5
sS'ip'
p6
S'43b33e1872e767a46ba2578c0d38fc18'
p7
sS'phone_B'
p8
S'xx9572d015e876532674304875928ac415'
p9
sS'phone_C'
p10
S'xxe180077fe8d7d78330cdf873114ffaa6'
p11
sS'phone_A'
p12
S'xx356f123363ceb5fd0ec1bf4810aff1d2'
p13
sS'user_agent'
p14
S'Mozilla/5.0 (Linux; Android 5.1.1; OPPO A33t Build/LMY47V) AppleWebKit/537.36 (KHTML, like Gecko) Version/4.0 Chrome/37.0.0.0 Mobile MQQBrowser/6.8 TBS/036849 Safari/537.36 MicroMessenger/6.3.27.880 NetType/WIFI Language/zh_CN'
p15
sS'ua'
p16
S'd8727ed0cb81d603b5b3c1dda00800bd'
p17
sa(dp18
g2
S'36773'
p19
sg4
S'3492'
p20
sg6
S'43b33e1872e767a46ba2578c0d38fc18'
p21
sg8
S'xx9572d015e876532674304875928ac415'
p22
sg10
S'xxe180077fe8d7d78330cdf873114ffaa6'
p23
sg12
S'xx356f123363ceb5fd0ec1bf4810aff1d2'
p24
sg14
S'Mozilla/5.0 (Linux; Android 5.1.1; OPPO A33t Build/LMY47V) AppleWebKit/537.36 (KHTML, like Gecko) Version/4.0 Chrome/37.0.0.0 Mobile MQQBrowser/6.8 TBS/036849 Safari/537.36 MicroMessenger/6.3.27.880 NetType/WIFI Language/zh_CN'
p25
sg16
S'd8727ed0cb81d603b5b3c1dda00800bd'
p26
sa(dp27
g2
S'32388'
p28
sg4
S'3753'
p29
sg6
S'783ec5c440b55f32ca4f1c46a5126757'
p30
sg8
S'xx9572d015e876532674304875928ac415'
p31
sg10
S'xxe180077fe8d7d78330cdf873114ffaa6'
p32
sg12
S'xx356f123363ceb5fd0ec1bf4810aff1d2'
p33
sg14
S'Mozilla/5.0 (Linux; Android 5.1.1; OPPO A33t Build/LMY47V) AppleWebKit/537.36 (KHTML, like Gecko) Version/4.0 Chrome/37.0.0.0 Mobile MQQBrowser/6.8 TBS/036849 Safari/537.36 MicroMessenger/6.3.27.880 NetType/WIFI Language/zh_CN'
p34
sg16
S'd8727ed0cb81d603b5b3c1dda00800bd'
p35
sa(dp36
g2
S'32388'
p37
sg4
S'3774'
p38
sg6
S'783ec5c440b55f32ca4f1c46a5126757'
p39
sg8
S'xx9572d015e876532674304875928ac415'
p40
sg10
S'xxe180077fe8d7d78330cdf873114ffaa6'
p41
sg12
S'xx356f123363ceb5fd0ec1bf4810aff1d2'
p42
sg14
S'Mozilla/5.0 (Linux; Android 5.1.1; OPPO A33t Build/LMY47V) AppleWebKit/537.36 (KHTML, like Gecko) Version/4.0 Chrome/37.0.0.0 Mobile MQQBrowser/6.8 TBS/036849 Safari/537.36 MicroMessenger/6.3.27.880 NetType/WIFI Language/zh_CN'
p43
sg16
S'd8727ed0cb81d603b5b3c1dda00800bd'
p44
sa(dp45
g2
S'36765'
p46
sg4
S'3823'
p47
sg6
S'43b33e1872e767a46ba2578c0d38fc18'
p48
sg8
S'xx9572d015e876532674304875928ac415'
p49
sg10
S'xxe180077fe8d7d78330cdf873114ffaa6'
p50
sg12
S'xx356f123363ceb5fd0ec1bf4810aff1d2'
p51
sg14
S'Mozilla/5.0 (Linux; Android 5.1.1; OPPO A33t Build/LMY47V) AppleWebKit/537.36 (KHTML, like Gecko) Version/4.0 Chrome/37.0.0.0 Mobile MQQBrowser/6.8 TBS/036849 Safari/537.36 MicroMessenger/6.3.27.880 NetType/WIFI Language/zh_CN'
p52
sg16
S'd8727ed0cb81d603b5b3c1dda00800bd'
p53
sa(dp54
g2
S'36765'
p55
sg4
S'3844'
p56
sg6
S'43b33e1872e767a46ba2578c0d38fc18'
p57
sg8
S'xx9572d015e876532674304875928ac415'
p58
sg10
S'xxe180077fe8d7d78330cdf873114ffaa6'
p59
sg12
S'xx356f123363ceb5fd0ec1bf4810aff1d2'
p60
sg14
S'Mozilla/5.0 (Linux; Android 5.1.1; OPPO A33t Build/LMY47V) AppleWebKit/537.36 (KHTML, like Gecko) Version/4.0 Chrome/37.0.0.0 Mobile MQQBrowser/6.8 TBS/036849 Safari/537.36 MicroMessenger/6.3.27.880 NetType/WIFI Language/zh_CN'
p61
sg16
S'd8727ed0cb81d603b5b3c1dda00800bd'
p62
sa(dp63
g2
S'32125'
p64
sg4
S'4126'
p65
sg6
S'f3f27f95678f861ebdc986239eef0b2a'
p66
sg8
S'xx9572d015e876532674304875928ac415'
p67
sg10
S'xxe180077fe8d7d78330cdf873114ffaa6'
p68
sg12
S'xx356f123363ceb5fd0ec1bf4810aff1d2'
p69
sg14
S'Mozilla/5.0 (Linux; Android 5.1.1; OPPO A33t Build/LMY47V) AppleWebKit/537.36 (KHTML, like Gecko) Version/4.0 Chrome/37.0.0.0 Mobile MQQBrowser/6.8 TBS/036849 Safari/537.36 MicroMessenger/6.3.27.880 NetType/WIFI Language/zh_CN'
p70
sg16
S'd8727ed0cb81d603b5b3c1dda00800bd'
p71
sa(dp72
g2
S'32125'
p73
sg4
S'4151'
p74
sg6
S'f3f27f95678f861ebdc986239eef0b2a'
p75
sg8
S'xx9572d015e876532674304875928ac415'
p76
sg10
S'xxe180077fe8d7d78330cdf873114ffaa6'
p77
sg12
S'xx356f123363ceb5fd0ec1bf4810aff1d2'
p78
sg14
S'Mozilla/5.0 (Linux; Android 5.1.1; OPPO A33t Build/LMY47V) AppleWebKit/537.36 (KHTML, like Gecko) Version/4.0 Chrome/37.0.0.0 Mobile MQQBrowser/6.8 TBS/036849 Safari/537.36 MicroMessenger/6.3.27.880 NetType/WIFI Language/zh_CN'
p79
sg16
S'd8727ed0cb81d603b5b3c1dda00800bd'
p80
sa(dp81
g2
S'36801'
p82
sg4
S'4289'
p83
sg6
S'43b33e1872e767a46ba2578c0d38fc18'
p84
sg8
S'xx9572d015e876532674304875928ac415'
p85
sg10
S'xxe180077fe8d7d78330cdf873114ffaa6'
p86
sg12
S'xx356f123363ceb5fd0ec1bf4810aff1d2'
p87
sg14
S'Mozilla/5.0 (Linux; Android 5.1.1; OPPO A33t Build/LMY47V) AppleWebKit/537.36 (KHTML, like Gecko) Version/4.0 Chrome/37.0.0.0 Mobile MQQBrowser/6.8 TBS/036849 Safari/537.36 MicroMessenger/6.3.27.880 NetType/WIFI Language/zh_CN'
p88
sg16
S'd8727ed0cb81d603b5b3c1dda00800bd'
p89
sa(dp90
g2
S'36801'
p91
sg4
S'4304'
p92
sg6
S'43b33e1872e767a46ba2578c0d38fc18'
p93
sg8
S'xx9572d015e876532674304875928ac415'
p94
sg10
S'xxe180077fe8d7d78330cdf873114ffaa6'
p95
sg12
S'xx356f123363ceb5fd0ec1bf4810aff1d2'
p96
sg14
S'Mozilla/5.0 (Linux; Android 5.1.1; OPPO A33t Build/LMY47V) AppleWebKit/537.36 (KHTML, like Gecko) Version/4.0 Chrome/37.0.0.0 Mobile MQQBrowser/6.8 TBS/036849 Safari/537.36 MicroMessenger/6.3.27.880 NetType/WIFI Language/zh_CN'
p97
sg16
S'd8727ed0cb81d603b5b3c1dda00800bd'
p98
sa(dp99
g2
S'34944'
p100
sg4
S'4471'
p101
sg6
S'509368e6f61d2e7b8daf31e0cb12da6d'
p102
sg8
S'xx9572d015e876532674304875928ac415'
p103
sg10
S'xxe180077fe8d7d78330cdf873114ffaa6'
p104
sg12
S'xx356f123363ceb5fd0ec1bf4810aff1d2'
p105
sg14
S'Mozilla/5.0 (Linux; Android 5.1.1; OPPO A33t Build/LMY47V) AppleWebKit/537.36 (KHTML, like Gecko) Version/4.0 Chrome/37.0.0.0 Mobile MQQBrowser/6.8 TBS/036849 Safari/537.36 MicroMessenger/6.3.27.880 NetType/WIFI Language/zh_CN'
p106
sg16
S'd8727ed0cb81d603b5b3c1dda00800bd'
p107
sa(dp108
g2
S'34944'
p109
sg4
S'4491'
p110
sg6
S'509368e6f61d2e7b8daf31e0cb12da6d'
p111
sg8
S'xx9572d015e876532674304875928ac415'
p112
sg10
S'xxe180077fe8d7d78330cdf873114ffaa6'
p113
sg12
S'xx356f123363ceb5fd0ec1bf4810aff1d2'
p114
sg14
S'Mozilla/5.0 (Linux; Android 5.1.1; OPPO A33t Build/LMY47V) AppleWebKit/537.36 (KHTML, like Gecko) Version/4.0 Chrome/37.0.0.0 Mobile MQQBrowser/6.8 TBS/036849 Safari/537.36 MicroMessenger/6.3.27.880 NetType/WIFI Language/zh_CN'
p115
sg16
S'd8727ed0cb81d603b5b3c1dda00800bd'
p116
sa(dp117
g2
S'28829'
p118
sg4
S'4972'
p119
sg6
S'5362a3ad03126dbd5ec4835f64a352a3'
p120
sg8
S'xx9572d015e876532674304875928ac415'
p121
sg10
S'xxe180077fe8d7d78330cdf873114ffaa6'
p122
sg12
S'xx356f123363ceb5fd0ec1bf4810aff1d2'
p123
sg14
S'Mozilla/5.0 (Linux; Android 5.1.1; OPPO A33t Build/LMY47V) AppleWebKit/537.36 (KHTML, like Gecko) Version/4.0 Chrome/37.0.0.0 Mobile MQQBrowser/6.8 TBS/036849 Safari/537.36 MicroMessenger/6.3.27.880 NetType/WIFI Language/zh_CN'
p124
sg16
S'd8727ed0cb81d603b5b3c1dda00800bd'
p125
sa(dp126
g2
S'28829'
p127
sg4
S'4989'
p128
sg6
S'5362a3ad03126dbd5ec4835f64a352a3'
p129
sg8
S'xx9572d015e876532674304875928ac415'
p130
sg10
S'xxe180077fe8d7d78330cdf873114ffaa6'
p131
sg12
S'xx356f123363ceb5fd0ec1bf4810aff1d2'
p132
sg14
S'Mozilla/5.0 (Linux; Android 5.1.1; OPPO A33t Build/LMY47V) AppleWebKit/537.36 (KHTML, like Gecko) Version/4.0 Chrome/37.0.0.0 Mobile MQQBrowser/6.8 TBS/036849 Safari/537.36 MicroMessenger/6.3.27.880 NetType/WIFI Language/zh_CN'
p133
sg16
S'd8727ed0cb81d603b5b3c1dda00800bd'
p134
sa(dp135
g2
S'30415'
p136
sg4
S'5641'
p137
sg6
S'4b721cebadb6882353815251e6bf1904'
p138
sg8
S'xx8897da59b6af7e5c75545ea893fb69cc'
p139
sg10
S'xxe180077fe8d7d78330cdf873114ffaa6'
p140
sg12
S'xx356f123363ceb5fd0ec1bf4810aff1d2'
p141
sg14
S'Mozilla/5.0 (Linux; Android 5.1.1; OPPO A33t Build/LMY47V) AppleWebKit/537.36 (KHTML, like Gecko) Version/4.0 Chrome/37.0.0.0 Mobile MQQBrowser/6.8 TBS/036865 Safari/537.36 MicroMessenger/6.3.27.880 NetType/WIFI Language/zh_CN'
p142
sg16
S'7e1d157fa7d408b8f179cd9a958f5e38'
p143
sa(dp144
g2
S'30415'
p145
sg4
S'5655'
p146
sg6
S'4b721cebadb6882353815251e6bf1904'
p147
sg8
S'xx8897da59b6af7e5c75545ea893fb69cc'
p148
sg10
S'xxe180077fe8d7d78330cdf873114ffaa6'
p149
sg12
S'xx356f123363ceb5fd0ec1bf4810aff1d2'
p150
sg14
S'Mozilla/5.0 (Linux; Android 5.1.1; OPPO A33t Build/LMY47V) AppleWebKit/537.36 (KHTML, like Gecko) Version/4.0 Chrome/37.0.0.0 Mobile MQQBrowser/6.8 TBS/036865 Safari/537.36 MicroMessenger/6.3.27.880 NetType/WIFI Language/zh_CN'
p151
sg16
S'7e1d157fa7d408b8f179cd9a958f5e38'
p152
sa(dp153
g2
S'30391'
p154
sg4
S'6222'
p155
sg6
S'5785c0cbe20c88aafa87dcdfed3ee36d'
p156
sg8
S'xx9572d015e876532674304875928ac415'
p157
sg10
S'xxe180077fe8d7d78330cdf873114ffaa6'
p158
sg12
S'xx356f123363ceb5fd0ec1bf4810aff1d2'
p159
sg14
S'Mozilla/5.0 (Linux; Android 5.1.1; OPPO A33t Build/LMY47V) AppleWebKit/537.36 (KHTML, like Gecko) Version/4.0 Chrome/37.0.0.0 Mobile MQQBrowser/6.8 TBS/036849 Safari/537.36 MicroMessenger/6.3.27.880 NetType/WIFI Language/zh_CN'
p160
sg16
S'd8727ed0cb81d603b5b3c1dda00800bd'
p161
sa(dp162
g2
S'30391'
p163
sg4
S'6238'
p164
sg6
S'5785c0cbe20c88aafa87dcdfed3ee36d'
p165
sg8
S'xx9572d015e876532674304875928ac415'
p166
sg10
S'xxe180077fe8d7d78330cdf873114ffaa6'
p167
sg12
S'xx356f123363ceb5fd0ec1bf4810aff1d2'
p168
sg14
S'Mozilla/5.0 (Linux; Android 5.1.1; OPPO A33t Build/LMY47V) AppleWebKit/537.36 (KHTML, like Gecko) Version/4.0 Chrome/37.0.0.0 Mobile MQQBrowser/6.8 TBS/036849 Safari/537.36 MicroMessenger/6.3.27.880 NetType/WIFI Language/zh_CN'
p169
sg16
S'd8727ed0cb81d603b5b3c1dda00800bd'
p170
sa(dp171
g2
S'49810'
p172
sg4
S'6241'
p173
sg6
S'eb45bf8f9a0c66df76d27acd7d2f140d'
p174
sg8
S'xx9572d015e876532674304875928ac415'
p175
sg10
S'xxe180077fe8d7d78330cdf873114ffaa6'
p176
sg12
S'xx356f123363ceb5fd0ec1bf4810aff1d2'
p177
sg14
S'Mozilla/5.0 (Linux; Android 5.1.1; OPPO A33t Build/LMY47V) AppleWebKit/537.36 (KHTML, like Gecko) Version/4.0 Chrome/37.0.0.0 Mobile MQQBrowser/6.8 TBS/036849 Safari/537.36 MicroMessenger/6.3.27.880 NetType/WIFI Language/zh_CN'
p178
sg16
S'd8727ed0cb81d603b5b3c1dda00800bd'
p179
sa(dp180
g2
S'25620'
p181
sg4
S'7257'
p182
sg6
S'37ec7b91655b3c964292df15710fad2a'
p183
sg8
S'xx66059d359e6d34d001b00aaa2d48b9cf'
p184
sg10
S'xxe180077fe8d7d78330cdf873114ffaa6'
p185
sg12
S'xx356f123363ceb5fd0ec1bf4810aff1d2'
p186
sg14
S'Mozilla/5.0 (Linux; Android 5.1.1; OPPO A33t Build/LMY47V) AppleWebKit/537.36 (KHTML, like Gecko) Version/4.0 Chrome/37.0.0.0 Mobile MQQBrowser/6.8 TBS/036869 Safari/537.36 MicroMessenger/6.3.27.880 NetType/WIFI Language/zh_CN'
p187
sg16
S'a5bbee799913a05e47646a2aaa55100c'
p188
sa(dp189
g2
S'25620'
p190
sg4
S'7269'
p191
sg6
S'37ec7b91655b3c964292df15710fad2a'
p192
sg8
S'xx66059d359e6d34d001b00aaa2d48b9cf'
p193
sg10
S'xxe180077fe8d7d78330cdf873114ffaa6'
p194
sg12
S'xx356f123363ceb5fd0ec1bf4810aff1d2'
p195
sg14
S'Mozilla/5.0 (Linux; Android 5.1.1; OPPO A33t Build/LMY47V) AppleWebKit/537.36 (KHTML, like Gecko) Version/4.0 Chrome/37.0.0.0 Mobile MQQBrowser/6.8 TBS/036869 Safari/537.36 MicroMessenger/6.3.27.880 NetType/WIFI Language/zh_CN'
p196
sg16
S'a5bbee799913a05e47646a2aaa55100c'
p197
sa(dp198
g2
S'25620'
p199
sg4
S'7289'
p200
sg6
S'37ec7b91655b3c964292df15710fad2a'
p201
sg8
S'xx66059d359e6d34d001b00aaa2d48b9cf'
p202
sg10
S'xxe180077fe8d7d78330cdf873114ffaa6'
p203
sg12
S'xx356f123363ceb5fd0ec1bf4810aff1d2'
p204
sg14
S'Mozilla/5.0 (Linux; Android 5.1.1; OPPO A33t Build/LMY47V) AppleWebKit/537.36 (KHTML, like Gecko) Version/4.0 Chrome/37.0.0.0 Mobile MQQBrowser/6.8 TBS/036869 Safari/537.36 MicroMessenger/6.3.27.880 NetType/WIFI Language/zh_CN'
p205
sg16
S'a5bbee799913a05e47646a2aaa55100c'
p206
sa(dp207
g2
S'30451'
p208
sg4
S'8356'
p209
sg6
S'cfb17fbc28c2dd50823277fab4d3864d'
p210
sg8
S'xx66059d359e6d34d001b00aaa2d48b9cf'
p211
sg10
S'xxe180077fe8d7d78330cdf873114ffaa6'
p212
sg12
S'xx356f123363ceb5fd0ec1bf4810aff1d2'
p213
sg14
S'Mozilla/5.0 (Linux; Android 5.1.1; OPPO A33t Build/LMY47V) AppleWebKit/537.36 (KHTML, like Gecko) Version/4.0 Chrome/37.0.0.0 Mobile MQQBrowser/6.8 TBS/036869 Safari/537.36 MicroMessenger/6.3.27.880 NetType/WIFI Language/zh_CN'
p214
sg16
S'a5bbee799913a05e47646a2aaa55100c'
p215
sa(dp216
g2
S'30451'
p217
sg4
S'8367'
p218
sg6
S'cfb17fbc28c2dd50823277fab4d3864d'
p219
sg8
S'xx66059d359e6d34d001b00aaa2d48b9cf'
p220
sg10
S'xxe180077fe8d7d78330cdf873114ffaa6'
p221
sg12
S'xx356f123363ceb5fd0ec1bf4810aff1d2'
p222
sg14
S'Mozilla/5.0 (Linux; Android 5.1.1; OPPO A33t Build/LMY47V) AppleWebKit/537.36 (KHTML, like Gecko) Version/4.0 Chrome/37.0.0.0 Mobile MQQBrowser/6.8 TBS/036869 Safari/537.36 MicroMessenger/6.3.27.880 NetType/WIFI Language/zh_CN'
p223
sg16
S'a5bbee799913a05e47646a2aaa55100c'
p224
sa(dp225
g2
S'48881'
p226
sg4
S'8706'
p227
sg6
S'f412a8cb99e4fffe9827df4de354aef5'
p228
sg8
S'xx66059d359e6d34d001b00aaa2d48b9cf'
p229
sg10
S'xxe180077fe8d7d78330cdf873114ffaa6'
p230
sg12
S'xx356f123363ceb5fd0ec1bf4810aff1d2'
p231
sg14
S'Mozilla/5.0 (Linux; Android 5.1.1; OPPO A33t Build/LMY47V) AppleWebKit/537.36 (KHTML, like Gecko) Version/4.0 Chrome/37.0.0.0 Mobile MQQBrowser/6.8 TBS/036869 Safari/537.36 MicroMessenger/6.3.27.880 NetType/WIFI Language/zh_CN'
p232
sg16
S'a5bbee799913a05e47646a2aaa55100c'
p233
sa(dp234
g2
S'48881'
p235
sg4
S'8723'
p236
sg6
S'f412a8cb99e4fffe9827df4de354aef5'
p237
sg8
S'xx66059d359e6d34d001b00aaa2d48b9cf'
p238
sg10
S'xxe180077fe8d7d78330cdf873114ffaa6'
p239
sg12
S'xx356f123363ceb5fd0ec1bf4810aff1d2'
p240
sg14
S'Mozilla/5.0 (Linux; Android 5.1.1; OPPO A33t Build/LMY47V) AppleWebKit/537.36 (KHTML, like Gecko) Version/4.0 Chrome/37.0.0.0 Mobile MQQBrowser/6.8 TBS/036869 Safari/537.36 MicroMessenger/6.3.27.880 NetType/WIFI Language/zh_CN'
p241
sg16
S'a5bbee799913a05e47646a2aaa55100c'
p242
sa.