(lp0
(dp1
S'user_id'
p2
S'29583'
p3
sS'data_id'
p4
S'1679'
p5
sS'ip'
p6
S'64b88a14e1f5a8e1387a22da41d0f564'
p7
sS'phone_B'
p8
S'xxc283817219bf302184b250729ad2abb0'
p9
sS'phone_C'
p10
S'xxf0ce69602a68e5d82c03993c78018e89'
p11
sS'phone_A'
p12
S'xx35ec8ddeba79ded3b0e35a0f7ee281f1'
p13
sS'user_agent'
p14
S'Mozilla/5.0 (Linux; Android 4.4.4; Coolpad 5263 Build/KTU84P) AppleWebKit/537.36 (KHTML, like Gecko) Version/4.0 Chrome/37.0.0.0 Mobile MQQBrowser/6.8 TBS/036849 Safari/537.36 MicroMessenger/6.3.27.880 NetType/WIFI Language/zh_CN'
p15
sS'ua'
p16
S'c0cf7f202d449fe989ac528f16f78517'
p17
sa(dp18
g2
S'29583'
p19
sg4
S'1700'
p20
sg6
S'64b88a14e1f5a8e1387a22da41d0f564'
p21
sg8
S'xxc283817219bf302184b250729ad2abb0'
p22
sg10
S'xxf0ce69602a68e5d82c03993c78018e89'
p23
sg12
S'xx35ec8ddeba79ded3b0e35a0f7ee281f1'
p24
sg14
S'Mozilla/5.0 (Linux; Android 4.4.4; Coolpad 5263 Build/KTU84P) AppleWebKit/537.36 (KHTML, like Gecko) Version/4.0 Chrome/37.0.0.0 Mobile MQQBrowser/6.8 TBS/036849 Safari/537.36 MicroMessenger/6.3.27.880 NetType/WIFI Language/zh_CN'
p25
sg16
S'c0cf7f202d449fe989ac528f16f78517'
p26
sa(dp27
g2
S'29583'
p28
sg4
S'1720'
p29
sg6
S'64b88a14e1f5a8e1387a22da41d0f564'
p30
sg8
S'xxc283817219bf302184b250729ad2abb0'
p31
sg10
S'xxf0ce69602a68e5d82c03993c78018e89'
p32
sg12
S'xx35ec8ddeba79ded3b0e35a0f7ee281f1'
p33
sg14
S'Mozilla/5.0 (Linux; Android 4.4.4; Coolpad 5263 Build/KTU84P) AppleWebKit/537.36 (KHTML, like Gecko) Version/4.0 Chrome/37.0.0.0 Mobile MQQBrowser/6.8 TBS/036849 Safari/537.36 MicroMessenger/6.3.27.880 NetType/WIFI Language/zh_CN'
p34
sg16
S'c0cf7f202d449fe989ac528f16f78517'
p35
sa(dp36
g2
S'29583'
p37
sg4
S'1749'
p38
sg6
S'64b88a14e1f5a8e1387a22da41d0f564'
p39
sg8
S'xxc283817219bf302184b250729ad2abb0'
p40
sg10
S'xxf0ce69602a68e5d82c03993c78018e89'
p41
sg12
S'xx35ec8ddeba79ded3b0e35a0f7ee281f1'
p42
sg14
S'Mozilla/5.0 (Linux; Android 4.4.4; Coolpad 5263 Build/KTU84P) AppleWebKit/537.36 (KHTML, like Gecko) Version/4.0 Chrome/37.0.0.0 Mobile MQQBrowser/6.8 TBS/036849 Safari/537.36 MicroMessenger/6.3.27.880 NetType/WIFI Language/zh_CN'
p43
sg16
S'c0cf7f202d449fe989ac528f16f78517'
p44
sa(dp45
g2
S'29583'
p46
sg4
S'1770'
p47
sg6
S'64b88a14e1f5a8e1387a22da41d0f564'
p48
sg8
S'xxc283817219bf302184b250729ad2abb0'
p49
sg10
S'xxf0ce69602a68e5d82c03993c78018e89'
p50
sg12
S'xx35ec8ddeba79ded3b0e35a0f7ee281f1'
p51
sg14
S'Mozilla/5.0 (Linux; Android 4.4.4; Coolpad 5263 Build/KTU84P) AppleWebKit/537.36 (KHTML, like Gecko) Version/4.0 Chrome/37.0.0.0 Mobile MQQBrowser/6.8 TBS/036849 Safari/537.36 MicroMessenger/6.3.27.880 NetType/WIFI Language/zh_CN'
p52
sg16
S'c0cf7f202d449fe989ac528f16f78517'
p53
sa(dp54
g2
S'29583'
p55
sg4
S'1789'
p56
sg6
S'64b88a14e1f5a8e1387a22da41d0f564'
p57
sg8
S'xxc283817219bf302184b250729ad2abb0'
p58
sg10
S'xxf0ce69602a68e5d82c03993c78018e89'
p59
sg12
S'xx35ec8ddeba79ded3b0e35a0f7ee281f1'
p60
sg14
S'Mozilla/5.0 (Linux; Android 4.4.4; Coolpad 5263 Build/KTU84P) AppleWebKit/537.36 (KHTML, like Gecko) Version/4.0 Chrome/37.0.0.0 Mobile MQQBrowser/6.8 TBS/036849 Safari/537.36 MicroMessenger/6.3.27.880 NetType/WIFI Language/zh_CN'
p61
sg16
S'c0cf7f202d449fe989ac528f16f78517'
p62
sa(dp63
g2
S'20903'
p64
sg4
S'4684'
p65
sg6
S'a5b44b593f8f8dbc9d4ef18a119f70cf'
p66
sg8
S'xxe3563c94dde54cb87c3802b63b41314e'
p67
sg10
S'xxf0ce69602a68e5d82c03993c78018e89'
p68
sg12
S'xx35ec8ddeba79ded3b0e35a0f7ee281f1'
p69
sg14
S'Mozilla/5.0 (Linux; Android 4.4.4; Coolpad 5263 Build/KTU84P) AppleWebKit/537.36 (KHTML, like Gecko) Version/4.0 Chrome/37.0.0.0 Mobile MQQBrowser/6.8 TBS/036824 Safari/537.36 MicroMessenger/6.3.25.861 NetType/WIFI Language/zh_CN'
p70
sg16
S'fdba5334f217b98153d8657808bbfd0d'
p71
sa(dp72
g2
S'20903'
p73
sg4
S'4701'
p74
sg6
S'a5b44b593f8f8dbc9d4ef18a119f70cf'
p75
sg8
S'xxe3563c94dde54cb87c3802b63b41314e'
p76
sg10
S'xxf0ce69602a68e5d82c03993c78018e89'
p77
sg12
S'xx35ec8ddeba79ded3b0e35a0f7ee281f1'
p78
sg14
S'Mozilla/5.0 (Linux; Android 4.4.4; Coolpad 5263 Build/KTU84P) AppleWebKit/537.36 (KHTML, like Gecko) Version/4.0 Chrome/37.0.0.0 Mobile MQQBrowser/6.8 TBS/036824 Safari/537.36 MicroMessenger/6.3.25.861 NetType/WIFI Language/zh_CN'
p79
sg16
S'fdba5334f217b98153d8657808bbfd0d'
p80
sa(dp81
g2
S'20903'
p82
sg4
S'4875'
p83
sg6
S'a5b44b593f8f8dbc9d4ef18a119f70cf'
p84
sg8
S'xxe3563c94dde54cb87c3802b63b41314e'
p85
sg10
S'xxf0ce69602a68e5d82c03993c78018e89'
p86
sg12
S'xx35ec8ddeba79ded3b0e35a0f7ee281f1'
p87
sg14
S'Mozilla/5.0 (Linux; Android 4.4.4; Coolpad 5263 Build/KTU84P) AppleWebKit/537.36 (KHTML, like Gecko) Version/4.0 Chrome/37.0.0.0 Mobile MQQBrowser/6.8 TBS/036824 Safari/537.36 MicroMessenger/6.3.25.861 NetType/WIFI Language/zh_CN'
p88
sg16
S'fdba5334f217b98153d8657808bbfd0d'
p89
sa(dp90
g2
S'20903'
p91
sg4
S'4892'
p92
sg6
S'a5b44b593f8f8dbc9d4ef18a119f70cf'
p93
sg8
S'xxe3563c94dde54cb87c3802b63b41314e'
p94
sg10
S'xxf0ce69602a68e5d82c03993c78018e89'
p95
sg12
S'xx35ec8ddeba79ded3b0e35a0f7ee281f1'
p96
sg14
S'Mozilla/5.0 (Linux; Android 4.4.4; Coolpad 5263 Build/KTU84P) AppleWebKit/537.36 (KHTML, like Gecko) Version/4.0 Chrome/37.0.0.0 Mobile MQQBrowser/6.8 TBS/036824 Safari/537.36 MicroMessenger/6.3.25.861 NetType/WIFI Language/zh_CN'
p97
sg16
S'fdba5334f217b98153d8657808bbfd0d'
p98
sa(dp99
g2
S'20903'
p100
sg4
S'4908'
p101
sg6
S'a5b44b593f8f8dbc9d4ef18a119f70cf'
p102
sg8
S'xxe3563c94dde54cb87c3802b63b41314e'
p103
sg10
S'xxf0ce69602a68e5d82c03993c78018e89'
p104
sg12
S'xx35ec8ddeba79ded3b0e35a0f7ee281f1'
p105
sg14
S'Mozilla/5.0 (Linux; Android 4.4.4; Coolpad 5263 Build/KTU84P) AppleWebKit/537.36 (KHTML, like Gecko) Version/4.0 Chrome/37.0.0.0 Mobile MQQBrowser/6.8 TBS/036824 Safari/537.36 MicroMessenger/6.3.25.861 NetType/WIFI Language/zh_CN'
p106
sg16
S'fdba5334f217b98153d8657808bbfd0d'
p107
sa(dp108
g2
S'20903'
p109
sg4
S'4920'
p110
sg6
S'a5b44b593f8f8dbc9d4ef18a119f70cf'
p111
sg8
S'xxe3563c94dde54cb87c3802b63b41314e'
p112
sg10
S'xxf0ce69602a68e5d82c03993c78018e89'
p113
sg12
S'xx35ec8ddeba79ded3b0e35a0f7ee281f1'
p114
sg14
S'Mozilla/5.0 (Linux; Android 4.4.4; Coolpad 5263 Build/KTU84P) AppleWebKit/537.36 (KHTML, like Gecko) Version/4.0 Chrome/37.0.0.0 Mobile MQQBrowser/6.8 TBS/036824 Safari/537.36 MicroMessenger/6.3.25.861 NetType/WIFI Language/zh_CN'
p115
sg16
S'fdba5334f217b98153d8657808bbfd0d'
p116
sa(dp117
g2
S'20903'
p118
sg4
S'5281'
p119
sg6
S'a5b44b593f8f8dbc9d4ef18a119f70cf'
p120
sg8
S'xxe3563c94dde54cb87c3802b63b41314e'
p121
sg10
S'xxf0ce69602a68e5d82c03993c78018e89'
p122
sg12
S'xx35ec8ddeba79ded3b0e35a0f7ee281f1'
p123
sg14
S'Mozilla/5.0 (Linux; Android 4.4.4; Coolpad 5263 Build/KTU84P) AppleWebKit/537.36 (KHTML, like Gecko) Version/4.0 Chrome/37.0.0.0 Mobile MQQBrowser/6.8 TBS/036824 Safari/537.36 MicroMessenger/6.3.25.861 NetType/WIFI Language/zh_CN'
p124
sg16
S'fdba5334f217b98153d8657808bbfd0d'
p125
sa(dp126
g2
S'20903'
p127
sg4
S'5296'
p128
sg6
S'a5b44b593f8f8dbc9d4ef18a119f70cf'
p129
sg8
S'xxe3563c94dde54cb87c3802b63b41314e'
p130
sg10
S'xxf0ce69602a68e5d82c03993c78018e89'
p131
sg12
S'xx35ec8ddeba79ded3b0e35a0f7ee281f1'
p132
sg14
S'Mozilla/5.0 (Linux; Android 4.4.4; Coolpad 5263 Build/KTU84P) AppleWebKit/537.36 (KHTML, like Gecko) Version/4.0 Chrome/37.0.0.0 Mobile MQQBrowser/6.8 TBS/036824 Safari/537.36 MicroMessenger/6.3.25.861 NetType/WIFI Language/zh_CN'
p133
sg16
S'fdba5334f217b98153d8657808bbfd0d'
p134
sa(dp135
g2
S'20903'
p136
sg4
S'5659'
p137
sg6
S'6b415139e3d8c4a4ed08169940815b46'
p138
sg8
S'xxe3563c94dde54cb87c3802b63b41314e'
p139
sg10
S'xxf0ce69602a68e5d82c03993c78018e89'
p140
sg12
S'xx35ec8ddeba79ded3b0e35a0f7ee281f1'
p141
sg14
S'Mozilla/5.0 (Linux; Android 4.4.4; Coolpad 5263 Build/KTU84P) AppleWebKit/537.36 (KHTML, like Gecko) Version/4.0 Chrome/37.0.0.0 Mobile MQQBrowser/6.8 TBS/036824 Safari/537.36 MicroMessenger/6.3.25.861 NetType/WIFI Language/zh_CN'
p142
sg16
S'fdba5334f217b98153d8657808bbfd0d'
p143
sa(dp144
g2
S'20903'
p145
sg4
S'5675'
p146
sg6
S'6b415139e3d8c4a4ed08169940815b46'
p147
sg8
S'xxe3563c94dde54cb87c3802b63b41314e'
p148
sg10
S'xxf0ce69602a68e5d82c03993c78018e89'
p149
sg12
S'xx35ec8ddeba79ded3b0e35a0f7ee281f1'
p150
sg14
S'Mozilla/5.0 (Linux; Android 4.4.4; Coolpad 5263 Build/KTU84P) AppleWebKit/537.36 (KHTML, like Gecko) Version/4.0 Chrome/37.0.0.0 Mobile MQQBrowser/6.8 TBS/036824 Safari/537.36 MicroMessenger/6.3.25.861 NetType/WIFI Language/zh_CN'
p151
sg16
S'fdba5334f217b98153d8657808bbfd0d'
p152
sa(dp153
g2
S'20903'
p154
sg4
S'5959'
p155
sg6
S'6b415139e3d8c4a4ed08169940815b46'
p156
sg8
S'xxe3563c94dde54cb87c3802b63b41314e'
p157
sg10
S'xxf0ce69602a68e5d82c03993c78018e89'
p158
sg12
S'xx35ec8ddeba79ded3b0e35a0f7ee281f1'
p159
sg14
S'Mozilla/5.0 (Linux; Android 4.4.4; Coolpad 5263 Build/KTU84P) AppleWebKit/537.36 (KHTML, like Gecko) Version/4.0 Chrome/37.0.0.0 Mobile MQQBrowser/6.8 TBS/036824 Safari/537.36 MicroMessenger/6.3.25.861 NetType/WIFI Language/zh_CN'
p160
sg16
S'fdba5334f217b98153d8657808bbfd0d'
p161
sa(dp162
g2
S'20903'
p163
sg4
S'5972'
p164
sg6
S'6b415139e3d8c4a4ed08169940815b46'
p165
sg8
S'xxe3563c94dde54cb87c3802b63b41314e'
p166
sg10
S'xxf0ce69602a68e5d82c03993c78018e89'
p167
sg12
S'xx35ec8ddeba79ded3b0e35a0f7ee281f1'
p168
sg14
S'Mozilla/5.0 (Linux; Android 4.4.4; Coolpad 5263 Build/KTU84P) AppleWebKit/537.36 (KHTML, like Gecko) Version/4.0 Chrome/37.0.0.0 Mobile MQQBrowser/6.8 TBS/036824 Safari/537.36 MicroMessenger/6.3.25.861 NetType/WIFI Language/zh_CN'
p169
sg16
S'fdba5334f217b98153d8657808bbfd0d'
p170
sa.