(lp0
(dp1
S'user_id'
p2
S'37027'
p3
sS'data_id'
p4
S'3680'
p5
sS'ip'
p6
S'5aed78690d86fb465be0e63a638c1bb9'
p7
sS'phone_B'
p8
S'xx326dc37c4904bff5415d7f7f15f08e27'
p9
sS'phone_C'
p10
S'xxde0ecf86ab4b1704d3f21e666561e620'
p11
sS'phone_A'
p12
S'xx36227bdb5b459f3804ab78adb08e0f5e'
p13
sS'user_agent'
p14
S'Mozilla/5.0 (Linux; Android 6.0; HUAWEI VNS-AL00 Build/HUAWEIVNS-AL00) AppleWebKit/537.36 (KHTML, like Gecko) Version/4.0 Chrome/37.0.0.0 Mobile MQQBrowser/6.8 TBS/036849 Safari/537.36 MicroMessenger/6.3.25.861 NetType/WIFI Language/zh_CN'
p15
sS'ua'
p16
S'4a43e3df4004915bbb26834075f01e11'
p17
sa(dp18
g2
S'37027'
p19
sg4
S'3694'
p20
sg6
S'5aed78690d86fb465be0e63a638c1bb9'
p21
sg8
S'xx326dc37c4904bff5415d7f7f15f08e27'
p22
sg10
S'xxde0ecf86ab4b1704d3f21e666561e620'
p23
sg12
S'xx36227bdb5b459f3804ab78adb08e0f5e'
p24
sg14
S'Mozilla/5.0 (Linux; Android 6.0; HUAWEI VNS-AL00 Build/HUAWEIVNS-AL00) AppleWebKit/537.36 (KHTML, like Gecko) Version/4.0 Chrome/37.0.0.0 Mobile MQQBrowser/6.8 TBS/036849 Safari/537.36 MicroMessenger/6.3.25.861 NetType/WIFI Language/zh_CN'
p25
sg16
S'4a43e3df4004915bbb26834075f01e11'
p26
sa.