(lp0
(dp1
S'user_id'
p2
S'24583'
p3
sS'data_id'
p4
S'1384'
p5
sS'ip'
p6
S'4d8b1bff439f9276fb104eb85c87b5ad'
p7
sS'phone_B'
p8
S'xxd2e394a36d4fc736364faaec2fa42a9a'
p9
sS'phone_C'
p10
S'xxb54300b39e5940381e0ac5ab74b02402'
p11
sS'phone_A'
p12
S'xx370644bea1ee6764d508f0273d9b92d0'
p13
sS'user_agent'
p14
S'Mozilla/5.0 (Linux; Android 4.4.2; InFocus M530 Build/KOT49H) AppleWebKit/537.36 (KHTML, like Gecko) Version/4.0 Chrome/37.0.0.0 Mobile MQQBrowser/6.8 TBS/036849 Safari/537.36 MicroMessenger/6.3.25.861 NetType/WIFI Language/zh_CN'
p15
sS'ua'
p16
S'62c0744d2dadd2c086046e3068d94469'
p17
sa(dp18
g2
S'24583'
p19
sg4
S'1401'
p20
sg6
S'4d8b1bff439f9276fb104eb85c87b5ad'
p21
sg8
S'xxd2e394a36d4fc736364faaec2fa42a9a'
p22
sg10
S'xxb54300b39e5940381e0ac5ab74b02402'
p23
sg12
S'xx370644bea1ee6764d508f0273d9b92d0'
p24
sg14
S'Mozilla/5.0 (Linux; Android 4.4.2; InFocus M530 Build/KOT49H) AppleWebKit/537.36 (KHTML, like Gecko) Version/4.0 Chrome/37.0.0.0 Mobile MQQBrowser/6.8 TBS/036849 Safari/537.36 MicroMessenger/6.3.25.861 NetType/WIFI Language/zh_CN'
p25
sg16
S'62c0744d2dadd2c086046e3068d94469'
p26
sa.