(lp0
(dp1
S'user_id'
p2
S'29319'
p3
sS'data_id'
p4
S'1014'
p5
sS'ip'
p6
S'8ac4bc508bd0f308e6f7a0002f018e01'
p7
sS'phone_B'
p8
S'xxdbe93da239238a49d4267a738ba3ae1e'
p9
sS'phone_C'
p10
S'xx09c8d5b1b4d1f173c693be7067262bfa'
p11
sS'phone_A'
p12
S'xx3719b9fb359618090c370867c58d0925'
p13
sS'user_agent'
p14
S'Mozilla/5.0 (Linux; Android 5.1; DOOV A3 Build/LMY47D) AppleWebKit/537.36 (KHTML, like Gecko) Version/4.0 Chrome/37.0.0.0 Mobile MQQBrowser/6.8 TBS/036865 Safari/537.36 MicroMessenger/6.3.27.880 NetType/WIFI Language/zh_CN'
p15
sS'ua'
p16
S'02afb2906d892613b49f9557d1152821'
p17
sa(dp18
g2
S'29319'
p19
sg4
S'1027'
p20
sg6
S'8ac4bc508bd0f308e6f7a0002f018e01'
p21
sg8
S'xxdbe93da239238a49d4267a738ba3ae1e'
p22
sg10
S'xx09c8d5b1b4d1f173c693be7067262bfa'
p23
sg12
S'xx3719b9fb359618090c370867c58d0925'
p24
sg14
S'Mozilla/5.0 (Linux; Android 5.1; DOOV A3 Build/LMY47D) AppleWebKit/537.36 (KHTML, like Gecko) Version/4.0 Chrome/37.0.0.0 Mobile MQQBrowser/6.8 TBS/036865 Safari/537.36 MicroMessenger/6.3.27.880 NetType/WIFI Language/zh_CN'
p25
sg16
S'02afb2906d892613b49f9557d1152821'
p26
sa.