(lp0
(dp1
S'user_id'
p2
S'45812'
p3
sS'data_id'
p4
S'3221'
p5
sS'ip'
p6
S'0d7cbd546174114e09dd4afa8bdc6a68'
p7
sS'phone_B'
p8
S'xx884620945f9ffff50ff6bed8b6923a76'
p9
sS'phone_C'
p10
S'xxa1eddb067d69156b5a420a68e90e67cd'
p11
sS'phone_A'
p12
S'xx3791e3c256997cca51107a19cc618f53'
p13
sS'user_agent'
p14
S'Mozilla/5.0 (Linux; Android 4.4.2; HONOR H30-L01 Build/HonorH30-L01) AppleWebKit/537.36 (KHTML, like Gecko) Version/4.0 Chrome/37.0.0.0 Mobile MQQBrowser/6.8 TBS/036824 Safari/537.36 MicroMessenger/6.3.27.880 NetType/cmnet Language/zh_CN'
p15
sS'ua'
p16
S'42ccdfebb54b330c67559029ff269d95'
p17
sa(dp18
g2
S'45812'
p19
sg4
S'3239'
p20
sg6
S'0d7cbd546174114e09dd4afa8bdc6a68'
p21
sg8
S'xx884620945f9ffff50ff6bed8b6923a76'
p22
sg10
S'xxa1eddb067d69156b5a420a68e90e67cd'
p23
sg12
S'xx3791e3c256997cca51107a19cc618f53'
p24
sg14
S'Mozilla/5.0 (Linux; Android 4.4.2; HONOR H30-L01 Build/HonorH30-L01) AppleWebKit/537.36 (KHTML, like Gecko) Version/4.0 Chrome/37.0.0.0 Mobile MQQBrowser/6.8 TBS/036824 Safari/537.36 MicroMessenger/6.3.27.880 NetType/cmnet Language/zh_CN'
p25
sg16
S'42ccdfebb54b330c67559029ff269d95'
p26
sa(dp27
g2
S'45812'
p28
sg4
S'3252'
p29
sg6
S'0d7cbd546174114e09dd4afa8bdc6a68'
p30
sg8
S'xx884620945f9ffff50ff6bed8b6923a76'
p31
sg10
S'xxa1eddb067d69156b5a420a68e90e67cd'
p32
sg12
S'xx3791e3c256997cca51107a19cc618f53'
p33
sg14
S'Mozilla/5.0 (Linux; Android 4.4.2; HONOR H30-L01 Build/HonorH30-L01) AppleWebKit/537.36 (KHTML, like Gecko) Version/4.0 Chrome/37.0.0.0 Mobile MQQBrowser/6.8 TBS/036824 Safari/537.36 MicroMessenger/6.3.27.880 NetType/cmnet Language/zh_CN'
p34
sg16
S'42ccdfebb54b330c67559029ff269d95'
p35
sa.