(lp0
(dp1
S'user_id'
p2
S'25378'
p3
sS'data_id'
p4
S'2175'
p5
sS'ip'
p6
S'd263c48f93298402329a74ecaff01472'
p7
sS'phone_B'
p8
S'xxe1a002e31f9023a863f6e09b40113d53'
p9
sS'phone_C'
p10
S'xx0cd7a6f2e85b8e05fb014b9b634a62b4'
p11
sS'phone_A'
p12
S'xx38ac20bc52b1470b3b1b4d9813560c2a'
p13
sS'user_agent'
p14
S'Mozilla/5.0 (Linux; Android 5.1; Lovme Build/LMY47D) AppleWebKit/537.36 (KHTML, like Gecko) Version/4.0 Chrome/37.0.0.0 Mobile MQQBrowser/6.8 TBS/036849 Safari/537.36 MicroMessenger/6.3.27.880 NetType/NON_NETWORK Language/zh_CN'
p15
sS'ua'
p16
S'f5cf6bcfbce2a910833cb4c1069ee710'
p17
sa(dp18
g2
S'25378'
p19
sg4
S'2196'
p20
sg6
S'd263c48f93298402329a74ecaff01472'
p21
sg8
S'xxe1a002e31f9023a863f6e09b40113d53'
p22
sg10
S'xx0cd7a6f2e85b8e05fb014b9b634a62b4'
p23
sg12
S'xx38ac20bc52b1470b3b1b4d9813560c2a'
p24
sg14
S'Mozilla/5.0 (Linux; Android 5.1; Lovme Build/LMY47D) AppleWebKit/537.36 (KHTML, like Gecko) Version/4.0 Chrome/37.0.0.0 Mobile MQQBrowser/6.8 TBS/036849 Safari/537.36 MicroMessenger/6.3.27.880 NetType/NON_NETWORK Language/zh_CN'
p25
sg16
S'f5cf6bcfbce2a910833cb4c1069ee710'
p26
sa(dp27
g2
S'25378'
p28
sg4
S'2215'
p29
sg6
S'd263c48f93298402329a74ecaff01472'
p30
sg8
S'xxe1a002e31f9023a863f6e09b40113d53'
p31
sg10
S'xx0cd7a6f2e85b8e05fb014b9b634a62b4'
p32
sg12
S'xx38ac20bc52b1470b3b1b4d9813560c2a'
p33
sg14
S'Mozilla/5.0 (Linux; Android 5.1; Lovme Build/LMY47D) AppleWebKit/537.36 (KHTML, like Gecko) Version/4.0 Chrome/37.0.0.0 Mobile MQQBrowser/6.8 TBS/036849 Safari/537.36 MicroMessenger/6.3.27.880 NetType/NON_NETWORK Language/zh_CN'
p34
sg16
S'f5cf6bcfbce2a910833cb4c1069ee710'
p35
sa(dp36
g2
S'25378'
p37
sg4
S'4739'
p38
sg6
S'd263c48f93298402329a74ecaff01472'
p39
sg8
S'xx0562ce7d706db5ddea4d505e1f2f7ca7'
p40
sg10
S'xx0cd7a6f2e85b8e05fb014b9b634a62b4'
p41
sg12
S'xx38ac20bc52b1470b3b1b4d9813560c2a'
p42
sg14
S'Mozilla/5.0 (Linux; Android 5.1; Lovme Build/LMY47D) AppleWebKit/537.36 (KHTML, like Gecko) Version/4.0 Chrome/37.0.0.0 Mobile MQQBrowser/6.8 TBS/036849 Safari/537.36 MicroMessenger/6.3.27.880 NetType/WIFI Language/zh_CN'
p43
sg16
S'9e691a7cf2d6df99f350a710a32b925f'
p44
sa(dp45
g2
S'25378'
p46
sg4
S'4753'
p47
sg6
S'd263c48f93298402329a74ecaff01472'
p48
sg8
S'xx0562ce7d706db5ddea4d505e1f2f7ca7'
p49
sg10
S'xx0cd7a6f2e85b8e05fb014b9b634a62b4'
p50
sg12
S'xx38ac20bc52b1470b3b1b4d9813560c2a'
p51
sg14
S'Mozilla/5.0 (Linux; Android 5.1; Lovme Build/LMY47D) AppleWebKit/537.36 (KHTML, like Gecko) Version/4.0 Chrome/37.0.0.0 Mobile MQQBrowser/6.8 TBS/036849 Safari/537.36 MicroMessenger/6.3.27.880 NetType/WIFI Language/zh_CN'
p52
sg16
S'9e691a7cf2d6df99f350a710a32b925f'
p53
sa(dp54
g2
S'25378'
p55
sg4
S'5631'
p56
sg6
S'd263c48f93298402329a74ecaff01472'
p57
sg8
S'xx0562ce7d706db5ddea4d505e1f2f7ca7'
p58
sg10
S'xx0cd7a6f2e85b8e05fb014b9b634a62b4'
p59
sg12
S'xx38ac20bc52b1470b3b1b4d9813560c2a'
p60
sg14
S'Mozilla/5.0 (Linux; Android 5.1; Lovme Build/LMY47D) AppleWebKit/537.36 (KHTML, like Gecko) Version/4.0 Chrome/37.0.0.0 Mobile MQQBrowser/6.8 TBS/036849 Safari/537.36 MicroMessenger/6.3.27.880 NetType/WIFI Language/zh_CN'
p61
sg16
S'9e691a7cf2d6df99f350a710a32b925f'
p62
sa(dp63
g2
S'25378'
p64
sg4
S'5647'
p65
sg6
S'd263c48f93298402329a74ecaff01472'
p66
sg8
S'xx0562ce7d706db5ddea4d505e1f2f7ca7'
p67
sg10
S'xx0cd7a6f2e85b8e05fb014b9b634a62b4'
p68
sg12
S'xx38ac20bc52b1470b3b1b4d9813560c2a'
p69
sg14
S'Mozilla/5.0 (Linux; Android 5.1; Lovme Build/LMY47D) AppleWebKit/537.36 (KHTML, like Gecko) Version/4.0 Chrome/37.0.0.0 Mobile MQQBrowser/6.8 TBS/036849 Safari/537.36 MicroMessenger/6.3.27.880 NetType/WIFI Language/zh_CN'
p70
sg16
S'9e691a7cf2d6df99f350a710a32b925f'
p71
sa(dp72
g2
S'25378'
p73
sg4
S'5664'
p74
sg6
S'd263c48f93298402329a74ecaff01472'
p75
sg8
S'xx0562ce7d706db5ddea4d505e1f2f7ca7'
p76
sg10
S'xx0cd7a6f2e85b8e05fb014b9b634a62b4'
p77
sg12
S'xx38ac20bc52b1470b3b1b4d9813560c2a'
p78
sg14
S'Mozilla/5.0 (Linux; Android 5.1; Lovme Build/LMY47D) AppleWebKit/537.36 (KHTML, like Gecko) Version/4.0 Chrome/37.0.0.0 Mobile MQQBrowser/6.8 TBS/036849 Safari/537.36 MicroMessenger/6.3.27.880 NetType/WIFI Language/zh_CN'
p79
sg16
S'9e691a7cf2d6df99f350a710a32b925f'
p80
sa(dp81
g2
S'25378'
p82
sg4
S'5678'
p83
sg6
S'd263c48f93298402329a74ecaff01472'
p84
sg8
S'xx0562ce7d706db5ddea4d505e1f2f7ca7'
p85
sg10
S'xx0cd7a6f2e85b8e05fb014b9b634a62b4'
p86
sg12
S'xx38ac20bc52b1470b3b1b4d9813560c2a'
p87
sg14
S'Mozilla/5.0 (Linux; Android 5.1; Lovme Build/LMY47D) AppleWebKit/537.36 (KHTML, like Gecko) Version/4.0 Chrome/37.0.0.0 Mobile MQQBrowser/6.8 TBS/036849 Safari/537.36 MicroMessenger/6.3.27.880 NetType/WIFI Language/zh_CN'
p88
sg16
S'9e691a7cf2d6df99f350a710a32b925f'
p89
sa(dp90
g2
S'25378'
p91
sg4
S'6714'
p92
sg6
S'd263c48f93298402329a74ecaff01472'
p93
sg8
S'xx0562ce7d706db5ddea4d505e1f2f7ca7'
p94
sg10
S'xx0cd7a6f2e85b8e05fb014b9b634a62b4'
p95
sg12
S'xx38ac20bc52b1470b3b1b4d9813560c2a'
p96
sg14
S'Mozilla/5.0 (Linux; Android 5.1; Lovme Build/LMY47D) AppleWebKit/537.36 (KHTML, like Gecko) Version/4.0 Chrome/37.0.0.0 Mobile MQQBrowser/6.8 TBS/036849 Safari/537.36 MicroMessenger/6.3.27.880 NetType/WIFI Language/zh_CN'
p97
sg16
S'9e691a7cf2d6df99f350a710a32b925f'
p98
sa(dp99
g2
S'25378'
p100
sg4
S'6731'
p101
sg6
S'd263c48f93298402329a74ecaff01472'
p102
sg8
S'xx0562ce7d706db5ddea4d505e1f2f7ca7'
p103
sg10
S'xx0cd7a6f2e85b8e05fb014b9b634a62b4'
p104
sg12
S'xx38ac20bc52b1470b3b1b4d9813560c2a'
p105
sg14
S'Mozilla/5.0 (Linux; Android 5.1; Lovme Build/LMY47D) AppleWebKit/537.36 (KHTML, like Gecko) Version/4.0 Chrome/37.0.0.0 Mobile MQQBrowser/6.8 TBS/036849 Safari/537.36 MicroMessenger/6.3.27.880 NetType/WIFI Language/zh_CN'
p106
sg16
S'9e691a7cf2d6df99f350a710a32b925f'
p107
sa(dp108
g2
S'25378'
p109
sg4
S'6748'
p110
sg6
S'd263c48f93298402329a74ecaff01472'
p111
sg8
S'xx0562ce7d706db5ddea4d505e1f2f7ca7'
p112
sg10
S'xx0cd7a6f2e85b8e05fb014b9b634a62b4'
p113
sg12
S'xx38ac20bc52b1470b3b1b4d9813560c2a'
p114
sg14
S'Mozilla/5.0 (Linux; Android 5.1; Lovme Build/LMY47D) AppleWebKit/537.36 (KHTML, like Gecko) Version/4.0 Chrome/37.0.0.0 Mobile MQQBrowser/6.8 TBS/036849 Safari/537.36 MicroMessenger/6.3.27.880 NetType/WIFI Language/zh_CN'
p115
sg16
S'9e691a7cf2d6df99f350a710a32b925f'
p116
sa(dp117
g2
S'25378'
p118
sg4
S'7476'
p119
sg6
S'd263c48f93298402329a74ecaff01472'
p120
sg8
S'xx0562ce7d706db5ddea4d505e1f2f7ca7'
p121
sg10
S'xx0cd7a6f2e85b8e05fb014b9b634a62b4'
p122
sg12
S'xx38ac20bc52b1470b3b1b4d9813560c2a'
p123
sg14
S'Mozilla/5.0 (Linux; Android 5.1; Lovme Build/LMY47D) AppleWebKit/537.36 (KHTML, like Gecko) Version/4.0 Chrome/37.0.0.0 Mobile MQQBrowser/6.8 TBS/036849 Safari/537.36 MicroMessenger/6.3.27.880 NetType/WIFI Language/zh_CN'
p124
sg16
S'9e691a7cf2d6df99f350a710a32b925f'
p125
sa(dp126
g2
S'25378'
p127
sg4
S'7491'
p128
sg6
S'd263c48f93298402329a74ecaff01472'
p129
sg8
S'xx0562ce7d706db5ddea4d505e1f2f7ca7'
p130
sg10
S'xx0cd7a6f2e85b8e05fb014b9b634a62b4'
p131
sg12
S'xx38ac20bc52b1470b3b1b4d9813560c2a'
p132
sg14
S'Mozilla/5.0 (Linux; Android 5.1; Lovme Build/LMY47D) AppleWebKit/537.36 (KHTML, like Gecko) Version/4.0 Chrome/37.0.0.0 Mobile MQQBrowser/6.8 TBS/036849 Safari/537.36 MicroMessenger/6.3.27.880 NetType/WIFI Language/zh_CN'
p133
sg16
S'9e691a7cf2d6df99f350a710a32b925f'
p134
sa(dp135
g2
S'25378'
p136
sg4
S'7504'
p137
sg6
S'd263c48f93298402329a74ecaff01472'
p138
sg8
S'xx0562ce7d706db5ddea4d505e1f2f7ca7'
p139
sg10
S'xx0cd7a6f2e85b8e05fb014b9b634a62b4'
p140
sg12
S'xx38ac20bc52b1470b3b1b4d9813560c2a'
p141
sg14
S'Mozilla/5.0 (Linux; Android 5.1; Lovme Build/LMY47D) AppleWebKit/537.36 (KHTML, like Gecko) Version/4.0 Chrome/37.0.0.0 Mobile MQQBrowser/6.8 TBS/036849 Safari/537.36 MicroMessenger/6.3.27.880 NetType/WIFI Language/zh_CN'
p142
sg16
S'9e691a7cf2d6df99f350a710a32b925f'
p143
sa(dp144
g2
S'25378'
p145
sg4
S'7987'
p146
sg6
S'd263c48f93298402329a74ecaff01472'
p147
sg8
S'xx0562ce7d706db5ddea4d505e1f2f7ca7'
p148
sg10
S'xx0cd7a6f2e85b8e05fb014b9b634a62b4'
p149
sg12
S'xx38ac20bc52b1470b3b1b4d9813560c2a'
p150
sg14
S'Mozilla/5.0 (Linux; Android 5.1; Lovme Build/LMY47D) AppleWebKit/537.36 (KHTML, like Gecko) Version/4.0 Chrome/37.0.0.0 Mobile MQQBrowser/6.8 TBS/036849 Safari/537.36 MicroMessenger/6.3.27.880 NetType/WIFI Language/zh_CN'
p151
sg16
S'9e691a7cf2d6df99f350a710a32b925f'
p152
sa(dp153
g2
S'25378'
p154
sg4
S'8002'
p155
sg6
S'd263c48f93298402329a74ecaff01472'
p156
sg8
S'xx0562ce7d706db5ddea4d505e1f2f7ca7'
p157
sg10
S'xx0cd7a6f2e85b8e05fb014b9b634a62b4'
p158
sg12
S'xx38ac20bc52b1470b3b1b4d9813560c2a'
p159
sg14
S'Mozilla/5.0 (Linux; Android 5.1; Lovme Build/LMY47D) AppleWebKit/537.36 (KHTML, like Gecko) Version/4.0 Chrome/37.0.0.0 Mobile MQQBrowser/6.8 TBS/036849 Safari/537.36 MicroMessenger/6.3.27.880 NetType/WIFI Language/zh_CN'
p160
sg16
S'9e691a7cf2d6df99f350a710a32b925f'
p161
sa(dp162
g2
S'25378'
p163
sg4
S'8023'
p164
sg6
S'd263c48f93298402329a74ecaff01472'
p165
sg8
S'xx0562ce7d706db5ddea4d505e1f2f7ca7'
p166
sg10
S'xx0cd7a6f2e85b8e05fb014b9b634a62b4'
p167
sg12
S'xx38ac20bc52b1470b3b1b4d9813560c2a'
p168
sg14
S'Mozilla/5.0 (Linux; Android 5.1; Lovme Build/LMY47D) AppleWebKit/537.36 (KHTML, like Gecko) Version/4.0 Chrome/37.0.0.0 Mobile MQQBrowser/6.8 TBS/036849 Safari/537.36 MicroMessenger/6.3.27.880 NetType/WIFI Language/zh_CN'
p169
sg16
S'9e691a7cf2d6df99f350a710a32b925f'
p170
sa(dp171
g2
S'25378'
p172
sg4
S'8036'
p173
sg6
S'd263c48f93298402329a74ecaff01472'
p174
sg8
S'xx0562ce7d706db5ddea4d505e1f2f7ca7'
p175
sg10
S'xx0cd7a6f2e85b8e05fb014b9b634a62b4'
p176
sg12
S'xx38ac20bc52b1470b3b1b4d9813560c2a'
p177
sg14
S'Mozilla/5.0 (Linux; Android 5.1; Lovme Build/LMY47D) AppleWebKit/537.36 (KHTML, like Gecko) Version/4.0 Chrome/37.0.0.0 Mobile MQQBrowser/6.8 TBS/036849 Safari/537.36 MicroMessenger/6.3.27.880 NetType/WIFI Language/zh_CN'
p178
sg16
S'9e691a7cf2d6df99f350a710a32b925f'
p179
sa(dp180
g2
S'25378'
p181
sg4
S'8050'
p182
sg6
S'd263c48f93298402329a74ecaff01472'
p183
sg8
S'xx0562ce7d706db5ddea4d505e1f2f7ca7'
p184
sg10
S'xx0cd7a6f2e85b8e05fb014b9b634a62b4'
p185
sg12
S'xx38ac20bc52b1470b3b1b4d9813560c2a'
p186
sg14
S'Mozilla/5.0 (Linux; Android 5.1; Lovme Build/LMY47D) AppleWebKit/537.36 (KHTML, like Gecko) Version/4.0 Chrome/37.0.0.0 Mobile MQQBrowser/6.8 TBS/036849 Safari/537.36 MicroMessenger/6.3.27.880 NetType/WIFI Language/zh_CN'
p187
sg16
S'9e691a7cf2d6df99f350a710a32b925f'
p188
sa.