(lp0
(dp1
S'user_id'
p2
S'21649'
p3
sS'data_id'
p4
S'621'
p5
sS'ip'
p6
S'6857f71e4441648634da0f203af8440b'
p7
sS'phone_B'
p8
S'xx19a7c206b85929b82311857575213ebc'
p9
sS'phone_C'
p10
S'xx5475fc0ba51de281e444e9160b83d926'
p11
sS'phone_A'
p12
S'xx39c6ab5d5620aee76b91200aa750fc35'
p13
sS'user_agent'
p14
S'Mozilla/5.0 (Linux; Android 6.0; EVA-TL00 Build/HUAWEIEVA-TL00) AppleWebKit/537.36 (KHTML, like Gecko) Version/4.0 Chrome/37.0.0.0 Mobile MQQBrowser/6.8 TBS/036869 Safari/537.36 MicroMessenger/6.3.25.861 NetType/WIFI Language/zh_CN'
p15
sS'ua'
p16
S'8df4ed63481e8516a6d180a4a038aa19'
p17
sa(dp18
g2
S'21649'
p19
sg4
S'638'
p20
sg6
S'6857f71e4441648634da0f203af8440b'
p21
sg8
S'xx19a7c206b85929b82311857575213ebc'
p22
sg10
S'xx5475fc0ba51de281e444e9160b83d926'
p23
sg12
S'xx39c6ab5d5620aee76b91200aa750fc35'
p24
sg14
S'Mozilla/5.0 (Linux; Android 6.0; EVA-TL00 Build/HUAWEIEVA-TL00) AppleWebKit/537.36 (KHTML, like Gecko) Version/4.0 Chrome/37.0.0.0 Mobile MQQBrowser/6.8 TBS/036869 Safari/537.36 MicroMessenger/6.3.25.861 NetType/WIFI Language/zh_CN'
p25
sg16
S'8df4ed63481e8516a6d180a4a038aa19'
p26
sa(dp27
g2
S'32896'
p28
sg4
S'2241'
p29
sg6
S'9b702b47f60937d2232e81b6fea7d567'
p30
sg8
S'xxf2079ca7cb1fa0d8383aa43412581f2e'
p31
sg10
S'xx5475fc0ba51de281e444e9160b83d926'
p32
sg12
S'xx39c6ab5d5620aee76b91200aa750fc35'
p33
sg14
S'Mozilla/5.0 (Linux; Android 6.0; EVA-TL00 Build/HUAWEIEVA-TL00) AppleWebKit/537.36 (KHTML, like Gecko) Version/4.0 Chrome/37.0.0.0 Mobile MQQBrowser/6.8 TBS/036849 Safari/537.36 MicroMessenger/6.3.27.880 NetType/cmnet Language/zh_CN'
p34
sg16
S'fd37e77c5a33a2f6df20e1ae5e763885'
p35
sa(dp36
g2
S'32896'
p37
sg4
S'2258'
p38
sg6
S'9b702b47f60937d2232e81b6fea7d567'
p39
sg8
S'xxf2079ca7cb1fa0d8383aa43412581f2e'
p40
sg10
S'xx5475fc0ba51de281e444e9160b83d926'
p41
sg12
S'xx39c6ab5d5620aee76b91200aa750fc35'
p42
sg14
S'Mozilla/5.0 (Linux; Android 6.0; EVA-TL00 Build/HUAWEIEVA-TL00) AppleWebKit/537.36 (KHTML, like Gecko) Version/4.0 Chrome/37.0.0.0 Mobile MQQBrowser/6.8 TBS/036849 Safari/537.36 MicroMessenger/6.3.27.880 NetType/cmnet Language/zh_CN'
p43
sg16
S'fd37e77c5a33a2f6df20e1ae5e763885'
p44
sa(dp45
g2
S'32896'
p46
sg4
S'2297'
p47
sg6
S'9b702b47f60937d2232e81b6fea7d567'
p48
sg8
S'xxf2079ca7cb1fa0d8383aa43412581f2e'
p49
sg10
S'xx5475fc0ba51de281e444e9160b83d926'
p50
sg12
S'xx39c6ab5d5620aee76b91200aa750fc35'
p51
sg14
S'Mozilla/5.0 (Linux; Android 6.0; EVA-TL00 Build/HUAWEIEVA-TL00) AppleWebKit/537.36 (KHTML, like Gecko) Version/4.0 Chrome/37.0.0.0 Mobile MQQBrowser/6.8 TBS/036849 Safari/537.36 MicroMessenger/6.3.27.880 NetType/cmnet Language/zh_CN'
p52
sg16
S'fd37e77c5a33a2f6df20e1ae5e763885'
p53
sa(dp54
g2
S'32896'
p55
sg4
S'2311'
p56
sg6
S'9b702b47f60937d2232e81b6fea7d567'
p57
sg8
S'xxf2079ca7cb1fa0d8383aa43412581f2e'
p58
sg10
S'xx5475fc0ba51de281e444e9160b83d926'
p59
sg12
S'xx39c6ab5d5620aee76b91200aa750fc35'
p60
sg14
S'Mozilla/5.0 (Linux; Android 6.0; EVA-TL00 Build/HUAWEIEVA-TL00) AppleWebKit/537.36 (KHTML, like Gecko) Version/4.0 Chrome/37.0.0.0 Mobile MQQBrowser/6.8 TBS/036849 Safari/537.36 MicroMessenger/6.3.27.880 NetType/cmnet Language/zh_CN'
p61
sg16
S'fd37e77c5a33a2f6df20e1ae5e763885'
p62
sa(dp63
g2
S'32896'
p64
sg4
S'2482'
p65
sg6
S'9b702b47f60937d2232e81b6fea7d567'
p66
sg8
S'xxf2079ca7cb1fa0d8383aa43412581f2e'
p67
sg10
S'xx5475fc0ba51de281e444e9160b83d926'
p68
sg12
S'xx39c6ab5d5620aee76b91200aa750fc35'
p69
sg14
S'Mozilla/5.0 (Linux; Android 6.0; EVA-TL00 Build/HUAWEIEVA-TL00) AppleWebKit/537.36 (KHTML, like Gecko) Version/4.0 Chrome/37.0.0.0 Mobile MQQBrowser/6.8 TBS/036849 Safari/537.36 MicroMessenger/6.3.27.880 NetType/cmnet Language/zh_CN'
p70
sg16
S'fd37e77c5a33a2f6df20e1ae5e763885'
p71
sa(dp72
g2
S'32896'
p73
sg4
S'2497'
p74
sg6
S'9b702b47f60937d2232e81b6fea7d567'
p75
sg8
S'xxf2079ca7cb1fa0d8383aa43412581f2e'
p76
sg10
S'xx5475fc0ba51de281e444e9160b83d926'
p77
sg12
S'xx39c6ab5d5620aee76b91200aa750fc35'
p78
sg14
S'Mozilla/5.0 (Linux; Android 6.0; EVA-TL00 Build/HUAWEIEVA-TL00) AppleWebKit/537.36 (KHTML, like Gecko) Version/4.0 Chrome/37.0.0.0 Mobile MQQBrowser/6.8 TBS/036849 Safari/537.36 MicroMessenger/6.3.27.880 NetType/cmnet Language/zh_CN'
p79
sg16
S'fd37e77c5a33a2f6df20e1ae5e763885'
p80
sa.