(lp0
(dp1
S'user_id'
p2
S'41528'
p3
sS'data_id'
p4
S'142'
p5
sS'ip'
p6
S'3b329cfce90cf1535808562e8f7e1a5d'
p7
sS'phone_B'
p8
S'xx9e557f0ff327f629c3082bcc39e53d8c'
p9
sS'phone_C'
p10
S'xx85007361e25b26c0f89d2c38483d1a71'
p11
sS'phone_A'
p12
S'xx3ada0f9d5c2b57b132323ca0749bb940'
p13
sS'user_agent'
p14
S'Mozilla/5.0 (Linux; Android 4.4.4; N5207 Build/KTU84P) AppleWebKit/537.36 (KHTML, like Gecko) Version/4.0 Chrome/37.0.0.0 Mobile MQQBrowser/6.8 TBS/036849 Safari/537.36 MicroMessenger/6.3.27.880 NetType/WIFI Language/zh_CN'
p15
sS'ua'
p16
S'7aec1bb785d4fc8db6ce5098336216b9'
p17
sa(dp18
g2
S'41528'
p19
sg4
S'156'
p20
sg6
S'3b329cfce90cf1535808562e8f7e1a5d'
p21
sg8
S'xx9e557f0ff327f629c3082bcc39e53d8c'
p22
sg10
S'xx85007361e25b26c0f89d2c38483d1a71'
p23
sg12
S'xx3ada0f9d5c2b57b132323ca0749bb940'
p24
sg14
S'Mozilla/5.0 (Linux; Android 4.4.4; N5207 Build/KTU84P) AppleWebKit/537.36 (KHTML, like Gecko) Version/4.0 Chrome/37.0.0.0 Mobile MQQBrowser/6.8 TBS/036849 Safari/537.36 MicroMessenger/6.3.27.880 NetType/WIFI Language/zh_CN'
p25
sg16
S'7aec1bb785d4fc8db6ce5098336216b9'
p26
sa(dp27
g2
S'41528'
p28
sg4
S'177'
p29
sg6
S'3b329cfce90cf1535808562e8f7e1a5d'
p30
sg8
S'xx9e557f0ff327f629c3082bcc39e53d8c'
p31
sg10
S'xx85007361e25b26c0f89d2c38483d1a71'
p32
sg12
S'xx3ada0f9d5c2b57b132323ca0749bb940'
p33
sg14
S'Mozilla/5.0 (Linux; Android 4.4.4; N5207 Build/KTU84P) AppleWebKit/537.36 (KHTML, like Gecko) Version/4.0 Chrome/37.0.0.0 Mobile MQQBrowser/6.8 TBS/036849 Safari/537.36 MicroMessenger/6.3.27.880 NetType/WIFI Language/zh_CN'
p34
sg16
S'7aec1bb785d4fc8db6ce5098336216b9'
p35
sa(dp36
g2
S'41528'
p37
sg4
S'188'
p38
sg6
S'3b329cfce90cf1535808562e8f7e1a5d'
p39
sg8
S'xx9e557f0ff327f629c3082bcc39e53d8c'
p40
sg10
S'xx85007361e25b26c0f89d2c38483d1a71'
p41
sg12
S'xx3ada0f9d5c2b57b132323ca0749bb940'
p42
sg14
S'Mozilla/5.0 (Linux; Android 4.4.4; N5207 Build/KTU84P) AppleWebKit/537.36 (KHTML, like Gecko) Version/4.0 Chrome/37.0.0.0 Mobile MQQBrowser/6.8 TBS/036849 Safari/537.36 MicroMessenger/6.3.27.880 NetType/WIFI Language/zh_CN'
p43
sg16
S'7aec1bb785d4fc8db6ce5098336216b9'
p44
sa(dp45
g2
S'41528'
p46
sg4
S'208'
p47
sg6
S'3b329cfce90cf1535808562e8f7e1a5d'
p48
sg8
S'xx9e557f0ff327f629c3082bcc39e53d8c'
p49
sg10
S'xx85007361e25b26c0f89d2c38483d1a71'
p50
sg12
S'xx3ada0f9d5c2b57b132323ca0749bb940'
p51
sg14
S'Mozilla/5.0 (Linux; Android 4.4.4; N5207 Build/KTU84P) AppleWebKit/537.36 (KHTML, like Gecko) Version/4.0 Chrome/37.0.0.0 Mobile MQQBrowser/6.8 TBS/036849 Safari/537.36 MicroMessenger/6.3.27.880 NetType/WIFI Language/zh_CN'
p52
sg16
S'7aec1bb785d4fc8db6ce5098336216b9'
p53
sa(dp54
g2
S'41528'
p55
sg4
S'219'
p56
sg6
S'3b329cfce90cf1535808562e8f7e1a5d'
p57
sg8
S'xx9e557f0ff327f629c3082bcc39e53d8c'
p58
sg10
S'xx85007361e25b26c0f89d2c38483d1a71'
p59
sg12
S'xx3ada0f9d5c2b57b132323ca0749bb940'
p60
sg14
S'Mozilla/5.0 (Linux; Android 4.4.4; N5207 Build/KTU84P) AppleWebKit/537.36 (KHTML, like Gecko) Version/4.0 Chrome/37.0.0.0 Mobile MQQBrowser/6.8 TBS/036849 Safari/537.36 MicroMessenger/6.3.27.880 NetType/WIFI Language/zh_CN'
p61
sg16
S'7aec1bb785d4fc8db6ce5098336216b9'
p62
sa(dp63
g2
S'41528'
p64
sg4
S'227'
p65
sg6
S'3b329cfce90cf1535808562e8f7e1a5d'
p66
sg8
S'xx9e557f0ff327f629c3082bcc39e53d8c'
p67
sg10
S'xx85007361e25b26c0f89d2c38483d1a71'
p68
sg12
S'xx3ada0f9d5c2b57b132323ca0749bb940'
p69
sg14
S'Mozilla/5.0 (Linux; Android 4.4.4; N5207 Build/KTU84P) AppleWebKit/537.36 (KHTML, like Gecko) Version/4.0 Chrome/37.0.0.0 Mobile MQQBrowser/6.8 TBS/036849 Safari/537.36 MicroMessenger/6.3.27.880 NetType/WIFI Language/zh_CN'
p70
sg16
S'7aec1bb785d4fc8db6ce5098336216b9'
p71
sa(dp72
g2
S'41528'
p73
sg4
S'239'
p74
sg6
S'3b329cfce90cf1535808562e8f7e1a5d'
p75
sg8
S'xx9e557f0ff327f629c3082bcc39e53d8c'
p76
sg10
S'xx85007361e25b26c0f89d2c38483d1a71'
p77
sg12
S'xx3ada0f9d5c2b57b132323ca0749bb940'
p78
sg14
S'Mozilla/5.0 (Linux; Android 4.4.4; N5207 Build/KTU84P) AppleWebKit/537.36 (KHTML, like Gecko) Version/4.0 Chrome/37.0.0.0 Mobile MQQBrowser/6.8 TBS/036849 Safari/537.36 MicroMessenger/6.3.27.880 NetType/WIFI Language/zh_CN'
p79
sg16
S'7aec1bb785d4fc8db6ce5098336216b9'
p80
sa(dp81
g2
S'41528'
p82
sg4
S'251'
p83
sg6
S'3b329cfce90cf1535808562e8f7e1a5d'
p84
sg8
S'xx9e557f0ff327f629c3082bcc39e53d8c'
p85
sg10
S'xx85007361e25b26c0f89d2c38483d1a71'
p86
sg12
S'xx3ada0f9d5c2b57b132323ca0749bb940'
p87
sg14
S'Mozilla/5.0 (Linux; Android 4.4.4; N5207 Build/KTU84P) AppleWebKit/537.36 (KHTML, like Gecko) Version/4.0 Chrome/37.0.0.0 Mobile MQQBrowser/6.8 TBS/036849 Safari/537.36 MicroMessenger/6.3.27.880 NetType/WIFI Language/zh_CN'
p88
sg16
S'7aec1bb785d4fc8db6ce5098336216b9'
p89
sa(dp90
g2
S'41528'
p91
sg4
S'263'
p92
sg6
S'3b329cfce90cf1535808562e8f7e1a5d'
p93
sg8
S'xx9e557f0ff327f629c3082bcc39e53d8c'
p94
sg10
S'xx85007361e25b26c0f89d2c38483d1a71'
p95
sg12
S'xx3ada0f9d5c2b57b132323ca0749bb940'
p96
sg14
S'Mozilla/5.0 (Linux; Android 4.4.4; N5207 Build/KTU84P) AppleWebKit/537.36 (KHTML, like Gecko) Version/4.0 Chrome/37.0.0.0 Mobile MQQBrowser/6.8 TBS/036849 Safari/537.36 MicroMessenger/6.3.27.880 NetType/WIFI Language/zh_CN'
p97
sg16
S'7aec1bb785d4fc8db6ce5098336216b9'
p98
sa(dp99
g2
S'41528'
p100
sg4
S'274'
p101
sg6
S'3b329cfce90cf1535808562e8f7e1a5d'
p102
sg8
S'xx9e557f0ff327f629c3082bcc39e53d8c'
p103
sg10
S'xx85007361e25b26c0f89d2c38483d1a71'
p104
sg12
S'xx3ada0f9d5c2b57b132323ca0749bb940'
p105
sg14
S'Mozilla/5.0 (Linux; Android 4.4.4; N5207 Build/KTU84P) AppleWebKit/537.36 (KHTML, like Gecko) Version/4.0 Chrome/37.0.0.0 Mobile MQQBrowser/6.8 TBS/036849 Safari/537.36 MicroMessenger/6.3.27.880 NetType/WIFI Language/zh_CN'
p106
sg16
S'7aec1bb785d4fc8db6ce5098336216b9'
p107
sa(dp108
g2
S'41528'
p109
sg4
S'280'
p110
sg6
S'3b329cfce90cf1535808562e8f7e1a5d'
p111
sg8
S'xx9e557f0ff327f629c3082bcc39e53d8c'
p112
sg10
S'xx85007361e25b26c0f89d2c38483d1a71'
p113
sg12
S'xx3ada0f9d5c2b57b132323ca0749bb940'
p114
sg14
S'Mozilla/5.0 (Linux; Android 4.4.4; N5207 Build/KTU84P) AppleWebKit/537.36 (KHTML, like Gecko) Version/4.0 Chrome/37.0.0.0 Mobile MQQBrowser/6.8 TBS/036849 Safari/537.36 MicroMessenger/6.3.27.880 NetType/WIFI Language/zh_CN'
p115
sg16
S'7aec1bb785d4fc8db6ce5098336216b9'
p116
sa(dp117
g2
S'41528'
p118
sg4
S'290'
p119
sg6
S'3b329cfce90cf1535808562e8f7e1a5d'
p120
sg8
S'xx9e557f0ff327f629c3082bcc39e53d8c'
p121
sg10
S'xx85007361e25b26c0f89d2c38483d1a71'
p122
sg12
S'xx3ada0f9d5c2b57b132323ca0749bb940'
p123
sg14
S'Mozilla/5.0 (Linux; Android 4.4.4; N5207 Build/KTU84P) AppleWebKit/537.36 (KHTML, like Gecko) Version/4.0 Chrome/37.0.0.0 Mobile MQQBrowser/6.8 TBS/036849 Safari/537.36 MicroMessenger/6.3.27.880 NetType/WIFI Language/zh_CN'
p124
sg16
S'7aec1bb785d4fc8db6ce5098336216b9'
p125
sa(dp126
g2
S'41528'
p127
sg4
S'306'
p128
sg6
S'3b329cfce90cf1535808562e8f7e1a5d'
p129
sg8
S'xx9e557f0ff327f629c3082bcc39e53d8c'
p130
sg10
S'xx85007361e25b26c0f89d2c38483d1a71'
p131
sg12
S'xx3ada0f9d5c2b57b132323ca0749bb940'
p132
sg14
S'Mozilla/5.0 (Linux; Android 4.4.4; N5207 Build/KTU84P) AppleWebKit/537.36 (KHTML, like Gecko) Version/4.0 Chrome/37.0.0.0 Mobile MQQBrowser/6.8 TBS/036849 Safari/537.36 MicroMessenger/6.3.27.880 NetType/WIFI Language/zh_CN'
p133
sg16
S'7aec1bb785d4fc8db6ce5098336216b9'
p134
sa(dp135
g2
S'41528'
p136
sg4
S'481'
p137
sg6
S'3b329cfce90cf1535808562e8f7e1a5d'
p138
sg8
S'xx9e557f0ff327f629c3082bcc39e53d8c'
p139
sg10
S'xx85007361e25b26c0f89d2c38483d1a71'
p140
sg12
S'xx3ada0f9d5c2b57b132323ca0749bb940'
p141
sg14
S'Mozilla/5.0 (Linux; Android 4.4.4; N5207 Build/KTU84P) AppleWebKit/537.36 (KHTML, like Gecko) Version/4.0 Chrome/37.0.0.0 Mobile MQQBrowser/6.8 TBS/036849 Safari/537.36 MicroMessenger/6.3.27.880 NetType/WIFI Language/zh_CN'
p142
sg16
S'7aec1bb785d4fc8db6ce5098336216b9'
p143
sa(dp144
g2
S'41528'
p145
sg4
S'494'
p146
sg6
S'3b329cfce90cf1535808562e8f7e1a5d'
p147
sg8
S'xx9e557f0ff327f629c3082bcc39e53d8c'
p148
sg10
S'xx85007361e25b26c0f89d2c38483d1a71'
p149
sg12
S'xx3ada0f9d5c2b57b132323ca0749bb940'
p150
sg14
S'Mozilla/5.0 (Linux; Android 4.4.4; N5207 Build/KTU84P) AppleWebKit/537.36 (KHTML, like Gecko) Version/4.0 Chrome/37.0.0.0 Mobile MQQBrowser/6.8 TBS/036849 Safari/537.36 MicroMessenger/6.3.27.880 NetType/WIFI Language/zh_CN'
p151
sg16
S'7aec1bb785d4fc8db6ce5098336216b9'
p152
sa(dp153
g2
S'41528'
p154
sg4
S'502'
p155
sg6
S'3b329cfce90cf1535808562e8f7e1a5d'
p156
sg8
S'xx9e557f0ff327f629c3082bcc39e53d8c'
p157
sg10
S'xx85007361e25b26c0f89d2c38483d1a71'
p158
sg12
S'xx3ada0f9d5c2b57b132323ca0749bb940'
p159
sg14
S'Mozilla/5.0 (Linux; Android 4.4.4; N5207 Build/KTU84P) AppleWebKit/537.36 (KHTML, like Gecko) Version/4.0 Chrome/37.0.0.0 Mobile MQQBrowser/6.8 TBS/036849 Safari/537.36 MicroMessenger/6.3.27.880 NetType/WIFI Language/zh_CN'
p160
sg16
S'7aec1bb785d4fc8db6ce5098336216b9'
p161
sa(dp162
g2
S'41528'
p163
sg4
S'515'
p164
sg6
S'3b329cfce90cf1535808562e8f7e1a5d'
p165
sg8
S'xx9e557f0ff327f629c3082bcc39e53d8c'
p166
sg10
S'xx85007361e25b26c0f89d2c38483d1a71'
p167
sg12
S'xx3ada0f9d5c2b57b132323ca0749bb940'
p168
sg14
S'Mozilla/5.0 (Linux; Android 4.4.4; N5207 Build/KTU84P) AppleWebKit/537.36 (KHTML, like Gecko) Version/4.0 Chrome/37.0.0.0 Mobile MQQBrowser/6.8 TBS/036849 Safari/537.36 MicroMessenger/6.3.27.880 NetType/WIFI Language/zh_CN'
p169
sg16
S'7aec1bb785d4fc8db6ce5098336216b9'
p170
sa(dp171
g2
S'41528'
p172
sg4
S'829'
p173
sg6
S'3b329cfce90cf1535808562e8f7e1a5d'
p174
sg8
S'xx9e557f0ff327f629c3082bcc39e53d8c'
p175
sg10
S'xx85007361e25b26c0f89d2c38483d1a71'
p176
sg12
S'xx3ada0f9d5c2b57b132323ca0749bb940'
p177
sg14
S'Mozilla/5.0 (Linux; Android 4.4.4; N5207 Build/KTU84P) AppleWebKit/537.36 (KHTML, like Gecko) Version/4.0 Chrome/37.0.0.0 Mobile MQQBrowser/6.8 TBS/036849 Safari/537.36 MicroMessenger/6.3.27.880 NetType/WIFI Language/zh_CN'
p178
sg16
S'7aec1bb785d4fc8db6ce5098336216b9'
p179
sa(dp180
g2
S'41528'
p181
sg4
S'842'
p182
sg6
S'3b329cfce90cf1535808562e8f7e1a5d'
p183
sg8
S'xx9e557f0ff327f629c3082bcc39e53d8c'
p184
sg10
S'xx85007361e25b26c0f89d2c38483d1a71'
p185
sg12
S'xx3ada0f9d5c2b57b132323ca0749bb940'
p186
sg14
S'Mozilla/5.0 (Linux; Android 4.4.4; N5207 Build/KTU84P) AppleWebKit/537.36 (KHTML, like Gecko) Version/4.0 Chrome/37.0.0.0 Mobile MQQBrowser/6.8 TBS/036849 Safari/537.36 MicroMessenger/6.3.27.880 NetType/WIFI Language/zh_CN'
p187
sg16
S'7aec1bb785d4fc8db6ce5098336216b9'
p188
sa(dp189
g2
S'41528'
p190
sg4
S'860'
p191
sg6
S'3b329cfce90cf1535808562e8f7e1a5d'
p192
sg8
S'xx9e557f0ff327f629c3082bcc39e53d8c'
p193
sg10
S'xx85007361e25b26c0f89d2c38483d1a71'
p194
sg12
S'xx3ada0f9d5c2b57b132323ca0749bb940'
p195
sg14
S'Mozilla/5.0 (Linux; Android 4.4.4; N5207 Build/KTU84P) AppleWebKit/537.36 (KHTML, like Gecko) Version/4.0 Chrome/37.0.0.0 Mobile MQQBrowser/6.8 TBS/036849 Safari/537.36 MicroMessenger/6.3.27.880 NetType/WIFI Language/zh_CN'
p196
sg16
S'7aec1bb785d4fc8db6ce5098336216b9'
p197
sa(dp198
g2
S'41528'
p199
sg4
S'885'
p200
sg6
S'3b329cfce90cf1535808562e8f7e1a5d'
p201
sg8
S'xx9e557f0ff327f629c3082bcc39e53d8c'
p202
sg10
S'xx85007361e25b26c0f89d2c38483d1a71'
p203
sg12
S'xx3ada0f9d5c2b57b132323ca0749bb940'
p204
sg14
S'Mozilla/5.0 (Linux; Android 4.4.4; N5207 Build/KTU84P) AppleWebKit/537.36 (KHTML, like Gecko) Version/4.0 Chrome/37.0.0.0 Mobile MQQBrowser/6.8 TBS/036849 Safari/537.36 MicroMessenger/6.3.27.880 NetType/WIFI Language/zh_CN'
p205
sg16
S'7aec1bb785d4fc8db6ce5098336216b9'
p206
sa(dp207
g2
S'41528'
p208
sg4
S'902'
p209
sg6
S'3b329cfce90cf1535808562e8f7e1a5d'
p210
sg8
S'xx9e557f0ff327f629c3082bcc39e53d8c'
p211
sg10
S'xx85007361e25b26c0f89d2c38483d1a71'
p212
sg12
S'xx3ada0f9d5c2b57b132323ca0749bb940'
p213
sg14
S'Mozilla/5.0 (Linux; Android 4.4.4; N5207 Build/KTU84P) AppleWebKit/537.36 (KHTML, like Gecko) Version/4.0 Chrome/37.0.0.0 Mobile MQQBrowser/6.8 TBS/036849 Safari/537.36 MicroMessenger/6.3.27.880 NetType/WIFI Language/zh_CN'
p214
sg16
S'7aec1bb785d4fc8db6ce5098336216b9'
p215
sa(dp216
g2
S'41528'
p217
sg4
S'920'
p218
sg6
S'3b329cfce90cf1535808562e8f7e1a5d'
p219
sg8
S'xx9e557f0ff327f629c3082bcc39e53d8c'
p220
sg10
S'xx85007361e25b26c0f89d2c38483d1a71'
p221
sg12
S'xx3ada0f9d5c2b57b132323ca0749bb940'
p222
sg14
S'Mozilla/5.0 (Linux; Android 4.4.4; N5207 Build/KTU84P) AppleWebKit/537.36 (KHTML, like Gecko) Version/4.0 Chrome/37.0.0.0 Mobile MQQBrowser/6.8 TBS/036849 Safari/537.36 MicroMessenger/6.3.27.880 NetType/WIFI Language/zh_CN'
p223
sg16
S'7aec1bb785d4fc8db6ce5098336216b9'
p224
sa(dp225
g2
S'41528'
p226
sg4
S'933'
p227
sg6
S'3b329cfce90cf1535808562e8f7e1a5d'
p228
sg8
S'xx9e557f0ff327f629c3082bcc39e53d8c'
p229
sg10
S'xx85007361e25b26c0f89d2c38483d1a71'
p230
sg12
S'xx3ada0f9d5c2b57b132323ca0749bb940'
p231
sg14
S'Mozilla/5.0 (Linux; Android 4.4.4; N5207 Build/KTU84P) AppleWebKit/537.36 (KHTML, like Gecko) Version/4.0 Chrome/37.0.0.0 Mobile MQQBrowser/6.8 TBS/036849 Safari/537.36 MicroMessenger/6.3.27.880 NetType/WIFI Language/zh_CN'
p232
sg16
S'7aec1bb785d4fc8db6ce5098336216b9'
p233
sa(dp234
g2
S'41528'
p235
sg4
S'959'
p236
sg6
S'3b329cfce90cf1535808562e8f7e1a5d'
p237
sg8
S'xx9e557f0ff327f629c3082bcc39e53d8c'
p238
sg10
S'xx85007361e25b26c0f89d2c38483d1a71'
p239
sg12
S'xx3ada0f9d5c2b57b132323ca0749bb940'
p240
sg14
S'Mozilla/5.0 (Linux; Android 4.4.4; N5207 Build/KTU84P) AppleWebKit/537.36 (KHTML, like Gecko) Version/4.0 Chrome/37.0.0.0 Mobile MQQBrowser/6.8 TBS/036849 Safari/537.36 MicroMessenger/6.3.27.880 NetType/WIFI Language/zh_CN'
p241
sg16
S'7aec1bb785d4fc8db6ce5098336216b9'
p242
sa(dp243
g2
S'41528'
p244
sg4
S'981'
p245
sg6
S'3b329cfce90cf1535808562e8f7e1a5d'
p246
sg8
S'xx9e557f0ff327f629c3082bcc39e53d8c'
p247
sg10
S'xx85007361e25b26c0f89d2c38483d1a71'
p248
sg12
S'xx3ada0f9d5c2b57b132323ca0749bb940'
p249
sg14
S'Mozilla/5.0 (Linux; Android 4.4.4; N5207 Build/KTU84P) AppleWebKit/537.36 (KHTML, like Gecko) Version/4.0 Chrome/37.0.0.0 Mobile MQQBrowser/6.8 TBS/036849 Safari/537.36 MicroMessenger/6.3.27.880 NetType/WIFI Language/zh_CN'
p250
sg16
S'7aec1bb785d4fc8db6ce5098336216b9'
p251
sa(dp252
g2
S'41528'
p253
sg4
S'998'
p254
sg6
S'3b329cfce90cf1535808562e8f7e1a5d'
p255
sg8
S'xx9e557f0ff327f629c3082bcc39e53d8c'
p256
sg10
S'xx85007361e25b26c0f89d2c38483d1a71'
p257
sg12
S'xx3ada0f9d5c2b57b132323ca0749bb940'
p258
sg14
S'Mozilla/5.0 (Linux; Android 4.4.4; N5207 Build/KTU84P) AppleWebKit/537.36 (KHTML, like Gecko) Version/4.0 Chrome/37.0.0.0 Mobile MQQBrowser/6.8 TBS/036849 Safari/537.36 MicroMessenger/6.3.27.880 NetType/WIFI Language/zh_CN'
p259
sg16
S'7aec1bb785d4fc8db6ce5098336216b9'
p260
sa(dp261
g2
S'41528'
p262
sg4
S'1016'
p263
sg6
S'3b329cfce90cf1535808562e8f7e1a5d'
p264
sg8
S'xx9e557f0ff327f629c3082bcc39e53d8c'
p265
sg10
S'xx85007361e25b26c0f89d2c38483d1a71'
p266
sg12
S'xx3ada0f9d5c2b57b132323ca0749bb940'
p267
sg14
S'Mozilla/5.0 (Linux; Android 4.4.4; N5207 Build/KTU84P) AppleWebKit/537.36 (KHTML, like Gecko) Version/4.0 Chrome/37.0.0.0 Mobile MQQBrowser/6.8 TBS/036849 Safari/537.36 MicroMessenger/6.3.27.880 NetType/WIFI Language/zh_CN'
p268
sg16
S'7aec1bb785d4fc8db6ce5098336216b9'
p269
sa(dp270
g2
S'41528'
p271
sg4
S'1029'
p272
sg6
S'3b329cfce90cf1535808562e8f7e1a5d'
p273
sg8
S'xx9e557f0ff327f629c3082bcc39e53d8c'
p274
sg10
S'xx85007361e25b26c0f89d2c38483d1a71'
p275
sg12
S'xx3ada0f9d5c2b57b132323ca0749bb940'
p276
sg14
S'Mozilla/5.0 (Linux; Android 4.4.4; N5207 Build/KTU84P) AppleWebKit/537.36 (KHTML, like Gecko) Version/4.0 Chrome/37.0.0.0 Mobile MQQBrowser/6.8 TBS/036849 Safari/537.36 MicroMessenger/6.3.27.880 NetType/WIFI Language/zh_CN'
p277
sg16
S'7aec1bb785d4fc8db6ce5098336216b9'
p278
sa(dp279
g2
S'41528'
p280
sg4
S'1045'
p281
sg6
S'3b329cfce90cf1535808562e8f7e1a5d'
p282
sg8
S'xx9e557f0ff327f629c3082bcc39e53d8c'
p283
sg10
S'xx85007361e25b26c0f89d2c38483d1a71'
p284
sg12
S'xx3ada0f9d5c2b57b132323ca0749bb940'
p285
sg14
S'Mozilla/5.0 (Linux; Android 4.4.4; N5207 Build/KTU84P) AppleWebKit/537.36 (KHTML, like Gecko) Version/4.0 Chrome/37.0.0.0 Mobile MQQBrowser/6.8 TBS/036849 Safari/537.36 MicroMessenger/6.3.27.880 NetType/WIFI Language/zh_CN'
p286
sg16
S'7aec1bb785d4fc8db6ce5098336216b9'
p287
sa(dp288
g2
S'41528'
p289
sg4
S'1063'
p290
sg6
S'3b329cfce90cf1535808562e8f7e1a5d'
p291
sg8
S'xx9e557f0ff327f629c3082bcc39e53d8c'
p292
sg10
S'xx85007361e25b26c0f89d2c38483d1a71'
p293
sg12
S'xx3ada0f9d5c2b57b132323ca0749bb940'
p294
sg14
S'Mozilla/5.0 (Linux; Android 4.4.4; N5207 Build/KTU84P) AppleWebKit/537.36 (KHTML, like Gecko) Version/4.0 Chrome/37.0.0.0 Mobile MQQBrowser/6.8 TBS/036849 Safari/537.36 MicroMessenger/6.3.27.880 NetType/WIFI Language/zh_CN'
p295
sg16
S'7aec1bb785d4fc8db6ce5098336216b9'
p296
sa(dp297
g2
S'41528'
p298
sg4
S'1083'
p299
sg6
S'3b329cfce90cf1535808562e8f7e1a5d'
p300
sg8
S'xx9e557f0ff327f629c3082bcc39e53d8c'
p301
sg10
S'xx85007361e25b26c0f89d2c38483d1a71'
p302
sg12
S'xx3ada0f9d5c2b57b132323ca0749bb940'
p303
sg14
S'Mozilla/5.0 (Linux; Android 4.4.4; N5207 Build/KTU84P) AppleWebKit/537.36 (KHTML, like Gecko) Version/4.0 Chrome/37.0.0.0 Mobile MQQBrowser/6.8 TBS/036849 Safari/537.36 MicroMessenger/6.3.27.880 NetType/WIFI Language/zh_CN'
p304
sg16
S'7aec1bb785d4fc8db6ce5098336216b9'
p305
sa(dp306
g2
S'41528'
p307
sg4
S'1100'
p308
sg6
S'3b329cfce90cf1535808562e8f7e1a5d'
p309
sg8
S'xx9e557f0ff327f629c3082bcc39e53d8c'
p310
sg10
S'xx85007361e25b26c0f89d2c38483d1a71'
p311
sg12
S'xx3ada0f9d5c2b57b132323ca0749bb940'
p312
sg14
S'Mozilla/5.0 (Linux; Android 4.4.4; N5207 Build/KTU84P) AppleWebKit/537.36 (KHTML, like Gecko) Version/4.0 Chrome/37.0.0.0 Mobile MQQBrowser/6.8 TBS/036849 Safari/537.36 MicroMessenger/6.3.27.880 NetType/WIFI Language/zh_CN'
p313
sg16
S'7aec1bb785d4fc8db6ce5098336216b9'
p314
sa(dp315
g2
S'41528'
p316
sg4
S'1118'
p317
sg6
S'3b329cfce90cf1535808562e8f7e1a5d'
p318
sg8
S'xx9e557f0ff327f629c3082bcc39e53d8c'
p319
sg10
S'xx85007361e25b26c0f89d2c38483d1a71'
p320
sg12
S'xx3ada0f9d5c2b57b132323ca0749bb940'
p321
sg14
S'Mozilla/5.0 (Linux; Android 4.4.4; N5207 Build/KTU84P) AppleWebKit/537.36 (KHTML, like Gecko) Version/4.0 Chrome/37.0.0.0 Mobile MQQBrowser/6.8 TBS/036849 Safari/537.36 MicroMessenger/6.3.27.880 NetType/WIFI Language/zh_CN'
p322
sg16
S'7aec1bb785d4fc8db6ce5098336216b9'
p323
sa.