(lp0
(dp1
S'user_id'
p2
S'49773'
p3
sS'data_id'
p4
S'3480'
p5
sS'ip'
p6
S'1c8cb4e5c3acfa7834c09f8a7622eb2a'
p7
sS'phone_B'
p8
S'xx9f93f05782f65e7b009fb2019bb3091d'
p9
sS'phone_C'
p10
S'xx5b41f1d6910fea30384a6caebffa7da8'
p11
sS'phone_A'
p12
S'xx3b5ca451a413cce3e8e678c6f505b08c'
p13
sS'user_agent'
p14
S'Mozilla/5.0 (Linux; Android 4.4.2; GN715 Build/KVT49L) AppleWebKit/537.36 (KHTML, like Gecko) Version/4.0 Chrome/37.0.0.0 Mobile MQQBrowser/6.8 TBS/036849 Safari/537.36 MicroMessenger/6.3.27.880 NetType/WIFI Language/zh_CN'
p15
sS'ua'
p16
S'467684de7de56e5128e4e8d02896b9bb'
p17
sa(dp18
g2
S'49773'
p19
sg4
S'3495'
p20
sg6
S'1c8cb4e5c3acfa7834c09f8a7622eb2a'
p21
sg8
S'xx9f93f05782f65e7b009fb2019bb3091d'
p22
sg10
S'xx5b41f1d6910fea30384a6caebffa7da8'
p23
sg12
S'xx3b5ca451a413cce3e8e678c6f505b08c'
p24
sg14
S'Mozilla/5.0 (Linux; Android 4.4.2; GN715 Build/KVT49L) AppleWebKit/537.36 (KHTML, like Gecko) Version/4.0 Chrome/37.0.0.0 Mobile MQQBrowser/6.8 TBS/036849 Safari/537.36 MicroMessenger/6.3.27.880 NetType/WIFI Language/zh_CN'
p25
sg16
S'467684de7de56e5128e4e8d02896b9bb'
p26
sa.