(lp0
(dp1
S'user_id'
p2
S'10743'
p3
sS'data_id'
p4
S'310'
p5
sS'ip'
p6
S'faba5a531e0f6e9266f28ad0d113e621'
p7
sS'phone_B'
p8
S'xx88a7b3cc5a486a49b859e0bfd29fa30e'
p9
sS'phone_C'
p10
S'xx14b70e746e301bcd2eaa185383317439'
p11
sS'phone_A'
p12
S'xx3df81d31662745f4c54719d5054a7a37'
p13
sS'user_agent'
p14
S'Mozilla/5.0 (Linux; Android 4.3; GT-N7100 Build/JSS15J) AppleWebKit/537.36 (KHTML, like Gecko) Version/4.0 Chrome/37.0.0.0 Mobile MQQBrowser/6.8 TBS/036869 Safari/537.36 MicroMessenger/6.3.27.880 NetType/WIFI Language/zh_CN'
p15
sS'ua'
p16
S'3b76d017d0153c8da03304e9bc7f47fb'
p17
sa(dp18
g2
S'10743'
p19
sg4
S'326'
p20
sg6
S'faba5a531e0f6e9266f28ad0d113e621'
p21
sg8
S'xx88a7b3cc5a486a49b859e0bfd29fa30e'
p22
sg10
S'xx14b70e746e301bcd2eaa185383317439'
p23
sg12
S'xx3df81d31662745f4c54719d5054a7a37'
p24
sg14
S'Mozilla/5.0 (Linux; Android 4.3; GT-N7100 Build/JSS15J) AppleWebKit/537.36 (KHTML, like Gecko) Version/4.0 Chrome/37.0.0.0 Mobile MQQBrowser/6.8 TBS/036869 Safari/537.36 MicroMessenger/6.3.27.880 NetType/WIFI Language/zh_CN'
p25
sg16
S'3b76d017d0153c8da03304e9bc7f47fb'
p26
sa(dp27
g2
S'10743'
p28
sg4
S'342'
p29
sg6
S'faba5a531e0f6e9266f28ad0d113e621'
p30
sg8
S'xx88a7b3cc5a486a49b859e0bfd29fa30e'
p31
sg10
S'xx14b70e746e301bcd2eaa185383317439'
p32
sg12
S'xx3df81d31662745f4c54719d5054a7a37'
p33
sg14
S'Mozilla/5.0 (Linux; Android 4.3; GT-N7100 Build/JSS15J) AppleWebKit/537.36 (KHTML, like Gecko) Version/4.0 Chrome/37.0.0.0 Mobile MQQBrowser/6.8 TBS/036869 Safari/537.36 MicroMessenger/6.3.27.880 NetType/WIFI Language/zh_CN'
p34
sg16
S'3b76d017d0153c8da03304e9bc7f47fb'
p35
sa(dp36
g2
S'36789'
p37
sg4
S'3772'
p38
sg6
S'a7dc1b0f19a110000477ede444e72f00'
p39
sg8
S'xx1a13e273e550dbcdc931b4a652b5e086'
p40
sg10
S'xx50dd1ac55659b864ce17d2796a9374a6'
p41
sg12
S'xx3df81d31662745f4c54719d5054a7a37'
p42
sg14
S'Mozilla/5.0 (Linux; Android 4.3; GT-N7100 Build/JSS15J) AppleWebKit/537.36 (KHTML, like Gecko) Version/4.0 Chrome/37.0.0.0 Mobile MQQBrowser/6.8 TBS/036849 Safari/537.36 MicroMessenger/6.3.25.861 NetType/3gnet Language/zh_CN'
p43
sg16
S'c2e0ed1022dfc6458ad092c8e3190f2b'
p44
sa(dp45
g2
S'36789'
p46
sg4
S'3787'
p47
sg6
S'a7dc1b0f19a110000477ede444e72f00'
p48
sg8
S'xx1a13e273e550dbcdc931b4a652b5e086'
p49
sg10
S'xx50dd1ac55659b864ce17d2796a9374a6'
p50
sg12
S'xx3df81d31662745f4c54719d5054a7a37'
p51
sg14
S'Mozilla/5.0 (Linux; Android 4.3; GT-N7100 Build/JSS15J) AppleWebKit/537.36 (KHTML, like Gecko) Version/4.0 Chrome/37.0.0.0 Mobile MQQBrowser/6.8 TBS/036849 Safari/537.36 MicroMessenger/6.3.25.861 NetType/3gnet Language/zh_CN'
p52
sg16
S'c2e0ed1022dfc6458ad092c8e3190f2b'
p53
sa.