(lp0
(dp1
S'user_id'
p2
S'32100'
p3
sS'data_id'
p4
S'7405'
p5
sS'ip'
p6
S'cbb5213867fd345f0c9e699b16abb6cb'
p7
sS'phone_B'
p8
S'xxcbee0eeda810079df08574af55137dd5'
p9
sS'phone_C'
p10
S'xx2a3e42df45a6a2dcc142e25d48c05b00'
p11
sS'phone_A'
p12
S'xx3d1c79fac7c23c7f609b50a1ff50855f'
p13
sS'user_agent'
p14
S'Mozilla/5.0 (Linux; Android 5.1; GN3001 Build/LMY47I) AppleWebKit/537.36 (KHTML, like Gecko) Version/4.0 Chrome/37.0.0.0 Mobile MQQBrowser/6.8 TBS/036849 Safari/537.36 MicroMessenger/6.3.27.880 NetType/WIFI Language/zh_CN'
p15
sS'ua'
p16
S'522446d44c52b0b4778c9722a2ab4a39'
p17
sa(dp18
g2
S'32100'
p19
sg4
S'7419'
p20
sg6
S'cbb5213867fd345f0c9e699b16abb6cb'
p21
sg8
S'xxcbee0eeda810079df08574af55137dd5'
p22
sg10
S'xx2a3e42df45a6a2dcc142e25d48c05b00'
p23
sg12
S'xx3d1c79fac7c23c7f609b50a1ff50855f'
p24
sg14
S'Mozilla/5.0 (Linux; Android 5.1; GN3001 Build/LMY47I) AppleWebKit/537.36 (KHTML, like Gecko) Version/4.0 Chrome/37.0.0.0 Mobile MQQBrowser/6.8 TBS/036849 Safari/537.36 MicroMessenger/6.3.27.880 NetType/WIFI Language/zh_CN'
p25
sg16
S'522446d44c52b0b4778c9722a2ab4a39'
p26
sa(dp27
g2
S'32100'
p28
sg4
S'7435'
p29
sg6
S'cbb5213867fd345f0c9e699b16abb6cb'
p30
sg8
S'xxcbee0eeda810079df08574af55137dd5'
p31
sg10
S'xx2a3e42df45a6a2dcc142e25d48c05b00'
p32
sg12
S'xx3d1c79fac7c23c7f609b50a1ff50855f'
p33
sg14
S'Mozilla/5.0 (Linux; Android 5.1; GN3001 Build/LMY47I) AppleWebKit/537.36 (KHTML, like Gecko) Version/4.0 Chrome/37.0.0.0 Mobile MQQBrowser/6.8 TBS/036849 Safari/537.36 MicroMessenger/6.3.27.880 NetType/WIFI Language/zh_CN'
p34
sg16
S'522446d44c52b0b4778c9722a2ab4a39'
p35
sa(dp36
g2
S'32100'
p37
sg4
S'7449'
p38
sg6
S'cbb5213867fd345f0c9e699b16abb6cb'
p39
sg8
S'xxcbee0eeda810079df08574af55137dd5'
p40
sg10
S'xx2a3e42df45a6a2dcc142e25d48c05b00'
p41
sg12
S'xx3d1c79fac7c23c7f609b50a1ff50855f'
p42
sg14
S'Mozilla/5.0 (Linux; Android 5.1; GN3001 Build/LMY47I) AppleWebKit/537.36 (KHTML, like Gecko) Version/4.0 Chrome/37.0.0.0 Mobile MQQBrowser/6.8 TBS/036849 Safari/537.36 MicroMessenger/6.3.27.880 NetType/WIFI Language/zh_CN'
p43
sg16
S'522446d44c52b0b4778c9722a2ab4a39'
p44
sa.