(lp0
(dp1
S'user_id'
p2
S'25'
p3
sS'data_id'
p4
S'2467'
p5
sS'ip'
p6
S'73ede5e346b8c0de1d4f0dcb4bc19f1e'
p7
sS'phone_B'
p8
S'xx4953f07a6b7cc9c7319421e7956265ed'
p9
sS'phone_C'
p10
S'xx516fae660602b9d42a4e18ac1164822d'
p11
sS'phone_A'
p12
S'xx3d4eb15198295f5a40d62bd83188a091'
p13
sS'user_agent'
p14
S'Mozilla/5.0 (Linux; Android 4.4.4; R8207 Build/KTU84P) AppleWebKit/537.36 (KHTML, like Gecko) Version/4.0 Chrome/37.0.0.0 Mobile MQQBrowser/6.8 TBS/036849 Safari/537.36 MicroMessenger/6.3.27.880 NetType/WIFI Language/zh_CN'
p15
sS'ua'
p16
S'89ee4200195ed0c9d8825b6faf068ed6'
p17
sa(dp18
g2
S'25'
p19
sg4
S'2487'
p20
sg6
S'73ede5e346b8c0de1d4f0dcb4bc19f1e'
p21
sg8
S'xx4953f07a6b7cc9c7319421e7956265ed'
p22
sg10
S'xx516fae660602b9d42a4e18ac1164822d'
p23
sg12
S'xx3d4eb15198295f5a40d62bd83188a091'
p24
sg14
S'Mozilla/5.0 (Linux; Android 4.4.4; R8207 Build/KTU84P) AppleWebKit/537.36 (KHTML, like Gecko) Version/4.0 Chrome/37.0.0.0 Mobile MQQBrowser/6.8 TBS/036849 Safari/537.36 MicroMessenger/6.3.27.880 NetType/WIFI Language/zh_CN'
p25
sg16
S'89ee4200195ed0c9d8825b6faf068ed6'
p26
sa(dp27
g2
S'5142'
p28
sg4
S'2549'
p29
sg6
S'0e033512c3b94dfe5788bdf362e456c9'
p30
sg8
S'xxe7667c44d84e0e971592bfedec46efed'
p31
sg10
S'xx516fae660602b9d42a4e18ac1164822d'
p32
sg12
S'xx3d4eb15198295f5a40d62bd83188a091'
p33
sg14
S'Mozilla/5.0 (Linux; Android 4.4.4; R8207 Build/KTU84P) AppleWebKit/537.36 (KHTML, like Gecko) Version/4.0 Chrome/37.0.0.0 Mobile MQQBrowser/6.8 TBS/036849 Safari/537.36 MicroMessenger/6.3.25.861 NetType/WIFI Language/zh_CN'
p34
sg16
S'458d043906b8de9bc864466d77132286'
p35
sa(dp36
g2
S'5142'
p37
sg4
S'2571'
p38
sg6
S'0e033512c3b94dfe5788bdf362e456c9'
p39
sg8
S'xxe7667c44d84e0e971592bfedec46efed'
p40
sg10
S'xx516fae660602b9d42a4e18ac1164822d'
p41
sg12
S'xx3d4eb15198295f5a40d62bd83188a091'
p42
sg14
S'Mozilla/5.0 (Linux; Android 4.4.4; R8207 Build/KTU84P) AppleWebKit/537.36 (KHTML, like Gecko) Version/4.0 Chrome/37.0.0.0 Mobile MQQBrowser/6.8 TBS/036849 Safari/537.36 MicroMessenger/6.3.25.861 NetType/WIFI Language/zh_CN'
p43
sg16
S'458d043906b8de9bc864466d77132286'
p44
sa(dp45
g2
S'5142'
p46
sg4
S'2598'
p47
sg6
S'0e033512c3b94dfe5788bdf362e456c9'
p48
sg8
S'xxe7667c44d84e0e971592bfedec46efed'
p49
sg10
S'xx516fae660602b9d42a4e18ac1164822d'
p50
sg12
S'xx3d4eb15198295f5a40d62bd83188a091'
p51
sg14
S'Mozilla/5.0 (Linux; Android 4.4.4; R8207 Build/KTU84P) AppleWebKit/537.36 (KHTML, like Gecko) Version/4.0 Chrome/37.0.0.0 Mobile MQQBrowser/6.8 TBS/036849 Safari/537.36 MicroMessenger/6.3.25.861 NetType/WIFI Language/zh_CN'
p52
sg16
S'458d043906b8de9bc864466d77132286'
p53
sa(dp54
g2
S'5142'
p55
sg4
S'2614'
p56
sg6
S'0e033512c3b94dfe5788bdf362e456c9'
p57
sg8
S'xxe7667c44d84e0e971592bfedec46efed'
p58
sg10
S'xx516fae660602b9d42a4e18ac1164822d'
p59
sg12
S'xx3d4eb15198295f5a40d62bd83188a091'
p60
sg14
S'Mozilla/5.0 (Linux; Android 4.4.4; R8207 Build/KTU84P) AppleWebKit/537.36 (KHTML, like Gecko) Version/4.0 Chrome/37.0.0.0 Mobile MQQBrowser/6.8 TBS/036849 Safari/537.36 MicroMessenger/6.3.25.861 NetType/WIFI Language/zh_CN'
p61
sg16
S'458d043906b8de9bc864466d77132286'
p62
sa(dp63
g2
S'5142'
p64
sg4
S'2630'
p65
sg6
S'0e033512c3b94dfe5788bdf362e456c9'
p66
sg8
S'xxe7667c44d84e0e971592bfedec46efed'
p67
sg10
S'xx516fae660602b9d42a4e18ac1164822d'
p68
sg12
S'xx3d4eb15198295f5a40d62bd83188a091'
p69
sg14
S'Mozilla/5.0 (Linux; Android 4.4.4; R8207 Build/KTU84P) AppleWebKit/537.36 (KHTML, like Gecko) Version/4.0 Chrome/37.0.0.0 Mobile MQQBrowser/6.8 TBS/036849 Safari/537.36 MicroMessenger/6.3.25.861 NetType/WIFI Language/zh_CN'
p70
sg16
S'458d043906b8de9bc864466d77132286'
p71
sa(dp72
g2
S'5142'
p73
sg4
S'2652'
p74
sg6
S'0e033512c3b94dfe5788bdf362e456c9'
p75
sg8
S'xxe7667c44d84e0e971592bfedec46efed'
p76
sg10
S'xx516fae660602b9d42a4e18ac1164822d'
p77
sg12
S'xx3d4eb15198295f5a40d62bd83188a091'
p78
sg14
S'Mozilla/5.0 (Linux; Android 4.4.4; R8207 Build/KTU84P) AppleWebKit/537.36 (KHTML, like Gecko) Version/4.0 Chrome/37.0.0.0 Mobile MQQBrowser/6.8 TBS/036849 Safari/537.36 MicroMessenger/6.3.25.861 NetType/WIFI Language/zh_CN'
p79
sg16
S'458d043906b8de9bc864466d77132286'
p80
sa(dp81
g2
S'5142'
p82
sg4
S'2675'
p83
sg6
S'0e033512c3b94dfe5788bdf362e456c9'
p84
sg8
S'xxe7667c44d84e0e971592bfedec46efed'
p85
sg10
S'xx516fae660602b9d42a4e18ac1164822d'
p86
sg12
S'xx3d4eb15198295f5a40d62bd83188a091'
p87
sg14
S'Mozilla/5.0 (Linux; Android 4.4.4; R8207 Build/KTU84P) AppleWebKit/537.36 (KHTML, like Gecko) Version/4.0 Chrome/37.0.0.0 Mobile MQQBrowser/6.8 TBS/036849 Safari/537.36 MicroMessenger/6.3.25.861 NetType/WIFI Language/zh_CN'
p88
sg16
S'458d043906b8de9bc864466d77132286'
p89
sa(dp90
g2
S'5142'
p91
sg4
S'2696'
p92
sg6
S'0e033512c3b94dfe5788bdf362e456c9'
p93
sg8
S'xxe7667c44d84e0e971592bfedec46efed'
p94
sg10
S'xx516fae660602b9d42a4e18ac1164822d'
p95
sg12
S'xx3d4eb15198295f5a40d62bd83188a091'
p96
sg14
S'Mozilla/5.0 (Linux; Android 4.4.4; R8207 Build/KTU84P) AppleWebKit/537.36 (KHTML, like Gecko) Version/4.0 Chrome/37.0.0.0 Mobile MQQBrowser/6.8 TBS/036849 Safari/537.36 MicroMessenger/6.3.25.861 NetType/WIFI Language/zh_CN'
p97
sg16
S'458d043906b8de9bc864466d77132286'
p98
sa(dp99
g2
S'5142'
p100
sg4
S'2716'
p101
sg6
S'0e033512c3b94dfe5788bdf362e456c9'
p102
sg8
S'xxe7667c44d84e0e971592bfedec46efed'
p103
sg10
S'xx516fae660602b9d42a4e18ac1164822d'
p104
sg12
S'xx3d4eb15198295f5a40d62bd83188a091'
p105
sg14
S'Mozilla/5.0 (Linux; Android 4.4.4; R8207 Build/KTU84P) AppleWebKit/537.36 (KHTML, like Gecko) Version/4.0 Chrome/37.0.0.0 Mobile MQQBrowser/6.8 TBS/036849 Safari/537.36 MicroMessenger/6.3.25.861 NetType/WIFI Language/zh_CN'
p106
sg16
S'458d043906b8de9bc864466d77132286'
p107
sa(dp108
g2
S'5142'
p109
sg4
S'2734'
p110
sg6
S'0e033512c3b94dfe5788bdf362e456c9'
p111
sg8
S'xxe7667c44d84e0e971592bfedec46efed'
p112
sg10
S'xx516fae660602b9d42a4e18ac1164822d'
p113
sg12
S'xx3d4eb15198295f5a40d62bd83188a091'
p114
sg14
S'Mozilla/5.0 (Linux; Android 4.4.4; R8207 Build/KTU84P) AppleWebKit/537.36 (KHTML, like Gecko) Version/4.0 Chrome/37.0.0.0 Mobile MQQBrowser/6.8 TBS/036849 Safari/537.36 MicroMessenger/6.3.25.861 NetType/WIFI Language/zh_CN'
p115
sg16
S'458d043906b8de9bc864466d77132286'
p116
sa(dp117
g2
S'5142'
p118
sg4
S'2755'
p119
sg6
S'0e033512c3b94dfe5788bdf362e456c9'
p120
sg8
S'xxe7667c44d84e0e971592bfedec46efed'
p121
sg10
S'xx516fae660602b9d42a4e18ac1164822d'
p122
sg12
S'xx3d4eb15198295f5a40d62bd83188a091'
p123
sg14
S'Mozilla/5.0 (Linux; Android 4.4.4; R8207 Build/KTU84P) AppleWebKit/537.36 (KHTML, like Gecko) Version/4.0 Chrome/37.0.0.0 Mobile MQQBrowser/6.8 TBS/036849 Safari/537.36 MicroMessenger/6.3.25.861 NetType/WIFI Language/zh_CN'
p124
sg16
S'458d043906b8de9bc864466d77132286'
p125
sa(dp126
g2
S'5142'
p127
sg4
S'2765'
p128
sg6
S'0e033512c3b94dfe5788bdf362e456c9'
p129
sg8
S'xxe7667c44d84e0e971592bfedec46efed'
p130
sg10
S'xx516fae660602b9d42a4e18ac1164822d'
p131
sg12
S'xx3d4eb15198295f5a40d62bd83188a091'
p132
sg14
S'Mozilla/5.0 (Linux; Android 4.4.4; R8207 Build/KTU84P) AppleWebKit/537.36 (KHTML, like Gecko) Version/4.0 Chrome/37.0.0.0 Mobile MQQBrowser/6.8 TBS/036849 Safari/537.36 MicroMessenger/6.3.25.861 NetType/WIFI Language/zh_CN'
p133
sg16
S'458d043906b8de9bc864466d77132286'
p134
sa(dp135
g2
S'5142'
p136
sg4
S'2779'
p137
sg6
S'0e033512c3b94dfe5788bdf362e456c9'
p138
sg8
S'xxe7667c44d84e0e971592bfedec46efed'
p139
sg10
S'xx516fae660602b9d42a4e18ac1164822d'
p140
sg12
S'xx3d4eb15198295f5a40d62bd83188a091'
p141
sg14
S'Mozilla/5.0 (Linux; Android 4.4.4; R8207 Build/KTU84P) AppleWebKit/537.36 (KHTML, like Gecko) Version/4.0 Chrome/37.0.0.0 Mobile MQQBrowser/6.8 TBS/036849 Safari/537.36 MicroMessenger/6.3.25.861 NetType/WIFI Language/zh_CN'
p142
sg16
S'458d043906b8de9bc864466d77132286'
p143
sa(dp144
g2
S'5142'
p145
sg4
S'2788'
p146
sg6
S'0e033512c3b94dfe5788bdf362e456c9'
p147
sg8
S'xxe7667c44d84e0e971592bfedec46efed'
p148
sg10
S'xx516fae660602b9d42a4e18ac1164822d'
p149
sg12
S'xx3d4eb15198295f5a40d62bd83188a091'
p150
sg14
S'Mozilla/5.0 (Linux; Android 4.4.4; R8207 Build/KTU84P) AppleWebKit/537.36 (KHTML, like Gecko) Version/4.0 Chrome/37.0.0.0 Mobile MQQBrowser/6.8 TBS/036849 Safari/537.36 MicroMessenger/6.3.25.861 NetType/WIFI Language/zh_CN'
p151
sg16
S'458d043906b8de9bc864466d77132286'
p152
sa(dp153
g2
S'5142'
p154
sg4
S'2798'
p155
sg6
S'0e033512c3b94dfe5788bdf362e456c9'
p156
sg8
S'xxe7667c44d84e0e971592bfedec46efed'
p157
sg10
S'xx516fae660602b9d42a4e18ac1164822d'
p158
sg12
S'xx3d4eb15198295f5a40d62bd83188a091'
p159
sg14
S'Mozilla/5.0 (Linux; Android 4.4.4; R8207 Build/KTU84P) AppleWebKit/537.36 (KHTML, like Gecko) Version/4.0 Chrome/37.0.0.0 Mobile MQQBrowser/6.8 TBS/036849 Safari/537.36 MicroMessenger/6.3.25.861 NetType/WIFI Language/zh_CN'
p160
sg16
S'458d043906b8de9bc864466d77132286'
p161
sa(dp162
g2
S'5142'
p163
sg4
S'2817'
p164
sg6
S'0e033512c3b94dfe5788bdf362e456c9'
p165
sg8
S'xxe7667c44d84e0e971592bfedec46efed'
p166
sg10
S'xx516fae660602b9d42a4e18ac1164822d'
p167
sg12
S'xx3d4eb15198295f5a40d62bd83188a091'
p168
sg14
S'Mozilla/5.0 (Linux; Android 4.4.4; R8207 Build/KTU84P) AppleWebKit/537.36 (KHTML, like Gecko) Version/4.0 Chrome/37.0.0.0 Mobile MQQBrowser/6.8 TBS/036849 Safari/537.36 MicroMessenger/6.3.25.861 NetType/WIFI Language/zh_CN'
p169
sg16
S'458d043906b8de9bc864466d77132286'
p170
sa(dp171
g2
S'5142'
p172
sg4
S'2850'
p173
sg6
S'0e033512c3b94dfe5788bdf362e456c9'
p174
sg8
S'xxe7667c44d84e0e971592bfedec46efed'
p175
sg10
S'xx516fae660602b9d42a4e18ac1164822d'
p176
sg12
S'xx3d4eb15198295f5a40d62bd83188a091'
p177
sg14
S'Mozilla/5.0 (Linux; Android 4.4.4; R8207 Build/KTU84P) AppleWebKit/537.36 (KHTML, like Gecko) Version/4.0 Chrome/37.0.0.0 Mobile MQQBrowser/6.8 TBS/036849 Safari/537.36 MicroMessenger/6.3.25.861 NetType/WIFI Language/zh_CN'
p178
sg16
S'458d043906b8de9bc864466d77132286'
p179
sa(dp180
g2
S'5142'
p181
sg4
S'3072'
p182
sg6
S'0e033512c3b94dfe5788bdf362e456c9'
p183
sg8
S'xxe7667c44d84e0e971592bfedec46efed'
p184
sg10
S'xx516fae660602b9d42a4e18ac1164822d'
p185
sg12
S'xx3d4eb15198295f5a40d62bd83188a091'
p186
sg14
S'Mozilla/5.0 (Linux; Android 4.4.4; R8207 Build/KTU84P) AppleWebKit/537.36 (KHTML, like Gecko) Version/4.0 Chrome/37.0.0.0 Mobile MQQBrowser/6.8 TBS/036849 Safari/537.36 MicroMessenger/6.3.25.861 NetType/WIFI Language/zh_CN'
p187
sg16
S'458d043906b8de9bc864466d77132286'
p188
sa(dp189
g2
S'5142'
p190
sg4
S'3091'
p191
sg6
S'0e033512c3b94dfe5788bdf362e456c9'
p192
sg8
S'xxe7667c44d84e0e971592bfedec46efed'
p193
sg10
S'xx516fae660602b9d42a4e18ac1164822d'
p194
sg12
S'xx3d4eb15198295f5a40d62bd83188a091'
p195
sg14
S'Mozilla/5.0 (Linux; Android 4.4.4; R8207 Build/KTU84P) AppleWebKit/537.36 (KHTML, like Gecko) Version/4.0 Chrome/37.0.0.0 Mobile MQQBrowser/6.8 TBS/036849 Safari/537.36 MicroMessenger/6.3.25.861 NetType/WIFI Language/zh_CN'
p196
sg16
S'458d043906b8de9bc864466d77132286'
p197
sa(dp198
g2
S'5142'
p199
sg4
S'3104'
p200
sg6
S'0e033512c3b94dfe5788bdf362e456c9'
p201
sg8
S'xxe7667c44d84e0e971592bfedec46efed'
p202
sg10
S'xx516fae660602b9d42a4e18ac1164822d'
p203
sg12
S'xx3d4eb15198295f5a40d62bd83188a091'
p204
sg14
S'Mozilla/5.0 (Linux; Android 4.4.4; R8207 Build/KTU84P) AppleWebKit/537.36 (KHTML, like Gecko) Version/4.0 Chrome/37.0.0.0 Mobile MQQBrowser/6.8 TBS/036849 Safari/537.36 MicroMessenger/6.3.25.861 NetType/WIFI Language/zh_CN'
p205
sg16
S'458d043906b8de9bc864466d77132286'
p206
sa(dp207
g2
S'5142'
p208
sg4
S'6220'
p209
sg6
S'0e033512c3b94dfe5788bdf362e456c9'
p210
sg8
S'xxe7667c44d84e0e971592bfedec46efed'
p211
sg10
S'xx516fae660602b9d42a4e18ac1164822d'
p212
sg12
S'xx3d4eb15198295f5a40d62bd83188a091'
p213
sg14
S'Mozilla/5.0 (Linux; Android 4.4.4; R8207 Build/KTU84P) AppleWebKit/537.36 (KHTML, like Gecko) Version/4.0 Chrome/37.0.0.0 Mobile MQQBrowser/6.8 TBS/036849 Safari/537.36 MicroMessenger/6.3.25.861 NetType/WIFI Language/zh_CN'
p214
sg16
S'458d043906b8de9bc864466d77132286'
p215
sa(dp216
g2
S'5142'
p217
sg4
S'6235'
p218
sg6
S'0e033512c3b94dfe5788bdf362e456c9'
p219
sg8
S'xxe7667c44d84e0e971592bfedec46efed'
p220
sg10
S'xx516fae660602b9d42a4e18ac1164822d'
p221
sg12
S'xx3d4eb15198295f5a40d62bd83188a091'
p222
sg14
S'Mozilla/5.0 (Linux; Android 4.4.4; R8207 Build/KTU84P) AppleWebKit/537.36 (KHTML, like Gecko) Version/4.0 Chrome/37.0.0.0 Mobile MQQBrowser/6.8 TBS/036849 Safari/537.36 MicroMessenger/6.3.25.861 NetType/WIFI Language/zh_CN'
p223
sg16
S'458d043906b8de9bc864466d77132286'
p224
sa(dp225
g2
S'5142'
p226
sg4
S'6248'
p227
sg6
S'0e033512c3b94dfe5788bdf362e456c9'
p228
sg8
S'xxe7667c44d84e0e971592bfedec46efed'
p229
sg10
S'xx516fae660602b9d42a4e18ac1164822d'
p230
sg12
S'xx3d4eb15198295f5a40d62bd83188a091'
p231
sg14
S'Mozilla/5.0 (Linux; Android 4.4.4; R8207 Build/KTU84P) AppleWebKit/537.36 (KHTML, like Gecko) Version/4.0 Chrome/37.0.0.0 Mobile MQQBrowser/6.8 TBS/036849 Safari/537.36 MicroMessenger/6.3.25.861 NetType/WIFI Language/zh_CN'
p232
sg16
S'458d043906b8de9bc864466d77132286'
p233
sa(dp234
g2
S'5142'
p235
sg4
S'6257'
p236
sg6
S'0e033512c3b94dfe5788bdf362e456c9'
p237
sg8
S'xxe7667c44d84e0e971592bfedec46efed'
p238
sg10
S'xx516fae660602b9d42a4e18ac1164822d'
p239
sg12
S'xx3d4eb15198295f5a40d62bd83188a091'
p240
sg14
S'Mozilla/5.0 (Linux; Android 4.4.4; R8207 Build/KTU84P) AppleWebKit/537.36 (KHTML, like Gecko) Version/4.0 Chrome/37.0.0.0 Mobile MQQBrowser/6.8 TBS/036849 Safari/537.36 MicroMessenger/6.3.25.861 NetType/WIFI Language/zh_CN'
p241
sg16
S'458d043906b8de9bc864466d77132286'
p242
sa(dp243
g2
S'35088'
p244
sg4
S'7204'
p245
sg6
S'1c9d5f1110bb0d698c2e46c485ecb775'
p246
sg8
S'xx035699d6e33377842ae945b556ec417e'
p247
sg10
S'xx8d15881930ad5c0bcd838734aae1189b'
p248
sg12
S'xx3d4eb15198295f5a40d62bd83188a091'
p249
sg14
S'Mozilla/5.0 (Linux; Android 4.4.4; R8207 Build/KTU84P) AppleWebKit/537.36 (KHTML, like Gecko) Version/4.0 Chrome/37.0.0.0 Mobile MQQBrowser/6.8 TBS/036866 Safari/537.36 MicroMessenger/6.3.27.880 NetType/cmnet Language/zh_CN'
p250
sg16
S'91df267cfc680b4f5997165dc8ba6545'
p251
sa(dp252
g2
S'35088'
p253
sg4
S'7217'
p254
sg6
S'1c9d5f1110bb0d698c2e46c485ecb775'
p255
sg8
S'xx035699d6e33377842ae945b556ec417e'
p256
sg10
S'xx8d15881930ad5c0bcd838734aae1189b'
p257
sg12
S'xx3d4eb15198295f5a40d62bd83188a091'
p258
sg14
S'Mozilla/5.0 (Linux; Android 4.4.4; R8207 Build/KTU84P) AppleWebKit/537.36 (KHTML, like Gecko) Version/4.0 Chrome/37.0.0.0 Mobile MQQBrowser/6.8 TBS/036866 Safari/537.36 MicroMessenger/6.3.27.880 NetType/cmnet Language/zh_CN'
p259
sg16
S'91df267cfc680b4f5997165dc8ba6545'
p260
sa(dp261
g2
S'49853'
p262
sg4
S'8463'
p263
sg6
S'f23eff39a2e678a77bb517242bc40d94'
p264
sg8
S'xx1d5ca41090f57053f2a59bd1437cf075'
p265
sg10
S'xx516fae660602b9d42a4e18ac1164822d'
p266
sg12
S'xx3d4eb15198295f5a40d62bd83188a091'
p267
sg14
S'Mozilla/5.0 (Linux; Android 4.4.4; R8207 Build/KTU84P) AppleWebKit/537.36 (KHTML, like Gecko) Version/4.0 Chrome/37.0.0.0 Mobile MQQBrowser/6.8 TBS/036849 Safari/537.36 MicroMessenger/6.3.27.880 NetType/cmnet Language/zh_CN'
p268
sg16
S'cc26bbbd594c8951fdea74d1784b7f99'
p269
sa(dp270
g2
S'49853'
p271
sg4
S'8475'
p272
sg6
S'f23eff39a2e678a77bb517242bc40d94'
p273
sg8
S'xx1d5ca41090f57053f2a59bd1437cf075'
p274
sg10
S'xx516fae660602b9d42a4e18ac1164822d'
p275
sg12
S'xx3d4eb15198295f5a40d62bd83188a091'
p276
sg14
S'Mozilla/5.0 (Linux; Android 4.4.4; R8207 Build/KTU84P) AppleWebKit/537.36 (KHTML, like Gecko) Version/4.0 Chrome/37.0.0.0 Mobile MQQBrowser/6.8 TBS/036849 Safari/537.36 MicroMessenger/6.3.27.880 NetType/cmnet Language/zh_CN'
p277
sg16
S'cc26bbbd594c8951fdea74d1784b7f99'
p278
sa.