(lp0
(dp1
S'user_id'
p2
S'37732'
p3
sS'data_id'
p4
S'135'
p5
sS'ip'
p6
S'716045ac0a643389933fb93fd735fce7'
p7
sS'phone_B'
p8
S'xx94202695f42678af1994567208c3c06a'
p9
sS'phone_C'
p10
S'xx3c1f9145ecee6dd814d4425abc6c369c'
p11
sS'phone_A'
p12
S'xx3eda9a114342a95da7762018067312e8'
p13
sS'user_agent'
p14
S'Mozilla/5.0 (Linux; Android 4.4.2; HUAWEI MT7-CL00 Build/HuaweiMT7-CL00) AppleWebKit/537.36 (KHTML, like Gecko) Version/4.0 Chrome/37.0.0.0 Mobile MQQBrowser/6.8 TBS/036849 Safari/537.36 MicroMessenger/6.3.27.880 NetType/WIFI Language/zh_CN'
p15
sS'ua'
p16
S'f5ab30107404446cf75b4738e996c07e'
p17
sa(dp18
g2
S'37732'
p19
sg4
S'147'
p20
sg6
S'716045ac0a643389933fb93fd735fce7'
p21
sg8
S'xx94202695f42678af1994567208c3c06a'
p22
sg10
S'xx3c1f9145ecee6dd814d4425abc6c369c'
p23
sg12
S'xx3eda9a114342a95da7762018067312e8'
p24
sg14
S'Mozilla/5.0 (Linux; Android 4.4.2; HUAWEI MT7-CL00 Build/HuaweiMT7-CL00) AppleWebKit/537.36 (KHTML, like Gecko) Version/4.0 Chrome/37.0.0.0 Mobile MQQBrowser/6.8 TBS/036849 Safari/537.36 MicroMessenger/6.3.27.880 NetType/WIFI Language/zh_CN'
p25
sg16
S'f5ab30107404446cf75b4738e996c07e'
p26
sa(dp27
g2
S'37732'
p28
sg4
S'7765'
p29
sg6
S'716045ac0a643389933fb93fd735fce7'
p30
sg8
S'xx94202695f42678af1994567208c3c06a'
p31
sg10
S'xx3c1f9145ecee6dd814d4425abc6c369c'
p32
sg12
S'xx3eda9a114342a95da7762018067312e8'
p33
sg14
S'Mozilla/5.0 (Linux; Android 4.4.2; HUAWEI MT7-CL00 Build/HuaweiMT7-CL00) AppleWebKit/537.36 (KHTML, like Gecko) Version/4.0 Chrome/37.0.0.0 Mobile MQQBrowser/6.8 TBS/036849 Safari/537.36 MicroMessenger/6.3.27.880 NetType/WIFI Language/zh_CN'
p34
sg16
S'f5ab30107404446cf75b4738e996c07e'
p35
sa(dp36
g2
S'37732'
p37
sg4
S'7777'
p38
sg6
S'716045ac0a643389933fb93fd735fce7'
p39
sg8
S'xx94202695f42678af1994567208c3c06a'
p40
sg10
S'xx3c1f9145ecee6dd814d4425abc6c369c'
p41
sg12
S'xx3eda9a114342a95da7762018067312e8'
p42
sg14
S'Mozilla/5.0 (Linux; Android 4.4.2; HUAWEI MT7-CL00 Build/HuaweiMT7-CL00) AppleWebKit/537.36 (KHTML, like Gecko) Version/4.0 Chrome/37.0.0.0 Mobile MQQBrowser/6.8 TBS/036849 Safari/537.36 MicroMessenger/6.3.27.880 NetType/WIFI Language/zh_CN'
p43
sg16
S'f5ab30107404446cf75b4738e996c07e'
p44
sa.