(lp0
(dp1
S'user_id'
p2
S'26463'
p3
sS'data_id'
p4
S'5575'
p5
sS'ip'
p6
S'de17a6a29674548500739afde18b53d1'
p7
sS'phone_B'
p8
S'xx9bdc27423fe857fc6ff105ae5937b1e3'
p9
sS'phone_C'
p10
S'xx5ba6e83ab19ca3a94d39ebfc36eb8d6b'
p11
sS'phone_A'
p12
S'xx3e451e0e9af62b57bdc03ac418c63283'
p13
sS'user_agent'
p14
S'Mozilla/5.0 (Linux; Android 4.4.4; 2014821 Build/KTU84P) AppleWebKit/537.36 (KHTML, like Gecko) Version/4.0 Chrome/37.0.0.0 Mobile MQQBrowser/6.8 TBS/036862 Safari/537.36 MicroMessenger/6.3.27.880 NetType/WIFI Language/zh_CN'
p15
sS'ua'
p16
S'3a2af8a5d747b468926324af2cd04c0b'
p17
sa(dp18
g2
S'26463'
p19
sg4
S'5595'
p20
sg6
S'de17a6a29674548500739afde18b53d1'
p21
sg8
S'xx9bdc27423fe857fc6ff105ae5937b1e3'
p22
sg10
S'xx5ba6e83ab19ca3a94d39ebfc36eb8d6b'
p23
sg12
S'xx3e451e0e9af62b57bdc03ac418c63283'
p24
sg14
S'Mozilla/5.0 (Linux; Android 4.4.4; 2014821 Build/KTU84P) AppleWebKit/537.36 (KHTML, like Gecko) Version/4.0 Chrome/37.0.0.0 Mobile MQQBrowser/6.8 TBS/036862 Safari/537.36 MicroMessenger/6.3.27.880 NetType/WIFI Language/zh_CN'
p25
sg16
S'3a2af8a5d747b468926324af2cd04c0b'
p26
sa(dp27
g2
S'26463'
p28
sg4
S'5660'
p29
sg6
S'de17a6a29674548500739afde18b53d1'
p30
sg8
S'xx9bdc27423fe857fc6ff105ae5937b1e3'
p31
sg10
S'xx5ba6e83ab19ca3a94d39ebfc36eb8d6b'
p32
sg12
S'xx3e451e0e9af62b57bdc03ac418c63283'
p33
sg14
S'Mozilla/5.0 (Linux; Android 4.4.4; 2014821 Build/KTU84P) AppleWebKit/537.36 (KHTML, like Gecko) Version/4.0 Chrome/37.0.0.0 Mobile MQQBrowser/6.8 TBS/036862 Safari/537.36 MicroMessenger/6.3.27.880 NetType/WIFI Language/zh_CN'
p34
sg16
S'3a2af8a5d747b468926324af2cd04c0b'
p35
sa(dp36
g2
S'26463'
p37
sg4
S'6551'
p38
sg6
S'd7d1ed04b61f69c47dc358f380a24a8b'
p39
sg8
S'xx9bdc27423fe857fc6ff105ae5937b1e3'
p40
sg10
S'xx5ba6e83ab19ca3a94d39ebfc36eb8d6b'
p41
sg12
S'xx3e451e0e9af62b57bdc03ac418c63283'
p42
sg14
S'Mozilla/5.0 (Linux; Android 4.4.4; 2014821 Build/KTU84P) AppleWebKit/537.36 (KHTML, like Gecko) Version/4.0 Chrome/37.0.0.0 Mobile MQQBrowser/6.8 TBS/036862 Safari/537.36 MicroMessenger/6.3.27.880 NetType/WIFI Language/zh_CN'
p43
sg16
S'3a2af8a5d747b468926324af2cd04c0b'
p44
sa(dp45
g2
S'26463'
p46
sg4
S'6566'
p47
sg6
S'd7d1ed04b61f69c47dc358f380a24a8b'
p48
sg8
S'xx9bdc27423fe857fc6ff105ae5937b1e3'
p49
sg10
S'xx5ba6e83ab19ca3a94d39ebfc36eb8d6b'
p50
sg12
S'xx3e451e0e9af62b57bdc03ac418c63283'
p51
sg14
S'Mozilla/5.0 (Linux; Android 4.4.4; 2014821 Build/KTU84P) AppleWebKit/537.36 (KHTML, like Gecko) Version/4.0 Chrome/37.0.0.0 Mobile MQQBrowser/6.8 TBS/036862 Safari/537.36 MicroMessenger/6.3.27.880 NetType/WIFI Language/zh_CN'
p52
sg16
S'3a2af8a5d747b468926324af2cd04c0b'
p53
sa(dp54
g2
S'26463'
p55
sg4
S'6580'
p56
sg6
S'd7d1ed04b61f69c47dc358f380a24a8b'
p57
sg8
S'xx9bdc27423fe857fc6ff105ae5937b1e3'
p58
sg10
S'xx5ba6e83ab19ca3a94d39ebfc36eb8d6b'
p59
sg12
S'xx3e451e0e9af62b57bdc03ac418c63283'
p60
sg14
S'Mozilla/5.0 (Linux; Android 4.4.4; 2014821 Build/KTU84P) AppleWebKit/537.36 (KHTML, like Gecko) Version/4.0 Chrome/37.0.0.0 Mobile MQQBrowser/6.8 TBS/036862 Safari/537.36 MicroMessenger/6.3.27.880 NetType/WIFI Language/zh_CN'
p61
sg16
S'3a2af8a5d747b468926324af2cd04c0b'
p62
sa(dp63
g2
S'26463'
p64
sg4
S'6701'
p65
sg6
S'd7d1ed04b61f69c47dc358f380a24a8b'
p66
sg8
S'xx9bdc27423fe857fc6ff105ae5937b1e3'
p67
sg10
S'xx5ba6e83ab19ca3a94d39ebfc36eb8d6b'
p68
sg12
S'xx3e451e0e9af62b57bdc03ac418c63283'
p69
sg14
S'Mozilla/5.0 (Linux; Android 4.4.4; 2014821 Build/KTU84P) AppleWebKit/537.36 (KHTML, like Gecko) Version/4.0 Chrome/37.0.0.0 Mobile MQQBrowser/6.8 TBS/036862 Safari/537.36 MicroMessenger/6.3.27.880 NetType/WIFI Language/zh_CN'
p70
sg16
S'3a2af8a5d747b468926324af2cd04c0b'
p71
sa(dp72
g2
S'26463'
p73
sg4
S'6784'
p74
sg6
S'd7d1ed04b61f69c47dc358f380a24a8b'
p75
sg8
S'xx9bdc27423fe857fc6ff105ae5937b1e3'
p76
sg10
S'xx5ba6e83ab19ca3a94d39ebfc36eb8d6b'
p77
sg12
S'xx3e451e0e9af62b57bdc03ac418c63283'
p78
sg14
S'Mozilla/5.0 (Linux; Android 4.4.4; 2014821 Build/KTU84P) AppleWebKit/537.36 (KHTML, like Gecko) Version/4.0 Chrome/37.0.0.0 Mobile MQQBrowser/6.8 TBS/036862 Safari/537.36 MicroMessenger/6.3.27.880 NetType/WIFI Language/zh_CN'
p79
sg16
S'3a2af8a5d747b468926324af2cd04c0b'
p80
sa(dp81
g2
S'26463'
p82
sg4
S'7304'
p83
sg6
S'd7d1ed04b61f69c47dc358f380a24a8b'
p84
sg8
S'xx9bdc27423fe857fc6ff105ae5937b1e3'
p85
sg10
S'xx5ba6e83ab19ca3a94d39ebfc36eb8d6b'
p86
sg12
S'xx3e451e0e9af62b57bdc03ac418c63283'
p87
sg14
S'Mozilla/5.0 (Linux; Android 4.4.4; 2014821 Build/KTU84P) AppleWebKit/537.36 (KHTML, like Gecko) Version/4.0 Chrome/37.0.0.0 Mobile MQQBrowser/6.8 TBS/036862 Safari/537.36 MicroMessenger/6.3.27.880 NetType/WIFI Language/zh_CN'
p88
sg16
S'3a2af8a5d747b468926324af2cd04c0b'
p89
sa(dp90
g2
S'26463'
p91
sg4
S'7320'
p92
sg6
S'd7d1ed04b61f69c47dc358f380a24a8b'
p93
sg8
S'xx9bdc27423fe857fc6ff105ae5937b1e3'
p94
sg10
S'xx5ba6e83ab19ca3a94d39ebfc36eb8d6b'
p95
sg12
S'xx3e451e0e9af62b57bdc03ac418c63283'
p96
sg14
S'Mozilla/5.0 (Linux; Android 4.4.4; 2014821 Build/KTU84P) AppleWebKit/537.36 (KHTML, like Gecko) Version/4.0 Chrome/37.0.0.0 Mobile MQQBrowser/6.8 TBS/036862 Safari/537.36 MicroMessenger/6.3.27.880 NetType/WIFI Language/zh_CN'
p97
sg16
S'3a2af8a5d747b468926324af2cd04c0b'
p98
sa(dp99
g2
S'26463'
p100
sg4
S'7490'
p101
sg6
S'd7d1ed04b61f69c47dc358f380a24a8b'
p102
sg8
S'xx9bdc27423fe857fc6ff105ae5937b1e3'
p103
sg10
S'xx5ba6e83ab19ca3a94d39ebfc36eb8d6b'
p104
sg12
S'xx3e451e0e9af62b57bdc03ac418c63283'
p105
sg14
S'Mozilla/5.0 (Linux; Android 4.4.4; 2014821 Build/KTU84P) AppleWebKit/537.36 (KHTML, like Gecko) Version/4.0 Chrome/37.0.0.0 Mobile MQQBrowser/6.8 TBS/036862 Safari/537.36 MicroMessenger/6.3.27.880 NetType/WIFI Language/zh_CN'
p106
sg16
S'3a2af8a5d747b468926324af2cd04c0b'
p107
sa(dp108
g2
S'26463'
p109
sg4
S'7502'
p110
sg6
S'd7d1ed04b61f69c47dc358f380a24a8b'
p111
sg8
S'xx9bdc27423fe857fc6ff105ae5937b1e3'
p112
sg10
S'xx5ba6e83ab19ca3a94d39ebfc36eb8d6b'
p113
sg12
S'xx3e451e0e9af62b57bdc03ac418c63283'
p114
sg14
S'Mozilla/5.0 (Linux; Android 4.4.4; 2014821 Build/KTU84P) AppleWebKit/537.36 (KHTML, like Gecko) Version/4.0 Chrome/37.0.0.0 Mobile MQQBrowser/6.8 TBS/036862 Safari/537.36 MicroMessenger/6.3.27.880 NetType/WIFI Language/zh_CN'
p115
sg16
S'3a2af8a5d747b468926324af2cd04c0b'
p116
sa(dp117
g2
S'26463'
p118
sg4
S'7521'
p119
sg6
S'd7d1ed04b61f69c47dc358f380a24a8b'
p120
sg8
S'xx9bdc27423fe857fc6ff105ae5937b1e3'
p121
sg10
S'xx5ba6e83ab19ca3a94d39ebfc36eb8d6b'
p122
sg12
S'xx3e451e0e9af62b57bdc03ac418c63283'
p123
sg14
S'Mozilla/5.0 (Linux; Android 4.4.4; 2014821 Build/KTU84P) AppleWebKit/537.36 (KHTML, like Gecko) Version/4.0 Chrome/37.0.0.0 Mobile MQQBrowser/6.8 TBS/036862 Safari/537.36 MicroMessenger/6.3.27.880 NetType/WIFI Language/zh_CN'
p124
sg16
S'3a2af8a5d747b468926324af2cd04c0b'
p125
sa(dp126
g2
S'26463'
p127
sg4
S'7536'
p128
sg6
S'd7d1ed04b61f69c47dc358f380a24a8b'
p129
sg8
S'xx9bdc27423fe857fc6ff105ae5937b1e3'
p130
sg10
S'xx5ba6e83ab19ca3a94d39ebfc36eb8d6b'
p131
sg12
S'xx3e451e0e9af62b57bdc03ac418c63283'
p132
sg14
S'Mozilla/5.0 (Linux; Android 4.4.4; 2014821 Build/KTU84P) AppleWebKit/537.36 (KHTML, like Gecko) Version/4.0 Chrome/37.0.0.0 Mobile MQQBrowser/6.8 TBS/036862 Safari/537.36 MicroMessenger/6.3.27.880 NetType/WIFI Language/zh_CN'
p133
sg16
S'3a2af8a5d747b468926324af2cd04c0b'
p134
sa(dp135
g2
S'26463'
p136
sg4
S'7887'
p137
sg6
S'd7d1ed04b61f69c47dc358f380a24a8b'
p138
sg8
S'xx9bdc27423fe857fc6ff105ae5937b1e3'
p139
sg10
S'xx5ba6e83ab19ca3a94d39ebfc36eb8d6b'
p140
sg12
S'xx3e451e0e9af62b57bdc03ac418c63283'
p141
sg14
S'Mozilla/5.0 (Linux; Android 4.4.4; 2014821 Build/KTU84P) AppleWebKit/537.36 (KHTML, like Gecko) Version/4.0 Chrome/37.0.0.0 Mobile MQQBrowser/6.8 TBS/036862 Safari/537.36 MicroMessenger/6.3.27.880 NetType/WIFI Language/zh_CN'
p142
sg16
S'3a2af8a5d747b468926324af2cd04c0b'
p143
sa(dp144
g2
S'26463'
p145
sg4
S'8170'
p146
sg6
S'd7d1ed04b61f69c47dc358f380a24a8b'
p147
sg8
S'xx9bdc27423fe857fc6ff105ae5937b1e3'
p148
sg10
S'xx5ba6e83ab19ca3a94d39ebfc36eb8d6b'
p149
sg12
S'xx3e451e0e9af62b57bdc03ac418c63283'
p150
sg14
S'Mozilla/5.0 (Linux; Android 4.4.4; 2014821 Build/KTU84P) AppleWebKit/537.36 (KHTML, like Gecko) Version/4.0 Chrome/37.0.0.0 Mobile MQQBrowser/6.8 TBS/036862 Safari/537.36 MicroMessenger/6.3.27.880 NetType/WIFI Language/zh_CN'
p151
sg16
S'3a2af8a5d747b468926324af2cd04c0b'
p152
sa(dp153
g2
S'26463'
p154
sg4
S'8179'
p155
sg6
S'd7d1ed04b61f69c47dc358f380a24a8b'
p156
sg8
S'xx9bdc27423fe857fc6ff105ae5937b1e3'
p157
sg10
S'xx5ba6e83ab19ca3a94d39ebfc36eb8d6b'
p158
sg12
S'xx3e451e0e9af62b57bdc03ac418c63283'
p159
sg14
S'Mozilla/5.0 (Linux; Android 4.4.4; 2014821 Build/KTU84P) AppleWebKit/537.36 (KHTML, like Gecko) Version/4.0 Chrome/37.0.0.0 Mobile MQQBrowser/6.8 TBS/036862 Safari/537.36 MicroMessenger/6.3.27.880 NetType/WIFI Language/zh_CN'
p160
sg16
S'3a2af8a5d747b468926324af2cd04c0b'
p161
sa(dp162
g2
S'26463'
p163
sg4
S'8191'
p164
sg6
S'd7d1ed04b61f69c47dc358f380a24a8b'
p165
sg8
S'xx9bdc27423fe857fc6ff105ae5937b1e3'
p166
sg10
S'xx5ba6e83ab19ca3a94d39ebfc36eb8d6b'
p167
sg12
S'xx3e451e0e9af62b57bdc03ac418c63283'
p168
sg14
S'Mozilla/5.0 (Linux; Android 4.4.4; 2014821 Build/KTU84P) AppleWebKit/537.36 (KHTML, like Gecko) Version/4.0 Chrome/37.0.0.0 Mobile MQQBrowser/6.8 TBS/036862 Safari/537.36 MicroMessenger/6.3.27.880 NetType/WIFI Language/zh_CN'
p169
sg16
S'3a2af8a5d747b468926324af2cd04c0b'
p170
sa(dp171
g2
S'26463'
p172
sg4
S'8394'
p173
sg6
S'd7d1ed04b61f69c47dc358f380a24a8b'
p174
sg8
S'xx9bdc27423fe857fc6ff105ae5937b1e3'
p175
sg10
S'xx5ba6e83ab19ca3a94d39ebfc36eb8d6b'
p176
sg12
S'xx3e451e0e9af62b57bdc03ac418c63283'
p177
sg14
S'Mozilla/5.0 (Linux; Android 4.4.4; 2014821 Build/KTU84P) AppleWebKit/537.36 (KHTML, like Gecko) Version/4.0 Chrome/37.0.0.0 Mobile MQQBrowser/6.8 TBS/036862 Safari/537.36 MicroMessenger/6.3.27.880 NetType/WIFI Language/zh_CN'
p178
sg16
S'3a2af8a5d747b468926324af2cd04c0b'
p179
sa(dp180
g2
S'26463'
p181
sg4
S'8408'
p182
sg6
S'd7d1ed04b61f69c47dc358f380a24a8b'
p183
sg8
S'xx9bdc27423fe857fc6ff105ae5937b1e3'
p184
sg10
S'xx5ba6e83ab19ca3a94d39ebfc36eb8d6b'
p185
sg12
S'xx3e451e0e9af62b57bdc03ac418c63283'
p186
sg14
S'Mozilla/5.0 (Linux; Android 4.4.4; 2014821 Build/KTU84P) AppleWebKit/537.36 (KHTML, like Gecko) Version/4.0 Chrome/37.0.0.0 Mobile MQQBrowser/6.8 TBS/036862 Safari/537.36 MicroMessenger/6.3.27.880 NetType/WIFI Language/zh_CN'
p187
sg16
S'3a2af8a5d747b468926324af2cd04c0b'
p188
sa.