(lp0
(dp1
S'user_id'
p2
S'30065'
p3
sS'data_id'
p4
S'3360'
p5
sS'ip'
p6
S'37adcabb4bd30f1f2144e826fd42738a'
p7
sS'phone_B'
p8
S'xx433aeacf0676b9a1589b27d91a084020'
p9
sS'phone_C'
p10
S'xx0cd7a6f2e85b8e05fb014b9b634a62b4'
p11
sS'phone_A'
p12
S'xx407896b795ee17c9ac6b4a4399d04f1c'
p13
sS'user_agent'
p14
S'Mozilla/5.0 (Linux; Android 5.1; M8 Build/LMY47D) AppleWebKit/537.36 (KHTML, like Gecko) Version/4.0 Chrome/37.0.0.0 Mobile MQQBrowser/6.8 TBS/036849 Safari/537.36 MicroMessenger/6.3.27.880 NetType/WIFI Language/zh_CN'
p15
sS'ua'
p16
S'e61d6de8ff269d63d5a32420e3e6a6fc'
p17
sa(dp18
g2
S'30065'
p19
sg4
S'3384'
p20
sg6
S'37adcabb4bd30f1f2144e826fd42738a'
p21
sg8
S'xx433aeacf0676b9a1589b27d91a084020'
p22
sg10
S'xx0cd7a6f2e85b8e05fb014b9b634a62b4'
p23
sg12
S'xx407896b795ee17c9ac6b4a4399d04f1c'
p24
sg14
S'Mozilla/5.0 (Linux; Android 5.1; M8 Build/LMY47D) AppleWebKit/537.36 (KHTML, like Gecko) Version/4.0 Chrome/37.0.0.0 Mobile MQQBrowser/6.8 TBS/036849 Safari/537.36 MicroMessenger/6.3.27.880 NetType/WIFI Language/zh_CN'
p25
sg16
S'e61d6de8ff269d63d5a32420e3e6a6fc'
p26
sa(dp27
g2
S'30065'
p28
sg4
S'3402'
p29
sg6
S'37adcabb4bd30f1f2144e826fd42738a'
p30
sg8
S'xx433aeacf0676b9a1589b27d91a084020'
p31
sg10
S'xx0cd7a6f2e85b8e05fb014b9b634a62b4'
p32
sg12
S'xx407896b795ee17c9ac6b4a4399d04f1c'
p33
sg14
S'Mozilla/5.0 (Linux; Android 5.1; M8 Build/LMY47D) AppleWebKit/537.36 (KHTML, like Gecko) Version/4.0 Chrome/37.0.0.0 Mobile MQQBrowser/6.8 TBS/036849 Safari/537.36 MicroMessenger/6.3.27.880 NetType/WIFI Language/zh_CN'
p34
sg16
S'e61d6de8ff269d63d5a32420e3e6a6fc'
p35
sa(dp36
g2
S'30065'
p37
sg4
S'3414'
p38
sg6
S'37adcabb4bd30f1f2144e826fd42738a'
p39
sg8
S'xx433aeacf0676b9a1589b27d91a084020'
p40
sg10
S'xx0cd7a6f2e85b8e05fb014b9b634a62b4'
p41
sg12
S'xx407896b795ee17c9ac6b4a4399d04f1c'
p42
sg14
S'Mozilla/5.0 (Linux; Android 5.1; M8 Build/LMY47D) AppleWebKit/537.36 (KHTML, like Gecko) Version/4.0 Chrome/37.0.0.0 Mobile MQQBrowser/6.8 TBS/036849 Safari/537.36 MicroMessenger/6.3.27.880 NetType/WIFI Language/zh_CN'
p43
sg16
S'e61d6de8ff269d63d5a32420e3e6a6fc'
p44
sa.