(lp0
(dp1
S'user_id'
p2
S'38009'
p3
sS'data_id'
p4
S'40'
p5
sS'ip'
p6
S'5b48c78089c6f21a864d9e71cbaf0c9d'
p7
sS'phone_B'
p8
S'xx5396a1cb0054e7539eba70d21c5d75a9'
p9
sS'phone_C'
p10
S'xxa1eddb067d69156b5a420a68e90e67cd'
p11
sS'phone_A'
p12
S'xx4076a0825771ba155d05d4dd5d539827'
p13
sS'user_agent'
p14
S'Mozilla/5.0 (Linux; Android 4.4.2; 2014011 Build/HM2014011) AppleWebKit/537.36 (KHTML, like Gecko) Version/4.0 Chrome/37.0.0.0 Mobile MQQBrowser/6.8 TBS/036849 Safari/537.36 MicroMessenger/6.3.27.880 NetType/WIFI Language/zh_CN'
p15
sS'ua'
p16
S'9b147fd4a0b8891dd749332aef671881'
p17
sa(dp18
g2
S'38009'
p19
sg4
S'46'
p20
sg6
S'5b48c78089c6f21a864d9e71cbaf0c9d'
p21
sg8
S'xx5396a1cb0054e7539eba70d21c5d75a9'
p22
sg10
S'xxa1eddb067d69156b5a420a68e90e67cd'
p23
sg12
S'xx4076a0825771ba155d05d4dd5d539827'
p24
sg14
S'Mozilla/5.0 (Linux; Android 4.4.2; 2014011 Build/HM2014011) AppleWebKit/537.36 (KHTML, like Gecko) Version/4.0 Chrome/37.0.0.0 Mobile MQQBrowser/6.8 TBS/036849 Safari/537.36 MicroMessenger/6.3.27.880 NetType/WIFI Language/zh_CN'
p25
sg16
S'9b147fd4a0b8891dd749332aef671881'
p26
sa(dp27
g2
S'38070'
p28
sg4
S'99'
p29
sg6
S'5b48c78089c6f21a864d9e71cbaf0c9d'
p30
sg8
S'xx5396a1cb0054e7539eba70d21c5d75a9'
p31
sg10
S'xxa1eddb067d69156b5a420a68e90e67cd'
p32
sg12
S'xx4076a0825771ba155d05d4dd5d539827'
p33
sg14
S'Mozilla/5.0 (Linux; Android 4.4.2; 2014011 Build/HM2014011) AppleWebKit/537.36 (KHTML, like Gecko) Version/4.0 Chrome/37.0.0.0 Mobile MQQBrowser/6.8 TBS/036849 Safari/537.36 MicroMessenger/6.3.27.880 NetType/WIFI Language/zh_CN'
p34
sg16
S'9b147fd4a0b8891dd749332aef671881'
p35
sa(dp36
g2
S'38070'
p37
sg4
S'111'
p38
sg6
S'5b48c78089c6f21a864d9e71cbaf0c9d'
p39
sg8
S'xx5396a1cb0054e7539eba70d21c5d75a9'
p40
sg10
S'xxa1eddb067d69156b5a420a68e90e67cd'
p41
sg12
S'xx4076a0825771ba155d05d4dd5d539827'
p42
sg14
S'Mozilla/5.0 (Linux; Android 4.4.2; 2014011 Build/HM2014011) AppleWebKit/537.36 (KHTML, like Gecko) Version/4.0 Chrome/37.0.0.0 Mobile MQQBrowser/6.8 TBS/036849 Safari/537.36 MicroMessenger/6.3.27.880 NetType/WIFI Language/zh_CN'
p43
sg16
S'9b147fd4a0b8891dd749332aef671881'
p44
sa(dp45
g2
S'38009'
p46
sg4
S'1830'
p47
sg6
S'5b48c78089c6f21a864d9e71cbaf0c9d'
p48
sg8
S'xx5396a1cb0054e7539eba70d21c5d75a9'
p49
sg10
S'xxa1eddb067d69156b5a420a68e90e67cd'
p50
sg12
S'xx4076a0825771ba155d05d4dd5d539827'
p51
sg14
S'Mozilla/5.0 (Linux; Android 4.4.2; 2014011 Build/HM2014011) AppleWebKit/537.36 (KHTML, like Gecko) Version/4.0 Chrome/37.0.0.0 Mobile MQQBrowser/6.8 TBS/036849 Safari/537.36 MicroMessenger/6.3.27.880 NetType/WIFI Language/zh_CN'
p52
sg16
S'9b147fd4a0b8891dd749332aef671881'
p53
sa(dp54
g2
S'38009'
p55
sg4
S'1843'
p56
sg6
S'5b48c78089c6f21a864d9e71cbaf0c9d'
p57
sg8
S'xx5396a1cb0054e7539eba70d21c5d75a9'
p58
sg10
S'xxa1eddb067d69156b5a420a68e90e67cd'
p59
sg12
S'xx4076a0825771ba155d05d4dd5d539827'
p60
sg14
S'Mozilla/5.0 (Linux; Android 4.4.2; 2014011 Build/HM2014011) AppleWebKit/537.36 (KHTML, like Gecko) Version/4.0 Chrome/37.0.0.0 Mobile MQQBrowser/6.8 TBS/036849 Safari/537.36 MicroMessenger/6.3.27.880 NetType/WIFI Language/zh_CN'
p61
sg16
S'9b147fd4a0b8891dd749332aef671881'
p62
sa(dp63
g2
S'38009'
p64
sg4
S'1854'
p65
sg6
S'5b48c78089c6f21a864d9e71cbaf0c9d'
p66
sg8
S'xx5396a1cb0054e7539eba70d21c5d75a9'
p67
sg10
S'xxa1eddb067d69156b5a420a68e90e67cd'
p68
sg12
S'xx4076a0825771ba155d05d4dd5d539827'
p69
sg14
S'Mozilla/5.0 (Linux; Android 4.4.2; 2014011 Build/HM2014011) AppleWebKit/537.36 (KHTML, like Gecko) Version/4.0 Chrome/37.0.0.0 Mobile MQQBrowser/6.8 TBS/036849 Safari/537.36 MicroMessenger/6.3.27.880 NetType/WIFI Language/zh_CN'
p70
sg16
S'9b147fd4a0b8891dd749332aef671881'
p71
sa(dp72
g2
S'38070'
p73
sg4
S'2052'
p74
sg6
S'5b48c78089c6f21a864d9e71cbaf0c9d'
p75
sg8
S'xx5396a1cb0054e7539eba70d21c5d75a9'
p76
sg10
S'xxa1eddb067d69156b5a420a68e90e67cd'
p77
sg12
S'xx4076a0825771ba155d05d4dd5d539827'
p78
sg14
S'Mozilla/5.0 (Linux; Android 4.4.2; 2014011 Build/HM2014011) AppleWebKit/537.36 (KHTML, like Gecko) Version/4.0 Chrome/37.0.0.0 Mobile MQQBrowser/6.8 TBS/036849 Safari/537.36 MicroMessenger/6.3.27.880 NetType/WIFI Language/zh_CN'
p79
sg16
S'9b147fd4a0b8891dd749332aef671881'
p80
sa(dp81
g2
S'38070'
p82
sg4
S'2063'
p83
sg6
S'5b48c78089c6f21a864d9e71cbaf0c9d'
p84
sg8
S'xx5396a1cb0054e7539eba70d21c5d75a9'
p85
sg10
S'xxa1eddb067d69156b5a420a68e90e67cd'
p86
sg12
S'xx4076a0825771ba155d05d4dd5d539827'
p87
sg14
S'Mozilla/5.0 (Linux; Android 4.4.2; 2014011 Build/HM2014011) AppleWebKit/537.36 (KHTML, like Gecko) Version/4.0 Chrome/37.0.0.0 Mobile MQQBrowser/6.8 TBS/036849 Safari/537.36 MicroMessenger/6.3.27.880 NetType/WIFI Language/zh_CN'
p88
sg16
S'9b147fd4a0b8891dd749332aef671881'
p89
sa(dp90
g2
S'38009'
p91
sg4
S'3244'
p92
sg6
S'5b48c78089c6f21a864d9e71cbaf0c9d'
p93
sg8
S'xx5396a1cb0054e7539eba70d21c5d75a9'
p94
sg10
S'xxa1eddb067d69156b5a420a68e90e67cd'
p95
sg12
S'xx4076a0825771ba155d05d4dd5d539827'
p96
sg14
S'Mozilla/5.0 (Linux; Android 4.4.2; 2014011 Build/HM2014011) AppleWebKit/537.36 (KHTML, like Gecko) Version/4.0 Chrome/37.0.0.0 Mobile MQQBrowser/6.8 TBS/036849 Safari/537.36 MicroMessenger/6.3.27.880 NetType/WIFI Language/zh_CN'
p97
sg16
S'9b147fd4a0b8891dd749332aef671881'
p98
sa(dp99
g2
S'38009'
p100
sg4
S'3259'
p101
sg6
S'5b48c78089c6f21a864d9e71cbaf0c9d'
p102
sg8
S'xx5396a1cb0054e7539eba70d21c5d75a9'
p103
sg10
S'xxa1eddb067d69156b5a420a68e90e67cd'
p104
sg12
S'xx4076a0825771ba155d05d4dd5d539827'
p105
sg14
S'Mozilla/5.0 (Linux; Android 4.4.2; 2014011 Build/HM2014011) AppleWebKit/537.36 (KHTML, like Gecko) Version/4.0 Chrome/37.0.0.0 Mobile MQQBrowser/6.8 TBS/036849 Safari/537.36 MicroMessenger/6.3.27.880 NetType/WIFI Language/zh_CN'
p106
sg16
S'9b147fd4a0b8891dd749332aef671881'
p107
sa(dp108
g2
S'38009'
p109
sg4
S'3281'
p110
sg6
S'5b48c78089c6f21a864d9e71cbaf0c9d'
p111
sg8
S'xx5396a1cb0054e7539eba70d21c5d75a9'
p112
sg10
S'xxa1eddb067d69156b5a420a68e90e67cd'
p113
sg12
S'xx4076a0825771ba155d05d4dd5d539827'
p114
sg14
S'Mozilla/5.0 (Linux; Android 4.4.2; 2014011 Build/HM2014011) AppleWebKit/537.36 (KHTML, like Gecko) Version/4.0 Chrome/37.0.0.0 Mobile MQQBrowser/6.8 TBS/036849 Safari/537.36 MicroMessenger/6.3.27.880 NetType/WIFI Language/zh_CN'
p115
sg16
S'9b147fd4a0b8891dd749332aef671881'
p116
sa(dp117
g2
S'38009'
p118
sg4
S'3296'
p119
sg6
S'5b48c78089c6f21a864d9e71cbaf0c9d'
p120
sg8
S'xx5396a1cb0054e7539eba70d21c5d75a9'
p121
sg10
S'xxa1eddb067d69156b5a420a68e90e67cd'
p122
sg12
S'xx4076a0825771ba155d05d4dd5d539827'
p123
sg14
S'Mozilla/5.0 (Linux; Android 4.4.2; 2014011 Build/HM2014011) AppleWebKit/537.36 (KHTML, like Gecko) Version/4.0 Chrome/37.0.0.0 Mobile MQQBrowser/6.8 TBS/036849 Safari/537.36 MicroMessenger/6.3.27.880 NetType/WIFI Language/zh_CN'
p124
sg16
S'9b147fd4a0b8891dd749332aef671881'
p125
sa(dp126
g2
S'45340'
p127
sg4
S'3547'
p128
sg6
S'8b1af12e454aaf85ead37a786fb1b6cc'
p129
sg8
S'xx73dca772382ef0d6a4cb6c33a6e4c84b'
p130
sg10
S'xxa1eddb067d69156b5a420a68e90e67cd'
p131
sg12
S'xx4076a0825771ba155d05d4dd5d539827'
p132
sg14
S'Mozilla/5.0 (Linux; Android 4.4.2; 2014011 Build/HM2014011) AppleWebKit/537.36 (KHTML, like Gecko) Version/4.0 Chrome/37.0.0.0 Mobile MQQBrowser/6.8 TBS/036849 Safari/537.36 MicroMessenger/6.3.25.861 NetType/WIFI Language/zh_CN'
p133
sg16
S'c5fd8599057a77bfd379850aa93eb2f4'
p134
sa(dp135
g2
S'45340'
p136
sg4
S'3563'
p137
sg6
S'8b1af12e454aaf85ead37a786fb1b6cc'
p138
sg8
S'xx73dca772382ef0d6a4cb6c33a6e4c84b'
p139
sg10
S'xxa1eddb067d69156b5a420a68e90e67cd'
p140
sg12
S'xx4076a0825771ba155d05d4dd5d539827'
p141
sg14
S'Mozilla/5.0 (Linux; Android 4.4.2; 2014011 Build/HM2014011) AppleWebKit/537.36 (KHTML, like Gecko) Version/4.0 Chrome/37.0.0.0 Mobile MQQBrowser/6.8 TBS/036849 Safari/537.36 MicroMessenger/6.3.25.861 NetType/WIFI Language/zh_CN'
p142
sg16
S'c5fd8599057a77bfd379850aa93eb2f4'
p143
sa(dp144
g2
S'45340'
p145
sg4
S'3581'
p146
sg6
S'8b1af12e454aaf85ead37a786fb1b6cc'
p147
sg8
S'xx73dca772382ef0d6a4cb6c33a6e4c84b'
p148
sg10
S'xxa1eddb067d69156b5a420a68e90e67cd'
p149
sg12
S'xx4076a0825771ba155d05d4dd5d539827'
p150
sg14
S'Mozilla/5.0 (Linux; Android 4.4.2; 2014011 Build/HM2014011) AppleWebKit/537.36 (KHTML, like Gecko) Version/4.0 Chrome/37.0.0.0 Mobile MQQBrowser/6.8 TBS/036849 Safari/537.36 MicroMessenger/6.3.25.861 NetType/WIFI Language/zh_CN'
p151
sg16
S'c5fd8599057a77bfd379850aa93eb2f4'
p152
sa(dp153
g2
S'38070'
p154
sg4
S'3606'
p155
sg6
S'5b48c78089c6f21a864d9e71cbaf0c9d'
p156
sg8
S'xx5396a1cb0054e7539eba70d21c5d75a9'
p157
sg10
S'xxa1eddb067d69156b5a420a68e90e67cd'
p158
sg12
S'xx4076a0825771ba155d05d4dd5d539827'
p159
sg14
S'Mozilla/5.0 (Linux; Android 4.4.2; 2014011 Build/HM2014011) AppleWebKit/537.36 (KHTML, like Gecko) Version/4.0 Chrome/37.0.0.0 Mobile MQQBrowser/6.8 TBS/036849 Safari/537.36 MicroMessenger/6.3.27.880 NetType/WIFI Language/zh_CN'
p160
sg16
S'9b147fd4a0b8891dd749332aef671881'
p161
sa(dp162
g2
S'45340'
p163
sg4
S'3607'
p164
sg6
S'8b1af12e454aaf85ead37a786fb1b6cc'
p165
sg8
S'xx73dca772382ef0d6a4cb6c33a6e4c84b'
p166
sg10
S'xxa1eddb067d69156b5a420a68e90e67cd'
p167
sg12
S'xx4076a0825771ba155d05d4dd5d539827'
p168
sg14
S'Mozilla/5.0 (Linux; Android 4.4.2; 2014011 Build/HM2014011) AppleWebKit/537.36 (KHTML, like Gecko) Version/4.0 Chrome/37.0.0.0 Mobile MQQBrowser/6.8 TBS/036849 Safari/537.36 MicroMessenger/6.3.25.861 NetType/WIFI Language/zh_CN'
p169
sg16
S'c5fd8599057a77bfd379850aa93eb2f4'
p170
sa(dp171
g2
S'38070'
p172
sg4
S'3624'
p173
sg6
S'5b48c78089c6f21a864d9e71cbaf0c9d'
p174
sg8
S'xx5396a1cb0054e7539eba70d21c5d75a9'
p175
sg10
S'xxa1eddb067d69156b5a420a68e90e67cd'
p176
sg12
S'xx4076a0825771ba155d05d4dd5d539827'
p177
sg14
S'Mozilla/5.0 (Linux; Android 4.4.2; 2014011 Build/HM2014011) AppleWebKit/537.36 (KHTML, like Gecko) Version/4.0 Chrome/37.0.0.0 Mobile MQQBrowser/6.8 TBS/036849 Safari/537.36 MicroMessenger/6.3.27.880 NetType/WIFI Language/zh_CN'
p178
sg16
S'9b147fd4a0b8891dd749332aef671881'
p179
sa(dp180
g2
S'45340'
p181
sg4
S'3625'
p182
sg6
S'8b1af12e454aaf85ead37a786fb1b6cc'
p183
sg8
S'xx73dca772382ef0d6a4cb6c33a6e4c84b'
p184
sg10
S'xxa1eddb067d69156b5a420a68e90e67cd'
p185
sg12
S'xx4076a0825771ba155d05d4dd5d539827'
p186
sg14
S'Mozilla/5.0 (Linux; Android 4.4.2; 2014011 Build/HM2014011) AppleWebKit/537.36 (KHTML, like Gecko) Version/4.0 Chrome/37.0.0.0 Mobile MQQBrowser/6.8 TBS/036849 Safari/537.36 MicroMessenger/6.3.25.861 NetType/WIFI Language/zh_CN'
p187
sg16
S'c5fd8599057a77bfd379850aa93eb2f4'
p188
sa(dp189
g2
S'45340'
p190
sg4
S'4055'
p191
sg6
S'8b1af12e454aaf85ead37a786fb1b6cc'
p192
sg8
S'xx73dca772382ef0d6a4cb6c33a6e4c84b'
p193
sg10
S'xxa1eddb067d69156b5a420a68e90e67cd'
p194
sg12
S'xx4076a0825771ba155d05d4dd5d539827'
p195
sg14
S'Mozilla/5.0 (Linux; Android 4.4.2; 2014011 Build/HM2014011) AppleWebKit/537.36 (KHTML, like Gecko) Version/4.0 Chrome/37.0.0.0 Mobile MQQBrowser/6.8 TBS/036849 Safari/537.36 MicroMessenger/6.3.25.861 NetType/WIFI Language/zh_CN'
p196
sg16
S'c5fd8599057a77bfd379850aa93eb2f4'
p197
sa(dp198
g2
S'45340'
p199
sg4
S'4081'
p200
sg6
S'8b1af12e454aaf85ead37a786fb1b6cc'
p201
sg8
S'xx73dca772382ef0d6a4cb6c33a6e4c84b'
p202
sg10
S'xxa1eddb067d69156b5a420a68e90e67cd'
p203
sg12
S'xx4076a0825771ba155d05d4dd5d539827'
p204
sg14
S'Mozilla/5.0 (Linux; Android 4.4.2; 2014011 Build/HM2014011) AppleWebKit/537.36 (KHTML, like Gecko) Version/4.0 Chrome/37.0.0.0 Mobile MQQBrowser/6.8 TBS/036849 Safari/537.36 MicroMessenger/6.3.25.861 NetType/WIFI Language/zh_CN'
p205
sg16
S'c5fd8599057a77bfd379850aa93eb2f4'
p206
sa(dp207
g2
S'45340'
p208
sg4
S'4106'
p209
sg6
S'8b1af12e454aaf85ead37a786fb1b6cc'
p210
sg8
S'xx73dca772382ef0d6a4cb6c33a6e4c84b'
p211
sg10
S'xxa1eddb067d69156b5a420a68e90e67cd'
p212
sg12
S'xx4076a0825771ba155d05d4dd5d539827'
p213
sg14
S'Mozilla/5.0 (Linux; Android 4.4.2; 2014011 Build/HM2014011) AppleWebKit/537.36 (KHTML, like Gecko) Version/4.0 Chrome/37.0.0.0 Mobile MQQBrowser/6.8 TBS/036849 Safari/537.36 MicroMessenger/6.3.25.861 NetType/WIFI Language/zh_CN'
p214
sg16
S'c5fd8599057a77bfd379850aa93eb2f4'
p215
sa(dp216
g2
S'45340'
p217
sg4
S'4202'
p218
sg6
S'8b1af12e454aaf85ead37a786fb1b6cc'
p219
sg8
S'xx73dca772382ef0d6a4cb6c33a6e4c84b'
p220
sg10
S'xxa1eddb067d69156b5a420a68e90e67cd'
p221
sg12
S'xx4076a0825771ba155d05d4dd5d539827'
p222
sg14
S'Mozilla/5.0 (Linux; Android 4.4.2; 2014011 Build/HM2014011) AppleWebKit/537.36 (KHTML, like Gecko) Version/4.0 Chrome/37.0.0.0 Mobile MQQBrowser/6.8 TBS/036849 Safari/537.36 MicroMessenger/6.3.25.861 NetType/WIFI Language/zh_CN'
p223
sg16
S'c5fd8599057a77bfd379850aa93eb2f4'
p224
sa(dp225
g2
S'45340'
p226
sg4
S'4223'
p227
sg6
S'8b1af12e454aaf85ead37a786fb1b6cc'
p228
sg8
S'xx73dca772382ef0d6a4cb6c33a6e4c84b'
p229
sg10
S'xxa1eddb067d69156b5a420a68e90e67cd'
p230
sg12
S'xx4076a0825771ba155d05d4dd5d539827'
p231
sg14
S'Mozilla/5.0 (Linux; Android 4.4.2; 2014011 Build/HM2014011) AppleWebKit/537.36 (KHTML, like Gecko) Version/4.0 Chrome/37.0.0.0 Mobile MQQBrowser/6.8 TBS/036849 Safari/537.36 MicroMessenger/6.3.25.861 NetType/WIFI Language/zh_CN'
p232
sg16
S'c5fd8599057a77bfd379850aa93eb2f4'
p233
sa(dp234
g2
S'45340'
p235
sg4
S'4243'
p236
sg6
S'8b1af12e454aaf85ead37a786fb1b6cc'
p237
sg8
S'xx73dca772382ef0d6a4cb6c33a6e4c84b'
p238
sg10
S'xxa1eddb067d69156b5a420a68e90e67cd'
p239
sg12
S'xx4076a0825771ba155d05d4dd5d539827'
p240
sg14
S'Mozilla/5.0 (Linux; Android 4.4.2; 2014011 Build/HM2014011) AppleWebKit/537.36 (KHTML, like Gecko) Version/4.0 Chrome/37.0.0.0 Mobile MQQBrowser/6.8 TBS/036849 Safari/537.36 MicroMessenger/6.3.25.861 NetType/WIFI Language/zh_CN'
p241
sg16
S'c5fd8599057a77bfd379850aa93eb2f4'
p242
sa(dp243
g2
S'45340'
p244
sg4
S'4297'
p245
sg6
S'8b1af12e454aaf85ead37a786fb1b6cc'
p246
sg8
S'xx73dca772382ef0d6a4cb6c33a6e4c84b'
p247
sg10
S'xxa1eddb067d69156b5a420a68e90e67cd'
p248
sg12
S'xx4076a0825771ba155d05d4dd5d539827'
p249
sg14
S'Mozilla/5.0 (Linux; Android 4.4.2; 2014011 Build/HM2014011) AppleWebKit/537.36 (KHTML, like Gecko) Version/4.0 Chrome/37.0.0.0 Mobile MQQBrowser/6.8 TBS/036849 Safari/537.36 MicroMessenger/6.3.25.861 NetType/WIFI Language/zh_CN'
p250
sg16
S'c5fd8599057a77bfd379850aa93eb2f4'
p251
sa(dp252
g2
S'45340'
p253
sg4
S'4404'
p254
sg6
S'8b1af12e454aaf85ead37a786fb1b6cc'
p255
sg8
S'xx73dca772382ef0d6a4cb6c33a6e4c84b'
p256
sg10
S'xxa1eddb067d69156b5a420a68e90e67cd'
p257
sg12
S'xx4076a0825771ba155d05d4dd5d539827'
p258
sg14
S'Mozilla/5.0 (Linux; Android 4.4.2; 2014011 Build/HM2014011) AppleWebKit/537.36 (KHTML, like Gecko) Version/4.0 Chrome/37.0.0.0 Mobile MQQBrowser/6.8 TBS/036849 Safari/537.36 MicroMessenger/6.3.25.861 NetType/WIFI Language/zh_CN'
p259
sg16
S'c5fd8599057a77bfd379850aa93eb2f4'
p260
sa(dp261
g2
S'45340'
p262
sg4
S'4426'
p263
sg6
S'8b1af12e454aaf85ead37a786fb1b6cc'
p264
sg8
S'xx73dca772382ef0d6a4cb6c33a6e4c84b'
p265
sg10
S'xxa1eddb067d69156b5a420a68e90e67cd'
p266
sg12
S'xx4076a0825771ba155d05d4dd5d539827'
p267
sg14
S'Mozilla/5.0 (Linux; Android 4.4.2; 2014011 Build/HM2014011) AppleWebKit/537.36 (KHTML, like Gecko) Version/4.0 Chrome/37.0.0.0 Mobile MQQBrowser/6.8 TBS/036849 Safari/537.36 MicroMessenger/6.3.25.861 NetType/WIFI Language/zh_CN'
p268
sg16
S'c5fd8599057a77bfd379850aa93eb2f4'
p269
sa(dp270
g2
S'45340'
p271
sg4
S'4458'
p272
sg6
S'8b1af12e454aaf85ead37a786fb1b6cc'
p273
sg8
S'xx73dca772382ef0d6a4cb6c33a6e4c84b'
p274
sg10
S'xxa1eddb067d69156b5a420a68e90e67cd'
p275
sg12
S'xx4076a0825771ba155d05d4dd5d539827'
p276
sg14
S'Mozilla/5.0 (Linux; Android 4.4.2; 2014011 Build/HM2014011) AppleWebKit/537.36 (KHTML, like Gecko) Version/4.0 Chrome/37.0.0.0 Mobile MQQBrowser/6.8 TBS/036849 Safari/537.36 MicroMessenger/6.3.25.861 NetType/WIFI Language/zh_CN'
p277
sg16
S'c5fd8599057a77bfd379850aa93eb2f4'
p278
sa(dp279
g2
S'45340'
p280
sg4
S'4482'
p281
sg6
S'8b1af12e454aaf85ead37a786fb1b6cc'
p282
sg8
S'xx73dca772382ef0d6a4cb6c33a6e4c84b'
p283
sg10
S'xxa1eddb067d69156b5a420a68e90e67cd'
p284
sg12
S'xx4076a0825771ba155d05d4dd5d539827'
p285
sg14
S'Mozilla/5.0 (Linux; Android 4.4.2; 2014011 Build/HM2014011) AppleWebKit/537.36 (KHTML, like Gecko) Version/4.0 Chrome/37.0.0.0 Mobile MQQBrowser/6.8 TBS/036849 Safari/537.36 MicroMessenger/6.3.25.861 NetType/WIFI Language/zh_CN'
p286
sg16
S'c5fd8599057a77bfd379850aa93eb2f4'
p287
sa(dp288
g2
S'38009'
p289
sg4
S'4707'
p290
sg6
S'5b48c78089c6f21a864d9e71cbaf0c9d'
p291
sg8
S'xx5396a1cb0054e7539eba70d21c5d75a9'
p292
sg10
S'xxa1eddb067d69156b5a420a68e90e67cd'
p293
sg12
S'xx4076a0825771ba155d05d4dd5d539827'
p294
sg14
S'Mozilla/5.0 (Linux; Android 4.4.2; 2014011 Build/HM2014011) AppleWebKit/537.36 (KHTML, like Gecko) Version/4.0 Chrome/37.0.0.0 Mobile MQQBrowser/6.8 TBS/036849 Safari/537.36 MicroMessenger/6.3.27.880 NetType/WIFI Language/zh_CN'
p295
sg16
S'9b147fd4a0b8891dd749332aef671881'
p296
sa(dp297
g2
S'38009'
p298
sg4
S'4726'
p299
sg6
S'5b48c78089c6f21a864d9e71cbaf0c9d'
p300
sg8
S'xx5396a1cb0054e7539eba70d21c5d75a9'
p301
sg10
S'xxa1eddb067d69156b5a420a68e90e67cd'
p302
sg12
S'xx4076a0825771ba155d05d4dd5d539827'
p303
sg14
S'Mozilla/5.0 (Linux; Android 4.4.2; 2014011 Build/HM2014011) AppleWebKit/537.36 (KHTML, like Gecko) Version/4.0 Chrome/37.0.0.0 Mobile MQQBrowser/6.8 TBS/036849 Safari/537.36 MicroMessenger/6.3.27.880 NetType/WIFI Language/zh_CN'
p304
sg16
S'9b147fd4a0b8891dd749332aef671881'
p305
sa(dp306
g2
S'38009'
p307
sg4
S'4742'
p308
sg6
S'5b48c78089c6f21a864d9e71cbaf0c9d'
p309
sg8
S'xx5396a1cb0054e7539eba70d21c5d75a9'
p310
sg10
S'xxa1eddb067d69156b5a420a68e90e67cd'
p311
sg12
S'xx4076a0825771ba155d05d4dd5d539827'
p312
sg14
S'Mozilla/5.0 (Linux; Android 4.4.2; 2014011 Build/HM2014011) AppleWebKit/537.36 (KHTML, like Gecko) Version/4.0 Chrome/37.0.0.0 Mobile MQQBrowser/6.8 TBS/036849 Safari/537.36 MicroMessenger/6.3.27.880 NetType/WIFI Language/zh_CN'
p313
sg16
S'9b147fd4a0b8891dd749332aef671881'
p314
sa(dp315
g2
S'38009'
p316
sg4
S'4757'
p317
sg6
S'5b48c78089c6f21a864d9e71cbaf0c9d'
p318
sg8
S'xx5396a1cb0054e7539eba70d21c5d75a9'
p319
sg10
S'xxa1eddb067d69156b5a420a68e90e67cd'
p320
sg12
S'xx4076a0825771ba155d05d4dd5d539827'
p321
sg14
S'Mozilla/5.0 (Linux; Android 4.4.2; 2014011 Build/HM2014011) AppleWebKit/537.36 (KHTML, like Gecko) Version/4.0 Chrome/37.0.0.0 Mobile MQQBrowser/6.8 TBS/036849 Safari/537.36 MicroMessenger/6.3.27.880 NetType/WIFI Language/zh_CN'
p322
sg16
S'9b147fd4a0b8891dd749332aef671881'
p323
sa(dp324
g2
S'38009'
p325
sg4
S'4770'
p326
sg6
S'5b48c78089c6f21a864d9e71cbaf0c9d'
p327
sg8
S'xx5396a1cb0054e7539eba70d21c5d75a9'
p328
sg10
S'xxa1eddb067d69156b5a420a68e90e67cd'
p329
sg12
S'xx4076a0825771ba155d05d4dd5d539827'
p330
sg14
S'Mozilla/5.0 (Linux; Android 4.4.2; 2014011 Build/HM2014011) AppleWebKit/537.36 (KHTML, like Gecko) Version/4.0 Chrome/37.0.0.0 Mobile MQQBrowser/6.8 TBS/036849 Safari/537.36 MicroMessenger/6.3.27.880 NetType/WIFI Language/zh_CN'
p331
sg16
S'9b147fd4a0b8891dd749332aef671881'
p332
sa(dp333
g2
S'38009'
p334
sg4
S'4786'
p335
sg6
S'5b48c78089c6f21a864d9e71cbaf0c9d'
p336
sg8
S'xx5396a1cb0054e7539eba70d21c5d75a9'
p337
sg10
S'xxa1eddb067d69156b5a420a68e90e67cd'
p338
sg12
S'xx4076a0825771ba155d05d4dd5d539827'
p339
sg14
S'Mozilla/5.0 (Linux; Android 4.4.2; 2014011 Build/HM2014011) AppleWebKit/537.36 (KHTML, like Gecko) Version/4.0 Chrome/37.0.0.0 Mobile MQQBrowser/6.8 TBS/036849 Safari/537.36 MicroMessenger/6.3.27.880 NetType/WIFI Language/zh_CN'
p340
sg16
S'9b147fd4a0b8891dd749332aef671881'
p341
sa(dp342
g2
S'38009'
p343
sg4
S'5043'
p344
sg6
S'5b48c78089c6f21a864d9e71cbaf0c9d'
p345
sg8
S'xx5396a1cb0054e7539eba70d21c5d75a9'
p346
sg10
S'xxa1eddb067d69156b5a420a68e90e67cd'
p347
sg12
S'xx4076a0825771ba155d05d4dd5d539827'
p348
sg14
S'Mozilla/5.0 (Linux; Android 4.4.2; 2014011 Build/HM2014011) AppleWebKit/537.36 (KHTML, like Gecko) Version/4.0 Chrome/37.0.0.0 Mobile MQQBrowser/6.8 TBS/036849 Safari/537.36 MicroMessenger/6.3.27.880 NetType/WIFI Language/zh_CN'
p349
sg16
S'9b147fd4a0b8891dd749332aef671881'
p350
sa(dp351
g2
S'38009'
p352
sg4
S'5251'
p353
sg6
S'5b48c78089c6f21a864d9e71cbaf0c9d'
p354
sg8
S'xx5396a1cb0054e7539eba70d21c5d75a9'
p355
sg10
S'xxa1eddb067d69156b5a420a68e90e67cd'
p356
sg12
S'xx4076a0825771ba155d05d4dd5d539827'
p357
sg14
S'Mozilla/5.0 (Linux; Android 4.4.2; 2014011 Build/HM2014011) AppleWebKit/537.36 (KHTML, like Gecko) Version/4.0 Chrome/37.0.0.0 Mobile MQQBrowser/6.8 TBS/036849 Safari/537.36 MicroMessenger/6.3.27.880 NetType/WIFI Language/zh_CN'
p358
sg16
S'9b147fd4a0b8891dd749332aef671881'
p359
sa(dp360
g2
S'38009'
p361
sg4
S'5800'
p362
sg6
S'5b48c78089c6f21a864d9e71cbaf0c9d'
p363
sg8
S'xx5396a1cb0054e7539eba70d21c5d75a9'
p364
sg10
S'xxa1eddb067d69156b5a420a68e90e67cd'
p365
sg12
S'xx4076a0825771ba155d05d4dd5d539827'
p366
sg14
S'Mozilla/5.0 (Linux; Android 4.4.2; 2014011 Build/HM2014011) AppleWebKit/537.36 (KHTML, like Gecko) Version/4.0 Chrome/37.0.0.0 Mobile MQQBrowser/6.8 TBS/036849 Safari/537.36 MicroMessenger/6.3.27.880 NetType/WIFI Language/zh_CN'
p367
sg16
S'9b147fd4a0b8891dd749332aef671881'
p368
sa(dp369
g2
S'38009'
p370
sg4
S'5882'
p371
sg6
S'5b48c78089c6f21a864d9e71cbaf0c9d'
p372
sg8
S'xx5396a1cb0054e7539eba70d21c5d75a9'
p373
sg10
S'xxa1eddb067d69156b5a420a68e90e67cd'
p374
sg12
S'xx4076a0825771ba155d05d4dd5d539827'
p375
sg14
S'Mozilla/5.0 (Linux; Android 4.4.2; 2014011 Build/HM2014011) AppleWebKit/537.36 (KHTML, like Gecko) Version/4.0 Chrome/37.0.0.0 Mobile MQQBrowser/6.8 TBS/036849 Safari/537.36 MicroMessenger/6.3.27.880 NetType/WIFI Language/zh_CN'
p376
sg16
S'9b147fd4a0b8891dd749332aef671881'
p377
sa(dp378
g2
S'38070'
p379
sg4
S'6550'
p380
sg6
S'5b48c78089c6f21a864d9e71cbaf0c9d'
p381
sg8
S'xx5396a1cb0054e7539eba70d21c5d75a9'
p382
sg10
S'xxa1eddb067d69156b5a420a68e90e67cd'
p383
sg12
S'xx4076a0825771ba155d05d4dd5d539827'
p384
sg14
S'Mozilla/5.0 (Linux; Android 4.4.2; 2014011 Build/HM2014011) AppleWebKit/537.36 (KHTML, like Gecko) Version/4.0 Chrome/37.0.0.0 Mobile MQQBrowser/6.8 TBS/036849 Safari/537.36 MicroMessenger/6.3.27.880 NetType/WIFI Language/zh_CN'
p385
sg16
S'9b147fd4a0b8891dd749332aef671881'
p386
sa(dp387
g2
S'38070'
p388
sg4
S'6626'
p389
sg6
S'5b48c78089c6f21a864d9e71cbaf0c9d'
p390
sg8
S'xx5396a1cb0054e7539eba70d21c5d75a9'
p391
sg10
S'xxa1eddb067d69156b5a420a68e90e67cd'
p392
sg12
S'xx4076a0825771ba155d05d4dd5d539827'
p393
sg14
S'Mozilla/5.0 (Linux; Android 4.4.2; 2014011 Build/HM2014011) AppleWebKit/537.36 (KHTML, like Gecko) Version/4.0 Chrome/37.0.0.0 Mobile MQQBrowser/6.8 TBS/036849 Safari/537.36 MicroMessenger/6.3.27.880 NetType/WIFI Language/zh_CN'
p394
sg16
S'9b147fd4a0b8891dd749332aef671881'
p395
sa(dp396
g2
S'38070'
p397
sg4
S'6647'
p398
sg6
S'5b48c78089c6f21a864d9e71cbaf0c9d'
p399
sg8
S'xx5396a1cb0054e7539eba70d21c5d75a9'
p400
sg10
S'xxa1eddb067d69156b5a420a68e90e67cd'
p401
sg12
S'xx4076a0825771ba155d05d4dd5d539827'
p402
sg14
S'Mozilla/5.0 (Linux; Android 4.4.2; 2014011 Build/HM2014011) AppleWebKit/537.36 (KHTML, like Gecko) Version/4.0 Chrome/37.0.0.0 Mobile MQQBrowser/6.8 TBS/036849 Safari/537.36 MicroMessenger/6.3.27.880 NetType/WIFI Language/zh_CN'
p403
sg16
S'9b147fd4a0b8891dd749332aef671881'
p404
sa(dp405
g2
S'38070'
p406
sg4
S'7182'
p407
sg6
S'5b48c78089c6f21a864d9e71cbaf0c9d'
p408
sg8
S'xx5396a1cb0054e7539eba70d21c5d75a9'
p409
sg10
S'xxa1eddb067d69156b5a420a68e90e67cd'
p410
sg12
S'xx4076a0825771ba155d05d4dd5d539827'
p411
sg14
S'Mozilla/5.0 (Linux; Android 4.4.2; 2014011 Build/HM2014011) AppleWebKit/537.36 (KHTML, like Gecko) Version/4.0 Chrome/37.0.0.0 Mobile MQQBrowser/6.8 TBS/036849 Safari/537.36 MicroMessenger/6.3.27.880 NetType/WIFI Language/zh_CN'
p412
sg16
S'9b147fd4a0b8891dd749332aef671881'
p413
sa(dp414
g2
S'38070'
p415
sg4
S'7195'
p416
sg6
S'5b48c78089c6f21a864d9e71cbaf0c9d'
p417
sg8
S'xx5396a1cb0054e7539eba70d21c5d75a9'
p418
sg10
S'xxa1eddb067d69156b5a420a68e90e67cd'
p419
sg12
S'xx4076a0825771ba155d05d4dd5d539827'
p420
sg14
S'Mozilla/5.0 (Linux; Android 4.4.2; 2014011 Build/HM2014011) AppleWebKit/537.36 (KHTML, like Gecko) Version/4.0 Chrome/37.0.0.0 Mobile MQQBrowser/6.8 TBS/036849 Safari/537.36 MicroMessenger/6.3.27.880 NetType/WIFI Language/zh_CN'
p421
sg16
S'9b147fd4a0b8891dd749332aef671881'
p422
sa.