(lp0
(dp1
S'user_id'
p2
S'18224'
p3
sS'data_id'
p4
S'544'
p5
sS'ip'
p6
S'9e66c309d49fc4c42696c69e604ea641'
p7
sS'phone_B'
p8
S'xxeb05cfb1f6257537208df592bb292f6e'
p9
sS'phone_C'
p10
S'xxba888c7bae920571ac53356686c7a017'
p11
sS'phone_A'
p12
S'xx41cae610670c21de64bf8136c4d64f6e'
p13
sS'user_agent'
p14
S'Mozilla/5.0 (Linux; Android 4.4.2; SM-N9002 Build/KOT49H) AppleWebKit/537.36 (KHTML, like Gecko) Version/4.0 Chrome/37.0.0.0 Mobile MQQBrowser/6.8 TBS/036849 Safari/537.36 MicroMessenger/6.3.27.880 NetType/WIFI Language/zh_CN'
p15
sS'ua'
p16
S'3a2bab8d76c297b17c535bdda5c51546'
p17
sa(dp18
g2
S'18224'
p19
sg4
S'561'
p20
sg6
S'9e66c309d49fc4c42696c69e604ea641'
p21
sg8
S'xxeb05cfb1f6257537208df592bb292f6e'
p22
sg10
S'xxba888c7bae920571ac53356686c7a017'
p23
sg12
S'xx41cae610670c21de64bf8136c4d64f6e'
p24
sg14
S'Mozilla/5.0 (Linux; Android 4.4.2; SM-N9002 Build/KOT49H) AppleWebKit/537.36 (KHTML, like Gecko) Version/4.0 Chrome/37.0.0.0 Mobile MQQBrowser/6.8 TBS/036849 Safari/537.36 MicroMessenger/6.3.27.880 NetType/WIFI Language/zh_CN'
p25
sg16
S'3a2bab8d76c297b17c535bdda5c51546'
p26
sa(dp27
g2
S'18224'
p28
sg4
S'1569'
p29
sg6
S'9e66c309d49fc4c42696c69e604ea641'
p30
sg8
S'xx38af12daef3e1e6371f8a1a1f161e12c'
p31
sg10
S'xxba888c7bae920571ac53356686c7a017'
p32
sg12
S'xx41cae610670c21de64bf8136c4d64f6e'
p33
sg14
S'Mozilla/5.0 (Linux; Android 4.4.2; SM-N9002 Build/KOT49H) AppleWebKit/537.36 (KHTML, like Gecko) Version/4.0 Chrome/37.0.0.0 Mobile MQQBrowser/6.8 TBS/036849 Safari/537.36 MicroMessenger/6.3.27.880 NetType/3gnet Language/zh_CN'
p34
sg16
S'8e648eb75aba05460a78e8c786ca553e'
p35
sa(dp36
g2
S'18224'
p37
sg4
S'1583'
p38
sg6
S'9e66c309d49fc4c42696c69e604ea641'
p39
sg8
S'xx38af12daef3e1e6371f8a1a1f161e12c'
p40
sg10
S'xxba888c7bae920571ac53356686c7a017'
p41
sg12
S'xx41cae610670c21de64bf8136c4d64f6e'
p42
sg14
S'Mozilla/5.0 (Linux; Android 4.4.2; SM-N9002 Build/KOT49H) AppleWebKit/537.36 (KHTML, like Gecko) Version/4.0 Chrome/37.0.0.0 Mobile MQQBrowser/6.8 TBS/036849 Safari/537.36 MicroMessenger/6.3.27.880 NetType/3gnet Language/zh_CN'
p43
sg16
S'8e648eb75aba05460a78e8c786ca553e'
p44
sa(dp45
g2
S'18224'
p46
sg4
S'1599'
p47
sg6
S'9e66c309d49fc4c42696c69e604ea641'
p48
sg8
S'xx38af12daef3e1e6371f8a1a1f161e12c'
p49
sg10
S'xxba888c7bae920571ac53356686c7a017'
p50
sg12
S'xx41cae610670c21de64bf8136c4d64f6e'
p51
sg14
S'Mozilla/5.0 (Linux; Android 4.4.2; SM-N9002 Build/KOT49H) AppleWebKit/537.36 (KHTML, like Gecko) Version/4.0 Chrome/37.0.0.0 Mobile MQQBrowser/6.8 TBS/036849 Safari/537.36 MicroMessenger/6.3.27.880 NetType/3gnet Language/zh_CN'
p52
sg16
S'8e648eb75aba05460a78e8c786ca553e'
p53
sa(dp54
g2
S'18224'
p55
sg4
S'1616'
p56
sg6
S'9e66c309d49fc4c42696c69e604ea641'
p57
sg8
S'xx38af12daef3e1e6371f8a1a1f161e12c'
p58
sg10
S'xxba888c7bae920571ac53356686c7a017'
p59
sg12
S'xx41cae610670c21de64bf8136c4d64f6e'
p60
sg14
S'Mozilla/5.0 (Linux; Android 4.4.2; SM-N9002 Build/KOT49H) AppleWebKit/537.36 (KHTML, like Gecko) Version/4.0 Chrome/37.0.0.0 Mobile MQQBrowser/6.8 TBS/036849 Safari/537.36 MicroMessenger/6.3.27.880 NetType/3gnet Language/zh_CN'
p61
sg16
S'8e648eb75aba05460a78e8c786ca553e'
p62
sa(dp63
g2
S'18224'
p64
sg4
S'2111'
p65
sg6
S'9e66c309d49fc4c42696c69e604ea641'
p66
sg8
S'xx38af12daef3e1e6371f8a1a1f161e12c'
p67
sg10
S'xxba888c7bae920571ac53356686c7a017'
p68
sg12
S'xx41cae610670c21de64bf8136c4d64f6e'
p69
sg14
S'Mozilla/5.0 (Linux; Android 4.4.2; SM-N9002 Build/KOT49H) AppleWebKit/537.36 (KHTML, like Gecko) Version/4.0 Chrome/37.0.0.0 Mobile MQQBrowser/6.8 TBS/036849 Safari/537.36 MicroMessenger/6.3.27.880 NetType/3gnet Language/zh_CN'
p70
sg16
S'8e648eb75aba05460a78e8c786ca553e'
p71
sa(dp72
g2
S'18224'
p73
sg4
S'2123'
p74
sg6
S'9e66c309d49fc4c42696c69e604ea641'
p75
sg8
S'xx38af12daef3e1e6371f8a1a1f161e12c'
p76
sg10
S'xxba888c7bae920571ac53356686c7a017'
p77
sg12
S'xx41cae610670c21de64bf8136c4d64f6e'
p78
sg14
S'Mozilla/5.0 (Linux; Android 4.4.2; SM-N9002 Build/KOT49H) AppleWebKit/537.36 (KHTML, like Gecko) Version/4.0 Chrome/37.0.0.0 Mobile MQQBrowser/6.8 TBS/036849 Safari/537.36 MicroMessenger/6.3.27.880 NetType/3gnet Language/zh_CN'
p79
sg16
S'8e648eb75aba05460a78e8c786ca553e'
p80
sa(dp81
g2
S'18224'
p82
sg4
S'3060'
p83
sg6
S'9e66c309d49fc4c42696c69e604ea641'
p84
sg8
S'xx38af12daef3e1e6371f8a1a1f161e12c'
p85
sg10
S'xxba888c7bae920571ac53356686c7a017'
p86
sg12
S'xx41cae610670c21de64bf8136c4d64f6e'
p87
sg14
S'Mozilla/5.0 (Linux; Android 4.4.2; SM-N9002 Build/KOT49H) AppleWebKit/537.36 (KHTML, like Gecko) Version/4.0 Chrome/37.0.0.0 Mobile MQQBrowser/6.8 TBS/036849 Safari/537.36 MicroMessenger/6.3.27.880 NetType/3gnet Language/zh_CN'
p88
sg16
S'8e648eb75aba05460a78e8c786ca553e'
p89
sa(dp90
g2
S'18224'
p91
sg4
S'3081'
p92
sg6
S'9e66c309d49fc4c42696c69e604ea641'
p93
sg8
S'xx38af12daef3e1e6371f8a1a1f161e12c'
p94
sg10
S'xxba888c7bae920571ac53356686c7a017'
p95
sg12
S'xx41cae610670c21de64bf8136c4d64f6e'
p96
sg14
S'Mozilla/5.0 (Linux; Android 4.4.2; SM-N9002 Build/KOT49H) AppleWebKit/537.36 (KHTML, like Gecko) Version/4.0 Chrome/37.0.0.0 Mobile MQQBrowser/6.8 TBS/036849 Safari/537.36 MicroMessenger/6.3.27.880 NetType/3gnet Language/zh_CN'
p97
sg16
S'8e648eb75aba05460a78e8c786ca553e'
p98
sa(dp99
g2
S'18224'
p100
sg4
S'3099'
p101
sg6
S'9e66c309d49fc4c42696c69e604ea641'
p102
sg8
S'xx38af12daef3e1e6371f8a1a1f161e12c'
p103
sg10
S'xxba888c7bae920571ac53356686c7a017'
p104
sg12
S'xx41cae610670c21de64bf8136c4d64f6e'
p105
sg14
S'Mozilla/5.0 (Linux; Android 4.4.2; SM-N9002 Build/KOT49H) AppleWebKit/537.36 (KHTML, like Gecko) Version/4.0 Chrome/37.0.0.0 Mobile MQQBrowser/6.8 TBS/036849 Safari/537.36 MicroMessenger/6.3.27.880 NetType/3gnet Language/zh_CN'
p106
sg16
S'8e648eb75aba05460a78e8c786ca553e'
p107
sa.