(lp0
(dp1
S'user_id'
p2
S'31112'
p3
sS'data_id'
p4
S'1652'
p5
sS'ip'
p6
S'4858c0313511bb266b0125685e7b2430'
p7
sS'phone_B'
p8
S'xxc9905e94c350162b1ae5e6e414cee7ba'
p9
sS'phone_C'
p10
S'xx7c11889d568b644595fc506dc352723e'
p11
sS'phone_A'
p12
S'xx4138183feb0c1f213f6bf6210f3e2bdf'
p13
sS'user_agent'
p14
S'Mozilla/5.0 (Linux; Android 4.4.4; A31c Build/KTU84P) AppleWebKit/537.36 (KHTML, like Gecko) Version/4.0 Chrome/37.0.0.0 Mobile MQQBrowser/6.8 TBS/036849 Safari/537.36 MicroMessenger/6.3.27.880 NetType/ctlte Language/zh_CN'
p15
sS'ua'
p16
S'a07ee3b34f378635ccbc21b78e15e49f'
p17
sa(dp18
g2
S'31112'
p19
sg4
S'1668'
p20
sg6
S'4858c0313511bb266b0125685e7b2430'
p21
sg8
S'xxc9905e94c350162b1ae5e6e414cee7ba'
p22
sg10
S'xx7c11889d568b644595fc506dc352723e'
p23
sg12
S'xx4138183feb0c1f213f6bf6210f3e2bdf'
p24
sg14
S'Mozilla/5.0 (Linux; Android 4.4.4; A31c Build/KTU84P) AppleWebKit/537.36 (KHTML, like Gecko) Version/4.0 Chrome/37.0.0.0 Mobile MQQBrowser/6.8 TBS/036849 Safari/537.36 MicroMessenger/6.3.27.880 NetType/ctlte Language/zh_CN'
p25
sg16
S'a07ee3b34f378635ccbc21b78e15e49f'
p26
sa(dp27
g2
S'32430'
p28
sg4
S'4882'
p29
sg6
S'10817a5e74b822e8ea1b0fe5648dc5b0'
p30
sg8
S'xx6c4caba0f886820a093717b683fd89c1'
p31
sg10
S'xx7c11889d568b644595fc506dc352723e'
p32
sg12
S'xx4138183feb0c1f213f6bf6210f3e2bdf'
p33
sg14
S'Mozilla/5.0 (Linux; Android 4.4.4; A31c Build/KTU84P) AppleWebKit/537.36 (KHTML, like Gecko) Version/4.0 Chrome/37.0.0.0 Mobile MQQBrowser/6.8 TBS/036849 Safari/537.36 MicroMessenger/6.3.27.880 NetType/WIFI Language/zh_CN'
p34
sg16
S'd8f43384aeecbafbb88376c01395ae48'
p35
sa(dp36
g2
S'32430'
p37
sg4
S'4900'
p38
sg6
S'10817a5e74b822e8ea1b0fe5648dc5b0'
p39
sg8
S'xx6c4caba0f886820a093717b683fd89c1'
p40
sg10
S'xx7c11889d568b644595fc506dc352723e'
p41
sg12
S'xx4138183feb0c1f213f6bf6210f3e2bdf'
p42
sg14
S'Mozilla/5.0 (Linux; Android 4.4.4; A31c Build/KTU84P) AppleWebKit/537.36 (KHTML, like Gecko) Version/4.0 Chrome/37.0.0.0 Mobile MQQBrowser/6.8 TBS/036849 Safari/537.36 MicroMessenger/6.3.27.880 NetType/WIFI Language/zh_CN'
p43
sg16
S'd8f43384aeecbafbb88376c01395ae48'
p44
sa(dp45
g2
S'31820'
p46
sg4
S'6800'
p47
sg6
S'84c6fea1a0efc618b52a026523e50a51'
p48
sg8
S'xx95eead9adcb1d3f844a7952e70a83ce6'
p49
sg10
S'xx7c11889d568b644595fc506dc352723e'
p50
sg12
S'xx4138183feb0c1f213f6bf6210f3e2bdf'
p51
sg14
S'Mozilla/5.0 (Linux; Android 4.4.4; A31c Build/KTU84P) AppleWebKit/537.36 (KHTML, like Gecko) Version/4.0 Chrome/37.0.0.0 Mobile MQQBrowser/6.8 TBS/036849 Safari/537.36 MicroMessenger/6.3.25.861 NetType/WIFI Language/zh_CN'
p52
sg16
S'38457d2fed2297e7149d2045df6404f8'
p53
sa(dp54
g2
S'31820'
p55
sg4
S'6811'
p56
sg6
S'84c6fea1a0efc618b52a026523e50a51'
p57
sg8
S'xx95eead9adcb1d3f844a7952e70a83ce6'
p58
sg10
S'xx7c11889d568b644595fc506dc352723e'
p59
sg12
S'xx4138183feb0c1f213f6bf6210f3e2bdf'
p60
sg14
S'Mozilla/5.0 (Linux; Android 4.4.4; A31c Build/KTU84P) AppleWebKit/537.36 (KHTML, like Gecko) Version/4.0 Chrome/37.0.0.0 Mobile MQQBrowser/6.8 TBS/036849 Safari/537.36 MicroMessenger/6.3.25.861 NetType/WIFI Language/zh_CN'
p61
sg16
S'38457d2fed2297e7149d2045df6404f8'
p62
sa(dp63
g2
S'32396'
p64
sg4
S'8651'
p65
sg6
S'84c6fea1a0efc618b52a026523e50a51'
p66
sg8
S'xxed457e6f7c9da25f0503122183d1c0ca'
p67
sg10
S'xx0fd8297ca224a3e8c8ff886c3e121685'
p68
sg12
S'xx4138183feb0c1f213f6bf6210f3e2bdf'
p69
sg14
S'Mozilla/5.0 (Linux; Android 4.4.4; A31c Build/KTU84P) AppleWebKit/537.36 (KHTML, like Gecko) Version/4.0 Chrome/37.0.0.0 Mobile MQQBrowser/6.8 TBS/036849 Safari/537.36 MicroMessenger/6.3.27.880 NetType/WIFI Language/zh_CN'
p70
sg16
S'd8f43384aeecbafbb88376c01395ae48'
p71
sa(dp72
g2
S'28786'
p73
sg4
S'8652'
p74
sg6
S'e049224658164a523c7a79e7d5080bcb'
p75
sg8
S'xxa7126575e218815086fb43ea42279f8e'
p76
sg10
S'xx7c11889d568b644595fc506dc352723e'
p77
sg12
S'xx4138183feb0c1f213f6bf6210f3e2bdf'
p78
sg14
S'Mozilla/5.0 (Linux; Android 4.4.4; A31c Build/KTU84P) AppleWebKit/537.36 (KHTML, like Gecko) Version/4.0 Chrome/37.0.0.0 Mobile MQQBrowser/6.8 TBS/036824 Safari/537.36 MicroMessenger/6.3.27.880 NetType/ctlte Language/zh_CN'
p79
sg16
S'9c92add03b3c4a88c3db4b4fa400d579'
p80
sa(dp81
g2
S'28786'
p82
sg4
S'8669'
p83
sg6
S'e049224658164a523c7a79e7d5080bcb'
p84
sg8
S'xxa7126575e218815086fb43ea42279f8e'
p85
sg10
S'xx7c11889d568b644595fc506dc352723e'
p86
sg12
S'xx4138183feb0c1f213f6bf6210f3e2bdf'
p87
sg14
S'Mozilla/5.0 (Linux; Android 4.4.4; A31c Build/KTU84P) AppleWebKit/537.36 (KHTML, like Gecko) Version/4.0 Chrome/37.0.0.0 Mobile MQQBrowser/6.8 TBS/036824 Safari/537.36 MicroMessenger/6.3.27.880 NetType/ctlte Language/zh_CN'
p88
sg16
S'9c92add03b3c4a88c3db4b4fa400d579'
p89
sa.