(lp0
(dp1
S'user_id'
p2
S'39336'
p3
sS'data_id'
p4
S'4760'
p5
sS'ip'
p6
S'1dc889c5d6202d34a546b88afcfd9686'
p7
sS'phone_B'
p8
S'xx091d77fcd1080e49c6596c8c4a289837'
p9
sS'phone_C'
p10
S'xx4006016f077807be1693755fe7f3cb22'
p11
sS'phone_A'
p12
S'xx42e869d136c3c3146a612b538134d6db'
p13
sS'user_agent'
p14
S'Mozilla/5.0 (Linux; Android 5.1.1; SM-J5108 Build/LMY47X) AppleWebKit/537.36 (KHTML, like Gecko) Version/4.0 Chrome/37.0.0.0 Mobile MQQBrowser/6.8 TBS/036849 Safari/537.36 MicroMessenger/6.3.27.880 NetType/WIFI Language/zh_CN'
p15
sS'ua'
p16
S'108fc1f4e3313d360742b179aa9e8d7d'
p17
sa(dp18
g2
S'39336'
p19
sg4
S'4774'
p20
sg6
S'1dc889c5d6202d34a546b88afcfd9686'
p21
sg8
S'xx091d77fcd1080e49c6596c8c4a289837'
p22
sg10
S'xx4006016f077807be1693755fe7f3cb22'
p23
sg12
S'xx42e869d136c3c3146a612b538134d6db'
p24
sg14
S'Mozilla/5.0 (Linux; Android 5.1.1; SM-J5108 Build/LMY47X) AppleWebKit/537.36 (KHTML, like Gecko) Version/4.0 Chrome/37.0.0.0 Mobile MQQBrowser/6.8 TBS/036849 Safari/537.36 MicroMessenger/6.3.27.880 NetType/WIFI Language/zh_CN'
p25
sg16
S'108fc1f4e3313d360742b179aa9e8d7d'
p26
sa.