(lp0
(dp1
S'user_id'
p2
S'24923'
p3
sS'data_id'
p4
S'428'
p5
sS'ip'
p6
S'3ce7438fbbe54041462020e227d418b9'
p7
sS'phone_B'
p8
S'xx84654d61be3142eb6d3aa468afafcfe3'
p9
sS'phone_C'
p10
S'xxda419851033273d199bbe592c0970f7f'
p11
sS'phone_A'
p12
S'xx4410b69bdc87bd33be8dd8e806f1a374'
p13
sS'user_agent'
p14
S'Mozilla/5.0 (Linux; Android 6.0.1; SM-G9250 Build/MMB29K) AppleWebKit/537.36 (KHTML, like Gecko) Version/4.0 Chrome/37.0.0.0 Mobile MQQBrowser/6.8 TBS/036849 Safari/537.36 MicroMessenger/6.3.25.861 NetType/cmnet Language/zh_CN'
p15
sS'ua'
p16
S'83899e41a9b6fe05bbd407e6793c9da8'
p17
sa(dp18
g2
S'24923'
p19
sg4
S'436'
p20
sg6
S'3ce7438fbbe54041462020e227d418b9'
p21
sg8
S'xx84654d61be3142eb6d3aa468afafcfe3'
p22
sg10
S'xxda419851033273d199bbe592c0970f7f'
p23
sg12
S'xx4410b69bdc87bd33be8dd8e806f1a374'
p24
sg14
S'Mozilla/5.0 (Linux; Android 6.0.1; SM-G9250 Build/MMB29K) AppleWebKit/537.36 (KHTML, like Gecko) Version/4.0 Chrome/37.0.0.0 Mobile MQQBrowser/6.8 TBS/036849 Safari/537.36 MicroMessenger/6.3.25.861 NetType/cmnet Language/zh_CN'
p25
sg16
S'83899e41a9b6fe05bbd407e6793c9da8'
p26
sa(dp27
g2
S'24923'
p28
sg4
S'447'
p29
sg6
S'3ce7438fbbe54041462020e227d418b9'
p30
sg8
S'xx84654d61be3142eb6d3aa468afafcfe3'
p31
sg10
S'xxda419851033273d199bbe592c0970f7f'
p32
sg12
S'xx4410b69bdc87bd33be8dd8e806f1a374'
p33
sg14
S'Mozilla/5.0 (Linux; Android 6.0.1; SM-G9250 Build/MMB29K) AppleWebKit/537.36 (KHTML, like Gecko) Version/4.0 Chrome/37.0.0.0 Mobile MQQBrowser/6.8 TBS/036849 Safari/537.36 MicroMessenger/6.3.25.861 NetType/cmnet Language/zh_CN'
p34
sg16
S'83899e41a9b6fe05bbd407e6793c9da8'
p35
sa(dp36
g2
S'44376'
p37
sg4
S'2167'
p38
sg6
S'fca5021b164b2c9b7563e632e5af1392'
p39
sg8
S'xxe134d2d9fb009e3a5b3dade7b084744f'
p40
sg10
S'xxda419851033273d199bbe592c0970f7f'
p41
sg12
S'xx4410b69bdc87bd33be8dd8e806f1a374'
p42
sg14
S'Mozilla/5.0 (Linux; Android 6.0.1; SM-G9250 Build/MMB29K) AppleWebKit/537.36 (KHTML, like Gecko) Version/4.0 Chrome/37.0.0.0 Mobile MQQBrowser/6.8 TBS/036849 Safari/537.36 MicroMessenger/6.3.27.880 NetType/3gnet Language/zh_CN'
p43
sg16
S'4b946628f91639d52c251d37cf5c65c0'
p44
sa(dp45
g2
S'44376'
p46
sg4
S'2182'
p47
sg6
S'fca5021b164b2c9b7563e632e5af1392'
p48
sg8
S'xxe134d2d9fb009e3a5b3dade7b084744f'
p49
sg10
S'xxda419851033273d199bbe592c0970f7f'
p50
sg12
S'xx4410b69bdc87bd33be8dd8e806f1a374'
p51
sg14
S'Mozilla/5.0 (Linux; Android 6.0.1; SM-G9250 Build/MMB29K) AppleWebKit/537.36 (KHTML, like Gecko) Version/4.0 Chrome/37.0.0.0 Mobile MQQBrowser/6.8 TBS/036849 Safari/537.36 MicroMessenger/6.3.27.880 NetType/3gnet Language/zh_CN'
p52
sg16
S'4b946628f91639d52c251d37cf5c65c0'
p53
sa(dp54
g2
S'44376'
p55
sg4
S'2201'
p56
sg6
S'fca5021b164b2c9b7563e632e5af1392'
p57
sg8
S'xxe134d2d9fb009e3a5b3dade7b084744f'
p58
sg10
S'xxda419851033273d199bbe592c0970f7f'
p59
sg12
S'xx4410b69bdc87bd33be8dd8e806f1a374'
p60
sg14
S'Mozilla/5.0 (Linux; Android 6.0.1; SM-G9250 Build/MMB29K) AppleWebKit/537.36 (KHTML, like Gecko) Version/4.0 Chrome/37.0.0.0 Mobile MQQBrowser/6.8 TBS/036849 Safari/537.36 MicroMessenger/6.3.27.880 NetType/3gnet Language/zh_CN'
p61
sg16
S'4b946628f91639d52c251d37cf5c65c0'
p62
sa.