(lp0
(dp1
S'user_id'
p2
S'10567'
p3
sS'data_id'
p4
S'1658'
p5
sS'ip'
p6
S'4870d930dc6b6e799fc103399feb30ff'
p7
sS'phone_B'
p8
S'xxd2038bef05f2a75d177799d408ee9b38'
p9
sS'phone_C'
p10
S'xx52f68d3da61da11acf329c8054c5aef3'
p11
sS'phone_A'
p12
S'xx44dd983acfc05df63ef88394c8fa04e8'
p13
sS'user_agent'
p14
S'Mozilla/5.0 (Linux; Android 6.0; 1505-A01 Build/MRA58K) AppleWebKit/537.36 (KHTML, like Gecko) Version/4.0 Chrome/37.0.0.0 Mobile MQQBrowser/6.8 TBS/036849 Safari/537.36 MicroMessenger/6.3.27.880 NetType/WIFI Language/zh_CN'
p15
sS'ua'
p16
S'2dd920b476ed123958b188a6cdbe0d2a'
p17
sa(dp18
g2
S'10567'
p19
sg4
S'1672'
p20
sg6
S'4870d930dc6b6e799fc103399feb30ff'
p21
sg8
S'xxd2038bef05f2a75d177799d408ee9b38'
p22
sg10
S'xx52f68d3da61da11acf329c8054c5aef3'
p23
sg12
S'xx44dd983acfc05df63ef88394c8fa04e8'
p24
sg14
S'Mozilla/5.0 (Linux; Android 6.0; 1505-A01 Build/MRA58K) AppleWebKit/537.36 (KHTML, like Gecko) Version/4.0 Chrome/37.0.0.0 Mobile MQQBrowser/6.8 TBS/036849 Safari/537.36 MicroMessenger/6.3.27.880 NetType/WIFI Language/zh_CN'
p25
sg16
S'2dd920b476ed123958b188a6cdbe0d2a'
p26
sa(dp27
g2
S'10599'
p28
sg4
S'1815'
p29
sg6
S'4870d930dc6b6e799fc103399feb30ff'
p30
sg8
S'xxd2038bef05f2a75d177799d408ee9b38'
p31
sg10
S'xx52f68d3da61da11acf329c8054c5aef3'
p32
sg12
S'xx44dd983acfc05df63ef88394c8fa04e8'
p33
sg14
S'Mozilla/5.0 (Linux; Android 6.0; 1505-A01 Build/MRA58K) AppleWebKit/537.36 (KHTML, like Gecko) Version/4.0 Chrome/37.0.0.0 Mobile MQQBrowser/6.8 TBS/036849 Safari/537.36 MicroMessenger/6.3.27.880 NetType/WIFI Language/zh_CN'
p34
sg16
S'2dd920b476ed123958b188a6cdbe0d2a'
p35
sa(dp36
g2
S'10599'
p37
sg4
S'1823'
p38
sg6
S'4870d930dc6b6e799fc103399feb30ff'
p39
sg8
S'xxd2038bef05f2a75d177799d408ee9b38'
p40
sg10
S'xx52f68d3da61da11acf329c8054c5aef3'
p41
sg12
S'xx44dd983acfc05df63ef88394c8fa04e8'
p42
sg14
S'Mozilla/5.0 (Linux; Android 6.0; 1505-A01 Build/MRA58K) AppleWebKit/537.36 (KHTML, like Gecko) Version/4.0 Chrome/37.0.0.0 Mobile MQQBrowser/6.8 TBS/036849 Safari/537.36 MicroMessenger/6.3.27.880 NetType/WIFI Language/zh_CN'
p43
sg16
S'2dd920b476ed123958b188a6cdbe0d2a'
p44
sa(dp45
g2
S'10599'
p46
sg4
S'1835'
p47
sg6
S'4870d930dc6b6e799fc103399feb30ff'
p48
sg8
S'xxd2038bef05f2a75d177799d408ee9b38'
p49
sg10
S'xx52f68d3da61da11acf329c8054c5aef3'
p50
sg12
S'xx44dd983acfc05df63ef88394c8fa04e8'
p51
sg14
S'Mozilla/5.0 (Linux; Android 6.0; 1505-A01 Build/MRA58K) AppleWebKit/537.36 (KHTML, like Gecko) Version/4.0 Chrome/37.0.0.0 Mobile MQQBrowser/6.8 TBS/036849 Safari/537.36 MicroMessenger/6.3.27.880 NetType/WIFI Language/zh_CN'
p52
sg16
S'2dd920b476ed123958b188a6cdbe0d2a'
p53
sa(dp54
g2
S'10599'
p55
sg4
S'4373'
p56
sg6
S'4870d930dc6b6e799fc103399feb30ff'
p57
sg8
S'xxd2038bef05f2a75d177799d408ee9b38'
p58
sg10
S'xx52f68d3da61da11acf329c8054c5aef3'
p59
sg12
S'xx44dd983acfc05df63ef88394c8fa04e8'
p60
sg14
S'Mozilla/5.0 (Linux; Android 6.0; 1505-A01 Build/MRA58K) AppleWebKit/537.36 (KHTML, like Gecko) Version/4.0 Chrome/37.0.0.0 Mobile MQQBrowser/6.8 TBS/036849 Safari/537.36 MicroMessenger/6.3.27.880 NetType/WIFI Language/zh_CN'
p61
sg16
S'2dd920b476ed123958b188a6cdbe0d2a'
p62
sa(dp63
g2
S'10599'
p64
sg4
S'4401'
p65
sg6
S'4870d930dc6b6e799fc103399feb30ff'
p66
sg8
S'xxd2038bef05f2a75d177799d408ee9b38'
p67
sg10
S'xx52f68d3da61da11acf329c8054c5aef3'
p68
sg12
S'xx44dd983acfc05df63ef88394c8fa04e8'
p69
sg14
S'Mozilla/5.0 (Linux; Android 6.0; 1505-A01 Build/MRA58K) AppleWebKit/537.36 (KHTML, like Gecko) Version/4.0 Chrome/37.0.0.0 Mobile MQQBrowser/6.8 TBS/036849 Safari/537.36 MicroMessenger/6.3.27.880 NetType/WIFI Language/zh_CN'
p70
sg16
S'2dd920b476ed123958b188a6cdbe0d2a'
p71
sa(dp72
g2
S'48406'
p73
sg4
S'8260'
p74
sg6
S'6f9d457af057d70e609eeecbaab44612'
p75
sg8
S'xxd2038bef05f2a75d177799d408ee9b38'
p76
sg10
S'xx52f68d3da61da11acf329c8054c5aef3'
p77
sg12
S'xx44dd983acfc05df63ef88394c8fa04e8'
p78
sg14
S'Mozilla/5.0 (Linux; Android 6.0; 1505-A01 Build/MRA58K) AppleWebKit/537.36 (KHTML, like Gecko) Version/4.0 Chrome/37.0.0.0 Mobile MQQBrowser/6.8 TBS/036849 Safari/537.36 MicroMessenger/6.3.27.880 NetType/WIFI Language/zh_CN'
p79
sg16
S'2dd920b476ed123958b188a6cdbe0d2a'
p80
sa(dp81
g2
S'48406'
p82
sg4
S'8273'
p83
sg6
S'6f9d457af057d70e609eeecbaab44612'
p84
sg8
S'xxd2038bef05f2a75d177799d408ee9b38'
p85
sg10
S'xx52f68d3da61da11acf329c8054c5aef3'
p86
sg12
S'xx44dd983acfc05df63ef88394c8fa04e8'
p87
sg14
S'Mozilla/5.0 (Linux; Android 6.0; 1505-A01 Build/MRA58K) AppleWebKit/537.36 (KHTML, like Gecko) Version/4.0 Chrome/37.0.0.0 Mobile MQQBrowser/6.8 TBS/036849 Safari/537.36 MicroMessenger/6.3.27.880 NetType/WIFI Language/zh_CN'
p88
sg16
S'2dd920b476ed123958b188a6cdbe0d2a'
p89
sa(dp90
g2
S'48406'
p91
sg4
S'8296'
p92
sg6
S'6f9d457af057d70e609eeecbaab44612'
p93
sg8
S'xxd2038bef05f2a75d177799d408ee9b38'
p94
sg10
S'xx52f68d3da61da11acf329c8054c5aef3'
p95
sg12
S'xx44dd983acfc05df63ef88394c8fa04e8'
p96
sg14
S'Mozilla/5.0 (Linux; Android 6.0; 1505-A01 Build/MRA58K) AppleWebKit/537.36 (KHTML, like Gecko) Version/4.0 Chrome/37.0.0.0 Mobile MQQBrowser/6.8 TBS/036849 Safari/537.36 MicroMessenger/6.3.27.880 NetType/WIFI Language/zh_CN'
p97
sg16
S'2dd920b476ed123958b188a6cdbe0d2a'
p98
sa.