(lp0
(dp1
S'user_id'
p2
S'36683'
p3
sS'data_id'
p4
S'5865'
p5
sS'ip'
p6
S'0d28f6443cd5a9f56ed5e933bd335c11'
p7
sS'phone_B'
p8
S'xx392cf52da42b66c87422c90249e4af87'
p9
sS'phone_C'
p10
S'xxff53db835e55d785c663be6942b3d135'
p11
sS'phone_A'
p12
S'xx44fdd7d62d7b6b92755571cd1d380111'
p13
sS'user_agent'
p14
S'Mozilla/5.0 (Linux; Android 5.0.2; vivo X5M Build/LRX22G) AppleWebKit/537.36 (KHTML, like Gecko) Version/4.0 Chrome/37.0.0.0 Mobile MQQBrowser/6.8 TBS/036849 Safari/537.36 MicroMessenger/6.3.27.880 NetType/cmnet Language/zh_CN'
p15
sS'ua'
p16
S'dfd865577021067d337235cb9f8e6a8f'
p17
sa(dp18
g2
S'36683'
p19
sg4
S'5884'
p20
sg6
S'0d28f6443cd5a9f56ed5e933bd335c11'
p21
sg8
S'xx392cf52da42b66c87422c90249e4af87'
p22
sg10
S'xxff53db835e55d785c663be6942b3d135'
p23
sg12
S'xx44fdd7d62d7b6b92755571cd1d380111'
p24
sg14
S'Mozilla/5.0 (Linux; Android 5.0.2; vivo X5M Build/LRX22G) AppleWebKit/537.36 (KHTML, like Gecko) Version/4.0 Chrome/37.0.0.0 Mobile MQQBrowser/6.8 TBS/036849 Safari/537.36 MicroMessenger/6.3.27.880 NetType/cmnet Language/zh_CN'
p25
sg16
S'dfd865577021067d337235cb9f8e6a8f'
p26
sa.