(lp0
(dp1
S'user_id'
p2
S'47346'
p3
sS'data_id'
p4
S'7337'
p5
sS'ip'
p6
S'4b01904083c8b7f712228ff725ff42e0'
p7
sS'phone_B'
p8
S'xx203bda833df45f27369a8eb1108c1ade'
p9
sS'phone_C'
p10
S'xx0b3aba790e89ece3ddcaf9ee804d70ff'
p11
sS'phone_A'
p12
S'xx459d0fa51aacbf9ca7c8d46b1e690f4d'
p13
sS'user_agent'
p14
S'Mozilla/5.0 (Linux; Android 4.3; vivo X3L Build/JLS36C) AppleWebKit/537.36 (KHTML, like Gecko) Version/4.0 Chrome/37.0.0.0 Mobile MQQBrowser/6.8 TBS/036849 Safari/537.36 MicroMessenger/6.3.27.880 NetType/WIFI Language/zh_CN'
p15
sS'ua'
p16
S'20266c03431501a6386779877b19256e'
p17
sa(dp18
g2
S'47346'
p19
sg4
S'7351'
p20
sg6
S'4b01904083c8b7f712228ff725ff42e0'
p21
sg8
S'xx203bda833df45f27369a8eb1108c1ade'
p22
sg10
S'xx0b3aba790e89ece3ddcaf9ee804d70ff'
p23
sg12
S'xx459d0fa51aacbf9ca7c8d46b1e690f4d'
p24
sg14
S'Mozilla/5.0 (Linux; Android 4.3; vivo X3L Build/JLS36C) AppleWebKit/537.36 (KHTML, like Gecko) Version/4.0 Chrome/37.0.0.0 Mobile MQQBrowser/6.8 TBS/036849 Safari/537.36 MicroMessenger/6.3.27.880 NetType/WIFI Language/zh_CN'
p25
sg16
S'20266c03431501a6386779877b19256e'
p26
sa.