(lp0
(dp1
S'user_id'
p2
S'33111'
p3
sS'data_id'
p4
S'4994'
p5
sS'ip'
p6
S'8ad7810702dd441ebebf9389ddd339f3'
p7
sS'phone_B'
p8
S'xxe339e3fa41ebc11e4f80f5f8083f2a9b'
p9
sS'phone_C'
p10
S'xx47c32bfbd053719a7c1945038758bdc1'
p11
sS'phone_A'
p12
S'xx4662ebdaf307bcc143a67a2dcc9fb6f2'
p13
sS'user_agent'
p14
S'Mozilla/5.0 (Linux; Android 4.4.4; MI 3 Build/KTU84P) AppleWebKit/537.36 (KHTML, like Gecko) Version/4.0 Chrome/37.0.0.0 Mobile MQQBrowser/6.8 TBS/036849 Safari/537.36 MicroMessenger/6.3.27.880 NetType/cmnet Language/zh_CN'
p15
sS'ua'
p16
S'a21f5138b097408f3eecb68b25cb30e4'
p17
sa(dp18
g2
S'33111'
p19
sg4
S'5005'
p20
sg6
S'8ad7810702dd441ebebf9389ddd339f3'
p21
sg8
S'xxe339e3fa41ebc11e4f80f5f8083f2a9b'
p22
sg10
S'xx47c32bfbd053719a7c1945038758bdc1'
p23
sg12
S'xx4662ebdaf307bcc143a67a2dcc9fb6f2'
p24
sg14
S'Mozilla/5.0 (Linux; Android 4.4.4; MI 3 Build/KTU84P) AppleWebKit/537.36 (KHTML, like Gecko) Version/4.0 Chrome/37.0.0.0 Mobile MQQBrowser/6.8 TBS/036849 Safari/537.36 MicroMessenger/6.3.27.880 NetType/cmnet Language/zh_CN'
p25
sg16
S'a21f5138b097408f3eecb68b25cb30e4'
p26
sa(dp27
g2
S'32754'
p28
sg4
S'6959'
p29
sg6
S'62da6ca60eb8ad6def4503a1ee130662'
p30
sg8
S'xx28e79f20e0038d568338eb392e3a0054'
p31
sg10
S'xx47c32bfbd053719a7c1945038758bdc1'
p32
sg12
S'xx4662ebdaf307bcc143a67a2dcc9fb6f2'
p33
sg14
S'Mozilla/5.0 (Linux; Android 4.4.4; MI 3 Build/KTU84P) AppleWebKit/537.36 (KHTML, like Gecko) Version/4.0 Chrome/37.0.0.0 Mobile MQQBrowser/6.8 TBS/036849 Safari/537.36 MicroMessenger/6.3.25.861 NetType/cmnet Language/zh_CN'
p34
sg16
S'ce334bbe7993063192fba357f753c727'
p35
sa(dp36
g2
S'32754'
p37
sg4
S'6977'
p38
sg6
S'62da6ca60eb8ad6def4503a1ee130662'
p39
sg8
S'xx28e79f20e0038d568338eb392e3a0054'
p40
sg10
S'xx47c32bfbd053719a7c1945038758bdc1'
p41
sg12
S'xx4662ebdaf307bcc143a67a2dcc9fb6f2'
p42
sg14
S'Mozilla/5.0 (Linux; Android 4.4.4; MI 3 Build/KTU84P) AppleWebKit/537.36 (KHTML, like Gecko) Version/4.0 Chrome/37.0.0.0 Mobile MQQBrowser/6.8 TBS/036849 Safari/537.36 MicroMessenger/6.3.25.861 NetType/cmnet Language/zh_CN'
p43
sg16
S'ce334bbe7993063192fba357f753c727'
p44
sa(dp45
g2
S'32754'
p46
sg4
S'6991'
p47
sg6
S'62da6ca60eb8ad6def4503a1ee130662'
p48
sg8
S'xx28e79f20e0038d568338eb392e3a0054'
p49
sg10
S'xx47c32bfbd053719a7c1945038758bdc1'
p50
sg12
S'xx4662ebdaf307bcc143a67a2dcc9fb6f2'
p51
sg14
S'Mozilla/5.0 (Linux; Android 4.4.4; MI 3 Build/KTU84P) AppleWebKit/537.36 (KHTML, like Gecko) Version/4.0 Chrome/37.0.0.0 Mobile MQQBrowser/6.8 TBS/036849 Safari/537.36 MicroMessenger/6.3.25.861 NetType/cmnet Language/zh_CN'
p52
sg16
S'ce334bbe7993063192fba357f753c727'
p53
sa(dp54
g2
S'32754'
p55
sg4
S'7006'
p56
sg6
S'62da6ca60eb8ad6def4503a1ee130662'
p57
sg8
S'xx28e79f20e0038d568338eb392e3a0054'
p58
sg10
S'xx47c32bfbd053719a7c1945038758bdc1'
p59
sg12
S'xx4662ebdaf307bcc143a67a2dcc9fb6f2'
p60
sg14
S'Mozilla/5.0 (Linux; Android 4.4.4; MI 3 Build/KTU84P) AppleWebKit/537.36 (KHTML, like Gecko) Version/4.0 Chrome/37.0.0.0 Mobile MQQBrowser/6.8 TBS/036849 Safari/537.36 MicroMessenger/6.3.25.861 NetType/cmnet Language/zh_CN'
p61
sg16
S'ce334bbe7993063192fba357f753c727'
p62
sa(dp63
g2
S'32754'
p64
sg4
S'7022'
p65
sg6
S'62da6ca60eb8ad6def4503a1ee130662'
p66
sg8
S'xx28e79f20e0038d568338eb392e3a0054'
p67
sg10
S'xx47c32bfbd053719a7c1945038758bdc1'
p68
sg12
S'xx4662ebdaf307bcc143a67a2dcc9fb6f2'
p69
sg14
S'Mozilla/5.0 (Linux; Android 4.4.4; MI 3 Build/KTU84P) AppleWebKit/537.36 (KHTML, like Gecko) Version/4.0 Chrome/37.0.0.0 Mobile MQQBrowser/6.8 TBS/036849 Safari/537.36 MicroMessenger/6.3.25.861 NetType/cmnet Language/zh_CN'
p70
sg16
S'ce334bbe7993063192fba357f753c727'
p71
sa(dp72
g2
S'32754'
p73
sg4
S'7040'
p74
sg6
S'62da6ca60eb8ad6def4503a1ee130662'
p75
sg8
S'xx28e79f20e0038d568338eb392e3a0054'
p76
sg10
S'xx47c32bfbd053719a7c1945038758bdc1'
p77
sg12
S'xx4662ebdaf307bcc143a67a2dcc9fb6f2'
p78
sg14
S'Mozilla/5.0 (Linux; Android 4.4.4; MI 3 Build/KTU84P) AppleWebKit/537.36 (KHTML, like Gecko) Version/4.0 Chrome/37.0.0.0 Mobile MQQBrowser/6.8 TBS/036849 Safari/537.36 MicroMessenger/6.3.25.861 NetType/cmnet Language/zh_CN'
p79
sg16
S'ce334bbe7993063192fba357f753c727'
p80
sa(dp81
g2
S'32754'
p82
sg4
S'7099'
p83
sg6
S'62da6ca60eb8ad6def4503a1ee130662'
p84
sg8
S'xx28e79f20e0038d568338eb392e3a0054'
p85
sg10
S'xx47c32bfbd053719a7c1945038758bdc1'
p86
sg12
S'xx4662ebdaf307bcc143a67a2dcc9fb6f2'
p87
sg14
S'Mozilla/5.0 (Linux; Android 4.4.4; MI 3 Build/KTU84P) AppleWebKit/537.36 (KHTML, like Gecko) Version/4.0 Chrome/37.0.0.0 Mobile MQQBrowser/6.8 TBS/036849 Safari/537.36 MicroMessenger/6.3.25.861 NetType/cmnet Language/zh_CN'
p88
sg16
S'ce334bbe7993063192fba357f753c727'
p89
sa(dp90
g2
S'36656'
p91
sg4
S'7999'
p92
sg6
S'10d6e9ba5a7f89e5422202990b7f2ea2'
p93
sg8
S'xx5242dba4c36eccd2284752c9b3c74190'
p94
sg10
S'xx47c32bfbd053719a7c1945038758bdc1'
p95
sg12
S'xx4662ebdaf307bcc143a67a2dcc9fb6f2'
p96
sg14
S'Mozilla/5.0 (Linux; Android 4.4.4; MI 3 Build/KTU84P) AppleWebKit/537.36 (KHTML, like Gecko) Version/4.0 Chrome/37.0.0.0 Mobile MQQBrowser/6.8 TBS/036865 Safari/537.36 MicroMessenger/6.3.25.861 NetType/WIFI Language/zh_CN'
p97
sg16
S'32d5a010210c03d211b598d57da7cd15'
p98
sa(dp99
g2
S'36656'
p100
sg4
S'8020'
p101
sg6
S'10d6e9ba5a7f89e5422202990b7f2ea2'
p102
sg8
S'xx5242dba4c36eccd2284752c9b3c74190'
p103
sg10
S'xx47c32bfbd053719a7c1945038758bdc1'
p104
sg12
S'xx4662ebdaf307bcc143a67a2dcc9fb6f2'
p105
sg14
S'Mozilla/5.0 (Linux; Android 4.4.4; MI 3 Build/KTU84P) AppleWebKit/537.36 (KHTML, like Gecko) Version/4.0 Chrome/37.0.0.0 Mobile MQQBrowser/6.8 TBS/036865 Safari/537.36 MicroMessenger/6.3.25.861 NetType/WIFI Language/zh_CN'
p106
sg16
S'32d5a010210c03d211b598d57da7cd15'
p107
sa.