(lp0
(dp1
S'user_id'
p2
S'37906'
p3
sS'data_id'
p4
S'1730'
p5
sS'ip'
p6
S'54c0a3ebf3f5e3f60e07e6d3c93b54c7'
p7
sS'phone_B'
p8
S'xx15154fedf4472c566bb7c570f63e34c8'
p9
sS'phone_C'
p10
S'xxe4de87140e1bdb5e853a6fb37f537c00'
p11
sS'phone_A'
p12
S'xx469e29cb6df1002428466d824c825f5e'
p13
sS'user_agent'
p14
S'Mozilla/5.0 (Linux; Android 5.1.1; vivo X7Plus Build/LMY47V) AppleWebKit/537.36 (KHTML, like Gecko) Version/4.0 Chrome/37.0.0.0 Mobile MQQBrowser/6.8 TBS/036849 Safari/537.36 MicroMessenger/6.3.27.880 NetType/WIFI Language/zh_CN'
p15
sS'ua'
p16
S'b98027314821f35382b99f2bd68a8ccf'
p17
sa(dp18
g2
S'37906'
p19
sg4
S'1751'
p20
sg6
S'54c0a3ebf3f5e3f60e07e6d3c93b54c7'
p21
sg8
S'xx15154fedf4472c566bb7c570f63e34c8'
p22
sg10
S'xxe4de87140e1bdb5e853a6fb37f537c00'
p23
sg12
S'xx469e29cb6df1002428466d824c825f5e'
p24
sg14
S'Mozilla/5.0 (Linux; Android 5.1.1; vivo X7Plus Build/LMY47V) AppleWebKit/537.36 (KHTML, like Gecko) Version/4.0 Chrome/37.0.0.0 Mobile MQQBrowser/6.8 TBS/036849 Safari/537.36 MicroMessenger/6.3.27.880 NetType/WIFI Language/zh_CN'
p25
sg16
S'b98027314821f35382b99f2bd68a8ccf'
p26
sa(dp27
g2
S'37906'
p28
sg4
S'1763'
p29
sg6
S'54c0a3ebf3f5e3f60e07e6d3c93b54c7'
p30
sg8
S'xx15154fedf4472c566bb7c570f63e34c8'
p31
sg10
S'xxe4de87140e1bdb5e853a6fb37f537c00'
p32
sg12
S'xx469e29cb6df1002428466d824c825f5e'
p33
sg14
S'Mozilla/5.0 (Linux; Android 5.1.1; vivo X7Plus Build/LMY47V) AppleWebKit/537.36 (KHTML, like Gecko) Version/4.0 Chrome/37.0.0.0 Mobile MQQBrowser/6.8 TBS/036849 Safari/537.36 MicroMessenger/6.3.27.880 NetType/WIFI Language/zh_CN'
p34
sg16
S'b98027314821f35382b99f2bd68a8ccf'
p35
sa(dp36
g2
S'37906'
p37
sg4
S'1771'
p38
sg6
S'54c0a3ebf3f5e3f60e07e6d3c93b54c7'
p39
sg8
S'xx15154fedf4472c566bb7c570f63e34c8'
p40
sg10
S'xxe4de87140e1bdb5e853a6fb37f537c00'
p41
sg12
S'xx469e29cb6df1002428466d824c825f5e'
p42
sg14
S'Mozilla/5.0 (Linux; Android 5.1.1; vivo X7Plus Build/LMY47V) AppleWebKit/537.36 (KHTML, like Gecko) Version/4.0 Chrome/37.0.0.0 Mobile MQQBrowser/6.8 TBS/036849 Safari/537.36 MicroMessenger/6.3.27.880 NetType/WIFI Language/zh_CN'
p43
sg16
S'b98027314821f35382b99f2bd68a8ccf'
p44
sa(dp45
g2
S'37906'
p46
sg4
S'1781'
p47
sg6
S'54c0a3ebf3f5e3f60e07e6d3c93b54c7'
p48
sg8
S'xx15154fedf4472c566bb7c570f63e34c8'
p49
sg10
S'xxe4de87140e1bdb5e853a6fb37f537c00'
p50
sg12
S'xx469e29cb6df1002428466d824c825f5e'
p51
sg14
S'Mozilla/5.0 (Linux; Android 5.1.1; vivo X7Plus Build/LMY47V) AppleWebKit/537.36 (KHTML, like Gecko) Version/4.0 Chrome/37.0.0.0 Mobile MQQBrowser/6.8 TBS/036849 Safari/537.36 MicroMessenger/6.3.27.880 NetType/WIFI Language/zh_CN'
p52
sg16
S'b98027314821f35382b99f2bd68a8ccf'
p53
sa(dp54
g2
S'37906'
p55
sg4
S'1792'
p56
sg6
S'54c0a3ebf3f5e3f60e07e6d3c93b54c7'
p57
sg8
S'xx15154fedf4472c566bb7c570f63e34c8'
p58
sg10
S'xxe4de87140e1bdb5e853a6fb37f537c00'
p59
sg12
S'xx469e29cb6df1002428466d824c825f5e'
p60
sg14
S'Mozilla/5.0 (Linux; Android 5.1.1; vivo X7Plus Build/LMY47V) AppleWebKit/537.36 (KHTML, like Gecko) Version/4.0 Chrome/37.0.0.0 Mobile MQQBrowser/6.8 TBS/036849 Safari/537.36 MicroMessenger/6.3.27.880 NetType/WIFI Language/zh_CN'
p61
sg16
S'b98027314821f35382b99f2bd68a8ccf'
p62
sa(dp63
g2
S'37906'
p64
sg4
S'1799'
p65
sg6
S'54c0a3ebf3f5e3f60e07e6d3c93b54c7'
p66
sg8
S'xx15154fedf4472c566bb7c570f63e34c8'
p67
sg10
S'xxe4de87140e1bdb5e853a6fb37f537c00'
p68
sg12
S'xx469e29cb6df1002428466d824c825f5e'
p69
sg14
S'Mozilla/5.0 (Linux; Android 5.1.1; vivo X7Plus Build/LMY47V) AppleWebKit/537.36 (KHTML, like Gecko) Version/4.0 Chrome/37.0.0.0 Mobile MQQBrowser/6.8 TBS/036849 Safari/537.36 MicroMessenger/6.3.27.880 NetType/WIFI Language/zh_CN'
p70
sg16
S'b98027314821f35382b99f2bd68a8ccf'
p71
sa(dp72
g2
S'37906'
p73
sg4
S'1810'
p74
sg6
S'54c0a3ebf3f5e3f60e07e6d3c93b54c7'
p75
sg8
S'xx15154fedf4472c566bb7c570f63e34c8'
p76
sg10
S'xxe4de87140e1bdb5e853a6fb37f537c00'
p77
sg12
S'xx469e29cb6df1002428466d824c825f5e'
p78
sg14
S'Mozilla/5.0 (Linux; Android 5.1.1; vivo X7Plus Build/LMY47V) AppleWebKit/537.36 (KHTML, like Gecko) Version/4.0 Chrome/37.0.0.0 Mobile MQQBrowser/6.8 TBS/036849 Safari/537.36 MicroMessenger/6.3.27.880 NetType/WIFI Language/zh_CN'
p79
sg16
S'b98027314821f35382b99f2bd68a8ccf'
p80
sa(dp81
g2
S'37906'
p82
sg4
S'1814'
p83
sg6
S'54c0a3ebf3f5e3f60e07e6d3c93b54c7'
p84
sg8
S'xx15154fedf4472c566bb7c570f63e34c8'
p85
sg10
S'xxe4de87140e1bdb5e853a6fb37f537c00'
p86
sg12
S'xx469e29cb6df1002428466d824c825f5e'
p87
sg14
S'Mozilla/5.0 (Linux; Android 5.1.1; vivo X7Plus Build/LMY47V) AppleWebKit/537.36 (KHTML, like Gecko) Version/4.0 Chrome/37.0.0.0 Mobile MQQBrowser/6.8 TBS/036849 Safari/537.36 MicroMessenger/6.3.27.880 NetType/WIFI Language/zh_CN'
p88
sg16
S'b98027314821f35382b99f2bd68a8ccf'
p89
sa(dp90
g2
S'37906'
p91
sg4
S'1879'
p92
sg6
S'54c0a3ebf3f5e3f60e07e6d3c93b54c7'
p93
sg8
S'xx15154fedf4472c566bb7c570f63e34c8'
p94
sg10
S'xxe4de87140e1bdb5e853a6fb37f537c00'
p95
sg12
S'xx469e29cb6df1002428466d824c825f5e'
p96
sg14
S'Mozilla/5.0 (Linux; Android 5.1.1; vivo X7Plus Build/LMY47V) AppleWebKit/537.36 (KHTML, like Gecko) Version/4.0 Chrome/37.0.0.0 Mobile MQQBrowser/6.8 TBS/036849 Safari/537.36 MicroMessenger/6.3.27.880 NetType/WIFI Language/zh_CN'
p97
sg16
S'b98027314821f35382b99f2bd68a8ccf'
p98
sa(dp99
g2
S'37906'
p100
sg4
S'1891'
p101
sg6
S'54c0a3ebf3f5e3f60e07e6d3c93b54c7'
p102
sg8
S'xx15154fedf4472c566bb7c570f63e34c8'
p103
sg10
S'xxe4de87140e1bdb5e853a6fb37f537c00'
p104
sg12
S'xx469e29cb6df1002428466d824c825f5e'
p105
sg14
S'Mozilla/5.0 (Linux; Android 5.1.1; vivo X7Plus Build/LMY47V) AppleWebKit/537.36 (KHTML, like Gecko) Version/4.0 Chrome/37.0.0.0 Mobile MQQBrowser/6.8 TBS/036849 Safari/537.36 MicroMessenger/6.3.27.880 NetType/WIFI Language/zh_CN'
p106
sg16
S'b98027314821f35382b99f2bd68a8ccf'
p107
sa(dp108
g2
S'37906'
p109
sg4
S'1916'
p110
sg6
S'54c0a3ebf3f5e3f60e07e6d3c93b54c7'
p111
sg8
S'xx15154fedf4472c566bb7c570f63e34c8'
p112
sg10
S'xxe4de87140e1bdb5e853a6fb37f537c00'
p113
sg12
S'xx469e29cb6df1002428466d824c825f5e'
p114
sg14
S'Mozilla/5.0 (Linux; Android 5.1.1; vivo X7Plus Build/LMY47V) AppleWebKit/537.36 (KHTML, like Gecko) Version/4.0 Chrome/37.0.0.0 Mobile MQQBrowser/6.8 TBS/036849 Safari/537.36 MicroMessenger/6.3.27.880 NetType/WIFI Language/zh_CN'
p115
sg16
S'b98027314821f35382b99f2bd68a8ccf'
p116
sa(dp117
g2
S'37906'
p118
sg4
S'1922'
p119
sg6
S'54c0a3ebf3f5e3f60e07e6d3c93b54c7'
p120
sg8
S'xx15154fedf4472c566bb7c570f63e34c8'
p121
sg10
S'xxe4de87140e1bdb5e853a6fb37f537c00'
p122
sg12
S'xx469e29cb6df1002428466d824c825f5e'
p123
sg14
S'Mozilla/5.0 (Linux; Android 5.1.1; vivo X7Plus Build/LMY47V) AppleWebKit/537.36 (KHTML, like Gecko) Version/4.0 Chrome/37.0.0.0 Mobile MQQBrowser/6.8 TBS/036849 Safari/537.36 MicroMessenger/6.3.27.880 NetType/WIFI Language/zh_CN'
p124
sg16
S'b98027314821f35382b99f2bd68a8ccf'
p125
sa(dp126
g2
S'37906'
p127
sg4
S'1941'
p128
sg6
S'54c0a3ebf3f5e3f60e07e6d3c93b54c7'
p129
sg8
S'xx15154fedf4472c566bb7c570f63e34c8'
p130
sg10
S'xxe4de87140e1bdb5e853a6fb37f537c00'
p131
sg12
S'xx469e29cb6df1002428466d824c825f5e'
p132
sg14
S'Mozilla/5.0 (Linux; Android 5.1.1; vivo X7Plus Build/LMY47V) AppleWebKit/537.36 (KHTML, like Gecko) Version/4.0 Chrome/37.0.0.0 Mobile MQQBrowser/6.8 TBS/036849 Safari/537.36 MicroMessenger/6.3.27.880 NetType/WIFI Language/zh_CN'
p133
sg16
S'b98027314821f35382b99f2bd68a8ccf'
p134
sa(dp135
g2
S'37906'
p136
sg4
S'1957'
p137
sg6
S'54c0a3ebf3f5e3f60e07e6d3c93b54c7'
p138
sg8
S'xx15154fedf4472c566bb7c570f63e34c8'
p139
sg10
S'xxe4de87140e1bdb5e853a6fb37f537c00'
p140
sg12
S'xx469e29cb6df1002428466d824c825f5e'
p141
sg14
S'Mozilla/5.0 (Linux; Android 5.1.1; vivo X7Plus Build/LMY47V) AppleWebKit/537.36 (KHTML, like Gecko) Version/4.0 Chrome/37.0.0.0 Mobile MQQBrowser/6.8 TBS/036849 Safari/537.36 MicroMessenger/6.3.27.880 NetType/WIFI Language/zh_CN'
p142
sg16
S'b98027314821f35382b99f2bd68a8ccf'
p143
sa(dp144
g2
S'37906'
p145
sg4
S'1965'
p146
sg6
S'54c0a3ebf3f5e3f60e07e6d3c93b54c7'
p147
sg8
S'xx15154fedf4472c566bb7c570f63e34c8'
p148
sg10
S'xxe4de87140e1bdb5e853a6fb37f537c00'
p149
sg12
S'xx469e29cb6df1002428466d824c825f5e'
p150
sg14
S'Mozilla/5.0 (Linux; Android 5.1.1; vivo X7Plus Build/LMY47V) AppleWebKit/537.36 (KHTML, like Gecko) Version/4.0 Chrome/37.0.0.0 Mobile MQQBrowser/6.8 TBS/036849 Safari/537.36 MicroMessenger/6.3.27.880 NetType/WIFI Language/zh_CN'
p151
sg16
S'b98027314821f35382b99f2bd68a8ccf'
p152
sa(dp153
g2
S'37906'
p154
sg4
S'1972'
p155
sg6
S'54c0a3ebf3f5e3f60e07e6d3c93b54c7'
p156
sg8
S'xx15154fedf4472c566bb7c570f63e34c8'
p157
sg10
S'xxe4de87140e1bdb5e853a6fb37f537c00'
p158
sg12
S'xx469e29cb6df1002428466d824c825f5e'
p159
sg14
S'Mozilla/5.0 (Linux; Android 5.1.1; vivo X7Plus Build/LMY47V) AppleWebKit/537.36 (KHTML, like Gecko) Version/4.0 Chrome/37.0.0.0 Mobile MQQBrowser/6.8 TBS/036849 Safari/537.36 MicroMessenger/6.3.27.880 NetType/WIFI Language/zh_CN'
p160
sg16
S'b98027314821f35382b99f2bd68a8ccf'
p161
sa(dp162
g2
S'37906'
p163
sg4
S'1982'
p164
sg6
S'54c0a3ebf3f5e3f60e07e6d3c93b54c7'
p165
sg8
S'xx15154fedf4472c566bb7c570f63e34c8'
p166
sg10
S'xxe4de87140e1bdb5e853a6fb37f537c00'
p167
sg12
S'xx469e29cb6df1002428466d824c825f5e'
p168
sg14
S'Mozilla/5.0 (Linux; Android 5.1.1; vivo X7Plus Build/LMY47V) AppleWebKit/537.36 (KHTML, like Gecko) Version/4.0 Chrome/37.0.0.0 Mobile MQQBrowser/6.8 TBS/036849 Safari/537.36 MicroMessenger/6.3.27.880 NetType/WIFI Language/zh_CN'
p169
sg16
S'b98027314821f35382b99f2bd68a8ccf'
p170
sa(dp171
g2
S'37906'
p172
sg4
S'1987'
p173
sg6
S'54c0a3ebf3f5e3f60e07e6d3c93b54c7'
p174
sg8
S'xx15154fedf4472c566bb7c570f63e34c8'
p175
sg10
S'xxe4de87140e1bdb5e853a6fb37f537c00'
p176
sg12
S'xx469e29cb6df1002428466d824c825f5e'
p177
sg14
S'Mozilla/5.0 (Linux; Android 5.1.1; vivo X7Plus Build/LMY47V) AppleWebKit/537.36 (KHTML, like Gecko) Version/4.0 Chrome/37.0.0.0 Mobile MQQBrowser/6.8 TBS/036849 Safari/537.36 MicroMessenger/6.3.27.880 NetType/WIFI Language/zh_CN'
p178
sg16
S'b98027314821f35382b99f2bd68a8ccf'
p179
sa(dp180
g2
S'37906'
p181
sg4
S'1997'
p182
sg6
S'54c0a3ebf3f5e3f60e07e6d3c93b54c7'
p183
sg8
S'xx15154fedf4472c566bb7c570f63e34c8'
p184
sg10
S'xxe4de87140e1bdb5e853a6fb37f537c00'
p185
sg12
S'xx469e29cb6df1002428466d824c825f5e'
p186
sg14
S'Mozilla/5.0 (Linux; Android 5.1.1; vivo X7Plus Build/LMY47V) AppleWebKit/537.36 (KHTML, like Gecko) Version/4.0 Chrome/37.0.0.0 Mobile MQQBrowser/6.8 TBS/036849 Safari/537.36 MicroMessenger/6.3.27.880 NetType/WIFI Language/zh_CN'
p187
sg16
S'b98027314821f35382b99f2bd68a8ccf'
p188
sa(dp189
g2
S'37906'
p190
sg4
S'2007'
p191
sg6
S'54c0a3ebf3f5e3f60e07e6d3c93b54c7'
p192
sg8
S'xx15154fedf4472c566bb7c570f63e34c8'
p193
sg10
S'xxe4de87140e1bdb5e853a6fb37f537c00'
p194
sg12
S'xx469e29cb6df1002428466d824c825f5e'
p195
sg14
S'Mozilla/5.0 (Linux; Android 5.1.1; vivo X7Plus Build/LMY47V) AppleWebKit/537.36 (KHTML, like Gecko) Version/4.0 Chrome/37.0.0.0 Mobile MQQBrowser/6.8 TBS/036849 Safari/537.36 MicroMessenger/6.3.27.880 NetType/WIFI Language/zh_CN'
p196
sg16
S'b98027314821f35382b99f2bd68a8ccf'
p197
sa(dp198
g2
S'37906'
p199
sg4
S'2025'
p200
sg6
S'54c0a3ebf3f5e3f60e07e6d3c93b54c7'
p201
sg8
S'xx15154fedf4472c566bb7c570f63e34c8'
p202
sg10
S'xxe4de87140e1bdb5e853a6fb37f537c00'
p203
sg12
S'xx469e29cb6df1002428466d824c825f5e'
p204
sg14
S'Mozilla/5.0 (Linux; Android 5.1.1; vivo X7Plus Build/LMY47V) AppleWebKit/537.36 (KHTML, like Gecko) Version/4.0 Chrome/37.0.0.0 Mobile MQQBrowser/6.8 TBS/036849 Safari/537.36 MicroMessenger/6.3.27.880 NetType/WIFI Language/zh_CN'
p205
sg16
S'b98027314821f35382b99f2bd68a8ccf'
p206
sa(dp207
g2
S'37906'
p208
sg4
S'2328'
p209
sg6
S'54c0a3ebf3f5e3f60e07e6d3c93b54c7'
p210
sg8
S'xx15154fedf4472c566bb7c570f63e34c8'
p211
sg10
S'xxe4de87140e1bdb5e853a6fb37f537c00'
p212
sg12
S'xx469e29cb6df1002428466d824c825f5e'
p213
sg14
S'Mozilla/5.0 (Linux; Android 5.1.1; vivo X7Plus Build/LMY47V) AppleWebKit/537.36 (KHTML, like Gecko) Version/4.0 Chrome/37.0.0.0 Mobile MQQBrowser/6.8 TBS/036849 Safari/537.36 MicroMessenger/6.3.27.880 NetType/WIFI Language/zh_CN'
p214
sg16
S'b98027314821f35382b99f2bd68a8ccf'
p215
sa(dp216
g2
S'37906'
p217
sg4
S'2341'
p218
sg6
S'54c0a3ebf3f5e3f60e07e6d3c93b54c7'
p219
sg8
S'xx15154fedf4472c566bb7c570f63e34c8'
p220
sg10
S'xxe4de87140e1bdb5e853a6fb37f537c00'
p221
sg12
S'xx469e29cb6df1002428466d824c825f5e'
p222
sg14
S'Mozilla/5.0 (Linux; Android 5.1.1; vivo X7Plus Build/LMY47V) AppleWebKit/537.36 (KHTML, like Gecko) Version/4.0 Chrome/37.0.0.0 Mobile MQQBrowser/6.8 TBS/036849 Safari/537.36 MicroMessenger/6.3.27.880 NetType/WIFI Language/zh_CN'
p223
sg16
S'b98027314821f35382b99f2bd68a8ccf'
p224
sa(dp225
g2
S'37906'
p226
sg4
S'2356'
p227
sg6
S'54c0a3ebf3f5e3f60e07e6d3c93b54c7'
p228
sg8
S'xx15154fedf4472c566bb7c570f63e34c8'
p229
sg10
S'xxe4de87140e1bdb5e853a6fb37f537c00'
p230
sg12
S'xx469e29cb6df1002428466d824c825f5e'
p231
sg14
S'Mozilla/5.0 (Linux; Android 5.1.1; vivo X7Plus Build/LMY47V) AppleWebKit/537.36 (KHTML, like Gecko) Version/4.0 Chrome/37.0.0.0 Mobile MQQBrowser/6.8 TBS/036849 Safari/537.36 MicroMessenger/6.3.27.880 NetType/WIFI Language/zh_CN'
p232
sg16
S'b98027314821f35382b99f2bd68a8ccf'
p233
sa(dp234
g2
S'37906'
p235
sg4
S'2378'
p236
sg6
S'54c0a3ebf3f5e3f60e07e6d3c93b54c7'
p237
sg8
S'xx15154fedf4472c566bb7c570f63e34c8'
p238
sg10
S'xxe4de87140e1bdb5e853a6fb37f537c00'
p239
sg12
S'xx469e29cb6df1002428466d824c825f5e'
p240
sg14
S'Mozilla/5.0 (Linux; Android 5.1.1; vivo X7Plus Build/LMY47V) AppleWebKit/537.36 (KHTML, like Gecko) Version/4.0 Chrome/37.0.0.0 Mobile MQQBrowser/6.8 TBS/036849 Safari/537.36 MicroMessenger/6.3.27.880 NetType/WIFI Language/zh_CN'
p241
sg16
S'b98027314821f35382b99f2bd68a8ccf'
p242
sa(dp243
g2
S'4563'
p244
sg4
S'3117'
p245
sg6
S'6dbdd589264149cc9a5522c5ca5eaa39'
p246
sg8
S'xx19452eaa5d05dd0c0bde9b51550fdda7'
p247
sg10
S'xxdaac1a2a72e947c418e3a77eab0fe51e'
p248
sg12
S'xx469e29cb6df1002428466d824c825f5e'
p249
sg14
S'Mozilla/5.0 (Linux; Android 5.1.1; vivo X7Plus Build/LMY47V) AppleWebKit/537.36 (KHTML, like Gecko) Version/4.0 Chrome/37.0.0.0 Mobile MQQBrowser/6.8 TBS/036824 Safari/537.36 MicroMessenger/6.3.25.861 NetType/WIFI Language/zh_CN'
p250
sg16
S'd760786176a4f211cbda21fae6cc441a'
p251
sa(dp252
g2
S'4563'
p253
sg4
S'3135'
p254
sg6
S'6dbdd589264149cc9a5522c5ca5eaa39'
p255
sg8
S'xx19452eaa5d05dd0c0bde9b51550fdda7'
p256
sg10
S'xxdaac1a2a72e947c418e3a77eab0fe51e'
p257
sg12
S'xx469e29cb6df1002428466d824c825f5e'
p258
sg14
S'Mozilla/5.0 (Linux; Android 5.1.1; vivo X7Plus Build/LMY47V) AppleWebKit/537.36 (KHTML, like Gecko) Version/4.0 Chrome/37.0.0.0 Mobile MQQBrowser/6.8 TBS/036824 Safari/537.36 MicroMessenger/6.3.25.861 NetType/WIFI Language/zh_CN'
p259
sg16
S'd760786176a4f211cbda21fae6cc441a'
p260
sa(dp261
g2
S'49780'
p262
sg4
S'4210'
p263
sg6
S'270d2ee1e228808452196bb4f613b6da'
p264
sg8
S'xx8642d92a65cca3b77e77e01662978ae0'
p265
sg10
S'xxdaac1a2a72e947c418e3a77eab0fe51e'
p266
sg12
S'xx469e29cb6df1002428466d824c825f5e'
p267
sg14
S'Mozilla/5.0 (Linux; Android 5.1.1; vivo X7Plus Build/LMY47V) AppleWebKit/537.36 (KHTML, like Gecko) Version/4.0 Chrome/37.0.0.0 Mobile MQQBrowser/6.8 TBS/036865 Safari/537.36 MicroMessenger/6.3.27.880 NetType/cmnet Language/zh_CN'
p268
sg16
S'5425e493c9a42931824387c63aa1e442'
p269
sa(dp270
g2
S'49780'
p271
sg4
S'4228'
p272
sg6
S'270d2ee1e228808452196bb4f613b6da'
p273
sg8
S'xx8642d92a65cca3b77e77e01662978ae0'
p274
sg10
S'xxdaac1a2a72e947c418e3a77eab0fe51e'
p275
sg12
S'xx469e29cb6df1002428466d824c825f5e'
p276
sg14
S'Mozilla/5.0 (Linux; Android 5.1.1; vivo X7Plus Build/LMY47V) AppleWebKit/537.36 (KHTML, like Gecko) Version/4.0 Chrome/37.0.0.0 Mobile MQQBrowser/6.8 TBS/036865 Safari/537.36 MicroMessenger/6.3.27.880 NetType/cmnet Language/zh_CN'
p277
sg16
S'5425e493c9a42931824387c63aa1e442'
p278
sa(dp279
g2
S'49859'
p280
sg4
S'8823'
p281
sg6
S'c0c7a0d7ae70a530a6b6d719e633c264'
p282
sg8
S'xx4245d4a3f5c95aeca39b70b61547944a'
p283
sg10
S'xxbbad53e94e04a2cb9e2e78c4965605da'
p284
sg12
S'xx469e29cb6df1002428466d824c825f5e'
p285
sg14
S'Mozilla/5.0 (Linux; Android 5.1.1; vivo X7Plus Build/LMY47V) AppleWebKit/537.36 (KHTML, like Gecko) Version/4.0 Chrome/39.0.0.0 Mobile Safari/537.36 MicroMessenger/6.3.27.880 NetType/WIFI Language/zh_CN'
p286
sg16
S'f56a10de70154e605c42644919e4dbc8'
p287
sa(dp288
g2
S'49859'
p289
sg4
S'8835'
p290
sg6
S'c0c7a0d7ae70a530a6b6d719e633c264'
p291
sg8
S'xx4245d4a3f5c95aeca39b70b61547944a'
p292
sg10
S'xxbbad53e94e04a2cb9e2e78c4965605da'
p293
sg12
S'xx469e29cb6df1002428466d824c825f5e'
p294
sg14
S'Mozilla/5.0 (Linux; Android 5.1.1; vivo X7Plus Build/LMY47V) AppleWebKit/537.36 (KHTML, like Gecko) Version/4.0 Chrome/39.0.0.0 Mobile Safari/537.36 MicroMessenger/6.3.27.880 NetType/WIFI Language/zh_CN'
p295
sg16
S'f56a10de70154e605c42644919e4dbc8'
p296
sa.