(lp0
(dp1
S'user_id'
p2
S'35133'
p3
sS'data_id'
p4
S'709'
p5
sS'ip'
p6
S'fb80d29c6d18cc5f77e9dcd695d8d071'
p7
sS'phone_B'
p8
S'xxd94fd80bc93f854203bfcbe37c1a1d4d'
p9
sS'phone_C'
p10
S'xx6548b978a42104c4dd9bd5ee449cc85e'
p11
sS'phone_A'
p12
S'xx4810a14647a22c6b269f1b0b2e34314a'
p13
sS'user_agent'
p14
S'Mozilla/5.0 (Linux; Android 4.4.4; CM810 Build/KTU84P) AppleWebKit/537.36 (KHTML, like Gecko) Version/4.0 Chrome/37.0.0.0 Mobile MQQBrowser/6.8 TBS/036824 Safari/537.36 MicroMessenger/6.3.25.861 NetType/cmnet Language/zh_CN'
p15
sS'ua'
p16
S'4ca34de21563132e7f5fbd1f26b078c5'
p17
sa(dp18
g2
S'35133'
p19
sg4
S'724'
p20
sg6
S'fb80d29c6d18cc5f77e9dcd695d8d071'
p21
sg8
S'xxd94fd80bc93f854203bfcbe37c1a1d4d'
p22
sg10
S'xx6548b978a42104c4dd9bd5ee449cc85e'
p23
sg12
S'xx4810a14647a22c6b269f1b0b2e34314a'
p24
sg14
S'Mozilla/5.0 (Linux; Android 4.4.4; CM810 Build/KTU84P) AppleWebKit/537.36 (KHTML, like Gecko) Version/4.0 Chrome/37.0.0.0 Mobile MQQBrowser/6.8 TBS/036824 Safari/537.36 MicroMessenger/6.3.25.861 NetType/cmnet Language/zh_CN'
p25
sg16
S'4ca34de21563132e7f5fbd1f26b078c5'
p26
sa(dp27
g2
S'35133'
p28
sg4
S'734'
p29
sg6
S'fb80d29c6d18cc5f77e9dcd695d8d071'
p30
sg8
S'xxd94fd80bc93f854203bfcbe37c1a1d4d'
p31
sg10
S'xx6548b978a42104c4dd9bd5ee449cc85e'
p32
sg12
S'xx4810a14647a22c6b269f1b0b2e34314a'
p33
sg14
S'Mozilla/5.0 (Linux; Android 4.4.4; CM810 Build/KTU84P) AppleWebKit/537.36 (KHTML, like Gecko) Version/4.0 Chrome/37.0.0.0 Mobile MQQBrowser/6.8 TBS/036824 Safari/537.36 MicroMessenger/6.3.25.861 NetType/cmnet Language/zh_CN'
p34
sg16
S'4ca34de21563132e7f5fbd1f26b078c5'
p35
sa(dp36
g2
S'35133'
p37
sg4
S'6178'
p38
sg6
S'fb80d29c6d18cc5f77e9dcd695d8d071'
p39
sg8
S'xxd94fd80bc93f854203bfcbe37c1a1d4d'
p40
sg10
S'xx6548b978a42104c4dd9bd5ee449cc85e'
p41
sg12
S'xx4810a14647a22c6b269f1b0b2e34314a'
p42
sg14
S'Mozilla/5.0 (Linux; Android 4.4.4; CM810 Build/KTU84P) AppleWebKit/537.36 (KHTML, like Gecko) Version/4.0 Chrome/37.0.0.0 Mobile MQQBrowser/6.8 TBS/036824 Safari/537.36 MicroMessenger/6.3.25.861 NetType/cmnet Language/zh_CN'
p43
sg16
S'4ca34de21563132e7f5fbd1f26b078c5'
p44
sa(dp45
g2
S'35133'
p46
sg4
S'6194'
p47
sg6
S'fb80d29c6d18cc5f77e9dcd695d8d071'
p48
sg8
S'xxd94fd80bc93f854203bfcbe37c1a1d4d'
p49
sg10
S'xx6548b978a42104c4dd9bd5ee449cc85e'
p50
sg12
S'xx4810a14647a22c6b269f1b0b2e34314a'
p51
sg14
S'Mozilla/5.0 (Linux; Android 4.4.4; CM810 Build/KTU84P) AppleWebKit/537.36 (KHTML, like Gecko) Version/4.0 Chrome/37.0.0.0 Mobile MQQBrowser/6.8 TBS/036824 Safari/537.36 MicroMessenger/6.3.25.861 NetType/cmnet Language/zh_CN'
p52
sg16
S'4ca34de21563132e7f5fbd1f26b078c5'
p53
sa(dp54
g2
S'35133'
p55
sg4
S'7768'
p56
sg6
S'fb80d29c6d18cc5f77e9dcd695d8d071'
p57
sg8
S'xxd94fd80bc93f854203bfcbe37c1a1d4d'
p58
sg10
S'xx6548b978a42104c4dd9bd5ee449cc85e'
p59
sg12
S'xx4810a14647a22c6b269f1b0b2e34314a'
p60
sg14
S'Mozilla/5.0 (Linux; Android 4.4.4; CM810 Build/KTU84P) AppleWebKit/537.36 (KHTML, like Gecko) Version/4.0 Chrome/37.0.0.0 Mobile MQQBrowser/6.8 TBS/036824 Safari/537.36 MicroMessenger/6.3.25.861 NetType/cmnet Language/zh_CN'
p61
sg16
S'4ca34de21563132e7f5fbd1f26b078c5'
p62
sa(dp63
g2
S'35133'
p64
sg4
S'7780'
p65
sg6
S'fb80d29c6d18cc5f77e9dcd695d8d071'
p66
sg8
S'xxd94fd80bc93f854203bfcbe37c1a1d4d'
p67
sg10
S'xx6548b978a42104c4dd9bd5ee449cc85e'
p68
sg12
S'xx4810a14647a22c6b269f1b0b2e34314a'
p69
sg14
S'Mozilla/5.0 (Linux; Android 4.4.4; CM810 Build/KTU84P) AppleWebKit/537.36 (KHTML, like Gecko) Version/4.0 Chrome/37.0.0.0 Mobile MQQBrowser/6.8 TBS/036824 Safari/537.36 MicroMessenger/6.3.25.861 NetType/cmnet Language/zh_CN'
p70
sg16
S'4ca34de21563132e7f5fbd1f26b078c5'
p71
sa(dp72
g2
S'35133'
p73
sg4
S'7792'
p74
sg6
S'fb80d29c6d18cc5f77e9dcd695d8d071'
p75
sg8
S'xxd94fd80bc93f854203bfcbe37c1a1d4d'
p76
sg10
S'xx6548b978a42104c4dd9bd5ee449cc85e'
p77
sg12
S'xx4810a14647a22c6b269f1b0b2e34314a'
p78
sg14
S'Mozilla/5.0 (Linux; Android 4.4.4; CM810 Build/KTU84P) AppleWebKit/537.36 (KHTML, like Gecko) Version/4.0 Chrome/37.0.0.0 Mobile MQQBrowser/6.8 TBS/036824 Safari/537.36 MicroMessenger/6.3.25.861 NetType/cmnet Language/zh_CN'
p79
sg16
S'4ca34de21563132e7f5fbd1f26b078c5'
p80
sa(dp81
g2
S'35133'
p82
sg4
S'8813'
p83
sg6
S'fb80d29c6d18cc5f77e9dcd695d8d071'
p84
sg8
S'xxd94fd80bc93f854203bfcbe37c1a1d4d'
p85
sg10
S'xx6548b978a42104c4dd9bd5ee449cc85e'
p86
sg12
S'xx4810a14647a22c6b269f1b0b2e34314a'
p87
sg14
S'Mozilla/5.0 (Linux; Android 4.4.4; CM810 Build/KTU84P) AppleWebKit/537.36 (KHTML, like Gecko) Version/4.0 Chrome/37.0.0.0 Mobile MQQBrowser/6.8 TBS/036824 Safari/537.36 MicroMessenger/6.3.25.861 NetType/cmnet Language/zh_CN'
p88
sg16
S'4ca34de21563132e7f5fbd1f26b078c5'
p89
sa(dp90
g2
S'35133'
p91
sg4
S'8821'
p92
sg6
S'fb80d29c6d18cc5f77e9dcd695d8d071'
p93
sg8
S'xxd94fd80bc93f854203bfcbe37c1a1d4d'
p94
sg10
S'xx6548b978a42104c4dd9bd5ee449cc85e'
p95
sg12
S'xx4810a14647a22c6b269f1b0b2e34314a'
p96
sg14
S'Mozilla/5.0 (Linux; Android 4.4.4; CM810 Build/KTU84P) AppleWebKit/537.36 (KHTML, like Gecko) Version/4.0 Chrome/37.0.0.0 Mobile MQQBrowser/6.8 TBS/036824 Safari/537.36 MicroMessenger/6.3.25.861 NetType/cmnet Language/zh_CN'
p97
sg16
S'4ca34de21563132e7f5fbd1f26b078c5'
p98
sa(dp99
g2
S'35133'
p100
sg4
S'8834'
p101
sg6
S'fb80d29c6d18cc5f77e9dcd695d8d071'
p102
sg8
S'xxd94fd80bc93f854203bfcbe37c1a1d4d'
p103
sg10
S'xx6548b978a42104c4dd9bd5ee449cc85e'
p104
sg12
S'xx4810a14647a22c6b269f1b0b2e34314a'
p105
sg14
S'Mozilla/5.0 (Linux; Android 4.4.4; CM810 Build/KTU84P) AppleWebKit/537.36 (KHTML, like Gecko) Version/4.0 Chrome/37.0.0.0 Mobile MQQBrowser/6.8 TBS/036824 Safari/537.36 MicroMessenger/6.3.25.861 NetType/cmnet Language/zh_CN'
p106
sg16
S'4ca34de21563132e7f5fbd1f26b078c5'
p107
sa.