(lp0
(dp1
S'user_id'
p2
S'40036'
p3
sS'data_id'
p4
S'1890'
p5
sS'ip'
p6
S'37ec7b91655b3c964292df15710fad2a'
p7
sS'phone_B'
p8
S'xxb30ea4d8e684226aea874d95c5d9cc54'
p9
sS'phone_C'
p10
S'xx873a7a3df4823db742b72532905bfa34'
p11
sS'phone_A'
p12
S'xx48d7bc10323ae92503153aa430b355d9'
p13
sS'user_agent'
p14
S'Mozilla/5.0 (Linux; Android 4.4.2; 2013023 Build/HM2013023) AppleWebKit/537.36 (KHTML, like Gecko) Version/4.0 Chrome/37.0.0.0 Mobile MQQBrowser/6.8 TBS/036849 Safari/537.36 MicroMessenger/6.3.27.880 NetType/WIFI Language/zh_CN'
p15
sS'ua'
p16
S'81c578a1dbc4c2d251e36d6b72ae4e73'
p17
sa(dp18
g2
S'40036'
p19
sg4
S'1904'
p20
sg6
S'37ec7b91655b3c964292df15710fad2a'
p21
sg8
S'xxb30ea4d8e684226aea874d95c5d9cc54'
p22
sg10
S'xx873a7a3df4823db742b72532905bfa34'
p23
sg12
S'xx48d7bc10323ae92503153aa430b355d9'
p24
sg14
S'Mozilla/5.0 (Linux; Android 4.4.2; 2013023 Build/HM2013023) AppleWebKit/537.36 (KHTML, like Gecko) Version/4.0 Chrome/37.0.0.0 Mobile MQQBrowser/6.8 TBS/036849 Safari/537.36 MicroMessenger/6.3.27.880 NetType/WIFI Language/zh_CN'
p25
sg16
S'81c578a1dbc4c2d251e36d6b72ae4e73'
p26
sa(dp27
g2
S'25201'
p28
sg4
S'5926'
p29
sg6
S'b1348b829d79248da6ef34ff6293c1dc'
p30
sg8
S'xxa5327d6d9eb27749361c51ec02b5a262'
p31
sg10
S'xx9ae35e62a9c1d9d93f8d0f5a01dd6f48'
p32
sg12
S'xx48d7bc10323ae92503153aa430b355d9'
p33
sg14
S'Mozilla/5.0 (Linux; Android 4.4.2; 2013023 Build/HM2013023) AppleWebKit/537.36 (KHTML, like Gecko) Version/4.0 Chrome/37.0.0.0 Mobile MQQBrowser/6.2 TBS/036557 Safari/537.36 MicroMessenger/6.3.25.861 NetType/WIFI Language/zh_CN'
p34
sg16
S'94b529bd3ec95f75f972a299b96b58c1'
p35
sa(dp36
g2
S'25201'
p37
sg4
S'5944'
p38
sg6
S'b1348b829d79248da6ef34ff6293c1dc'
p39
sg8
S'xxa5327d6d9eb27749361c51ec02b5a262'
p40
sg10
S'xx9ae35e62a9c1d9d93f8d0f5a01dd6f48'
p41
sg12
S'xx48d7bc10323ae92503153aa430b355d9'
p42
sg14
S'Mozilla/5.0 (Linux; Android 4.4.2; 2013023 Build/HM2013023) AppleWebKit/537.36 (KHTML, like Gecko) Version/4.0 Chrome/37.0.0.0 Mobile MQQBrowser/6.2 TBS/036557 Safari/537.36 MicroMessenger/6.3.25.861 NetType/WIFI Language/zh_CN'
p43
sg16
S'94b529bd3ec95f75f972a299b96b58c1'
p44
sa(dp45
g2
S'25201'
p46
sg4
S'6130'
p47
sg6
S'b1348b829d79248da6ef34ff6293c1dc'
p48
sg8
S'xxa5327d6d9eb27749361c51ec02b5a262'
p49
sg10
S'xx9ae35e62a9c1d9d93f8d0f5a01dd6f48'
p50
sg12
S'xx48d7bc10323ae92503153aa430b355d9'
p51
sg14
S'Mozilla/5.0 (Linux; Android 4.4.2; 2013023 Build/HM2013023) AppleWebKit/537.36 (KHTML, like Gecko) Version/4.0 Chrome/37.0.0.0 Mobile MQQBrowser/6.2 TBS/036557 Safari/537.36 MicroMessenger/6.3.25.861 NetType/WIFI Language/zh_CN'
p52
sg16
S'94b529bd3ec95f75f972a299b96b58c1'
p53
sa(dp54
g2
S'25201'
p55
sg4
S'6144'
p56
sg6
S'b1348b829d79248da6ef34ff6293c1dc'
p57
sg8
S'xxa5327d6d9eb27749361c51ec02b5a262'
p58
sg10
S'xx9ae35e62a9c1d9d93f8d0f5a01dd6f48'
p59
sg12
S'xx48d7bc10323ae92503153aa430b355d9'
p60
sg14
S'Mozilla/5.0 (Linux; Android 4.4.2; 2013023 Build/HM2013023) AppleWebKit/537.36 (KHTML, like Gecko) Version/4.0 Chrome/37.0.0.0 Mobile MQQBrowser/6.2 TBS/036557 Safari/537.36 MicroMessenger/6.3.25.861 NetType/WIFI Language/zh_CN'
p61
sg16
S'94b529bd3ec95f75f972a299b96b58c1'
p62
sa(dp63
g2
S'25201'
p64
sg4
S'6517'
p65
sg6
S'b1348b829d79248da6ef34ff6293c1dc'
p66
sg8
S'xx5c542a1826a3fefff4e24992f84ec199'
p67
sg10
S'xx2781381632920d9f8101ee5bf1ebc92e'
p68
sg12
S'xx48d7bc10323ae92503153aa430b355d9'
p69
sg14
S'Mozilla/5.0 (Linux; Android 4.4.2; 2013023 Build/HM2013023) AppleWebKit/537.36 (KHTML, like Gecko) Version/4.0 Chrome/37.0.0.0 Mobile MQQBrowser/6.2 TBS/036557 Safari/537.36 MicroMessenger/6.3.25.861 NetType/WIFI Language/zh_CN'
p70
sg16
S'94b529bd3ec95f75f972a299b96b58c1'
p71
sa(dp72
g2
S'25201'
p73
sg4
S'6537'
p74
sg6
S'b1348b829d79248da6ef34ff6293c1dc'
p75
sg8
S'xx5c542a1826a3fefff4e24992f84ec199'
p76
sg10
S'xx2781381632920d9f8101ee5bf1ebc92e'
p77
sg12
S'xx48d7bc10323ae92503153aa430b355d9'
p78
sg14
S'Mozilla/5.0 (Linux; Android 4.4.2; 2013023 Build/HM2013023) AppleWebKit/537.36 (KHTML, like Gecko) Version/4.0 Chrome/37.0.0.0 Mobile MQQBrowser/6.2 TBS/036557 Safari/537.36 MicroMessenger/6.3.25.861 NetType/WIFI Language/zh_CN'
p79
sg16
S'94b529bd3ec95f75f972a299b96b58c1'
p80
sa(dp81
g2
S'25201'
p82
sg4
S'6569'
p83
sg6
S'b1348b829d79248da6ef34ff6293c1dc'
p84
sg8
S'xxa5327d6d9eb27749361c51ec02b5a262'
p85
sg10
S'xx9ae35e62a9c1d9d93f8d0f5a01dd6f48'
p86
sg12
S'xx48d7bc10323ae92503153aa430b355d9'
p87
sg14
S'Mozilla/5.0 (Linux; Android 4.4.2; 2013023 Build/HM2013023) AppleWebKit/537.36 (KHTML, like Gecko) Version/4.0 Chrome/37.0.0.0 Mobile MQQBrowser/6.2 TBS/036557 Safari/537.36 MicroMessenger/6.3.25.861 NetType/WIFI Language/zh_CN'
p88
sg16
S'94b529bd3ec95f75f972a299b96b58c1'
p89
sa(dp90
g2
S'25201'
p91
sg4
S'6590'
p92
sg6
S'b1348b829d79248da6ef34ff6293c1dc'
p93
sg8
S'xxa5327d6d9eb27749361c51ec02b5a262'
p94
sg10
S'xx9ae35e62a9c1d9d93f8d0f5a01dd6f48'
p95
sg12
S'xx48d7bc10323ae92503153aa430b355d9'
p96
sg14
S'Mozilla/5.0 (Linux; Android 4.4.2; 2013023 Build/HM2013023) AppleWebKit/537.36 (KHTML, like Gecko) Version/4.0 Chrome/37.0.0.0 Mobile MQQBrowser/6.2 TBS/036557 Safari/537.36 MicroMessenger/6.3.25.861 NetType/WIFI Language/zh_CN'
p97
sg16
S'94b529bd3ec95f75f972a299b96b58c1'
p98
sa(dp99
g2
S'25201'
p100
sg4
S'6604'
p101
sg6
S'b1348b829d79248da6ef34ff6293c1dc'
p102
sg8
S'xxa5327d6d9eb27749361c51ec02b5a262'
p103
sg10
S'xx9ae35e62a9c1d9d93f8d0f5a01dd6f48'
p104
sg12
S'xx48d7bc10323ae92503153aa430b355d9'
p105
sg14
S'Mozilla/5.0 (Linux; Android 4.4.2; 2013023 Build/HM2013023) AppleWebKit/537.36 (KHTML, like Gecko) Version/4.0 Chrome/37.0.0.0 Mobile MQQBrowser/6.2 TBS/036557 Safari/537.36 MicroMessenger/6.3.25.861 NetType/WIFI Language/zh_CN'
p106
sg16
S'94b529bd3ec95f75f972a299b96b58c1'
p107
sa(dp108
g2
S'25201'
p109
sg4
S'6619'
p110
sg6
S'b1348b829d79248da6ef34ff6293c1dc'
p111
sg8
S'xxa5327d6d9eb27749361c51ec02b5a262'
p112
sg10
S'xx9ae35e62a9c1d9d93f8d0f5a01dd6f48'
p113
sg12
S'xx48d7bc10323ae92503153aa430b355d9'
p114
sg14
S'Mozilla/5.0 (Linux; Android 4.4.2; 2013023 Build/HM2013023) AppleWebKit/537.36 (KHTML, like Gecko) Version/4.0 Chrome/37.0.0.0 Mobile MQQBrowser/6.2 TBS/036557 Safari/537.36 MicroMessenger/6.3.25.861 NetType/WIFI Language/zh_CN'
p115
sg16
S'94b529bd3ec95f75f972a299b96b58c1'
p116
sa(dp117
g2
S'25201'
p118
sg4
S'6638'
p119
sg6
S'b1348b829d79248da6ef34ff6293c1dc'
p120
sg8
S'xxa5327d6d9eb27749361c51ec02b5a262'
p121
sg10
S'xx9ae35e62a9c1d9d93f8d0f5a01dd6f48'
p122
sg12
S'xx48d7bc10323ae92503153aa430b355d9'
p123
sg14
S'Mozilla/5.0 (Linux; Android 4.4.2; 2013023 Build/HM2013023) AppleWebKit/537.36 (KHTML, like Gecko) Version/4.0 Chrome/37.0.0.0 Mobile MQQBrowser/6.2 TBS/036557 Safari/537.36 MicroMessenger/6.3.25.861 NetType/WIFI Language/zh_CN'
p124
sg16
S'94b529bd3ec95f75f972a299b96b58c1'
p125
sa(dp126
g2
S'25201'
p127
sg4
S'6660'
p128
sg6
S'b1348b829d79248da6ef34ff6293c1dc'
p129
sg8
S'xxa5327d6d9eb27749361c51ec02b5a262'
p130
sg10
S'xx9ae35e62a9c1d9d93f8d0f5a01dd6f48'
p131
sg12
S'xx48d7bc10323ae92503153aa430b355d9'
p132
sg14
S'Mozilla/5.0 (Linux; Android 4.4.2; 2013023 Build/HM2013023) AppleWebKit/537.36 (KHTML, like Gecko) Version/4.0 Chrome/37.0.0.0 Mobile MQQBrowser/6.2 TBS/036557 Safari/537.36 MicroMessenger/6.3.25.861 NetType/WIFI Language/zh_CN'
p133
sg16
S'94b529bd3ec95f75f972a299b96b58c1'
p134
sa(dp135
g2
S'25201'
p136
sg4
S'6682'
p137
sg6
S'b1348b829d79248da6ef34ff6293c1dc'
p138
sg8
S'xxa5327d6d9eb27749361c51ec02b5a262'
p139
sg10
S'xx9ae35e62a9c1d9d93f8d0f5a01dd6f48'
p140
sg12
S'xx48d7bc10323ae92503153aa430b355d9'
p141
sg14
S'Mozilla/5.0 (Linux; Android 4.4.2; 2013023 Build/HM2013023) AppleWebKit/537.36 (KHTML, like Gecko) Version/4.0 Chrome/37.0.0.0 Mobile MQQBrowser/6.2 TBS/036557 Safari/537.36 MicroMessenger/6.3.25.861 NetType/WIFI Language/zh_CN'
p142
sg16
S'94b529bd3ec95f75f972a299b96b58c1'
p143
sa(dp144
g2
S'25201'
p145
sg4
S'7143'
p146
sg6
S'b1348b829d79248da6ef34ff6293c1dc'
p147
sg8
S'xx5c542a1826a3fefff4e24992f84ec199'
p148
sg10
S'xx2781381632920d9f8101ee5bf1ebc92e'
p149
sg12
S'xx48d7bc10323ae92503153aa430b355d9'
p150
sg14
S'Mozilla/5.0 (Linux; Android 4.4.2; 2013023 Build/HM2013023) AppleWebKit/537.36 (KHTML, like Gecko) Version/4.0 Chrome/37.0.0.0 Mobile MQQBrowser/6.2 TBS/036557 Safari/537.36 MicroMessenger/6.3.25.861 NetType/WIFI Language/zh_CN'
p151
sg16
S'94b529bd3ec95f75f972a299b96b58c1'
p152
sa(dp153
g2
S'25201'
p154
sg4
S'7161'
p155
sg6
S'b1348b829d79248da6ef34ff6293c1dc'
p156
sg8
S'xx5c542a1826a3fefff4e24992f84ec199'
p157
sg10
S'xx2781381632920d9f8101ee5bf1ebc92e'
p158
sg12
S'xx48d7bc10323ae92503153aa430b355d9'
p159
sg14
S'Mozilla/5.0 (Linux; Android 4.4.2; 2013023 Build/HM2013023) AppleWebKit/537.36 (KHTML, like Gecko) Version/4.0 Chrome/37.0.0.0 Mobile MQQBrowser/6.2 TBS/036557 Safari/537.36 MicroMessenger/6.3.25.861 NetType/WIFI Language/zh_CN'
p160
sg16
S'94b529bd3ec95f75f972a299b96b58c1'
p161
sa(dp162
g2
S'25201'
p163
sg4
S'7178'
p164
sg6
S'b1348b829d79248da6ef34ff6293c1dc'
p165
sg8
S'xxa5327d6d9eb27749361c51ec02b5a262'
p166
sg10
S'xx9ae35e62a9c1d9d93f8d0f5a01dd6f48'
p167
sg12
S'xx48d7bc10323ae92503153aa430b355d9'
p168
sg14
S'Mozilla/5.0 (Linux; Android 4.4.2; 2013023 Build/HM2013023) AppleWebKit/537.36 (KHTML, like Gecko) Version/4.0 Chrome/37.0.0.0 Mobile MQQBrowser/6.2 TBS/036557 Safari/537.36 MicroMessenger/6.3.25.861 NetType/WIFI Language/zh_CN'
p169
sg16
S'94b529bd3ec95f75f972a299b96b58c1'
p170
sa(dp171
g2
S'25201'
p172
sg4
S'7192'
p173
sg6
S'b1348b829d79248da6ef34ff6293c1dc'
p174
sg8
S'xxa5327d6d9eb27749361c51ec02b5a262'
p175
sg10
S'xx9ae35e62a9c1d9d93f8d0f5a01dd6f48'
p176
sg12
S'xx48d7bc10323ae92503153aa430b355d9'
p177
sg14
S'Mozilla/5.0 (Linux; Android 4.4.2; 2013023 Build/HM2013023) AppleWebKit/537.36 (KHTML, like Gecko) Version/4.0 Chrome/37.0.0.0 Mobile MQQBrowser/6.2 TBS/036557 Safari/537.36 MicroMessenger/6.3.25.861 NetType/WIFI Language/zh_CN'
p178
sg16
S'94b529bd3ec95f75f972a299b96b58c1'
p179
sa(dp180
g2
S'25201'
p181
sg4
S'7209'
p182
sg6
S'b1348b829d79248da6ef34ff6293c1dc'
p183
sg8
S'xxa5327d6d9eb27749361c51ec02b5a262'
p184
sg10
S'xx9ae35e62a9c1d9d93f8d0f5a01dd6f48'
p185
sg12
S'xx48d7bc10323ae92503153aa430b355d9'
p186
sg14
S'Mozilla/5.0 (Linux; Android 4.4.2; 2013023 Build/HM2013023) AppleWebKit/537.36 (KHTML, like Gecko) Version/4.0 Chrome/37.0.0.0 Mobile MQQBrowser/6.2 TBS/036557 Safari/537.36 MicroMessenger/6.3.25.861 NetType/WIFI Language/zh_CN'
p187
sg16
S'94b529bd3ec95f75f972a299b96b58c1'
p188
sa(dp189
g2
S'25201'
p190
sg4
S'7221'
p191
sg6
S'b1348b829d79248da6ef34ff6293c1dc'
p192
sg8
S'xxa5327d6d9eb27749361c51ec02b5a262'
p193
sg10
S'xx9ae35e62a9c1d9d93f8d0f5a01dd6f48'
p194
sg12
S'xx48d7bc10323ae92503153aa430b355d9'
p195
sg14
S'Mozilla/5.0 (Linux; Android 4.4.2; 2013023 Build/HM2013023) AppleWebKit/537.36 (KHTML, like Gecko) Version/4.0 Chrome/37.0.0.0 Mobile MQQBrowser/6.2 TBS/036557 Safari/537.36 MicroMessenger/6.3.25.861 NetType/WIFI Language/zh_CN'
p196
sg16
S'94b529bd3ec95f75f972a299b96b58c1'
p197
sa(dp198
g2
S'25201'
p199
sg4
S'7232'
p200
sg6
S'b1348b829d79248da6ef34ff6293c1dc'
p201
sg8
S'xxa5327d6d9eb27749361c51ec02b5a262'
p202
sg10
S'xx9ae35e62a9c1d9d93f8d0f5a01dd6f48'
p203
sg12
S'xx48d7bc10323ae92503153aa430b355d9'
p204
sg14
S'Mozilla/5.0 (Linux; Android 4.4.2; 2013023 Build/HM2013023) AppleWebKit/537.36 (KHTML, like Gecko) Version/4.0 Chrome/37.0.0.0 Mobile MQQBrowser/6.2 TBS/036557 Safari/537.36 MicroMessenger/6.3.25.861 NetType/WIFI Language/zh_CN'
p205
sg16
S'94b529bd3ec95f75f972a299b96b58c1'
p206
sa(dp207
g2
S'25201'
p208
sg4
S'7246'
p209
sg6
S'b1348b829d79248da6ef34ff6293c1dc'
p210
sg8
S'xxa5327d6d9eb27749361c51ec02b5a262'
p211
sg10
S'xx9ae35e62a9c1d9d93f8d0f5a01dd6f48'
p212
sg12
S'xx48d7bc10323ae92503153aa430b355d9'
p213
sg14
S'Mozilla/5.0 (Linux; Android 4.4.2; 2013023 Build/HM2013023) AppleWebKit/537.36 (KHTML, like Gecko) Version/4.0 Chrome/37.0.0.0 Mobile MQQBrowser/6.2 TBS/036557 Safari/537.36 MicroMessenger/6.3.25.861 NetType/WIFI Language/zh_CN'
p214
sg16
S'94b529bd3ec95f75f972a299b96b58c1'
p215
sa(dp216
g2
S'25201'
p217
sg4
S'7262'
p218
sg6
S'b1348b829d79248da6ef34ff6293c1dc'
p219
sg8
S'xxa5327d6d9eb27749361c51ec02b5a262'
p220
sg10
S'xx9ae35e62a9c1d9d93f8d0f5a01dd6f48'
p221
sg12
S'xx48d7bc10323ae92503153aa430b355d9'
p222
sg14
S'Mozilla/5.0 (Linux; Android 4.4.2; 2013023 Build/HM2013023) AppleWebKit/537.36 (KHTML, like Gecko) Version/4.0 Chrome/37.0.0.0 Mobile MQQBrowser/6.2 TBS/036557 Safari/537.36 MicroMessenger/6.3.25.861 NetType/WIFI Language/zh_CN'
p223
sg16
S'94b529bd3ec95f75f972a299b96b58c1'
p224
sa(dp225
g2
S'25201'
p226
sg4
S'7279'
p227
sg6
S'b1348b829d79248da6ef34ff6293c1dc'
p228
sg8
S'xxa5327d6d9eb27749361c51ec02b5a262'
p229
sg10
S'xx9ae35e62a9c1d9d93f8d0f5a01dd6f48'
p230
sg12
S'xx48d7bc10323ae92503153aa430b355d9'
p231
sg14
S'Mozilla/5.0 (Linux; Android 4.4.2; 2013023 Build/HM2013023) AppleWebKit/537.36 (KHTML, like Gecko) Version/4.0 Chrome/37.0.0.0 Mobile MQQBrowser/6.2 TBS/036557 Safari/537.36 MicroMessenger/6.3.25.861 NetType/WIFI Language/zh_CN'
p232
sg16
S'94b529bd3ec95f75f972a299b96b58c1'
p233
sa(dp234
g2
S'25201'
p235
sg4
S'7659'
p236
sg6
S'b1348b829d79248da6ef34ff6293c1dc'
p237
sg8
S'xx5c542a1826a3fefff4e24992f84ec199'
p238
sg10
S'xx2781381632920d9f8101ee5bf1ebc92e'
p239
sg12
S'xx48d7bc10323ae92503153aa430b355d9'
p240
sg14
S'Mozilla/5.0 (Linux; Android 4.4.2; 2013023 Build/HM2013023) AppleWebKit/537.36 (KHTML, like Gecko) Version/4.0 Chrome/37.0.0.0 Mobile MQQBrowser/6.2 TBS/036557 Safari/537.36 MicroMessenger/6.3.25.861 NetType/WIFI Language/zh_CN'
p241
sg16
S'94b529bd3ec95f75f972a299b96b58c1'
p242
sa(dp243
g2
S'25201'
p244
sg4
S'7672'
p245
sg6
S'b1348b829d79248da6ef34ff6293c1dc'
p246
sg8
S'xx5c542a1826a3fefff4e24992f84ec199'
p247
sg10
S'xx2781381632920d9f8101ee5bf1ebc92e'
p248
sg12
S'xx48d7bc10323ae92503153aa430b355d9'
p249
sg14
S'Mozilla/5.0 (Linux; Android 4.4.2; 2013023 Build/HM2013023) AppleWebKit/537.36 (KHTML, like Gecko) Version/4.0 Chrome/37.0.0.0 Mobile MQQBrowser/6.2 TBS/036557 Safari/537.36 MicroMessenger/6.3.25.861 NetType/WIFI Language/zh_CN'
p250
sg16
S'94b529bd3ec95f75f972a299b96b58c1'
p251
sa(dp252
g2
S'25201'
p253
sg4
S'7696'
p254
sg6
S'b1348b829d79248da6ef34ff6293c1dc'
p255
sg8
S'xxa5327d6d9eb27749361c51ec02b5a262'
p256
sg10
S'xx9ae35e62a9c1d9d93f8d0f5a01dd6f48'
p257
sg12
S'xx48d7bc10323ae92503153aa430b355d9'
p258
sg14
S'Mozilla/5.0 (Linux; Android 4.4.2; 2013023 Build/HM2013023) AppleWebKit/537.36 (KHTML, like Gecko) Version/4.0 Chrome/37.0.0.0 Mobile MQQBrowser/6.2 TBS/036557 Safari/537.36 MicroMessenger/6.3.25.861 NetType/WIFI Language/zh_CN'
p259
sg16
S'94b529bd3ec95f75f972a299b96b58c1'
p260
sa(dp261
g2
S'25201'
p262
sg4
S'7708'
p263
sg6
S'b1348b829d79248da6ef34ff6293c1dc'
p264
sg8
S'xxa5327d6d9eb27749361c51ec02b5a262'
p265
sg10
S'xx9ae35e62a9c1d9d93f8d0f5a01dd6f48'
p266
sg12
S'xx48d7bc10323ae92503153aa430b355d9'
p267
sg14
S'Mozilla/5.0 (Linux; Android 4.4.2; 2013023 Build/HM2013023) AppleWebKit/537.36 (KHTML, like Gecko) Version/4.0 Chrome/37.0.0.0 Mobile MQQBrowser/6.2 TBS/036557 Safari/537.36 MicroMessenger/6.3.25.861 NetType/WIFI Language/zh_CN'
p268
sg16
S'94b529bd3ec95f75f972a299b96b58c1'
p269
sa(dp270
g2
S'25201'
p271
sg4
S'7719'
p272
sg6
S'b1348b829d79248da6ef34ff6293c1dc'
p273
sg8
S'xxa5327d6d9eb27749361c51ec02b5a262'
p274
sg10
S'xx9ae35e62a9c1d9d93f8d0f5a01dd6f48'
p275
sg12
S'xx48d7bc10323ae92503153aa430b355d9'
p276
sg14
S'Mozilla/5.0 (Linux; Android 4.4.2; 2013023 Build/HM2013023) AppleWebKit/537.36 (KHTML, like Gecko) Version/4.0 Chrome/37.0.0.0 Mobile MQQBrowser/6.2 TBS/036557 Safari/537.36 MicroMessenger/6.3.25.861 NetType/WIFI Language/zh_CN'
p277
sg16
S'94b529bd3ec95f75f972a299b96b58c1'
p278
sa(dp279
g2
S'25201'
p280
sg4
S'7731'
p281
sg6
S'b1348b829d79248da6ef34ff6293c1dc'
p282
sg8
S'xxa5327d6d9eb27749361c51ec02b5a262'
p283
sg10
S'xx9ae35e62a9c1d9d93f8d0f5a01dd6f48'
p284
sg12
S'xx48d7bc10323ae92503153aa430b355d9'
p285
sg14
S'Mozilla/5.0 (Linux; Android 4.4.2; 2013023 Build/HM2013023) AppleWebKit/537.36 (KHTML, like Gecko) Version/4.0 Chrome/37.0.0.0 Mobile MQQBrowser/6.2 TBS/036557 Safari/537.36 MicroMessenger/6.3.25.861 NetType/WIFI Language/zh_CN'
p286
sg16
S'94b529bd3ec95f75f972a299b96b58c1'
p287
sa(dp288
g2
S'25201'
p289
sg4
S'7749'
p290
sg6
S'b1348b829d79248da6ef34ff6293c1dc'
p291
sg8
S'xxa5327d6d9eb27749361c51ec02b5a262'
p292
sg10
S'xx9ae35e62a9c1d9d93f8d0f5a01dd6f48'
p293
sg12
S'xx48d7bc10323ae92503153aa430b355d9'
p294
sg14
S'Mozilla/5.0 (Linux; Android 4.4.2; 2013023 Build/HM2013023) AppleWebKit/537.36 (KHTML, like Gecko) Version/4.0 Chrome/37.0.0.0 Mobile MQQBrowser/6.2 TBS/036557 Safari/537.36 MicroMessenger/6.3.25.861 NetType/WIFI Language/zh_CN'
p295
sg16
S'94b529bd3ec95f75f972a299b96b58c1'
p296
sa(dp297
g2
S'25201'
p298
sg4
S'7767'
p299
sg6
S'b1348b829d79248da6ef34ff6293c1dc'
p300
sg8
S'xxa5327d6d9eb27749361c51ec02b5a262'
p301
sg10
S'xx9ae35e62a9c1d9d93f8d0f5a01dd6f48'
p302
sg12
S'xx48d7bc10323ae92503153aa430b355d9'
p303
sg14
S'Mozilla/5.0 (Linux; Android 4.4.2; 2013023 Build/HM2013023) AppleWebKit/537.36 (KHTML, like Gecko) Version/4.0 Chrome/37.0.0.0 Mobile MQQBrowser/6.2 TBS/036557 Safari/537.36 MicroMessenger/6.3.25.861 NetType/WIFI Language/zh_CN'
p304
sg16
S'94b529bd3ec95f75f972a299b96b58c1'
p305
sa(dp306
g2
S'25201'
p307
sg4
S'7778'
p308
sg6
S'b1348b829d79248da6ef34ff6293c1dc'
p309
sg8
S'xxa5327d6d9eb27749361c51ec02b5a262'
p310
sg10
S'xx9ae35e62a9c1d9d93f8d0f5a01dd6f48'
p311
sg12
S'xx48d7bc10323ae92503153aa430b355d9'
p312
sg14
S'Mozilla/5.0 (Linux; Android 4.4.2; 2013023 Build/HM2013023) AppleWebKit/537.36 (KHTML, like Gecko) Version/4.0 Chrome/37.0.0.0 Mobile MQQBrowser/6.2 TBS/036557 Safari/537.36 MicroMessenger/6.3.25.861 NetType/WIFI Language/zh_CN'
p313
sg16
S'94b529bd3ec95f75f972a299b96b58c1'
p314
sa(dp315
g2
S'25201'
p316
sg4
S'7790'
p317
sg6
S'b1348b829d79248da6ef34ff6293c1dc'
p318
sg8
S'xxa5327d6d9eb27749361c51ec02b5a262'
p319
sg10
S'xx9ae35e62a9c1d9d93f8d0f5a01dd6f48'
p320
sg12
S'xx48d7bc10323ae92503153aa430b355d9'
p321
sg14
S'Mozilla/5.0 (Linux; Android 4.4.2; 2013023 Build/HM2013023) AppleWebKit/537.36 (KHTML, like Gecko) Version/4.0 Chrome/37.0.0.0 Mobile MQQBrowser/6.2 TBS/036557 Safari/537.36 MicroMessenger/6.3.25.861 NetType/WIFI Language/zh_CN'
p322
sg16
S'94b529bd3ec95f75f972a299b96b58c1'
p323
sa(dp324
g2
S'25201'
p325
sg4
S'8443'
p326
sg6
S'b1348b829d79248da6ef34ff6293c1dc'
p327
sg8
S'xx5c542a1826a3fefff4e24992f84ec199'
p328
sg10
S'xx2781381632920d9f8101ee5bf1ebc92e'
p329
sg12
S'xx48d7bc10323ae92503153aa430b355d9'
p330
sg14
S'Mozilla/5.0 (Linux; Android 4.4.2; 2013023 Build/HM2013023) AppleWebKit/537.36 (KHTML, like Gecko) Version/4.0 Chrome/37.0.0.0 Mobile MQQBrowser/6.2 TBS/036557 Safari/537.36 MicroMessenger/6.3.25.861 NetType/WIFI Language/zh_CN'
p331
sg16
S'94b529bd3ec95f75f972a299b96b58c1'
p332
sa(dp333
g2
S'25201'
p334
sg4
S'8456'
p335
sg6
S'b1348b829d79248da6ef34ff6293c1dc'
p336
sg8
S'xx5c542a1826a3fefff4e24992f84ec199'
p337
sg10
S'xx2781381632920d9f8101ee5bf1ebc92e'
p338
sg12
S'xx48d7bc10323ae92503153aa430b355d9'
p339
sg14
S'Mozilla/5.0 (Linux; Android 4.4.2; 2013023 Build/HM2013023) AppleWebKit/537.36 (KHTML, like Gecko) Version/4.0 Chrome/37.0.0.0 Mobile MQQBrowser/6.2 TBS/036557 Safari/537.36 MicroMessenger/6.3.25.861 NetType/WIFI Language/zh_CN'
p340
sg16
S'94b529bd3ec95f75f972a299b96b58c1'
p341
sa(dp342
g2
S'25201'
p343
sg4
S'8492'
p344
sg6
S'b1348b829d79248da6ef34ff6293c1dc'
p345
sg8
S'xxa5327d6d9eb27749361c51ec02b5a262'
p346
sg10
S'xx9ae35e62a9c1d9d93f8d0f5a01dd6f48'
p347
sg12
S'xx48d7bc10323ae92503153aa430b355d9'
p348
sg14
S'Mozilla/5.0 (Linux; Android 4.4.2; 2013023 Build/HM2013023) AppleWebKit/537.36 (KHTML, like Gecko) Version/4.0 Chrome/37.0.0.0 Mobile MQQBrowser/6.2 TBS/036557 Safari/537.36 MicroMessenger/6.3.25.861 NetType/WIFI Language/zh_CN'
p349
sg16
S'94b529bd3ec95f75f972a299b96b58c1'
p350
sa(dp351
g2
S'25201'
p352
sg4
S'8502'
p353
sg6
S'b1348b829d79248da6ef34ff6293c1dc'
p354
sg8
S'xxa5327d6d9eb27749361c51ec02b5a262'
p355
sg10
S'xx9ae35e62a9c1d9d93f8d0f5a01dd6f48'
p356
sg12
S'xx48d7bc10323ae92503153aa430b355d9'
p357
sg14
S'Mozilla/5.0 (Linux; Android 4.4.2; 2013023 Build/HM2013023) AppleWebKit/537.36 (KHTML, like Gecko) Version/4.0 Chrome/37.0.0.0 Mobile MQQBrowser/6.2 TBS/036557 Safari/537.36 MicroMessenger/6.3.25.861 NetType/WIFI Language/zh_CN'
p358
sg16
S'94b529bd3ec95f75f972a299b96b58c1'
p359
sa(dp360
g2
S'25201'
p361
sg4
S'8516'
p362
sg6
S'b1348b829d79248da6ef34ff6293c1dc'
p363
sg8
S'xxa5327d6d9eb27749361c51ec02b5a262'
p364
sg10
S'xx9ae35e62a9c1d9d93f8d0f5a01dd6f48'
p365
sg12
S'xx48d7bc10323ae92503153aa430b355d9'
p366
sg14
S'Mozilla/5.0 (Linux; Android 4.4.2; 2013023 Build/HM2013023) AppleWebKit/537.36 (KHTML, like Gecko) Version/4.0 Chrome/37.0.0.0 Mobile MQQBrowser/6.2 TBS/036557 Safari/537.36 MicroMessenger/6.3.25.861 NetType/WIFI Language/zh_CN'
p367
sg16
S'94b529bd3ec95f75f972a299b96b58c1'
p368
sa(dp369
g2
S'25201'
p370
sg4
S'8526'
p371
sg6
S'b1348b829d79248da6ef34ff6293c1dc'
p372
sg8
S'xxa5327d6d9eb27749361c51ec02b5a262'
p373
sg10
S'xx9ae35e62a9c1d9d93f8d0f5a01dd6f48'
p374
sg12
S'xx48d7bc10323ae92503153aa430b355d9'
p375
sg14
S'Mozilla/5.0 (Linux; Android 4.4.2; 2013023 Build/HM2013023) AppleWebKit/537.36 (KHTML, like Gecko) Version/4.0 Chrome/37.0.0.0 Mobile MQQBrowser/6.2 TBS/036557 Safari/537.36 MicroMessenger/6.3.25.861 NetType/WIFI Language/zh_CN'
p376
sg16
S'94b529bd3ec95f75f972a299b96b58c1'
p377
sa(dp378
g2
S'25201'
p379
sg4
S'8540'
p380
sg6
S'b1348b829d79248da6ef34ff6293c1dc'
p381
sg8
S'xxa5327d6d9eb27749361c51ec02b5a262'
p382
sg10
S'xx9ae35e62a9c1d9d93f8d0f5a01dd6f48'
p383
sg12
S'xx48d7bc10323ae92503153aa430b355d9'
p384
sg14
S'Mozilla/5.0 (Linux; Android 4.4.2; 2013023 Build/HM2013023) AppleWebKit/537.36 (KHTML, like Gecko) Version/4.0 Chrome/37.0.0.0 Mobile MQQBrowser/6.2 TBS/036557 Safari/537.36 MicroMessenger/6.3.25.861 NetType/WIFI Language/zh_CN'
p385
sg16
S'94b529bd3ec95f75f972a299b96b58c1'
p386
sa(dp387
g2
S'25201'
p388
sg4
S'8559'
p389
sg6
S'b1348b829d79248da6ef34ff6293c1dc'
p390
sg8
S'xxa5327d6d9eb27749361c51ec02b5a262'
p391
sg10
S'xx9ae35e62a9c1d9d93f8d0f5a01dd6f48'
p392
sg12
S'xx48d7bc10323ae92503153aa430b355d9'
p393
sg14
S'Mozilla/5.0 (Linux; Android 4.4.2; 2013023 Build/HM2013023) AppleWebKit/537.36 (KHTML, like Gecko) Version/4.0 Chrome/37.0.0.0 Mobile MQQBrowser/6.2 TBS/036557 Safari/537.36 MicroMessenger/6.3.25.861 NetType/WIFI Language/zh_CN'
p394
sg16
S'94b529bd3ec95f75f972a299b96b58c1'
p395
sa(dp396
g2
S'25201'
p397
sg4
S'8571'
p398
sg6
S'b1348b829d79248da6ef34ff6293c1dc'
p399
sg8
S'xxa5327d6d9eb27749361c51ec02b5a262'
p400
sg10
S'xx9ae35e62a9c1d9d93f8d0f5a01dd6f48'
p401
sg12
S'xx48d7bc10323ae92503153aa430b355d9'
p402
sg14
S'Mozilla/5.0 (Linux; Android 4.4.2; 2013023 Build/HM2013023) AppleWebKit/537.36 (KHTML, like Gecko) Version/4.0 Chrome/37.0.0.0 Mobile MQQBrowser/6.2 TBS/036557 Safari/537.36 MicroMessenger/6.3.25.861 NetType/WIFI Language/zh_CN'
p403
sg16
S'94b529bd3ec95f75f972a299b96b58c1'
p404
sa.