(lp0
(dp1
S'user_id'
p2
S'49739'
p3
sS'data_id'
p4
S'527'
p5
sS'ip'
p6
S'7ad6ba29c8e2117fc5d1ce0cf6043119'
p7
sS'phone_B'
p8
S'xxd2170f3112a298b79c7760acebed3376'
p9
sS'phone_C'
p10
S'xx9158be43a7940005404467d991c074b8'
p11
sS'phone_A'
p12
S'xx49f999d691e04ee6b11822e75567b138'
p13
sS'user_agent'
p14
S'Mozilla/5.0 (Linux; Android 5.1.1; vivo X6S A Build/LMY47V) AppleWebKit/537.36 (KHTML, like Gecko) Version/4.0 Chrome/37.0.0.0 Mobile MQQBrowser/6.8 TBS/036849 Safari/537.36 MicroMessenger/6.3.27.880 NetType/WIFI Language/zh_CN'
p15
sS'ua'
p16
S'e364ae5985a2d220b5957a33729cb1ee'
p17
sa(dp18
g2
S'49739'
p19
sg4
S'543'
p20
sg6
S'7ad6ba29c8e2117fc5d1ce0cf6043119'
p21
sg8
S'xxd2170f3112a298b79c7760acebed3376'
p22
sg10
S'xx9158be43a7940005404467d991c074b8'
p23
sg12
S'xx49f999d691e04ee6b11822e75567b138'
p24
sg14
S'Mozilla/5.0 (Linux; Android 5.1.1; vivo X6S A Build/LMY47V) AppleWebKit/537.36 (KHTML, like Gecko) Version/4.0 Chrome/37.0.0.0 Mobile MQQBrowser/6.8 TBS/036849 Safari/537.36 MicroMessenger/6.3.27.880 NetType/WIFI Language/zh_CN'
p25
sg16
S'e364ae5985a2d220b5957a33729cb1ee'
p26
sa(dp27
g2
S'49739'
p28
sg4
S'560'
p29
sg6
S'7ad6ba29c8e2117fc5d1ce0cf6043119'
p30
sg8
S'xxd2170f3112a298b79c7760acebed3376'
p31
sg10
S'xx9158be43a7940005404467d991c074b8'
p32
sg12
S'xx49f999d691e04ee6b11822e75567b138'
p33
sg14
S'Mozilla/5.0 (Linux; Android 5.1.1; vivo X6S A Build/LMY47V) AppleWebKit/537.36 (KHTML, like Gecko) Version/4.0 Chrome/37.0.0.0 Mobile MQQBrowser/6.8 TBS/036849 Safari/537.36 MicroMessenger/6.3.27.880 NetType/WIFI Language/zh_CN'
p34
sg16
S'e364ae5985a2d220b5957a33729cb1ee'
p35
sa(dp36
g2
S'49739'
p37
sg4
S'576'
p38
sg6
S'7ad6ba29c8e2117fc5d1ce0cf6043119'
p39
sg8
S'xxd2170f3112a298b79c7760acebed3376'
p40
sg10
S'xx9158be43a7940005404467d991c074b8'
p41
sg12
S'xx49f999d691e04ee6b11822e75567b138'
p42
sg14
S'Mozilla/5.0 (Linux; Android 5.1.1; vivo X6S A Build/LMY47V) AppleWebKit/537.36 (KHTML, like Gecko) Version/4.0 Chrome/37.0.0.0 Mobile MQQBrowser/6.8 TBS/036849 Safari/537.36 MicroMessenger/6.3.27.880 NetType/WIFI Language/zh_CN'
p43
sg16
S'e364ae5985a2d220b5957a33729cb1ee'
p44
sa(dp45
g2
S'31500'
p46
sg4
S'918'
p47
sg6
S'7e2000ebab7c43b0c7fc851d1e875257'
p48
sg8
S'xx3c6bded674fc8ebcabb94c115ef850cd'
p49
sg10
S'xxdaac1a2a72e947c418e3a77eab0fe51e'
p50
sg12
S'xx49f999d691e04ee6b11822e75567b138'
p51
sg14
S'Mozilla/5.0 (Linux; Android 5.1.1; vivo X6S A Build/LMY47V) AppleWebKit/537.36 (KHTML, like Gecko) Version/4.0 Chrome/37.0.0.0 Mobile MQQBrowser/6.8 TBS/036849 Safari/537.36 MicroMessenger/6.3.27.880 NetType/WIFI Language/zh_CN'
p52
sg16
S'e364ae5985a2d220b5957a33729cb1ee'
p53
sa(dp54
g2
S'31500'
p55
sg4
S'932'
p56
sg6
S'7e2000ebab7c43b0c7fc851d1e875257'
p57
sg8
S'xx3c6bded674fc8ebcabb94c115ef850cd'
p58
sg10
S'xxdaac1a2a72e947c418e3a77eab0fe51e'
p59
sg12
S'xx49f999d691e04ee6b11822e75567b138'
p60
sg14
S'Mozilla/5.0 (Linux; Android 5.1.1; vivo X6S A Build/LMY47V) AppleWebKit/537.36 (KHTML, like Gecko) Version/4.0 Chrome/37.0.0.0 Mobile MQQBrowser/6.8 TBS/036849 Safari/537.36 MicroMessenger/6.3.27.880 NetType/WIFI Language/zh_CN'
p61
sg16
S'e364ae5985a2d220b5957a33729cb1ee'
p62
sa(dp63
g2
S'22704'
p64
sg4
S'2894'
p65
sg6
S'aefa3bc9150365cdf403b8ef29142967'
p66
sg8
S'xx3c6bded674fc8ebcabb94c115ef850cd'
p67
sg10
S'xxdaac1a2a72e947c418e3a77eab0fe51e'
p68
sg12
S'xx49f999d691e04ee6b11822e75567b138'
p69
sg14
S'Mozilla/5.0 (Linux; Android 5.1.1; vivo X6S A Build/LMY47V) AppleWebKit/537.36 (KHTML, like Gecko) Version/4.0 Chrome/37.0.0.0 Mobile MQQBrowser/6.8 TBS/036849 Safari/537.36 MicroMessenger/6.3.27.880 NetType/WIFI Language/zh_CN'
p70
sg16
S'e364ae5985a2d220b5957a33729cb1ee'
p71
sa(dp72
g2
S'22704'
p73
sg4
S'2942'
p74
sg6
S'aefa3bc9150365cdf403b8ef29142967'
p75
sg8
S'xx3c6bded674fc8ebcabb94c115ef850cd'
p76
sg10
S'xxdaac1a2a72e947c418e3a77eab0fe51e'
p77
sg12
S'xx49f999d691e04ee6b11822e75567b138'
p78
sg14
S'Mozilla/5.0 (Linux; Android 5.1.1; vivo X6S A Build/LMY47V) AppleWebKit/537.36 (KHTML, like Gecko) Version/4.0 Chrome/37.0.0.0 Mobile MQQBrowser/6.8 TBS/036849 Safari/537.36 MicroMessenger/6.3.27.880 NetType/WIFI Language/zh_CN'
p79
sg16
S'e364ae5985a2d220b5957a33729cb1ee'
p80
sa(dp81
g2
S'22704'
p82
sg4
S'2961'
p83
sg6
S'aefa3bc9150365cdf403b8ef29142967'
p84
sg8
S'xx3c6bded674fc8ebcabb94c115ef850cd'
p85
sg10
S'xxdaac1a2a72e947c418e3a77eab0fe51e'
p86
sg12
S'xx49f999d691e04ee6b11822e75567b138'
p87
sg14
S'Mozilla/5.0 (Linux; Android 5.1.1; vivo X6S A Build/LMY47V) AppleWebKit/537.36 (KHTML, like Gecko) Version/4.0 Chrome/37.0.0.0 Mobile MQQBrowser/6.8 TBS/036849 Safari/537.36 MicroMessenger/6.3.27.880 NetType/WIFI Language/zh_CN'
p88
sg16
S'e364ae5985a2d220b5957a33729cb1ee'
p89
sa(dp90
g2
S'22704'
p91
sg4
S'2989'
p92
sg6
S'aefa3bc9150365cdf403b8ef29142967'
p93
sg8
S'xx3c6bded674fc8ebcabb94c115ef850cd'
p94
sg10
S'xxdaac1a2a72e947c418e3a77eab0fe51e'
p95
sg12
S'xx49f999d691e04ee6b11822e75567b138'
p96
sg14
S'Mozilla/5.0 (Linux; Android 5.1.1; vivo X6S A Build/LMY47V) AppleWebKit/537.36 (KHTML, like Gecko) Version/4.0 Chrome/37.0.0.0 Mobile MQQBrowser/6.8 TBS/036849 Safari/537.36 MicroMessenger/6.3.27.880 NetType/WIFI Language/zh_CN'
p97
sg16
S'e364ae5985a2d220b5957a33729cb1ee'
p98
sa(dp99
g2
S'22704'
p100
sg4
S'3003'
p101
sg6
S'aefa3bc9150365cdf403b8ef29142967'
p102
sg8
S'xx3c6bded674fc8ebcabb94c115ef850cd'
p103
sg10
S'xxdaac1a2a72e947c418e3a77eab0fe51e'
p104
sg12
S'xx49f999d691e04ee6b11822e75567b138'
p105
sg14
S'Mozilla/5.0 (Linux; Android 5.1.1; vivo X6S A Build/LMY47V) AppleWebKit/537.36 (KHTML, like Gecko) Version/4.0 Chrome/37.0.0.0 Mobile MQQBrowser/6.8 TBS/036849 Safari/537.36 MicroMessenger/6.3.27.880 NetType/WIFI Language/zh_CN'
p106
sg16
S'e364ae5985a2d220b5957a33729cb1ee'
p107
sa(dp108
g2
S'22704'
p109
sg4
S'3086'
p110
sg6
S'aefa3bc9150365cdf403b8ef29142967'
p111
sg8
S'xx3c6bded674fc8ebcabb94c115ef850cd'
p112
sg10
S'xxdaac1a2a72e947c418e3a77eab0fe51e'
p113
sg12
S'xx49f999d691e04ee6b11822e75567b138'
p114
sg14
S'Mozilla/5.0 (Linux; Android 5.1.1; vivo X6S A Build/LMY47V) AppleWebKit/537.36 (KHTML, like Gecko) Version/4.0 Chrome/37.0.0.0 Mobile MQQBrowser/6.8 TBS/036849 Safari/537.36 MicroMessenger/6.3.27.880 NetType/WIFI Language/zh_CN'
p115
sg16
S'e364ae5985a2d220b5957a33729cb1ee'
p116
sa(dp117
g2
S'25055'
p118
sg4
S'5920'
p119
sg6
S'cb7fc8252bada0dbf318a979243e4eb0'
p120
sg8
S'xx3c6bded674fc8ebcabb94c115ef850cd'
p121
sg10
S'xxdaac1a2a72e947c418e3a77eab0fe51e'
p122
sg12
S'xx49f999d691e04ee6b11822e75567b138'
p123
sg14
S'Mozilla/5.0 (Linux; Android 5.1.1; vivo X6S A Build/LMY47V) AppleWebKit/537.36 (KHTML, like Gecko) Version/4.0 Chrome/37.0.0.0 Mobile MQQBrowser/6.8 TBS/036849 Safari/537.36 MicroMessenger/6.3.27.880 NetType/WIFI Language/zh_CN'
p124
sg16
S'e364ae5985a2d220b5957a33729cb1ee'
p125
sa(dp126
g2
S'25055'
p127
sg4
S'5936'
p128
sg6
S'cb7fc8252bada0dbf318a979243e4eb0'
p129
sg8
S'xx3c6bded674fc8ebcabb94c115ef850cd'
p130
sg10
S'xxdaac1a2a72e947c418e3a77eab0fe51e'
p131
sg12
S'xx49f999d691e04ee6b11822e75567b138'
p132
sg14
S'Mozilla/5.0 (Linux; Android 5.1.1; vivo X6S A Build/LMY47V) AppleWebKit/537.36 (KHTML, like Gecko) Version/4.0 Chrome/37.0.0.0 Mobile MQQBrowser/6.8 TBS/036849 Safari/537.36 MicroMessenger/6.3.27.880 NetType/WIFI Language/zh_CN'
p133
sg16
S'e364ae5985a2d220b5957a33729cb1ee'
p134
sa(dp135
g2
S'25055'
p136
sg4
S'5964'
p137
sg6
S'cb7fc8252bada0dbf318a979243e4eb0'
p138
sg8
S'xx3c6bded674fc8ebcabb94c115ef850cd'
p139
sg10
S'xxdaac1a2a72e947c418e3a77eab0fe51e'
p140
sg12
S'xx49f999d691e04ee6b11822e75567b138'
p141
sg14
S'Mozilla/5.0 (Linux; Android 5.1.1; vivo X6S A Build/LMY47V) AppleWebKit/537.36 (KHTML, like Gecko) Version/4.0 Chrome/37.0.0.0 Mobile MQQBrowser/6.8 TBS/036849 Safari/537.36 MicroMessenger/6.3.27.880 NetType/WIFI Language/zh_CN'
p142
sg16
S'e364ae5985a2d220b5957a33729cb1ee'
p143
sa(dp144
g2
S'25055'
p145
sg4
S'5985'
p146
sg6
S'cb7fc8252bada0dbf318a979243e4eb0'
p147
sg8
S'xx3c6bded674fc8ebcabb94c115ef850cd'
p148
sg10
S'xxdaac1a2a72e947c418e3a77eab0fe51e'
p149
sg12
S'xx49f999d691e04ee6b11822e75567b138'
p150
sg14
S'Mozilla/5.0 (Linux; Android 5.1.1; vivo X6S A Build/LMY47V) AppleWebKit/537.36 (KHTML, like Gecko) Version/4.0 Chrome/37.0.0.0 Mobile MQQBrowser/6.8 TBS/036849 Safari/537.36 MicroMessenger/6.3.27.880 NetType/WIFI Language/zh_CN'
p151
sg16
S'e364ae5985a2d220b5957a33729cb1ee'
p152
sa(dp153
g2
S'25055'
p154
sg4
S'6006'
p155
sg6
S'cb7fc8252bada0dbf318a979243e4eb0'
p156
sg8
S'xx3c6bded674fc8ebcabb94c115ef850cd'
p157
sg10
S'xxdaac1a2a72e947c418e3a77eab0fe51e'
p158
sg12
S'xx49f999d691e04ee6b11822e75567b138'
p159
sg14
S'Mozilla/5.0 (Linux; Android 5.1.1; vivo X6S A Build/LMY47V) AppleWebKit/537.36 (KHTML, like Gecko) Version/4.0 Chrome/37.0.0.0 Mobile MQQBrowser/6.8 TBS/036849 Safari/537.36 MicroMessenger/6.3.27.880 NetType/WIFI Language/zh_CN'
p160
sg16
S'e364ae5985a2d220b5957a33729cb1ee'
p161
sa(dp162
g2
S'25055'
p163
sg4
S'6030'
p164
sg6
S'cb7fc8252bada0dbf318a979243e4eb0'
p165
sg8
S'xx3c6bded674fc8ebcabb94c115ef850cd'
p166
sg10
S'xxdaac1a2a72e947c418e3a77eab0fe51e'
p167
sg12
S'xx49f999d691e04ee6b11822e75567b138'
p168
sg14
S'Mozilla/5.0 (Linux; Android 5.1.1; vivo X6S A Build/LMY47V) AppleWebKit/537.36 (KHTML, like Gecko) Version/4.0 Chrome/37.0.0.0 Mobile MQQBrowser/6.8 TBS/036849 Safari/537.36 MicroMessenger/6.3.27.880 NetType/WIFI Language/zh_CN'
p169
sg16
S'e364ae5985a2d220b5957a33729cb1ee'
p170
sa(dp171
g2
S'25055'
p172
sg4
S'6048'
p173
sg6
S'cb7fc8252bada0dbf318a979243e4eb0'
p174
sg8
S'xx3c6bded674fc8ebcabb94c115ef850cd'
p175
sg10
S'xxdaac1a2a72e947c418e3a77eab0fe51e'
p176
sg12
S'xx49f999d691e04ee6b11822e75567b138'
p177
sg14
S'Mozilla/5.0 (Linux; Android 5.1.1; vivo X6S A Build/LMY47V) AppleWebKit/537.36 (KHTML, like Gecko) Version/4.0 Chrome/37.0.0.0 Mobile MQQBrowser/6.8 TBS/036849 Safari/537.36 MicroMessenger/6.3.27.880 NetType/WIFI Language/zh_CN'
p178
sg16
S'e364ae5985a2d220b5957a33729cb1ee'
p179
sa(dp180
g2
S'25055'
p181
sg4
S'6112'
p182
sg6
S'cb7fc8252bada0dbf318a979243e4eb0'
p183
sg8
S'xx3c6bded674fc8ebcabb94c115ef850cd'
p184
sg10
S'xxdaac1a2a72e947c418e3a77eab0fe51e'
p185
sg12
S'xx49f999d691e04ee6b11822e75567b138'
p186
sg14
S'Mozilla/5.0 (Linux; Android 5.1.1; vivo X6S A Build/LMY47V) AppleWebKit/537.36 (KHTML, like Gecko) Version/4.0 Chrome/37.0.0.0 Mobile MQQBrowser/6.8 TBS/036849 Safari/537.36 MicroMessenger/6.3.27.880 NetType/WIFI Language/zh_CN'
p187
sg16
S'e364ae5985a2d220b5957a33729cb1ee'
p188
sa(dp189
g2
S'25055'
p190
sg4
S'6162'
p191
sg6
S'cb7fc8252bada0dbf318a979243e4eb0'
p192
sg8
S'xx3c6bded674fc8ebcabb94c115ef850cd'
p193
sg10
S'xxdaac1a2a72e947c418e3a77eab0fe51e'
p194
sg12
S'xx49f999d691e04ee6b11822e75567b138'
p195
sg14
S'Mozilla/5.0 (Linux; Android 5.1.1; vivo X6S A Build/LMY47V) AppleWebKit/537.36 (KHTML, like Gecko) Version/4.0 Chrome/37.0.0.0 Mobile MQQBrowser/6.8 TBS/036849 Safari/537.36 MicroMessenger/6.3.27.880 NetType/WIFI Language/zh_CN'
p196
sg16
S'e364ae5985a2d220b5957a33729cb1ee'
p197
sa(dp198
g2
S'22704'
p199
sg4
S'6879'
p200
sg6
S'2e454f34482d4adaa88fe02db817da3f'
p201
sg8
S'xx3c6bded674fc8ebcabb94c115ef850cd'
p202
sg10
S'xxdaac1a2a72e947c418e3a77eab0fe51e'
p203
sg12
S'xx49f999d691e04ee6b11822e75567b138'
p204
sg14
S'Mozilla/5.0 (Linux; Android 5.1.1; vivo X6S A Build/LMY47V) AppleWebKit/537.36 (KHTML, like Gecko) Version/4.0 Chrome/37.0.0.0 Mobile MQQBrowser/6.8 TBS/036849 Safari/537.36 MicroMessenger/6.3.27.880 NetType/WIFI Language/zh_CN'
p205
sg16
S'e364ae5985a2d220b5957a33729cb1ee'
p206
sa(dp207
g2
S'22704'
p208
sg4
S'7309'
p209
sg6
S'f017e64adfc2e29b71800d06aa6f4e51'
p210
sg8
S'xx3c6bded674fc8ebcabb94c115ef850cd'
p211
sg10
S'xxdaac1a2a72e947c418e3a77eab0fe51e'
p212
sg12
S'xx49f999d691e04ee6b11822e75567b138'
p213
sg14
S'Mozilla/5.0 (Linux; Android 5.1.1; vivo X6S A Build/LMY47V) AppleWebKit/537.36 (KHTML, like Gecko) Version/4.0 Chrome/37.0.0.0 Mobile MQQBrowser/6.8 TBS/036849 Safari/537.36 MicroMessenger/6.3.27.880 NetType/WIFI Language/zh_CN'
p214
sg16
S'e364ae5985a2d220b5957a33729cb1ee'
p215
sa(dp216
g2
S'22704'
p217
sg4
S'7322'
p218
sg6
S'f017e64adfc2e29b71800d06aa6f4e51'
p219
sg8
S'xx3c6bded674fc8ebcabb94c115ef850cd'
p220
sg10
S'xxdaac1a2a72e947c418e3a77eab0fe51e'
p221
sg12
S'xx49f999d691e04ee6b11822e75567b138'
p222
sg14
S'Mozilla/5.0 (Linux; Android 5.1.1; vivo X6S A Build/LMY47V) AppleWebKit/537.36 (KHTML, like Gecko) Version/4.0 Chrome/37.0.0.0 Mobile MQQBrowser/6.8 TBS/036849 Safari/537.36 MicroMessenger/6.3.27.880 NetType/WIFI Language/zh_CN'
p223
sg16
S'e364ae5985a2d220b5957a33729cb1ee'
p224
sa(dp225
g2
S'25055'
p226
sg4
S'8292'
p227
sg6
S'd6a038f89dfa747ed0f4c5e6a58aa144'
p228
sg8
S'xx3c6bded674fc8ebcabb94c115ef850cd'
p229
sg10
S'xxdaac1a2a72e947c418e3a77eab0fe51e'
p230
sg12
S'xx49f999d691e04ee6b11822e75567b138'
p231
sg14
S'Mozilla/5.0 (Linux; Android 5.1.1; vivo X6S A Build/LMY47V) AppleWebKit/537.36 (KHTML, like Gecko) Version/4.0 Chrome/37.0.0.0 Mobile MQQBrowser/6.8 TBS/036849 Safari/537.36 MicroMessenger/6.3.27.880 NetType/WIFI Language/zh_CN'
p232
sg16
S'e364ae5985a2d220b5957a33729cb1ee'
p233
sa(dp234
g2
S'25055'
p235
sg4
S'8302'
p236
sg6
S'd6a038f89dfa747ed0f4c5e6a58aa144'
p237
sg8
S'xx3c6bded674fc8ebcabb94c115ef850cd'
p238
sg10
S'xxdaac1a2a72e947c418e3a77eab0fe51e'
p239
sg12
S'xx49f999d691e04ee6b11822e75567b138'
p240
sg14
S'Mozilla/5.0 (Linux; Android 5.1.1; vivo X6S A Build/LMY47V) AppleWebKit/537.36 (KHTML, like Gecko) Version/4.0 Chrome/37.0.0.0 Mobile MQQBrowser/6.8 TBS/036849 Safari/537.36 MicroMessenger/6.3.27.880 NetType/WIFI Language/zh_CN'
p241
sg16
S'e364ae5985a2d220b5957a33729cb1ee'
p242
sa(dp243
g2
S'25055'
p244
sg4
S'8311'
p245
sg6
S'd6a038f89dfa747ed0f4c5e6a58aa144'
p246
sg8
S'xx3c6bded674fc8ebcabb94c115ef850cd'
p247
sg10
S'xxdaac1a2a72e947c418e3a77eab0fe51e'
p248
sg12
S'xx49f999d691e04ee6b11822e75567b138'
p249
sg14
S'Mozilla/5.0 (Linux; Android 5.1.1; vivo X6S A Build/LMY47V) AppleWebKit/537.36 (KHTML, like Gecko) Version/4.0 Chrome/37.0.0.0 Mobile MQQBrowser/6.8 TBS/036849 Safari/537.36 MicroMessenger/6.3.27.880 NetType/WIFI Language/zh_CN'
p250
sg16
S'e364ae5985a2d220b5957a33729cb1ee'
p251
sa(dp252
g2
S'25055'
p253
sg4
S'8317'
p254
sg6
S'd6a038f89dfa747ed0f4c5e6a58aa144'
p255
sg8
S'xx3c6bded674fc8ebcabb94c115ef850cd'
p256
sg10
S'xxdaac1a2a72e947c418e3a77eab0fe51e'
p257
sg12
S'xx49f999d691e04ee6b11822e75567b138'
p258
sg14
S'Mozilla/5.0 (Linux; Android 5.1.1; vivo X6S A Build/LMY47V) AppleWebKit/537.36 (KHTML, like Gecko) Version/4.0 Chrome/37.0.0.0 Mobile MQQBrowser/6.8 TBS/036849 Safari/537.36 MicroMessenger/6.3.27.880 NetType/WIFI Language/zh_CN'
p259
sg16
S'e364ae5985a2d220b5957a33729cb1ee'
p260
sa(dp261
g2
S'25055'
p262
sg4
S'8328'
p263
sg6
S'd6a038f89dfa747ed0f4c5e6a58aa144'
p264
sg8
S'xx3c6bded674fc8ebcabb94c115ef850cd'
p265
sg10
S'xxdaac1a2a72e947c418e3a77eab0fe51e'
p266
sg12
S'xx49f999d691e04ee6b11822e75567b138'
p267
sg14
S'Mozilla/5.0 (Linux; Android 5.1.1; vivo X6S A Build/LMY47V) AppleWebKit/537.36 (KHTML, like Gecko) Version/4.0 Chrome/37.0.0.0 Mobile MQQBrowser/6.8 TBS/036849 Safari/537.36 MicroMessenger/6.3.27.880 NetType/WIFI Language/zh_CN'
p268
sg16
S'e364ae5985a2d220b5957a33729cb1ee'
p269
sa(dp270
g2
S'25055'
p271
sg4
S'8483'
p272
sg6
S'd6a038f89dfa747ed0f4c5e6a58aa144'
p273
sg8
S'xx3c6bded674fc8ebcabb94c115ef850cd'
p274
sg10
S'xxdaac1a2a72e947c418e3a77eab0fe51e'
p275
sg12
S'xx49f999d691e04ee6b11822e75567b138'
p276
sg14
S'Mozilla/5.0 (Linux; Android 5.1.1; vivo X6S A Build/LMY47V) AppleWebKit/537.36 (KHTML, like Gecko) Version/4.0 Chrome/37.0.0.0 Mobile MQQBrowser/6.8 TBS/036849 Safari/537.36 MicroMessenger/6.3.27.880 NetType/WIFI Language/zh_CN'
p277
sg16
S'e364ae5985a2d220b5957a33729cb1ee'
p278
sa(dp279
g2
S'25055'
p280
sg4
S'8558'
p281
sg6
S'd6a038f89dfa747ed0f4c5e6a58aa144'
p282
sg8
S'xx3c6bded674fc8ebcabb94c115ef850cd'
p283
sg10
S'xxdaac1a2a72e947c418e3a77eab0fe51e'
p284
sg12
S'xx49f999d691e04ee6b11822e75567b138'
p285
sg14
S'Mozilla/5.0 (Linux; Android 5.1.1; vivo X6S A Build/LMY47V) AppleWebKit/537.36 (KHTML, like Gecko) Version/4.0 Chrome/37.0.0.0 Mobile MQQBrowser/6.8 TBS/036849 Safari/537.36 MicroMessenger/6.3.27.880 NetType/WIFI Language/zh_CN'
p286
sg16
S'e364ae5985a2d220b5957a33729cb1ee'
p287
sa(dp288
g2
S'25055'
p289
sg4
S'8608'
p290
sg6
S'd6a038f89dfa747ed0f4c5e6a58aa144'
p291
sg8
S'xx3c6bded674fc8ebcabb94c115ef850cd'
p292
sg10
S'xxdaac1a2a72e947c418e3a77eab0fe51e'
p293
sg12
S'xx49f999d691e04ee6b11822e75567b138'
p294
sg14
S'Mozilla/5.0 (Linux; Android 5.1.1; vivo X6S A Build/LMY47V) AppleWebKit/537.36 (KHTML, like Gecko) Version/4.0 Chrome/37.0.0.0 Mobile MQQBrowser/6.8 TBS/036849 Safari/537.36 MicroMessenger/6.3.27.880 NetType/WIFI Language/zh_CN'
p295
sg16
S'e364ae5985a2d220b5957a33729cb1ee'
p296
sa.