(lp0
(dp1
S'user_id'
p2
S'38032'
p3
sS'data_id'
p4
S'8578'
p5
sS'ip'
p6
S'e45228cc4543862affea5fcd603c8176'
p7
sS'phone_B'
p8
S'xxa98956077489c09fc3c0dbf3dd9f8fcf'
p9
sS'phone_C'
p10
S'xxa1eddb067d69156b5a420a68e90e67cd'
p11
sS'phone_A'
p12
S'xx4bb60dae063992dfe49f5961cbdbfd99'
p13
sS'user_agent'
p14
S'Mozilla/5.0 (Linux; Android 4.4.2; ?? Build/KOT49H) AppleWebKit/537.36 (KHTML, like Gecko) Version/4.0 Chrome/37.0.0.0 Mobile MQQBrowser/6.8 TBS/036849 Safari/537.36 MicroMessenger/6.3.27.880 NetType/WIFI Language/zh_CN'
p15
sS'ua'
p16
S'8bd7dba3d18f9e594cb6253034f00264'
p17
sa(dp18
g2
S'38032'
p19
sg4
S'8594'
p20
sg6
S'e45228cc4543862affea5fcd603c8176'
p21
sg8
S'xxa98956077489c09fc3c0dbf3dd9f8fcf'
p22
sg10
S'xxa1eddb067d69156b5a420a68e90e67cd'
p23
sg12
S'xx4bb60dae063992dfe49f5961cbdbfd99'
p24
sg14
S'Mozilla/5.0 (Linux; Android 4.4.2; ?? Build/KOT49H) AppleWebKit/537.36 (KHTML, like Gecko) Version/4.0 Chrome/37.0.0.0 Mobile MQQBrowser/6.8 TBS/036849 Safari/537.36 MicroMessenger/6.3.27.880 NetType/WIFI Language/zh_CN'
p25
sg16
S'8bd7dba3d18f9e594cb6253034f00264'
p26
sa.