(lp0
(dp1
S'user_id'
p2
S'23438'
p3
sS'data_id'
p4
S'328'
p5
sS'ip'
p6
S'9f413568f8a0bca8e8c2ce24f56bc1cb'
p7
sS'phone_B'
p8
S'xx2b89c20cd75a6448dcebe395841108ac'
p9
sS'phone_C'
p10
S'xx926a933e2e8467dd68707a1e86312229'
p11
sS'phone_A'
p12
S'xx4b560da510d8f256082dbb80ecdedf07'
p13
sS'user_agent'
p14
S'Mozilla/5.0 (Linux; Android 5.1; vivo X6D Build/LMY47I) AppleWebKit/537.36 (KHTML, like Gecko) Version/4.0 Chrome/37.0.0.0 Mobile MQQBrowser/6.8 TBS/036860 Safari/537.36 MicroMessenger/6.3.27.880 NetType/cmnet Language/zh_CN'
p15
sS'ua'
p16
S'a1bfc61f2655b208ef20b07ace32e85f'
p17
sa(dp18
g2
S'23438'
p19
sg4
S'344'
p20
sg6
S'9f413568f8a0bca8e8c2ce24f56bc1cb'
p21
sg8
S'xx2b89c20cd75a6448dcebe395841108ac'
p22
sg10
S'xx926a933e2e8467dd68707a1e86312229'
p23
sg12
S'xx4b560da510d8f256082dbb80ecdedf07'
p24
sg14
S'Mozilla/5.0 (Linux; Android 5.1; vivo X6D Build/LMY47I) AppleWebKit/537.36 (KHTML, like Gecko) Version/4.0 Chrome/37.0.0.0 Mobile MQQBrowser/6.8 TBS/036860 Safari/537.36 MicroMessenger/6.3.27.880 NetType/cmnet Language/zh_CN'
p25
sg16
S'a1bfc61f2655b208ef20b07ace32e85f'
p26
sa(dp27
g2
S'23438'
p28
sg4
S'360'
p29
sg6
S'9f413568f8a0bca8e8c2ce24f56bc1cb'
p30
sg8
S'xx2b89c20cd75a6448dcebe395841108ac'
p31
sg10
S'xx926a933e2e8467dd68707a1e86312229'
p32
sg12
S'xx4b560da510d8f256082dbb80ecdedf07'
p33
sg14
S'Mozilla/5.0 (Linux; Android 5.1; vivo X6D Build/LMY47I) AppleWebKit/537.36 (KHTML, like Gecko) Version/4.0 Chrome/37.0.0.0 Mobile MQQBrowser/6.8 TBS/036860 Safari/537.36 MicroMessenger/6.3.27.880 NetType/cmnet Language/zh_CN'
p34
sg16
S'a1bfc61f2655b208ef20b07ace32e85f'
p35
sa(dp36
g2
S'23451'
p37
sg4
S'395'
p38
sg6
S'9f413568f8a0bca8e8c2ce24f56bc1cb'
p39
sg8
S'xx32f38c718ea7084bc787cdd520604685'
p40
sg10
S'xx926a933e2e8467dd68707a1e86312229'
p41
sg12
S'xx4b560da510d8f256082dbb80ecdedf07'
p42
sg14
S'Mozilla/5.0 (Linux; Android 5.1; vivo X6D Build/LMY47I) AppleWebKit/537.36 (KHTML, like Gecko) Version/4.0 Chrome/37.0.0.0 Mobile MQQBrowser/6.8 TBS/036849 Safari/537.36 MicroMessenger/6.3.27.880 NetType/cmnet Language/zh_CN'
p43
sg16
S'3e1ba8e8e0cd293bb63b232ec70511c0'
p44
sa(dp45
g2
S'23451'
p46
sg4
S'410'
p47
sg6
S'9f413568f8a0bca8e8c2ce24f56bc1cb'
p48
sg8
S'xx32f38c718ea7084bc787cdd520604685'
p49
sg10
S'xx926a933e2e8467dd68707a1e86312229'
p50
sg12
S'xx4b560da510d8f256082dbb80ecdedf07'
p51
sg14
S'Mozilla/5.0 (Linux; Android 5.1; vivo X6D Build/LMY47I) AppleWebKit/537.36 (KHTML, like Gecko) Version/4.0 Chrome/37.0.0.0 Mobile MQQBrowser/6.8 TBS/036849 Safari/537.36 MicroMessenger/6.3.27.880 NetType/cmnet Language/zh_CN'
p52
sg16
S'3e1ba8e8e0cd293bb63b232ec70511c0'
p53
sa(dp54
g2
S'23438'
p55
sg4
S'513'
p56
sg6
S'9f413568f8a0bca8e8c2ce24f56bc1cb'
p57
sg8
S'xx2b89c20cd75a6448dcebe395841108ac'
p58
sg10
S'xx926a933e2e8467dd68707a1e86312229'
p59
sg12
S'xx4b560da510d8f256082dbb80ecdedf07'
p60
sg14
S'Mozilla/5.0 (Linux; Android 5.1; vivo X6D Build/LMY47I) AppleWebKit/537.36 (KHTML, like Gecko) Version/4.0 Chrome/37.0.0.0 Mobile MQQBrowser/6.8 TBS/036860 Safari/537.36 MicroMessenger/6.3.27.880 NetType/cmnet Language/zh_CN'
p61
sg16
S'a1bfc61f2655b208ef20b07ace32e85f'
p62
sa(dp63
g2
S'38386'
p64
sg4
S'1113'
p65
sg6
S'3a8f168d24ee7940ce6a0c2d49953446'
p66
sg8
S'xx4bf3973b92bd0f26c28d3e9f8a6171cb'
p67
sg10
S'xx4c6804416186a82a185eb02ff2c2e960'
p68
sg12
S'xx4b560da510d8f256082dbb80ecdedf07'
p69
sg14
S'Mozilla/5.0 (Linux; Android 5.1; vivo X6D Build/LMY47I) AppleWebKit/537.36 (KHTML, like Gecko) Version/4.0 Chrome/37.0.0.0 Mobile MQQBrowser/6.8 TBS/036849 Safari/537.36 MicroMessenger/6.3.27.880 NetType/WIFI Language/zh_CN'
p70
sg16
S'cffc4f1a9edec58060e5ffa14dd7c1bf'
p71
sa(dp72
g2
S'43423'
p73
sg4
S'1197'
p74
sg6
S'71a5cb77f047009749ba3db533fa0732'
p75
sg8
S'xx4bf3973b92bd0f26c28d3e9f8a6171cb'
p76
sg10
S'xx4c6804416186a82a185eb02ff2c2e960'
p77
sg12
S'xx4b560da510d8f256082dbb80ecdedf07'
p78
sg14
S'Mozilla/5.0 (Linux; Android 5.1; vivo X6D Build/LMY47I) AppleWebKit/537.36 (KHTML, like Gecko) Version/4.0 Chrome/37.0.0.0 Mobile MQQBrowser/6.8 TBS/036849 Safari/537.36 MicroMessenger/6.3.27.880 NetType/WIFI Language/zh_CN'
p79
sg16
S'cffc4f1a9edec58060e5ffa14dd7c1bf'
p80
sa(dp81
g2
S'43423'
p82
sg4
S'1212'
p83
sg6
S'71a5cb77f047009749ba3db533fa0732'
p84
sg8
S'xx4bf3973b92bd0f26c28d3e9f8a6171cb'
p85
sg10
S'xx4c6804416186a82a185eb02ff2c2e960'
p86
sg12
S'xx4b560da510d8f256082dbb80ecdedf07'
p87
sg14
S'Mozilla/5.0 (Linux; Android 5.1; vivo X6D Build/LMY47I) AppleWebKit/537.36 (KHTML, like Gecko) Version/4.0 Chrome/37.0.0.0 Mobile MQQBrowser/6.8 TBS/036849 Safari/537.36 MicroMessenger/6.3.27.880 NetType/WIFI Language/zh_CN'
p88
sg16
S'cffc4f1a9edec58060e5ffa14dd7c1bf'
p89
sa(dp90
g2
S'43423'
p91
sg4
S'1229'
p92
sg6
S'71a5cb77f047009749ba3db533fa0732'
p93
sg8
S'xx4bf3973b92bd0f26c28d3e9f8a6171cb'
p94
sg10
S'xx4c6804416186a82a185eb02ff2c2e960'
p95
sg12
S'xx4b560da510d8f256082dbb80ecdedf07'
p96
sg14
S'Mozilla/5.0 (Linux; Android 5.1; vivo X6D Build/LMY47I) AppleWebKit/537.36 (KHTML, like Gecko) Version/4.0 Chrome/37.0.0.0 Mobile MQQBrowser/6.8 TBS/036849 Safari/537.36 MicroMessenger/6.3.27.880 NetType/WIFI Language/zh_CN'
p97
sg16
S'cffc4f1a9edec58060e5ffa14dd7c1bf'
p98
sa(dp99
g2
S'19074'
p100
sg4
S'1239'
p101
sg6
S'3a8f168d24ee7940ce6a0c2d49953446'
p102
sg8
S'xx4bf3973b92bd0f26c28d3e9f8a6171cb'
p103
sg10
S'xx4c6804416186a82a185eb02ff2c2e960'
p104
sg12
S'xx4b560da510d8f256082dbb80ecdedf07'
p105
sg14
S'Mozilla/5.0 (Linux; Android 5.1; vivo X6D Build/LMY47I) AppleWebKit/537.36 (KHTML, like Gecko) Version/4.0 Chrome/37.0.0.0 Mobile MQQBrowser/6.8 TBS/036849 Safari/537.36 MicroMessenger/6.3.27.880 NetType/WIFI Language/zh_CN'
p106
sg16
S'cffc4f1a9edec58060e5ffa14dd7c1bf'
p107
sa(dp108
g2
S'26100'
p109
sg4
S'1330'
p110
sg6
S'3a8f168d24ee7940ce6a0c2d49953446'
p111
sg8
S'xx4bf3973b92bd0f26c28d3e9f8a6171cb'
p112
sg10
S'xx4c6804416186a82a185eb02ff2c2e960'
p113
sg12
S'xx4b560da510d8f256082dbb80ecdedf07'
p114
sg14
S'Mozilla/5.0 (Linux; Android 5.1; vivo X6D Build/LMY47I) AppleWebKit/537.36 (KHTML, like Gecko) Version/4.0 Chrome/37.0.0.0 Mobile MQQBrowser/6.8 TBS/036849 Safari/537.36 MicroMessenger/6.3.27.880 NetType/WIFI Language/zh_CN'
p115
sg16
S'cffc4f1a9edec58060e5ffa14dd7c1bf'
p116
sa(dp117
g2
S'47617'
p118
sg4
S'1361'
p119
sg6
S'c79aaf8cd2dd549616d334c1307c2091'
p120
sg8
S'xx46abab2cd73bdefb94e82af39283c96e'
p121
sg10
S'xx2f1d01a4f429bd2e0b0962919852a5c0'
p122
sg12
S'xx4b560da510d8f256082dbb80ecdedf07'
p123
sg14
S'Mozilla/5.0 (Linux; Android 5.1; vivo X6D Build/LMY47I) AppleWebKit/537.36 (KHTML, like Gecko) Version/4.0 Chrome/37.0.0.0 Mobile MQQBrowser/6.8 TBS/036849 Safari/537.36 MicroMessenger/6.3.27.880 NetType/WIFI Language/zh_CN'
p124
sg16
S'cffc4f1a9edec58060e5ffa14dd7c1bf'
p125
sa(dp126
g2
S'47617'
p127
sg4
S'1370'
p128
sg6
S'c79aaf8cd2dd549616d334c1307c2091'
p129
sg8
S'xx46abab2cd73bdefb94e82af39283c96e'
p130
sg10
S'xx2f1d01a4f429bd2e0b0962919852a5c0'
p131
sg12
S'xx4b560da510d8f256082dbb80ecdedf07'
p132
sg14
S'Mozilla/5.0 (Linux; Android 5.1; vivo X6D Build/LMY47I) AppleWebKit/537.36 (KHTML, like Gecko) Version/4.0 Chrome/37.0.0.0 Mobile MQQBrowser/6.8 TBS/036849 Safari/537.36 MicroMessenger/6.3.27.880 NetType/WIFI Language/zh_CN'
p133
sg16
S'cffc4f1a9edec58060e5ffa14dd7c1bf'
p134
sa(dp135
g2
S'26100'
p136
sg4
S'1374'
p137
sg6
S'3a8f168d24ee7940ce6a0c2d49953446'
p138
sg8
S'xx4bf3973b92bd0f26c28d3e9f8a6171cb'
p139
sg10
S'xx4c6804416186a82a185eb02ff2c2e960'
p140
sg12
S'xx4b560da510d8f256082dbb80ecdedf07'
p141
sg14
S'Mozilla/5.0 (Linux; Android 5.1; vivo X6D Build/LMY47I) AppleWebKit/537.36 (KHTML, like Gecko) Version/4.0 Chrome/37.0.0.0 Mobile MQQBrowser/6.8 TBS/036849 Safari/537.36 MicroMessenger/6.3.27.880 NetType/WIFI Language/zh_CN'
p142
sg16
S'cffc4f1a9edec58060e5ffa14dd7c1bf'
p143
sa(dp144
g2
S'26100'
p145
sg4
S'1388'
p146
sg6
S'3a8f168d24ee7940ce6a0c2d49953446'
p147
sg8
S'xx4bf3973b92bd0f26c28d3e9f8a6171cb'
p148
sg10
S'xx4c6804416186a82a185eb02ff2c2e960'
p149
sg12
S'xx4b560da510d8f256082dbb80ecdedf07'
p150
sg14
S'Mozilla/5.0 (Linux; Android 5.1; vivo X6D Build/LMY47I) AppleWebKit/537.36 (KHTML, like Gecko) Version/4.0 Chrome/37.0.0.0 Mobile MQQBrowser/6.8 TBS/036849 Safari/537.36 MicroMessenger/6.3.27.880 NetType/WIFI Language/zh_CN'
p151
sg16
S'cffc4f1a9edec58060e5ffa14dd7c1bf'
p152
sa(dp153
g2
S'26100'
p154
sg4
S'1417'
p155
sg6
S'3a8f168d24ee7940ce6a0c2d49953446'
p156
sg8
S'xx4bf3973b92bd0f26c28d3e9f8a6171cb'
p157
sg10
S'xx4c6804416186a82a185eb02ff2c2e960'
p158
sg12
S'xx4b560da510d8f256082dbb80ecdedf07'
p159
sg14
S'Mozilla/5.0 (Linux; Android 5.1; vivo X6D Build/LMY47I) AppleWebKit/537.36 (KHTML, like Gecko) Version/4.0 Chrome/37.0.0.0 Mobile MQQBrowser/6.8 TBS/036849 Safari/537.36 MicroMessenger/6.3.27.880 NetType/WIFI Language/zh_CN'
p160
sg16
S'cffc4f1a9edec58060e5ffa14dd7c1bf'
p161
sa(dp162
g2
S'26100'
p163
sg4
S'1509'
p164
sg6
S'3a8f168d24ee7940ce6a0c2d49953446'
p165
sg8
S'xx4bf3973b92bd0f26c28d3e9f8a6171cb'
p166
sg10
S'xx4c6804416186a82a185eb02ff2c2e960'
p167
sg12
S'xx4b560da510d8f256082dbb80ecdedf07'
p168
sg14
S'Mozilla/5.0 (Linux; Android 5.1; vivo X6D Build/LMY47I) AppleWebKit/537.36 (KHTML, like Gecko) Version/4.0 Chrome/37.0.0.0 Mobile MQQBrowser/6.8 TBS/036849 Safari/537.36 MicroMessenger/6.3.27.880 NetType/WIFI Language/zh_CN'
p169
sg16
S'cffc4f1a9edec58060e5ffa14dd7c1bf'
p170
sa(dp171
g2
S'26100'
p172
sg4
S'1522'
p173
sg6
S'3a8f168d24ee7940ce6a0c2d49953446'
p174
sg8
S'xx4bf3973b92bd0f26c28d3e9f8a6171cb'
p175
sg10
S'xx4c6804416186a82a185eb02ff2c2e960'
p176
sg12
S'xx4b560da510d8f256082dbb80ecdedf07'
p177
sg14
S'Mozilla/5.0 (Linux; Android 5.1; vivo X6D Build/LMY47I) AppleWebKit/537.36 (KHTML, like Gecko) Version/4.0 Chrome/37.0.0.0 Mobile MQQBrowser/6.8 TBS/036849 Safari/537.36 MicroMessenger/6.3.27.880 NetType/WIFI Language/zh_CN'
p178
sg16
S'cffc4f1a9edec58060e5ffa14dd7c1bf'
p179
sa(dp180
g2
S'47625'
p181
sg4
S'1662'
p182
sg6
S'3a8f168d24ee7940ce6a0c2d49953446'
p183
sg8
S'xx4bf3973b92bd0f26c28d3e9f8a6171cb'
p184
sg10
S'xx4c6804416186a82a185eb02ff2c2e960'
p185
sg12
S'xx4b560da510d8f256082dbb80ecdedf07'
p186
sg14
S'Mozilla/5.0 (Linux; Android 5.1; vivo X6D Build/LMY47I) AppleWebKit/537.36 (KHTML, like Gecko) Version/4.0 Chrome/37.0.0.0 Mobile MQQBrowser/6.8 TBS/036849 Safari/537.36 MicroMessenger/6.3.27.880 NetType/WIFI Language/zh_CN'
p187
sg16
S'cffc4f1a9edec58060e5ffa14dd7c1bf'
p188
sa(dp189
g2
S'28614'
p190
sg4
S'1753'
p191
sg6
S'3a8f168d24ee7940ce6a0c2d49953446'
p192
sg8
S'xx4bf3973b92bd0f26c28d3e9f8a6171cb'
p193
sg10
S'xx4c6804416186a82a185eb02ff2c2e960'
p194
sg12
S'xx4b560da510d8f256082dbb80ecdedf07'
p195
sg14
S'Mozilla/5.0 (Linux; Android 5.1; vivo X6D Build/LMY47I) AppleWebKit/537.36 (KHTML, like Gecko) Version/4.0 Chrome/37.0.0.0 Mobile MQQBrowser/6.8 TBS/036849 Safari/537.36 MicroMessenger/6.3.27.880 NetType/WIFI Language/zh_CN'
p196
sg16
S'cffc4f1a9edec58060e5ffa14dd7c1bf'
p197
sa(dp198
g2
S'28614'
p199
sg4
S'1769'
p200
sg6
S'3a8f168d24ee7940ce6a0c2d49953446'
p201
sg8
S'xx4bf3973b92bd0f26c28d3e9f8a6171cb'
p202
sg10
S'xx4c6804416186a82a185eb02ff2c2e960'
p203
sg12
S'xx4b560da510d8f256082dbb80ecdedf07'
p204
sg14
S'Mozilla/5.0 (Linux; Android 5.1; vivo X6D Build/LMY47I) AppleWebKit/537.36 (KHTML, like Gecko) Version/4.0 Chrome/37.0.0.0 Mobile MQQBrowser/6.8 TBS/036849 Safari/537.36 MicroMessenger/6.3.27.880 NetType/WIFI Language/zh_CN'
p205
sg16
S'cffc4f1a9edec58060e5ffa14dd7c1bf'
p206
sa(dp207
g2
S'27506'
p208
sg4
S'1868'
p209
sg6
S'3a8f168d24ee7940ce6a0c2d49953446'
p210
sg8
S'xx4bf3973b92bd0f26c28d3e9f8a6171cb'
p211
sg10
S'xx4c6804416186a82a185eb02ff2c2e960'
p212
sg12
S'xx4b560da510d8f256082dbb80ecdedf07'
p213
sg14
S'Mozilla/5.0 (Linux; Android 5.1; vivo X6D Build/LMY47I) AppleWebKit/537.36 (KHTML, like Gecko) Version/4.0 Chrome/37.0.0.0 Mobile MQQBrowser/6.8 TBS/036849 Safari/537.36 MicroMessenger/6.3.27.880 NetType/WIFI Language/zh_CN'
p214
sg16
S'cffc4f1a9edec58060e5ffa14dd7c1bf'
p215
sa(dp216
g2
S'30555'
p217
sg4
S'1939'
p218
sg6
S'1c9d5f1110bb0d698c2e46c485ecb775'
p219
sg8
S'xx1ae11ed78dca7227aea1190f3ee8bf6f'
p220
sg10
S'xx2f1d01a4f429bd2e0b0962919852a5c0'
p221
sg12
S'xx4b560da510d8f256082dbb80ecdedf07'
p222
sg14
S'Mozilla/5.0 (Linux; Android 5.1; vivo X6D Build/LMY47I) AppleWebKit/537.36 (KHTML, like Gecko) Version/4.0 Chrome/37.0.0.0 Mobile MQQBrowser/6.8 TBS/036849 Safari/537.36 MicroMessenger/6.3.27.880 NetType/cmnet Language/zh_CN'
p223
sg16
S'3e1ba8e8e0cd293bb63b232ec70511c0'
p224
sa(dp225
g2
S'30555'
p226
sg4
S'1959'
p227
sg6
S'1c9d5f1110bb0d698c2e46c485ecb775'
p228
sg8
S'xx1ae11ed78dca7227aea1190f3ee8bf6f'
p229
sg10
S'xx2f1d01a4f429bd2e0b0962919852a5c0'
p230
sg12
S'xx4b560da510d8f256082dbb80ecdedf07'
p231
sg14
S'Mozilla/5.0 (Linux; Android 5.1; vivo X6D Build/LMY47I) AppleWebKit/537.36 (KHTML, like Gecko) Version/4.0 Chrome/37.0.0.0 Mobile MQQBrowser/6.8 TBS/036849 Safari/537.36 MicroMessenger/6.3.27.880 NetType/cmnet Language/zh_CN'
p232
sg16
S'3e1ba8e8e0cd293bb63b232ec70511c0'
p233
sa(dp234
g2
S'38386'
p235
sg4
S'2042'
p236
sg6
S'3a8f168d24ee7940ce6a0c2d49953446'
p237
sg8
S'xx4bf3973b92bd0f26c28d3e9f8a6171cb'
p238
sg10
S'xx4c6804416186a82a185eb02ff2c2e960'
p239
sg12
S'xx4b560da510d8f256082dbb80ecdedf07'
p240
sg14
S'Mozilla/5.0 (Linux; Android 5.1; vivo X6D Build/LMY47I) AppleWebKit/537.36 (KHTML, like Gecko) Version/4.0 Chrome/37.0.0.0 Mobile MQQBrowser/6.8 TBS/036849 Safari/537.36 MicroMessenger/6.3.27.880 NetType/WIFI Language/zh_CN'
p241
sg16
S'cffc4f1a9edec58060e5ffa14dd7c1bf'
p242
sa(dp243
g2
S'6066'
p244
sg4
S'2212'
p245
sg6
S'3a8f168d24ee7940ce6a0c2d49953446'
p246
sg8
S'xx4bf3973b92bd0f26c28d3e9f8a6171cb'
p247
sg10
S'xx4c6804416186a82a185eb02ff2c2e960'
p248
sg12
S'xx4b560da510d8f256082dbb80ecdedf07'
p249
sg14
S'Mozilla/5.0 (Linux; Android 5.1; vivo X6D Build/LMY47I) AppleWebKit/537.36 (KHTML, like Gecko) Version/4.0 Chrome/37.0.0.0 Mobile MQQBrowser/6.8 TBS/036849 Safari/537.36 MicroMessenger/6.3.27.880 NetType/WIFI Language/zh_CN'
p250
sg16
S'cffc4f1a9edec58060e5ffa14dd7c1bf'
p251
sa(dp252
g2
S'6066'
p253
sg4
S'2906'
p254
sg6
S'01c6b7ef5ecbb283ce001ba7b55e0fd5'
p255
sg8
S'xx4bf3973b92bd0f26c28d3e9f8a6171cb'
p256
sg10
S'xx4c6804416186a82a185eb02ff2c2e960'
p257
sg12
S'xx4b560da510d8f256082dbb80ecdedf07'
p258
sg14
S'Mozilla/5.0 (Linux; Android 5.1; vivo X6D Build/LMY47I) AppleWebKit/537.36 (KHTML, like Gecko) Version/4.0 Chrome/37.0.0.0 Mobile MQQBrowser/6.8 TBS/036849 Safari/537.36 MicroMessenger/6.3.27.880 NetType/WIFI Language/zh_CN'
p259
sg16
S'cffc4f1a9edec58060e5ffa14dd7c1bf'
p260
sa(dp261
g2
S'6066'
p262
sg4
S'2919'
p263
sg6
S'01c6b7ef5ecbb283ce001ba7b55e0fd5'
p264
sg8
S'xx4bf3973b92bd0f26c28d3e9f8a6171cb'
p265
sg10
S'xx4c6804416186a82a185eb02ff2c2e960'
p266
sg12
S'xx4b560da510d8f256082dbb80ecdedf07'
p267
sg14
S'Mozilla/5.0 (Linux; Android 5.1; vivo X6D Build/LMY47I) AppleWebKit/537.36 (KHTML, like Gecko) Version/4.0 Chrome/37.0.0.0 Mobile MQQBrowser/6.8 TBS/036849 Safari/537.36 MicroMessenger/6.3.27.880 NetType/WIFI Language/zh_CN'
p268
sg16
S'cffc4f1a9edec58060e5ffa14dd7c1bf'
p269
sa(dp270
g2
S'6066'
p271
sg4
S'3018'
p272
sg6
S'01c6b7ef5ecbb283ce001ba7b55e0fd5'
p273
sg8
S'xx4bf3973b92bd0f26c28d3e9f8a6171cb'
p274
sg10
S'xx4c6804416186a82a185eb02ff2c2e960'
p275
sg12
S'xx4b560da510d8f256082dbb80ecdedf07'
p276
sg14
S'Mozilla/5.0 (Linux; Android 5.1; vivo X6D Build/LMY47I) AppleWebKit/537.36 (KHTML, like Gecko) Version/4.0 Chrome/37.0.0.0 Mobile MQQBrowser/6.8 TBS/036849 Safari/537.36 MicroMessenger/6.3.27.880 NetType/WIFI Language/zh_CN'
p277
sg16
S'cffc4f1a9edec58060e5ffa14dd7c1bf'
p278
sa(dp279
g2
S'6066'
p280
sg4
S'3033'
p281
sg6
S'01c6b7ef5ecbb283ce001ba7b55e0fd5'
p282
sg8
S'xx4bf3973b92bd0f26c28d3e9f8a6171cb'
p283
sg10
S'xx4c6804416186a82a185eb02ff2c2e960'
p284
sg12
S'xx4b560da510d8f256082dbb80ecdedf07'
p285
sg14
S'Mozilla/5.0 (Linux; Android 5.1; vivo X6D Build/LMY47I) AppleWebKit/537.36 (KHTML, like Gecko) Version/4.0 Chrome/37.0.0.0 Mobile MQQBrowser/6.8 TBS/036849 Safari/537.36 MicroMessenger/6.3.27.880 NetType/WIFI Language/zh_CN'
p286
sg16
S'cffc4f1a9edec58060e5ffa14dd7c1bf'
p287
sa(dp288
g2
S'6066'
p289
sg4
S'3054'
p290
sg6
S'01c6b7ef5ecbb283ce001ba7b55e0fd5'
p291
sg8
S'xx4bf3973b92bd0f26c28d3e9f8a6171cb'
p292
sg10
S'xx4c6804416186a82a185eb02ff2c2e960'
p293
sg12
S'xx4b560da510d8f256082dbb80ecdedf07'
p294
sg14
S'Mozilla/5.0 (Linux; Android 5.1; vivo X6D Build/LMY47I) AppleWebKit/537.36 (KHTML, like Gecko) Version/4.0 Chrome/37.0.0.0 Mobile MQQBrowser/6.8 TBS/036849 Safari/537.36 MicroMessenger/6.3.27.880 NetType/WIFI Language/zh_CN'
p295
sg16
S'cffc4f1a9edec58060e5ffa14dd7c1bf'
p296
sa(dp297
g2
S'6066'
p298
sg4
S'3074'
p299
sg6
S'01c6b7ef5ecbb283ce001ba7b55e0fd5'
p300
sg8
S'xx4bf3973b92bd0f26c28d3e9f8a6171cb'
p301
sg10
S'xx4c6804416186a82a185eb02ff2c2e960'
p302
sg12
S'xx4b560da510d8f256082dbb80ecdedf07'
p303
sg14
S'Mozilla/5.0 (Linux; Android 5.1; vivo X6D Build/LMY47I) AppleWebKit/537.36 (KHTML, like Gecko) Version/4.0 Chrome/37.0.0.0 Mobile MQQBrowser/6.8 TBS/036849 Safari/537.36 MicroMessenger/6.3.27.880 NetType/WIFI Language/zh_CN'
p304
sg16
S'cffc4f1a9edec58060e5ffa14dd7c1bf'
p305
sa(dp306
g2
S'6066'
p307
sg4
S'3096'
p308
sg6
S'01c6b7ef5ecbb283ce001ba7b55e0fd5'
p309
sg8
S'xx4bf3973b92bd0f26c28d3e9f8a6171cb'
p310
sg10
S'xx4c6804416186a82a185eb02ff2c2e960'
p311
sg12
S'xx4b560da510d8f256082dbb80ecdedf07'
p312
sg14
S'Mozilla/5.0 (Linux; Android 5.1; vivo X6D Build/LMY47I) AppleWebKit/537.36 (KHTML, like Gecko) Version/4.0 Chrome/37.0.0.0 Mobile MQQBrowser/6.8 TBS/036849 Safari/537.36 MicroMessenger/6.3.27.880 NetType/WIFI Language/zh_CN'
p313
sg16
S'cffc4f1a9edec58060e5ffa14dd7c1bf'
p314
sa(dp315
g2
S'6066'
p316
sg4
S'3113'
p317
sg6
S'01c6b7ef5ecbb283ce001ba7b55e0fd5'
p318
sg8
S'xx4bf3973b92bd0f26c28d3e9f8a6171cb'
p319
sg10
S'xx4c6804416186a82a185eb02ff2c2e960'
p320
sg12
S'xx4b560da510d8f256082dbb80ecdedf07'
p321
sg14
S'Mozilla/5.0 (Linux; Android 5.1; vivo X6D Build/LMY47I) AppleWebKit/537.36 (KHTML, like Gecko) Version/4.0 Chrome/37.0.0.0 Mobile MQQBrowser/6.8 TBS/036849 Safari/537.36 MicroMessenger/6.3.27.880 NetType/WIFI Language/zh_CN'
p322
sg16
S'cffc4f1a9edec58060e5ffa14dd7c1bf'
p323
sa(dp324
g2
S'6066'
p325
sg4
S'3132'
p326
sg6
S'01c6b7ef5ecbb283ce001ba7b55e0fd5'
p327
sg8
S'xx4bf3973b92bd0f26c28d3e9f8a6171cb'
p328
sg10
S'xx4c6804416186a82a185eb02ff2c2e960'
p329
sg12
S'xx4b560da510d8f256082dbb80ecdedf07'
p330
sg14
S'Mozilla/5.0 (Linux; Android 5.1; vivo X6D Build/LMY47I) AppleWebKit/537.36 (KHTML, like Gecko) Version/4.0 Chrome/37.0.0.0 Mobile MQQBrowser/6.8 TBS/036849 Safari/537.36 MicroMessenger/6.3.27.880 NetType/WIFI Language/zh_CN'
p331
sg16
S'cffc4f1a9edec58060e5ffa14dd7c1bf'
p332
sa(dp333
g2
S'6066'
p334
sg4
S'3152'
p335
sg6
S'01c6b7ef5ecbb283ce001ba7b55e0fd5'
p336
sg8
S'xx4bf3973b92bd0f26c28d3e9f8a6171cb'
p337
sg10
S'xx4c6804416186a82a185eb02ff2c2e960'
p338
sg12
S'xx4b560da510d8f256082dbb80ecdedf07'
p339
sg14
S'Mozilla/5.0 (Linux; Android 5.1; vivo X6D Build/LMY47I) AppleWebKit/537.36 (KHTML, like Gecko) Version/4.0 Chrome/37.0.0.0 Mobile MQQBrowser/6.8 TBS/036849 Safari/537.36 MicroMessenger/6.3.27.880 NetType/WIFI Language/zh_CN'
p340
sg16
S'cffc4f1a9edec58060e5ffa14dd7c1bf'
p341
sa(dp342
g2
S'6066'
p343
sg4
S'3162'
p344
sg6
S'01c6b7ef5ecbb283ce001ba7b55e0fd5'
p345
sg8
S'xx4bf3973b92bd0f26c28d3e9f8a6171cb'
p346
sg10
S'xx4c6804416186a82a185eb02ff2c2e960'
p347
sg12
S'xx4b560da510d8f256082dbb80ecdedf07'
p348
sg14
S'Mozilla/5.0 (Linux; Android 5.1; vivo X6D Build/LMY47I) AppleWebKit/537.36 (KHTML, like Gecko) Version/4.0 Chrome/37.0.0.0 Mobile MQQBrowser/6.8 TBS/036849 Safari/537.36 MicroMessenger/6.3.27.880 NetType/WIFI Language/zh_CN'
p349
sg16
S'cffc4f1a9edec58060e5ffa14dd7c1bf'
p350
sa(dp351
g2
S'6066'
p352
sg4
S'3177'
p353
sg6
S'01c6b7ef5ecbb283ce001ba7b55e0fd5'
p354
sg8
S'xx4bf3973b92bd0f26c28d3e9f8a6171cb'
p355
sg10
S'xx4c6804416186a82a185eb02ff2c2e960'
p356
sg12
S'xx4b560da510d8f256082dbb80ecdedf07'
p357
sg14
S'Mozilla/5.0 (Linux; Android 5.1; vivo X6D Build/LMY47I) AppleWebKit/537.36 (KHTML, like Gecko) Version/4.0 Chrome/37.0.0.0 Mobile MQQBrowser/6.8 TBS/036849 Safari/537.36 MicroMessenger/6.3.27.880 NetType/WIFI Language/zh_CN'
p358
sg16
S'cffc4f1a9edec58060e5ffa14dd7c1bf'
p359
sa(dp360
g2
S'6066'
p361
sg4
S'3193'
p362
sg6
S'01c6b7ef5ecbb283ce001ba7b55e0fd5'
p363
sg8
S'xx4bf3973b92bd0f26c28d3e9f8a6171cb'
p364
sg10
S'xx4c6804416186a82a185eb02ff2c2e960'
p365
sg12
S'xx4b560da510d8f256082dbb80ecdedf07'
p366
sg14
S'Mozilla/5.0 (Linux; Android 5.1; vivo X6D Build/LMY47I) AppleWebKit/537.36 (KHTML, like Gecko) Version/4.0 Chrome/37.0.0.0 Mobile MQQBrowser/6.8 TBS/036849 Safari/537.36 MicroMessenger/6.3.27.880 NetType/WIFI Language/zh_CN'
p367
sg16
S'cffc4f1a9edec58060e5ffa14dd7c1bf'
p368
sa(dp369
g2
S'6066'
p370
sg4
S'3213'
p371
sg6
S'01c6b7ef5ecbb283ce001ba7b55e0fd5'
p372
sg8
S'xx4bf3973b92bd0f26c28d3e9f8a6171cb'
p373
sg10
S'xx4c6804416186a82a185eb02ff2c2e960'
p374
sg12
S'xx4b560da510d8f256082dbb80ecdedf07'
p375
sg14
S'Mozilla/5.0 (Linux; Android 5.1; vivo X6D Build/LMY47I) AppleWebKit/537.36 (KHTML, like Gecko) Version/4.0 Chrome/37.0.0.0 Mobile MQQBrowser/6.8 TBS/036849 Safari/537.36 MicroMessenger/6.3.27.880 NetType/WIFI Language/zh_CN'
p376
sg16
S'cffc4f1a9edec58060e5ffa14dd7c1bf'
p377
sa(dp378
g2
S'6066'
p379
sg4
S'3227'
p380
sg6
S'01c6b7ef5ecbb283ce001ba7b55e0fd5'
p381
sg8
S'xx4bf3973b92bd0f26c28d3e9f8a6171cb'
p382
sg10
S'xx4c6804416186a82a185eb02ff2c2e960'
p383
sg12
S'xx4b560da510d8f256082dbb80ecdedf07'
p384
sg14
S'Mozilla/5.0 (Linux; Android 5.1; vivo X6D Build/LMY47I) AppleWebKit/537.36 (KHTML, like Gecko) Version/4.0 Chrome/37.0.0.0 Mobile MQQBrowser/6.8 TBS/036849 Safari/537.36 MicroMessenger/6.3.27.880 NetType/WIFI Language/zh_CN'
p385
sg16
S'cffc4f1a9edec58060e5ffa14dd7c1bf'
p386
sa(dp387
g2
S'6066'
p388
sg4
S'3242'
p389
sg6
S'01c6b7ef5ecbb283ce001ba7b55e0fd5'
p390
sg8
S'xx4bf3973b92bd0f26c28d3e9f8a6171cb'
p391
sg10
S'xx4c6804416186a82a185eb02ff2c2e960'
p392
sg12
S'xx4b560da510d8f256082dbb80ecdedf07'
p393
sg14
S'Mozilla/5.0 (Linux; Android 5.1; vivo X6D Build/LMY47I) AppleWebKit/537.36 (KHTML, like Gecko) Version/4.0 Chrome/37.0.0.0 Mobile MQQBrowser/6.8 TBS/036849 Safari/537.36 MicroMessenger/6.3.27.880 NetType/WIFI Language/zh_CN'
p394
sg16
S'cffc4f1a9edec58060e5ffa14dd7c1bf'
p395
sa(dp396
g2
S'6066'
p397
sg4
S'3257'
p398
sg6
S'01c6b7ef5ecbb283ce001ba7b55e0fd5'
p399
sg8
S'xx4bf3973b92bd0f26c28d3e9f8a6171cb'
p400
sg10
S'xx4c6804416186a82a185eb02ff2c2e960'
p401
sg12
S'xx4b560da510d8f256082dbb80ecdedf07'
p402
sg14
S'Mozilla/5.0 (Linux; Android 5.1; vivo X6D Build/LMY47I) AppleWebKit/537.36 (KHTML, like Gecko) Version/4.0 Chrome/37.0.0.0 Mobile MQQBrowser/6.8 TBS/036849 Safari/537.36 MicroMessenger/6.3.27.880 NetType/WIFI Language/zh_CN'
p403
sg16
S'cffc4f1a9edec58060e5ffa14dd7c1bf'
p404
sa(dp405
g2
S'6066'
p406
sg4
S'3275'
p407
sg6
S'01c6b7ef5ecbb283ce001ba7b55e0fd5'
p408
sg8
S'xx4bf3973b92bd0f26c28d3e9f8a6171cb'
p409
sg10
S'xx4c6804416186a82a185eb02ff2c2e960'
p410
sg12
S'xx4b560da510d8f256082dbb80ecdedf07'
p411
sg14
S'Mozilla/5.0 (Linux; Android 5.1; vivo X6D Build/LMY47I) AppleWebKit/537.36 (KHTML, like Gecko) Version/4.0 Chrome/37.0.0.0 Mobile MQQBrowser/6.8 TBS/036849 Safari/537.36 MicroMessenger/6.3.27.880 NetType/WIFI Language/zh_CN'
p412
sg16
S'cffc4f1a9edec58060e5ffa14dd7c1bf'
p413
sa(dp414
g2
S'6066'
p415
sg4
S'3292'
p416
sg6
S'01c6b7ef5ecbb283ce001ba7b55e0fd5'
p417
sg8
S'xx4bf3973b92bd0f26c28d3e9f8a6171cb'
p418
sg10
S'xx4c6804416186a82a185eb02ff2c2e960'
p419
sg12
S'xx4b560da510d8f256082dbb80ecdedf07'
p420
sg14
S'Mozilla/5.0 (Linux; Android 5.1; vivo X6D Build/LMY47I) AppleWebKit/537.36 (KHTML, like Gecko) Version/4.0 Chrome/37.0.0.0 Mobile MQQBrowser/6.8 TBS/036849 Safari/537.36 MicroMessenger/6.3.27.880 NetType/WIFI Language/zh_CN'
p421
sg16
S'cffc4f1a9edec58060e5ffa14dd7c1bf'
p422
sa(dp423
g2
S'6066'
p424
sg4
S'3306'
p425
sg6
S'01c6b7ef5ecbb283ce001ba7b55e0fd5'
p426
sg8
S'xx4bf3973b92bd0f26c28d3e9f8a6171cb'
p427
sg10
S'xx4c6804416186a82a185eb02ff2c2e960'
p428
sg12
S'xx4b560da510d8f256082dbb80ecdedf07'
p429
sg14
S'Mozilla/5.0 (Linux; Android 5.1; vivo X6D Build/LMY47I) AppleWebKit/537.36 (KHTML, like Gecko) Version/4.0 Chrome/37.0.0.0 Mobile MQQBrowser/6.8 TBS/036849 Safari/537.36 MicroMessenger/6.3.27.880 NetType/WIFI Language/zh_CN'
p430
sg16
S'cffc4f1a9edec58060e5ffa14dd7c1bf'
p431
sa(dp432
g2
S'6066'
p433
sg4
S'3317'
p434
sg6
S'01c6b7ef5ecbb283ce001ba7b55e0fd5'
p435
sg8
S'xx4bf3973b92bd0f26c28d3e9f8a6171cb'
p436
sg10
S'xx4c6804416186a82a185eb02ff2c2e960'
p437
sg12
S'xx4b560da510d8f256082dbb80ecdedf07'
p438
sg14
S'Mozilla/5.0 (Linux; Android 5.1; vivo X6D Build/LMY47I) AppleWebKit/537.36 (KHTML, like Gecko) Version/4.0 Chrome/37.0.0.0 Mobile MQQBrowser/6.8 TBS/036849 Safari/537.36 MicroMessenger/6.3.27.880 NetType/WIFI Language/zh_CN'
p439
sg16
S'cffc4f1a9edec58060e5ffa14dd7c1bf'
p440
sa(dp441
g2
S'6066'
p442
sg4
S'3324'
p443
sg6
S'01c6b7ef5ecbb283ce001ba7b55e0fd5'
p444
sg8
S'xx4bf3973b92bd0f26c28d3e9f8a6171cb'
p445
sg10
S'xx4c6804416186a82a185eb02ff2c2e960'
p446
sg12
S'xx4b560da510d8f256082dbb80ecdedf07'
p447
sg14
S'Mozilla/5.0 (Linux; Android 5.1; vivo X6D Build/LMY47I) AppleWebKit/537.36 (KHTML, like Gecko) Version/4.0 Chrome/37.0.0.0 Mobile MQQBrowser/6.8 TBS/036849 Safari/537.36 MicroMessenger/6.3.27.880 NetType/WIFI Language/zh_CN'
p448
sg16
S'cffc4f1a9edec58060e5ffa14dd7c1bf'
p449
sa(dp450
g2
S'6066'
p451
sg4
S'3336'
p452
sg6
S'01c6b7ef5ecbb283ce001ba7b55e0fd5'
p453
sg8
S'xx4bf3973b92bd0f26c28d3e9f8a6171cb'
p454
sg10
S'xx4c6804416186a82a185eb02ff2c2e960'
p455
sg12
S'xx4b560da510d8f256082dbb80ecdedf07'
p456
sg14
S'Mozilla/5.0 (Linux; Android 5.1; vivo X6D Build/LMY47I) AppleWebKit/537.36 (KHTML, like Gecko) Version/4.0 Chrome/37.0.0.0 Mobile MQQBrowser/6.8 TBS/036849 Safari/537.36 MicroMessenger/6.3.27.880 NetType/WIFI Language/zh_CN'
p457
sg16
S'cffc4f1a9edec58060e5ffa14dd7c1bf'
p458
sa(dp459
g2
S'6066'
p460
sg4
S'3350'
p461
sg6
S'01c6b7ef5ecbb283ce001ba7b55e0fd5'
p462
sg8
S'xx4bf3973b92bd0f26c28d3e9f8a6171cb'
p463
sg10
S'xx4c6804416186a82a185eb02ff2c2e960'
p464
sg12
S'xx4b560da510d8f256082dbb80ecdedf07'
p465
sg14
S'Mozilla/5.0 (Linux; Android 5.1; vivo X6D Build/LMY47I) AppleWebKit/537.36 (KHTML, like Gecko) Version/4.0 Chrome/37.0.0.0 Mobile MQQBrowser/6.8 TBS/036849 Safari/537.36 MicroMessenger/6.3.27.880 NetType/WIFI Language/zh_CN'
p466
sg16
S'cffc4f1a9edec58060e5ffa14dd7c1bf'
p467
sa(dp468
g2
S'6066'
p469
sg4
S'3373'
p470
sg6
S'01c6b7ef5ecbb283ce001ba7b55e0fd5'
p471
sg8
S'xx4bf3973b92bd0f26c28d3e9f8a6171cb'
p472
sg10
S'xx4c6804416186a82a185eb02ff2c2e960'
p473
sg12
S'xx4b560da510d8f256082dbb80ecdedf07'
p474
sg14
S'Mozilla/5.0 (Linux; Android 5.1; vivo X6D Build/LMY47I) AppleWebKit/537.36 (KHTML, like Gecko) Version/4.0 Chrome/37.0.0.0 Mobile MQQBrowser/6.8 TBS/036849 Safari/537.36 MicroMessenger/6.3.27.880 NetType/WIFI Language/zh_CN'
p475
sg16
S'cffc4f1a9edec58060e5ffa14dd7c1bf'
p476
sa(dp477
g2
S'6066'
p478
sg4
S'3394'
p479
sg6
S'01c6b7ef5ecbb283ce001ba7b55e0fd5'
p480
sg8
S'xx4bf3973b92bd0f26c28d3e9f8a6171cb'
p481
sg10
S'xx4c6804416186a82a185eb02ff2c2e960'
p482
sg12
S'xx4b560da510d8f256082dbb80ecdedf07'
p483
sg14
S'Mozilla/5.0 (Linux; Android 5.1; vivo X6D Build/LMY47I) AppleWebKit/537.36 (KHTML, like Gecko) Version/4.0 Chrome/37.0.0.0 Mobile MQQBrowser/6.8 TBS/036849 Safari/537.36 MicroMessenger/6.3.27.880 NetType/WIFI Language/zh_CN'
p484
sg16
S'cffc4f1a9edec58060e5ffa14dd7c1bf'
p485
sa(dp486
g2
S'6066'
p487
sg4
S'3409'
p488
sg6
S'01c6b7ef5ecbb283ce001ba7b55e0fd5'
p489
sg8
S'xx4bf3973b92bd0f26c28d3e9f8a6171cb'
p490
sg10
S'xx4c6804416186a82a185eb02ff2c2e960'
p491
sg12
S'xx4b560da510d8f256082dbb80ecdedf07'
p492
sg14
S'Mozilla/5.0 (Linux; Android 5.1; vivo X6D Build/LMY47I) AppleWebKit/537.36 (KHTML, like Gecko) Version/4.0 Chrome/37.0.0.0 Mobile MQQBrowser/6.8 TBS/036849 Safari/537.36 MicroMessenger/6.3.27.880 NetType/WIFI Language/zh_CN'
p493
sg16
S'cffc4f1a9edec58060e5ffa14dd7c1bf'
p494
sa(dp495
g2
S'6066'
p496
sg4
S'3423'
p497
sg6
S'01c6b7ef5ecbb283ce001ba7b55e0fd5'
p498
sg8
S'xx4bf3973b92bd0f26c28d3e9f8a6171cb'
p499
sg10
S'xx4c6804416186a82a185eb02ff2c2e960'
p500
sg12
S'xx4b560da510d8f256082dbb80ecdedf07'
p501
sg14
S'Mozilla/5.0 (Linux; Android 5.1; vivo X6D Build/LMY47I) AppleWebKit/537.36 (KHTML, like Gecko) Version/4.0 Chrome/37.0.0.0 Mobile MQQBrowser/6.8 TBS/036849 Safari/537.36 MicroMessenger/6.3.27.880 NetType/WIFI Language/zh_CN'
p502
sg16
S'cffc4f1a9edec58060e5ffa14dd7c1bf'
p503
sa(dp504
g2
S'6066'
p505
sg4
S'3441'
p506
sg6
S'01c6b7ef5ecbb283ce001ba7b55e0fd5'
p507
sg8
S'xx4bf3973b92bd0f26c28d3e9f8a6171cb'
p508
sg10
S'xx4c6804416186a82a185eb02ff2c2e960'
p509
sg12
S'xx4b560da510d8f256082dbb80ecdedf07'
p510
sg14
S'Mozilla/5.0 (Linux; Android 5.1; vivo X6D Build/LMY47I) AppleWebKit/537.36 (KHTML, like Gecko) Version/4.0 Chrome/37.0.0.0 Mobile MQQBrowser/6.8 TBS/036849 Safari/537.36 MicroMessenger/6.3.27.880 NetType/WIFI Language/zh_CN'
p511
sg16
S'cffc4f1a9edec58060e5ffa14dd7c1bf'
p512
sa(dp513
g2
S'6066'
p514
sg4
S'3458'
p515
sg6
S'01c6b7ef5ecbb283ce001ba7b55e0fd5'
p516
sg8
S'xx4bf3973b92bd0f26c28d3e9f8a6171cb'
p517
sg10
S'xx4c6804416186a82a185eb02ff2c2e960'
p518
sg12
S'xx4b560da510d8f256082dbb80ecdedf07'
p519
sg14
S'Mozilla/5.0 (Linux; Android 5.1; vivo X6D Build/LMY47I) AppleWebKit/537.36 (KHTML, like Gecko) Version/4.0 Chrome/37.0.0.0 Mobile MQQBrowser/6.8 TBS/036849 Safari/537.36 MicroMessenger/6.3.27.880 NetType/WIFI Language/zh_CN'
p520
sg16
S'cffc4f1a9edec58060e5ffa14dd7c1bf'
p521
sa(dp522
g2
S'6066'
p523
sg4
S'3475'
p524
sg6
S'01c6b7ef5ecbb283ce001ba7b55e0fd5'
p525
sg8
S'xx4bf3973b92bd0f26c28d3e9f8a6171cb'
p526
sg10
S'xx4c6804416186a82a185eb02ff2c2e960'
p527
sg12
S'xx4b560da510d8f256082dbb80ecdedf07'
p528
sg14
S'Mozilla/5.0 (Linux; Android 5.1; vivo X6D Build/LMY47I) AppleWebKit/537.36 (KHTML, like Gecko) Version/4.0 Chrome/37.0.0.0 Mobile MQQBrowser/6.8 TBS/036849 Safari/537.36 MicroMessenger/6.3.27.880 NetType/WIFI Language/zh_CN'
p529
sg16
S'cffc4f1a9edec58060e5ffa14dd7c1bf'
p530
sa(dp531
g2
S'6066'
p532
sg4
S'3496'
p533
sg6
S'01c6b7ef5ecbb283ce001ba7b55e0fd5'
p534
sg8
S'xx4bf3973b92bd0f26c28d3e9f8a6171cb'
p535
sg10
S'xx4c6804416186a82a185eb02ff2c2e960'
p536
sg12
S'xx4b560da510d8f256082dbb80ecdedf07'
p537
sg14
S'Mozilla/5.0 (Linux; Android 5.1; vivo X6D Build/LMY47I) AppleWebKit/537.36 (KHTML, like Gecko) Version/4.0 Chrome/37.0.0.0 Mobile MQQBrowser/6.8 TBS/036849 Safari/537.36 MicroMessenger/6.3.27.880 NetType/WIFI Language/zh_CN'
p538
sg16
S'cffc4f1a9edec58060e5ffa14dd7c1bf'
p539
sa(dp540
g2
S'6066'
p541
sg4
S'3509'
p542
sg6
S'01c6b7ef5ecbb283ce001ba7b55e0fd5'
p543
sg8
S'xx4bf3973b92bd0f26c28d3e9f8a6171cb'
p544
sg10
S'xx4c6804416186a82a185eb02ff2c2e960'
p545
sg12
S'xx4b560da510d8f256082dbb80ecdedf07'
p546
sg14
S'Mozilla/5.0 (Linux; Android 5.1; vivo X6D Build/LMY47I) AppleWebKit/537.36 (KHTML, like Gecko) Version/4.0 Chrome/37.0.0.0 Mobile MQQBrowser/6.8 TBS/036849 Safari/537.36 MicroMessenger/6.3.27.880 NetType/WIFI Language/zh_CN'
p547
sg16
S'cffc4f1a9edec58060e5ffa14dd7c1bf'
p548
sa(dp549
g2
S'6066'
p550
sg4
S'3526'
p551
sg6
S'01c6b7ef5ecbb283ce001ba7b55e0fd5'
p552
sg8
S'xx4bf3973b92bd0f26c28d3e9f8a6171cb'
p553
sg10
S'xx4c6804416186a82a185eb02ff2c2e960'
p554
sg12
S'xx4b560da510d8f256082dbb80ecdedf07'
p555
sg14
S'Mozilla/5.0 (Linux; Android 5.1; vivo X6D Build/LMY47I) AppleWebKit/537.36 (KHTML, like Gecko) Version/4.0 Chrome/37.0.0.0 Mobile MQQBrowser/6.8 TBS/036849 Safari/537.36 MicroMessenger/6.3.27.880 NetType/WIFI Language/zh_CN'
p556
sg16
S'cffc4f1a9edec58060e5ffa14dd7c1bf'
p557
sa(dp558
g2
S'6066'
p559
sg4
S'3538'
p560
sg6
S'01c6b7ef5ecbb283ce001ba7b55e0fd5'
p561
sg8
S'xx4bf3973b92bd0f26c28d3e9f8a6171cb'
p562
sg10
S'xx4c6804416186a82a185eb02ff2c2e960'
p563
sg12
S'xx4b560da510d8f256082dbb80ecdedf07'
p564
sg14
S'Mozilla/5.0 (Linux; Android 5.1; vivo X6D Build/LMY47I) AppleWebKit/537.36 (KHTML, like Gecko) Version/4.0 Chrome/37.0.0.0 Mobile MQQBrowser/6.8 TBS/036849 Safari/537.36 MicroMessenger/6.3.27.880 NetType/WIFI Language/zh_CN'
p565
sg16
S'cffc4f1a9edec58060e5ffa14dd7c1bf'
p566
sa(dp567
g2
S'6066'
p568
sg4
S'3556'
p569
sg6
S'01c6b7ef5ecbb283ce001ba7b55e0fd5'
p570
sg8
S'xx4bf3973b92bd0f26c28d3e9f8a6171cb'
p571
sg10
S'xx4c6804416186a82a185eb02ff2c2e960'
p572
sg12
S'xx4b560da510d8f256082dbb80ecdedf07'
p573
sg14
S'Mozilla/5.0 (Linux; Android 5.1; vivo X6D Build/LMY47I) AppleWebKit/537.36 (KHTML, like Gecko) Version/4.0 Chrome/37.0.0.0 Mobile MQQBrowser/6.8 TBS/036849 Safari/537.36 MicroMessenger/6.3.27.880 NetType/WIFI Language/zh_CN'
p574
sg16
S'cffc4f1a9edec58060e5ffa14dd7c1bf'
p575
sa(dp576
g2
S'6066'
p577
sg4
S'3572'
p578
sg6
S'01c6b7ef5ecbb283ce001ba7b55e0fd5'
p579
sg8
S'xx4bf3973b92bd0f26c28d3e9f8a6171cb'
p580
sg10
S'xx4c6804416186a82a185eb02ff2c2e960'
p581
sg12
S'xx4b560da510d8f256082dbb80ecdedf07'
p582
sg14
S'Mozilla/5.0 (Linux; Android 5.1; vivo X6D Build/LMY47I) AppleWebKit/537.36 (KHTML, like Gecko) Version/4.0 Chrome/37.0.0.0 Mobile MQQBrowser/6.8 TBS/036849 Safari/537.36 MicroMessenger/6.3.27.880 NetType/WIFI Language/zh_CN'
p583
sg16
S'cffc4f1a9edec58060e5ffa14dd7c1bf'
p584
sa(dp585
g2
S'6066'
p586
sg4
S'3591'
p587
sg6
S'01c6b7ef5ecbb283ce001ba7b55e0fd5'
p588
sg8
S'xx4bf3973b92bd0f26c28d3e9f8a6171cb'
p589
sg10
S'xx4c6804416186a82a185eb02ff2c2e960'
p590
sg12
S'xx4b560da510d8f256082dbb80ecdedf07'
p591
sg14
S'Mozilla/5.0 (Linux; Android 5.1; vivo X6D Build/LMY47I) AppleWebKit/537.36 (KHTML, like Gecko) Version/4.0 Chrome/37.0.0.0 Mobile MQQBrowser/6.8 TBS/036849 Safari/537.36 MicroMessenger/6.3.27.880 NetType/WIFI Language/zh_CN'
p592
sg16
S'cffc4f1a9edec58060e5ffa14dd7c1bf'
p593
sa(dp594
g2
S'6066'
p595
sg4
S'3604'
p596
sg6
S'01c6b7ef5ecbb283ce001ba7b55e0fd5'
p597
sg8
S'xx4bf3973b92bd0f26c28d3e9f8a6171cb'
p598
sg10
S'xx4c6804416186a82a185eb02ff2c2e960'
p599
sg12
S'xx4b560da510d8f256082dbb80ecdedf07'
p600
sg14
S'Mozilla/5.0 (Linux; Android 5.1; vivo X6D Build/LMY47I) AppleWebKit/537.36 (KHTML, like Gecko) Version/4.0 Chrome/37.0.0.0 Mobile MQQBrowser/6.8 TBS/036849 Safari/537.36 MicroMessenger/6.3.27.880 NetType/WIFI Language/zh_CN'
p601
sg16
S'cffc4f1a9edec58060e5ffa14dd7c1bf'
p602
sa(dp603
g2
S'6066'
p604
sg4
S'3622'
p605
sg6
S'01c6b7ef5ecbb283ce001ba7b55e0fd5'
p606
sg8
S'xx4bf3973b92bd0f26c28d3e9f8a6171cb'
p607
sg10
S'xx4c6804416186a82a185eb02ff2c2e960'
p608
sg12
S'xx4b560da510d8f256082dbb80ecdedf07'
p609
sg14
S'Mozilla/5.0 (Linux; Android 5.1; vivo X6D Build/LMY47I) AppleWebKit/537.36 (KHTML, like Gecko) Version/4.0 Chrome/37.0.0.0 Mobile MQQBrowser/6.8 TBS/036849 Safari/537.36 MicroMessenger/6.3.27.880 NetType/WIFI Language/zh_CN'
p610
sg16
S'cffc4f1a9edec58060e5ffa14dd7c1bf'
p611
sa(dp612
g2
S'6066'
p613
sg4
S'3638'
p614
sg6
S'01c6b7ef5ecbb283ce001ba7b55e0fd5'
p615
sg8
S'xx4bf3973b92bd0f26c28d3e9f8a6171cb'
p616
sg10
S'xx4c6804416186a82a185eb02ff2c2e960'
p617
sg12
S'xx4b560da510d8f256082dbb80ecdedf07'
p618
sg14
S'Mozilla/5.0 (Linux; Android 5.1; vivo X6D Build/LMY47I) AppleWebKit/537.36 (KHTML, like Gecko) Version/4.0 Chrome/37.0.0.0 Mobile MQQBrowser/6.8 TBS/036849 Safari/537.36 MicroMessenger/6.3.27.880 NetType/WIFI Language/zh_CN'
p619
sg16
S'cffc4f1a9edec58060e5ffa14dd7c1bf'
p620
sa(dp621
g2
S'6066'
p622
sg4
S'3652'
p623
sg6
S'01c6b7ef5ecbb283ce001ba7b55e0fd5'
p624
sg8
S'xx4bf3973b92bd0f26c28d3e9f8a6171cb'
p625
sg10
S'xx4c6804416186a82a185eb02ff2c2e960'
p626
sg12
S'xx4b560da510d8f256082dbb80ecdedf07'
p627
sg14
S'Mozilla/5.0 (Linux; Android 5.1; vivo X6D Build/LMY47I) AppleWebKit/537.36 (KHTML, like Gecko) Version/4.0 Chrome/37.0.0.0 Mobile MQQBrowser/6.8 TBS/036849 Safari/537.36 MicroMessenger/6.3.27.880 NetType/WIFI Language/zh_CN'
p628
sg16
S'cffc4f1a9edec58060e5ffa14dd7c1bf'
p629
sa(dp630
g2
S'6066'
p631
sg4
S'3667'
p632
sg6
S'01c6b7ef5ecbb283ce001ba7b55e0fd5'
p633
sg8
S'xx4bf3973b92bd0f26c28d3e9f8a6171cb'
p634
sg10
S'xx4c6804416186a82a185eb02ff2c2e960'
p635
sg12
S'xx4b560da510d8f256082dbb80ecdedf07'
p636
sg14
S'Mozilla/5.0 (Linux; Android 5.1; vivo X6D Build/LMY47I) AppleWebKit/537.36 (KHTML, like Gecko) Version/4.0 Chrome/37.0.0.0 Mobile MQQBrowser/6.8 TBS/036849 Safari/537.36 MicroMessenger/6.3.27.880 NetType/WIFI Language/zh_CN'
p637
sg16
S'cffc4f1a9edec58060e5ffa14dd7c1bf'
p638
sa(dp639
g2
S'6066'
p640
sg4
S'3681'
p641
sg6
S'01c6b7ef5ecbb283ce001ba7b55e0fd5'
p642
sg8
S'xx4bf3973b92bd0f26c28d3e9f8a6171cb'
p643
sg10
S'xx4c6804416186a82a185eb02ff2c2e960'
p644
sg12
S'xx4b560da510d8f256082dbb80ecdedf07'
p645
sg14
S'Mozilla/5.0 (Linux; Android 5.1; vivo X6D Build/LMY47I) AppleWebKit/537.36 (KHTML, like Gecko) Version/4.0 Chrome/37.0.0.0 Mobile MQQBrowser/6.8 TBS/036849 Safari/537.36 MicroMessenger/6.3.27.880 NetType/WIFI Language/zh_CN'
p646
sg16
S'cffc4f1a9edec58060e5ffa14dd7c1bf'
p647
sa(dp648
g2
S'6066'
p649
sg4
S'3696'
p650
sg6
S'01c6b7ef5ecbb283ce001ba7b55e0fd5'
p651
sg8
S'xx4bf3973b92bd0f26c28d3e9f8a6171cb'
p652
sg10
S'xx4c6804416186a82a185eb02ff2c2e960'
p653
sg12
S'xx4b560da510d8f256082dbb80ecdedf07'
p654
sg14
S'Mozilla/5.0 (Linux; Android 5.1; vivo X6D Build/LMY47I) AppleWebKit/537.36 (KHTML, like Gecko) Version/4.0 Chrome/37.0.0.0 Mobile MQQBrowser/6.8 TBS/036849 Safari/537.36 MicroMessenger/6.3.27.880 NetType/WIFI Language/zh_CN'
p655
sg16
S'cffc4f1a9edec58060e5ffa14dd7c1bf'
p656
sa(dp657
g2
S'6066'
p658
sg4
S'3713'
p659
sg6
S'01c6b7ef5ecbb283ce001ba7b55e0fd5'
p660
sg8
S'xx4bf3973b92bd0f26c28d3e9f8a6171cb'
p661
sg10
S'xx4c6804416186a82a185eb02ff2c2e960'
p662
sg12
S'xx4b560da510d8f256082dbb80ecdedf07'
p663
sg14
S'Mozilla/5.0 (Linux; Android 5.1; vivo X6D Build/LMY47I) AppleWebKit/537.36 (KHTML, like Gecko) Version/4.0 Chrome/37.0.0.0 Mobile MQQBrowser/6.8 TBS/036849 Safari/537.36 MicroMessenger/6.3.27.880 NetType/WIFI Language/zh_CN'
p664
sg16
S'cffc4f1a9edec58060e5ffa14dd7c1bf'
p665
sa(dp666
g2
S'6066'
p667
sg4
S'3734'
p668
sg6
S'01c6b7ef5ecbb283ce001ba7b55e0fd5'
p669
sg8
S'xx4bf3973b92bd0f26c28d3e9f8a6171cb'
p670
sg10
S'xx4c6804416186a82a185eb02ff2c2e960'
p671
sg12
S'xx4b560da510d8f256082dbb80ecdedf07'
p672
sg14
S'Mozilla/5.0 (Linux; Android 5.1; vivo X6D Build/LMY47I) AppleWebKit/537.36 (KHTML, like Gecko) Version/4.0 Chrome/37.0.0.0 Mobile MQQBrowser/6.8 TBS/036849 Safari/537.36 MicroMessenger/6.3.27.880 NetType/WIFI Language/zh_CN'
p673
sg16
S'cffc4f1a9edec58060e5ffa14dd7c1bf'
p674
sa(dp675
g2
S'6066'
p676
sg4
S'3754'
p677
sg6
S'01c6b7ef5ecbb283ce001ba7b55e0fd5'
p678
sg8
S'xx4bf3973b92bd0f26c28d3e9f8a6171cb'
p679
sg10
S'xx4c6804416186a82a185eb02ff2c2e960'
p680
sg12
S'xx4b560da510d8f256082dbb80ecdedf07'
p681
sg14
S'Mozilla/5.0 (Linux; Android 5.1; vivo X6D Build/LMY47I) AppleWebKit/537.36 (KHTML, like Gecko) Version/4.0 Chrome/37.0.0.0 Mobile MQQBrowser/6.8 TBS/036849 Safari/537.36 MicroMessenger/6.3.27.880 NetType/WIFI Language/zh_CN'
p682
sg16
S'cffc4f1a9edec58060e5ffa14dd7c1bf'
p683
sa(dp684
g2
S'6066'
p685
sg4
S'3775'
p686
sg6
S'01c6b7ef5ecbb283ce001ba7b55e0fd5'
p687
sg8
S'xx4bf3973b92bd0f26c28d3e9f8a6171cb'
p688
sg10
S'xx4c6804416186a82a185eb02ff2c2e960'
p689
sg12
S'xx4b560da510d8f256082dbb80ecdedf07'
p690
sg14
S'Mozilla/5.0 (Linux; Android 5.1; vivo X6D Build/LMY47I) AppleWebKit/537.36 (KHTML, like Gecko) Version/4.0 Chrome/37.0.0.0 Mobile MQQBrowser/6.8 TBS/036849 Safari/537.36 MicroMessenger/6.3.27.880 NetType/WIFI Language/zh_CN'
p691
sg16
S'cffc4f1a9edec58060e5ffa14dd7c1bf'
p692
sa(dp693
g2
S'6066'
p694
sg4
S'3790'
p695
sg6
S'01c6b7ef5ecbb283ce001ba7b55e0fd5'
p696
sg8
S'xx4bf3973b92bd0f26c28d3e9f8a6171cb'
p697
sg10
S'xx4c6804416186a82a185eb02ff2c2e960'
p698
sg12
S'xx4b560da510d8f256082dbb80ecdedf07'
p699
sg14
S'Mozilla/5.0 (Linux; Android 5.1; vivo X6D Build/LMY47I) AppleWebKit/537.36 (KHTML, like Gecko) Version/4.0 Chrome/37.0.0.0 Mobile MQQBrowser/6.8 TBS/036849 Safari/537.36 MicroMessenger/6.3.27.880 NetType/WIFI Language/zh_CN'
p700
sg16
S'cffc4f1a9edec58060e5ffa14dd7c1bf'
p701
sa(dp702
g2
S'6066'
p703
sg4
S'3806'
p704
sg6
S'01c6b7ef5ecbb283ce001ba7b55e0fd5'
p705
sg8
S'xx4bf3973b92bd0f26c28d3e9f8a6171cb'
p706
sg10
S'xx4c6804416186a82a185eb02ff2c2e960'
p707
sg12
S'xx4b560da510d8f256082dbb80ecdedf07'
p708
sg14
S'Mozilla/5.0 (Linux; Android 5.1; vivo X6D Build/LMY47I) AppleWebKit/537.36 (KHTML, like Gecko) Version/4.0 Chrome/37.0.0.0 Mobile MQQBrowser/6.8 TBS/036849 Safari/537.36 MicroMessenger/6.3.27.880 NetType/WIFI Language/zh_CN'
p709
sg16
S'cffc4f1a9edec58060e5ffa14dd7c1bf'
p710
sa(dp711
g2
S'6066'
p712
sg4
S'3826'
p713
sg6
S'01c6b7ef5ecbb283ce001ba7b55e0fd5'
p714
sg8
S'xx4bf3973b92bd0f26c28d3e9f8a6171cb'
p715
sg10
S'xx4c6804416186a82a185eb02ff2c2e960'
p716
sg12
S'xx4b560da510d8f256082dbb80ecdedf07'
p717
sg14
S'Mozilla/5.0 (Linux; Android 5.1; vivo X6D Build/LMY47I) AppleWebKit/537.36 (KHTML, like Gecko) Version/4.0 Chrome/37.0.0.0 Mobile MQQBrowser/6.8 TBS/036849 Safari/537.36 MicroMessenger/6.3.27.880 NetType/WIFI Language/zh_CN'
p718
sg16
S'cffc4f1a9edec58060e5ffa14dd7c1bf'
p719
sa(dp720
g2
S'6066'
p721
sg4
S'3849'
p722
sg6
S'01c6b7ef5ecbb283ce001ba7b55e0fd5'
p723
sg8
S'xx4bf3973b92bd0f26c28d3e9f8a6171cb'
p724
sg10
S'xx4c6804416186a82a185eb02ff2c2e960'
p725
sg12
S'xx4b560da510d8f256082dbb80ecdedf07'
p726
sg14
S'Mozilla/5.0 (Linux; Android 5.1; vivo X6D Build/LMY47I) AppleWebKit/537.36 (KHTML, like Gecko) Version/4.0 Chrome/37.0.0.0 Mobile MQQBrowser/6.8 TBS/036849 Safari/537.36 MicroMessenger/6.3.27.880 NetType/WIFI Language/zh_CN'
p727
sg16
S'cffc4f1a9edec58060e5ffa14dd7c1bf'
p728
sa(dp729
g2
S'6066'
p730
sg4
S'3869'
p731
sg6
S'01c6b7ef5ecbb283ce001ba7b55e0fd5'
p732
sg8
S'xx4bf3973b92bd0f26c28d3e9f8a6171cb'
p733
sg10
S'xx4c6804416186a82a185eb02ff2c2e960'
p734
sg12
S'xx4b560da510d8f256082dbb80ecdedf07'
p735
sg14
S'Mozilla/5.0 (Linux; Android 5.1; vivo X6D Build/LMY47I) AppleWebKit/537.36 (KHTML, like Gecko) Version/4.0 Chrome/37.0.0.0 Mobile MQQBrowser/6.8 TBS/036849 Safari/537.36 MicroMessenger/6.3.27.880 NetType/WIFI Language/zh_CN'
p736
sg16
S'cffc4f1a9edec58060e5ffa14dd7c1bf'
p737
sa(dp738
g2
S'6066'
p739
sg4
S'3892'
p740
sg6
S'01c6b7ef5ecbb283ce001ba7b55e0fd5'
p741
sg8
S'xx4bf3973b92bd0f26c28d3e9f8a6171cb'
p742
sg10
S'xx4c6804416186a82a185eb02ff2c2e960'
p743
sg12
S'xx4b560da510d8f256082dbb80ecdedf07'
p744
sg14
S'Mozilla/5.0 (Linux; Android 5.1; vivo X6D Build/LMY47I) AppleWebKit/537.36 (KHTML, like Gecko) Version/4.0 Chrome/37.0.0.0 Mobile MQQBrowser/6.8 TBS/036849 Safari/537.36 MicroMessenger/6.3.27.880 NetType/WIFI Language/zh_CN'
p745
sg16
S'cffc4f1a9edec58060e5ffa14dd7c1bf'
p746
sa(dp747
g2
S'6066'
p748
sg4
S'3915'
p749
sg6
S'01c6b7ef5ecbb283ce001ba7b55e0fd5'
p750
sg8
S'xx4bf3973b92bd0f26c28d3e9f8a6171cb'
p751
sg10
S'xx4c6804416186a82a185eb02ff2c2e960'
p752
sg12
S'xx4b560da510d8f256082dbb80ecdedf07'
p753
sg14
S'Mozilla/5.0 (Linux; Android 5.1; vivo X6D Build/LMY47I) AppleWebKit/537.36 (KHTML, like Gecko) Version/4.0 Chrome/37.0.0.0 Mobile MQQBrowser/6.8 TBS/036849 Safari/537.36 MicroMessenger/6.3.27.880 NetType/WIFI Language/zh_CN'
p754
sg16
S'cffc4f1a9edec58060e5ffa14dd7c1bf'
p755
sa(dp756
g2
S'6066'
p757
sg4
S'3939'
p758
sg6
S'01c6b7ef5ecbb283ce001ba7b55e0fd5'
p759
sg8
S'xx4bf3973b92bd0f26c28d3e9f8a6171cb'
p760
sg10
S'xx4c6804416186a82a185eb02ff2c2e960'
p761
sg12
S'xx4b560da510d8f256082dbb80ecdedf07'
p762
sg14
S'Mozilla/5.0 (Linux; Android 5.1; vivo X6D Build/LMY47I) AppleWebKit/537.36 (KHTML, like Gecko) Version/4.0 Chrome/37.0.0.0 Mobile MQQBrowser/6.8 TBS/036849 Safari/537.36 MicroMessenger/6.3.27.880 NetType/WIFI Language/zh_CN'
p763
sg16
S'cffc4f1a9edec58060e5ffa14dd7c1bf'
p764
sa(dp765
g2
S'6066'
p766
sg4
S'3961'
p767
sg6
S'01c6b7ef5ecbb283ce001ba7b55e0fd5'
p768
sg8
S'xx4bf3973b92bd0f26c28d3e9f8a6171cb'
p769
sg10
S'xx4c6804416186a82a185eb02ff2c2e960'
p770
sg12
S'xx4b560da510d8f256082dbb80ecdedf07'
p771
sg14
S'Mozilla/5.0 (Linux; Android 5.1; vivo X6D Build/LMY47I) AppleWebKit/537.36 (KHTML, like Gecko) Version/4.0 Chrome/37.0.0.0 Mobile MQQBrowser/6.8 TBS/036849 Safari/537.36 MicroMessenger/6.3.27.880 NetType/WIFI Language/zh_CN'
p772
sg16
S'cffc4f1a9edec58060e5ffa14dd7c1bf'
p773
sa(dp774
g2
S'6066'
p775
sg4
S'3980'
p776
sg6
S'01c6b7ef5ecbb283ce001ba7b55e0fd5'
p777
sg8
S'xx4bf3973b92bd0f26c28d3e9f8a6171cb'
p778
sg10
S'xx4c6804416186a82a185eb02ff2c2e960'
p779
sg12
S'xx4b560da510d8f256082dbb80ecdedf07'
p780
sg14
S'Mozilla/5.0 (Linux; Android 5.1; vivo X6D Build/LMY47I) AppleWebKit/537.36 (KHTML, like Gecko) Version/4.0 Chrome/37.0.0.0 Mobile MQQBrowser/6.8 TBS/036849 Safari/537.36 MicroMessenger/6.3.27.880 NetType/WIFI Language/zh_CN'
p781
sg16
S'cffc4f1a9edec58060e5ffa14dd7c1bf'
p782
sa(dp783
g2
S'6066'
p784
sg4
S'3998'
p785
sg6
S'01c6b7ef5ecbb283ce001ba7b55e0fd5'
p786
sg8
S'xx4bf3973b92bd0f26c28d3e9f8a6171cb'
p787
sg10
S'xx4c6804416186a82a185eb02ff2c2e960'
p788
sg12
S'xx4b560da510d8f256082dbb80ecdedf07'
p789
sg14
S'Mozilla/5.0 (Linux; Android 5.1; vivo X6D Build/LMY47I) AppleWebKit/537.36 (KHTML, like Gecko) Version/4.0 Chrome/37.0.0.0 Mobile MQQBrowser/6.8 TBS/036849 Safari/537.36 MicroMessenger/6.3.27.880 NetType/WIFI Language/zh_CN'
p790
sg16
S'cffc4f1a9edec58060e5ffa14dd7c1bf'
p791
sa(dp792
g2
S'6066'
p793
sg4
S'4017'
p794
sg6
S'01c6b7ef5ecbb283ce001ba7b55e0fd5'
p795
sg8
S'xx4bf3973b92bd0f26c28d3e9f8a6171cb'
p796
sg10
S'xx4c6804416186a82a185eb02ff2c2e960'
p797
sg12
S'xx4b560da510d8f256082dbb80ecdedf07'
p798
sg14
S'Mozilla/5.0 (Linux; Android 5.1; vivo X6D Build/LMY47I) AppleWebKit/537.36 (KHTML, like Gecko) Version/4.0 Chrome/37.0.0.0 Mobile MQQBrowser/6.8 TBS/036849 Safari/537.36 MicroMessenger/6.3.27.880 NetType/WIFI Language/zh_CN'
p799
sg16
S'cffc4f1a9edec58060e5ffa14dd7c1bf'
p800
sa(dp801
g2
S'43495'
p802
sg4
S'4023'
p803
sg6
S'da483ddb1df7c41182fb82462b464082'
p804
sg8
S'xx7b662f012a9bcbdcfcbf07e75f5c05d5'
p805
sg10
S'xxed0fc20f75f0b2ef8ff467062b527ae3'
p806
sg12
S'xx4b560da510d8f256082dbb80ecdedf07'
p807
sg14
S'Mozilla/5.0 (Linux; Android 5.1; vivo X6D Build/LMY47I) AppleWebKit/537.36 (KHTML, like Gecko) Version/4.0 Chrome/37.0.0.0 Mobile MQQBrowser/6.8 TBS/036824 Safari/537.36 MicroMessenger/6.3.27.880 NetType/3gnet Language/zh_CN'
p808
sg16
S'9c82f4caba395717047096ea4274444f'
p809
sa(dp810
g2
S'43495'
p811
sg4
S'4038'
p812
sg6
S'da483ddb1df7c41182fb82462b464082'
p813
sg8
S'xx7b662f012a9bcbdcfcbf07e75f5c05d5'
p814
sg10
S'xxed0fc20f75f0b2ef8ff467062b527ae3'
p815
sg12
S'xx4b560da510d8f256082dbb80ecdedf07'
p816
sg14
S'Mozilla/5.0 (Linux; Android 5.1; vivo X6D Build/LMY47I) AppleWebKit/537.36 (KHTML, like Gecko) Version/4.0 Chrome/37.0.0.0 Mobile MQQBrowser/6.8 TBS/036824 Safari/537.36 MicroMessenger/6.3.27.880 NetType/3gnet Language/zh_CN'
p817
sg16
S'9c82f4caba395717047096ea4274444f'
p818
sa(dp819
g2
S'27506'
p820
sg4
S'4212'
p821
sg6
S'01c6b7ef5ecbb283ce001ba7b55e0fd5'
p822
sg8
S'xx4bf3973b92bd0f26c28d3e9f8a6171cb'
p823
sg10
S'xx4c6804416186a82a185eb02ff2c2e960'
p824
sg12
S'xx4b560da510d8f256082dbb80ecdedf07'
p825
sg14
S'Mozilla/5.0 (Linux; Android 5.1; vivo X6D Build/LMY47I) AppleWebKit/537.36 (KHTML, like Gecko) Version/4.0 Chrome/37.0.0.0 Mobile MQQBrowser/6.8 TBS/036849 Safari/537.36 MicroMessenger/6.3.27.880 NetType/WIFI Language/zh_CN'
p826
sg16
S'cffc4f1a9edec58060e5ffa14dd7c1bf'
p827
sa(dp828
g2
S'27506'
p829
sg4
S'4231'
p830
sg6
S'01c6b7ef5ecbb283ce001ba7b55e0fd5'
p831
sg8
S'xx4bf3973b92bd0f26c28d3e9f8a6171cb'
p832
sg10
S'xx4c6804416186a82a185eb02ff2c2e960'
p833
sg12
S'xx4b560da510d8f256082dbb80ecdedf07'
p834
sg14
S'Mozilla/5.0 (Linux; Android 5.1; vivo X6D Build/LMY47I) AppleWebKit/537.36 (KHTML, like Gecko) Version/4.0 Chrome/37.0.0.0 Mobile MQQBrowser/6.8 TBS/036849 Safari/537.36 MicroMessenger/6.3.27.880 NetType/WIFI Language/zh_CN'
p835
sg16
S'cffc4f1a9edec58060e5ffa14dd7c1bf'
p836
sa(dp837
g2
S'27506'
p838
sg4
S'4292'
p839
sg6
S'01c6b7ef5ecbb283ce001ba7b55e0fd5'
p840
sg8
S'xx4bf3973b92bd0f26c28d3e9f8a6171cb'
p841
sg10
S'xx4c6804416186a82a185eb02ff2c2e960'
p842
sg12
S'xx4b560da510d8f256082dbb80ecdedf07'
p843
sg14
S'Mozilla/5.0 (Linux; Android 5.1; vivo X6D Build/LMY47I) AppleWebKit/537.36 (KHTML, like Gecko) Version/4.0 Chrome/37.0.0.0 Mobile MQQBrowser/6.8 TBS/036849 Safari/537.36 MicroMessenger/6.3.27.880 NetType/WIFI Language/zh_CN'
p844
sg16
S'cffc4f1a9edec58060e5ffa14dd7c1bf'
p845
sa(dp846
g2
S'27506'
p847
sg4
S'4308'
p848
sg6
S'01c6b7ef5ecbb283ce001ba7b55e0fd5'
p849
sg8
S'xx4bf3973b92bd0f26c28d3e9f8a6171cb'
p850
sg10
S'xx4c6804416186a82a185eb02ff2c2e960'
p851
sg12
S'xx4b560da510d8f256082dbb80ecdedf07'
p852
sg14
S'Mozilla/5.0 (Linux; Android 5.1; vivo X6D Build/LMY47I) AppleWebKit/537.36 (KHTML, like Gecko) Version/4.0 Chrome/37.0.0.0 Mobile MQQBrowser/6.8 TBS/036849 Safari/537.36 MicroMessenger/6.3.27.880 NetType/WIFI Language/zh_CN'
p853
sg16
S'cffc4f1a9edec58060e5ffa14dd7c1bf'
p854
sa(dp855
g2
S'27506'
p856
sg4
S'4328'
p857
sg6
S'01c6b7ef5ecbb283ce001ba7b55e0fd5'
p858
sg8
S'xx4bf3973b92bd0f26c28d3e9f8a6171cb'
p859
sg10
S'xx4c6804416186a82a185eb02ff2c2e960'
p860
sg12
S'xx4b560da510d8f256082dbb80ecdedf07'
p861
sg14
S'Mozilla/5.0 (Linux; Android 5.1; vivo X6D Build/LMY47I) AppleWebKit/537.36 (KHTML, like Gecko) Version/4.0 Chrome/37.0.0.0 Mobile MQQBrowser/6.8 TBS/036849 Safari/537.36 MicroMessenger/6.3.27.880 NetType/WIFI Language/zh_CN'
p862
sg16
S'cffc4f1a9edec58060e5ffa14dd7c1bf'
p863
sa(dp864
g2
S'27506'
p865
sg4
S'4349'
p866
sg6
S'01c6b7ef5ecbb283ce001ba7b55e0fd5'
p867
sg8
S'xx4bf3973b92bd0f26c28d3e9f8a6171cb'
p868
sg10
S'xx4c6804416186a82a185eb02ff2c2e960'
p869
sg12
S'xx4b560da510d8f256082dbb80ecdedf07'
p870
sg14
S'Mozilla/5.0 (Linux; Android 5.1; vivo X6D Build/LMY47I) AppleWebKit/537.36 (KHTML, like Gecko) Version/4.0 Chrome/37.0.0.0 Mobile MQQBrowser/6.8 TBS/036849 Safari/537.36 MicroMessenger/6.3.27.880 NetType/WIFI Language/zh_CN'
p871
sg16
S'cffc4f1a9edec58060e5ffa14dd7c1bf'
p872
sa(dp873
g2
S'27506'
p874
sg4
S'4374'
p875
sg6
S'01c6b7ef5ecbb283ce001ba7b55e0fd5'
p876
sg8
S'xx4bf3973b92bd0f26c28d3e9f8a6171cb'
p877
sg10
S'xx4c6804416186a82a185eb02ff2c2e960'
p878
sg12
S'xx4b560da510d8f256082dbb80ecdedf07'
p879
sg14
S'Mozilla/5.0 (Linux; Android 5.1; vivo X6D Build/LMY47I) AppleWebKit/537.36 (KHTML, like Gecko) Version/4.0 Chrome/37.0.0.0 Mobile MQQBrowser/6.8 TBS/036849 Safari/537.36 MicroMessenger/6.3.27.880 NetType/WIFI Language/zh_CN'
p880
sg16
S'cffc4f1a9edec58060e5ffa14dd7c1bf'
p881
sa(dp882
g2
S'27506'
p883
sg4
S'4403'
p884
sg6
S'01c6b7ef5ecbb283ce001ba7b55e0fd5'
p885
sg8
S'xx4bf3973b92bd0f26c28d3e9f8a6171cb'
p886
sg10
S'xx4c6804416186a82a185eb02ff2c2e960'
p887
sg12
S'xx4b560da510d8f256082dbb80ecdedf07'
p888
sg14
S'Mozilla/5.0 (Linux; Android 5.1; vivo X6D Build/LMY47I) AppleWebKit/537.36 (KHTML, like Gecko) Version/4.0 Chrome/37.0.0.0 Mobile MQQBrowser/6.8 TBS/036849 Safari/537.36 MicroMessenger/6.3.27.880 NetType/WIFI Language/zh_CN'
p889
sg16
S'cffc4f1a9edec58060e5ffa14dd7c1bf'
p890
sa(dp891
g2
S'27506'
p892
sg4
S'4429'
p893
sg6
S'01c6b7ef5ecbb283ce001ba7b55e0fd5'
p894
sg8
S'xx4bf3973b92bd0f26c28d3e9f8a6171cb'
p895
sg10
S'xx4c6804416186a82a185eb02ff2c2e960'
p896
sg12
S'xx4b560da510d8f256082dbb80ecdedf07'
p897
sg14
S'Mozilla/5.0 (Linux; Android 5.1; vivo X6D Build/LMY47I) AppleWebKit/537.36 (KHTML, like Gecko) Version/4.0 Chrome/37.0.0.0 Mobile MQQBrowser/6.8 TBS/036849 Safari/537.36 MicroMessenger/6.3.27.880 NetType/WIFI Language/zh_CN'
p898
sg16
S'cffc4f1a9edec58060e5ffa14dd7c1bf'
p899
sa(dp900
g2
S'27506'
p901
sg4
S'4447'
p902
sg6
S'01c6b7ef5ecbb283ce001ba7b55e0fd5'
p903
sg8
S'xx4bf3973b92bd0f26c28d3e9f8a6171cb'
p904
sg10
S'xx4c6804416186a82a185eb02ff2c2e960'
p905
sg12
S'xx4b560da510d8f256082dbb80ecdedf07'
p906
sg14
S'Mozilla/5.0 (Linux; Android 5.1; vivo X6D Build/LMY47I) AppleWebKit/537.36 (KHTML, like Gecko) Version/4.0 Chrome/37.0.0.0 Mobile MQQBrowser/6.8 TBS/036849 Safari/537.36 MicroMessenger/6.3.27.880 NetType/WIFI Language/zh_CN'
p907
sg16
S'cffc4f1a9edec58060e5ffa14dd7c1bf'
p908
sa(dp909
g2
S'27506'
p910
sg4
S'4468'
p911
sg6
S'01c6b7ef5ecbb283ce001ba7b55e0fd5'
p912
sg8
S'xx4bf3973b92bd0f26c28d3e9f8a6171cb'
p913
sg10
S'xx4c6804416186a82a185eb02ff2c2e960'
p914
sg12
S'xx4b560da510d8f256082dbb80ecdedf07'
p915
sg14
S'Mozilla/5.0 (Linux; Android 5.1; vivo X6D Build/LMY47I) AppleWebKit/537.36 (KHTML, like Gecko) Version/4.0 Chrome/37.0.0.0 Mobile MQQBrowser/6.8 TBS/036849 Safari/537.36 MicroMessenger/6.3.27.880 NetType/WIFI Language/zh_CN'
p916
sg16
S'cffc4f1a9edec58060e5ffa14dd7c1bf'
p917
sa(dp918
g2
S'27506'
p919
sg4
S'4489'
p920
sg6
S'01c6b7ef5ecbb283ce001ba7b55e0fd5'
p921
sg8
S'xx4bf3973b92bd0f26c28d3e9f8a6171cb'
p922
sg10
S'xx4c6804416186a82a185eb02ff2c2e960'
p923
sg12
S'xx4b560da510d8f256082dbb80ecdedf07'
p924
sg14
S'Mozilla/5.0 (Linux; Android 5.1; vivo X6D Build/LMY47I) AppleWebKit/537.36 (KHTML, like Gecko) Version/4.0 Chrome/37.0.0.0 Mobile MQQBrowser/6.8 TBS/036849 Safari/537.36 MicroMessenger/6.3.27.880 NetType/WIFI Language/zh_CN'
p925
sg16
S'cffc4f1a9edec58060e5ffa14dd7c1bf'
p926
sa(dp927
g2
S'27506'
p928
sg4
S'4506'
p929
sg6
S'01c6b7ef5ecbb283ce001ba7b55e0fd5'
p930
sg8
S'xx4bf3973b92bd0f26c28d3e9f8a6171cb'
p931
sg10
S'xx4c6804416186a82a185eb02ff2c2e960'
p932
sg12
S'xx4b560da510d8f256082dbb80ecdedf07'
p933
sg14
S'Mozilla/5.0 (Linux; Android 5.1; vivo X6D Build/LMY47I) AppleWebKit/537.36 (KHTML, like Gecko) Version/4.0 Chrome/37.0.0.0 Mobile MQQBrowser/6.8 TBS/036849 Safari/537.36 MicroMessenger/6.3.27.880 NetType/WIFI Language/zh_CN'
p934
sg16
S'cffc4f1a9edec58060e5ffa14dd7c1bf'
p935
sa(dp936
g2
S'27506'
p937
sg4
S'4536'
p938
sg6
S'01c6b7ef5ecbb283ce001ba7b55e0fd5'
p939
sg8
S'xx4bf3973b92bd0f26c28d3e9f8a6171cb'
p940
sg10
S'xx4c6804416186a82a185eb02ff2c2e960'
p941
sg12
S'xx4b560da510d8f256082dbb80ecdedf07'
p942
sg14
S'Mozilla/5.0 (Linux; Android 5.1; vivo X6D Build/LMY47I) AppleWebKit/537.36 (KHTML, like Gecko) Version/4.0 Chrome/37.0.0.0 Mobile MQQBrowser/6.8 TBS/036849 Safari/537.36 MicroMessenger/6.3.27.880 NetType/WIFI Language/zh_CN'
p943
sg16
S'cffc4f1a9edec58060e5ffa14dd7c1bf'
p944
sa(dp945
g2
S'27506'
p946
sg4
S'4562'
p947
sg6
S'01c6b7ef5ecbb283ce001ba7b55e0fd5'
p948
sg8
S'xx4bf3973b92bd0f26c28d3e9f8a6171cb'
p949
sg10
S'xx4c6804416186a82a185eb02ff2c2e960'
p950
sg12
S'xx4b560da510d8f256082dbb80ecdedf07'
p951
sg14
S'Mozilla/5.0 (Linux; Android 5.1; vivo X6D Build/LMY47I) AppleWebKit/537.36 (KHTML, like Gecko) Version/4.0 Chrome/37.0.0.0 Mobile MQQBrowser/6.8 TBS/036849 Safari/537.36 MicroMessenger/6.3.27.880 NetType/WIFI Language/zh_CN'
p952
sg16
S'cffc4f1a9edec58060e5ffa14dd7c1bf'
p953
sa(dp954
g2
S'27506'
p955
sg4
S'4589'
p956
sg6
S'01c6b7ef5ecbb283ce001ba7b55e0fd5'
p957
sg8
S'xx4bf3973b92bd0f26c28d3e9f8a6171cb'
p958
sg10
S'xx4c6804416186a82a185eb02ff2c2e960'
p959
sg12
S'xx4b560da510d8f256082dbb80ecdedf07'
p960
sg14
S'Mozilla/5.0 (Linux; Android 5.1; vivo X6D Build/LMY47I) AppleWebKit/537.36 (KHTML, like Gecko) Version/4.0 Chrome/37.0.0.0 Mobile MQQBrowser/6.8 TBS/036849 Safari/537.36 MicroMessenger/6.3.27.880 NetType/WIFI Language/zh_CN'
p961
sg16
S'cffc4f1a9edec58060e5ffa14dd7c1bf'
p962
sa(dp963
g2
S'27506'
p964
sg4
S'4608'
p965
sg6
S'01c6b7ef5ecbb283ce001ba7b55e0fd5'
p966
sg8
S'xx4bf3973b92bd0f26c28d3e9f8a6171cb'
p967
sg10
S'xx4c6804416186a82a185eb02ff2c2e960'
p968
sg12
S'xx4b560da510d8f256082dbb80ecdedf07'
p969
sg14
S'Mozilla/5.0 (Linux; Android 5.1; vivo X6D Build/LMY47I) AppleWebKit/537.36 (KHTML, like Gecko) Version/4.0 Chrome/37.0.0.0 Mobile MQQBrowser/6.8 TBS/036849 Safari/537.36 MicroMessenger/6.3.27.880 NetType/WIFI Language/zh_CN'
p970
sg16
S'cffc4f1a9edec58060e5ffa14dd7c1bf'
p971
sa(dp972
g2
S'27506'
p973
sg4
S'4624'
p974
sg6
S'01c6b7ef5ecbb283ce001ba7b55e0fd5'
p975
sg8
S'xx4bf3973b92bd0f26c28d3e9f8a6171cb'
p976
sg10
S'xx4c6804416186a82a185eb02ff2c2e960'
p977
sg12
S'xx4b560da510d8f256082dbb80ecdedf07'
p978
sg14
S'Mozilla/5.0 (Linux; Android 5.1; vivo X6D Build/LMY47I) AppleWebKit/537.36 (KHTML, like Gecko) Version/4.0 Chrome/37.0.0.0 Mobile MQQBrowser/6.8 TBS/036849 Safari/537.36 MicroMessenger/6.3.27.880 NetType/WIFI Language/zh_CN'
p979
sg16
S'cffc4f1a9edec58060e5ffa14dd7c1bf'
p980
sa(dp981
g2
S'27506'
p982
sg4
S'4640'
p983
sg6
S'01c6b7ef5ecbb283ce001ba7b55e0fd5'
p984
sg8
S'xx4bf3973b92bd0f26c28d3e9f8a6171cb'
p985
sg10
S'xx4c6804416186a82a185eb02ff2c2e960'
p986
sg12
S'xx4b560da510d8f256082dbb80ecdedf07'
p987
sg14
S'Mozilla/5.0 (Linux; Android 5.1; vivo X6D Build/LMY47I) AppleWebKit/537.36 (KHTML, like Gecko) Version/4.0 Chrome/37.0.0.0 Mobile MQQBrowser/6.8 TBS/036849 Safari/537.36 MicroMessenger/6.3.27.880 NetType/WIFI Language/zh_CN'
p988
sg16
S'cffc4f1a9edec58060e5ffa14dd7c1bf'
p989
sa(dp990
g2
S'27506'
p991
sg4
S'4658'
p992
sg6
S'01c6b7ef5ecbb283ce001ba7b55e0fd5'
p993
sg8
S'xx4bf3973b92bd0f26c28d3e9f8a6171cb'
p994
sg10
S'xx4c6804416186a82a185eb02ff2c2e960'
p995
sg12
S'xx4b560da510d8f256082dbb80ecdedf07'
p996
sg14
S'Mozilla/5.0 (Linux; Android 5.1; vivo X6D Build/LMY47I) AppleWebKit/537.36 (KHTML, like Gecko) Version/4.0 Chrome/37.0.0.0 Mobile MQQBrowser/6.8 TBS/036849 Safari/537.36 MicroMessenger/6.3.27.880 NetType/WIFI Language/zh_CN'
p997
sg16
S'cffc4f1a9edec58060e5ffa14dd7c1bf'
p998
sa(dp999
g2
S'27506'
p1000
sg4
S'4676'
p1001
sg6
S'01c6b7ef5ecbb283ce001ba7b55e0fd5'
p1002
sg8
S'xx4bf3973b92bd0f26c28d3e9f8a6171cb'
p1003
sg10
S'xx4c6804416186a82a185eb02ff2c2e960'
p1004
sg12
S'xx4b560da510d8f256082dbb80ecdedf07'
p1005
sg14
S'Mozilla/5.0 (Linux; Android 5.1; vivo X6D Build/LMY47I) AppleWebKit/537.36 (KHTML, like Gecko) Version/4.0 Chrome/37.0.0.0 Mobile MQQBrowser/6.8 TBS/036849 Safari/537.36 MicroMessenger/6.3.27.880 NetType/WIFI Language/zh_CN'
p1006
sg16
S'cffc4f1a9edec58060e5ffa14dd7c1bf'
p1007
sa(dp1008
g2
S'27506'
p1009
sg4
S'4696'
p1010
sg6
S'01c6b7ef5ecbb283ce001ba7b55e0fd5'
p1011
sg8
S'xx4bf3973b92bd0f26c28d3e9f8a6171cb'
p1012
sg10
S'xx4c6804416186a82a185eb02ff2c2e960'
p1013
sg12
S'xx4b560da510d8f256082dbb80ecdedf07'
p1014
sg14
S'Mozilla/5.0 (Linux; Android 5.1; vivo X6D Build/LMY47I) AppleWebKit/537.36 (KHTML, like Gecko) Version/4.0 Chrome/37.0.0.0 Mobile MQQBrowser/6.8 TBS/036849 Safari/537.36 MicroMessenger/6.3.27.880 NetType/WIFI Language/zh_CN'
p1015
sg16
S'cffc4f1a9edec58060e5ffa14dd7c1bf'
p1016
sa(dp1017
g2
S'27506'
p1018
sg4
S'4716'
p1019
sg6
S'01c6b7ef5ecbb283ce001ba7b55e0fd5'
p1020
sg8
S'xx4bf3973b92bd0f26c28d3e9f8a6171cb'
p1021
sg10
S'xx4c6804416186a82a185eb02ff2c2e960'
p1022
sg12
S'xx4b560da510d8f256082dbb80ecdedf07'
p1023
sg14
S'Mozilla/5.0 (Linux; Android 5.1; vivo X6D Build/LMY47I) AppleWebKit/537.36 (KHTML, like Gecko) Version/4.0 Chrome/37.0.0.0 Mobile MQQBrowser/6.8 TBS/036849 Safari/537.36 MicroMessenger/6.3.27.880 NetType/WIFI Language/zh_CN'
p1024
sg16
S'cffc4f1a9edec58060e5ffa14dd7c1bf'
p1025
sa(dp1026
g2
S'27506'
p1027
sg4
S'4733'
p1028
sg6
S'01c6b7ef5ecbb283ce001ba7b55e0fd5'
p1029
sg8
S'xx4bf3973b92bd0f26c28d3e9f8a6171cb'
p1030
sg10
S'xx4c6804416186a82a185eb02ff2c2e960'
p1031
sg12
S'xx4b560da510d8f256082dbb80ecdedf07'
p1032
sg14
S'Mozilla/5.0 (Linux; Android 5.1; vivo X6D Build/LMY47I) AppleWebKit/537.36 (KHTML, like Gecko) Version/4.0 Chrome/37.0.0.0 Mobile MQQBrowser/6.8 TBS/036849 Safari/537.36 MicroMessenger/6.3.27.880 NetType/WIFI Language/zh_CN'
p1033
sg16
S'cffc4f1a9edec58060e5ffa14dd7c1bf'
p1034
sa(dp1035
g2
S'27506'
p1036
sg4
S'4752'
p1037
sg6
S'01c6b7ef5ecbb283ce001ba7b55e0fd5'
p1038
sg8
S'xx4bf3973b92bd0f26c28d3e9f8a6171cb'
p1039
sg10
S'xx4c6804416186a82a185eb02ff2c2e960'
p1040
sg12
S'xx4b560da510d8f256082dbb80ecdedf07'
p1041
sg14
S'Mozilla/5.0 (Linux; Android 5.1; vivo X6D Build/LMY47I) AppleWebKit/537.36 (KHTML, like Gecko) Version/4.0 Chrome/37.0.0.0 Mobile MQQBrowser/6.8 TBS/036849 Safari/537.36 MicroMessenger/6.3.27.880 NetType/WIFI Language/zh_CN'
p1042
sg16
S'cffc4f1a9edec58060e5ffa14dd7c1bf'
p1043
sa(dp1044
g2
S'27506'
p1045
sg4
S'4766'
p1046
sg6
S'01c6b7ef5ecbb283ce001ba7b55e0fd5'
p1047
sg8
S'xx4bf3973b92bd0f26c28d3e9f8a6171cb'
p1048
sg10
S'xx4c6804416186a82a185eb02ff2c2e960'
p1049
sg12
S'xx4b560da510d8f256082dbb80ecdedf07'
p1050
sg14
S'Mozilla/5.0 (Linux; Android 5.1; vivo X6D Build/LMY47I) AppleWebKit/537.36 (KHTML, like Gecko) Version/4.0 Chrome/37.0.0.0 Mobile MQQBrowser/6.8 TBS/036849 Safari/537.36 MicroMessenger/6.3.27.880 NetType/WIFI Language/zh_CN'
p1051
sg16
S'cffc4f1a9edec58060e5ffa14dd7c1bf'
p1052
sa(dp1053
g2
S'27506'
p1054
sg4
S'4783'
p1055
sg6
S'01c6b7ef5ecbb283ce001ba7b55e0fd5'
p1056
sg8
S'xx4bf3973b92bd0f26c28d3e9f8a6171cb'
p1057
sg10
S'xx4c6804416186a82a185eb02ff2c2e960'
p1058
sg12
S'xx4b560da510d8f256082dbb80ecdedf07'
p1059
sg14
S'Mozilla/5.0 (Linux; Android 5.1; vivo X6D Build/LMY47I) AppleWebKit/537.36 (KHTML, like Gecko) Version/4.0 Chrome/37.0.0.0 Mobile MQQBrowser/6.8 TBS/036849 Safari/537.36 MicroMessenger/6.3.27.880 NetType/WIFI Language/zh_CN'
p1060
sg16
S'cffc4f1a9edec58060e5ffa14dd7c1bf'
p1061
sa(dp1062
g2
S'27506'
p1063
sg4
S'4798'
p1064
sg6
S'01c6b7ef5ecbb283ce001ba7b55e0fd5'
p1065
sg8
S'xx4bf3973b92bd0f26c28d3e9f8a6171cb'
p1066
sg10
S'xx4c6804416186a82a185eb02ff2c2e960'
p1067
sg12
S'xx4b560da510d8f256082dbb80ecdedf07'
p1068
sg14
S'Mozilla/5.0 (Linux; Android 5.1; vivo X6D Build/LMY47I) AppleWebKit/537.36 (KHTML, like Gecko) Version/4.0 Chrome/37.0.0.0 Mobile MQQBrowser/6.8 TBS/036849 Safari/537.36 MicroMessenger/6.3.27.880 NetType/WIFI Language/zh_CN'
p1069
sg16
S'cffc4f1a9edec58060e5ffa14dd7c1bf'
p1070
sa(dp1071
g2
S'27506'
p1072
sg4
S'4815'
p1073
sg6
S'01c6b7ef5ecbb283ce001ba7b55e0fd5'
p1074
sg8
S'xx4bf3973b92bd0f26c28d3e9f8a6171cb'
p1075
sg10
S'xx4c6804416186a82a185eb02ff2c2e960'
p1076
sg12
S'xx4b560da510d8f256082dbb80ecdedf07'
p1077
sg14
S'Mozilla/5.0 (Linux; Android 5.1; vivo X6D Build/LMY47I) AppleWebKit/537.36 (KHTML, like Gecko) Version/4.0 Chrome/37.0.0.0 Mobile MQQBrowser/6.8 TBS/036849 Safari/537.36 MicroMessenger/6.3.27.880 NetType/WIFI Language/zh_CN'
p1078
sg16
S'cffc4f1a9edec58060e5ffa14dd7c1bf'
p1079
sa(dp1080
g2
S'27506'
p1081
sg4
S'4831'
p1082
sg6
S'01c6b7ef5ecbb283ce001ba7b55e0fd5'
p1083
sg8
S'xx4bf3973b92bd0f26c28d3e9f8a6171cb'
p1084
sg10
S'xx4c6804416186a82a185eb02ff2c2e960'
p1085
sg12
S'xx4b560da510d8f256082dbb80ecdedf07'
p1086
sg14
S'Mozilla/5.0 (Linux; Android 5.1; vivo X6D Build/LMY47I) AppleWebKit/537.36 (KHTML, like Gecko) Version/4.0 Chrome/37.0.0.0 Mobile MQQBrowser/6.8 TBS/036849 Safari/537.36 MicroMessenger/6.3.27.880 NetType/WIFI Language/zh_CN'
p1087
sg16
S'cffc4f1a9edec58060e5ffa14dd7c1bf'
p1088
sa(dp1089
g2
S'27506'
p1090
sg4
S'4851'
p1091
sg6
S'01c6b7ef5ecbb283ce001ba7b55e0fd5'
p1092
sg8
S'xx4bf3973b92bd0f26c28d3e9f8a6171cb'
p1093
sg10
S'xx4c6804416186a82a185eb02ff2c2e960'
p1094
sg12
S'xx4b560da510d8f256082dbb80ecdedf07'
p1095
sg14
S'Mozilla/5.0 (Linux; Android 5.1; vivo X6D Build/LMY47I) AppleWebKit/537.36 (KHTML, like Gecko) Version/4.0 Chrome/37.0.0.0 Mobile MQQBrowser/6.8 TBS/036849 Safari/537.36 MicroMessenger/6.3.27.880 NetType/WIFI Language/zh_CN'
p1096
sg16
S'cffc4f1a9edec58060e5ffa14dd7c1bf'
p1097
sa(dp1098
g2
S'27506'
p1099
sg4
S'4871'
p1100
sg6
S'01c6b7ef5ecbb283ce001ba7b55e0fd5'
p1101
sg8
S'xx4bf3973b92bd0f26c28d3e9f8a6171cb'
p1102
sg10
S'xx4c6804416186a82a185eb02ff2c2e960'
p1103
sg12
S'xx4b560da510d8f256082dbb80ecdedf07'
p1104
sg14
S'Mozilla/5.0 (Linux; Android 5.1; vivo X6D Build/LMY47I) AppleWebKit/537.36 (KHTML, like Gecko) Version/4.0 Chrome/37.0.0.0 Mobile MQQBrowser/6.8 TBS/036849 Safari/537.36 MicroMessenger/6.3.27.880 NetType/WIFI Language/zh_CN'
p1105
sg16
S'cffc4f1a9edec58060e5ffa14dd7c1bf'
p1106
sa(dp1107
g2
S'27506'
p1108
sg4
S'4894'
p1109
sg6
S'01c6b7ef5ecbb283ce001ba7b55e0fd5'
p1110
sg8
S'xx4bf3973b92bd0f26c28d3e9f8a6171cb'
p1111
sg10
S'xx4c6804416186a82a185eb02ff2c2e960'
p1112
sg12
S'xx4b560da510d8f256082dbb80ecdedf07'
p1113
sg14
S'Mozilla/5.0 (Linux; Android 5.1; vivo X6D Build/LMY47I) AppleWebKit/537.36 (KHTML, like Gecko) Version/4.0 Chrome/37.0.0.0 Mobile MQQBrowser/6.8 TBS/036849 Safari/537.36 MicroMessenger/6.3.27.880 NetType/WIFI Language/zh_CN'
p1114
sg16
S'cffc4f1a9edec58060e5ffa14dd7c1bf'
p1115
sa(dp1116
g2
S'27506'
p1117
sg4
S'4910'
p1118
sg6
S'01c6b7ef5ecbb283ce001ba7b55e0fd5'
p1119
sg8
S'xx4bf3973b92bd0f26c28d3e9f8a6171cb'
p1120
sg10
S'xx4c6804416186a82a185eb02ff2c2e960'
p1121
sg12
S'xx4b560da510d8f256082dbb80ecdedf07'
p1122
sg14
S'Mozilla/5.0 (Linux; Android 5.1; vivo X6D Build/LMY47I) AppleWebKit/537.36 (KHTML, like Gecko) Version/4.0 Chrome/37.0.0.0 Mobile MQQBrowser/6.8 TBS/036849 Safari/537.36 MicroMessenger/6.3.27.880 NetType/WIFI Language/zh_CN'
p1123
sg16
S'cffc4f1a9edec58060e5ffa14dd7c1bf'
p1124
sa(dp1125
g2
S'27506'
p1126
sg4
S'4924'
p1127
sg6
S'01c6b7ef5ecbb283ce001ba7b55e0fd5'
p1128
sg8
S'xx4bf3973b92bd0f26c28d3e9f8a6171cb'
p1129
sg10
S'xx4c6804416186a82a185eb02ff2c2e960'
p1130
sg12
S'xx4b560da510d8f256082dbb80ecdedf07'
p1131
sg14
S'Mozilla/5.0 (Linux; Android 5.1; vivo X6D Build/LMY47I) AppleWebKit/537.36 (KHTML, like Gecko) Version/4.0 Chrome/37.0.0.0 Mobile MQQBrowser/6.8 TBS/036849 Safari/537.36 MicroMessenger/6.3.27.880 NetType/WIFI Language/zh_CN'
p1132
sg16
S'cffc4f1a9edec58060e5ffa14dd7c1bf'
p1133
sa(dp1134
g2
S'27506'
p1135
sg4
S'4934'
p1136
sg6
S'01c6b7ef5ecbb283ce001ba7b55e0fd5'
p1137
sg8
S'xx4bf3973b92bd0f26c28d3e9f8a6171cb'
p1138
sg10
S'xx4c6804416186a82a185eb02ff2c2e960'
p1139
sg12
S'xx4b560da510d8f256082dbb80ecdedf07'
p1140
sg14
S'Mozilla/5.0 (Linux; Android 5.1; vivo X6D Build/LMY47I) AppleWebKit/537.36 (KHTML, like Gecko) Version/4.0 Chrome/37.0.0.0 Mobile MQQBrowser/6.8 TBS/036849 Safari/537.36 MicroMessenger/6.3.27.880 NetType/WIFI Language/zh_CN'
p1141
sg16
S'cffc4f1a9edec58060e5ffa14dd7c1bf'
p1142
sa(dp1143
g2
S'27506'
p1144
sg4
S'4951'
p1145
sg6
S'01c6b7ef5ecbb283ce001ba7b55e0fd5'
p1146
sg8
S'xx4bf3973b92bd0f26c28d3e9f8a6171cb'
p1147
sg10
S'xx4c6804416186a82a185eb02ff2c2e960'
p1148
sg12
S'xx4b560da510d8f256082dbb80ecdedf07'
p1149
sg14
S'Mozilla/5.0 (Linux; Android 5.1; vivo X6D Build/LMY47I) AppleWebKit/537.36 (KHTML, like Gecko) Version/4.0 Chrome/37.0.0.0 Mobile MQQBrowser/6.8 TBS/036849 Safari/537.36 MicroMessenger/6.3.27.880 NetType/WIFI Language/zh_CN'
p1150
sg16
S'cffc4f1a9edec58060e5ffa14dd7c1bf'
p1151
sa(dp1152
g2
S'27506'
p1153
sg4
S'4968'
p1154
sg6
S'01c6b7ef5ecbb283ce001ba7b55e0fd5'
p1155
sg8
S'xx4bf3973b92bd0f26c28d3e9f8a6171cb'
p1156
sg10
S'xx4c6804416186a82a185eb02ff2c2e960'
p1157
sg12
S'xx4b560da510d8f256082dbb80ecdedf07'
p1158
sg14
S'Mozilla/5.0 (Linux; Android 5.1; vivo X6D Build/LMY47I) AppleWebKit/537.36 (KHTML, like Gecko) Version/4.0 Chrome/37.0.0.0 Mobile MQQBrowser/6.8 TBS/036849 Safari/537.36 MicroMessenger/6.3.27.880 NetType/WIFI Language/zh_CN'
p1159
sg16
S'cffc4f1a9edec58060e5ffa14dd7c1bf'
p1160
sa(dp1161
g2
S'27506'
p1162
sg4
S'4987'
p1163
sg6
S'01c6b7ef5ecbb283ce001ba7b55e0fd5'
p1164
sg8
S'xx4bf3973b92bd0f26c28d3e9f8a6171cb'
p1165
sg10
S'xx4c6804416186a82a185eb02ff2c2e960'
p1166
sg12
S'xx4b560da510d8f256082dbb80ecdedf07'
p1167
sg14
S'Mozilla/5.0 (Linux; Android 5.1; vivo X6D Build/LMY47I) AppleWebKit/537.36 (KHTML, like Gecko) Version/4.0 Chrome/37.0.0.0 Mobile MQQBrowser/6.8 TBS/036849 Safari/537.36 MicroMessenger/6.3.27.880 NetType/WIFI Language/zh_CN'
p1168
sg16
S'cffc4f1a9edec58060e5ffa14dd7c1bf'
p1169
sa(dp1170
g2
S'27506'
p1171
sg4
S'5000'
p1172
sg6
S'01c6b7ef5ecbb283ce001ba7b55e0fd5'
p1173
sg8
S'xx4bf3973b92bd0f26c28d3e9f8a6171cb'
p1174
sg10
S'xx4c6804416186a82a185eb02ff2c2e960'
p1175
sg12
S'xx4b560da510d8f256082dbb80ecdedf07'
p1176
sg14
S'Mozilla/5.0 (Linux; Android 5.1; vivo X6D Build/LMY47I) AppleWebKit/537.36 (KHTML, like Gecko) Version/4.0 Chrome/37.0.0.0 Mobile MQQBrowser/6.8 TBS/036849 Safari/537.36 MicroMessenger/6.3.27.880 NetType/WIFI Language/zh_CN'
p1177
sg16
S'cffc4f1a9edec58060e5ffa14dd7c1bf'
p1178
sa(dp1179
g2
S'27506'
p1180
sg4
S'5014'
p1181
sg6
S'01c6b7ef5ecbb283ce001ba7b55e0fd5'
p1182
sg8
S'xx4bf3973b92bd0f26c28d3e9f8a6171cb'
p1183
sg10
S'xx4c6804416186a82a185eb02ff2c2e960'
p1184
sg12
S'xx4b560da510d8f256082dbb80ecdedf07'
p1185
sg14
S'Mozilla/5.0 (Linux; Android 5.1; vivo X6D Build/LMY47I) AppleWebKit/537.36 (KHTML, like Gecko) Version/4.0 Chrome/37.0.0.0 Mobile MQQBrowser/6.8 TBS/036849 Safari/537.36 MicroMessenger/6.3.27.880 NetType/WIFI Language/zh_CN'
p1186
sg16
S'cffc4f1a9edec58060e5ffa14dd7c1bf'
p1187
sa(dp1188
g2
S'27506'
p1189
sg4
S'5037'
p1190
sg6
S'01c6b7ef5ecbb283ce001ba7b55e0fd5'
p1191
sg8
S'xx4bf3973b92bd0f26c28d3e9f8a6171cb'
p1192
sg10
S'xx4c6804416186a82a185eb02ff2c2e960'
p1193
sg12
S'xx4b560da510d8f256082dbb80ecdedf07'
p1194
sg14
S'Mozilla/5.0 (Linux; Android 5.1; vivo X6D Build/LMY47I) AppleWebKit/537.36 (KHTML, like Gecko) Version/4.0 Chrome/37.0.0.0 Mobile MQQBrowser/6.8 TBS/036849 Safari/537.36 MicroMessenger/6.3.27.880 NetType/WIFI Language/zh_CN'
p1195
sg16
S'cffc4f1a9edec58060e5ffa14dd7c1bf'
p1196
sa(dp1197
g2
S'27506'
p1198
sg4
S'5054'
p1199
sg6
S'01c6b7ef5ecbb283ce001ba7b55e0fd5'
p1200
sg8
S'xx4bf3973b92bd0f26c28d3e9f8a6171cb'
p1201
sg10
S'xx4c6804416186a82a185eb02ff2c2e960'
p1202
sg12
S'xx4b560da510d8f256082dbb80ecdedf07'
p1203
sg14
S'Mozilla/5.0 (Linux; Android 5.1; vivo X6D Build/LMY47I) AppleWebKit/537.36 (KHTML, like Gecko) Version/4.0 Chrome/37.0.0.0 Mobile MQQBrowser/6.8 TBS/036849 Safari/537.36 MicroMessenger/6.3.27.880 NetType/WIFI Language/zh_CN'
p1204
sg16
S'cffc4f1a9edec58060e5ffa14dd7c1bf'
p1205
sa(dp1206
g2
S'27506'
p1207
sg4
S'5073'
p1208
sg6
S'01c6b7ef5ecbb283ce001ba7b55e0fd5'
p1209
sg8
S'xx4bf3973b92bd0f26c28d3e9f8a6171cb'
p1210
sg10
S'xx4c6804416186a82a185eb02ff2c2e960'
p1211
sg12
S'xx4b560da510d8f256082dbb80ecdedf07'
p1212
sg14
S'Mozilla/5.0 (Linux; Android 5.1; vivo X6D Build/LMY47I) AppleWebKit/537.36 (KHTML, like Gecko) Version/4.0 Chrome/37.0.0.0 Mobile MQQBrowser/6.8 TBS/036849 Safari/537.36 MicroMessenger/6.3.27.880 NetType/WIFI Language/zh_CN'
p1213
sg16
S'cffc4f1a9edec58060e5ffa14dd7c1bf'
p1214
sa(dp1215
g2
S'27506'
p1216
sg4
S'5093'
p1217
sg6
S'01c6b7ef5ecbb283ce001ba7b55e0fd5'
p1218
sg8
S'xx4bf3973b92bd0f26c28d3e9f8a6171cb'
p1219
sg10
S'xx4c6804416186a82a185eb02ff2c2e960'
p1220
sg12
S'xx4b560da510d8f256082dbb80ecdedf07'
p1221
sg14
S'Mozilla/5.0 (Linux; Android 5.1; vivo X6D Build/LMY47I) AppleWebKit/537.36 (KHTML, like Gecko) Version/4.0 Chrome/37.0.0.0 Mobile MQQBrowser/6.8 TBS/036849 Safari/537.36 MicroMessenger/6.3.27.880 NetType/WIFI Language/zh_CN'
p1222
sg16
S'cffc4f1a9edec58060e5ffa14dd7c1bf'
p1223
sa(dp1224
g2
S'27506'
p1225
sg4
S'5110'
p1226
sg6
S'01c6b7ef5ecbb283ce001ba7b55e0fd5'
p1227
sg8
S'xx4bf3973b92bd0f26c28d3e9f8a6171cb'
p1228
sg10
S'xx4c6804416186a82a185eb02ff2c2e960'
p1229
sg12
S'xx4b560da510d8f256082dbb80ecdedf07'
p1230
sg14
S'Mozilla/5.0 (Linux; Android 5.1; vivo X6D Build/LMY47I) AppleWebKit/537.36 (KHTML, like Gecko) Version/4.0 Chrome/37.0.0.0 Mobile MQQBrowser/6.8 TBS/036849 Safari/537.36 MicroMessenger/6.3.27.880 NetType/WIFI Language/zh_CN'
p1231
sg16
S'cffc4f1a9edec58060e5ffa14dd7c1bf'
p1232
sa(dp1233
g2
S'27506'
p1234
sg4
S'5124'
p1235
sg6
S'01c6b7ef5ecbb283ce001ba7b55e0fd5'
p1236
sg8
S'xx4bf3973b92bd0f26c28d3e9f8a6171cb'
p1237
sg10
S'xx4c6804416186a82a185eb02ff2c2e960'
p1238
sg12
S'xx4b560da510d8f256082dbb80ecdedf07'
p1239
sg14
S'Mozilla/5.0 (Linux; Android 5.1; vivo X6D Build/LMY47I) AppleWebKit/537.36 (KHTML, like Gecko) Version/4.0 Chrome/37.0.0.0 Mobile MQQBrowser/6.8 TBS/036849 Safari/537.36 MicroMessenger/6.3.27.880 NetType/WIFI Language/zh_CN'
p1240
sg16
S'cffc4f1a9edec58060e5ffa14dd7c1bf'
p1241
sa(dp1242
g2
S'27506'
p1243
sg4
S'5140'
p1244
sg6
S'01c6b7ef5ecbb283ce001ba7b55e0fd5'
p1245
sg8
S'xx4bf3973b92bd0f26c28d3e9f8a6171cb'
p1246
sg10
S'xx4c6804416186a82a185eb02ff2c2e960'
p1247
sg12
S'xx4b560da510d8f256082dbb80ecdedf07'
p1248
sg14
S'Mozilla/5.0 (Linux; Android 5.1; vivo X6D Build/LMY47I) AppleWebKit/537.36 (KHTML, like Gecko) Version/4.0 Chrome/37.0.0.0 Mobile MQQBrowser/6.8 TBS/036849 Safari/537.36 MicroMessenger/6.3.27.880 NetType/WIFI Language/zh_CN'
p1249
sg16
S'cffc4f1a9edec58060e5ffa14dd7c1bf'
p1250
sa(dp1251
g2
S'27506'
p1252
sg4
S'5155'
p1253
sg6
S'01c6b7ef5ecbb283ce001ba7b55e0fd5'
p1254
sg8
S'xx4bf3973b92bd0f26c28d3e9f8a6171cb'
p1255
sg10
S'xx4c6804416186a82a185eb02ff2c2e960'
p1256
sg12
S'xx4b560da510d8f256082dbb80ecdedf07'
p1257
sg14
S'Mozilla/5.0 (Linux; Android 5.1; vivo X6D Build/LMY47I) AppleWebKit/537.36 (KHTML, like Gecko) Version/4.0 Chrome/37.0.0.0 Mobile MQQBrowser/6.8 TBS/036849 Safari/537.36 MicroMessenger/6.3.27.880 NetType/WIFI Language/zh_CN'
p1258
sg16
S'cffc4f1a9edec58060e5ffa14dd7c1bf'
p1259
sa(dp1260
g2
S'27506'
p1261
sg4
S'5178'
p1262
sg6
S'01c6b7ef5ecbb283ce001ba7b55e0fd5'
p1263
sg8
S'xx4bf3973b92bd0f26c28d3e9f8a6171cb'
p1264
sg10
S'xx4c6804416186a82a185eb02ff2c2e960'
p1265
sg12
S'xx4b560da510d8f256082dbb80ecdedf07'
p1266
sg14
S'Mozilla/5.0 (Linux; Android 5.1; vivo X6D Build/LMY47I) AppleWebKit/537.36 (KHTML, like Gecko) Version/4.0 Chrome/37.0.0.0 Mobile MQQBrowser/6.8 TBS/036849 Safari/537.36 MicroMessenger/6.3.27.880 NetType/WIFI Language/zh_CN'
p1267
sg16
S'cffc4f1a9edec58060e5ffa14dd7c1bf'
p1268
sa(dp1269
g2
S'27506'
p1270
sg4
S'5197'
p1271
sg6
S'01c6b7ef5ecbb283ce001ba7b55e0fd5'
p1272
sg8
S'xx4bf3973b92bd0f26c28d3e9f8a6171cb'
p1273
sg10
S'xx4c6804416186a82a185eb02ff2c2e960'
p1274
sg12
S'xx4b560da510d8f256082dbb80ecdedf07'
p1275
sg14
S'Mozilla/5.0 (Linux; Android 5.1; vivo X6D Build/LMY47I) AppleWebKit/537.36 (KHTML, like Gecko) Version/4.0 Chrome/37.0.0.0 Mobile MQQBrowser/6.8 TBS/036849 Safari/537.36 MicroMessenger/6.3.27.880 NetType/WIFI Language/zh_CN'
p1276
sg16
S'cffc4f1a9edec58060e5ffa14dd7c1bf'
p1277
sa(dp1278
g2
S'27506'
p1279
sg4
S'5215'
p1280
sg6
S'01c6b7ef5ecbb283ce001ba7b55e0fd5'
p1281
sg8
S'xx4bf3973b92bd0f26c28d3e9f8a6171cb'
p1282
sg10
S'xx4c6804416186a82a185eb02ff2c2e960'
p1283
sg12
S'xx4b560da510d8f256082dbb80ecdedf07'
p1284
sg14
S'Mozilla/5.0 (Linux; Android 5.1; vivo X6D Build/LMY47I) AppleWebKit/537.36 (KHTML, like Gecko) Version/4.0 Chrome/37.0.0.0 Mobile MQQBrowser/6.8 TBS/036849 Safari/537.36 MicroMessenger/6.3.27.880 NetType/WIFI Language/zh_CN'
p1285
sg16
S'cffc4f1a9edec58060e5ffa14dd7c1bf'
p1286
sa(dp1287
g2
S'27506'
p1288
sg4
S'5229'
p1289
sg6
S'01c6b7ef5ecbb283ce001ba7b55e0fd5'
p1290
sg8
S'xx4bf3973b92bd0f26c28d3e9f8a6171cb'
p1291
sg10
S'xx4c6804416186a82a185eb02ff2c2e960'
p1292
sg12
S'xx4b560da510d8f256082dbb80ecdedf07'
p1293
sg14
S'Mozilla/5.0 (Linux; Android 5.1; vivo X6D Build/LMY47I) AppleWebKit/537.36 (KHTML, like Gecko) Version/4.0 Chrome/37.0.0.0 Mobile MQQBrowser/6.8 TBS/036849 Safari/537.36 MicroMessenger/6.3.27.880 NetType/WIFI Language/zh_CN'
p1294
sg16
S'cffc4f1a9edec58060e5ffa14dd7c1bf'
p1295
sa(dp1296
g2
S'27506'
p1297
sg4
S'5241'
p1298
sg6
S'01c6b7ef5ecbb283ce001ba7b55e0fd5'
p1299
sg8
S'xx4bf3973b92bd0f26c28d3e9f8a6171cb'
p1300
sg10
S'xx4c6804416186a82a185eb02ff2c2e960'
p1301
sg12
S'xx4b560da510d8f256082dbb80ecdedf07'
p1302
sg14
S'Mozilla/5.0 (Linux; Android 5.1; vivo X6D Build/LMY47I) AppleWebKit/537.36 (KHTML, like Gecko) Version/4.0 Chrome/37.0.0.0 Mobile MQQBrowser/6.8 TBS/036849 Safari/537.36 MicroMessenger/6.3.27.880 NetType/WIFI Language/zh_CN'
p1303
sg16
S'cffc4f1a9edec58060e5ffa14dd7c1bf'
p1304
sa(dp1305
g2
S'27506'
p1306
sg4
S'5260'
p1307
sg6
S'01c6b7ef5ecbb283ce001ba7b55e0fd5'
p1308
sg8
S'xx4bf3973b92bd0f26c28d3e9f8a6171cb'
p1309
sg10
S'xx4c6804416186a82a185eb02ff2c2e960'
p1310
sg12
S'xx4b560da510d8f256082dbb80ecdedf07'
p1311
sg14
S'Mozilla/5.0 (Linux; Android 5.1; vivo X6D Build/LMY47I) AppleWebKit/537.36 (KHTML, like Gecko) Version/4.0 Chrome/37.0.0.0 Mobile MQQBrowser/6.8 TBS/036849 Safari/537.36 MicroMessenger/6.3.27.880 NetType/WIFI Language/zh_CN'
p1312
sg16
S'cffc4f1a9edec58060e5ffa14dd7c1bf'
p1313
sa(dp1314
g2
S'27506'
p1315
sg4
S'5279'
p1316
sg6
S'01c6b7ef5ecbb283ce001ba7b55e0fd5'
p1317
sg8
S'xx4bf3973b92bd0f26c28d3e9f8a6171cb'
p1318
sg10
S'xx4c6804416186a82a185eb02ff2c2e960'
p1319
sg12
S'xx4b560da510d8f256082dbb80ecdedf07'
p1320
sg14
S'Mozilla/5.0 (Linux; Android 5.1; vivo X6D Build/LMY47I) AppleWebKit/537.36 (KHTML, like Gecko) Version/4.0 Chrome/37.0.0.0 Mobile MQQBrowser/6.8 TBS/036849 Safari/537.36 MicroMessenger/6.3.27.880 NetType/WIFI Language/zh_CN'
p1321
sg16
S'cffc4f1a9edec58060e5ffa14dd7c1bf'
p1322
sa(dp1323
g2
S'27506'
p1324
sg4
S'5298'
p1325
sg6
S'01c6b7ef5ecbb283ce001ba7b55e0fd5'
p1326
sg8
S'xx4bf3973b92bd0f26c28d3e9f8a6171cb'
p1327
sg10
S'xx4c6804416186a82a185eb02ff2c2e960'
p1328
sg12
S'xx4b560da510d8f256082dbb80ecdedf07'
p1329
sg14
S'Mozilla/5.0 (Linux; Android 5.1; vivo X6D Build/LMY47I) AppleWebKit/537.36 (KHTML, like Gecko) Version/4.0 Chrome/37.0.0.0 Mobile MQQBrowser/6.8 TBS/036849 Safari/537.36 MicroMessenger/6.3.27.880 NetType/WIFI Language/zh_CN'
p1330
sg16
S'cffc4f1a9edec58060e5ffa14dd7c1bf'
p1331
sa(dp1332
g2
S'27506'
p1333
sg4
S'5313'
p1334
sg6
S'01c6b7ef5ecbb283ce001ba7b55e0fd5'
p1335
sg8
S'xx4bf3973b92bd0f26c28d3e9f8a6171cb'
p1336
sg10
S'xx4c6804416186a82a185eb02ff2c2e960'
p1337
sg12
S'xx4b560da510d8f256082dbb80ecdedf07'
p1338
sg14
S'Mozilla/5.0 (Linux; Android 5.1; vivo X6D Build/LMY47I) AppleWebKit/537.36 (KHTML, like Gecko) Version/4.0 Chrome/37.0.0.0 Mobile MQQBrowser/6.8 TBS/036849 Safari/537.36 MicroMessenger/6.3.27.880 NetType/WIFI Language/zh_CN'
p1339
sg16
S'cffc4f1a9edec58060e5ffa14dd7c1bf'
p1340
sa(dp1341
g2
S'27506'
p1342
sg4
S'5331'
p1343
sg6
S'01c6b7ef5ecbb283ce001ba7b55e0fd5'
p1344
sg8
S'xx4bf3973b92bd0f26c28d3e9f8a6171cb'
p1345
sg10
S'xx4c6804416186a82a185eb02ff2c2e960'
p1346
sg12
S'xx4b560da510d8f256082dbb80ecdedf07'
p1347
sg14
S'Mozilla/5.0 (Linux; Android 5.1; vivo X6D Build/LMY47I) AppleWebKit/537.36 (KHTML, like Gecko) Version/4.0 Chrome/37.0.0.0 Mobile MQQBrowser/6.8 TBS/036849 Safari/537.36 MicroMessenger/6.3.27.880 NetType/WIFI Language/zh_CN'
p1348
sg16
S'cffc4f1a9edec58060e5ffa14dd7c1bf'
p1349
sa(dp1350
g2
S'27506'
p1351
sg4
S'5345'
p1352
sg6
S'01c6b7ef5ecbb283ce001ba7b55e0fd5'
p1353
sg8
S'xx4bf3973b92bd0f26c28d3e9f8a6171cb'
p1354
sg10
S'xx4c6804416186a82a185eb02ff2c2e960'
p1355
sg12
S'xx4b560da510d8f256082dbb80ecdedf07'
p1356
sg14
S'Mozilla/5.0 (Linux; Android 5.1; vivo X6D Build/LMY47I) AppleWebKit/537.36 (KHTML, like Gecko) Version/4.0 Chrome/37.0.0.0 Mobile MQQBrowser/6.8 TBS/036849 Safari/537.36 MicroMessenger/6.3.27.880 NetType/WIFI Language/zh_CN'
p1357
sg16
S'cffc4f1a9edec58060e5ffa14dd7c1bf'
p1358
sa(dp1359
g2
S'27506'
p1360
sg4
S'5361'
p1361
sg6
S'01c6b7ef5ecbb283ce001ba7b55e0fd5'
p1362
sg8
S'xx4bf3973b92bd0f26c28d3e9f8a6171cb'
p1363
sg10
S'xx4c6804416186a82a185eb02ff2c2e960'
p1364
sg12
S'xx4b560da510d8f256082dbb80ecdedf07'
p1365
sg14
S'Mozilla/5.0 (Linux; Android 5.1; vivo X6D Build/LMY47I) AppleWebKit/537.36 (KHTML, like Gecko) Version/4.0 Chrome/37.0.0.0 Mobile MQQBrowser/6.8 TBS/036849 Safari/537.36 MicroMessenger/6.3.27.880 NetType/WIFI Language/zh_CN'
p1366
sg16
S'cffc4f1a9edec58060e5ffa14dd7c1bf'
p1367
sa(dp1368
g2
S'27506'
p1369
sg4
S'5375'
p1370
sg6
S'01c6b7ef5ecbb283ce001ba7b55e0fd5'
p1371
sg8
S'xx4bf3973b92bd0f26c28d3e9f8a6171cb'
p1372
sg10
S'xx4c6804416186a82a185eb02ff2c2e960'
p1373
sg12
S'xx4b560da510d8f256082dbb80ecdedf07'
p1374
sg14
S'Mozilla/5.0 (Linux; Android 5.1; vivo X6D Build/LMY47I) AppleWebKit/537.36 (KHTML, like Gecko) Version/4.0 Chrome/37.0.0.0 Mobile MQQBrowser/6.8 TBS/036849 Safari/537.36 MicroMessenger/6.3.27.880 NetType/WIFI Language/zh_CN'
p1375
sg16
S'cffc4f1a9edec58060e5ffa14dd7c1bf'
p1376
sa(dp1377
g2
S'27506'
p1378
sg4
S'5393'
p1379
sg6
S'01c6b7ef5ecbb283ce001ba7b55e0fd5'
p1380
sg8
S'xx4bf3973b92bd0f26c28d3e9f8a6171cb'
p1381
sg10
S'xx4c6804416186a82a185eb02ff2c2e960'
p1382
sg12
S'xx4b560da510d8f256082dbb80ecdedf07'
p1383
sg14
S'Mozilla/5.0 (Linux; Android 5.1; vivo X6D Build/LMY47I) AppleWebKit/537.36 (KHTML, like Gecko) Version/4.0 Chrome/37.0.0.0 Mobile MQQBrowser/6.8 TBS/036849 Safari/537.36 MicroMessenger/6.3.27.880 NetType/WIFI Language/zh_CN'
p1384
sg16
S'cffc4f1a9edec58060e5ffa14dd7c1bf'
p1385
sa(dp1386
g2
S'27506'
p1387
sg4
S'5412'
p1388
sg6
S'01c6b7ef5ecbb283ce001ba7b55e0fd5'
p1389
sg8
S'xx4bf3973b92bd0f26c28d3e9f8a6171cb'
p1390
sg10
S'xx4c6804416186a82a185eb02ff2c2e960'
p1391
sg12
S'xx4b560da510d8f256082dbb80ecdedf07'
p1392
sg14
S'Mozilla/5.0 (Linux; Android 5.1; vivo X6D Build/LMY47I) AppleWebKit/537.36 (KHTML, like Gecko) Version/4.0 Chrome/37.0.0.0 Mobile MQQBrowser/6.8 TBS/036849 Safari/537.36 MicroMessenger/6.3.27.880 NetType/WIFI Language/zh_CN'
p1393
sg16
S'cffc4f1a9edec58060e5ffa14dd7c1bf'
p1394
sa(dp1395
g2
S'27506'
p1396
sg4
S'5427'
p1397
sg6
S'01c6b7ef5ecbb283ce001ba7b55e0fd5'
p1398
sg8
S'xx4bf3973b92bd0f26c28d3e9f8a6171cb'
p1399
sg10
S'xx4c6804416186a82a185eb02ff2c2e960'
p1400
sg12
S'xx4b560da510d8f256082dbb80ecdedf07'
p1401
sg14
S'Mozilla/5.0 (Linux; Android 5.1; vivo X6D Build/LMY47I) AppleWebKit/537.36 (KHTML, like Gecko) Version/4.0 Chrome/37.0.0.0 Mobile MQQBrowser/6.8 TBS/036849 Safari/537.36 MicroMessenger/6.3.27.880 NetType/WIFI Language/zh_CN'
p1402
sg16
S'cffc4f1a9edec58060e5ffa14dd7c1bf'
p1403
sa(dp1404
g2
S'27506'
p1405
sg4
S'5441'
p1406
sg6
S'01c6b7ef5ecbb283ce001ba7b55e0fd5'
p1407
sg8
S'xx4bf3973b92bd0f26c28d3e9f8a6171cb'
p1408
sg10
S'xx4c6804416186a82a185eb02ff2c2e960'
p1409
sg12
S'xx4b560da510d8f256082dbb80ecdedf07'
p1410
sg14
S'Mozilla/5.0 (Linux; Android 5.1; vivo X6D Build/LMY47I) AppleWebKit/537.36 (KHTML, like Gecko) Version/4.0 Chrome/37.0.0.0 Mobile MQQBrowser/6.8 TBS/036849 Safari/537.36 MicroMessenger/6.3.27.880 NetType/WIFI Language/zh_CN'
p1411
sg16
S'cffc4f1a9edec58060e5ffa14dd7c1bf'
p1412
sa(dp1413
g2
S'27506'
p1414
sg4
S'5450'
p1415
sg6
S'01c6b7ef5ecbb283ce001ba7b55e0fd5'
p1416
sg8
S'xx4bf3973b92bd0f26c28d3e9f8a6171cb'
p1417
sg10
S'xx4c6804416186a82a185eb02ff2c2e960'
p1418
sg12
S'xx4b560da510d8f256082dbb80ecdedf07'
p1419
sg14
S'Mozilla/5.0 (Linux; Android 5.1; vivo X6D Build/LMY47I) AppleWebKit/537.36 (KHTML, like Gecko) Version/4.0 Chrome/37.0.0.0 Mobile MQQBrowser/6.8 TBS/036849 Safari/537.36 MicroMessenger/6.3.27.880 NetType/WIFI Language/zh_CN'
p1420
sg16
S'cffc4f1a9edec58060e5ffa14dd7c1bf'
p1421
sa(dp1422
g2
S'27506'
p1423
sg4
S'5462'
p1424
sg6
S'01c6b7ef5ecbb283ce001ba7b55e0fd5'
p1425
sg8
S'xx4bf3973b92bd0f26c28d3e9f8a6171cb'
p1426
sg10
S'xx4c6804416186a82a185eb02ff2c2e960'
p1427
sg12
S'xx4b560da510d8f256082dbb80ecdedf07'
p1428
sg14
S'Mozilla/5.0 (Linux; Android 5.1; vivo X6D Build/LMY47I) AppleWebKit/537.36 (KHTML, like Gecko) Version/4.0 Chrome/37.0.0.0 Mobile MQQBrowser/6.8 TBS/036849 Safari/537.36 MicroMessenger/6.3.27.880 NetType/WIFI Language/zh_CN'
p1429
sg16
S'cffc4f1a9edec58060e5ffa14dd7c1bf'
p1430
sa(dp1431
g2
S'27506'
p1432
sg4
S'5477'
p1433
sg6
S'01c6b7ef5ecbb283ce001ba7b55e0fd5'
p1434
sg8
S'xx4bf3973b92bd0f26c28d3e9f8a6171cb'
p1435
sg10
S'xx4c6804416186a82a185eb02ff2c2e960'
p1436
sg12
S'xx4b560da510d8f256082dbb80ecdedf07'
p1437
sg14
S'Mozilla/5.0 (Linux; Android 5.1; vivo X6D Build/LMY47I) AppleWebKit/537.36 (KHTML, like Gecko) Version/4.0 Chrome/37.0.0.0 Mobile MQQBrowser/6.8 TBS/036849 Safari/537.36 MicroMessenger/6.3.27.880 NetType/WIFI Language/zh_CN'
p1438
sg16
S'cffc4f1a9edec58060e5ffa14dd7c1bf'
p1439
sa(dp1440
g2
S'27506'
p1441
sg4
S'5496'
p1442
sg6
S'01c6b7ef5ecbb283ce001ba7b55e0fd5'
p1443
sg8
S'xx4bf3973b92bd0f26c28d3e9f8a6171cb'
p1444
sg10
S'xx4c6804416186a82a185eb02ff2c2e960'
p1445
sg12
S'xx4b560da510d8f256082dbb80ecdedf07'
p1446
sg14
S'Mozilla/5.0 (Linux; Android 5.1; vivo X6D Build/LMY47I) AppleWebKit/537.36 (KHTML, like Gecko) Version/4.0 Chrome/37.0.0.0 Mobile MQQBrowser/6.8 TBS/036849 Safari/537.36 MicroMessenger/6.3.27.880 NetType/WIFI Language/zh_CN'
p1447
sg16
S'cffc4f1a9edec58060e5ffa14dd7c1bf'
p1448
sa(dp1449
g2
S'27506'
p1450
sg4
S'5514'
p1451
sg6
S'01c6b7ef5ecbb283ce001ba7b55e0fd5'
p1452
sg8
S'xx4bf3973b92bd0f26c28d3e9f8a6171cb'
p1453
sg10
S'xx4c6804416186a82a185eb02ff2c2e960'
p1454
sg12
S'xx4b560da510d8f256082dbb80ecdedf07'
p1455
sg14
S'Mozilla/5.0 (Linux; Android 5.1; vivo X6D Build/LMY47I) AppleWebKit/537.36 (KHTML, like Gecko) Version/4.0 Chrome/37.0.0.0 Mobile MQQBrowser/6.8 TBS/036849 Safari/537.36 MicroMessenger/6.3.27.880 NetType/WIFI Language/zh_CN'
p1456
sg16
S'cffc4f1a9edec58060e5ffa14dd7c1bf'
p1457
sa(dp1458
g2
S'27506'
p1459
sg4
S'5534'
p1460
sg6
S'01c6b7ef5ecbb283ce001ba7b55e0fd5'
p1461
sg8
S'xx4bf3973b92bd0f26c28d3e9f8a6171cb'
p1462
sg10
S'xx4c6804416186a82a185eb02ff2c2e960'
p1463
sg12
S'xx4b560da510d8f256082dbb80ecdedf07'
p1464
sg14
S'Mozilla/5.0 (Linux; Android 5.1; vivo X6D Build/LMY47I) AppleWebKit/537.36 (KHTML, like Gecko) Version/4.0 Chrome/37.0.0.0 Mobile MQQBrowser/6.8 TBS/036849 Safari/537.36 MicroMessenger/6.3.27.880 NetType/WIFI Language/zh_CN'
p1465
sg16
S'cffc4f1a9edec58060e5ffa14dd7c1bf'
p1466
sa(dp1467
g2
S'27506'
p1468
sg4
S'5551'
p1469
sg6
S'01c6b7ef5ecbb283ce001ba7b55e0fd5'
p1470
sg8
S'xx4bf3973b92bd0f26c28d3e9f8a6171cb'
p1471
sg10
S'xx4c6804416186a82a185eb02ff2c2e960'
p1472
sg12
S'xx4b560da510d8f256082dbb80ecdedf07'
p1473
sg14
S'Mozilla/5.0 (Linux; Android 5.1; vivo X6D Build/LMY47I) AppleWebKit/537.36 (KHTML, like Gecko) Version/4.0 Chrome/37.0.0.0 Mobile MQQBrowser/6.8 TBS/036849 Safari/537.36 MicroMessenger/6.3.27.880 NetType/WIFI Language/zh_CN'
p1474
sg16
S'cffc4f1a9edec58060e5ffa14dd7c1bf'
p1475
sa(dp1476
g2
S'27506'
p1477
sg4
S'5570'
p1478
sg6
S'01c6b7ef5ecbb283ce001ba7b55e0fd5'
p1479
sg8
S'xx4bf3973b92bd0f26c28d3e9f8a6171cb'
p1480
sg10
S'xx4c6804416186a82a185eb02ff2c2e960'
p1481
sg12
S'xx4b560da510d8f256082dbb80ecdedf07'
p1482
sg14
S'Mozilla/5.0 (Linux; Android 5.1; vivo X6D Build/LMY47I) AppleWebKit/537.36 (KHTML, like Gecko) Version/4.0 Chrome/37.0.0.0 Mobile MQQBrowser/6.8 TBS/036849 Safari/537.36 MicroMessenger/6.3.27.880 NetType/WIFI Language/zh_CN'
p1483
sg16
S'cffc4f1a9edec58060e5ffa14dd7c1bf'
p1484
sa(dp1485
g2
S'27506'
p1486
sg4
S'5591'
p1487
sg6
S'01c6b7ef5ecbb283ce001ba7b55e0fd5'
p1488
sg8
S'xx4bf3973b92bd0f26c28d3e9f8a6171cb'
p1489
sg10
S'xx4c6804416186a82a185eb02ff2c2e960'
p1490
sg12
S'xx4b560da510d8f256082dbb80ecdedf07'
p1491
sg14
S'Mozilla/5.0 (Linux; Android 5.1; vivo X6D Build/LMY47I) AppleWebKit/537.36 (KHTML, like Gecko) Version/4.0 Chrome/37.0.0.0 Mobile MQQBrowser/6.8 TBS/036849 Safari/537.36 MicroMessenger/6.3.27.880 NetType/WIFI Language/zh_CN'
p1492
sg16
S'cffc4f1a9edec58060e5ffa14dd7c1bf'
p1493
sa(dp1494
g2
S'27506'
p1495
sg4
S'5608'
p1496
sg6
S'01c6b7ef5ecbb283ce001ba7b55e0fd5'
p1497
sg8
S'xx4bf3973b92bd0f26c28d3e9f8a6171cb'
p1498
sg10
S'xx4c6804416186a82a185eb02ff2c2e960'
p1499
sg12
S'xx4b560da510d8f256082dbb80ecdedf07'
p1500
sg14
S'Mozilla/5.0 (Linux; Android 5.1; vivo X6D Build/LMY47I) AppleWebKit/537.36 (KHTML, like Gecko) Version/4.0 Chrome/37.0.0.0 Mobile MQQBrowser/6.8 TBS/036849 Safari/537.36 MicroMessenger/6.3.27.880 NetType/WIFI Language/zh_CN'
p1501
sg16
S'cffc4f1a9edec58060e5ffa14dd7c1bf'
p1502
sa(dp1503
g2
S'27506'
p1504
sg4
S'5623'
p1505
sg6
S'01c6b7ef5ecbb283ce001ba7b55e0fd5'
p1506
sg8
S'xx4bf3973b92bd0f26c28d3e9f8a6171cb'
p1507
sg10
S'xx4c6804416186a82a185eb02ff2c2e960'
p1508
sg12
S'xx4b560da510d8f256082dbb80ecdedf07'
p1509
sg14
S'Mozilla/5.0 (Linux; Android 5.1; vivo X6D Build/LMY47I) AppleWebKit/537.36 (KHTML, like Gecko) Version/4.0 Chrome/37.0.0.0 Mobile MQQBrowser/6.8 TBS/036849 Safari/537.36 MicroMessenger/6.3.27.880 NetType/WIFI Language/zh_CN'
p1510
sg16
S'cffc4f1a9edec58060e5ffa14dd7c1bf'
p1511
sa(dp1512
g2
S'27506'
p1513
sg4
S'5639'
p1514
sg6
S'01c6b7ef5ecbb283ce001ba7b55e0fd5'
p1515
sg8
S'xx4bf3973b92bd0f26c28d3e9f8a6171cb'
p1516
sg10
S'xx4c6804416186a82a185eb02ff2c2e960'
p1517
sg12
S'xx4b560da510d8f256082dbb80ecdedf07'
p1518
sg14
S'Mozilla/5.0 (Linux; Android 5.1; vivo X6D Build/LMY47I) AppleWebKit/537.36 (KHTML, like Gecko) Version/4.0 Chrome/37.0.0.0 Mobile MQQBrowser/6.8 TBS/036849 Safari/537.36 MicroMessenger/6.3.27.880 NetType/WIFI Language/zh_CN'
p1519
sg16
S'cffc4f1a9edec58060e5ffa14dd7c1bf'
p1520
sa(dp1521
g2
S'27506'
p1522
sg4
S'5654'
p1523
sg6
S'01c6b7ef5ecbb283ce001ba7b55e0fd5'
p1524
sg8
S'xx4bf3973b92bd0f26c28d3e9f8a6171cb'
p1525
sg10
S'xx4c6804416186a82a185eb02ff2c2e960'
p1526
sg12
S'xx4b560da510d8f256082dbb80ecdedf07'
p1527
sg14
S'Mozilla/5.0 (Linux; Android 5.1; vivo X6D Build/LMY47I) AppleWebKit/537.36 (KHTML, like Gecko) Version/4.0 Chrome/37.0.0.0 Mobile MQQBrowser/6.8 TBS/036849 Safari/537.36 MicroMessenger/6.3.27.880 NetType/WIFI Language/zh_CN'
p1528
sg16
S'cffc4f1a9edec58060e5ffa14dd7c1bf'
p1529
sa(dp1530
g2
S'27506'
p1531
sg4
S'5670'
p1532
sg6
S'01c6b7ef5ecbb283ce001ba7b55e0fd5'
p1533
sg8
S'xx4bf3973b92bd0f26c28d3e9f8a6171cb'
p1534
sg10
S'xx4c6804416186a82a185eb02ff2c2e960'
p1535
sg12
S'xx4b560da510d8f256082dbb80ecdedf07'
p1536
sg14
S'Mozilla/5.0 (Linux; Android 5.1; vivo X6D Build/LMY47I) AppleWebKit/537.36 (KHTML, like Gecko) Version/4.0 Chrome/37.0.0.0 Mobile MQQBrowser/6.8 TBS/036849 Safari/537.36 MicroMessenger/6.3.27.880 NetType/WIFI Language/zh_CN'
p1537
sg16
S'cffc4f1a9edec58060e5ffa14dd7c1bf'
p1538
sa(dp1539
g2
S'27506'
p1540
sg4
S'5686'
p1541
sg6
S'01c6b7ef5ecbb283ce001ba7b55e0fd5'
p1542
sg8
S'xx4bf3973b92bd0f26c28d3e9f8a6171cb'
p1543
sg10
S'xx4c6804416186a82a185eb02ff2c2e960'
p1544
sg12
S'xx4b560da510d8f256082dbb80ecdedf07'
p1545
sg14
S'Mozilla/5.0 (Linux; Android 5.1; vivo X6D Build/LMY47I) AppleWebKit/537.36 (KHTML, like Gecko) Version/4.0 Chrome/37.0.0.0 Mobile MQQBrowser/6.8 TBS/036849 Safari/537.36 MicroMessenger/6.3.27.880 NetType/WIFI Language/zh_CN'
p1546
sg16
S'cffc4f1a9edec58060e5ffa14dd7c1bf'
p1547
sa(dp1548
g2
S'27506'
p1549
sg4
S'5705'
p1550
sg6
S'01c6b7ef5ecbb283ce001ba7b55e0fd5'
p1551
sg8
S'xx4bf3973b92bd0f26c28d3e9f8a6171cb'
p1552
sg10
S'xx4c6804416186a82a185eb02ff2c2e960'
p1553
sg12
S'xx4b560da510d8f256082dbb80ecdedf07'
p1554
sg14
S'Mozilla/5.0 (Linux; Android 5.1; vivo X6D Build/LMY47I) AppleWebKit/537.36 (KHTML, like Gecko) Version/4.0 Chrome/37.0.0.0 Mobile MQQBrowser/6.8 TBS/036849 Safari/537.36 MicroMessenger/6.3.27.880 NetType/WIFI Language/zh_CN'
p1555
sg16
S'cffc4f1a9edec58060e5ffa14dd7c1bf'
p1556
sa(dp1557
g2
S'27506'
p1558
sg4
S'5722'
p1559
sg6
S'01c6b7ef5ecbb283ce001ba7b55e0fd5'
p1560
sg8
S'xx4bf3973b92bd0f26c28d3e9f8a6171cb'
p1561
sg10
S'xx4c6804416186a82a185eb02ff2c2e960'
p1562
sg12
S'xx4b560da510d8f256082dbb80ecdedf07'
p1563
sg14
S'Mozilla/5.0 (Linux; Android 5.1; vivo X6D Build/LMY47I) AppleWebKit/537.36 (KHTML, like Gecko) Version/4.0 Chrome/37.0.0.0 Mobile MQQBrowser/6.8 TBS/036849 Safari/537.36 MicroMessenger/6.3.27.880 NetType/WIFI Language/zh_CN'
p1564
sg16
S'cffc4f1a9edec58060e5ffa14dd7c1bf'
p1565
sa(dp1566
g2
S'27506'
p1567
sg4
S'5738'
p1568
sg6
S'01c6b7ef5ecbb283ce001ba7b55e0fd5'
p1569
sg8
S'xx4bf3973b92bd0f26c28d3e9f8a6171cb'
p1570
sg10
S'xx4c6804416186a82a185eb02ff2c2e960'
p1571
sg12
S'xx4b560da510d8f256082dbb80ecdedf07'
p1572
sg14
S'Mozilla/5.0 (Linux; Android 5.1; vivo X6D Build/LMY47I) AppleWebKit/537.36 (KHTML, like Gecko) Version/4.0 Chrome/37.0.0.0 Mobile MQQBrowser/6.8 TBS/036849 Safari/537.36 MicroMessenger/6.3.27.880 NetType/WIFI Language/zh_CN'
p1573
sg16
S'cffc4f1a9edec58060e5ffa14dd7c1bf'
p1574
sa(dp1575
g2
S'27506'
p1576
sg4
S'5759'
p1577
sg6
S'01c6b7ef5ecbb283ce001ba7b55e0fd5'
p1578
sg8
S'xx4bf3973b92bd0f26c28d3e9f8a6171cb'
p1579
sg10
S'xx4c6804416186a82a185eb02ff2c2e960'
p1580
sg12
S'xx4b560da510d8f256082dbb80ecdedf07'
p1581
sg14
S'Mozilla/5.0 (Linux; Android 5.1; vivo X6D Build/LMY47I) AppleWebKit/537.36 (KHTML, like Gecko) Version/4.0 Chrome/37.0.0.0 Mobile MQQBrowser/6.8 TBS/036849 Safari/537.36 MicroMessenger/6.3.27.880 NetType/WIFI Language/zh_CN'
p1582
sg16
S'cffc4f1a9edec58060e5ffa14dd7c1bf'
p1583
sa(dp1584
g2
S'27506'
p1585
sg4
S'5780'
p1586
sg6
S'01c6b7ef5ecbb283ce001ba7b55e0fd5'
p1587
sg8
S'xx4bf3973b92bd0f26c28d3e9f8a6171cb'
p1588
sg10
S'xx4c6804416186a82a185eb02ff2c2e960'
p1589
sg12
S'xx4b560da510d8f256082dbb80ecdedf07'
p1590
sg14
S'Mozilla/5.0 (Linux; Android 5.1; vivo X6D Build/LMY47I) AppleWebKit/537.36 (KHTML, like Gecko) Version/4.0 Chrome/37.0.0.0 Mobile MQQBrowser/6.8 TBS/036849 Safari/537.36 MicroMessenger/6.3.27.880 NetType/WIFI Language/zh_CN'
p1591
sg16
S'cffc4f1a9edec58060e5ffa14dd7c1bf'
p1592
sa(dp1593
g2
S'27506'
p1594
sg4
S'5798'
p1595
sg6
S'01c6b7ef5ecbb283ce001ba7b55e0fd5'
p1596
sg8
S'xx4bf3973b92bd0f26c28d3e9f8a6171cb'
p1597
sg10
S'xx4c6804416186a82a185eb02ff2c2e960'
p1598
sg12
S'xx4b560da510d8f256082dbb80ecdedf07'
p1599
sg14
S'Mozilla/5.0 (Linux; Android 5.1; vivo X6D Build/LMY47I) AppleWebKit/537.36 (KHTML, like Gecko) Version/4.0 Chrome/37.0.0.0 Mobile MQQBrowser/6.8 TBS/036849 Safari/537.36 MicroMessenger/6.3.27.880 NetType/WIFI Language/zh_CN'
p1600
sg16
S'cffc4f1a9edec58060e5ffa14dd7c1bf'
p1601
sa(dp1602
g2
S'27506'
p1603
sg4
S'5827'
p1604
sg6
S'01c6b7ef5ecbb283ce001ba7b55e0fd5'
p1605
sg8
S'xx4bf3973b92bd0f26c28d3e9f8a6171cb'
p1606
sg10
S'xx4c6804416186a82a185eb02ff2c2e960'
p1607
sg12
S'xx4b560da510d8f256082dbb80ecdedf07'
p1608
sg14
S'Mozilla/5.0 (Linux; Android 5.1; vivo X6D Build/LMY47I) AppleWebKit/537.36 (KHTML, like Gecko) Version/4.0 Chrome/37.0.0.0 Mobile MQQBrowser/6.8 TBS/036849 Safari/537.36 MicroMessenger/6.3.27.880 NetType/WIFI Language/zh_CN'
p1609
sg16
S'cffc4f1a9edec58060e5ffa14dd7c1bf'
p1610
sa(dp1611
g2
S'27506'
p1612
sg4
S'5839'
p1613
sg6
S'01c6b7ef5ecbb283ce001ba7b55e0fd5'
p1614
sg8
S'xx4bf3973b92bd0f26c28d3e9f8a6171cb'
p1615
sg10
S'xx4c6804416186a82a185eb02ff2c2e960'
p1616
sg12
S'xx4b560da510d8f256082dbb80ecdedf07'
p1617
sg14
S'Mozilla/5.0 (Linux; Android 5.1; vivo X6D Build/LMY47I) AppleWebKit/537.36 (KHTML, like Gecko) Version/4.0 Chrome/37.0.0.0 Mobile MQQBrowser/6.8 TBS/036849 Safari/537.36 MicroMessenger/6.3.27.880 NetType/WIFI Language/zh_CN'
p1618
sg16
S'cffc4f1a9edec58060e5ffa14dd7c1bf'
p1619
sa(dp1620
g2
S'27506'
p1621
sg4
S'5853'
p1622
sg6
S'01c6b7ef5ecbb283ce001ba7b55e0fd5'
p1623
sg8
S'xx4bf3973b92bd0f26c28d3e9f8a6171cb'
p1624
sg10
S'xx4c6804416186a82a185eb02ff2c2e960'
p1625
sg12
S'xx4b560da510d8f256082dbb80ecdedf07'
p1626
sg14
S'Mozilla/5.0 (Linux; Android 5.1; vivo X6D Build/LMY47I) AppleWebKit/537.36 (KHTML, like Gecko) Version/4.0 Chrome/37.0.0.0 Mobile MQQBrowser/6.8 TBS/036849 Safari/537.36 MicroMessenger/6.3.27.880 NetType/WIFI Language/zh_CN'
p1627
sg16
S'cffc4f1a9edec58060e5ffa14dd7c1bf'
p1628
sa(dp1629
g2
S'27506'
p1630
sg4
S'5866'
p1631
sg6
S'01c6b7ef5ecbb283ce001ba7b55e0fd5'
p1632
sg8
S'xx4bf3973b92bd0f26c28d3e9f8a6171cb'
p1633
sg10
S'xx4c6804416186a82a185eb02ff2c2e960'
p1634
sg12
S'xx4b560da510d8f256082dbb80ecdedf07'
p1635
sg14
S'Mozilla/5.0 (Linux; Android 5.1; vivo X6D Build/LMY47I) AppleWebKit/537.36 (KHTML, like Gecko) Version/4.0 Chrome/37.0.0.0 Mobile MQQBrowser/6.8 TBS/036849 Safari/537.36 MicroMessenger/6.3.27.880 NetType/WIFI Language/zh_CN'
p1636
sg16
S'cffc4f1a9edec58060e5ffa14dd7c1bf'
p1637
sa(dp1638
g2
S'27506'
p1639
sg4
S'5886'
p1640
sg6
S'01c6b7ef5ecbb283ce001ba7b55e0fd5'
p1641
sg8
S'xx4bf3973b92bd0f26c28d3e9f8a6171cb'
p1642
sg10
S'xx4c6804416186a82a185eb02ff2c2e960'
p1643
sg12
S'xx4b560da510d8f256082dbb80ecdedf07'
p1644
sg14
S'Mozilla/5.0 (Linux; Android 5.1; vivo X6D Build/LMY47I) AppleWebKit/537.36 (KHTML, like Gecko) Version/4.0 Chrome/37.0.0.0 Mobile MQQBrowser/6.8 TBS/036849 Safari/537.36 MicroMessenger/6.3.27.880 NetType/WIFI Language/zh_CN'
p1645
sg16
S'cffc4f1a9edec58060e5ffa14dd7c1bf'
p1646
sa(dp1647
g2
S'27506'
p1648
sg4
S'5906'
p1649
sg6
S'01c6b7ef5ecbb283ce001ba7b55e0fd5'
p1650
sg8
S'xx4bf3973b92bd0f26c28d3e9f8a6171cb'
p1651
sg10
S'xx4c6804416186a82a185eb02ff2c2e960'
p1652
sg12
S'xx4b560da510d8f256082dbb80ecdedf07'
p1653
sg14
S'Mozilla/5.0 (Linux; Android 5.1; vivo X6D Build/LMY47I) AppleWebKit/537.36 (KHTML, like Gecko) Version/4.0 Chrome/37.0.0.0 Mobile MQQBrowser/6.8 TBS/036849 Safari/537.36 MicroMessenger/6.3.27.880 NetType/WIFI Language/zh_CN'
p1654
sg16
S'cffc4f1a9edec58060e5ffa14dd7c1bf'
p1655
sa(dp1656
g2
S'27506'
p1657
sg4
S'5925'
p1658
sg6
S'01c6b7ef5ecbb283ce001ba7b55e0fd5'
p1659
sg8
S'xx4bf3973b92bd0f26c28d3e9f8a6171cb'
p1660
sg10
S'xx4c6804416186a82a185eb02ff2c2e960'
p1661
sg12
S'xx4b560da510d8f256082dbb80ecdedf07'
p1662
sg14
S'Mozilla/5.0 (Linux; Android 5.1; vivo X6D Build/LMY47I) AppleWebKit/537.36 (KHTML, like Gecko) Version/4.0 Chrome/37.0.0.0 Mobile MQQBrowser/6.8 TBS/036849 Safari/537.36 MicroMessenger/6.3.27.880 NetType/WIFI Language/zh_CN'
p1663
sg16
S'cffc4f1a9edec58060e5ffa14dd7c1bf'
p1664
sa(dp1665
g2
S'27506'
p1666
sg4
S'5945'
p1667
sg6
S'01c6b7ef5ecbb283ce001ba7b55e0fd5'
p1668
sg8
S'xx4bf3973b92bd0f26c28d3e9f8a6171cb'
p1669
sg10
S'xx4c6804416186a82a185eb02ff2c2e960'
p1670
sg12
S'xx4b560da510d8f256082dbb80ecdedf07'
p1671
sg14
S'Mozilla/5.0 (Linux; Android 5.1; vivo X6D Build/LMY47I) AppleWebKit/537.36 (KHTML, like Gecko) Version/4.0 Chrome/37.0.0.0 Mobile MQQBrowser/6.8 TBS/036849 Safari/537.36 MicroMessenger/6.3.27.880 NetType/WIFI Language/zh_CN'
p1672
sg16
S'cffc4f1a9edec58060e5ffa14dd7c1bf'
p1673
sa(dp1674
g2
S'27506'
p1675
sg4
S'5961'
p1676
sg6
S'01c6b7ef5ecbb283ce001ba7b55e0fd5'
p1677
sg8
S'xx4bf3973b92bd0f26c28d3e9f8a6171cb'
p1678
sg10
S'xx4c6804416186a82a185eb02ff2c2e960'
p1679
sg12
S'xx4b560da510d8f256082dbb80ecdedf07'
p1680
sg14
S'Mozilla/5.0 (Linux; Android 5.1; vivo X6D Build/LMY47I) AppleWebKit/537.36 (KHTML, like Gecko) Version/4.0 Chrome/37.0.0.0 Mobile MQQBrowser/6.8 TBS/036849 Safari/537.36 MicroMessenger/6.3.27.880 NetType/WIFI Language/zh_CN'
p1681
sg16
S'cffc4f1a9edec58060e5ffa14dd7c1bf'
p1682
sa(dp1683
g2
S'27506'
p1684
sg4
S'5976'
p1685
sg6
S'01c6b7ef5ecbb283ce001ba7b55e0fd5'
p1686
sg8
S'xx4bf3973b92bd0f26c28d3e9f8a6171cb'
p1687
sg10
S'xx4c6804416186a82a185eb02ff2c2e960'
p1688
sg12
S'xx4b560da510d8f256082dbb80ecdedf07'
p1689
sg14
S'Mozilla/5.0 (Linux; Android 5.1; vivo X6D Build/LMY47I) AppleWebKit/537.36 (KHTML, like Gecko) Version/4.0 Chrome/37.0.0.0 Mobile MQQBrowser/6.8 TBS/036849 Safari/537.36 MicroMessenger/6.3.27.880 NetType/WIFI Language/zh_CN'
p1690
sg16
S'cffc4f1a9edec58060e5ffa14dd7c1bf'
p1691
sa(dp1692
g2
S'27506'
p1693
sg4
S'5995'
p1694
sg6
S'01c6b7ef5ecbb283ce001ba7b55e0fd5'
p1695
sg8
S'xx4bf3973b92bd0f26c28d3e9f8a6171cb'
p1696
sg10
S'xx4c6804416186a82a185eb02ff2c2e960'
p1697
sg12
S'xx4b560da510d8f256082dbb80ecdedf07'
p1698
sg14
S'Mozilla/5.0 (Linux; Android 5.1; vivo X6D Build/LMY47I) AppleWebKit/537.36 (KHTML, like Gecko) Version/4.0 Chrome/37.0.0.0 Mobile MQQBrowser/6.8 TBS/036849 Safari/537.36 MicroMessenger/6.3.27.880 NetType/WIFI Language/zh_CN'
p1699
sg16
S'cffc4f1a9edec58060e5ffa14dd7c1bf'
p1700
sa(dp1701
g2
S'27506'
p1702
sg4
S'6008'
p1703
sg6
S'01c6b7ef5ecbb283ce001ba7b55e0fd5'
p1704
sg8
S'xx4bf3973b92bd0f26c28d3e9f8a6171cb'
p1705
sg10
S'xx4c6804416186a82a185eb02ff2c2e960'
p1706
sg12
S'xx4b560da510d8f256082dbb80ecdedf07'
p1707
sg14
S'Mozilla/5.0 (Linux; Android 5.1; vivo X6D Build/LMY47I) AppleWebKit/537.36 (KHTML, like Gecko) Version/4.0 Chrome/37.0.0.0 Mobile MQQBrowser/6.8 TBS/036849 Safari/537.36 MicroMessenger/6.3.27.880 NetType/WIFI Language/zh_CN'
p1708
sg16
S'cffc4f1a9edec58060e5ffa14dd7c1bf'
p1709
sa(dp1710
g2
S'27506'
p1711
sg4
S'6021'
p1712
sg6
S'01c6b7ef5ecbb283ce001ba7b55e0fd5'
p1713
sg8
S'xx4bf3973b92bd0f26c28d3e9f8a6171cb'
p1714
sg10
S'xx4c6804416186a82a185eb02ff2c2e960'
p1715
sg12
S'xx4b560da510d8f256082dbb80ecdedf07'
p1716
sg14
S'Mozilla/5.0 (Linux; Android 5.1; vivo X6D Build/LMY47I) AppleWebKit/537.36 (KHTML, like Gecko) Version/4.0 Chrome/37.0.0.0 Mobile MQQBrowser/6.8 TBS/036849 Safari/537.36 MicroMessenger/6.3.27.880 NetType/WIFI Language/zh_CN'
p1717
sg16
S'cffc4f1a9edec58060e5ffa14dd7c1bf'
p1718
sa(dp1719
g2
S'27506'
p1720
sg4
S'6034'
p1721
sg6
S'01c6b7ef5ecbb283ce001ba7b55e0fd5'
p1722
sg8
S'xx4bf3973b92bd0f26c28d3e9f8a6171cb'
p1723
sg10
S'xx4c6804416186a82a185eb02ff2c2e960'
p1724
sg12
S'xx4b560da510d8f256082dbb80ecdedf07'
p1725
sg14
S'Mozilla/5.0 (Linux; Android 5.1; vivo X6D Build/LMY47I) AppleWebKit/537.36 (KHTML, like Gecko) Version/4.0 Chrome/37.0.0.0 Mobile MQQBrowser/6.8 TBS/036849 Safari/537.36 MicroMessenger/6.3.27.880 NetType/WIFI Language/zh_CN'
p1726
sg16
S'cffc4f1a9edec58060e5ffa14dd7c1bf'
p1727
sa(dp1728
g2
S'27506'
p1729
sg4
S'6052'
p1730
sg6
S'01c6b7ef5ecbb283ce001ba7b55e0fd5'
p1731
sg8
S'xx4bf3973b92bd0f26c28d3e9f8a6171cb'
p1732
sg10
S'xx4c6804416186a82a185eb02ff2c2e960'
p1733
sg12
S'xx4b560da510d8f256082dbb80ecdedf07'
p1734
sg14
S'Mozilla/5.0 (Linux; Android 5.1; vivo X6D Build/LMY47I) AppleWebKit/537.36 (KHTML, like Gecko) Version/4.0 Chrome/37.0.0.0 Mobile MQQBrowser/6.8 TBS/036849 Safari/537.36 MicroMessenger/6.3.27.880 NetType/WIFI Language/zh_CN'
p1735
sg16
S'cffc4f1a9edec58060e5ffa14dd7c1bf'
p1736
sa(dp1737
g2
S'27506'
p1738
sg4
S'6065'
p1739
sg6
S'01c6b7ef5ecbb283ce001ba7b55e0fd5'
p1740
sg8
S'xx4bf3973b92bd0f26c28d3e9f8a6171cb'
p1741
sg10
S'xx4c6804416186a82a185eb02ff2c2e960'
p1742
sg12
S'xx4b560da510d8f256082dbb80ecdedf07'
p1743
sg14
S'Mozilla/5.0 (Linux; Android 5.1; vivo X6D Build/LMY47I) AppleWebKit/537.36 (KHTML, like Gecko) Version/4.0 Chrome/37.0.0.0 Mobile MQQBrowser/6.8 TBS/036849 Safari/537.36 MicroMessenger/6.3.27.880 NetType/WIFI Language/zh_CN'
p1744
sg16
S'cffc4f1a9edec58060e5ffa14dd7c1bf'
p1745
sa(dp1746
g2
S'27506'
p1747
sg4
S'6082'
p1748
sg6
S'01c6b7ef5ecbb283ce001ba7b55e0fd5'
p1749
sg8
S'xx4bf3973b92bd0f26c28d3e9f8a6171cb'
p1750
sg10
S'xx4c6804416186a82a185eb02ff2c2e960'
p1751
sg12
S'xx4b560da510d8f256082dbb80ecdedf07'
p1752
sg14
S'Mozilla/5.0 (Linux; Android 5.1; vivo X6D Build/LMY47I) AppleWebKit/537.36 (KHTML, like Gecko) Version/4.0 Chrome/37.0.0.0 Mobile MQQBrowser/6.8 TBS/036849 Safari/537.36 MicroMessenger/6.3.27.880 NetType/WIFI Language/zh_CN'
p1753
sg16
S'cffc4f1a9edec58060e5ffa14dd7c1bf'
p1754
sa(dp1755
g2
S'27506'
p1756
sg4
S'6105'
p1757
sg6
S'01c6b7ef5ecbb283ce001ba7b55e0fd5'
p1758
sg8
S'xx4bf3973b92bd0f26c28d3e9f8a6171cb'
p1759
sg10
S'xx4c6804416186a82a185eb02ff2c2e960'
p1760
sg12
S'xx4b560da510d8f256082dbb80ecdedf07'
p1761
sg14
S'Mozilla/5.0 (Linux; Android 5.1; vivo X6D Build/LMY47I) AppleWebKit/537.36 (KHTML, like Gecko) Version/4.0 Chrome/37.0.0.0 Mobile MQQBrowser/6.8 TBS/036849 Safari/537.36 MicroMessenger/6.3.27.880 NetType/WIFI Language/zh_CN'
p1762
sg16
S'cffc4f1a9edec58060e5ffa14dd7c1bf'
p1763
sa(dp1764
g2
S'27506'
p1765
sg4
S'6121'
p1766
sg6
S'01c6b7ef5ecbb283ce001ba7b55e0fd5'
p1767
sg8
S'xx4bf3973b92bd0f26c28d3e9f8a6171cb'
p1768
sg10
S'xx4c6804416186a82a185eb02ff2c2e960'
p1769
sg12
S'xx4b560da510d8f256082dbb80ecdedf07'
p1770
sg14
S'Mozilla/5.0 (Linux; Android 5.1; vivo X6D Build/LMY47I) AppleWebKit/537.36 (KHTML, like Gecko) Version/4.0 Chrome/37.0.0.0 Mobile MQQBrowser/6.8 TBS/036849 Safari/537.36 MicroMessenger/6.3.27.880 NetType/WIFI Language/zh_CN'
p1771
sg16
S'cffc4f1a9edec58060e5ffa14dd7c1bf'
p1772
sa(dp1773
g2
S'27506'
p1774
sg4
S'6137'
p1775
sg6
S'01c6b7ef5ecbb283ce001ba7b55e0fd5'
p1776
sg8
S'xx4bf3973b92bd0f26c28d3e9f8a6171cb'
p1777
sg10
S'xx4c6804416186a82a185eb02ff2c2e960'
p1778
sg12
S'xx4b560da510d8f256082dbb80ecdedf07'
p1779
sg14
S'Mozilla/5.0 (Linux; Android 5.1; vivo X6D Build/LMY47I) AppleWebKit/537.36 (KHTML, like Gecko) Version/4.0 Chrome/37.0.0.0 Mobile MQQBrowser/6.8 TBS/036849 Safari/537.36 MicroMessenger/6.3.27.880 NetType/WIFI Language/zh_CN'
p1780
sg16
S'cffc4f1a9edec58060e5ffa14dd7c1bf'
p1781
sa(dp1782
g2
S'27506'
p1783
sg4
S'6152'
p1784
sg6
S'01c6b7ef5ecbb283ce001ba7b55e0fd5'
p1785
sg8
S'xx4bf3973b92bd0f26c28d3e9f8a6171cb'
p1786
sg10
S'xx4c6804416186a82a185eb02ff2c2e960'
p1787
sg12
S'xx4b560da510d8f256082dbb80ecdedf07'
p1788
sg14
S'Mozilla/5.0 (Linux; Android 5.1; vivo X6D Build/LMY47I) AppleWebKit/537.36 (KHTML, like Gecko) Version/4.0 Chrome/37.0.0.0 Mobile MQQBrowser/6.8 TBS/036849 Safari/537.36 MicroMessenger/6.3.27.880 NetType/WIFI Language/zh_CN'
p1789
sg16
S'cffc4f1a9edec58060e5ffa14dd7c1bf'
p1790
sa(dp1791
g2
S'27506'
p1792
sg4
S'6163'
p1793
sg6
S'01c6b7ef5ecbb283ce001ba7b55e0fd5'
p1794
sg8
S'xx4bf3973b92bd0f26c28d3e9f8a6171cb'
p1795
sg10
S'xx4c6804416186a82a185eb02ff2c2e960'
p1796
sg12
S'xx4b560da510d8f256082dbb80ecdedf07'
p1797
sg14
S'Mozilla/5.0 (Linux; Android 5.1; vivo X6D Build/LMY47I) AppleWebKit/537.36 (KHTML, like Gecko) Version/4.0 Chrome/37.0.0.0 Mobile MQQBrowser/6.8 TBS/036849 Safari/537.36 MicroMessenger/6.3.27.880 NetType/WIFI Language/zh_CN'
p1798
sg16
S'cffc4f1a9edec58060e5ffa14dd7c1bf'
p1799
sa(dp1800
g2
S'27506'
p1801
sg4
S'6179'
p1802
sg6
S'01c6b7ef5ecbb283ce001ba7b55e0fd5'
p1803
sg8
S'xx4bf3973b92bd0f26c28d3e9f8a6171cb'
p1804
sg10
S'xx4c6804416186a82a185eb02ff2c2e960'
p1805
sg12
S'xx4b560da510d8f256082dbb80ecdedf07'
p1806
sg14
S'Mozilla/5.0 (Linux; Android 5.1; vivo X6D Build/LMY47I) AppleWebKit/537.36 (KHTML, like Gecko) Version/4.0 Chrome/37.0.0.0 Mobile MQQBrowser/6.8 TBS/036849 Safari/537.36 MicroMessenger/6.3.27.880 NetType/WIFI Language/zh_CN'
p1807
sg16
S'cffc4f1a9edec58060e5ffa14dd7c1bf'
p1808
sa(dp1809
g2
S'27506'
p1810
sg4
S'6196'
p1811
sg6
S'01c6b7ef5ecbb283ce001ba7b55e0fd5'
p1812
sg8
S'xx4bf3973b92bd0f26c28d3e9f8a6171cb'
p1813
sg10
S'xx4c6804416186a82a185eb02ff2c2e960'
p1814
sg12
S'xx4b560da510d8f256082dbb80ecdedf07'
p1815
sg14
S'Mozilla/5.0 (Linux; Android 5.1; vivo X6D Build/LMY47I) AppleWebKit/537.36 (KHTML, like Gecko) Version/4.0 Chrome/37.0.0.0 Mobile MQQBrowser/6.8 TBS/036849 Safari/537.36 MicroMessenger/6.3.27.880 NetType/WIFI Language/zh_CN'
p1816
sg16
S'cffc4f1a9edec58060e5ffa14dd7c1bf'
p1817
sa(dp1818
g2
S'27506'
p1819
sg4
S'6213'
p1820
sg6
S'01c6b7ef5ecbb283ce001ba7b55e0fd5'
p1821
sg8
S'xx4bf3973b92bd0f26c28d3e9f8a6171cb'
p1822
sg10
S'xx4c6804416186a82a185eb02ff2c2e960'
p1823
sg12
S'xx4b560da510d8f256082dbb80ecdedf07'
p1824
sg14
S'Mozilla/5.0 (Linux; Android 5.1; vivo X6D Build/LMY47I) AppleWebKit/537.36 (KHTML, like Gecko) Version/4.0 Chrome/37.0.0.0 Mobile MQQBrowser/6.8 TBS/036849 Safari/537.36 MicroMessenger/6.3.27.880 NetType/WIFI Language/zh_CN'
p1825
sg16
S'cffc4f1a9edec58060e5ffa14dd7c1bf'
p1826
sa(dp1827
g2
S'27506'
p1828
sg4
S'6228'
p1829
sg6
S'01c6b7ef5ecbb283ce001ba7b55e0fd5'
p1830
sg8
S'xx4bf3973b92bd0f26c28d3e9f8a6171cb'
p1831
sg10
S'xx4c6804416186a82a185eb02ff2c2e960'
p1832
sg12
S'xx4b560da510d8f256082dbb80ecdedf07'
p1833
sg14
S'Mozilla/5.0 (Linux; Android 5.1; vivo X6D Build/LMY47I) AppleWebKit/537.36 (KHTML, like Gecko) Version/4.0 Chrome/37.0.0.0 Mobile MQQBrowser/6.8 TBS/036849 Safari/537.36 MicroMessenger/6.3.27.880 NetType/WIFI Language/zh_CN'
p1834
sg16
S'cffc4f1a9edec58060e5ffa14dd7c1bf'
p1835
sa(dp1836
g2
S'27506'
p1837
sg4
S'6243'
p1838
sg6
S'01c6b7ef5ecbb283ce001ba7b55e0fd5'
p1839
sg8
S'xx4bf3973b92bd0f26c28d3e9f8a6171cb'
p1840
sg10
S'xx4c6804416186a82a185eb02ff2c2e960'
p1841
sg12
S'xx4b560da510d8f256082dbb80ecdedf07'
p1842
sg14
S'Mozilla/5.0 (Linux; Android 5.1; vivo X6D Build/LMY47I) AppleWebKit/537.36 (KHTML, like Gecko) Version/4.0 Chrome/37.0.0.0 Mobile MQQBrowser/6.8 TBS/036849 Safari/537.36 MicroMessenger/6.3.27.880 NetType/WIFI Language/zh_CN'
p1843
sg16
S'cffc4f1a9edec58060e5ffa14dd7c1bf'
p1844
sa(dp1845
g2
S'27506'
p1846
sg4
S'6256'
p1847
sg6
S'01c6b7ef5ecbb283ce001ba7b55e0fd5'
p1848
sg8
S'xx4bf3973b92bd0f26c28d3e9f8a6171cb'
p1849
sg10
S'xx4c6804416186a82a185eb02ff2c2e960'
p1850
sg12
S'xx4b560da510d8f256082dbb80ecdedf07'
p1851
sg14
S'Mozilla/5.0 (Linux; Android 5.1; vivo X6D Build/LMY47I) AppleWebKit/537.36 (KHTML, like Gecko) Version/4.0 Chrome/37.0.0.0 Mobile MQQBrowser/6.8 TBS/036849 Safari/537.36 MicroMessenger/6.3.27.880 NetType/WIFI Language/zh_CN'
p1852
sg16
S'cffc4f1a9edec58060e5ffa14dd7c1bf'
p1853
sa(dp1854
g2
S'27506'
p1855
sg4
S'6271'
p1856
sg6
S'01c6b7ef5ecbb283ce001ba7b55e0fd5'
p1857
sg8
S'xx4bf3973b92bd0f26c28d3e9f8a6171cb'
p1858
sg10
S'xx4c6804416186a82a185eb02ff2c2e960'
p1859
sg12
S'xx4b560da510d8f256082dbb80ecdedf07'
p1860
sg14
S'Mozilla/5.0 (Linux; Android 5.1; vivo X6D Build/LMY47I) AppleWebKit/537.36 (KHTML, like Gecko) Version/4.0 Chrome/37.0.0.0 Mobile MQQBrowser/6.8 TBS/036849 Safari/537.36 MicroMessenger/6.3.27.880 NetType/WIFI Language/zh_CN'
p1861
sg16
S'cffc4f1a9edec58060e5ffa14dd7c1bf'
p1862
sa(dp1863
g2
S'27506'
p1864
sg4
S'6283'
p1865
sg6
S'01c6b7ef5ecbb283ce001ba7b55e0fd5'
p1866
sg8
S'xx4bf3973b92bd0f26c28d3e9f8a6171cb'
p1867
sg10
S'xx4c6804416186a82a185eb02ff2c2e960'
p1868
sg12
S'xx4b560da510d8f256082dbb80ecdedf07'
p1869
sg14
S'Mozilla/5.0 (Linux; Android 5.1; vivo X6D Build/LMY47I) AppleWebKit/537.36 (KHTML, like Gecko) Version/4.0 Chrome/37.0.0.0 Mobile MQQBrowser/6.8 TBS/036849 Safari/537.36 MicroMessenger/6.3.27.880 NetType/WIFI Language/zh_CN'
p1870
sg16
S'cffc4f1a9edec58060e5ffa14dd7c1bf'
p1871
sa(dp1872
g2
S'27506'
p1873
sg4
S'6296'
p1874
sg6
S'01c6b7ef5ecbb283ce001ba7b55e0fd5'
p1875
sg8
S'xx4bf3973b92bd0f26c28d3e9f8a6171cb'
p1876
sg10
S'xx4c6804416186a82a185eb02ff2c2e960'
p1877
sg12
S'xx4b560da510d8f256082dbb80ecdedf07'
p1878
sg14
S'Mozilla/5.0 (Linux; Android 5.1; vivo X6D Build/LMY47I) AppleWebKit/537.36 (KHTML, like Gecko) Version/4.0 Chrome/37.0.0.0 Mobile MQQBrowser/6.8 TBS/036849 Safari/537.36 MicroMessenger/6.3.27.880 NetType/WIFI Language/zh_CN'
p1879
sg16
S'cffc4f1a9edec58060e5ffa14dd7c1bf'
p1880
sa(dp1881
g2
S'27506'
p1882
sg4
S'6309'
p1883
sg6
S'01c6b7ef5ecbb283ce001ba7b55e0fd5'
p1884
sg8
S'xx4bf3973b92bd0f26c28d3e9f8a6171cb'
p1885
sg10
S'xx4c6804416186a82a185eb02ff2c2e960'
p1886
sg12
S'xx4b560da510d8f256082dbb80ecdedf07'
p1887
sg14
S'Mozilla/5.0 (Linux; Android 5.1; vivo X6D Build/LMY47I) AppleWebKit/537.36 (KHTML, like Gecko) Version/4.0 Chrome/37.0.0.0 Mobile MQQBrowser/6.8 TBS/036849 Safari/537.36 MicroMessenger/6.3.27.880 NetType/WIFI Language/zh_CN'
p1888
sg16
S'cffc4f1a9edec58060e5ffa14dd7c1bf'
p1889
sa(dp1890
g2
S'27506'
p1891
sg4
S'6328'
p1892
sg6
S'01c6b7ef5ecbb283ce001ba7b55e0fd5'
p1893
sg8
S'xx4bf3973b92bd0f26c28d3e9f8a6171cb'
p1894
sg10
S'xx4c6804416186a82a185eb02ff2c2e960'
p1895
sg12
S'xx4b560da510d8f256082dbb80ecdedf07'
p1896
sg14
S'Mozilla/5.0 (Linux; Android 5.1; vivo X6D Build/LMY47I) AppleWebKit/537.36 (KHTML, like Gecko) Version/4.0 Chrome/37.0.0.0 Mobile MQQBrowser/6.8 TBS/036849 Safari/537.36 MicroMessenger/6.3.27.880 NetType/WIFI Language/zh_CN'
p1897
sg16
S'cffc4f1a9edec58060e5ffa14dd7c1bf'
p1898
sa(dp1899
g2
S'27506'
p1900
sg4
S'6344'
p1901
sg6
S'01c6b7ef5ecbb283ce001ba7b55e0fd5'
p1902
sg8
S'xx4bf3973b92bd0f26c28d3e9f8a6171cb'
p1903
sg10
S'xx4c6804416186a82a185eb02ff2c2e960'
p1904
sg12
S'xx4b560da510d8f256082dbb80ecdedf07'
p1905
sg14
S'Mozilla/5.0 (Linux; Android 5.1; vivo X6D Build/LMY47I) AppleWebKit/537.36 (KHTML, like Gecko) Version/4.0 Chrome/37.0.0.0 Mobile MQQBrowser/6.8 TBS/036849 Safari/537.36 MicroMessenger/6.3.27.880 NetType/WIFI Language/zh_CN'
p1906
sg16
S'cffc4f1a9edec58060e5ffa14dd7c1bf'
p1907
sa(dp1908
g2
S'27506'
p1909
sg4
S'6360'
p1910
sg6
S'01c6b7ef5ecbb283ce001ba7b55e0fd5'
p1911
sg8
S'xx4bf3973b92bd0f26c28d3e9f8a6171cb'
p1912
sg10
S'xx4c6804416186a82a185eb02ff2c2e960'
p1913
sg12
S'xx4b560da510d8f256082dbb80ecdedf07'
p1914
sg14
S'Mozilla/5.0 (Linux; Android 5.1; vivo X6D Build/LMY47I) AppleWebKit/537.36 (KHTML, like Gecko) Version/4.0 Chrome/37.0.0.0 Mobile MQQBrowser/6.8 TBS/036849 Safari/537.36 MicroMessenger/6.3.27.880 NetType/WIFI Language/zh_CN'
p1915
sg16
S'cffc4f1a9edec58060e5ffa14dd7c1bf'
p1916
sa(dp1917
g2
S'27506'
p1918
sg4
S'6376'
p1919
sg6
S'01c6b7ef5ecbb283ce001ba7b55e0fd5'
p1920
sg8
S'xx4bf3973b92bd0f26c28d3e9f8a6171cb'
p1921
sg10
S'xx4c6804416186a82a185eb02ff2c2e960'
p1922
sg12
S'xx4b560da510d8f256082dbb80ecdedf07'
p1923
sg14
S'Mozilla/5.0 (Linux; Android 5.1; vivo X6D Build/LMY47I) AppleWebKit/537.36 (KHTML, like Gecko) Version/4.0 Chrome/37.0.0.0 Mobile MQQBrowser/6.8 TBS/036849 Safari/537.36 MicroMessenger/6.3.27.880 NetType/WIFI Language/zh_CN'
p1924
sg16
S'cffc4f1a9edec58060e5ffa14dd7c1bf'
p1925
sa(dp1926
g2
S'27506'
p1927
sg4
S'6397'
p1928
sg6
S'01c6b7ef5ecbb283ce001ba7b55e0fd5'
p1929
sg8
S'xx4bf3973b92bd0f26c28d3e9f8a6171cb'
p1930
sg10
S'xx4c6804416186a82a185eb02ff2c2e960'
p1931
sg12
S'xx4b560da510d8f256082dbb80ecdedf07'
p1932
sg14
S'Mozilla/5.0 (Linux; Android 5.1; vivo X6D Build/LMY47I) AppleWebKit/537.36 (KHTML, like Gecko) Version/4.0 Chrome/37.0.0.0 Mobile MQQBrowser/6.8 TBS/036849 Safari/537.36 MicroMessenger/6.3.27.880 NetType/WIFI Language/zh_CN'
p1933
sg16
S'cffc4f1a9edec58060e5ffa14dd7c1bf'
p1934
sa(dp1935
g2
S'27506'
p1936
sg4
S'6415'
p1937
sg6
S'01c6b7ef5ecbb283ce001ba7b55e0fd5'
p1938
sg8
S'xx4bf3973b92bd0f26c28d3e9f8a6171cb'
p1939
sg10
S'xx4c6804416186a82a185eb02ff2c2e960'
p1940
sg12
S'xx4b560da510d8f256082dbb80ecdedf07'
p1941
sg14
S'Mozilla/5.0 (Linux; Android 5.1; vivo X6D Build/LMY47I) AppleWebKit/537.36 (KHTML, like Gecko) Version/4.0 Chrome/37.0.0.0 Mobile MQQBrowser/6.8 TBS/036849 Safari/537.36 MicroMessenger/6.3.27.880 NetType/WIFI Language/zh_CN'
p1942
sg16
S'cffc4f1a9edec58060e5ffa14dd7c1bf'
p1943
sa(dp1944
g2
S'27506'
p1945
sg4
S'6431'
p1946
sg6
S'01c6b7ef5ecbb283ce001ba7b55e0fd5'
p1947
sg8
S'xx4bf3973b92bd0f26c28d3e9f8a6171cb'
p1948
sg10
S'xx4c6804416186a82a185eb02ff2c2e960'
p1949
sg12
S'xx4b560da510d8f256082dbb80ecdedf07'
p1950
sg14
S'Mozilla/5.0 (Linux; Android 5.1; vivo X6D Build/LMY47I) AppleWebKit/537.36 (KHTML, like Gecko) Version/4.0 Chrome/37.0.0.0 Mobile MQQBrowser/6.8 TBS/036849 Safari/537.36 MicroMessenger/6.3.27.880 NetType/WIFI Language/zh_CN'
p1951
sg16
S'cffc4f1a9edec58060e5ffa14dd7c1bf'
p1952
sa(dp1953
g2
S'27506'
p1954
sg4
S'6450'
p1955
sg6
S'01c6b7ef5ecbb283ce001ba7b55e0fd5'
p1956
sg8
S'xx4bf3973b92bd0f26c28d3e9f8a6171cb'
p1957
sg10
S'xx4c6804416186a82a185eb02ff2c2e960'
p1958
sg12
S'xx4b560da510d8f256082dbb80ecdedf07'
p1959
sg14
S'Mozilla/5.0 (Linux; Android 5.1; vivo X6D Build/LMY47I) AppleWebKit/537.36 (KHTML, like Gecko) Version/4.0 Chrome/37.0.0.0 Mobile MQQBrowser/6.8 TBS/036849 Safari/537.36 MicroMessenger/6.3.27.880 NetType/WIFI Language/zh_CN'
p1960
sg16
S'cffc4f1a9edec58060e5ffa14dd7c1bf'
p1961
sa(dp1962
g2
S'27506'
p1963
sg4
S'6467'
p1964
sg6
S'01c6b7ef5ecbb283ce001ba7b55e0fd5'
p1965
sg8
S'xx4bf3973b92bd0f26c28d3e9f8a6171cb'
p1966
sg10
S'xx4c6804416186a82a185eb02ff2c2e960'
p1967
sg12
S'xx4b560da510d8f256082dbb80ecdedf07'
p1968
sg14
S'Mozilla/5.0 (Linux; Android 5.1; vivo X6D Build/LMY47I) AppleWebKit/537.36 (KHTML, like Gecko) Version/4.0 Chrome/37.0.0.0 Mobile MQQBrowser/6.8 TBS/036849 Safari/537.36 MicroMessenger/6.3.27.880 NetType/WIFI Language/zh_CN'
p1969
sg16
S'cffc4f1a9edec58060e5ffa14dd7c1bf'
p1970
sa(dp1971
g2
S'27506'
p1972
sg4
S'6481'
p1973
sg6
S'01c6b7ef5ecbb283ce001ba7b55e0fd5'
p1974
sg8
S'xx4bf3973b92bd0f26c28d3e9f8a6171cb'
p1975
sg10
S'xx4c6804416186a82a185eb02ff2c2e960'
p1976
sg12
S'xx4b560da510d8f256082dbb80ecdedf07'
p1977
sg14
S'Mozilla/5.0 (Linux; Android 5.1; vivo X6D Build/LMY47I) AppleWebKit/537.36 (KHTML, like Gecko) Version/4.0 Chrome/37.0.0.0 Mobile MQQBrowser/6.8 TBS/036849 Safari/537.36 MicroMessenger/6.3.27.880 NetType/WIFI Language/zh_CN'
p1978
sg16
S'cffc4f1a9edec58060e5ffa14dd7c1bf'
p1979
sa(dp1980
g2
S'27506'
p1981
sg4
S'6495'
p1982
sg6
S'01c6b7ef5ecbb283ce001ba7b55e0fd5'
p1983
sg8
S'xx4bf3973b92bd0f26c28d3e9f8a6171cb'
p1984
sg10
S'xx4c6804416186a82a185eb02ff2c2e960'
p1985
sg12
S'xx4b560da510d8f256082dbb80ecdedf07'
p1986
sg14
S'Mozilla/5.0 (Linux; Android 5.1; vivo X6D Build/LMY47I) AppleWebKit/537.36 (KHTML, like Gecko) Version/4.0 Chrome/37.0.0.0 Mobile MQQBrowser/6.8 TBS/036849 Safari/537.36 MicroMessenger/6.3.27.880 NetType/WIFI Language/zh_CN'
p1987
sg16
S'cffc4f1a9edec58060e5ffa14dd7c1bf'
p1988
sa(dp1989
g2
S'27506'
p1990
sg4
S'6514'
p1991
sg6
S'01c6b7ef5ecbb283ce001ba7b55e0fd5'
p1992
sg8
S'xx4bf3973b92bd0f26c28d3e9f8a6171cb'
p1993
sg10
S'xx4c6804416186a82a185eb02ff2c2e960'
p1994
sg12
S'xx4b560da510d8f256082dbb80ecdedf07'
p1995
sg14
S'Mozilla/5.0 (Linux; Android 5.1; vivo X6D Build/LMY47I) AppleWebKit/537.36 (KHTML, like Gecko) Version/4.0 Chrome/37.0.0.0 Mobile MQQBrowser/6.8 TBS/036849 Safari/537.36 MicroMessenger/6.3.27.880 NetType/WIFI Language/zh_CN'
p1996
sg16
S'cffc4f1a9edec58060e5ffa14dd7c1bf'
p1997
sa(dp1998
g2
S'27506'
p1999
sg4
S'6536'
p2000
sg6
S'01c6b7ef5ecbb283ce001ba7b55e0fd5'
p2001
sg8
S'xx4bf3973b92bd0f26c28d3e9f8a6171cb'
p2002
sg10
S'xx4c6804416186a82a185eb02ff2c2e960'
p2003
sg12
S'xx4b560da510d8f256082dbb80ecdedf07'
p2004
sg14
S'Mozilla/5.0 (Linux; Android 5.1; vivo X6D Build/LMY47I) AppleWebKit/537.36 (KHTML, like Gecko) Version/4.0 Chrome/37.0.0.0 Mobile MQQBrowser/6.8 TBS/036849 Safari/537.36 MicroMessenger/6.3.27.880 NetType/WIFI Language/zh_CN'
p2005
sg16
S'cffc4f1a9edec58060e5ffa14dd7c1bf'
p2006
sa(dp2007
g2
S'27506'
p2008
sg4
S'6557'
p2009
sg6
S'01c6b7ef5ecbb283ce001ba7b55e0fd5'
p2010
sg8
S'xx4bf3973b92bd0f26c28d3e9f8a6171cb'
p2011
sg10
S'xx4c6804416186a82a185eb02ff2c2e960'
p2012
sg12
S'xx4b560da510d8f256082dbb80ecdedf07'
p2013
sg14
S'Mozilla/5.0 (Linux; Android 5.1; vivo X6D Build/LMY47I) AppleWebKit/537.36 (KHTML, like Gecko) Version/4.0 Chrome/37.0.0.0 Mobile MQQBrowser/6.8 TBS/036849 Safari/537.36 MicroMessenger/6.3.27.880 NetType/WIFI Language/zh_CN'
p2014
sg16
S'cffc4f1a9edec58060e5ffa14dd7c1bf'
p2015
sa(dp2016
g2
S'27506'
p2017
sg4
S'6576'
p2018
sg6
S'01c6b7ef5ecbb283ce001ba7b55e0fd5'
p2019
sg8
S'xx4bf3973b92bd0f26c28d3e9f8a6171cb'
p2020
sg10
S'xx4c6804416186a82a185eb02ff2c2e960'
p2021
sg12
S'xx4b560da510d8f256082dbb80ecdedf07'
p2022
sg14
S'Mozilla/5.0 (Linux; Android 5.1; vivo X6D Build/LMY47I) AppleWebKit/537.36 (KHTML, like Gecko) Version/4.0 Chrome/37.0.0.0 Mobile MQQBrowser/6.8 TBS/036849 Safari/537.36 MicroMessenger/6.3.27.880 NetType/WIFI Language/zh_CN'
p2023
sg16
S'cffc4f1a9edec58060e5ffa14dd7c1bf'
p2024
sa(dp2025
g2
S'27506'
p2026
sg4
S'6597'
p2027
sg6
S'01c6b7ef5ecbb283ce001ba7b55e0fd5'
p2028
sg8
S'xx4bf3973b92bd0f26c28d3e9f8a6171cb'
p2029
sg10
S'xx4c6804416186a82a185eb02ff2c2e960'
p2030
sg12
S'xx4b560da510d8f256082dbb80ecdedf07'
p2031
sg14
S'Mozilla/5.0 (Linux; Android 5.1; vivo X6D Build/LMY47I) AppleWebKit/537.36 (KHTML, like Gecko) Version/4.0 Chrome/37.0.0.0 Mobile MQQBrowser/6.8 TBS/036849 Safari/537.36 MicroMessenger/6.3.27.880 NetType/WIFI Language/zh_CN'
p2032
sg16
S'cffc4f1a9edec58060e5ffa14dd7c1bf'
p2033
sa(dp2034
g2
S'27506'
p2035
sg4
S'6613'
p2036
sg6
S'01c6b7ef5ecbb283ce001ba7b55e0fd5'
p2037
sg8
S'xx4bf3973b92bd0f26c28d3e9f8a6171cb'
p2038
sg10
S'xx4c6804416186a82a185eb02ff2c2e960'
p2039
sg12
S'xx4b560da510d8f256082dbb80ecdedf07'
p2040
sg14
S'Mozilla/5.0 (Linux; Android 5.1; vivo X6D Build/LMY47I) AppleWebKit/537.36 (KHTML, like Gecko) Version/4.0 Chrome/37.0.0.0 Mobile MQQBrowser/6.8 TBS/036849 Safari/537.36 MicroMessenger/6.3.27.880 NetType/WIFI Language/zh_CN'
p2041
sg16
S'cffc4f1a9edec58060e5ffa14dd7c1bf'
p2042
sa(dp2043
g2
S'27506'
p2044
sg4
S'6633'
p2045
sg6
S'01c6b7ef5ecbb283ce001ba7b55e0fd5'
p2046
sg8
S'xx4bf3973b92bd0f26c28d3e9f8a6171cb'
p2047
sg10
S'xx4c6804416186a82a185eb02ff2c2e960'
p2048
sg12
S'xx4b560da510d8f256082dbb80ecdedf07'
p2049
sg14
S'Mozilla/5.0 (Linux; Android 5.1; vivo X6D Build/LMY47I) AppleWebKit/537.36 (KHTML, like Gecko) Version/4.0 Chrome/37.0.0.0 Mobile MQQBrowser/6.8 TBS/036849 Safari/537.36 MicroMessenger/6.3.27.880 NetType/WIFI Language/zh_CN'
p2050
sg16
S'cffc4f1a9edec58060e5ffa14dd7c1bf'
p2051
sa(dp2052
g2
S'27506'
p2053
sg4
S'6657'
p2054
sg6
S'01c6b7ef5ecbb283ce001ba7b55e0fd5'
p2055
sg8
S'xx4bf3973b92bd0f26c28d3e9f8a6171cb'
p2056
sg10
S'xx4c6804416186a82a185eb02ff2c2e960'
p2057
sg12
S'xx4b560da510d8f256082dbb80ecdedf07'
p2058
sg14
S'Mozilla/5.0 (Linux; Android 5.1; vivo X6D Build/LMY47I) AppleWebKit/537.36 (KHTML, like Gecko) Version/4.0 Chrome/37.0.0.0 Mobile MQQBrowser/6.8 TBS/036849 Safari/537.36 MicroMessenger/6.3.27.880 NetType/WIFI Language/zh_CN'
p2059
sg16
S'cffc4f1a9edec58060e5ffa14dd7c1bf'
p2060
sa(dp2061
g2
S'27506'
p2062
sg4
S'6677'
p2063
sg6
S'01c6b7ef5ecbb283ce001ba7b55e0fd5'
p2064
sg8
S'xx4bf3973b92bd0f26c28d3e9f8a6171cb'
p2065
sg10
S'xx4c6804416186a82a185eb02ff2c2e960'
p2066
sg12
S'xx4b560da510d8f256082dbb80ecdedf07'
p2067
sg14
S'Mozilla/5.0 (Linux; Android 5.1; vivo X6D Build/LMY47I) AppleWebKit/537.36 (KHTML, like Gecko) Version/4.0 Chrome/37.0.0.0 Mobile MQQBrowser/6.8 TBS/036849 Safari/537.36 MicroMessenger/6.3.27.880 NetType/WIFI Language/zh_CN'
p2068
sg16
S'cffc4f1a9edec58060e5ffa14dd7c1bf'
p2069
sa(dp2070
g2
S'27506'
p2071
sg4
S'6700'
p2072
sg6
S'01c6b7ef5ecbb283ce001ba7b55e0fd5'
p2073
sg8
S'xx4bf3973b92bd0f26c28d3e9f8a6171cb'
p2074
sg10
S'xx4c6804416186a82a185eb02ff2c2e960'
p2075
sg12
S'xx4b560da510d8f256082dbb80ecdedf07'
p2076
sg14
S'Mozilla/5.0 (Linux; Android 5.1; vivo X6D Build/LMY47I) AppleWebKit/537.36 (KHTML, like Gecko) Version/4.0 Chrome/37.0.0.0 Mobile MQQBrowser/6.8 TBS/036849 Safari/537.36 MicroMessenger/6.3.27.880 NetType/WIFI Language/zh_CN'
p2077
sg16
S'cffc4f1a9edec58060e5ffa14dd7c1bf'
p2078
sa(dp2079
g2
S'27506'
p2080
sg4
S'6720'
p2081
sg6
S'01c6b7ef5ecbb283ce001ba7b55e0fd5'
p2082
sg8
S'xx4bf3973b92bd0f26c28d3e9f8a6171cb'
p2083
sg10
S'xx4c6804416186a82a185eb02ff2c2e960'
p2084
sg12
S'xx4b560da510d8f256082dbb80ecdedf07'
p2085
sg14
S'Mozilla/5.0 (Linux; Android 5.1; vivo X6D Build/LMY47I) AppleWebKit/537.36 (KHTML, like Gecko) Version/4.0 Chrome/37.0.0.0 Mobile MQQBrowser/6.8 TBS/036849 Safari/537.36 MicroMessenger/6.3.27.880 NetType/WIFI Language/zh_CN'
p2086
sg16
S'cffc4f1a9edec58060e5ffa14dd7c1bf'
p2087
sa(dp2088
g2
S'27506'
p2089
sg4
S'6736'
p2090
sg6
S'01c6b7ef5ecbb283ce001ba7b55e0fd5'
p2091
sg8
S'xx4bf3973b92bd0f26c28d3e9f8a6171cb'
p2092
sg10
S'xx4c6804416186a82a185eb02ff2c2e960'
p2093
sg12
S'xx4b560da510d8f256082dbb80ecdedf07'
p2094
sg14
S'Mozilla/5.0 (Linux; Android 5.1; vivo X6D Build/LMY47I) AppleWebKit/537.36 (KHTML, like Gecko) Version/4.0 Chrome/37.0.0.0 Mobile MQQBrowser/6.8 TBS/036849 Safari/537.36 MicroMessenger/6.3.27.880 NetType/WIFI Language/zh_CN'
p2095
sg16
S'cffc4f1a9edec58060e5ffa14dd7c1bf'
p2096
sa(dp2097
g2
S'27506'
p2098
sg4
S'6755'
p2099
sg6
S'01c6b7ef5ecbb283ce001ba7b55e0fd5'
p2100
sg8
S'xx4bf3973b92bd0f26c28d3e9f8a6171cb'
p2101
sg10
S'xx4c6804416186a82a185eb02ff2c2e960'
p2102
sg12
S'xx4b560da510d8f256082dbb80ecdedf07'
p2103
sg14
S'Mozilla/5.0 (Linux; Android 5.1; vivo X6D Build/LMY47I) AppleWebKit/537.36 (KHTML, like Gecko) Version/4.0 Chrome/37.0.0.0 Mobile MQQBrowser/6.8 TBS/036849 Safari/537.36 MicroMessenger/6.3.27.880 NetType/WIFI Language/zh_CN'
p2104
sg16
S'cffc4f1a9edec58060e5ffa14dd7c1bf'
p2105
sa(dp2106
g2
S'27506'
p2107
sg4
S'6771'
p2108
sg6
S'01c6b7ef5ecbb283ce001ba7b55e0fd5'
p2109
sg8
S'xx4bf3973b92bd0f26c28d3e9f8a6171cb'
p2110
sg10
S'xx4c6804416186a82a185eb02ff2c2e960'
p2111
sg12
S'xx4b560da510d8f256082dbb80ecdedf07'
p2112
sg14
S'Mozilla/5.0 (Linux; Android 5.1; vivo X6D Build/LMY47I) AppleWebKit/537.36 (KHTML, like Gecko) Version/4.0 Chrome/37.0.0.0 Mobile MQQBrowser/6.8 TBS/036849 Safari/537.36 MicroMessenger/6.3.27.880 NetType/WIFI Language/zh_CN'
p2113
sg16
S'cffc4f1a9edec58060e5ffa14dd7c1bf'
p2114
sa(dp2115
g2
S'27506'
p2116
sg4
S'6792'
p2117
sg6
S'01c6b7ef5ecbb283ce001ba7b55e0fd5'
p2118
sg8
S'xx4bf3973b92bd0f26c28d3e9f8a6171cb'
p2119
sg10
S'xx4c6804416186a82a185eb02ff2c2e960'
p2120
sg12
S'xx4b560da510d8f256082dbb80ecdedf07'
p2121
sg14
S'Mozilla/5.0 (Linux; Android 5.1; vivo X6D Build/LMY47I) AppleWebKit/537.36 (KHTML, like Gecko) Version/4.0 Chrome/37.0.0.0 Mobile MQQBrowser/6.8 TBS/036849 Safari/537.36 MicroMessenger/6.3.27.880 NetType/WIFI Language/zh_CN'
p2122
sg16
S'cffc4f1a9edec58060e5ffa14dd7c1bf'
p2123
sa(dp2124
g2
S'27506'
p2125
sg4
S'6806'
p2126
sg6
S'01c6b7ef5ecbb283ce001ba7b55e0fd5'
p2127
sg8
S'xx4bf3973b92bd0f26c28d3e9f8a6171cb'
p2128
sg10
S'xx4c6804416186a82a185eb02ff2c2e960'
p2129
sg12
S'xx4b560da510d8f256082dbb80ecdedf07'
p2130
sg14
S'Mozilla/5.0 (Linux; Android 5.1; vivo X6D Build/LMY47I) AppleWebKit/537.36 (KHTML, like Gecko) Version/4.0 Chrome/37.0.0.0 Mobile MQQBrowser/6.8 TBS/036849 Safari/537.36 MicroMessenger/6.3.27.880 NetType/WIFI Language/zh_CN'
p2131
sg16
S'cffc4f1a9edec58060e5ffa14dd7c1bf'
p2132
sa(dp2133
g2
S'27506'
p2134
sg4
S'6817'
p2135
sg6
S'01c6b7ef5ecbb283ce001ba7b55e0fd5'
p2136
sg8
S'xx4bf3973b92bd0f26c28d3e9f8a6171cb'
p2137
sg10
S'xx4c6804416186a82a185eb02ff2c2e960'
p2138
sg12
S'xx4b560da510d8f256082dbb80ecdedf07'
p2139
sg14
S'Mozilla/5.0 (Linux; Android 5.1; vivo X6D Build/LMY47I) AppleWebKit/537.36 (KHTML, like Gecko) Version/4.0 Chrome/37.0.0.0 Mobile MQQBrowser/6.8 TBS/036849 Safari/537.36 MicroMessenger/6.3.27.880 NetType/WIFI Language/zh_CN'
p2140
sg16
S'cffc4f1a9edec58060e5ffa14dd7c1bf'
p2141
sa(dp2142
g2
S'27506'
p2143
sg4
S'6829'
p2144
sg6
S'01c6b7ef5ecbb283ce001ba7b55e0fd5'
p2145
sg8
S'xx4bf3973b92bd0f26c28d3e9f8a6171cb'
p2146
sg10
S'xx4c6804416186a82a185eb02ff2c2e960'
p2147
sg12
S'xx4b560da510d8f256082dbb80ecdedf07'
p2148
sg14
S'Mozilla/5.0 (Linux; Android 5.1; vivo X6D Build/LMY47I) AppleWebKit/537.36 (KHTML, like Gecko) Version/4.0 Chrome/37.0.0.0 Mobile MQQBrowser/6.8 TBS/036849 Safari/537.36 MicroMessenger/6.3.27.880 NetType/WIFI Language/zh_CN'
p2149
sg16
S'cffc4f1a9edec58060e5ffa14dd7c1bf'
p2150
sa(dp2151
g2
S'28614'
p2152
sg4
S'7066'
p2153
sg6
S'3a8f168d24ee7940ce6a0c2d49953446'
p2154
sg8
S'xx4bf3973b92bd0f26c28d3e9f8a6171cb'
p2155
sg10
S'xx4c6804416186a82a185eb02ff2c2e960'
p2156
sg12
S'xx4b560da510d8f256082dbb80ecdedf07'
p2157
sg14
S'Mozilla/5.0 (Linux; Android 5.1; vivo X6D Build/LMY47I) AppleWebKit/537.36 (KHTML, like Gecko) Version/4.0 Chrome/37.0.0.0 Mobile MQQBrowser/6.8 TBS/036849 Safari/537.36 MicroMessenger/6.3.27.880 NetType/WIFI Language/zh_CN'
p2158
sg16
S'cffc4f1a9edec58060e5ffa14dd7c1bf'
p2159
sa(dp2160
g2
S'28614'
p2161
sg4
S'7079'
p2162
sg6
S'3a8f168d24ee7940ce6a0c2d49953446'
p2163
sg8
S'xx4bf3973b92bd0f26c28d3e9f8a6171cb'
p2164
sg10
S'xx4c6804416186a82a185eb02ff2c2e960'
p2165
sg12
S'xx4b560da510d8f256082dbb80ecdedf07'
p2166
sg14
S'Mozilla/5.0 (Linux; Android 5.1; vivo X6D Build/LMY47I) AppleWebKit/537.36 (KHTML, like Gecko) Version/4.0 Chrome/37.0.0.0 Mobile MQQBrowser/6.8 TBS/036849 Safari/537.36 MicroMessenger/6.3.27.880 NetType/WIFI Language/zh_CN'
p2167
sg16
S'cffc4f1a9edec58060e5ffa14dd7c1bf'
p2168
sa(dp2169
g2
S'47625'
p2170
sg4
S'7328'
p2171
sg6
S'3a8f168d24ee7940ce6a0c2d49953446'
p2172
sg8
S'xx4bf3973b92bd0f26c28d3e9f8a6171cb'
p2173
sg10
S'xx4c6804416186a82a185eb02ff2c2e960'
p2174
sg12
S'xx4b560da510d8f256082dbb80ecdedf07'
p2175
sg14
S'Mozilla/5.0 (Linux; Android 5.1; vivo X6D Build/LMY47I) AppleWebKit/537.36 (KHTML, like Gecko) Version/4.0 Chrome/37.0.0.0 Mobile MQQBrowser/6.8 TBS/036849 Safari/537.36 MicroMessenger/6.3.27.880 NetType/WIFI Language/zh_CN'
p2176
sg16
S'cffc4f1a9edec58060e5ffa14dd7c1bf'
p2177
sa(dp2178
g2
S'47625'
p2179
sg4
S'7342'
p2180
sg6
S'3a8f168d24ee7940ce6a0c2d49953446'
p2181
sg8
S'xx4bf3973b92bd0f26c28d3e9f8a6171cb'
p2182
sg10
S'xx4c6804416186a82a185eb02ff2c2e960'
p2183
sg12
S'xx4b560da510d8f256082dbb80ecdedf07'
p2184
sg14
S'Mozilla/5.0 (Linux; Android 5.1; vivo X6D Build/LMY47I) AppleWebKit/537.36 (KHTML, like Gecko) Version/4.0 Chrome/37.0.0.0 Mobile MQQBrowser/6.8 TBS/036849 Safari/537.36 MicroMessenger/6.3.27.880 NetType/WIFI Language/zh_CN'
p2185
sg16
S'cffc4f1a9edec58060e5ffa14dd7c1bf'
p2186
sa(dp2187
g2
S'26100'
p2188
sg4
S'7481'
p2189
sg6
S'3a8f168d24ee7940ce6a0c2d49953446'
p2190
sg8
S'xx4bf3973b92bd0f26c28d3e9f8a6171cb'
p2191
sg10
S'xx4c6804416186a82a185eb02ff2c2e960'
p2192
sg12
S'xx4b560da510d8f256082dbb80ecdedf07'
p2193
sg14
S'Mozilla/5.0 (Linux; Android 5.1; vivo X6D Build/LMY47I) AppleWebKit/537.36 (KHTML, like Gecko) Version/4.0 Chrome/37.0.0.0 Mobile MQQBrowser/6.8 TBS/036849 Safari/537.36 MicroMessenger/6.3.27.880 NetType/WIFI Language/zh_CN'
p2194
sg16
S'cffc4f1a9edec58060e5ffa14dd7c1bf'
p2195
sa(dp2196
g2
S'28614'
p2197
sg4
S'7859'
p2198
sg6
S'3a8f168d24ee7940ce6a0c2d49953446'
p2199
sg8
S'xx4bf3973b92bd0f26c28d3e9f8a6171cb'
p2200
sg10
S'xx4c6804416186a82a185eb02ff2c2e960'
p2201
sg12
S'xx4b560da510d8f256082dbb80ecdedf07'
p2202
sg14
S'Mozilla/5.0 (Linux; Android 5.1; vivo X6D Build/LMY47I) AppleWebKit/537.36 (KHTML, like Gecko) Version/4.0 Chrome/37.0.0.0 Mobile MQQBrowser/6.8 TBS/036849 Safari/537.36 MicroMessenger/6.3.27.880 NetType/WIFI Language/zh_CN'
p2203
sg16
S'cffc4f1a9edec58060e5ffa14dd7c1bf'
p2204
sa(dp2205
g2
S'28614'
p2206
sg4
S'7875'
p2207
sg6
S'3a8f168d24ee7940ce6a0c2d49953446'
p2208
sg8
S'xx4bf3973b92bd0f26c28d3e9f8a6171cb'
p2209
sg10
S'xx4c6804416186a82a185eb02ff2c2e960'
p2210
sg12
S'xx4b560da510d8f256082dbb80ecdedf07'
p2211
sg14
S'Mozilla/5.0 (Linux; Android 5.1; vivo X6D Build/LMY47I) AppleWebKit/537.36 (KHTML, like Gecko) Version/4.0 Chrome/37.0.0.0 Mobile MQQBrowser/6.8 TBS/036849 Safari/537.36 MicroMessenger/6.3.27.880 NetType/WIFI Language/zh_CN'
p2212
sg16
S'cffc4f1a9edec58060e5ffa14dd7c1bf'
p2213
sa(dp2214
g2
S'47671'
p2215
sg4
S'8168'
p2216
sg6
S'2859a87ec9614878954679005eed5cfe'
p2217
sg8
S'xx6ec57cbd693b0816e7f6b40adac88f3c'
p2218
sg10
S'xx926a933e2e8467dd68707a1e86312229'
p2219
sg12
S'xx4b560da510d8f256082dbb80ecdedf07'
p2220
sg14
S'Mozilla/5.0 (Linux; Android 5.1; vivo X6D Build/LMY47I) AppleWebKit/537.36 (KHTML, like Gecko) Version/4.0 Chrome/37.0.0.0 Mobile MQQBrowser/6.8 TBS/036849 Safari/537.36 MicroMessenger/6.3.27.880 NetType/3gnet Language/zh_CN'
p2221
sg16
S'a0dd62bccc7c39042a147fa0fcd04d24'
p2222
sa(dp2223
g2
S'47671'
p2224
sg4
S'8176'
p2225
sg6
S'2859a87ec9614878954679005eed5cfe'
p2226
sg8
S'xx6ec57cbd693b0816e7f6b40adac88f3c'
p2227
sg10
S'xx926a933e2e8467dd68707a1e86312229'
p2228
sg12
S'xx4b560da510d8f256082dbb80ecdedf07'
p2229
sg14
S'Mozilla/5.0 (Linux; Android 5.1; vivo X6D Build/LMY47I) AppleWebKit/537.36 (KHTML, like Gecko) Version/4.0 Chrome/37.0.0.0 Mobile MQQBrowser/6.8 TBS/036849 Safari/537.36 MicroMessenger/6.3.27.880 NetType/3gnet Language/zh_CN'
p2230
sg16
S'a0dd62bccc7c39042a147fa0fcd04d24'
p2231
sa(dp2232
g2
S'47671'
p2233
sg4
S'8188'
p2234
sg6
S'2859a87ec9614878954679005eed5cfe'
p2235
sg8
S'xx6ec57cbd693b0816e7f6b40adac88f3c'
p2236
sg10
S'xx926a933e2e8467dd68707a1e86312229'
p2237
sg12
S'xx4b560da510d8f256082dbb80ecdedf07'
p2238
sg14
S'Mozilla/5.0 (Linux; Android 5.1; vivo X6D Build/LMY47I) AppleWebKit/537.36 (KHTML, like Gecko) Version/4.0 Chrome/37.0.0.0 Mobile MQQBrowser/6.8 TBS/036849 Safari/537.36 MicroMessenger/6.3.27.880 NetType/3gnet Language/zh_CN'
p2239
sg16
S'a0dd62bccc7c39042a147fa0fcd04d24'
p2240
sa.