(lp0
(dp1
S'user_id'
p2
S'17793'
p3
sS'data_id'
p4
S'1611'
p5
sS'ip'
p6
S'c4b258fa92d769aa4e4a7e4d6d2b532e'
p7
sS'phone_B'
p8
S'xxc2f7c84c309051c81c6610c6b7688467'
p9
sS'phone_C'
p10
S'xx7b095e7288d4e18b0040f72dda7e33b0'
p11
sS'phone_A'
p12
S'xx4b455277751a41a11cabcc5f8a10677b'
p13
sS'user_agent'
p14
S'Mozilla/5.0 (Linux; Android 5.0; SM-G9006V Build/LRX21T) AppleWebKit/537.36 (KHTML, like Gecko) Version/4.0 Chrome/37.0.0.0 Mobile MQQBrowser/6.8 TBS/036849 Safari/537.36 MicroMessenger/6.3.27.880 NetType/WIFI Language/zh_CN'
p15
sS'ua'
p16
S'22d7a40b8039a5cc965f803254c55e9c'
p17
sa(dp18
g2
S'17793'
p19
sg4
S'1625'
p20
sg6
S'c4b258fa92d769aa4e4a7e4d6d2b532e'
p21
sg8
S'xxc2f7c84c309051c81c6610c6b7688467'
p22
sg10
S'xx7b095e7288d4e18b0040f72dda7e33b0'
p23
sg12
S'xx4b455277751a41a11cabcc5f8a10677b'
p24
sg14
S'Mozilla/5.0 (Linux; Android 5.0; SM-G9006V Build/LRX21T) AppleWebKit/537.36 (KHTML, like Gecko) Version/4.0 Chrome/37.0.0.0 Mobile MQQBrowser/6.8 TBS/036849 Safari/537.36 MicroMessenger/6.3.27.880 NetType/WIFI Language/zh_CN'
p25
sg16
S'22d7a40b8039a5cc965f803254c55e9c'
p26
sa(dp27
g2
S'17793'
p28
sg4
S'1688'
p29
sg6
S'c4b258fa92d769aa4e4a7e4d6d2b532e'
p30
sg8
S'xxc2f7c84c309051c81c6610c6b7688467'
p31
sg10
S'xx7b095e7288d4e18b0040f72dda7e33b0'
p32
sg12
S'xx4b455277751a41a11cabcc5f8a10677b'
p33
sg14
S'Mozilla/5.0 (Linux; Android 5.0; SM-G9006V Build/LRX21T) AppleWebKit/537.36 (KHTML, like Gecko) Version/4.0 Chrome/37.0.0.0 Mobile MQQBrowser/6.8 TBS/036849 Safari/537.36 MicroMessenger/6.3.27.880 NetType/WIFI Language/zh_CN'
p34
sg16
S'22d7a40b8039a5cc965f803254c55e9c'
p35
sa(dp36
g2
S'17793'
p37
sg4
S'6254'
p38
sg6
S'd08d79d974c1e7ad3587a728b2cd0aba'
p39
sg8
S'xxc2f7c84c309051c81c6610c6b7688467'
p40
sg10
S'xx7b095e7288d4e18b0040f72dda7e33b0'
p41
sg12
S'xx4b455277751a41a11cabcc5f8a10677b'
p42
sg14
S'Mozilla/5.0 (Linux; Android 5.0; SM-G9006V Build/LRX21T) AppleWebKit/537.36 (KHTML, like Gecko) Version/4.0 Chrome/37.0.0.0 Mobile MQQBrowser/6.8 TBS/036849 Safari/537.36 MicroMessenger/6.3.27.880 NetType/WIFI Language/zh_CN'
p43
sg16
S'22d7a40b8039a5cc965f803254c55e9c'
p44
sa(dp45
g2
S'17793'
p46
sg4
S'6265'
p47
sg6
S'd08d79d974c1e7ad3587a728b2cd0aba'
p48
sg8
S'xxc2f7c84c309051c81c6610c6b7688467'
p49
sg10
S'xx7b095e7288d4e18b0040f72dda7e33b0'
p50
sg12
S'xx4b455277751a41a11cabcc5f8a10677b'
p51
sg14
S'Mozilla/5.0 (Linux; Android 5.0; SM-G9006V Build/LRX21T) AppleWebKit/537.36 (KHTML, like Gecko) Version/4.0 Chrome/37.0.0.0 Mobile MQQBrowser/6.8 TBS/036849 Safari/537.36 MicroMessenger/6.3.27.880 NetType/WIFI Language/zh_CN'
p52
sg16
S'22d7a40b8039a5cc965f803254c55e9c'
p53
sa(dp54
g2
S'17793'
p55
sg4
S'6331'
p56
sg6
S'd08d79d974c1e7ad3587a728b2cd0aba'
p57
sg8
S'xxc2f7c84c309051c81c6610c6b7688467'
p58
sg10
S'xx7b095e7288d4e18b0040f72dda7e33b0'
p59
sg12
S'xx4b455277751a41a11cabcc5f8a10677b'
p60
sg14
S'Mozilla/5.0 (Linux; Android 5.0; SM-G9006V Build/LRX21T) AppleWebKit/537.36 (KHTML, like Gecko) Version/4.0 Chrome/37.0.0.0 Mobile MQQBrowser/6.8 TBS/036849 Safari/537.36 MicroMessenger/6.3.27.880 NetType/WIFI Language/zh_CN'
p61
sg16
S'22d7a40b8039a5cc965f803254c55e9c'
p62
sa(dp63
g2
S'17793'
p64
sg4
S'6345'
p65
sg6
S'd08d79d974c1e7ad3587a728b2cd0aba'
p66
sg8
S'xxc2f7c84c309051c81c6610c6b7688467'
p67
sg10
S'xx7b095e7288d4e18b0040f72dda7e33b0'
p68
sg12
S'xx4b455277751a41a11cabcc5f8a10677b'
p69
sg14
S'Mozilla/5.0 (Linux; Android 5.0; SM-G9006V Build/LRX21T) AppleWebKit/537.36 (KHTML, like Gecko) Version/4.0 Chrome/37.0.0.0 Mobile MQQBrowser/6.8 TBS/036849 Safari/537.36 MicroMessenger/6.3.27.880 NetType/WIFI Language/zh_CN'
p70
sg16
S'22d7a40b8039a5cc965f803254c55e9c'
p71
sa(dp72
g2
S'17793'
p73
sg4
S'6353'
p74
sg6
S'd08d79d974c1e7ad3587a728b2cd0aba'
p75
sg8
S'xxc2f7c84c309051c81c6610c6b7688467'
p76
sg10
S'xx7b095e7288d4e18b0040f72dda7e33b0'
p77
sg12
S'xx4b455277751a41a11cabcc5f8a10677b'
p78
sg14
S'Mozilla/5.0 (Linux; Android 5.0; SM-G9006V Build/LRX21T) AppleWebKit/537.36 (KHTML, like Gecko) Version/4.0 Chrome/37.0.0.0 Mobile MQQBrowser/6.8 TBS/036849 Safari/537.36 MicroMessenger/6.3.27.880 NetType/WIFI Language/zh_CN'
p79
sg16
S'22d7a40b8039a5cc965f803254c55e9c'
p80
sa(dp81
g2
S'17793'
p82
sg4
S'6374'
p83
sg6
S'd08d79d974c1e7ad3587a728b2cd0aba'
p84
sg8
S'xxc2f7c84c309051c81c6610c6b7688467'
p85
sg10
S'xx7b095e7288d4e18b0040f72dda7e33b0'
p86
sg12
S'xx4b455277751a41a11cabcc5f8a10677b'
p87
sg14
S'Mozilla/5.0 (Linux; Android 5.0; SM-G9006V Build/LRX21T) AppleWebKit/537.36 (KHTML, like Gecko) Version/4.0 Chrome/37.0.0.0 Mobile MQQBrowser/6.8 TBS/036849 Safari/537.36 MicroMessenger/6.3.27.880 NetType/WIFI Language/zh_CN'
p88
sg16
S'22d7a40b8039a5cc965f803254c55e9c'
p89
sa(dp90
g2
S'17793'
p91
sg4
S'6388'
p92
sg6
S'd08d79d974c1e7ad3587a728b2cd0aba'
p93
sg8
S'xxc2f7c84c309051c81c6610c6b7688467'
p94
sg10
S'xx7b095e7288d4e18b0040f72dda7e33b0'
p95
sg12
S'xx4b455277751a41a11cabcc5f8a10677b'
p96
sg14
S'Mozilla/5.0 (Linux; Android 5.0; SM-G9006V Build/LRX21T) AppleWebKit/537.36 (KHTML, like Gecko) Version/4.0 Chrome/37.0.0.0 Mobile MQQBrowser/6.8 TBS/036849 Safari/537.36 MicroMessenger/6.3.27.880 NetType/WIFI Language/zh_CN'
p97
sg16
S'22d7a40b8039a5cc965f803254c55e9c'
p98
sa(dp99
g2
S'17793'
p100
sg4
S'6407'
p101
sg6
S'd08d79d974c1e7ad3587a728b2cd0aba'
p102
sg8
S'xxc2f7c84c309051c81c6610c6b7688467'
p103
sg10
S'xx7b095e7288d4e18b0040f72dda7e33b0'
p104
sg12
S'xx4b455277751a41a11cabcc5f8a10677b'
p105
sg14
S'Mozilla/5.0 (Linux; Android 5.0; SM-G9006V Build/LRX21T) AppleWebKit/537.36 (KHTML, like Gecko) Version/4.0 Chrome/37.0.0.0 Mobile MQQBrowser/6.8 TBS/036849 Safari/537.36 MicroMessenger/6.3.27.880 NetType/WIFI Language/zh_CN'
p106
sg16
S'22d7a40b8039a5cc965f803254c55e9c'
p107
sa(dp108
g2
S'17793'
p109
sg4
S'6420'
p110
sg6
S'd08d79d974c1e7ad3587a728b2cd0aba'
p111
sg8
S'xxc2f7c84c309051c81c6610c6b7688467'
p112
sg10
S'xx7b095e7288d4e18b0040f72dda7e33b0'
p113
sg12
S'xx4b455277751a41a11cabcc5f8a10677b'
p114
sg14
S'Mozilla/5.0 (Linux; Android 5.0; SM-G9006V Build/LRX21T) AppleWebKit/537.36 (KHTML, like Gecko) Version/4.0 Chrome/37.0.0.0 Mobile MQQBrowser/6.8 TBS/036849 Safari/537.36 MicroMessenger/6.3.27.880 NetType/WIFI Language/zh_CN'
p115
sg16
S'22d7a40b8039a5cc965f803254c55e9c'
p116
sa(dp117
g2
S'17793'
p118
sg4
S'6434'
p119
sg6
S'd08d79d974c1e7ad3587a728b2cd0aba'
p120
sg8
S'xxc2f7c84c309051c81c6610c6b7688467'
p121
sg10
S'xx7b095e7288d4e18b0040f72dda7e33b0'
p122
sg12
S'xx4b455277751a41a11cabcc5f8a10677b'
p123
sg14
S'Mozilla/5.0 (Linux; Android 5.0; SM-G9006V Build/LRX21T) AppleWebKit/537.36 (KHTML, like Gecko) Version/4.0 Chrome/37.0.0.0 Mobile MQQBrowser/6.8 TBS/036849 Safari/537.36 MicroMessenger/6.3.27.880 NetType/WIFI Language/zh_CN'
p124
sg16
S'22d7a40b8039a5cc965f803254c55e9c'
p125
sa(dp126
g2
S'17793'
p127
sg4
S'6451'
p128
sg6
S'd08d79d974c1e7ad3587a728b2cd0aba'
p129
sg8
S'xxc2f7c84c309051c81c6610c6b7688467'
p130
sg10
S'xx7b095e7288d4e18b0040f72dda7e33b0'
p131
sg12
S'xx4b455277751a41a11cabcc5f8a10677b'
p132
sg14
S'Mozilla/5.0 (Linux; Android 5.0; SM-G9006V Build/LRX21T) AppleWebKit/537.36 (KHTML, like Gecko) Version/4.0 Chrome/37.0.0.0 Mobile MQQBrowser/6.8 TBS/036849 Safari/537.36 MicroMessenger/6.3.27.880 NetType/WIFI Language/zh_CN'
p133
sg16
S'22d7a40b8039a5cc965f803254c55e9c'
p134
sa(dp135
g2
S'17793'
p136
sg4
S'6463'
p137
sg6
S'd08d79d974c1e7ad3587a728b2cd0aba'
p138
sg8
S'xxc2f7c84c309051c81c6610c6b7688467'
p139
sg10
S'xx7b095e7288d4e18b0040f72dda7e33b0'
p140
sg12
S'xx4b455277751a41a11cabcc5f8a10677b'
p141
sg14
S'Mozilla/5.0 (Linux; Android 5.0; SM-G9006V Build/LRX21T) AppleWebKit/537.36 (KHTML, like Gecko) Version/4.0 Chrome/37.0.0.0 Mobile MQQBrowser/6.8 TBS/036849 Safari/537.36 MicroMessenger/6.3.27.880 NetType/WIFI Language/zh_CN'
p142
sg16
S'22d7a40b8039a5cc965f803254c55e9c'
p143
sa(dp144
g2
S'17793'
p145
sg4
S'6471'
p146
sg6
S'd08d79d974c1e7ad3587a728b2cd0aba'
p147
sg8
S'xxc2f7c84c309051c81c6610c6b7688467'
p148
sg10
S'xx7b095e7288d4e18b0040f72dda7e33b0'
p149
sg12
S'xx4b455277751a41a11cabcc5f8a10677b'
p150
sg14
S'Mozilla/5.0 (Linux; Android 5.0; SM-G9006V Build/LRX21T) AppleWebKit/537.36 (KHTML, like Gecko) Version/4.0 Chrome/37.0.0.0 Mobile MQQBrowser/6.8 TBS/036849 Safari/537.36 MicroMessenger/6.3.27.880 NetType/WIFI Language/zh_CN'
p151
sg16
S'22d7a40b8039a5cc965f803254c55e9c'
p152
sa(dp153
g2
S'17793'
p154
sg4
S'6483'
p155
sg6
S'd08d79d974c1e7ad3587a728b2cd0aba'
p156
sg8
S'xxc2f7c84c309051c81c6610c6b7688467'
p157
sg10
S'xx7b095e7288d4e18b0040f72dda7e33b0'
p158
sg12
S'xx4b455277751a41a11cabcc5f8a10677b'
p159
sg14
S'Mozilla/5.0 (Linux; Android 5.0; SM-G9006V Build/LRX21T) AppleWebKit/537.36 (KHTML, like Gecko) Version/4.0 Chrome/37.0.0.0 Mobile MQQBrowser/6.8 TBS/036849 Safari/537.36 MicroMessenger/6.3.27.880 NetType/WIFI Language/zh_CN'
p160
sg16
S'22d7a40b8039a5cc965f803254c55e9c'
p161
sa(dp162
g2
S'17793'
p163
sg4
S'6498'
p164
sg6
S'd08d79d974c1e7ad3587a728b2cd0aba'
p165
sg8
S'xxc2f7c84c309051c81c6610c6b7688467'
p166
sg10
S'xx7b095e7288d4e18b0040f72dda7e33b0'
p167
sg12
S'xx4b455277751a41a11cabcc5f8a10677b'
p168
sg14
S'Mozilla/5.0 (Linux; Android 5.0; SM-G9006V Build/LRX21T) AppleWebKit/537.36 (KHTML, like Gecko) Version/4.0 Chrome/37.0.0.0 Mobile MQQBrowser/6.8 TBS/036849 Safari/537.36 MicroMessenger/6.3.27.880 NetType/WIFI Language/zh_CN'
p169
sg16
S'22d7a40b8039a5cc965f803254c55e9c'
p170
sa(dp171
g2
S'17793'
p172
sg4
S'6513'
p173
sg6
S'd08d79d974c1e7ad3587a728b2cd0aba'
p174
sg8
S'xxc2f7c84c309051c81c6610c6b7688467'
p175
sg10
S'xx7b095e7288d4e18b0040f72dda7e33b0'
p176
sg12
S'xx4b455277751a41a11cabcc5f8a10677b'
p177
sg14
S'Mozilla/5.0 (Linux; Android 5.0; SM-G9006V Build/LRX21T) AppleWebKit/537.36 (KHTML, like Gecko) Version/4.0 Chrome/37.0.0.0 Mobile MQQBrowser/6.8 TBS/036849 Safari/537.36 MicroMessenger/6.3.27.880 NetType/WIFI Language/zh_CN'
p178
sg16
S'22d7a40b8039a5cc965f803254c55e9c'
p179
sa(dp180
g2
S'17793'
p181
sg4
S'6530'
p182
sg6
S'd08d79d974c1e7ad3587a728b2cd0aba'
p183
sg8
S'xxc2f7c84c309051c81c6610c6b7688467'
p184
sg10
S'xx7b095e7288d4e18b0040f72dda7e33b0'
p185
sg12
S'xx4b455277751a41a11cabcc5f8a10677b'
p186
sg14
S'Mozilla/5.0 (Linux; Android 5.0; SM-G9006V Build/LRX21T) AppleWebKit/537.36 (KHTML, like Gecko) Version/4.0 Chrome/37.0.0.0 Mobile MQQBrowser/6.8 TBS/036849 Safari/537.36 MicroMessenger/6.3.27.880 NetType/WIFI Language/zh_CN'
p187
sg16
S'22d7a40b8039a5cc965f803254c55e9c'
p188
sa(dp189
g2
S'17793'
p190
sg4
S'6554'
p191
sg6
S'd08d79d974c1e7ad3587a728b2cd0aba'
p192
sg8
S'xxc2f7c84c309051c81c6610c6b7688467'
p193
sg10
S'xx7b095e7288d4e18b0040f72dda7e33b0'
p194
sg12
S'xx4b455277751a41a11cabcc5f8a10677b'
p195
sg14
S'Mozilla/5.0 (Linux; Android 5.0; SM-G9006V Build/LRX21T) AppleWebKit/537.36 (KHTML, like Gecko) Version/4.0 Chrome/37.0.0.0 Mobile MQQBrowser/6.8 TBS/036849 Safari/537.36 MicroMessenger/6.3.27.880 NetType/WIFI Language/zh_CN'
p196
sg16
S'22d7a40b8039a5cc965f803254c55e9c'
p197
sa(dp198
g2
S'17793'
p199
sg4
S'6567'
p200
sg6
S'd08d79d974c1e7ad3587a728b2cd0aba'
p201
sg8
S'xxc2f7c84c309051c81c6610c6b7688467'
p202
sg10
S'xx7b095e7288d4e18b0040f72dda7e33b0'
p203
sg12
S'xx4b455277751a41a11cabcc5f8a10677b'
p204
sg14
S'Mozilla/5.0 (Linux; Android 5.0; SM-G9006V Build/LRX21T) AppleWebKit/537.36 (KHTML, like Gecko) Version/4.0 Chrome/37.0.0.0 Mobile MQQBrowser/6.8 TBS/036849 Safari/537.36 MicroMessenger/6.3.27.880 NetType/WIFI Language/zh_CN'
p205
sg16
S'22d7a40b8039a5cc965f803254c55e9c'
p206
sa(dp207
g2
S'17793'
p208
sg4
S'6585'
p209
sg6
S'd08d79d974c1e7ad3587a728b2cd0aba'
p210
sg8
S'xxc2f7c84c309051c81c6610c6b7688467'
p211
sg10
S'xx7b095e7288d4e18b0040f72dda7e33b0'
p212
sg12
S'xx4b455277751a41a11cabcc5f8a10677b'
p213
sg14
S'Mozilla/5.0 (Linux; Android 5.0; SM-G9006V Build/LRX21T) AppleWebKit/537.36 (KHTML, like Gecko) Version/4.0 Chrome/37.0.0.0 Mobile MQQBrowser/6.8 TBS/036849 Safari/537.36 MicroMessenger/6.3.27.880 NetType/WIFI Language/zh_CN'
p214
sg16
S'22d7a40b8039a5cc965f803254c55e9c'
p215
sa(dp216
g2
S'17793'
p217
sg4
S'6591'
p218
sg6
S'd08d79d974c1e7ad3587a728b2cd0aba'
p219
sg8
S'xxc2f7c84c309051c81c6610c6b7688467'
p220
sg10
S'xx7b095e7288d4e18b0040f72dda7e33b0'
p221
sg12
S'xx4b455277751a41a11cabcc5f8a10677b'
p222
sg14
S'Mozilla/5.0 (Linux; Android 5.0; SM-G9006V Build/LRX21T) AppleWebKit/537.36 (KHTML, like Gecko) Version/4.0 Chrome/37.0.0.0 Mobile MQQBrowser/6.8 TBS/036849 Safari/537.36 MicroMessenger/6.3.27.880 NetType/WIFI Language/zh_CN'
p223
sg16
S'22d7a40b8039a5cc965f803254c55e9c'
p224
sa(dp225
g2
S'17793'
p226
sg4
S'6606'
p227
sg6
S'd08d79d974c1e7ad3587a728b2cd0aba'
p228
sg8
S'xxc2f7c84c309051c81c6610c6b7688467'
p229
sg10
S'xx7b095e7288d4e18b0040f72dda7e33b0'
p230
sg12
S'xx4b455277751a41a11cabcc5f8a10677b'
p231
sg14
S'Mozilla/5.0 (Linux; Android 5.0; SM-G9006V Build/LRX21T) AppleWebKit/537.36 (KHTML, like Gecko) Version/4.0 Chrome/37.0.0.0 Mobile MQQBrowser/6.8 TBS/036849 Safari/537.36 MicroMessenger/6.3.27.880 NetType/WIFI Language/zh_CN'
p232
sg16
S'22d7a40b8039a5cc965f803254c55e9c'
p233
sa(dp234
g2
S'17793'
p235
sg4
S'6620'
p236
sg6
S'd08d79d974c1e7ad3587a728b2cd0aba'
p237
sg8
S'xxc2f7c84c309051c81c6610c6b7688467'
p238
sg10
S'xx7b095e7288d4e18b0040f72dda7e33b0'
p239
sg12
S'xx4b455277751a41a11cabcc5f8a10677b'
p240
sg14
S'Mozilla/5.0 (Linux; Android 5.0; SM-G9006V Build/LRX21T) AppleWebKit/537.36 (KHTML, like Gecko) Version/4.0 Chrome/37.0.0.0 Mobile MQQBrowser/6.8 TBS/036849 Safari/537.36 MicroMessenger/6.3.27.880 NetType/WIFI Language/zh_CN'
p241
sg16
S'22d7a40b8039a5cc965f803254c55e9c'
p242
sa(dp243
g2
S'17793'
p244
sg4
S'6636'
p245
sg6
S'd08d79d974c1e7ad3587a728b2cd0aba'
p246
sg8
S'xxc2f7c84c309051c81c6610c6b7688467'
p247
sg10
S'xx7b095e7288d4e18b0040f72dda7e33b0'
p248
sg12
S'xx4b455277751a41a11cabcc5f8a10677b'
p249
sg14
S'Mozilla/5.0 (Linux; Android 5.0; SM-G9006V Build/LRX21T) AppleWebKit/537.36 (KHTML, like Gecko) Version/4.0 Chrome/37.0.0.0 Mobile MQQBrowser/6.8 TBS/036849 Safari/537.36 MicroMessenger/6.3.27.880 NetType/WIFI Language/zh_CN'
p250
sg16
S'22d7a40b8039a5cc965f803254c55e9c'
p251
sa(dp252
g2
S'17793'
p253
sg4
S'6648'
p254
sg6
S'd08d79d974c1e7ad3587a728b2cd0aba'
p255
sg8
S'xxc2f7c84c309051c81c6610c6b7688467'
p256
sg10
S'xx7b095e7288d4e18b0040f72dda7e33b0'
p257
sg12
S'xx4b455277751a41a11cabcc5f8a10677b'
p258
sg14
S'Mozilla/5.0 (Linux; Android 5.0; SM-G9006V Build/LRX21T) AppleWebKit/537.36 (KHTML, like Gecko) Version/4.0 Chrome/37.0.0.0 Mobile MQQBrowser/6.8 TBS/036849 Safari/537.36 MicroMessenger/6.3.27.880 NetType/WIFI Language/zh_CN'
p259
sg16
S'22d7a40b8039a5cc965f803254c55e9c'
p260
sa(dp261
g2
S'17793'
p262
sg4
S'6664'
p263
sg6
S'd08d79d974c1e7ad3587a728b2cd0aba'
p264
sg8
S'xxc2f7c84c309051c81c6610c6b7688467'
p265
sg10
S'xx7b095e7288d4e18b0040f72dda7e33b0'
p266
sg12
S'xx4b455277751a41a11cabcc5f8a10677b'
p267
sg14
S'Mozilla/5.0 (Linux; Android 5.0; SM-G9006V Build/LRX21T) AppleWebKit/537.36 (KHTML, like Gecko) Version/4.0 Chrome/37.0.0.0 Mobile MQQBrowser/6.8 TBS/036849 Safari/537.36 MicroMessenger/6.3.27.880 NetType/WIFI Language/zh_CN'
p268
sg16
S'22d7a40b8039a5cc965f803254c55e9c'
p269
sa(dp270
g2
S'17793'
p271
sg4
S'6704'
p272
sg6
S'd08d79d974c1e7ad3587a728b2cd0aba'
p273
sg8
S'xxc2f7c84c309051c81c6610c6b7688467'
p274
sg10
S'xx7b095e7288d4e18b0040f72dda7e33b0'
p275
sg12
S'xx4b455277751a41a11cabcc5f8a10677b'
p276
sg14
S'Mozilla/5.0 (Linux; Android 5.0; SM-G9006V Build/LRX21T) AppleWebKit/537.36 (KHTML, like Gecko) Version/4.0 Chrome/37.0.0.0 Mobile MQQBrowser/6.8 TBS/036849 Safari/537.36 MicroMessenger/6.3.27.880 NetType/WIFI Language/zh_CN'
p277
sg16
S'22d7a40b8039a5cc965f803254c55e9c'
p278
sa(dp279
g2
S'17793'
p280
sg4
S'6762'
p281
sg6
S'd08d79d974c1e7ad3587a728b2cd0aba'
p282
sg8
S'xxc2f7c84c309051c81c6610c6b7688467'
p283
sg10
S'xx7b095e7288d4e18b0040f72dda7e33b0'
p284
sg12
S'xx4b455277751a41a11cabcc5f8a10677b'
p285
sg14
S'Mozilla/5.0 (Linux; Android 5.0; SM-G9006V Build/LRX21T) AppleWebKit/537.36 (KHTML, like Gecko) Version/4.0 Chrome/37.0.0.0 Mobile MQQBrowser/6.8 TBS/036849 Safari/537.36 MicroMessenger/6.3.27.880 NetType/WIFI Language/zh_CN'
p286
sg16
S'22d7a40b8039a5cc965f803254c55e9c'
p287
sa(dp288
g2
S'17793'
p289
sg4
S'7000'
p290
sg6
S'9aae93213a3ad15202d48b2a3037cecd'
p291
sg8
S'xxc2f7c84c309051c81c6610c6b7688467'
p292
sg10
S'xx7b095e7288d4e18b0040f72dda7e33b0'
p293
sg12
S'xx4b455277751a41a11cabcc5f8a10677b'
p294
sg14
S'Mozilla/5.0 (Linux; Android 5.0; SM-G9006V Build/LRX21T) AppleWebKit/537.36 (KHTML, like Gecko) Version/4.0 Chrome/37.0.0.0 Mobile MQQBrowser/6.8 TBS/036849 Safari/537.36 MicroMessenger/6.3.27.880 NetType/WIFI Language/zh_CN'
p295
sg16
S'22d7a40b8039a5cc965f803254c55e9c'
p296
sa(dp297
g2
S'17793'
p298
sg4
S'7014'
p299
sg6
S'9aae93213a3ad15202d48b2a3037cecd'
p300
sg8
S'xxc2f7c84c309051c81c6610c6b7688467'
p301
sg10
S'xx7b095e7288d4e18b0040f72dda7e33b0'
p302
sg12
S'xx4b455277751a41a11cabcc5f8a10677b'
p303
sg14
S'Mozilla/5.0 (Linux; Android 5.0; SM-G9006V Build/LRX21T) AppleWebKit/537.36 (KHTML, like Gecko) Version/4.0 Chrome/37.0.0.0 Mobile MQQBrowser/6.8 TBS/036849 Safari/537.36 MicroMessenger/6.3.27.880 NetType/WIFI Language/zh_CN'
p304
sg16
S'22d7a40b8039a5cc965f803254c55e9c'
p305
sa(dp306
g2
S'17793'
p307
sg4
S'7046'
p308
sg6
S'9aae93213a3ad15202d48b2a3037cecd'
p309
sg8
S'xxc2f7c84c309051c81c6610c6b7688467'
p310
sg10
S'xx7b095e7288d4e18b0040f72dda7e33b0'
p311
sg12
S'xx4b455277751a41a11cabcc5f8a10677b'
p312
sg14
S'Mozilla/5.0 (Linux; Android 5.0; SM-G9006V Build/LRX21T) AppleWebKit/537.36 (KHTML, like Gecko) Version/4.0 Chrome/37.0.0.0 Mobile MQQBrowser/6.8 TBS/036849 Safari/537.36 MicroMessenger/6.3.27.880 NetType/WIFI Language/zh_CN'
p313
sg16
S'22d7a40b8039a5cc965f803254c55e9c'
p314
sa(dp315
g2
S'17793'
p316
sg4
S'7055'
p317
sg6
S'9aae93213a3ad15202d48b2a3037cecd'
p318
sg8
S'xxc2f7c84c309051c81c6610c6b7688467'
p319
sg10
S'xx7b095e7288d4e18b0040f72dda7e33b0'
p320
sg12
S'xx4b455277751a41a11cabcc5f8a10677b'
p321
sg14
S'Mozilla/5.0 (Linux; Android 5.0; SM-G9006V Build/LRX21T) AppleWebKit/537.36 (KHTML, like Gecko) Version/4.0 Chrome/37.0.0.0 Mobile MQQBrowser/6.8 TBS/036849 Safari/537.36 MicroMessenger/6.3.27.880 NetType/WIFI Language/zh_CN'
p322
sg16
S'22d7a40b8039a5cc965f803254c55e9c'
p323
sa(dp324
g2
S'17793'
p325
sg4
S'7076'
p326
sg6
S'9aae93213a3ad15202d48b2a3037cecd'
p327
sg8
S'xxc2f7c84c309051c81c6610c6b7688467'
p328
sg10
S'xx7b095e7288d4e18b0040f72dda7e33b0'
p329
sg12
S'xx4b455277751a41a11cabcc5f8a10677b'
p330
sg14
S'Mozilla/5.0 (Linux; Android 5.0; SM-G9006V Build/LRX21T) AppleWebKit/537.36 (KHTML, like Gecko) Version/4.0 Chrome/37.0.0.0 Mobile MQQBrowser/6.8 TBS/036849 Safari/537.36 MicroMessenger/6.3.27.880 NetType/WIFI Language/zh_CN'
p331
sg16
S'22d7a40b8039a5cc965f803254c55e9c'
p332
sa(dp333
g2
S'17793'
p334
sg4
S'7127'
p335
sg6
S'9aae93213a3ad15202d48b2a3037cecd'
p336
sg8
S'xxc2f7c84c309051c81c6610c6b7688467'
p337
sg10
S'xx7b095e7288d4e18b0040f72dda7e33b0'
p338
sg12
S'xx4b455277751a41a11cabcc5f8a10677b'
p339
sg14
S'Mozilla/5.0 (Linux; Android 5.0; SM-G9006V Build/LRX21T) AppleWebKit/537.36 (KHTML, like Gecko) Version/4.0 Chrome/37.0.0.0 Mobile MQQBrowser/6.8 TBS/036849 Safari/537.36 MicroMessenger/6.3.27.880 NetType/WIFI Language/zh_CN'
p340
sg16
S'22d7a40b8039a5cc965f803254c55e9c'
p341
sa(dp342
g2
S'17793'
p343
sg4
S'7140'
p344
sg6
S'9aae93213a3ad15202d48b2a3037cecd'
p345
sg8
S'xxc2f7c84c309051c81c6610c6b7688467'
p346
sg10
S'xx7b095e7288d4e18b0040f72dda7e33b0'
p347
sg12
S'xx4b455277751a41a11cabcc5f8a10677b'
p348
sg14
S'Mozilla/5.0 (Linux; Android 5.0; SM-G9006V Build/LRX21T) AppleWebKit/537.36 (KHTML, like Gecko) Version/4.0 Chrome/37.0.0.0 Mobile MQQBrowser/6.8 TBS/036849 Safari/537.36 MicroMessenger/6.3.27.880 NetType/WIFI Language/zh_CN'
p349
sg16
S'22d7a40b8039a5cc965f803254c55e9c'
p350
sa(dp351
g2
S'17793'
p352
sg4
S'7171'
p353
sg6
S'9aae93213a3ad15202d48b2a3037cecd'
p354
sg8
S'xxc2f7c84c309051c81c6610c6b7688467'
p355
sg10
S'xx7b095e7288d4e18b0040f72dda7e33b0'
p356
sg12
S'xx4b455277751a41a11cabcc5f8a10677b'
p357
sg14
S'Mozilla/5.0 (Linux; Android 5.0; SM-G9006V Build/LRX21T) AppleWebKit/537.36 (KHTML, like Gecko) Version/4.0 Chrome/37.0.0.0 Mobile MQQBrowser/6.8 TBS/036849 Safari/537.36 MicroMessenger/6.3.27.880 NetType/WIFI Language/zh_CN'
p358
sg16
S'22d7a40b8039a5cc965f803254c55e9c'
p359
sa.