(lp0
(dp1
S'user_id'
p2
S'36035'
p3
sS'data_id'
p4
S'268'
p5
sS'ip'
p6
S'09ca09b656926cef7647082200d7e2d2'
p7
sS'phone_B'
p8
S'xx7d5536722396aff501cb4b819d8b2c49'
p9
sS'phone_C'
p10
S'xx7c11889d568b644595fc506dc352723e'
p11
sS'phone_A'
p12
S'xx4c88c33a77fde3437de23b08add4fd1b'
p13
sS'user_agent'
p14
S'Mozilla/5.0 (Linux; Android 4.4.4; A11 Build/KTU84P) AppleWebKit/537.36 (KHTML, like Gecko) Version/4.0 Chrome/37.0.0.0 Mobile MQQBrowser/6.8 TBS/036849 Safari/537.36 MicroMessenger/6.3.27.880 NetType/WIFI Language/zh_CN'
p15
sS'ua'
p16
S'374d275d3ab01738c7fd226dd542953e'
p17
sa(dp18
g2
S'36035'
p19
sg4
S'304'
p20
sg6
S'09ca09b656926cef7647082200d7e2d2'
p21
sg8
S'xx7d5536722396aff501cb4b819d8b2c49'
p22
sg10
S'xx7c11889d568b644595fc506dc352723e'
p23
sg12
S'xx4c88c33a77fde3437de23b08add4fd1b'
p24
sg14
S'Mozilla/5.0 (Linux; Android 4.4.4; A11 Build/KTU84P) AppleWebKit/537.36 (KHTML, like Gecko) Version/4.0 Chrome/37.0.0.0 Mobile MQQBrowser/6.8 TBS/036849 Safari/537.36 MicroMessenger/6.3.27.880 NetType/WIFI Language/zh_CN'
p25
sg16
S'374d275d3ab01738c7fd226dd542953e'
p26
sa(dp27
g2
S'36035'
p28
sg4
S'370'
p29
sg6
S'09ca09b656926cef7647082200d7e2d2'
p30
sg8
S'xx7d5536722396aff501cb4b819d8b2c49'
p31
sg10
S'xx7c11889d568b644595fc506dc352723e'
p32
sg12
S'xx4c88c33a77fde3437de23b08add4fd1b'
p33
sg14
S'Mozilla/5.0 (Linux; Android 4.4.4; A11 Build/KTU84P) AppleWebKit/537.36 (KHTML, like Gecko) Version/4.0 Chrome/37.0.0.0 Mobile MQQBrowser/6.8 TBS/036849 Safari/537.36 MicroMessenger/6.3.27.880 NetType/WIFI Language/zh_CN'
p34
sg16
S'374d275d3ab01738c7fd226dd542953e'
p35
sa(dp36
g2
S'36035'
p37
sg4
S'378'
p38
sg6
S'09ca09b656926cef7647082200d7e2d2'
p39
sg8
S'xx7d5536722396aff501cb4b819d8b2c49'
p40
sg10
S'xx7c11889d568b644595fc506dc352723e'
p41
sg12
S'xx4c88c33a77fde3437de23b08add4fd1b'
p42
sg14
S'Mozilla/5.0 (Linux; Android 4.4.4; A11 Build/KTU84P) AppleWebKit/537.36 (KHTML, like Gecko) Version/4.0 Chrome/37.0.0.0 Mobile MQQBrowser/6.8 TBS/036849 Safari/537.36 MicroMessenger/6.3.27.880 NetType/WIFI Language/zh_CN'
p43
sg16
S'374d275d3ab01738c7fd226dd542953e'
p44
sa(dp45
g2
S'36035'
p46
sg4
S'387'
p47
sg6
S'09ca09b656926cef7647082200d7e2d2'
p48
sg8
S'xx7d5536722396aff501cb4b819d8b2c49'
p49
sg10
S'xx7c11889d568b644595fc506dc352723e'
p50
sg12
S'xx4c88c33a77fde3437de23b08add4fd1b'
p51
sg14
S'Mozilla/5.0 (Linux; Android 4.4.4; A11 Build/KTU84P) AppleWebKit/537.36 (KHTML, like Gecko) Version/4.0 Chrome/37.0.0.0 Mobile MQQBrowser/6.8 TBS/036849 Safari/537.36 MicroMessenger/6.3.27.880 NetType/WIFI Language/zh_CN'
p52
sg16
S'374d275d3ab01738c7fd226dd542953e'
p53
sa(dp54
g2
S'36035'
p55
sg4
S'401'
p56
sg6
S'09ca09b656926cef7647082200d7e2d2'
p57
sg8
S'xx7d5536722396aff501cb4b819d8b2c49'
p58
sg10
S'xx7c11889d568b644595fc506dc352723e'
p59
sg12
S'xx4c88c33a77fde3437de23b08add4fd1b'
p60
sg14
S'Mozilla/5.0 (Linux; Android 4.4.4; A11 Build/KTU84P) AppleWebKit/537.36 (KHTML, like Gecko) Version/4.0 Chrome/37.0.0.0 Mobile MQQBrowser/6.8 TBS/036849 Safari/537.36 MicroMessenger/6.3.27.880 NetType/WIFI Language/zh_CN'
p61
sg16
S'374d275d3ab01738c7fd226dd542953e'
p62
sa(dp63
g2
S'36035'
p64
sg4
S'416'
p65
sg6
S'09ca09b656926cef7647082200d7e2d2'
p66
sg8
S'xx7d5536722396aff501cb4b819d8b2c49'
p67
sg10
S'xx7c11889d568b644595fc506dc352723e'
p68
sg12
S'xx4c88c33a77fde3437de23b08add4fd1b'
p69
sg14
S'Mozilla/5.0 (Linux; Android 4.4.4; A11 Build/KTU84P) AppleWebKit/537.36 (KHTML, like Gecko) Version/4.0 Chrome/37.0.0.0 Mobile MQQBrowser/6.8 TBS/036849 Safari/537.36 MicroMessenger/6.3.27.880 NetType/WIFI Language/zh_CN'
p70
sg16
S'374d275d3ab01738c7fd226dd542953e'
p71
sa(dp72
g2
S'36035'
p73
sg4
S'487'
p74
sg6
S'09ca09b656926cef7647082200d7e2d2'
p75
sg8
S'xx7d5536722396aff501cb4b819d8b2c49'
p76
sg10
S'xx7c11889d568b644595fc506dc352723e'
p77
sg12
S'xx4c88c33a77fde3437de23b08add4fd1b'
p78
sg14
S'Mozilla/5.0 (Linux; Android 4.4.4; A11 Build/KTU84P) AppleWebKit/537.36 (KHTML, like Gecko) Version/4.0 Chrome/37.0.0.0 Mobile MQQBrowser/6.8 TBS/036849 Safari/537.36 MicroMessenger/6.3.27.880 NetType/WIFI Language/zh_CN'
p79
sg16
S'374d275d3ab01738c7fd226dd542953e'
p80
sa(dp81
g2
S'36386'
p82
sg4
S'653'
p83
sg6
S'09ca09b656926cef7647082200d7e2d2'
p84
sg8
S'xx7d5536722396aff501cb4b819d8b2c49'
p85
sg10
S'xx7c11889d568b644595fc506dc352723e'
p86
sg12
S'xx4c88c33a77fde3437de23b08add4fd1b'
p87
sg14
S'Mozilla/5.0 (Linux; Android 4.4.4; A11 Build/KTU84P) AppleWebKit/537.36 (KHTML, like Gecko) Version/4.0 Chrome/37.0.0.0 Mobile MQQBrowser/6.8 TBS/036849 Safari/537.36 MicroMessenger/6.3.27.880 NetType/WIFI Language/zh_CN'
p88
sg16
S'374d275d3ab01738c7fd226dd542953e'
p89
sa(dp90
g2
S'36087'
p91
sg4
S'778'
p92
sg6
S'09ca09b656926cef7647082200d7e2d2'
p93
sg8
S'xx7d5536722396aff501cb4b819d8b2c49'
p94
sg10
S'xx7c11889d568b644595fc506dc352723e'
p95
sg12
S'xx4c88c33a77fde3437de23b08add4fd1b'
p96
sg14
S'Mozilla/5.0 (Linux; Android 4.4.4; A11 Build/KTU84P) AppleWebKit/537.36 (KHTML, like Gecko) Version/4.0 Chrome/37.0.0.0 Mobile MQQBrowser/6.8 TBS/036849 Safari/537.36 MicroMessenger/6.3.27.880 NetType/WIFI Language/zh_CN'
p97
sg16
S'374d275d3ab01738c7fd226dd542953e'
p98
sa(dp99
g2
S'36087'
p100
sg4
S'786'
p101
sg6
S'09ca09b656926cef7647082200d7e2d2'
p102
sg8
S'xx7d5536722396aff501cb4b819d8b2c49'
p103
sg10
S'xx7c11889d568b644595fc506dc352723e'
p104
sg12
S'xx4c88c33a77fde3437de23b08add4fd1b'
p105
sg14
S'Mozilla/5.0 (Linux; Android 4.4.4; A11 Build/KTU84P) AppleWebKit/537.36 (KHTML, like Gecko) Version/4.0 Chrome/37.0.0.0 Mobile MQQBrowser/6.8 TBS/036849 Safari/537.36 MicroMessenger/6.3.27.880 NetType/WIFI Language/zh_CN'
p106
sg16
S'374d275d3ab01738c7fd226dd542953e'
p107
sa(dp108
g2
S'36087'
p109
sg4
S'802'
p110
sg6
S'09ca09b656926cef7647082200d7e2d2'
p111
sg8
S'xx7d5536722396aff501cb4b819d8b2c49'
p112
sg10
S'xx7c11889d568b644595fc506dc352723e'
p113
sg12
S'xx4c88c33a77fde3437de23b08add4fd1b'
p114
sg14
S'Mozilla/5.0 (Linux; Android 4.4.4; A11 Build/KTU84P) AppleWebKit/537.36 (KHTML, like Gecko) Version/4.0 Chrome/37.0.0.0 Mobile MQQBrowser/6.8 TBS/036849 Safari/537.36 MicroMessenger/6.3.27.880 NetType/WIFI Language/zh_CN'
p115
sg16
S'374d275d3ab01738c7fd226dd542953e'
p116
sa(dp117
g2
S'36049'
p118
sg4
S'1204'
p119
sg6
S'09ca09b656926cef7647082200d7e2d2'
p120
sg8
S'xx7d5536722396aff501cb4b819d8b2c49'
p121
sg10
S'xx7c11889d568b644595fc506dc352723e'
p122
sg12
S'xx4c88c33a77fde3437de23b08add4fd1b'
p123
sg14
S'Mozilla/5.0 (Linux; Android 4.4.4; A11 Build/KTU84P) AppleWebKit/537.36 (KHTML, like Gecko) Version/4.0 Chrome/37.0.0.0 Mobile MQQBrowser/6.8 TBS/036849 Safari/537.36 MicroMessenger/6.3.27.880 NetType/WIFI Language/zh_CN'
p124
sg16
S'374d275d3ab01738c7fd226dd542953e'
p125
sa(dp126
g2
S'36049'
p127
sg4
S'1219'
p128
sg6
S'09ca09b656926cef7647082200d7e2d2'
p129
sg8
S'xx7d5536722396aff501cb4b819d8b2c49'
p130
sg10
S'xx7c11889d568b644595fc506dc352723e'
p131
sg12
S'xx4c88c33a77fde3437de23b08add4fd1b'
p132
sg14
S'Mozilla/5.0 (Linux; Android 4.4.4; A11 Build/KTU84P) AppleWebKit/537.36 (KHTML, like Gecko) Version/4.0 Chrome/37.0.0.0 Mobile MQQBrowser/6.8 TBS/036849 Safari/537.36 MicroMessenger/6.3.27.880 NetType/WIFI Language/zh_CN'
p133
sg16
S'374d275d3ab01738c7fd226dd542953e'
p134
sa(dp135
g2
S'36035'
p136
sg4
S'1360'
p137
sg6
S'09ca09b656926cef7647082200d7e2d2'
p138
sg8
S'xx7d5536722396aff501cb4b819d8b2c49'
p139
sg10
S'xx7c11889d568b644595fc506dc352723e'
p140
sg12
S'xx4c88c33a77fde3437de23b08add4fd1b'
p141
sg14
S'Mozilla/5.0 (Linux; Android 4.4.4; A11 Build/KTU84P) AppleWebKit/537.36 (KHTML, like Gecko) Version/4.0 Chrome/37.0.0.0 Mobile MQQBrowser/6.8 TBS/036849 Safari/537.36 MicroMessenger/6.3.27.880 NetType/WIFI Language/zh_CN'
p142
sg16
S'374d275d3ab01738c7fd226dd542953e'
p143
sa(dp144
g2
S'36386'
p145
sg4
S'1541'
p146
sg6
S'09ca09b656926cef7647082200d7e2d2'
p147
sg8
S'xx7d5536722396aff501cb4b819d8b2c49'
p148
sg10
S'xx7c11889d568b644595fc506dc352723e'
p149
sg12
S'xx4c88c33a77fde3437de23b08add4fd1b'
p150
sg14
S'Mozilla/5.0 (Linux; Android 4.4.4; A11 Build/KTU84P) AppleWebKit/537.36 (KHTML, like Gecko) Version/4.0 Chrome/37.0.0.0 Mobile MQQBrowser/6.8 TBS/036849 Safari/537.36 MicroMessenger/6.3.27.880 NetType/WIFI Language/zh_CN'
p151
sg16
S'374d275d3ab01738c7fd226dd542953e'
p152
sa(dp153
g2
S'36087'
p154
sg4
S'1894'
p155
sg6
S'09ca09b656926cef7647082200d7e2d2'
p156
sg8
S'xx7d5536722396aff501cb4b819d8b2c49'
p157
sg10
S'xx7c11889d568b644595fc506dc352723e'
p158
sg12
S'xx4c88c33a77fde3437de23b08add4fd1b'
p159
sg14
S'Mozilla/5.0 (Linux; Android 4.4.4; A11 Build/KTU84P) AppleWebKit/537.36 (KHTML, like Gecko) Version/4.0 Chrome/37.0.0.0 Mobile MQQBrowser/6.8 TBS/036849 Safari/537.36 MicroMessenger/6.3.27.880 NetType/WIFI Language/zh_CN'
p160
sg16
S'374d275d3ab01738c7fd226dd542953e'
p161
sa(dp162
g2
S'36087'
p163
sg4
S'1910'
p164
sg6
S'09ca09b656926cef7647082200d7e2d2'
p165
sg8
S'xx7d5536722396aff501cb4b819d8b2c49'
p166
sg10
S'xx7c11889d568b644595fc506dc352723e'
p167
sg12
S'xx4c88c33a77fde3437de23b08add4fd1b'
p168
sg14
S'Mozilla/5.0 (Linux; Android 4.4.4; A11 Build/KTU84P) AppleWebKit/537.36 (KHTML, like Gecko) Version/4.0 Chrome/37.0.0.0 Mobile MQQBrowser/6.8 TBS/036849 Safari/537.36 MicroMessenger/6.3.27.880 NetType/WIFI Language/zh_CN'
p169
sg16
S'374d275d3ab01738c7fd226dd542953e'
p170
sa(dp171
g2
S'24611'
p172
sg4
S'1931'
p173
sg6
S'3a56e6d9df47789564922a3ab4b12128'
p174
sg8
S'xx5046597e36e0fc4beb408588a1d23600'
p175
sg10
S'xx7c11889d568b644595fc506dc352723e'
p176
sg12
S'xx4c88c33a77fde3437de23b08add4fd1b'
p177
sg14
S'Mozilla/5.0 (Linux; Android 4.4.4; A11 Build/KTU84P) AppleWebKit/537.36 (KHTML, like Gecko) Version/4.0 Chrome/37.0.0.0 Mobile MQQBrowser/6.8 TBS/036866 Safari/537.36 MicroMessenger/6.3.25.861 NetType/WIFI Language/zh_CN'
p178
sg16
S'8806bd47105cb9c5715824bbd52bd722'
p179
sa(dp180
g2
S'24611'
p181
sg4
S'1951'
p182
sg6
S'3a56e6d9df47789564922a3ab4b12128'
p183
sg8
S'xx5046597e36e0fc4beb408588a1d23600'
p184
sg10
S'xx7c11889d568b644595fc506dc352723e'
p185
sg12
S'xx4c88c33a77fde3437de23b08add4fd1b'
p186
sg14
S'Mozilla/5.0 (Linux; Android 4.4.4; A11 Build/KTU84P) AppleWebKit/537.36 (KHTML, like Gecko) Version/4.0 Chrome/37.0.0.0 Mobile MQQBrowser/6.8 TBS/036866 Safari/537.36 MicroMessenger/6.3.25.861 NetType/WIFI Language/zh_CN'
p187
sg16
S'8806bd47105cb9c5715824bbd52bd722'
p188
sa(dp189
g2
S'24611'
p190
sg4
S'1973'
p191
sg6
S'3a56e6d9df47789564922a3ab4b12128'
p192
sg8
S'xx5046597e36e0fc4beb408588a1d23600'
p193
sg10
S'xx7c11889d568b644595fc506dc352723e'
p194
sg12
S'xx4c88c33a77fde3437de23b08add4fd1b'
p195
sg14
S'Mozilla/5.0 (Linux; Android 4.4.4; A11 Build/KTU84P) AppleWebKit/537.36 (KHTML, like Gecko) Version/4.0 Chrome/37.0.0.0 Mobile MQQBrowser/6.8 TBS/036866 Safari/537.36 MicroMessenger/6.3.25.861 NetType/WIFI Language/zh_CN'
p196
sg16
S'8806bd47105cb9c5715824bbd52bd722'
p197
sa(dp198
g2
S'36087'
p199
sg4
S'1998'
p200
sg6
S'09ca09b656926cef7647082200d7e2d2'
p201
sg8
S'xx7d5536722396aff501cb4b819d8b2c49'
p202
sg10
S'xx7c11889d568b644595fc506dc352723e'
p203
sg12
S'xx4c88c33a77fde3437de23b08add4fd1b'
p204
sg14
S'Mozilla/5.0 (Linux; Android 4.4.4; A11 Build/KTU84P) AppleWebKit/537.36 (KHTML, like Gecko) Version/4.0 Chrome/37.0.0.0 Mobile MQQBrowser/6.8 TBS/036849 Safari/537.36 MicroMessenger/6.3.27.880 NetType/WIFI Language/zh_CN'
p205
sg16
S'374d275d3ab01738c7fd226dd542953e'
p206
sa(dp207
g2
S'31282'
p208
sg4
S'2188'
p209
sg6
S'84c6fea1a0efc618b52a026523e50a51'
p210
sg8
S'xx7d5536722396aff501cb4b819d8b2c49'
p211
sg10
S'xx7c11889d568b644595fc506dc352723e'
p212
sg12
S'xx4c88c33a77fde3437de23b08add4fd1b'
p213
sg14
S'Mozilla/5.0 (Linux; Android 4.4.4; A11 Build/KTU84P) AppleWebKit/537.36 (KHTML, like Gecko) Version/4.0 Chrome/37.0.0.0 Mobile MQQBrowser/6.8 TBS/036849 Safari/537.36 MicroMessenger/6.3.27.880 NetType/WIFI Language/zh_CN'
p214
sg16
S'374d275d3ab01738c7fd226dd542953e'
p215
sa(dp216
g2
S'31282'
p217
sg4
S'2208'
p218
sg6
S'84c6fea1a0efc618b52a026523e50a51'
p219
sg8
S'xx7d5536722396aff501cb4b819d8b2c49'
p220
sg10
S'xx7c11889d568b644595fc506dc352723e'
p221
sg12
S'xx4c88c33a77fde3437de23b08add4fd1b'
p222
sg14
S'Mozilla/5.0 (Linux; Android 4.4.4; A11 Build/KTU84P) AppleWebKit/537.36 (KHTML, like Gecko) Version/4.0 Chrome/37.0.0.0 Mobile MQQBrowser/6.8 TBS/036849 Safari/537.36 MicroMessenger/6.3.27.880 NetType/WIFI Language/zh_CN'
p223
sg16
S'374d275d3ab01738c7fd226dd542953e'
p224
sa(dp225
g2
S'49809'
p226
sg4
S'6203'
p227
sg6
S'7ad6ba29c8e2117fc5d1ce0cf6043119'
p228
sg8
S'xx7d5536722396aff501cb4b819d8b2c49'
p229
sg10
S'xx7c11889d568b644595fc506dc352723e'
p230
sg12
S'xx4c88c33a77fde3437de23b08add4fd1b'
p231
sg14
S'Mozilla/5.0 (Linux; Android 4.4.4; A11 Build/KTU84P) AppleWebKit/537.36 (KHTML, like Gecko) Version/4.0 Chrome/37.0.0.0 Mobile MQQBrowser/6.8 TBS/036849 Safari/537.36 MicroMessenger/6.3.27.880 NetType/WIFI Language/zh_CN'
p232
sg16
S'374d275d3ab01738c7fd226dd542953e'
p233
sa(dp234
g2
S'49809'
p235
sg4
S'6217'
p236
sg6
S'7ad6ba29c8e2117fc5d1ce0cf6043119'
p237
sg8
S'xx7d5536722396aff501cb4b819d8b2c49'
p238
sg10
S'xx7c11889d568b644595fc506dc352723e'
p239
sg12
S'xx4c88c33a77fde3437de23b08add4fd1b'
p240
sg14
S'Mozilla/5.0 (Linux; Android 4.4.4; A11 Build/KTU84P) AppleWebKit/537.36 (KHTML, like Gecko) Version/4.0 Chrome/37.0.0.0 Mobile MQQBrowser/6.8 TBS/036849 Safari/537.36 MicroMessenger/6.3.27.880 NetType/WIFI Language/zh_CN'
p241
sg16
S'374d275d3ab01738c7fd226dd542953e'
p242
sa(dp243
g2
S'49809'
p244
sg4
S'6231'
p245
sg6
S'7ad6ba29c8e2117fc5d1ce0cf6043119'
p246
sg8
S'xx7d5536722396aff501cb4b819d8b2c49'
p247
sg10
S'xx7c11889d568b644595fc506dc352723e'
p248
sg12
S'xx4c88c33a77fde3437de23b08add4fd1b'
p249
sg14
S'Mozilla/5.0 (Linux; Android 4.4.4; A11 Build/KTU84P) AppleWebKit/537.36 (KHTML, like Gecko) Version/4.0 Chrome/37.0.0.0 Mobile MQQBrowser/6.8 TBS/036849 Safari/537.36 MicroMessenger/6.3.27.880 NetType/WIFI Language/zh_CN'
p250
sg16
S'374d275d3ab01738c7fd226dd542953e'
p251
sa(dp252
g2
S'49809'
p253
sg4
S'6245'
p254
sg6
S'7ad6ba29c8e2117fc5d1ce0cf6043119'
p255
sg8
S'xx7d5536722396aff501cb4b819d8b2c49'
p256
sg10
S'xx7c11889d568b644595fc506dc352723e'
p257
sg12
S'xx4c88c33a77fde3437de23b08add4fd1b'
p258
sg14
S'Mozilla/5.0 (Linux; Android 4.4.4; A11 Build/KTU84P) AppleWebKit/537.36 (KHTML, like Gecko) Version/4.0 Chrome/37.0.0.0 Mobile MQQBrowser/6.8 TBS/036849 Safari/537.36 MicroMessenger/6.3.27.880 NetType/WIFI Language/zh_CN'
p259
sg16
S'374d275d3ab01738c7fd226dd542953e'
p260
sa(dp261
g2
S'31177'
p262
sg4
S'6844'
p263
sg6
S'509368e6f61d2e7b8daf31e0cb12da6d'
p264
sg8
S'xx7d5536722396aff501cb4b819d8b2c49'
p265
sg10
S'xx7c11889d568b644595fc506dc352723e'
p266
sg12
S'xx4c88c33a77fde3437de23b08add4fd1b'
p267
sg14
S'Mozilla/5.0 (Linux; Android 4.4.4; A11 Build/KTU84P) AppleWebKit/537.36 (KHTML, like Gecko) Version/4.0 Chrome/37.0.0.0 Mobile MQQBrowser/6.8 TBS/036849 Safari/537.36 MicroMessenger/6.3.27.880 NetType/WIFI Language/zh_CN'
p268
sg16
S'374d275d3ab01738c7fd226dd542953e'
p269
sa(dp270
g2
S'31177'
p271
sg4
S'6858'
p272
sg6
S'509368e6f61d2e7b8daf31e0cb12da6d'
p273
sg8
S'xx7d5536722396aff501cb4b819d8b2c49'
p274
sg10
S'xx7c11889d568b644595fc506dc352723e'
p275
sg12
S'xx4c88c33a77fde3437de23b08add4fd1b'
p276
sg14
S'Mozilla/5.0 (Linux; Android 4.4.4; A11 Build/KTU84P) AppleWebKit/537.36 (KHTML, like Gecko) Version/4.0 Chrome/37.0.0.0 Mobile MQQBrowser/6.8 TBS/036849 Safari/537.36 MicroMessenger/6.3.27.880 NetType/WIFI Language/zh_CN'
p277
sg16
S'374d275d3ab01738c7fd226dd542953e'
p278
sa(dp279
g2
S'31177'
p280
sg4
S'6875'
p281
sg6
S'509368e6f61d2e7b8daf31e0cb12da6d'
p282
sg8
S'xx7d5536722396aff501cb4b819d8b2c49'
p283
sg10
S'xx7c11889d568b644595fc506dc352723e'
p284
sg12
S'xx4c88c33a77fde3437de23b08add4fd1b'
p285
sg14
S'Mozilla/5.0 (Linux; Android 4.4.4; A11 Build/KTU84P) AppleWebKit/537.36 (KHTML, like Gecko) Version/4.0 Chrome/37.0.0.0 Mobile MQQBrowser/6.8 TBS/036849 Safari/537.36 MicroMessenger/6.3.27.880 NetType/WIFI Language/zh_CN'
p286
sg16
S'374d275d3ab01738c7fd226dd542953e'
p287
sa(dp288
g2
S'34028'
p289
sg4
S'7287'
p290
sg6
S'02082690daff62574277f4546343bcc1'
p291
sg8
S'xx7d5536722396aff501cb4b819d8b2c49'
p292
sg10
S'xx7c11889d568b644595fc506dc352723e'
p293
sg12
S'xx4c88c33a77fde3437de23b08add4fd1b'
p294
sg14
S'Mozilla/5.0 (Linux; Android 4.4.4; A11 Build/KTU84P) AppleWebKit/537.36 (KHTML, like Gecko) Version/4.0 Chrome/37.0.0.0 Mobile MQQBrowser/6.8 TBS/036849 Safari/537.36 MicroMessenger/6.3.27.880 NetType/WIFI Language/zh_CN'
p295
sg16
S'374d275d3ab01738c7fd226dd542953e'
p296
sa(dp297
g2
S'34028'
p298
sg4
S'7305'
p299
sg6
S'02082690daff62574277f4546343bcc1'
p300
sg8
S'xx7d5536722396aff501cb4b819d8b2c49'
p301
sg10
S'xx7c11889d568b644595fc506dc352723e'
p302
sg12
S'xx4c88c33a77fde3437de23b08add4fd1b'
p303
sg14
S'Mozilla/5.0 (Linux; Android 4.4.4; A11 Build/KTU84P) AppleWebKit/537.36 (KHTML, like Gecko) Version/4.0 Chrome/37.0.0.0 Mobile MQQBrowser/6.8 TBS/036849 Safari/537.36 MicroMessenger/6.3.27.880 NetType/WIFI Language/zh_CN'
p304
sg16
S'374d275d3ab01738c7fd226dd542953e'
p305
sa(dp306
g2
S'49847'
p307
sg4
S'7870'
p308
sg6
S'b02bddc0c74108bceb70b1fabeda5212'
p309
sg8
S'xxaf22c2034fe437a26df068474ec0e490'
p310
sg10
S'xx7c11889d568b644595fc506dc352723e'
p311
sg12
S'xx4c88c33a77fde3437de23b08add4fd1b'
p312
sg14
S'Mozilla/5.0 (Linux; Android 4.4.4; A11 Build/KTU84P) AppleWebKit/537.36 (KHTML, like Gecko) Version/4.0 Chrome/37.0.0.0 Mobile MQQBrowser/6.8 TBS/036849 Safari/537.36 MicroMessenger/6.3.27.880 NetType/cmnet Language/zh_CN'
p313
sg16
S'edeabbf27be397de12fc1604eba8a8df'
p314
sa(dp315
g2
S'49847'
p316
sg4
S'7883'
p317
sg6
S'b02bddc0c74108bceb70b1fabeda5212'
p318
sg8
S'xxaf22c2034fe437a26df068474ec0e490'
p319
sg10
S'xx7c11889d568b644595fc506dc352723e'
p320
sg12
S'xx4c88c33a77fde3437de23b08add4fd1b'
p321
sg14
S'Mozilla/5.0 (Linux; Android 4.4.4; A11 Build/KTU84P) AppleWebKit/537.36 (KHTML, like Gecko) Version/4.0 Chrome/37.0.0.0 Mobile MQQBrowser/6.8 TBS/036849 Safari/537.36 MicroMessenger/6.3.27.880 NetType/cmnet Language/zh_CN'
p322
sg16
S'edeabbf27be397de12fc1604eba8a8df'
p323
sa(dp324
g2
S'49847'
p325
sg4
S'7895'
p326
sg6
S'b02bddc0c74108bceb70b1fabeda5212'
p327
sg8
S'xxaf22c2034fe437a26df068474ec0e490'
p328
sg10
S'xx7c11889d568b644595fc506dc352723e'
p329
sg12
S'xx4c88c33a77fde3437de23b08add4fd1b'
p330
sg14
S'Mozilla/5.0 (Linux; Android 4.4.4; A11 Build/KTU84P) AppleWebKit/537.36 (KHTML, like Gecko) Version/4.0 Chrome/37.0.0.0 Mobile MQQBrowser/6.8 TBS/036849 Safari/537.36 MicroMessenger/6.3.27.880 NetType/cmnet Language/zh_CN'
p331
sg16
S'edeabbf27be397de12fc1604eba8a8df'
p332
sa(dp333
g2
S'49847'
p334
sg4
S'7909'
p335
sg6
S'b02bddc0c74108bceb70b1fabeda5212'
p336
sg8
S'xxaf22c2034fe437a26df068474ec0e490'
p337
sg10
S'xx7c11889d568b644595fc506dc352723e'
p338
sg12
S'xx4c88c33a77fde3437de23b08add4fd1b'
p339
sg14
S'Mozilla/5.0 (Linux; Android 4.4.4; A11 Build/KTU84P) AppleWebKit/537.36 (KHTML, like Gecko) Version/4.0 Chrome/37.0.0.0 Mobile MQQBrowser/6.8 TBS/036849 Safari/537.36 MicroMessenger/6.3.27.880 NetType/cmnet Language/zh_CN'
p340
sg16
S'edeabbf27be397de12fc1604eba8a8df'
p341
sa(dp342
g2
S'24082'
p343
sg4
S'8450'
p344
sg6
S'869ea3d970846584cde098d46f624cea'
p345
sg8
S'xx9b7db5d8677e464ed44091a4bb6849cd'
p346
sg10
S'xx7c11889d568b644595fc506dc352723e'
p347
sg12
S'xx4c88c33a77fde3437de23b08add4fd1b'
p348
sg14
S'Mozilla/5.0 (Linux; Android 4.4.4; A11 Build/KTU84P) AppleWebKit/537.36 (KHTML, like Gecko) Version/4.0 Chrome/37.0.0.0 Mobile MQQBrowser/6.8 TBS/036869 Safari/537.36 MicroMessenger/6.3.27.880 NetType/cmnet Language/zh_CN'
p349
sg16
S'bf97059fd0a068355c16adf93c78d6da'
p350
sa(dp351
g2
S'24082'
p352
sg4
S'8464'
p353
sg6
S'869ea3d970846584cde098d46f624cea'
p354
sg8
S'xx9b7db5d8677e464ed44091a4bb6849cd'
p355
sg10
S'xx7c11889d568b644595fc506dc352723e'
p356
sg12
S'xx4c88c33a77fde3437de23b08add4fd1b'
p357
sg14
S'Mozilla/5.0 (Linux; Android 4.4.4; A11 Build/KTU84P) AppleWebKit/537.36 (KHTML, like Gecko) Version/4.0 Chrome/37.0.0.0 Mobile MQQBrowser/6.8 TBS/036869 Safari/537.36 MicroMessenger/6.3.27.880 NetType/cmnet Language/zh_CN'
p358
sg16
S'bf97059fd0a068355c16adf93c78d6da'
p359
sa.