(lp0
(dp1
S'user_id'
p2
S'33531'
p3
sS'data_id'
p4
S'852'
p5
sS'ip'
p6
S'ce007e11f3a51fcd3cd90d7ea97dda2d'
p7
sS'phone_B'
p8
S'xxc68e0e6a1ae04d6b593f611f813cee87'
p9
sS'phone_C'
p10
S'xx8f194e7b9c7190e70cabcf32ac59c81b'
p11
sS'phone_A'
p12
S'xx4f1dff10b2bc1f8550777c4184724582'
p13
sS'user_agent'
p14
S'Mozilla/5.0 (Linux; Android 4.4.4; LA2-SN Build/KTU84P) AppleWebKit/537.36 (KHTML, like Gecko) Version/4.0 Chrome/37.0.0.0 Mobile MQQBrowser/6.8 TBS/036860 Safari/537.36 MicroMessenger/6.3.27.880 NetType/WIFI Language/zh_CN'
p15
sS'ua'
p16
S'10fef183005cb07c71fe4c990e691097'
p17
sa(dp18
g2
S'33531'
p19
sg4
S'874'
p20
sg6
S'ce007e11f3a51fcd3cd90d7ea97dda2d'
p21
sg8
S'xxc68e0e6a1ae04d6b593f611f813cee87'
p22
sg10
S'xx8f194e7b9c7190e70cabcf32ac59c81b'
p23
sg12
S'xx4f1dff10b2bc1f8550777c4184724582'
p24
sg14
S'Mozilla/5.0 (Linux; Android 4.4.4; LA2-SN Build/KTU84P) AppleWebKit/537.36 (KHTML, like Gecko) Version/4.0 Chrome/37.0.0.0 Mobile MQQBrowser/6.8 TBS/036860 Safari/537.36 MicroMessenger/6.3.27.880 NetType/WIFI Language/zh_CN'
p25
sg16
S'10fef183005cb07c71fe4c990e691097'
p26
sa.