(lp0
(dp1
S'user_id'
p2
S'49823'
p3
sS'data_id'
p4
S'6867'
p5
sS'ip'
p6
S'ccb80c32ad95cc882ccfcd1bc67fc390'
p7
sS'phone_B'
p8
S'xxa693ba33d921a6d217b19315cb995a47'
p9
sS'phone_C'
p10
S'xx7b095e7288d4e18b0040f72dda7e33b0'
p11
sS'phone_A'
p12
S'xx4f898cb751c93247f7a59db26ba2d59e'
p13
sS'user_agent'
p14
S'Mozilla/5.0 (Linux; Android 5.0; SM-N9009 Build/LRX21V) AppleWebKit/537.36 (KHTML, like Gecko) Version/4.0 Chrome/37.0.0.0 Mobile MQQBrowser/6.8 TBS/036849 Safari/537.36 MicroMessenger/6.3.27.880 NetType/ctnet Language/zh_CN'
p15
sS'ua'
p16
S'e737102e42d3eb1179c1e3abca231cd8'
p17
sa(dp18
g2
S'49823'
p19
sg4
S'6885'
p20
sg6
S'ccb80c32ad95cc882ccfcd1bc67fc390'
p21
sg8
S'xxa693ba33d921a6d217b19315cb995a47'
p22
sg10
S'xx7b095e7288d4e18b0040f72dda7e33b0'
p23
sg12
S'xx4f898cb751c93247f7a59db26ba2d59e'
p24
sg14
S'Mozilla/5.0 (Linux; Android 5.0; SM-N9009 Build/LRX21V) AppleWebKit/537.36 (KHTML, like Gecko) Version/4.0 Chrome/37.0.0.0 Mobile MQQBrowser/6.8 TBS/036849 Safari/537.36 MicroMessenger/6.3.27.880 NetType/ctnet Language/zh_CN'
p25
sg16
S'e737102e42d3eb1179c1e3abca231cd8'
p26
sa(dp27
g2
S'49823'
p28
sg4
S'7029'
p29
sg6
S'ccb80c32ad95cc882ccfcd1bc67fc390'
p30
sg8
S'xxa693ba33d921a6d217b19315cb995a47'
p31
sg10
S'xx7b095e7288d4e18b0040f72dda7e33b0'
p32
sg12
S'xx4f898cb751c93247f7a59db26ba2d59e'
p33
sg14
S'Mozilla/5.0 (Linux; Android 5.0; SM-N9009 Build/LRX21V) AppleWebKit/537.36 (KHTML, like Gecko) Version/4.0 Chrome/37.0.0.0 Mobile MQQBrowser/6.8 TBS/036849 Safari/537.36 MicroMessenger/6.3.27.880 NetType/ctnet Language/zh_CN'
p34
sg16
S'e737102e42d3eb1179c1e3abca231cd8'
p35
sa.