(lp0
(dp1
S'user_id'
p2
S'33800'
p3
sS'data_id'
p4
S'3728'
p5
sS'ip'
p6
S'a0d291812d3507ebd7ac8cd329352c0b'
p7
sS'phone_B'
p8
S'xxeb5feb4801c5abc2345411015175b517'
p9
sS'phone_C'
p10
S'xx345474f7f4c162365ccc980e6a4738c3'
p11
sS'phone_A'
p12
S'xx5077effd21e07f8579a33e4723202c0d'
p13
sS'user_agent'
p14
S'Mozilla/5.0 (Linux; Android 6.0; Le X621 Build/HCXCNCT5801708221S) AppleWebKit/537.36 (KHTML, like Gecko) Version/4.0 Chrome/37.0.0.0 Mobile MQQBrowser/6.8 TBS/036869 Safari/537.36 MicroMessenger/6.3.27.880 NetType/cmnet Language/zh_CN'
p15
sS'ua'
p16
S'6ee51fb2c4fa3be631a82b01bee9e62e'
p17
sa(dp18
g2
S'33800'
p19
sg4
S'3745'
p20
sg6
S'a0d291812d3507ebd7ac8cd329352c0b'
p21
sg8
S'xxeb5feb4801c5abc2345411015175b517'
p22
sg10
S'xx345474f7f4c162365ccc980e6a4738c3'
p23
sg12
S'xx5077effd21e07f8579a33e4723202c0d'
p24
sg14
S'Mozilla/5.0 (Linux; Android 6.0; Le X621 Build/HCXCNCT5801708221S) AppleWebKit/537.36 (KHTML, like Gecko) Version/4.0 Chrome/37.0.0.0 Mobile MQQBrowser/6.8 TBS/036869 Safari/537.36 MicroMessenger/6.3.27.880 NetType/cmnet Language/zh_CN'
p25
sg16
S'6ee51fb2c4fa3be631a82b01bee9e62e'
p26
sa(dp27
g2
S'33800'
p28
sg4
S'4853'
p29
sg6
S'a0d291812d3507ebd7ac8cd329352c0b'
p30
sg8
S'xxeb5feb4801c5abc2345411015175b517'
p31
sg10
S'xx345474f7f4c162365ccc980e6a4738c3'
p32
sg12
S'xx5077effd21e07f8579a33e4723202c0d'
p33
sg14
S'Mozilla/5.0 (Linux; Android 6.0; Le X621 Build/HCXCNCT5801708221S) AppleWebKit/537.36 (KHTML, like Gecko) Version/4.0 Chrome/37.0.0.0 Mobile MQQBrowser/6.8 TBS/036869 Safari/537.36 MicroMessenger/6.3.27.880 NetType/cmnet Language/zh_CN'
p34
sg16
S'6ee51fb2c4fa3be631a82b01bee9e62e'
p35
sa(dp36
g2
S'33800'
p37
sg4
S'5034'
p38
sg6
S'a0d291812d3507ebd7ac8cd329352c0b'
p39
sg8
S'xxeb5feb4801c5abc2345411015175b517'
p40
sg10
S'xx345474f7f4c162365ccc980e6a4738c3'
p41
sg12
S'xx5077effd21e07f8579a33e4723202c0d'
p42
sg14
S'Mozilla/5.0 (Linux; Android 6.0; Le X621 Build/HCXCNCT5801708221S) AppleWebKit/537.36 (KHTML, like Gecko) Version/4.0 Chrome/37.0.0.0 Mobile MQQBrowser/6.8 TBS/036869 Safari/537.36 MicroMessenger/6.3.27.880 NetType/cmnet Language/zh_CN'
p43
sg16
S'6ee51fb2c4fa3be631a82b01bee9e62e'
p44
sa(dp45
g2
S'33800'
p46
sg4
S'5323'
p47
sg6
S'a0d291812d3507ebd7ac8cd329352c0b'
p48
sg8
S'xxeb5feb4801c5abc2345411015175b517'
p49
sg10
S'xx345474f7f4c162365ccc980e6a4738c3'
p50
sg12
S'xx5077effd21e07f8579a33e4723202c0d'
p51
sg14
S'Mozilla/5.0 (Linux; Android 6.0; Le X621 Build/HCXCNCT5801708221S) AppleWebKit/537.36 (KHTML, like Gecko) Version/4.0 Chrome/37.0.0.0 Mobile MQQBrowser/6.8 TBS/036869 Safari/537.36 MicroMessenger/6.3.27.880 NetType/cmnet Language/zh_CN'
p52
sg16
S'6ee51fb2c4fa3be631a82b01bee9e62e'
p53
sa(dp54
g2
S'33800'
p55
sg4
S'5338'
p56
sg6
S'a0d291812d3507ebd7ac8cd329352c0b'
p57
sg8
S'xxeb5feb4801c5abc2345411015175b517'
p58
sg10
S'xx345474f7f4c162365ccc980e6a4738c3'
p59
sg12
S'xx5077effd21e07f8579a33e4723202c0d'
p60
sg14
S'Mozilla/5.0 (Linux; Android 6.0; Le X621 Build/HCXCNCT5801708221S) AppleWebKit/537.36 (KHTML, like Gecko) Version/4.0 Chrome/37.0.0.0 Mobile MQQBrowser/6.8 TBS/036869 Safari/537.36 MicroMessenger/6.3.27.880 NetType/cmnet Language/zh_CN'
p61
sg16
S'6ee51fb2c4fa3be631a82b01bee9e62e'
p62
sa(dp63
g2
S'33800'
p64
sg4
S'5354'
p65
sg6
S'a0d291812d3507ebd7ac8cd329352c0b'
p66
sg8
S'xxeb5feb4801c5abc2345411015175b517'
p67
sg10
S'xx345474f7f4c162365ccc980e6a4738c3'
p68
sg12
S'xx5077effd21e07f8579a33e4723202c0d'
p69
sg14
S'Mozilla/5.0 (Linux; Android 6.0; Le X621 Build/HCXCNCT5801708221S) AppleWebKit/537.36 (KHTML, like Gecko) Version/4.0 Chrome/37.0.0.0 Mobile MQQBrowser/6.8 TBS/036869 Safari/537.36 MicroMessenger/6.3.27.880 NetType/cmnet Language/zh_CN'
p70
sg16
S'6ee51fb2c4fa3be631a82b01bee9e62e'
p71
sa(dp72
g2
S'33800'
p73
sg4
S'5384'
p74
sg6
S'a0d291812d3507ebd7ac8cd329352c0b'
p75
sg8
S'xxeb5feb4801c5abc2345411015175b517'
p76
sg10
S'xx345474f7f4c162365ccc980e6a4738c3'
p77
sg12
S'xx5077effd21e07f8579a33e4723202c0d'
p78
sg14
S'Mozilla/5.0 (Linux; Android 6.0; Le X621 Build/HCXCNCT5801708221S) AppleWebKit/537.36 (KHTML, like Gecko) Version/4.0 Chrome/37.0.0.0 Mobile MQQBrowser/6.8 TBS/036869 Safari/537.36 MicroMessenger/6.3.27.880 NetType/cmnet Language/zh_CN'
p79
sg16
S'6ee51fb2c4fa3be631a82b01bee9e62e'
p80
sa.