(lp0
(dp1
S'user_id'
p2
S'30111'
p3
sS'data_id'
p4
S'193'
p5
sS'ip'
p6
S'b65f797cfa2796d0cef4d0a27a74c915'
p7
sS'phone_B'
p8
S'xx81b03e6541dbd9f869128de55ec79a44'
p9
sS'phone_C'
p10
S'xx9e1d0ae5fd8b287be39f085dd4bf5df5'
p11
sS'phone_A'
p12
S'xx50ee5928a74e0e6f2e862766c3d509ab'
p13
sS'user_agent'
p14
S'Mozilla/5.0 (Linux; Android 5.0.2; SM-A7000 Build/LRX22G) AppleWebKit/537.36 (KHTML, like Gecko) Version/4.0 Chrome/37.0.0.0 Mobile MQQBrowser/6.8 TBS/036869 Safari/537.36 MicroMessenger/6.3.27.880 NetType/WIFI Language/zh_CN'
p15
sS'ua'
p16
S'13c414de5d8c239898bde5adfd25340f'
p17
sa(dp18
g2
S'30111'
p19
sg4
S'205'
p20
sg6
S'b65f797cfa2796d0cef4d0a27a74c915'
p21
sg8
S'xx81b03e6541dbd9f869128de55ec79a44'
p22
sg10
S'xx9e1d0ae5fd8b287be39f085dd4bf5df5'
p23
sg12
S'xx50ee5928a74e0e6f2e862766c3d509ab'
p24
sg14
S'Mozilla/5.0 (Linux; Android 5.0.2; SM-A7000 Build/LRX22G) AppleWebKit/537.36 (KHTML, like Gecko) Version/4.0 Chrome/37.0.0.0 Mobile MQQBrowser/6.8 TBS/036869 Safari/537.36 MicroMessenger/6.3.27.880 NetType/WIFI Language/zh_CN'
p25
sg16
S'13c414de5d8c239898bde5adfd25340f'
p26
sa(dp27
g2
S'30111'
p28
sg4
S'216'
p29
sg6
S'b65f797cfa2796d0cef4d0a27a74c915'
p30
sg8
S'xx81b03e6541dbd9f869128de55ec79a44'
p31
sg10
S'xx9e1d0ae5fd8b287be39f085dd4bf5df5'
p32
sg12
S'xx50ee5928a74e0e6f2e862766c3d509ab'
p33
sg14
S'Mozilla/5.0 (Linux; Android 5.0.2; SM-A7000 Build/LRX22G) AppleWebKit/537.36 (KHTML, like Gecko) Version/4.0 Chrome/37.0.0.0 Mobile MQQBrowser/6.8 TBS/036869 Safari/537.36 MicroMessenger/6.3.27.880 NetType/WIFI Language/zh_CN'
p34
sg16
S'13c414de5d8c239898bde5adfd25340f'
p35
sa(dp36
g2
S'42446'
p37
sg4
S'349'
p38
sg6
S'55354d7eaad0a85c7da9f23784797167'
p39
sg8
S'xx0599fdcbcb55cf1ebcadc55725ac851a'
p40
sg10
S'xx9e1d0ae5fd8b287be39f085dd4bf5df5'
p41
sg12
S'xx50ee5928a74e0e6f2e862766c3d509ab'
p42
sg14
S'Mozilla/5.0 (Linux; Android 5.0.2; SM-A7000 Build/LRX22G) AppleWebKit/537.36 (KHTML, like Gecko) Version/4.0 Chrome/37.0.0.0 Mobile MQQBrowser/6.8 TBS/036849 Safari/537.36 MicroMessenger/6.3.27.880 NetType/WIFI Language/zh_CN'
p43
sg16
S'1eab6ce98e8613af975f83ee8f4870d0'
p44
sa(dp45
g2
S'42446'
p46
sg4
S'364'
p47
sg6
S'55354d7eaad0a85c7da9f23784797167'
p48
sg8
S'xx0599fdcbcb55cf1ebcadc55725ac851a'
p49
sg10
S'xx9e1d0ae5fd8b287be39f085dd4bf5df5'
p50
sg12
S'xx50ee5928a74e0e6f2e862766c3d509ab'
p51
sg14
S'Mozilla/5.0 (Linux; Android 5.0.2; SM-A7000 Build/LRX22G) AppleWebKit/537.36 (KHTML, like Gecko) Version/4.0 Chrome/37.0.0.0 Mobile MQQBrowser/6.8 TBS/036849 Safari/537.36 MicroMessenger/6.3.27.880 NetType/WIFI Language/zh_CN'
p52
sg16
S'1eab6ce98e8613af975f83ee8f4870d0'
p53
sa(dp54
g2
S'30111'
p55
sg4
S'1206'
p56
sg6
S'b65f797cfa2796d0cef4d0a27a74c915'
p57
sg8
S'xx81b03e6541dbd9f869128de55ec79a44'
p58
sg10
S'xx9e1d0ae5fd8b287be39f085dd4bf5df5'
p59
sg12
S'xx50ee5928a74e0e6f2e862766c3d509ab'
p60
sg14
S'Mozilla/5.0 (Linux; Android 5.0.2; SM-A7000 Build/LRX22G) AppleWebKit/537.36 (KHTML, like Gecko) Version/4.0 Chrome/37.0.0.0 Mobile MQQBrowser/6.8 TBS/036869 Safari/537.36 MicroMessenger/6.3.27.880 NetType/WIFI Language/zh_CN'
p61
sg16
S'13c414de5d8c239898bde5adfd25340f'
p62
sa(dp63
g2
S'30111'
p64
sg4
S'1223'
p65
sg6
S'b65f797cfa2796d0cef4d0a27a74c915'
p66
sg8
S'xx81b03e6541dbd9f869128de55ec79a44'
p67
sg10
S'xx9e1d0ae5fd8b287be39f085dd4bf5df5'
p68
sg12
S'xx50ee5928a74e0e6f2e862766c3d509ab'
p69
sg14
S'Mozilla/5.0 (Linux; Android 5.0.2; SM-A7000 Build/LRX22G) AppleWebKit/537.36 (KHTML, like Gecko) Version/4.0 Chrome/37.0.0.0 Mobile MQQBrowser/6.8 TBS/036869 Safari/537.36 MicroMessenger/6.3.27.880 NetType/WIFI Language/zh_CN'
p70
sg16
S'13c414de5d8c239898bde5adfd25340f'
p71
sa(dp72
g2
S'30111'
p73
sg4
S'2451'
p74
sg6
S'b65f797cfa2796d0cef4d0a27a74c915'
p75
sg8
S'xx81b03e6541dbd9f869128de55ec79a44'
p76
sg10
S'xx9e1d0ae5fd8b287be39f085dd4bf5df5'
p77
sg12
S'xx50ee5928a74e0e6f2e862766c3d509ab'
p78
sg14
S'Mozilla/5.0 (Linux; Android 5.0.2; SM-A7000 Build/LRX22G) AppleWebKit/537.36 (KHTML, like Gecko) Version/4.0 Chrome/37.0.0.0 Mobile MQQBrowser/6.8 TBS/036869 Safari/537.36 MicroMessenger/6.3.27.880 NetType/WIFI Language/zh_CN'
p79
sg16
S'13c414de5d8c239898bde5adfd25340f'
p80
sa(dp81
g2
S'30111'
p82
sg4
S'2471'
p83
sg6
S'b65f797cfa2796d0cef4d0a27a74c915'
p84
sg8
S'xx81b03e6541dbd9f869128de55ec79a44'
p85
sg10
S'xx9e1d0ae5fd8b287be39f085dd4bf5df5'
p86
sg12
S'xx50ee5928a74e0e6f2e862766c3d509ab'
p87
sg14
S'Mozilla/5.0 (Linux; Android 5.0.2; SM-A7000 Build/LRX22G) AppleWebKit/537.36 (KHTML, like Gecko) Version/4.0 Chrome/37.0.0.0 Mobile MQQBrowser/6.8 TBS/036869 Safari/537.36 MicroMessenger/6.3.27.880 NetType/WIFI Language/zh_CN'
p88
sg16
S'13c414de5d8c239898bde5adfd25340f'
p89
sa(dp90
g2
S'30111'
p91
sg4
S'3405'
p92
sg6
S'b65f797cfa2796d0cef4d0a27a74c915'
p93
sg8
S'xx81b03e6541dbd9f869128de55ec79a44'
p94
sg10
S'xx9e1d0ae5fd8b287be39f085dd4bf5df5'
p95
sg12
S'xx50ee5928a74e0e6f2e862766c3d509ab'
p96
sg14
S'Mozilla/5.0 (Linux; Android 5.0.2; SM-A7000 Build/LRX22G) AppleWebKit/537.36 (KHTML, like Gecko) Version/4.0 Chrome/37.0.0.0 Mobile MQQBrowser/6.8 TBS/036869 Safari/537.36 MicroMessenger/6.3.27.880 NetType/WIFI Language/zh_CN'
p97
sg16
S'13c414de5d8c239898bde5adfd25340f'
p98
sa(dp99
g2
S'30111'
p100
sg4
S'3420'
p101
sg6
S'b65f797cfa2796d0cef4d0a27a74c915'
p102
sg8
S'xx81b03e6541dbd9f869128de55ec79a44'
p103
sg10
S'xx9e1d0ae5fd8b287be39f085dd4bf5df5'
p104
sg12
S'xx50ee5928a74e0e6f2e862766c3d509ab'
p105
sg14
S'Mozilla/5.0 (Linux; Android 5.0.2; SM-A7000 Build/LRX22G) AppleWebKit/537.36 (KHTML, like Gecko) Version/4.0 Chrome/37.0.0.0 Mobile MQQBrowser/6.8 TBS/036869 Safari/537.36 MicroMessenger/6.3.27.880 NetType/WIFI Language/zh_CN'
p106
sg16
S'13c414de5d8c239898bde5adfd25340f'
p107
sa.