(lp0
(dp1
S'user_id'
p2
S'36740'
p3
sS'data_id'
p4
S'4001'
p5
sS'ip'
p6
S'a530c99ee3c189ebd3ec57952fa695c9'
p7
sS'phone_B'
p8
S'xx67e4284e97e14bfcdde8e568ee7d919b'
p9
sS'phone_C'
p10
S'xx925dba0f8b75713ec8a9d03617f6cf98'
p11
sS'phone_A'
p12
S'xx50a561b977ae22f876a32a78fed5e555'
p13
sS'user_agent'
p14
S'Mozilla/5.0 (Linux; Android 5.0.2; ALE-TL00 Build/HuaweiALE-TL00) AppleWebKit/537.36 (KHTML, like Gecko) Version/4.0 Chrome/37.0.0.0 Mobile MQQBrowser/6.8 TBS/036869 Safari/537.36 MicroMessenger/6.3.27.880 NetType/cmnet Language/zh_CN'
p15
sS'ua'
p16
S'8fe30683bd6941b2208ab9a7761e4a46'
p17
sa(dp18
g2
S'36740'
p19
sg4
S'4019'
p20
sg6
S'a530c99ee3c189ebd3ec57952fa695c9'
p21
sg8
S'xx67e4284e97e14bfcdde8e568ee7d919b'
p22
sg10
S'xx925dba0f8b75713ec8a9d03617f6cf98'
p23
sg12
S'xx50a561b977ae22f876a32a78fed5e555'
p24
sg14
S'Mozilla/5.0 (Linux; Android 5.0.2; ALE-TL00 Build/HuaweiALE-TL00) AppleWebKit/537.36 (KHTML, like Gecko) Version/4.0 Chrome/37.0.0.0 Mobile MQQBrowser/6.8 TBS/036869 Safari/537.36 MicroMessenger/6.3.27.880 NetType/cmnet Language/zh_CN'
p25
sg16
S'8fe30683bd6941b2208ab9a7761e4a46'
p26
sa(dp27
g2
S'34447'
p28
sg4
S'6073'
p29
sg6
S'48312e8f910c971b4a57aeecaeed8c33'
p30
sg8
S'xxe90750c9415315698935fae8b4fb36c2'
p31
sg10
S'xxd97dd7eee73baae3a7dfdc15564df154'
p32
sg12
S'xx50a561b977ae22f876a32a78fed5e555'
p33
sg14
S'Mozilla/5.0 (Linux; Android 6.0; ALE-TL00 Build/HuaweiALE-TL00) AppleWebKit/537.36 (KHTML, like Gecko) Version/4.0 Chrome/37.0.0.0 Mobile MQQBrowser/6.8 TBS/036865 Safari/537.36 MicroMessenger/6.3.27.880 NetType/cmnet Language/zh_CN'
p34
sg16
S'b991487edfe0feae74cad2f3d53d0d49'
p35
sa(dp36
g2
S'38206'
p37
sg4
S'6114'
p38
sg6
S'245688a9adafc1b526204327d606e4d6'
p39
sg8
S'xxbb3650163a044a120a9157d0dd5b7ae4'
p40
sg10
S'xx925dba0f8b75713ec8a9d03617f6cf98'
p41
sg12
S'xx50a561b977ae22f876a32a78fed5e555'
p42
sg14
S'Mozilla/5.0 (Linux; Android 5.0.2; ALE-TL00 Build/HuaweiALE-TL00) AppleWebKit/537.36 (KHTML, like Gecko) Version/4.0 Chrome/37.0.0.0 Mobile MQQBrowser/6.8 TBS/036849 Safari/537.36 MicroMessenger/6.3.27.880 NetType/cmnet Language/zh_CN'
p43
sg16
S'd99c5a330c2b6211630bb88df75c0e23'
p44
sa(dp45
g2
S'38206'
p46
sg4
S'6131'
p47
sg6
S'245688a9adafc1b526204327d606e4d6'
p48
sg8
S'xxbb3650163a044a120a9157d0dd5b7ae4'
p49
sg10
S'xx925dba0f8b75713ec8a9d03617f6cf98'
p50
sg12
S'xx50a561b977ae22f876a32a78fed5e555'
p51
sg14
S'Mozilla/5.0 (Linux; Android 5.0.2; ALE-TL00 Build/HuaweiALE-TL00) AppleWebKit/537.36 (KHTML, like Gecko) Version/4.0 Chrome/37.0.0.0 Mobile MQQBrowser/6.8 TBS/036849 Safari/537.36 MicroMessenger/6.3.27.880 NetType/cmnet Language/zh_CN'
p52
sg16
S'd99c5a330c2b6211630bb88df75c0e23'
p53
sa.