(lp0
(dp1
S'user_id'
p2
S'10797'
p3
sS'data_id'
p4
S'868'
p5
sS'ip'
p6
S'6ce8737269ba6943ecf100ca2ae3939e'
p7
sS'phone_B'
p8
S'xx071f165acb5240d55afd3efe9a255baa'
p9
sS'phone_C'
p10
S'xx85007361e25b26c0f89d2c38483d1a71'
p11
sS'phone_A'
p12
S'xx5156e4d8bbc0da7dd8e97d4a7dbf80f3'
p13
sS'user_agent'
p14
S'Mozilla/5.0 (Linux; Android 4.4.4; N5209 Build/KTU84P) AppleWebKit/537.36 (KHTML, like Gecko) Version/4.0 Chrome/37.0.0.0 Mobile MQQBrowser/6.8 TBS/036869 Safari/537.36 MicroMessenger/6.3.27.880 NetType/WIFI Language/zh_CN'
p15
sS'ua'
p16
S'548ee87b4ede7bb8116aeb7e9d7b112d'
p17
sa(dp18
g2
S'10797'
p19
sg4
S'892'
p20
sg6
S'6ce8737269ba6943ecf100ca2ae3939e'
p21
sg8
S'xx071f165acb5240d55afd3efe9a255baa'
p22
sg10
S'xx85007361e25b26c0f89d2c38483d1a71'
p23
sg12
S'xx5156e4d8bbc0da7dd8e97d4a7dbf80f3'
p24
sg14
S'Mozilla/5.0 (Linux; Android 4.4.4; N5209 Build/KTU84P) AppleWebKit/537.36 (KHTML, like Gecko) Version/4.0 Chrome/37.0.0.0 Mobile MQQBrowser/6.8 TBS/036869 Safari/537.36 MicroMessenger/6.3.27.880 NetType/WIFI Language/zh_CN'
p25
sg16
S'548ee87b4ede7bb8116aeb7e9d7b112d'
p26
sa.