(lp0
(dp1
S'user_id'
p2
S'49479'
p3
sS'data_id'
p4
S'2976'
p5
sS'ip'
p6
S'fca8f5236f19ebce72d5785aa76f8758'
p7
sS'phone_B'
p8
S'xx009aceeecb600278b257b944bc336f38'
p9
sS'phone_C'
p10
S'xx8748096f9307c5d03b91d51e0578c56c'
p11
sS'phone_A'
p12
S'xx51294ba0451ad30bf50d5e8f3289e021'
p13
sS'user_agent'
p14
S'Mozilla/5.0 (Linux; Android 4.4.2; Che2-TL00M Build/HonorChe2-TL00M) AppleWebKit/537.36 (KHTML, like Gecko) Version/4.0 Chrome/37.0.0.0 Mobile MQQBrowser/6.8 TBS/036849 Safari/537.36 MicroMessenger/6.3.27.880 NetType/WIFI Language/zh_CN'
p15
sS'ua'
p16
S'c351db814a04e9571fa9800e91bfd035'
p17
sa(dp18
g2
S'49479'
p19
sg4
S'2993'
p20
sg6
S'fca8f5236f19ebce72d5785aa76f8758'
p21
sg8
S'xx009aceeecb600278b257b944bc336f38'
p22
sg10
S'xx8748096f9307c5d03b91d51e0578c56c'
p23
sg12
S'xx51294ba0451ad30bf50d5e8f3289e021'
p24
sg14
S'Mozilla/5.0 (Linux; Android 4.4.2; Che2-TL00M Build/HonorChe2-TL00M) AppleWebKit/537.36 (KHTML, like Gecko) Version/4.0 Chrome/37.0.0.0 Mobile MQQBrowser/6.8 TBS/036849 Safari/537.36 MicroMessenger/6.3.27.880 NetType/WIFI Language/zh_CN'
p25
sg16
S'c351db814a04e9571fa9800e91bfd035'
p26
sa.