(lp0
(dp1
S'user_id'
p2
S'49752'
p3
sS'data_id'
p4
S'1589'
p5
sS'ip'
p6
S'1d27a1f46e0fc3b5abf6b513b43cca5b'
p7
sS'phone_B'
p8
S'xx3eae4f24596375ecedbb6d6f00e5ef0d'
p9
sS'phone_C'
p10
S'xxa08ef96bf76b77805513e806b52f05f2'
p11
sS'phone_A'
p12
S'xx526f96b8426ac1f994e707de62d0887a'
p13
sS'user_agent'
p14
S'Mozilla/5.0 (Linux; Android 4.4.4; HUAWEI Y635-TL00 Build/HuaweiY635-TL00) AppleWebKit/537.36 (KHTML, like Gecko) Version/4.0 Chrome/37.0.0.0 Mobile MQQBrowser/6.8 TBS/036824 Safari/537.36 MicroMessenger/6.3.27.880 NetType/cmnet Language/zh_CN'
p15
sS'ua'
p16
S'5dc7b5262aae59a494556c8d3ba402a7'
p17
sa(dp18
g2
S'49752'
p19
sg4
S'1610'
p20
sg6
S'1d27a1f46e0fc3b5abf6b513b43cca5b'
p21
sg8
S'xx3eae4f24596375ecedbb6d6f00e5ef0d'
p22
sg10
S'xxa08ef96bf76b77805513e806b52f05f2'
p23
sg12
S'xx526f96b8426ac1f994e707de62d0887a'
p24
sg14
S'Mozilla/5.0 (Linux; Android 4.4.4; HUAWEI Y635-TL00 Build/HuaweiY635-TL00) AppleWebKit/537.36 (KHTML, like Gecko) Version/4.0 Chrome/37.0.0.0 Mobile MQQBrowser/6.8 TBS/036824 Safari/537.36 MicroMessenger/6.3.27.880 NetType/cmnet Language/zh_CN'
p25
sg16
S'5dc7b5262aae59a494556c8d3ba402a7'
p26
sa(dp27
g2
S'49752'
p28
sg4
S'1623'
p29
sg6
S'1d27a1f46e0fc3b5abf6b513b43cca5b'
p30
sg8
S'xx3eae4f24596375ecedbb6d6f00e5ef0d'
p31
sg10
S'xxa08ef96bf76b77805513e806b52f05f2'
p32
sg12
S'xx526f96b8426ac1f994e707de62d0887a'
p33
sg14
S'Mozilla/5.0 (Linux; Android 4.4.4; HUAWEI Y635-TL00 Build/HuaweiY635-TL00) AppleWebKit/537.36 (KHTML, like Gecko) Version/4.0 Chrome/37.0.0.0 Mobile MQQBrowser/6.8 TBS/036824 Safari/537.36 MicroMessenger/6.3.27.880 NetType/cmnet Language/zh_CN'
p34
sg16
S'5dc7b5262aae59a494556c8d3ba402a7'
p35
sa.