(lp0
(dp1
S'user_id'
p2
S'32957'
p3
sS'data_id'
p4
S'63'
p5
sS'ip'
p6
S'509368e6f61d2e7b8daf31e0cb12da6d'
p7
sS'phone_B'
p8
S'xxbfaf878acde63ff529ae6536e266b6ad'
p9
sS'phone_C'
p10
S'xx4b5e027968565e3d029c7ca543300625'
p11
sS'phone_A'
p12
S'xx5279d56c87e9aee40bc3f4b031c2315d'
p13
sS'user_agent'
p14
S'Mozilla/5.0 (Linux; Android 5.0.2; PLK-TL01H Build/HONORPLK-TL01H) AppleWebKit/537.36 (KHTML, like Gecko) Version/4.0 Chrome/37.0.0.0 Mobile MQQBrowser/6.8 TBS/036869 Safari/537.36 MicroMessenger/6.3.27.880 NetType/WIFI Language/zh_CN'
p15
sS'ua'
p16
S'3a01fa4161b694c611fc37d2ccc86ffa'
p17
sa(dp18
g2
S'32957'
p19
sg4
S'74'
p20
sg6
S'509368e6f61d2e7b8daf31e0cb12da6d'
p21
sg8
S'xxbfaf878acde63ff529ae6536e266b6ad'
p22
sg10
S'xx4b5e027968565e3d029c7ca543300625'
p23
sg12
S'xx5279d56c87e9aee40bc3f4b031c2315d'
p24
sg14
S'Mozilla/5.0 (Linux; Android 5.0.2; PLK-TL01H Build/HONORPLK-TL01H) AppleWebKit/537.36 (KHTML, like Gecko) Version/4.0 Chrome/37.0.0.0 Mobile MQQBrowser/6.8 TBS/036869 Safari/537.36 MicroMessenger/6.3.27.880 NetType/WIFI Language/zh_CN'
p25
sg16
S'3a01fa4161b694c611fc37d2ccc86ffa'
p26
sa(dp27
g2
S'32957'
p28
sg4
S'81'
p29
sg6
S'509368e6f61d2e7b8daf31e0cb12da6d'
p30
sg8
S'xxbfaf878acde63ff529ae6536e266b6ad'
p31
sg10
S'xx4b5e027968565e3d029c7ca543300625'
p32
sg12
S'xx5279d56c87e9aee40bc3f4b031c2315d'
p33
sg14
S'Mozilla/5.0 (Linux; Android 5.0.2; PLK-TL01H Build/HONORPLK-TL01H) AppleWebKit/537.36 (KHTML, like Gecko) Version/4.0 Chrome/37.0.0.0 Mobile MQQBrowser/6.8 TBS/036869 Safari/537.36 MicroMessenger/6.3.27.880 NetType/WIFI Language/zh_CN'
p34
sg16
S'3a01fa4161b694c611fc37d2ccc86ffa'
p35
sa(dp36
g2
S'10088'
p37
sg4
S'2148'
p38
sg6
S'b2fd0c0f5938fdc9d7ca80f4943fd215'
p39
sg8
S'xxf2c8acac30f6fc77bb3ef5b70bebf88b'
p40
sg10
S'xx56173981ee3abe7f88e74c71a7a2ce7f'
p41
sg12
S'xx5279d56c87e9aee40bc3f4b031c2315d'
p42
sg14
S'Mozilla/5.0 (Linux; Android 6.0; PLK-TL01H Build/HONORPLK-TL01H) AppleWebKit/537.36 (KHTML, like Gecko) Version/4.0 Chrome/37.0.0.0 Mobile MQQBrowser/6.8 TBS/036862 Safari/537.36 MicroMessenger/6.3.27.880 NetType/WIFI Language/zh_CN'
p43
sg16
S'ac037caec67a2134df06eddfb252402a'
p44
sa(dp45
g2
S'10088'
p46
sg4
S'2154'
p47
sg6
S'b2fd0c0f5938fdc9d7ca80f4943fd215'
p48
sg8
S'xxf2c8acac30f6fc77bb3ef5b70bebf88b'
p49
sg10
S'xx56173981ee3abe7f88e74c71a7a2ce7f'
p50
sg12
S'xx5279d56c87e9aee40bc3f4b031c2315d'
p51
sg14
S'Mozilla/5.0 (Linux; Android 6.0; PLK-TL01H Build/HONORPLK-TL01H) AppleWebKit/537.36 (KHTML, like Gecko) Version/4.0 Chrome/37.0.0.0 Mobile MQQBrowser/6.8 TBS/036862 Safari/537.36 MicroMessenger/6.3.27.880 NetType/WIFI Language/zh_CN'
p52
sg16
S'ac037caec67a2134df06eddfb252402a'
p53
sa(dp54
g2
S'10088'
p55
sg4
S'2161'
p56
sg6
S'b2fd0c0f5938fdc9d7ca80f4943fd215'
p57
sg8
S'xxf2c8acac30f6fc77bb3ef5b70bebf88b'
p58
sg10
S'xx56173981ee3abe7f88e74c71a7a2ce7f'
p59
sg12
S'xx5279d56c87e9aee40bc3f4b031c2315d'
p60
sg14
S'Mozilla/5.0 (Linux; Android 6.0; PLK-TL01H Build/HONORPLK-TL01H) AppleWebKit/537.36 (KHTML, like Gecko) Version/4.0 Chrome/37.0.0.0 Mobile MQQBrowser/6.8 TBS/036862 Safari/537.36 MicroMessenger/6.3.27.880 NetType/WIFI Language/zh_CN'
p61
sg16
S'ac037caec67a2134df06eddfb252402a'
p62
sa(dp63
g2
S'10088'
p64
sg4
S'2172'
p65
sg6
S'b2fd0c0f5938fdc9d7ca80f4943fd215'
p66
sg8
S'xxf2c8acac30f6fc77bb3ef5b70bebf88b'
p67
sg10
S'xx56173981ee3abe7f88e74c71a7a2ce7f'
p68
sg12
S'xx5279d56c87e9aee40bc3f4b031c2315d'
p69
sg14
S'Mozilla/5.0 (Linux; Android 6.0; PLK-TL01H Build/HONORPLK-TL01H) AppleWebKit/537.36 (KHTML, like Gecko) Version/4.0 Chrome/37.0.0.0 Mobile MQQBrowser/6.8 TBS/036862 Safari/537.36 MicroMessenger/6.3.27.880 NetType/WIFI Language/zh_CN'
p70
sg16
S'ac037caec67a2134df06eddfb252402a'
p71
sa(dp72
g2
S'37278'
p73
sg4
S'2409'
p74
sg6
S'2609113f01d13a3fe4a13efca5c3f7f6'
p75
sg8
S'xxb05773c385fe0916891e781c83c59de1'
p76
sg10
S'xx56173981ee3abe7f88e74c71a7a2ce7f'
p77
sg12
S'xx5279d56c87e9aee40bc3f4b031c2315d'
p78
sg14
S'Mozilla/5.0 (Linux; Android 6.0; PLK-TL01H Build/HONORPLK-TL01H) AppleWebKit/537.36 (KHTML, like Gecko) Version/4.0 Chrome/37.0.0.0 Mobile MQQBrowser/6.8 TBS/036824 Safari/537.36 MicroMessenger/6.3.27.880 NetType/cmnet Language/zh_CN'
p79
sg16
S'ad7a9a7a74ef6ef72bb03894f901daf2'
p80
sa(dp81
g2
S'37278'
p82
sg4
S'2432'
p83
sg6
S'2609113f01d13a3fe4a13efca5c3f7f6'
p84
sg8
S'xxb05773c385fe0916891e781c83c59de1'
p85
sg10
S'xx56173981ee3abe7f88e74c71a7a2ce7f'
p86
sg12
S'xx5279d56c87e9aee40bc3f4b031c2315d'
p87
sg14
S'Mozilla/5.0 (Linux; Android 6.0; PLK-TL01H Build/HONORPLK-TL01H) AppleWebKit/537.36 (KHTML, like Gecko) Version/4.0 Chrome/37.0.0.0 Mobile MQQBrowser/6.8 TBS/036824 Safari/537.36 MicroMessenger/6.3.27.880 NetType/cmnet Language/zh_CN'
p88
sg16
S'ad7a9a7a74ef6ef72bb03894f901daf2'
p89
sa(dp90
g2
S'19863'
p91
sg4
S'3867'
p92
sg6
S'29cc6743ab2adf5c1250c3616ece7f00'
p93
sg8
S'xxba091d4d09bba37274fb597e272ebeb8'
p94
sg10
S'xx56173981ee3abe7f88e74c71a7a2ce7f'
p95
sg12
S'xx5279d56c87e9aee40bc3f4b031c2315d'
p96
sg14
S'Mozilla/5.0 (Linux; Android 6.0; PLK-TL01H Build/HONORPLK-TL01H) AppleWebKit/537.36 (KHTML, like Gecko) Version/4.0 Chrome/37.0.0.0 Mobile MQQBrowser/6.8 TBS/036869 Safari/537.36 MicroMessenger/6.3.27.880 NetType/cmnet Language/zh_CN'
p97
sg16
S'8694e159a2bbdf1ace752afa66c710d9'
p98
sa(dp99
g2
S'49777'
p100
sg4
S'3884'
p101
sg6
S'd773064ae47a71048d9bc393386e8b53'
p102
sg8
S'xx894eb3ccb928792e60820d7f29b8a0d1'
p103
sg10
S'xx56173981ee3abe7f88e74c71a7a2ce7f'
p104
sg12
S'xx5279d56c87e9aee40bc3f4b031c2315d'
p105
sg14
S'Mozilla/5.0 (Linux; Android 6.0; PLK-TL01H Build/HONORPLK-TL01H) AppleWebKit/537.36 (KHTML, like Gecko) Version/4.0 Chrome/37.0.0.0 Mobile MQQBrowser/6.8 TBS/036849 Safari/537.36 MicroMessenger/6.3.27.880 NetType/cmnet Language/zh_CN'
p106
sg16
S'15562e9993fd2fc572a7be58e6f11ae4'
p107
sa(dp108
g2
S'19863'
p109
sg4
S'3886'
p110
sg6
S'29cc6743ab2adf5c1250c3616ece7f00'
p111
sg8
S'xxba091d4d09bba37274fb597e272ebeb8'
p112
sg10
S'xx56173981ee3abe7f88e74c71a7a2ce7f'
p113
sg12
S'xx5279d56c87e9aee40bc3f4b031c2315d'
p114
sg14
S'Mozilla/5.0 (Linux; Android 6.0; PLK-TL01H Build/HONORPLK-TL01H) AppleWebKit/537.36 (KHTML, like Gecko) Version/4.0 Chrome/37.0.0.0 Mobile MQQBrowser/6.8 TBS/036869 Safari/537.36 MicroMessenger/6.3.27.880 NetType/cmnet Language/zh_CN'
p115
sg16
S'8694e159a2bbdf1ace752afa66c710d9'
p116
sa(dp117
g2
S'49777'
p118
sg4
S'3907'
p119
sg6
S'd773064ae47a71048d9bc393386e8b53'
p120
sg8
S'xx894eb3ccb928792e60820d7f29b8a0d1'
p121
sg10
S'xx56173981ee3abe7f88e74c71a7a2ce7f'
p122
sg12
S'xx5279d56c87e9aee40bc3f4b031c2315d'
p123
sg14
S'Mozilla/5.0 (Linux; Android 6.0; PLK-TL01H Build/HONORPLK-TL01H) AppleWebKit/537.36 (KHTML, like Gecko) Version/4.0 Chrome/37.0.0.0 Mobile MQQBrowser/6.8 TBS/036849 Safari/537.36 MicroMessenger/6.3.27.880 NetType/cmnet Language/zh_CN'
p124
sg16
S'15562e9993fd2fc572a7be58e6f11ae4'
p125
sa(dp126
g2
S'49849'
p127
sg4
S'8223'
p128
sg6
S'28bc158eeac9bb64d09d5b0f9e20772a'
p129
sg8
S'xx894eb3ccb928792e60820d7f29b8a0d1'
p130
sg10
S'xx56173981ee3abe7f88e74c71a7a2ce7f'
p131
sg12
S'xx5279d56c87e9aee40bc3f4b031c2315d'
p132
sg14
S'Mozilla/5.0 (Linux; Android 6.0; PLK-TL01H Build/HONORPLK-TL01H) AppleWebKit/537.36 (KHTML, like Gecko) Version/4.0 Chrome/37.0.0.0 Mobile MQQBrowser/6.8 TBS/036849 Safari/537.36 MicroMessenger/6.3.27.880 NetType/cmnet Language/zh_CN'
p133
sg16
S'15562e9993fd2fc572a7be58e6f11ae4'
p134
sa(dp135
g2
S'49849'
p136
sg4
S'8251'
p137
sg6
S'28bc158eeac9bb64d09d5b0f9e20772a'
p138
sg8
S'xx894eb3ccb928792e60820d7f29b8a0d1'
p139
sg10
S'xx56173981ee3abe7f88e74c71a7a2ce7f'
p140
sg12
S'xx5279d56c87e9aee40bc3f4b031c2315d'
p141
sg14
S'Mozilla/5.0 (Linux; Android 6.0; PLK-TL01H Build/HONORPLK-TL01H) AppleWebKit/537.36 (KHTML, like Gecko) Version/4.0 Chrome/37.0.0.0 Mobile MQQBrowser/6.8 TBS/036849 Safari/537.36 MicroMessenger/6.3.27.880 NetType/cmnet Language/zh_CN'
p142
sg16
S'15562e9993fd2fc572a7be58e6f11ae4'
p143
sa.