(lp0
(dp1
S'user_id'
p2
S'16050'
p3
sS'data_id'
p4
S'1194'
p5
sS'ip'
p6
S'e8c23251e92144d32757cb9de0d1c076'
p7
sS'phone_B'
p8
S'xxc49250383fb0f38a422e3977789380e7'
p9
sS'phone_C'
p10
S'xx179f2fd6e39560d98de9df392ed32b20'
p11
sS'phone_A'
p12
S'xx53906177329d9344445f27d19d26d6c6'
p13
sS'user_agent'
p14
S'Mozilla/5.0 (Linux; Android 5.1.1; R7Plusm Build/LMY47V) AppleWebKit/537.36 (KHTML, like Gecko) Version/4.0 Chrome/37.0.0.0 Mobile MQQBrowser/6.8 TBS/036869 Safari/537.36 MicroMessenger/6.3.27.880 NetType/WIFI Language/zh_CN'
p15
sS'ua'
p16
S'a5ef2b72781a40d6a6d9087e4891a1f6'
p17
sa(dp18
g2
S'16050'
p19
sg4
S'1211'
p20
sg6
S'e8c23251e92144d32757cb9de0d1c076'
p21
sg8
S'xxc49250383fb0f38a422e3977789380e7'
p22
sg10
S'xx179f2fd6e39560d98de9df392ed32b20'
p23
sg12
S'xx53906177329d9344445f27d19d26d6c6'
p24
sg14
S'Mozilla/5.0 (Linux; Android 5.1.1; R7Plusm Build/LMY47V) AppleWebKit/537.36 (KHTML, like Gecko) Version/4.0 Chrome/37.0.0.0 Mobile MQQBrowser/6.8 TBS/036869 Safari/537.36 MicroMessenger/6.3.27.880 NetType/WIFI Language/zh_CN'
p25
sg16
S'a5ef2b72781a40d6a6d9087e4891a1f6'
p26
sa(dp27
g2
S'16050'
p28
sg4
S'1226'
p29
sg6
S'e8c23251e92144d32757cb9de0d1c076'
p30
sg8
S'xxc49250383fb0f38a422e3977789380e7'
p31
sg10
S'xx179f2fd6e39560d98de9df392ed32b20'
p32
sg12
S'xx53906177329d9344445f27d19d26d6c6'
p33
sg14
S'Mozilla/5.0 (Linux; Android 5.1.1; R7Plusm Build/LMY47V) AppleWebKit/537.36 (KHTML, like Gecko) Version/4.0 Chrome/37.0.0.0 Mobile MQQBrowser/6.8 TBS/036869 Safari/537.36 MicroMessenger/6.3.27.880 NetType/WIFI Language/zh_CN'
p34
sg16
S'a5ef2b72781a40d6a6d9087e4891a1f6'
p35
sa(dp36
g2
S'16050'
p37
sg4
S'1901'
p38
sg6
S'e8c23251e92144d32757cb9de0d1c076'
p39
sg8
S'xxc49250383fb0f38a422e3977789380e7'
p40
sg10
S'xx179f2fd6e39560d98de9df392ed32b20'
p41
sg12
S'xx53906177329d9344445f27d19d26d6c6'
p42
sg14
S'Mozilla/5.0 (Linux; Android 5.1.1; R7Plusm Build/LMY47V) AppleWebKit/537.36 (KHTML, like Gecko) Version/4.0 Chrome/37.0.0.0 Mobile MQQBrowser/6.8 TBS/036869 Safari/537.36 MicroMessenger/6.3.27.880 NetType/WIFI Language/zh_CN'
p43
sg16
S'a5ef2b72781a40d6a6d9087e4891a1f6'
p44
sa(dp45
g2
S'16050'
p46
sg4
S'2236'
p47
sg6
S'e8c23251e92144d32757cb9de0d1c076'
p48
sg8
S'xxc49250383fb0f38a422e3977789380e7'
p49
sg10
S'xx179f2fd6e39560d98de9df392ed32b20'
p50
sg12
S'xx53906177329d9344445f27d19d26d6c6'
p51
sg14
S'Mozilla/5.0 (Linux; Android 5.1.1; R7Plusm Build/LMY47V) AppleWebKit/537.36 (KHTML, like Gecko) Version/4.0 Chrome/37.0.0.0 Mobile MQQBrowser/6.8 TBS/036869 Safari/537.36 MicroMessenger/6.3.27.880 NetType/WIFI Language/zh_CN'
p52
sg16
S'a5ef2b72781a40d6a6d9087e4891a1f6'
p53
sa(dp54
g2
S'16050'
p55
sg4
S'2280'
p56
sg6
S'e8c23251e92144d32757cb9de0d1c076'
p57
sg8
S'xxc49250383fb0f38a422e3977789380e7'
p58
sg10
S'xx179f2fd6e39560d98de9df392ed32b20'
p59
sg12
S'xx53906177329d9344445f27d19d26d6c6'
p60
sg14
S'Mozilla/5.0 (Linux; Android 5.1.1; R7Plusm Build/LMY47V) AppleWebKit/537.36 (KHTML, like Gecko) Version/4.0 Chrome/37.0.0.0 Mobile MQQBrowser/6.8 TBS/036869 Safari/537.36 MicroMessenger/6.3.27.880 NetType/WIFI Language/zh_CN'
p61
sg16
S'a5ef2b72781a40d6a6d9087e4891a1f6'
p62
sa(dp63
g2
S'16050'
p64
sg4
S'2430'
p65
sg6
S'e8c23251e92144d32757cb9de0d1c076'
p66
sg8
S'xxc49250383fb0f38a422e3977789380e7'
p67
sg10
S'xx179f2fd6e39560d98de9df392ed32b20'
p68
sg12
S'xx53906177329d9344445f27d19d26d6c6'
p69
sg14
S'Mozilla/5.0 (Linux; Android 5.1.1; R7Plusm Build/LMY47V) AppleWebKit/537.36 (KHTML, like Gecko) Version/4.0 Chrome/37.0.0.0 Mobile MQQBrowser/6.8 TBS/036869 Safari/537.36 MicroMessenger/6.3.27.880 NetType/WIFI Language/zh_CN'
p70
sg16
S'a5ef2b72781a40d6a6d9087e4891a1f6'
p71
sa(dp72
g2
S'16050'
p73
sg4
S'2521'
p74
sg6
S'e8c23251e92144d32757cb9de0d1c076'
p75
sg8
S'xxc49250383fb0f38a422e3977789380e7'
p76
sg10
S'xx179f2fd6e39560d98de9df392ed32b20'
p77
sg12
S'xx53906177329d9344445f27d19d26d6c6'
p78
sg14
S'Mozilla/5.0 (Linux; Android 5.1.1; R7Plusm Build/LMY47V) AppleWebKit/537.36 (KHTML, like Gecko) Version/4.0 Chrome/37.0.0.0 Mobile MQQBrowser/6.8 TBS/036869 Safari/537.36 MicroMessenger/6.3.27.880 NetType/WIFI Language/zh_CN'
p79
sg16
S'a5ef2b72781a40d6a6d9087e4891a1f6'
p80
sa(dp81
g2
S'16050'
p82
sg4
S'2546'
p83
sg6
S'e8c23251e92144d32757cb9de0d1c076'
p84
sg8
S'xxc49250383fb0f38a422e3977789380e7'
p85
sg10
S'xx179f2fd6e39560d98de9df392ed32b20'
p86
sg12
S'xx53906177329d9344445f27d19d26d6c6'
p87
sg14
S'Mozilla/5.0 (Linux; Android 5.1.1; R7Plusm Build/LMY47V) AppleWebKit/537.36 (KHTML, like Gecko) Version/4.0 Chrome/37.0.0.0 Mobile MQQBrowser/6.8 TBS/036869 Safari/537.36 MicroMessenger/6.3.27.880 NetType/WIFI Language/zh_CN'
p88
sg16
S'a5ef2b72781a40d6a6d9087e4891a1f6'
p89
sa(dp90
g2
S'16050'
p91
sg4
S'2570'
p92
sg6
S'e8c23251e92144d32757cb9de0d1c076'
p93
sg8
S'xxc49250383fb0f38a422e3977789380e7'
p94
sg10
S'xx179f2fd6e39560d98de9df392ed32b20'
p95
sg12
S'xx53906177329d9344445f27d19d26d6c6'
p96
sg14
S'Mozilla/5.0 (Linux; Android 5.1.1; R7Plusm Build/LMY47V) AppleWebKit/537.36 (KHTML, like Gecko) Version/4.0 Chrome/37.0.0.0 Mobile MQQBrowser/6.8 TBS/036869 Safari/537.36 MicroMessenger/6.3.27.880 NetType/WIFI Language/zh_CN'
p97
sg16
S'a5ef2b72781a40d6a6d9087e4891a1f6'
p98
sa(dp99
g2
S'16050'
p100
sg4
S'2646'
p101
sg6
S'e8c23251e92144d32757cb9de0d1c076'
p102
sg8
S'xxc49250383fb0f38a422e3977789380e7'
p103
sg10
S'xx179f2fd6e39560d98de9df392ed32b20'
p104
sg12
S'xx53906177329d9344445f27d19d26d6c6'
p105
sg14
S'Mozilla/5.0 (Linux; Android 5.1.1; R7Plusm Build/LMY47V) AppleWebKit/537.36 (KHTML, like Gecko) Version/4.0 Chrome/37.0.0.0 Mobile MQQBrowser/6.8 TBS/036869 Safari/537.36 MicroMessenger/6.3.27.880 NetType/WIFI Language/zh_CN'
p106
sg16
S'a5ef2b72781a40d6a6d9087e4891a1f6'
p107
sa(dp108
g2
S'16050'
p109
sg4
S'2901'
p110
sg6
S'e8c23251e92144d32757cb9de0d1c076'
p111
sg8
S'xxc49250383fb0f38a422e3977789380e7'
p112
sg10
S'xx179f2fd6e39560d98de9df392ed32b20'
p113
sg12
S'xx53906177329d9344445f27d19d26d6c6'
p114
sg14
S'Mozilla/5.0 (Linux; Android 5.1.1; R7Plusm Build/LMY47V) AppleWebKit/537.36 (KHTML, like Gecko) Version/4.0 Chrome/37.0.0.0 Mobile MQQBrowser/6.8 TBS/036869 Safari/537.36 MicroMessenger/6.3.27.880 NetType/WIFI Language/zh_CN'
p115
sg16
S'a5ef2b72781a40d6a6d9087e4891a1f6'
p116
sa(dp117
g2
S'16050'
p118
sg4
S'2935'
p119
sg6
S'e8c23251e92144d32757cb9de0d1c076'
p120
sg8
S'xxc49250383fb0f38a422e3977789380e7'
p121
sg10
S'xx179f2fd6e39560d98de9df392ed32b20'
p122
sg12
S'xx53906177329d9344445f27d19d26d6c6'
p123
sg14
S'Mozilla/5.0 (Linux; Android 5.1.1; R7Plusm Build/LMY47V) AppleWebKit/537.36 (KHTML, like Gecko) Version/4.0 Chrome/37.0.0.0 Mobile MQQBrowser/6.8 TBS/036869 Safari/537.36 MicroMessenger/6.3.27.880 NetType/WIFI Language/zh_CN'
p124
sg16
S'a5ef2b72781a40d6a6d9087e4891a1f6'
p125
sa(dp126
g2
S'16050'
p127
sg4
S'2965'
p128
sg6
S'e8c23251e92144d32757cb9de0d1c076'
p129
sg8
S'xxc49250383fb0f38a422e3977789380e7'
p130
sg10
S'xx179f2fd6e39560d98de9df392ed32b20'
p131
sg12
S'xx53906177329d9344445f27d19d26d6c6'
p132
sg14
S'Mozilla/5.0 (Linux; Android 5.1.1; R7Plusm Build/LMY47V) AppleWebKit/537.36 (KHTML, like Gecko) Version/4.0 Chrome/37.0.0.0 Mobile MQQBrowser/6.8 TBS/036869 Safari/537.36 MicroMessenger/6.3.27.880 NetType/WIFI Language/zh_CN'
p133
sg16
S'a5ef2b72781a40d6a6d9087e4891a1f6'
p134
sa(dp135
g2
S'16050'
p136
sg4
S'3144'
p137
sg6
S'e8c23251e92144d32757cb9de0d1c076'
p138
sg8
S'xxc49250383fb0f38a422e3977789380e7'
p139
sg10
S'xx179f2fd6e39560d98de9df392ed32b20'
p140
sg12
S'xx53906177329d9344445f27d19d26d6c6'
p141
sg14
S'Mozilla/5.0 (Linux; Android 5.1.1; R7Plusm Build/LMY47V) AppleWebKit/537.36 (KHTML, like Gecko) Version/4.0 Chrome/37.0.0.0 Mobile MQQBrowser/6.8 TBS/036869 Safari/537.36 MicroMessenger/6.3.27.880 NetType/WIFI Language/zh_CN'
p142
sg16
S'a5ef2b72781a40d6a6d9087e4891a1f6'
p143
sa(dp144
g2
S'16050'
p145
sg4
S'3157'
p146
sg6
S'e8c23251e92144d32757cb9de0d1c076'
p147
sg8
S'xxc49250383fb0f38a422e3977789380e7'
p148
sg10
S'xx179f2fd6e39560d98de9df392ed32b20'
p149
sg12
S'xx53906177329d9344445f27d19d26d6c6'
p150
sg14
S'Mozilla/5.0 (Linux; Android 5.1.1; R7Plusm Build/LMY47V) AppleWebKit/537.36 (KHTML, like Gecko) Version/4.0 Chrome/37.0.0.0 Mobile MQQBrowser/6.8 TBS/036869 Safari/537.36 MicroMessenger/6.3.27.880 NetType/WIFI Language/zh_CN'
p151
sg16
S'a5ef2b72781a40d6a6d9087e4891a1f6'
p152
sa(dp153
g2
S'16050'
p154
sg4
S'3310'
p155
sg6
S'e8c23251e92144d32757cb9de0d1c076'
p156
sg8
S'xxc49250383fb0f38a422e3977789380e7'
p157
sg10
S'xx179f2fd6e39560d98de9df392ed32b20'
p158
sg12
S'xx53906177329d9344445f27d19d26d6c6'
p159
sg14
S'Mozilla/5.0 (Linux; Android 5.1.1; R7Plusm Build/LMY47V) AppleWebKit/537.36 (KHTML, like Gecko) Version/4.0 Chrome/37.0.0.0 Mobile MQQBrowser/6.8 TBS/036869 Safari/537.36 MicroMessenger/6.3.27.880 NetType/WIFI Language/zh_CN'
p160
sg16
S'a5ef2b72781a40d6a6d9087e4891a1f6'
p161
sa(dp162
g2
S'16050'
p163
sg4
S'3367'
p164
sg6
S'e8c23251e92144d32757cb9de0d1c076'
p165
sg8
S'xxc49250383fb0f38a422e3977789380e7'
p166
sg10
S'xx179f2fd6e39560d98de9df392ed32b20'
p167
sg12
S'xx53906177329d9344445f27d19d26d6c6'
p168
sg14
S'Mozilla/5.0 (Linux; Android 5.1.1; R7Plusm Build/LMY47V) AppleWebKit/537.36 (KHTML, like Gecko) Version/4.0 Chrome/37.0.0.0 Mobile MQQBrowser/6.8 TBS/036869 Safari/537.36 MicroMessenger/6.3.27.880 NetType/WIFI Language/zh_CN'
p169
sg16
S'a5ef2b72781a40d6a6d9087e4891a1f6'
p170
sa(dp171
g2
S'16050'
p172
sg4
S'3506'
p173
sg6
S'e8c23251e92144d32757cb9de0d1c076'
p174
sg8
S'xxc49250383fb0f38a422e3977789380e7'
p175
sg10
S'xx179f2fd6e39560d98de9df392ed32b20'
p176
sg12
S'xx53906177329d9344445f27d19d26d6c6'
p177
sg14
S'Mozilla/5.0 (Linux; Android 5.1.1; R7Plusm Build/LMY47V) AppleWebKit/537.36 (KHTML, like Gecko) Version/4.0 Chrome/37.0.0.0 Mobile MQQBrowser/6.8 TBS/036869 Safari/537.36 MicroMessenger/6.3.27.880 NetType/WIFI Language/zh_CN'
p178
sg16
S'a5ef2b72781a40d6a6d9087e4891a1f6'
p179
sa(dp180
g2
S'16050'
p181
sg4
S'3546'
p182
sg6
S'e8c23251e92144d32757cb9de0d1c076'
p183
sg8
S'xxc49250383fb0f38a422e3977789380e7'
p184
sg10
S'xx179f2fd6e39560d98de9df392ed32b20'
p185
sg12
S'xx53906177329d9344445f27d19d26d6c6'
p186
sg14
S'Mozilla/5.0 (Linux; Android 5.1.1; R7Plusm Build/LMY47V) AppleWebKit/537.36 (KHTML, like Gecko) Version/4.0 Chrome/37.0.0.0 Mobile MQQBrowser/6.8 TBS/036869 Safari/537.36 MicroMessenger/6.3.27.880 NetType/WIFI Language/zh_CN'
p187
sg16
S'a5ef2b72781a40d6a6d9087e4891a1f6'
p188
sa(dp189
g2
S'16050'
p190
sg4
S'3568'
p191
sg6
S'e8c23251e92144d32757cb9de0d1c076'
p192
sg8
S'xxc49250383fb0f38a422e3977789380e7'
p193
sg10
S'xx179f2fd6e39560d98de9df392ed32b20'
p194
sg12
S'xx53906177329d9344445f27d19d26d6c6'
p195
sg14
S'Mozilla/5.0 (Linux; Android 5.1.1; R7Plusm Build/LMY47V) AppleWebKit/537.36 (KHTML, like Gecko) Version/4.0 Chrome/37.0.0.0 Mobile MQQBrowser/6.8 TBS/036869 Safari/537.36 MicroMessenger/6.3.27.880 NetType/WIFI Language/zh_CN'
p196
sg16
S'a5ef2b72781a40d6a6d9087e4891a1f6'
p197
sa(dp198
g2
S'16050'
p199
sg4
S'3584'
p200
sg6
S'e8c23251e92144d32757cb9de0d1c076'
p201
sg8
S'xxc49250383fb0f38a422e3977789380e7'
p202
sg10
S'xx179f2fd6e39560d98de9df392ed32b20'
p203
sg12
S'xx53906177329d9344445f27d19d26d6c6'
p204
sg14
S'Mozilla/5.0 (Linux; Android 5.1.1; R7Plusm Build/LMY47V) AppleWebKit/537.36 (KHTML, like Gecko) Version/4.0 Chrome/37.0.0.0 Mobile MQQBrowser/6.8 TBS/036869 Safari/537.36 MicroMessenger/6.3.27.880 NetType/WIFI Language/zh_CN'
p205
sg16
S'a5ef2b72781a40d6a6d9087e4891a1f6'
p206
sa(dp207
g2
S'16050'
p208
sg4
S'3672'
p209
sg6
S'e8c23251e92144d32757cb9de0d1c076'
p210
sg8
S'xxc49250383fb0f38a422e3977789380e7'
p211
sg10
S'xx179f2fd6e39560d98de9df392ed32b20'
p212
sg12
S'xx53906177329d9344445f27d19d26d6c6'
p213
sg14
S'Mozilla/5.0 (Linux; Android 5.1.1; R7Plusm Build/LMY47V) AppleWebKit/537.36 (KHTML, like Gecko) Version/4.0 Chrome/37.0.0.0 Mobile MQQBrowser/6.8 TBS/036869 Safari/537.36 MicroMessenger/6.3.27.880 NetType/WIFI Language/zh_CN'
p214
sg16
S'a5ef2b72781a40d6a6d9087e4891a1f6'
p215
sa(dp216
g2
S'16050'
p217
sg4
S'3748'
p218
sg6
S'e8c23251e92144d32757cb9de0d1c076'
p219
sg8
S'xxc49250383fb0f38a422e3977789380e7'
p220
sg10
S'xx179f2fd6e39560d98de9df392ed32b20'
p221
sg12
S'xx53906177329d9344445f27d19d26d6c6'
p222
sg14
S'Mozilla/5.0 (Linux; Android 5.1.1; R7Plusm Build/LMY47V) AppleWebKit/537.36 (KHTML, like Gecko) Version/4.0 Chrome/37.0.0.0 Mobile MQQBrowser/6.8 TBS/036869 Safari/537.36 MicroMessenger/6.3.27.880 NetType/WIFI Language/zh_CN'
p223
sg16
S'a5ef2b72781a40d6a6d9087e4891a1f6'
p224
sa(dp225
g2
S'16050'
p226
sg4
S'3766'
p227
sg6
S'e8c23251e92144d32757cb9de0d1c076'
p228
sg8
S'xxc49250383fb0f38a422e3977789380e7'
p229
sg10
S'xx179f2fd6e39560d98de9df392ed32b20'
p230
sg12
S'xx53906177329d9344445f27d19d26d6c6'
p231
sg14
S'Mozilla/5.0 (Linux; Android 5.1.1; R7Plusm Build/LMY47V) AppleWebKit/537.36 (KHTML, like Gecko) Version/4.0 Chrome/37.0.0.0 Mobile MQQBrowser/6.8 TBS/036869 Safari/537.36 MicroMessenger/6.3.27.880 NetType/WIFI Language/zh_CN'
p232
sg16
S'a5ef2b72781a40d6a6d9087e4891a1f6'
p233
sa(dp234
g2
S'16050'
p235
sg4
S'4178'
p236
sg6
S'e8c23251e92144d32757cb9de0d1c076'
p237
sg8
S'xxc49250383fb0f38a422e3977789380e7'
p238
sg10
S'xx179f2fd6e39560d98de9df392ed32b20'
p239
sg12
S'xx53906177329d9344445f27d19d26d6c6'
p240
sg14
S'Mozilla/5.0 (Linux; Android 5.1.1; R7Plusm Build/LMY47V) AppleWebKit/537.36 (KHTML, like Gecko) Version/4.0 Chrome/37.0.0.0 Mobile MQQBrowser/6.8 TBS/036869 Safari/537.36 MicroMessenger/6.3.27.880 NetType/WIFI Language/zh_CN'
p241
sg16
S'a5ef2b72781a40d6a6d9087e4891a1f6'
p242
sa(dp243
g2
S'16050'
p244
sg4
S'4186'
p245
sg6
S'e8c23251e92144d32757cb9de0d1c076'
p246
sg8
S'xxc49250383fb0f38a422e3977789380e7'
p247
sg10
S'xx179f2fd6e39560d98de9df392ed32b20'
p248
sg12
S'xx53906177329d9344445f27d19d26d6c6'
p249
sg14
S'Mozilla/5.0 (Linux; Android 5.1.1; R7Plusm Build/LMY47V) AppleWebKit/537.36 (KHTML, like Gecko) Version/4.0 Chrome/37.0.0.0 Mobile MQQBrowser/6.8 TBS/036869 Safari/537.36 MicroMessenger/6.3.27.880 NetType/WIFI Language/zh_CN'
p250
sg16
S'a5ef2b72781a40d6a6d9087e4891a1f6'
p251
sa(dp252
g2
S'16050'
p253
sg4
S'4423'
p254
sg6
S'e8c23251e92144d32757cb9de0d1c076'
p255
sg8
S'xxc49250383fb0f38a422e3977789380e7'
p256
sg10
S'xx179f2fd6e39560d98de9df392ed32b20'
p257
sg12
S'xx53906177329d9344445f27d19d26d6c6'
p258
sg14
S'Mozilla/5.0 (Linux; Android 5.1.1; R7Plusm Build/LMY47V) AppleWebKit/537.36 (KHTML, like Gecko) Version/4.0 Chrome/37.0.0.0 Mobile MQQBrowser/6.8 TBS/036869 Safari/537.36 MicroMessenger/6.3.27.880 NetType/WIFI Language/zh_CN'
p259
sg16
S'a5ef2b72781a40d6a6d9087e4891a1f6'
p260
sa(dp261
g2
S'16050'
p262
sg4
S'4630'
p263
sg6
S'e8c23251e92144d32757cb9de0d1c076'
p264
sg8
S'xxc49250383fb0f38a422e3977789380e7'
p265
sg10
S'xx179f2fd6e39560d98de9df392ed32b20'
p266
sg12
S'xx53906177329d9344445f27d19d26d6c6'
p267
sg14
S'Mozilla/5.0 (Linux; Android 5.1.1; R7Plusm Build/LMY47V) AppleWebKit/537.36 (KHTML, like Gecko) Version/4.0 Chrome/37.0.0.0 Mobile MQQBrowser/6.8 TBS/036869 Safari/537.36 MicroMessenger/6.3.27.880 NetType/WIFI Language/zh_CN'
p268
sg16
S'a5ef2b72781a40d6a6d9087e4891a1f6'
p269
sa(dp270
g2
S'16050'
p271
sg4
S'4645'
p272
sg6
S'e8c23251e92144d32757cb9de0d1c076'
p273
sg8
S'xxc49250383fb0f38a422e3977789380e7'
p274
sg10
S'xx179f2fd6e39560d98de9df392ed32b20'
p275
sg12
S'xx53906177329d9344445f27d19d26d6c6'
p276
sg14
S'Mozilla/5.0 (Linux; Android 5.1.1; R7Plusm Build/LMY47V) AppleWebKit/537.36 (KHTML, like Gecko) Version/4.0 Chrome/37.0.0.0 Mobile MQQBrowser/6.8 TBS/036869 Safari/537.36 MicroMessenger/6.3.27.880 NetType/WIFI Language/zh_CN'
p277
sg16
S'a5ef2b72781a40d6a6d9087e4891a1f6'
p278
sa(dp279
g2
S'16050'
p280
sg4
S'5287'
p281
sg6
S'e8c23251e92144d32757cb9de0d1c076'
p282
sg8
S'xxc49250383fb0f38a422e3977789380e7'
p283
sg10
S'xx179f2fd6e39560d98de9df392ed32b20'
p284
sg12
S'xx53906177329d9344445f27d19d26d6c6'
p285
sg14
S'Mozilla/5.0 (Linux; Android 5.1.1; R7Plusm Build/LMY47V) AppleWebKit/537.36 (KHTML, like Gecko) Version/4.0 Chrome/37.0.0.0 Mobile MQQBrowser/6.8 TBS/036869 Safari/537.36 MicroMessenger/6.3.27.880 NetType/WIFI Language/zh_CN'
p286
sg16
S'a5ef2b72781a40d6a6d9087e4891a1f6'
p287
sa(dp288
g2
S'38049'
p289
sg4
S'5376'
p290
sg6
S'509368e6f61d2e7b8daf31e0cb12da6d'
p291
sg8
S'xxd2becd27d74856c394fa196902f2c819'
p292
sg10
S'xx179f2fd6e39560d98de9df392ed32b20'
p293
sg12
S'xx53906177329d9344445f27d19d26d6c6'
p294
sg14
S'Mozilla/5.0 (Linux; Android 5.1.1; R7Plusm Build/LMY47V) AppleWebKit/537.36 (KHTML, like Gecko) Version/4.0 Chrome/37.0.0.0 Mobile MQQBrowser/6.8 TBS/036849 Safari/537.36 MicroMessenger/6.3.25.861 NetType/WIFI Language/zh_CN'
p295
sg16
S'7aa2910b2ac6f8ac09485d3b88d41e61'
p296
sa(dp297
g2
S'38049'
p298
sg4
S'5391'
p299
sg6
S'509368e6f61d2e7b8daf31e0cb12da6d'
p300
sg8
S'xxd2becd27d74856c394fa196902f2c819'
p301
sg10
S'xx179f2fd6e39560d98de9df392ed32b20'
p302
sg12
S'xx53906177329d9344445f27d19d26d6c6'
p303
sg14
S'Mozilla/5.0 (Linux; Android 5.1.1; R7Plusm Build/LMY47V) AppleWebKit/537.36 (KHTML, like Gecko) Version/4.0 Chrome/37.0.0.0 Mobile MQQBrowser/6.8 TBS/036849 Safari/537.36 MicroMessenger/6.3.25.861 NetType/WIFI Language/zh_CN'
p304
sg16
S'7aa2910b2ac6f8ac09485d3b88d41e61'
p305
sa(dp306
g2
S'16050'
p307
sg4
S'5756'
p308
sg6
S'e8c23251e92144d32757cb9de0d1c076'
p309
sg8
S'xxc49250383fb0f38a422e3977789380e7'
p310
sg10
S'xx179f2fd6e39560d98de9df392ed32b20'
p311
sg12
S'xx53906177329d9344445f27d19d26d6c6'
p312
sg14
S'Mozilla/5.0 (Linux; Android 5.1.1; R7Plusm Build/LMY47V) AppleWebKit/537.36 (KHTML, like Gecko) Version/4.0 Chrome/37.0.0.0 Mobile MQQBrowser/6.8 TBS/036869 Safari/537.36 MicroMessenger/6.3.27.880 NetType/WIFI Language/zh_CN'
p313
sg16
S'a5ef2b72781a40d6a6d9087e4891a1f6'
p314
sa(dp315
g2
S'16050'
p316
sg4
S'5771'
p317
sg6
S'e8c23251e92144d32757cb9de0d1c076'
p318
sg8
S'xxc49250383fb0f38a422e3977789380e7'
p319
sg10
S'xx179f2fd6e39560d98de9df392ed32b20'
p320
sg12
S'xx53906177329d9344445f27d19d26d6c6'
p321
sg14
S'Mozilla/5.0 (Linux; Android 5.1.1; R7Plusm Build/LMY47V) AppleWebKit/537.36 (KHTML, like Gecko) Version/4.0 Chrome/37.0.0.0 Mobile MQQBrowser/6.8 TBS/036869 Safari/537.36 MicroMessenger/6.3.27.880 NetType/WIFI Language/zh_CN'
p322
sg16
S'a5ef2b72781a40d6a6d9087e4891a1f6'
p323
sa(dp324
g2
S'16050'
p325
sg4
S'5821'
p326
sg6
S'e8c23251e92144d32757cb9de0d1c076'
p327
sg8
S'xxc49250383fb0f38a422e3977789380e7'
p328
sg10
S'xx179f2fd6e39560d98de9df392ed32b20'
p329
sg12
S'xx53906177329d9344445f27d19d26d6c6'
p330
sg14
S'Mozilla/5.0 (Linux; Android 5.1.1; R7Plusm Build/LMY47V) AppleWebKit/537.36 (KHTML, like Gecko) Version/4.0 Chrome/37.0.0.0 Mobile MQQBrowser/6.8 TBS/036869 Safari/537.36 MicroMessenger/6.3.27.880 NetType/WIFI Language/zh_CN'
p331
sg16
S'a5ef2b72781a40d6a6d9087e4891a1f6'
p332
sa(dp333
g2
S'16050'
p334
sg4
S'5862'
p335
sg6
S'e8c23251e92144d32757cb9de0d1c076'
p336
sg8
S'xxc49250383fb0f38a422e3977789380e7'
p337
sg10
S'xx179f2fd6e39560d98de9df392ed32b20'
p338
sg12
S'xx53906177329d9344445f27d19d26d6c6'
p339
sg14
S'Mozilla/5.0 (Linux; Android 5.1.1; R7Plusm Build/LMY47V) AppleWebKit/537.36 (KHTML, like Gecko) Version/4.0 Chrome/37.0.0.0 Mobile MQQBrowser/6.8 TBS/036869 Safari/537.36 MicroMessenger/6.3.27.880 NetType/WIFI Language/zh_CN'
p340
sg16
S'a5ef2b72781a40d6a6d9087e4891a1f6'
p341
sa(dp342
g2
S'16050'
p343
sg4
S'5927'
p344
sg6
S'e8c23251e92144d32757cb9de0d1c076'
p345
sg8
S'xxc49250383fb0f38a422e3977789380e7'
p346
sg10
S'xx179f2fd6e39560d98de9df392ed32b20'
p347
sg12
S'xx53906177329d9344445f27d19d26d6c6'
p348
sg14
S'Mozilla/5.0 (Linux; Android 5.1.1; R7Plusm Build/LMY47V) AppleWebKit/537.36 (KHTML, like Gecko) Version/4.0 Chrome/37.0.0.0 Mobile MQQBrowser/6.8 TBS/036869 Safari/537.36 MicroMessenger/6.3.27.880 NetType/WIFI Language/zh_CN'
p349
sg16
S'a5ef2b72781a40d6a6d9087e4891a1f6'
p350
sa(dp351
g2
S'16050'
p352
sg4
S'6237'
p353
sg6
S'e8c23251e92144d32757cb9de0d1c076'
p354
sg8
S'xxc49250383fb0f38a422e3977789380e7'
p355
sg10
S'xx179f2fd6e39560d98de9df392ed32b20'
p356
sg12
S'xx53906177329d9344445f27d19d26d6c6'
p357
sg14
S'Mozilla/5.0 (Linux; Android 5.1.1; R7Plusm Build/LMY47V) AppleWebKit/537.36 (KHTML, like Gecko) Version/4.0 Chrome/37.0.0.0 Mobile MQQBrowser/6.8 TBS/036869 Safari/537.36 MicroMessenger/6.3.27.880 NetType/WIFI Language/zh_CN'
p358
sg16
S'a5ef2b72781a40d6a6d9087e4891a1f6'
p359
sa(dp360
g2
S'16050'
p361
sg4
S'6318'
p362
sg6
S'e8c23251e92144d32757cb9de0d1c076'
p363
sg8
S'xxc49250383fb0f38a422e3977789380e7'
p364
sg10
S'xx179f2fd6e39560d98de9df392ed32b20'
p365
sg12
S'xx53906177329d9344445f27d19d26d6c6'
p366
sg14
S'Mozilla/5.0 (Linux; Android 5.1.1; R7Plusm Build/LMY47V) AppleWebKit/537.36 (KHTML, like Gecko) Version/4.0 Chrome/37.0.0.0 Mobile MQQBrowser/6.8 TBS/036869 Safari/537.36 MicroMessenger/6.3.27.880 NetType/WIFI Language/zh_CN'
p367
sg16
S'a5ef2b72781a40d6a6d9087e4891a1f6'
p368
sa(dp369
g2
S'16050'
p370
sg4
S'6342'
p371
sg6
S'e8c23251e92144d32757cb9de0d1c076'
p372
sg8
S'xxc49250383fb0f38a422e3977789380e7'
p373
sg10
S'xx179f2fd6e39560d98de9df392ed32b20'
p374
sg12
S'xx53906177329d9344445f27d19d26d6c6'
p375
sg14
S'Mozilla/5.0 (Linux; Android 5.1.1; R7Plusm Build/LMY47V) AppleWebKit/537.36 (KHTML, like Gecko) Version/4.0 Chrome/37.0.0.0 Mobile MQQBrowser/6.8 TBS/036869 Safari/537.36 MicroMessenger/6.3.27.880 NetType/WIFI Language/zh_CN'
p376
sg16
S'a5ef2b72781a40d6a6d9087e4891a1f6'
p377
sa(dp378
g2
S'16050'
p379
sg4
S'6456'
p380
sg6
S'e8c23251e92144d32757cb9de0d1c076'
p381
sg8
S'xxc49250383fb0f38a422e3977789380e7'
p382
sg10
S'xx179f2fd6e39560d98de9df392ed32b20'
p383
sg12
S'xx53906177329d9344445f27d19d26d6c6'
p384
sg14
S'Mozilla/5.0 (Linux; Android 5.1.1; R7Plusm Build/LMY47V) AppleWebKit/537.36 (KHTML, like Gecko) Version/4.0 Chrome/37.0.0.0 Mobile MQQBrowser/6.8 TBS/036869 Safari/537.36 MicroMessenger/6.3.27.880 NetType/WIFI Language/zh_CN'
p385
sg16
S'a5ef2b72781a40d6a6d9087e4891a1f6'
p386
sa(dp387
g2
S'16050'
p388
sg4
S'6470'
p389
sg6
S'e8c23251e92144d32757cb9de0d1c076'
p390
sg8
S'xxc49250383fb0f38a422e3977789380e7'
p391
sg10
S'xx179f2fd6e39560d98de9df392ed32b20'
p392
sg12
S'xx53906177329d9344445f27d19d26d6c6'
p393
sg14
S'Mozilla/5.0 (Linux; Android 5.1.1; R7Plusm Build/LMY47V) AppleWebKit/537.36 (KHTML, like Gecko) Version/4.0 Chrome/37.0.0.0 Mobile MQQBrowser/6.8 TBS/036869 Safari/537.36 MicroMessenger/6.3.27.880 NetType/WIFI Language/zh_CN'
p394
sg16
S'a5ef2b72781a40d6a6d9087e4891a1f6'
p395
sa(dp396
g2
S'16050'
p397
sg4
S'6688'
p398
sg6
S'e8c23251e92144d32757cb9de0d1c076'
p399
sg8
S'xxc49250383fb0f38a422e3977789380e7'
p400
sg10
S'xx179f2fd6e39560d98de9df392ed32b20'
p401
sg12
S'xx53906177329d9344445f27d19d26d6c6'
p402
sg14
S'Mozilla/5.0 (Linux; Android 5.1.1; R7Plusm Build/LMY47V) AppleWebKit/537.36 (KHTML, like Gecko) Version/4.0 Chrome/37.0.0.0 Mobile MQQBrowser/6.8 TBS/036869 Safari/537.36 MicroMessenger/6.3.27.880 NetType/WIFI Language/zh_CN'
p403
sg16
S'a5ef2b72781a40d6a6d9087e4891a1f6'
p404
sa(dp405
g2
S'16050'
p406
sg4
S'6702'
p407
sg6
S'e8c23251e92144d32757cb9de0d1c076'
p408
sg8
S'xxc49250383fb0f38a422e3977789380e7'
p409
sg10
S'xx179f2fd6e39560d98de9df392ed32b20'
p410
sg12
S'xx53906177329d9344445f27d19d26d6c6'
p411
sg14
S'Mozilla/5.0 (Linux; Android 5.1.1; R7Plusm Build/LMY47V) AppleWebKit/537.36 (KHTML, like Gecko) Version/4.0 Chrome/37.0.0.0 Mobile MQQBrowser/6.8 TBS/036869 Safari/537.36 MicroMessenger/6.3.27.880 NetType/WIFI Language/zh_CN'
p412
sg16
S'a5ef2b72781a40d6a6d9087e4891a1f6'
p413
sa(dp414
g2
S'16050'
p415
sg4
S'6876'
p416
sg6
S'e8c23251e92144d32757cb9de0d1c076'
p417
sg8
S'xxc49250383fb0f38a422e3977789380e7'
p418
sg10
S'xx179f2fd6e39560d98de9df392ed32b20'
p419
sg12
S'xx53906177329d9344445f27d19d26d6c6'
p420
sg14
S'Mozilla/5.0 (Linux; Android 5.1.1; R7Plusm Build/LMY47V) AppleWebKit/537.36 (KHTML, like Gecko) Version/4.0 Chrome/37.0.0.0 Mobile MQQBrowser/6.8 TBS/036869 Safari/537.36 MicroMessenger/6.3.27.880 NetType/WIFI Language/zh_CN'
p421
sg16
S'a5ef2b72781a40d6a6d9087e4891a1f6'
p422
sa(dp423
g2
S'16050'
p424
sg4
S'7433'
p425
sg6
S'e8c23251e92144d32757cb9de0d1c076'
p426
sg8
S'xxc49250383fb0f38a422e3977789380e7'
p427
sg10
S'xx179f2fd6e39560d98de9df392ed32b20'
p428
sg12
S'xx53906177329d9344445f27d19d26d6c6'
p429
sg14
S'Mozilla/5.0 (Linux; Android 5.1.1; R7Plusm Build/LMY47V) AppleWebKit/537.36 (KHTML, like Gecko) Version/4.0 Chrome/37.0.0.0 Mobile MQQBrowser/6.8 TBS/036869 Safari/537.36 MicroMessenger/6.3.27.880 NetType/WIFI Language/zh_CN'
p430
sg16
S'a5ef2b72781a40d6a6d9087e4891a1f6'
p431
sa(dp432
g2
S'16050'
p433
sg4
S'7447'
p434
sg6
S'e8c23251e92144d32757cb9de0d1c076'
p435
sg8
S'xxc49250383fb0f38a422e3977789380e7'
p436
sg10
S'xx179f2fd6e39560d98de9df392ed32b20'
p437
sg12
S'xx53906177329d9344445f27d19d26d6c6'
p438
sg14
S'Mozilla/5.0 (Linux; Android 5.1.1; R7Plusm Build/LMY47V) AppleWebKit/537.36 (KHTML, like Gecko) Version/4.0 Chrome/37.0.0.0 Mobile MQQBrowser/6.8 TBS/036869 Safari/537.36 MicroMessenger/6.3.27.880 NetType/WIFI Language/zh_CN'
p439
sg16
S'a5ef2b72781a40d6a6d9087e4891a1f6'
p440
sa.