(lp0
(dp1
S'user_id'
p2
S'34144'
p3
sS'data_id'
p4
S'5164'
p5
sS'ip'
p6
S'783ec5c440b55f32ca4f1c46a5126757'
p7
sS'phone_B'
p8
S'xx821f3645d48d6cdccc574d2b5f0f0809'
p9
sS'phone_C'
p10
S'xxa2688a2f031d413266952588af165010'
p11
sS'phone_A'
p12
S'xx53a3ea1202546d69ea2e4e1d2abd59a1'
p13
sS'user_agent'
p14
S'Mozilla/5.0 (Linux; Android 5.1; F100 Build/LMY47D) AppleWebKit/537.36 (KHTML, like Gecko) Version/4.0 Chrome/37.0.0.0 Mobile MQQBrowser/6.8 TBS/036824 Safari/537.36 MicroMessenger/6.3.27.880 NetType/WIFI Language/zh_CN'
p15
sS'ua'
p16
S'aae86d6b179334b7468a0c469b2316fa'
p17
sa(dp18
g2
S'20656'
p19
sg4
S'5779'
p20
sg6
S'6b415139e3d8c4a4ed08169940815b46'
p21
sg8
S'xx75c1a6281907cfb84cd041bd8199bd33'
p22
sg10
S'xxb3f71883a95e667a432eae58874d6418'
p23
sg12
S'xx53a3ea1202546d69ea2e4e1d2abd59a1'
p24
sg14
S'Mozilla/5.0 (Linux; Android 5.1; F100 Build/LMY47D) AppleWebKit/537.36 (KHTML, like Gecko) Version/4.0 Chrome/37.0.0.0 Mobile MQQBrowser/6.8 TBS/036849 Safari/537.36 MicroMessenger/6.3.27.880 NetType/WIFI Language/zh_CN'
p25
sg16
S'04eed2cb7939835dd37303fe54cea13f'
p26
sa(dp27
g2
S'20656'
p28
sg4
S'5797'
p29
sg6
S'6b415139e3d8c4a4ed08169940815b46'
p30
sg8
S'xx75c1a6281907cfb84cd041bd8199bd33'
p31
sg10
S'xxb3f71883a95e667a432eae58874d6418'
p32
sg12
S'xx53a3ea1202546d69ea2e4e1d2abd59a1'
p33
sg14
S'Mozilla/5.0 (Linux; Android 5.1; F100 Build/LMY47D) AppleWebKit/537.36 (KHTML, like Gecko) Version/4.0 Chrome/37.0.0.0 Mobile MQQBrowser/6.8 TBS/036849 Safari/537.36 MicroMessenger/6.3.27.880 NetType/WIFI Language/zh_CN'
p34
sg16
S'04eed2cb7939835dd37303fe54cea13f'
p35
sa(dp36
g2
S'20656'
p37
sg4
S'5814'
p38
sg6
S'6b415139e3d8c4a4ed08169940815b46'
p39
sg8
S'xx75c1a6281907cfb84cd041bd8199bd33'
p40
sg10
S'xxb3f71883a95e667a432eae58874d6418'
p41
sg12
S'xx53a3ea1202546d69ea2e4e1d2abd59a1'
p42
sg14
S'Mozilla/5.0 (Linux; Android 5.1; F100 Build/LMY47D) AppleWebKit/537.36 (KHTML, like Gecko) Version/4.0 Chrome/37.0.0.0 Mobile MQQBrowser/6.8 TBS/036849 Safari/537.36 MicroMessenger/6.3.27.880 NetType/WIFI Language/zh_CN'
p43
sg16
S'04eed2cb7939835dd37303fe54cea13f'
p44
sa(dp45
g2
S'20656'
p46
sg4
S'5859'
p47
sg6
S'6b415139e3d8c4a4ed08169940815b46'
p48
sg8
S'xx75c1a6281907cfb84cd041bd8199bd33'
p49
sg10
S'xxb3f71883a95e667a432eae58874d6418'
p50
sg12
S'xx53a3ea1202546d69ea2e4e1d2abd59a1'
p51
sg14
S'Mozilla/5.0 (Linux; Android 5.1; F100 Build/LMY47D) AppleWebKit/537.36 (KHTML, like Gecko) Version/4.0 Chrome/37.0.0.0 Mobile MQQBrowser/6.8 TBS/036849 Safari/537.36 MicroMessenger/6.3.27.880 NetType/WIFI Language/zh_CN'
p52
sg16
S'04eed2cb7939835dd37303fe54cea13f'
p53
sa(dp54
g2
S'20656'
p55
sg4
S'5873'
p56
sg6
S'6b415139e3d8c4a4ed08169940815b46'
p57
sg8
S'xx75c1a6281907cfb84cd041bd8199bd33'
p58
sg10
S'xxb3f71883a95e667a432eae58874d6418'
p59
sg12
S'xx53a3ea1202546d69ea2e4e1d2abd59a1'
p60
sg14
S'Mozilla/5.0 (Linux; Android 5.1; F100 Build/LMY47D) AppleWebKit/537.36 (KHTML, like Gecko) Version/4.0 Chrome/37.0.0.0 Mobile MQQBrowser/6.8 TBS/036849 Safari/537.36 MicroMessenger/6.3.27.880 NetType/WIFI Language/zh_CN'
p61
sg16
S'04eed2cb7939835dd37303fe54cea13f'
p62
sa(dp63
g2
S'20656'
p64
sg4
S'5892'
p65
sg6
S'6b415139e3d8c4a4ed08169940815b46'
p66
sg8
S'xx75c1a6281907cfb84cd041bd8199bd33'
p67
sg10
S'xxb3f71883a95e667a432eae58874d6418'
p68
sg12
S'xx53a3ea1202546d69ea2e4e1d2abd59a1'
p69
sg14
S'Mozilla/5.0 (Linux; Android 5.1; F100 Build/LMY47D) AppleWebKit/537.36 (KHTML, like Gecko) Version/4.0 Chrome/37.0.0.0 Mobile MQQBrowser/6.8 TBS/036849 Safari/537.36 MicroMessenger/6.3.27.880 NetType/WIFI Language/zh_CN'
p70
sg16
S'04eed2cb7939835dd37303fe54cea13f'
p71
sa(dp72
g2
S'20656'
p73
sg4
S'5905'
p74
sg6
S'6b415139e3d8c4a4ed08169940815b46'
p75
sg8
S'xx75c1a6281907cfb84cd041bd8199bd33'
p76
sg10
S'xxb3f71883a95e667a432eae58874d6418'
p77
sg12
S'xx53a3ea1202546d69ea2e4e1d2abd59a1'
p78
sg14
S'Mozilla/5.0 (Linux; Android 5.1; F100 Build/LMY47D) AppleWebKit/537.36 (KHTML, like Gecko) Version/4.0 Chrome/37.0.0.0 Mobile MQQBrowser/6.8 TBS/036849 Safari/537.36 MicroMessenger/6.3.27.880 NetType/WIFI Language/zh_CN'
p79
sg16
S'04eed2cb7939835dd37303fe54cea13f'
p80
sa(dp81
g2
S'20656'
p82
sg4
S'6044'
p83
sg6
S'6b415139e3d8c4a4ed08169940815b46'
p84
sg8
S'xx75c1a6281907cfb84cd041bd8199bd33'
p85
sg10
S'xxb3f71883a95e667a432eae58874d6418'
p86
sg12
S'xx53a3ea1202546d69ea2e4e1d2abd59a1'
p87
sg14
S'Mozilla/5.0 (Linux; Android 5.1; F100 Build/LMY47D) AppleWebKit/537.36 (KHTML, like Gecko) Version/4.0 Chrome/37.0.0.0 Mobile MQQBrowser/6.8 TBS/036849 Safari/537.36 MicroMessenger/6.3.27.880 NetType/WIFI Language/zh_CN'
p88
sg16
S'04eed2cb7939835dd37303fe54cea13f'
p89
sa(dp90
g2
S'20656'
p91
sg4
S'6982'
p92
sg6
S'6b415139e3d8c4a4ed08169940815b46'
p93
sg8
S'xx75c1a6281907cfb84cd041bd8199bd33'
p94
sg10
S'xxb3f71883a95e667a432eae58874d6418'
p95
sg12
S'xx53a3ea1202546d69ea2e4e1d2abd59a1'
p96
sg14
S'Mozilla/5.0 (Linux; Android 5.1; F100 Build/LMY47D) AppleWebKit/537.36 (KHTML, like Gecko) Version/4.0 Chrome/37.0.0.0 Mobile MQQBrowser/6.8 TBS/036849 Safari/537.36 MicroMessenger/6.3.27.880 NetType/WIFI Language/zh_CN'
p97
sg16
S'04eed2cb7939835dd37303fe54cea13f'
p98
sa(dp99
g2
S'20656'
p100
sg4
S'6995'
p101
sg6
S'6b415139e3d8c4a4ed08169940815b46'
p102
sg8
S'xx75c1a6281907cfb84cd041bd8199bd33'
p103
sg10
S'xxb3f71883a95e667a432eae58874d6418'
p104
sg12
S'xx53a3ea1202546d69ea2e4e1d2abd59a1'
p105
sg14
S'Mozilla/5.0 (Linux; Android 5.1; F100 Build/LMY47D) AppleWebKit/537.36 (KHTML, like Gecko) Version/4.0 Chrome/37.0.0.0 Mobile MQQBrowser/6.8 TBS/036849 Safari/537.36 MicroMessenger/6.3.27.880 NetType/WIFI Language/zh_CN'
p106
sg16
S'04eed2cb7939835dd37303fe54cea13f'
p107
sa(dp108
g2
S'20656'
p109
sg4
S'7049'
p110
sg6
S'6b415139e3d8c4a4ed08169940815b46'
p111
sg8
S'xx75c1a6281907cfb84cd041bd8199bd33'
p112
sg10
S'xxb3f71883a95e667a432eae58874d6418'
p113
sg12
S'xx53a3ea1202546d69ea2e4e1d2abd59a1'
p114
sg14
S'Mozilla/5.0 (Linux; Android 5.1; F100 Build/LMY47D) AppleWebKit/537.36 (KHTML, like Gecko) Version/4.0 Chrome/37.0.0.0 Mobile MQQBrowser/6.8 TBS/036849 Safari/537.36 MicroMessenger/6.3.27.880 NetType/WIFI Language/zh_CN'
p115
sg16
S'04eed2cb7939835dd37303fe54cea13f'
p116
sa(dp117
g2
S'20656'
p118
sg4
S'7448'
p119
sg6
S'6b415139e3d8c4a4ed08169940815b46'
p120
sg8
S'xx75c1a6281907cfb84cd041bd8199bd33'
p121
sg10
S'xxb3f71883a95e667a432eae58874d6418'
p122
sg12
S'xx53a3ea1202546d69ea2e4e1d2abd59a1'
p123
sg14
S'Mozilla/5.0 (Linux; Android 5.1; F100 Build/LMY47D) AppleWebKit/537.36 (KHTML, like Gecko) Version/4.0 Chrome/37.0.0.0 Mobile MQQBrowser/6.8 TBS/036849 Safari/537.36 MicroMessenger/6.3.27.880 NetType/WIFI Language/zh_CN'
p124
sg16
S'04eed2cb7939835dd37303fe54cea13f'
p125
sa(dp126
g2
S'20656'
p127
sg4
S'7803'
p128
sg6
S'6b415139e3d8c4a4ed08169940815b46'
p129
sg8
S'xx75c1a6281907cfb84cd041bd8199bd33'
p130
sg10
S'xxb3f71883a95e667a432eae58874d6418'
p131
sg12
S'xx53a3ea1202546d69ea2e4e1d2abd59a1'
p132
sg14
S'Mozilla/5.0 (Linux; Android 5.1; F100 Build/LMY47D) AppleWebKit/537.36 (KHTML, like Gecko) Version/4.0 Chrome/37.0.0.0 Mobile MQQBrowser/6.8 TBS/036849 Safari/537.36 MicroMessenger/6.3.27.880 NetType/WIFI Language/zh_CN'
p133
sg16
S'04eed2cb7939835dd37303fe54cea13f'
p134
sa(dp135
g2
S'20656'
p136
sg4
S'7812'
p137
sg6
S'6b415139e3d8c4a4ed08169940815b46'
p138
sg8
S'xx75c1a6281907cfb84cd041bd8199bd33'
p139
sg10
S'xxb3f71883a95e667a432eae58874d6418'
p140
sg12
S'xx53a3ea1202546d69ea2e4e1d2abd59a1'
p141
sg14
S'Mozilla/5.0 (Linux; Android 5.1; F100 Build/LMY47D) AppleWebKit/537.36 (KHTML, like Gecko) Version/4.0 Chrome/37.0.0.0 Mobile MQQBrowser/6.8 TBS/036849 Safari/537.36 MicroMessenger/6.3.27.880 NetType/WIFI Language/zh_CN'
p142
sg16
S'04eed2cb7939835dd37303fe54cea13f'
p143
sa(dp144
g2
S'20656'
p145
sg4
S'7827'
p146
sg6
S'6b415139e3d8c4a4ed08169940815b46'
p147
sg8
S'xx75c1a6281907cfb84cd041bd8199bd33'
p148
sg10
S'xxb3f71883a95e667a432eae58874d6418'
p149
sg12
S'xx53a3ea1202546d69ea2e4e1d2abd59a1'
p150
sg14
S'Mozilla/5.0 (Linux; Android 5.1; F100 Build/LMY47D) AppleWebKit/537.36 (KHTML, like Gecko) Version/4.0 Chrome/37.0.0.0 Mobile MQQBrowser/6.8 TBS/036849 Safari/537.36 MicroMessenger/6.3.27.880 NetType/WIFI Language/zh_CN'
p151
sg16
S'04eed2cb7939835dd37303fe54cea13f'
p152
sa.