(lp0
(dp1
S'user_id'
p2
S'10672'
p3
sS'data_id'
p4
S'50'
p5
sS'ip'
p6
S'70650d592bfe20862c4f96a4a9fe77d6'
p7
sS'phone_B'
p8
S'xx7c7a4302fd998b8e0cb3021f56b8ad61'
p9
sS'phone_C'
p10
S'xx21ef2add7f5cbd50376b35ff47e55e00'
p11
sS'phone_A'
p12
S'xx54d65f2ed9cba4765e7435531e43ce4c'
p13
sS'user_agent'
p14
S'Mozilla/5.0 (Linux; Android 5.1.1; vivo Y51 Build/LMY47V) AppleWebKit/537.36 (KHTML, like Gecko) Version/4.0 Chrome/37.0.0.0 Mobile MQQBrowser/6.8 TBS/036849 Safari/537.36 MicroMessenger/6.3.25.861 NetType/WIFI Language/zh_CN'
p15
sS'ua'
p16
S'7a3dc9ad2725f8288ba3b0f9e1455161'
p17
sa(dp18
g2
S'10672'
p19
sg4
S'56'
p20
sg6
S'70650d592bfe20862c4f96a4a9fe77d6'
p21
sg8
S'xx7c7a4302fd998b8e0cb3021f56b8ad61'
p22
sg10
S'xx21ef2add7f5cbd50376b35ff47e55e00'
p23
sg12
S'xx54d65f2ed9cba4765e7435531e43ce4c'
p24
sg14
S'Mozilla/5.0 (Linux; Android 5.1.1; vivo Y51 Build/LMY47V) AppleWebKit/537.36 (KHTML, like Gecko) Version/4.0 Chrome/37.0.0.0 Mobile MQQBrowser/6.8 TBS/036849 Safari/537.36 MicroMessenger/6.3.25.861 NetType/WIFI Language/zh_CN'
p25
sg16
S'7a3dc9ad2725f8288ba3b0f9e1455161'
p26
sa(dp27
g2
S'10672'
p28
sg4
S'65'
p29
sg6
S'70650d592bfe20862c4f96a4a9fe77d6'
p30
sg8
S'xx7c7a4302fd998b8e0cb3021f56b8ad61'
p31
sg10
S'xx21ef2add7f5cbd50376b35ff47e55e00'
p32
sg12
S'xx54d65f2ed9cba4765e7435531e43ce4c'
p33
sg14
S'Mozilla/5.0 (Linux; Android 5.1.1; vivo Y51 Build/LMY47V) AppleWebKit/537.36 (KHTML, like Gecko) Version/4.0 Chrome/37.0.0.0 Mobile MQQBrowser/6.8 TBS/036849 Safari/537.36 MicroMessenger/6.3.25.861 NetType/WIFI Language/zh_CN'
p34
sg16
S'7a3dc9ad2725f8288ba3b0f9e1455161'
p35
sa(dp36
g2
S'10672'
p37
sg4
S'73'
p38
sg6
S'70650d592bfe20862c4f96a4a9fe77d6'
p39
sg8
S'xx7c7a4302fd998b8e0cb3021f56b8ad61'
p40
sg10
S'xx21ef2add7f5cbd50376b35ff47e55e00'
p41
sg12
S'xx54d65f2ed9cba4765e7435531e43ce4c'
p42
sg14
S'Mozilla/5.0 (Linux; Android 5.1.1; vivo Y51 Build/LMY47V) AppleWebKit/537.36 (KHTML, like Gecko) Version/4.0 Chrome/37.0.0.0 Mobile MQQBrowser/6.8 TBS/036849 Safari/537.36 MicroMessenger/6.3.25.861 NetType/WIFI Language/zh_CN'
p43
sg16
S'7a3dc9ad2725f8288ba3b0f9e1455161'
p44
sa(dp45
g2
S'10672'
p46
sg4
S'134'
p47
sg6
S'70650d592bfe20862c4f96a4a9fe77d6'
p48
sg8
S'xx7c7a4302fd998b8e0cb3021f56b8ad61'
p49
sg10
S'xx21ef2add7f5cbd50376b35ff47e55e00'
p50
sg12
S'xx54d65f2ed9cba4765e7435531e43ce4c'
p51
sg14
S'Mozilla/5.0 (Linux; Android 5.1.1; vivo Y51 Build/LMY47V) AppleWebKit/537.36 (KHTML, like Gecko) Version/4.0 Chrome/37.0.0.0 Mobile MQQBrowser/6.8 TBS/036849 Safari/537.36 MicroMessenger/6.3.25.861 NetType/WIFI Language/zh_CN'
p52
sg16
S'7a3dc9ad2725f8288ba3b0f9e1455161'
p53
sa(dp54
g2
S'46991'
p55
sg4
S'399'
p56
sg6
S'd66c95a4c1c7aa3ad1fe1162a8491ff3'
p57
sg8
S'xxbad50ca228801aab2eb9c0578a7b2f97'
p58
sg10
S'xx08291002af28f82cb5420307ad66e899'
p59
sg12
S'xx54d65f2ed9cba4765e7435531e43ce4c'
p60
sg14
S'Mozilla/5.0 (Linux; Android 5.1.1; vivo Y51 Build/LMY47V) AppleWebKit/537.36 (KHTML, like Gecko) Version/4.0 Chrome/37.0.0.0 Mobile MQQBrowser/6.8 TBS/036849 Safari/537.36 MicroMessenger/6.3.27.880 NetType/WIFI Language/zh_CN'
p61
sg16
S'77b657f38dffa1cc71bcfe1a15e55eb5'
p62
sa(dp63
g2
S'46991'
p64
sg4
S'414'
p65
sg6
S'd66c95a4c1c7aa3ad1fe1162a8491ff3'
p66
sg8
S'xxbad50ca228801aab2eb9c0578a7b2f97'
p67
sg10
S'xx08291002af28f82cb5420307ad66e899'
p68
sg12
S'xx54d65f2ed9cba4765e7435531e43ce4c'
p69
sg14
S'Mozilla/5.0 (Linux; Android 5.1.1; vivo Y51 Build/LMY47V) AppleWebKit/537.36 (KHTML, like Gecko) Version/4.0 Chrome/37.0.0.0 Mobile MQQBrowser/6.8 TBS/036849 Safari/537.36 MicroMessenger/6.3.27.880 NetType/WIFI Language/zh_CN'
p70
sg16
S'77b657f38dffa1cc71bcfe1a15e55eb5'
p71
sa(dp72
g2
S'46991'
p73
sg4
S'424'
p74
sg6
S'd66c95a4c1c7aa3ad1fe1162a8491ff3'
p75
sg8
S'xxbad50ca228801aab2eb9c0578a7b2f97'
p76
sg10
S'xx08291002af28f82cb5420307ad66e899'
p77
sg12
S'xx54d65f2ed9cba4765e7435531e43ce4c'
p78
sg14
S'Mozilla/5.0 (Linux; Android 5.1.1; vivo Y51 Build/LMY47V) AppleWebKit/537.36 (KHTML, like Gecko) Version/4.0 Chrome/37.0.0.0 Mobile MQQBrowser/6.8 TBS/036849 Safari/537.36 MicroMessenger/6.3.27.880 NetType/WIFI Language/zh_CN'
p79
sg16
S'77b657f38dffa1cc71bcfe1a15e55eb5'
p80
sa(dp81
g2
S'46991'
p82
sg4
S'474'
p83
sg6
S'd66c95a4c1c7aa3ad1fe1162a8491ff3'
p84
sg8
S'xxbad50ca228801aab2eb9c0578a7b2f97'
p85
sg10
S'xx08291002af28f82cb5420307ad66e899'
p86
sg12
S'xx54d65f2ed9cba4765e7435531e43ce4c'
p87
sg14
S'Mozilla/5.0 (Linux; Android 5.1.1; vivo Y51 Build/LMY47V) AppleWebKit/537.36 (KHTML, like Gecko) Version/4.0 Chrome/37.0.0.0 Mobile MQQBrowser/6.8 TBS/036849 Safari/537.36 MicroMessenger/6.3.27.880 NetType/WIFI Language/zh_CN'
p88
sg16
S'77b657f38dffa1cc71bcfe1a15e55eb5'
p89
sa(dp90
g2
S'46991'
p91
sg4
S'819'
p92
sg6
S'd66c95a4c1c7aa3ad1fe1162a8491ff3'
p93
sg8
S'xxbad50ca228801aab2eb9c0578a7b2f97'
p94
sg10
S'xx08291002af28f82cb5420307ad66e899'
p95
sg12
S'xx54d65f2ed9cba4765e7435531e43ce4c'
p96
sg14
S'Mozilla/5.0 (Linux; Android 5.1.1; vivo Y51 Build/LMY47V) AppleWebKit/537.36 (KHTML, like Gecko) Version/4.0 Chrome/37.0.0.0 Mobile MQQBrowser/6.8 TBS/036849 Safari/537.36 MicroMessenger/6.3.27.880 NetType/WIFI Language/zh_CN'
p97
sg16
S'77b657f38dffa1cc71bcfe1a15e55eb5'
p98
sa(dp99
g2
S'46991'
p100
sg4
S'832'
p101
sg6
S'd66c95a4c1c7aa3ad1fe1162a8491ff3'
p102
sg8
S'xxbad50ca228801aab2eb9c0578a7b2f97'
p103
sg10
S'xx08291002af28f82cb5420307ad66e899'
p104
sg12
S'xx54d65f2ed9cba4765e7435531e43ce4c'
p105
sg14
S'Mozilla/5.0 (Linux; Android 5.1.1; vivo Y51 Build/LMY47V) AppleWebKit/537.36 (KHTML, like Gecko) Version/4.0 Chrome/37.0.0.0 Mobile MQQBrowser/6.8 TBS/036849 Safari/537.36 MicroMessenger/6.3.27.880 NetType/WIFI Language/zh_CN'
p106
sg16
S'77b657f38dffa1cc71bcfe1a15e55eb5'
p107
sa(dp108
g2
S'46991'
p109
sg4
S'843'
p110
sg6
S'd66c95a4c1c7aa3ad1fe1162a8491ff3'
p111
sg8
S'xxbad50ca228801aab2eb9c0578a7b2f97'
p112
sg10
S'xx08291002af28f82cb5420307ad66e899'
p113
sg12
S'xx54d65f2ed9cba4765e7435531e43ce4c'
p114
sg14
S'Mozilla/5.0 (Linux; Android 5.1.1; vivo Y51 Build/LMY47V) AppleWebKit/537.36 (KHTML, like Gecko) Version/4.0 Chrome/37.0.0.0 Mobile MQQBrowser/6.8 TBS/036849 Safari/537.36 MicroMessenger/6.3.27.880 NetType/WIFI Language/zh_CN'
p115
sg16
S'77b657f38dffa1cc71bcfe1a15e55eb5'
p116
sa(dp117
g2
S'46991'
p118
sg4
S'862'
p119
sg6
S'd66c95a4c1c7aa3ad1fe1162a8491ff3'
p120
sg8
S'xxbad50ca228801aab2eb9c0578a7b2f97'
p121
sg10
S'xx08291002af28f82cb5420307ad66e899'
p122
sg12
S'xx54d65f2ed9cba4765e7435531e43ce4c'
p123
sg14
S'Mozilla/5.0 (Linux; Android 5.1.1; vivo Y51 Build/LMY47V) AppleWebKit/537.36 (KHTML, like Gecko) Version/4.0 Chrome/37.0.0.0 Mobile MQQBrowser/6.8 TBS/036849 Safari/537.36 MicroMessenger/6.3.27.880 NetType/WIFI Language/zh_CN'
p124
sg16
S'77b657f38dffa1cc71bcfe1a15e55eb5'
p125
sa(dp126
g2
S'46991'
p127
sg4
S'884'
p128
sg6
S'd66c95a4c1c7aa3ad1fe1162a8491ff3'
p129
sg8
S'xxbad50ca228801aab2eb9c0578a7b2f97'
p130
sg10
S'xx08291002af28f82cb5420307ad66e899'
p131
sg12
S'xx54d65f2ed9cba4765e7435531e43ce4c'
p132
sg14
S'Mozilla/5.0 (Linux; Android 5.1.1; vivo Y51 Build/LMY47V) AppleWebKit/537.36 (KHTML, like Gecko) Version/4.0 Chrome/37.0.0.0 Mobile MQQBrowser/6.8 TBS/036849 Safari/537.36 MicroMessenger/6.3.27.880 NetType/WIFI Language/zh_CN'
p133
sg16
S'77b657f38dffa1cc71bcfe1a15e55eb5'
p134
sa(dp135
g2
S'46991'
p136
sg4
S'903'
p137
sg6
S'd66c95a4c1c7aa3ad1fe1162a8491ff3'
p138
sg8
S'xxbad50ca228801aab2eb9c0578a7b2f97'
p139
sg10
S'xx08291002af28f82cb5420307ad66e899'
p140
sg12
S'xx54d65f2ed9cba4765e7435531e43ce4c'
p141
sg14
S'Mozilla/5.0 (Linux; Android 5.1.1; vivo Y51 Build/LMY47V) AppleWebKit/537.36 (KHTML, like Gecko) Version/4.0 Chrome/37.0.0.0 Mobile MQQBrowser/6.8 TBS/036849 Safari/537.36 MicroMessenger/6.3.27.880 NetType/WIFI Language/zh_CN'
p142
sg16
S'77b657f38dffa1cc71bcfe1a15e55eb5'
p143
sa(dp144
g2
S'46991'
p145
sg4
S'969'
p146
sg6
S'd66c95a4c1c7aa3ad1fe1162a8491ff3'
p147
sg8
S'xxbad50ca228801aab2eb9c0578a7b2f97'
p148
sg10
S'xx08291002af28f82cb5420307ad66e899'
p149
sg12
S'xx54d65f2ed9cba4765e7435531e43ce4c'
p150
sg14
S'Mozilla/5.0 (Linux; Android 5.1.1; vivo Y51 Build/LMY47V) AppleWebKit/537.36 (KHTML, like Gecko) Version/4.0 Chrome/37.0.0.0 Mobile MQQBrowser/6.8 TBS/036849 Safari/537.36 MicroMessenger/6.3.27.880 NetType/WIFI Language/zh_CN'
p151
sg16
S'77b657f38dffa1cc71bcfe1a15e55eb5'
p152
sa(dp153
g2
S'46991'
p154
sg4
S'1023'
p155
sg6
S'd66c95a4c1c7aa3ad1fe1162a8491ff3'
p156
sg8
S'xxbad50ca228801aab2eb9c0578a7b2f97'
p157
sg10
S'xx08291002af28f82cb5420307ad66e899'
p158
sg12
S'xx54d65f2ed9cba4765e7435531e43ce4c'
p159
sg14
S'Mozilla/5.0 (Linux; Android 5.1.1; vivo Y51 Build/LMY47V) AppleWebKit/537.36 (KHTML, like Gecko) Version/4.0 Chrome/37.0.0.0 Mobile MQQBrowser/6.8 TBS/036849 Safari/537.36 MicroMessenger/6.3.27.880 NetType/WIFI Language/zh_CN'
p160
sg16
S'77b657f38dffa1cc71bcfe1a15e55eb5'
p161
sa(dp162
g2
S'46991'
p163
sg4
S'1040'
p164
sg6
S'd66c95a4c1c7aa3ad1fe1162a8491ff3'
p165
sg8
S'xxbad50ca228801aab2eb9c0578a7b2f97'
p166
sg10
S'xx08291002af28f82cb5420307ad66e899'
p167
sg12
S'xx54d65f2ed9cba4765e7435531e43ce4c'
p168
sg14
S'Mozilla/5.0 (Linux; Android 5.1.1; vivo Y51 Build/LMY47V) AppleWebKit/537.36 (KHTML, like Gecko) Version/4.0 Chrome/37.0.0.0 Mobile MQQBrowser/6.8 TBS/036849 Safari/537.36 MicroMessenger/6.3.27.880 NetType/WIFI Language/zh_CN'
p169
sg16
S'77b657f38dffa1cc71bcfe1a15e55eb5'
p170
sa(dp171
g2
S'46991'
p172
sg4
S'1056'
p173
sg6
S'd66c95a4c1c7aa3ad1fe1162a8491ff3'
p174
sg8
S'xxbad50ca228801aab2eb9c0578a7b2f97'
p175
sg10
S'xx08291002af28f82cb5420307ad66e899'
p176
sg12
S'xx54d65f2ed9cba4765e7435531e43ce4c'
p177
sg14
S'Mozilla/5.0 (Linux; Android 5.1.1; vivo Y51 Build/LMY47V) AppleWebKit/537.36 (KHTML, like Gecko) Version/4.0 Chrome/37.0.0.0 Mobile MQQBrowser/6.8 TBS/036849 Safari/537.36 MicroMessenger/6.3.27.880 NetType/WIFI Language/zh_CN'
p178
sg16
S'77b657f38dffa1cc71bcfe1a15e55eb5'
p179
sa(dp180
g2
S'46991'
p181
sg4
S'1078'
p182
sg6
S'd66c95a4c1c7aa3ad1fe1162a8491ff3'
p183
sg8
S'xxbad50ca228801aab2eb9c0578a7b2f97'
p184
sg10
S'xx08291002af28f82cb5420307ad66e899'
p185
sg12
S'xx54d65f2ed9cba4765e7435531e43ce4c'
p186
sg14
S'Mozilla/5.0 (Linux; Android 5.1.1; vivo Y51 Build/LMY47V) AppleWebKit/537.36 (KHTML, like Gecko) Version/4.0 Chrome/37.0.0.0 Mobile MQQBrowser/6.8 TBS/036849 Safari/537.36 MicroMessenger/6.3.27.880 NetType/WIFI Language/zh_CN'
p187
sg16
S'77b657f38dffa1cc71bcfe1a15e55eb5'
p188
sa(dp189
g2
S'46991'
p190
sg4
S'1094'
p191
sg6
S'd66c95a4c1c7aa3ad1fe1162a8491ff3'
p192
sg8
S'xxbad50ca228801aab2eb9c0578a7b2f97'
p193
sg10
S'xx08291002af28f82cb5420307ad66e899'
p194
sg12
S'xx54d65f2ed9cba4765e7435531e43ce4c'
p195
sg14
S'Mozilla/5.0 (Linux; Android 5.1.1; vivo Y51 Build/LMY47V) AppleWebKit/537.36 (KHTML, like Gecko) Version/4.0 Chrome/37.0.0.0 Mobile MQQBrowser/6.8 TBS/036849 Safari/537.36 MicroMessenger/6.3.27.880 NetType/WIFI Language/zh_CN'
p196
sg16
S'77b657f38dffa1cc71bcfe1a15e55eb5'
p197
sa(dp198
g2
S'46991'
p199
sg4
S'1109'
p200
sg6
S'd66c95a4c1c7aa3ad1fe1162a8491ff3'
p201
sg8
S'xxbad50ca228801aab2eb9c0578a7b2f97'
p202
sg10
S'xx08291002af28f82cb5420307ad66e899'
p203
sg12
S'xx54d65f2ed9cba4765e7435531e43ce4c'
p204
sg14
S'Mozilla/5.0 (Linux; Android 5.1.1; vivo Y51 Build/LMY47V) AppleWebKit/537.36 (KHTML, like Gecko) Version/4.0 Chrome/37.0.0.0 Mobile MQQBrowser/6.8 TBS/036849 Safari/537.36 MicroMessenger/6.3.27.880 NetType/WIFI Language/zh_CN'
p205
sg16
S'77b657f38dffa1cc71bcfe1a15e55eb5'
p206
sa(dp207
g2
S'46991'
p208
sg4
S'1193'
p209
sg6
S'd66c95a4c1c7aa3ad1fe1162a8491ff3'
p210
sg8
S'xxbad50ca228801aab2eb9c0578a7b2f97'
p211
sg10
S'xx08291002af28f82cb5420307ad66e899'
p212
sg12
S'xx54d65f2ed9cba4765e7435531e43ce4c'
p213
sg14
S'Mozilla/5.0 (Linux; Android 5.1.1; vivo Y51 Build/LMY47V) AppleWebKit/537.36 (KHTML, like Gecko) Version/4.0 Chrome/37.0.0.0 Mobile MQQBrowser/6.8 TBS/036849 Safari/537.36 MicroMessenger/6.3.27.880 NetType/WIFI Language/zh_CN'
p214
sg16
S'77b657f38dffa1cc71bcfe1a15e55eb5'
p215
sa(dp216
g2
S'46991'
p217
sg4
S'1209'
p218
sg6
S'd66c95a4c1c7aa3ad1fe1162a8491ff3'
p219
sg8
S'xxbad50ca228801aab2eb9c0578a7b2f97'
p220
sg10
S'xx08291002af28f82cb5420307ad66e899'
p221
sg12
S'xx54d65f2ed9cba4765e7435531e43ce4c'
p222
sg14
S'Mozilla/5.0 (Linux; Android 5.1.1; vivo Y51 Build/LMY47V) AppleWebKit/537.36 (KHTML, like Gecko) Version/4.0 Chrome/37.0.0.0 Mobile MQQBrowser/6.8 TBS/036849 Safari/537.36 MicroMessenger/6.3.27.880 NetType/WIFI Language/zh_CN'
p223
sg16
S'77b657f38dffa1cc71bcfe1a15e55eb5'
p224
sa(dp225
g2
S'46991'
p226
sg4
S'1224'
p227
sg6
S'd66c95a4c1c7aa3ad1fe1162a8491ff3'
p228
sg8
S'xxbad50ca228801aab2eb9c0578a7b2f97'
p229
sg10
S'xx08291002af28f82cb5420307ad66e899'
p230
sg12
S'xx54d65f2ed9cba4765e7435531e43ce4c'
p231
sg14
S'Mozilla/5.0 (Linux; Android 5.1.1; vivo Y51 Build/LMY47V) AppleWebKit/537.36 (KHTML, like Gecko) Version/4.0 Chrome/37.0.0.0 Mobile MQQBrowser/6.8 TBS/036849 Safari/537.36 MicroMessenger/6.3.27.880 NetType/WIFI Language/zh_CN'
p232
sg16
S'77b657f38dffa1cc71bcfe1a15e55eb5'
p233
sa(dp234
g2
S'10672'
p235
sg4
S'1395'
p236
sg6
S'70650d592bfe20862c4f96a4a9fe77d6'
p237
sg8
S'xx7c7a4302fd998b8e0cb3021f56b8ad61'
p238
sg10
S'xx21ef2add7f5cbd50376b35ff47e55e00'
p239
sg12
S'xx54d65f2ed9cba4765e7435531e43ce4c'
p240
sg14
S'Mozilla/5.0 (Linux; Android 5.1.1; vivo Y51 Build/LMY47V) AppleWebKit/537.36 (KHTML, like Gecko) Version/4.0 Chrome/37.0.0.0 Mobile MQQBrowser/6.8 TBS/036849 Safari/537.36 MicroMessenger/6.3.25.861 NetType/WIFI Language/zh_CN'
p241
sg16
S'7a3dc9ad2725f8288ba3b0f9e1455161'
p242
sa(dp243
g2
S'10672'
p244
sg4
S'1419'
p245
sg6
S'70650d592bfe20862c4f96a4a9fe77d6'
p246
sg8
S'xx7c7a4302fd998b8e0cb3021f56b8ad61'
p247
sg10
S'xx21ef2add7f5cbd50376b35ff47e55e00'
p248
sg12
S'xx54d65f2ed9cba4765e7435531e43ce4c'
p249
sg14
S'Mozilla/5.0 (Linux; Android 5.1.1; vivo Y51 Build/LMY47V) AppleWebKit/537.36 (KHTML, like Gecko) Version/4.0 Chrome/37.0.0.0 Mobile MQQBrowser/6.8 TBS/036849 Safari/537.36 MicroMessenger/6.3.25.861 NetType/WIFI Language/zh_CN'
p250
sg16
S'7a3dc9ad2725f8288ba3b0f9e1455161'
p251
sa(dp252
g2
S'10672'
p253
sg4
S'1438'
p254
sg6
S'70650d592bfe20862c4f96a4a9fe77d6'
p255
sg8
S'xx7c7a4302fd998b8e0cb3021f56b8ad61'
p256
sg10
S'xx21ef2add7f5cbd50376b35ff47e55e00'
p257
sg12
S'xx54d65f2ed9cba4765e7435531e43ce4c'
p258
sg14
S'Mozilla/5.0 (Linux; Android 5.1.1; vivo Y51 Build/LMY47V) AppleWebKit/537.36 (KHTML, like Gecko) Version/4.0 Chrome/37.0.0.0 Mobile MQQBrowser/6.8 TBS/036849 Safari/537.36 MicroMessenger/6.3.25.861 NetType/WIFI Language/zh_CN'
p259
sg16
S'7a3dc9ad2725f8288ba3b0f9e1455161'
p260
sa(dp261
g2
S'10672'
p262
sg4
S'1463'
p263
sg6
S'70650d592bfe20862c4f96a4a9fe77d6'
p264
sg8
S'xx7c7a4302fd998b8e0cb3021f56b8ad61'
p265
sg10
S'xx21ef2add7f5cbd50376b35ff47e55e00'
p266
sg12
S'xx54d65f2ed9cba4765e7435531e43ce4c'
p267
sg14
S'Mozilla/5.0 (Linux; Android 5.1.1; vivo Y51 Build/LMY47V) AppleWebKit/537.36 (KHTML, like Gecko) Version/4.0 Chrome/37.0.0.0 Mobile MQQBrowser/6.8 TBS/036849 Safari/537.36 MicroMessenger/6.3.25.861 NetType/WIFI Language/zh_CN'
p268
sg16
S'7a3dc9ad2725f8288ba3b0f9e1455161'
p269
sa(dp270
g2
S'10672'
p271
sg4
S'1480'
p272
sg6
S'70650d592bfe20862c4f96a4a9fe77d6'
p273
sg8
S'xx7c7a4302fd998b8e0cb3021f56b8ad61'
p274
sg10
S'xx21ef2add7f5cbd50376b35ff47e55e00'
p275
sg12
S'xx54d65f2ed9cba4765e7435531e43ce4c'
p276
sg14
S'Mozilla/5.0 (Linux; Android 5.1.1; vivo Y51 Build/LMY47V) AppleWebKit/537.36 (KHTML, like Gecko) Version/4.0 Chrome/37.0.0.0 Mobile MQQBrowser/6.8 TBS/036849 Safari/537.36 MicroMessenger/6.3.25.861 NetType/WIFI Language/zh_CN'
p277
sg16
S'7a3dc9ad2725f8288ba3b0f9e1455161'
p278
sa(dp279
g2
S'46991'
p280
sg4
S'2070'
p281
sg6
S'd66c95a4c1c7aa3ad1fe1162a8491ff3'
p282
sg8
S'xxbad50ca228801aab2eb9c0578a7b2f97'
p283
sg10
S'xx08291002af28f82cb5420307ad66e899'
p284
sg12
S'xx54d65f2ed9cba4765e7435531e43ce4c'
p285
sg14
S'Mozilla/5.0 (Linux; Android 5.1.1; vivo Y51 Build/LMY47V) AppleWebKit/537.36 (KHTML, like Gecko) Version/4.0 Chrome/37.0.0.0 Mobile MQQBrowser/6.8 TBS/036849 Safari/537.36 MicroMessenger/6.3.27.880 NetType/WIFI Language/zh_CN'
p286
sg16
S'77b657f38dffa1cc71bcfe1a15e55eb5'
p287
sa(dp288
g2
S'46991'
p289
sg4
S'2084'
p290
sg6
S'd66c95a4c1c7aa3ad1fe1162a8491ff3'
p291
sg8
S'xxbad50ca228801aab2eb9c0578a7b2f97'
p292
sg10
S'xx08291002af28f82cb5420307ad66e899'
p293
sg12
S'xx54d65f2ed9cba4765e7435531e43ce4c'
p294
sg14
S'Mozilla/5.0 (Linux; Android 5.1.1; vivo Y51 Build/LMY47V) AppleWebKit/537.36 (KHTML, like Gecko) Version/4.0 Chrome/37.0.0.0 Mobile MQQBrowser/6.8 TBS/036849 Safari/537.36 MicroMessenger/6.3.27.880 NetType/WIFI Language/zh_CN'
p295
sg16
S'77b657f38dffa1cc71bcfe1a15e55eb5'
p296
sa(dp297
g2
S'10672'
p298
sg4
S'2806'
p299
sg6
S'70650d592bfe20862c4f96a4a9fe77d6'
p300
sg8
S'xx7c7a4302fd998b8e0cb3021f56b8ad61'
p301
sg10
S'xx21ef2add7f5cbd50376b35ff47e55e00'
p302
sg12
S'xx54d65f2ed9cba4765e7435531e43ce4c'
p303
sg14
S'Mozilla/5.0 (Linux; Android 5.1.1; vivo Y51 Build/LMY47V) AppleWebKit/537.36 (KHTML, like Gecko) Version/4.0 Chrome/37.0.0.0 Mobile MQQBrowser/6.8 TBS/036849 Safari/537.36 MicroMessenger/6.3.25.861 NetType/WIFI Language/zh_CN'
p304
sg16
S'7a3dc9ad2725f8288ba3b0f9e1455161'
p305
sa(dp306
g2
S'10672'
p307
sg4
S'2822'
p308
sg6
S'70650d592bfe20862c4f96a4a9fe77d6'
p309
sg8
S'xx7c7a4302fd998b8e0cb3021f56b8ad61'
p310
sg10
S'xx21ef2add7f5cbd50376b35ff47e55e00'
p311
sg12
S'xx54d65f2ed9cba4765e7435531e43ce4c'
p312
sg14
S'Mozilla/5.0 (Linux; Android 5.1.1; vivo Y51 Build/LMY47V) AppleWebKit/537.36 (KHTML, like Gecko) Version/4.0 Chrome/37.0.0.0 Mobile MQQBrowser/6.8 TBS/036849 Safari/537.36 MicroMessenger/6.3.25.861 NetType/WIFI Language/zh_CN'
p313
sg16
S'7a3dc9ad2725f8288ba3b0f9e1455161'
p314
sa(dp315
g2
S'10672'
p316
sg4
S'4329'
p317
sg6
S'f0aa28bb06217d46f9d47740dc5cab6c'
p318
sg8
S'xx7c7a4302fd998b8e0cb3021f56b8ad61'
p319
sg10
S'xx21ef2add7f5cbd50376b35ff47e55e00'
p320
sg12
S'xx54d65f2ed9cba4765e7435531e43ce4c'
p321
sg14
S'Mozilla/5.0 (Linux; Android 5.1.1; vivo Y51 Build/LMY47V) AppleWebKit/537.36 (KHTML, like Gecko) Version/4.0 Chrome/37.0.0.0 Mobile MQQBrowser/6.8 TBS/036849 Safari/537.36 MicroMessenger/6.3.25.861 NetType/WIFI Language/zh_CN'
p322
sg16
S'7a3dc9ad2725f8288ba3b0f9e1455161'
p323
sa(dp324
g2
S'10672'
p325
sg4
S'4343'
p326
sg6
S'f0aa28bb06217d46f9d47740dc5cab6c'
p327
sg8
S'xx7c7a4302fd998b8e0cb3021f56b8ad61'
p328
sg10
S'xx21ef2add7f5cbd50376b35ff47e55e00'
p329
sg12
S'xx54d65f2ed9cba4765e7435531e43ce4c'
p330
sg14
S'Mozilla/5.0 (Linux; Android 5.1.1; vivo Y51 Build/LMY47V) AppleWebKit/537.36 (KHTML, like Gecko) Version/4.0 Chrome/37.0.0.0 Mobile MQQBrowser/6.8 TBS/036849 Safari/537.36 MicroMessenger/6.3.25.861 NetType/WIFI Language/zh_CN'
p331
sg16
S'7a3dc9ad2725f8288ba3b0f9e1455161'
p332
sa(dp333
g2
S'10672'
p334
sg4
S'4365'
p335
sg6
S'f0aa28bb06217d46f9d47740dc5cab6c'
p336
sg8
S'xx7c7a4302fd998b8e0cb3021f56b8ad61'
p337
sg10
S'xx21ef2add7f5cbd50376b35ff47e55e00'
p338
sg12
S'xx54d65f2ed9cba4765e7435531e43ce4c'
p339
sg14
S'Mozilla/5.0 (Linux; Android 5.1.1; vivo Y51 Build/LMY47V) AppleWebKit/537.36 (KHTML, like Gecko) Version/4.0 Chrome/37.0.0.0 Mobile MQQBrowser/6.8 TBS/036849 Safari/537.36 MicroMessenger/6.3.25.861 NetType/WIFI Language/zh_CN'
p340
sg16
S'7a3dc9ad2725f8288ba3b0f9e1455161'
p341
sa(dp342
g2
S'10672'
p343
sg4
S'4393'
p344
sg6
S'f0aa28bb06217d46f9d47740dc5cab6c'
p345
sg8
S'xx7c7a4302fd998b8e0cb3021f56b8ad61'
p346
sg10
S'xx21ef2add7f5cbd50376b35ff47e55e00'
p347
sg12
S'xx54d65f2ed9cba4765e7435531e43ce4c'
p348
sg14
S'Mozilla/5.0 (Linux; Android 5.1.1; vivo Y51 Build/LMY47V) AppleWebKit/537.36 (KHTML, like Gecko) Version/4.0 Chrome/37.0.0.0 Mobile MQQBrowser/6.8 TBS/036849 Safari/537.36 MicroMessenger/6.3.25.861 NetType/WIFI Language/zh_CN'
p349
sg16
S'7a3dc9ad2725f8288ba3b0f9e1455161'
p350
sa(dp351
g2
S'10672'
p352
sg4
S'6159'
p353
sg6
S'70650d592bfe20862c4f96a4a9fe77d6'
p354
sg8
S'xx7c7a4302fd998b8e0cb3021f56b8ad61'
p355
sg10
S'xx21ef2add7f5cbd50376b35ff47e55e00'
p356
sg12
S'xx54d65f2ed9cba4765e7435531e43ce4c'
p357
sg14
S'Mozilla/5.0 (Linux; Android 5.1.1; vivo Y51 Build/LMY47V) AppleWebKit/537.36 (KHTML, like Gecko) Version/4.0 Chrome/37.0.0.0 Mobile MQQBrowser/6.8 TBS/036849 Safari/537.36 MicroMessenger/6.3.25.861 NetType/WIFI Language/zh_CN'
p358
sg16
S'7a3dc9ad2725f8288ba3b0f9e1455161'
p359
sa(dp360
g2
S'10672'
p361
sg4
S'6168'
p362
sg6
S'70650d592bfe20862c4f96a4a9fe77d6'
p363
sg8
S'xx7c7a4302fd998b8e0cb3021f56b8ad61'
p364
sg10
S'xx21ef2add7f5cbd50376b35ff47e55e00'
p365
sg12
S'xx54d65f2ed9cba4765e7435531e43ce4c'
p366
sg14
S'Mozilla/5.0 (Linux; Android 5.1.1; vivo Y51 Build/LMY47V) AppleWebKit/537.36 (KHTML, like Gecko) Version/4.0 Chrome/37.0.0.0 Mobile MQQBrowser/6.8 TBS/036849 Safari/537.36 MicroMessenger/6.3.25.861 NetType/WIFI Language/zh_CN'
p367
sg16
S'7a3dc9ad2725f8288ba3b0f9e1455161'
p368
sa(dp369
g2
S'10672'
p370
sg4
S'6184'
p371
sg6
S'70650d592bfe20862c4f96a4a9fe77d6'
p372
sg8
S'xx7c7a4302fd998b8e0cb3021f56b8ad61'
p373
sg10
S'xx21ef2add7f5cbd50376b35ff47e55e00'
p374
sg12
S'xx54d65f2ed9cba4765e7435531e43ce4c'
p375
sg14
S'Mozilla/5.0 (Linux; Android 5.1.1; vivo Y51 Build/LMY47V) AppleWebKit/537.36 (KHTML, like Gecko) Version/4.0 Chrome/37.0.0.0 Mobile MQQBrowser/6.8 TBS/036849 Safari/537.36 MicroMessenger/6.3.25.861 NetType/WIFI Language/zh_CN'
p376
sg16
S'7a3dc9ad2725f8288ba3b0f9e1455161'
p377
sa(dp378
g2
S'30411'
p379
sg4
S'7845'
p380
sg6
S'951ddfb533939e78289404d2b29d65c9'
p381
sg8
S'xx1c91c299fc335e3d3d1de2fc5bc434e9'
p382
sg10
S'xx21ef2add7f5cbd50376b35ff47e55e00'
p383
sg12
S'xx54d65f2ed9cba4765e7435531e43ce4c'
p384
sg14
S'Mozilla/5.0 (Linux; Android 5.1.1; vivo Y51 Build/LMY47V) AppleWebKit/537.36 (KHTML, like Gecko) Version/4.0 Chrome/37.0.0.0 Mobile MQQBrowser/6.8 TBS/036861 Safari/537.36 MicroMessenger/6.3.27.880 NetType/WIFI Language/zh_CN'
p385
sg16
S'd24938516601a33614cfcd4463e92aa4'
p386
sa(dp387
g2
S'30411'
p388
sg4
S'7902'
p389
sg6
S'951ddfb533939e78289404d2b29d65c9'
p390
sg8
S'xx1c91c299fc335e3d3d1de2fc5bc434e9'
p391
sg10
S'xx21ef2add7f5cbd50376b35ff47e55e00'
p392
sg12
S'xx54d65f2ed9cba4765e7435531e43ce4c'
p393
sg14
S'Mozilla/5.0 (Linux; Android 5.1.1; vivo Y51 Build/LMY47V) AppleWebKit/537.36 (KHTML, like Gecko) Version/4.0 Chrome/37.0.0.0 Mobile MQQBrowser/6.8 TBS/036861 Safari/537.36 MicroMessenger/6.3.27.880 NetType/WIFI Language/zh_CN'
p394
sg16
S'd24938516601a33614cfcd4463e92aa4'
p395
sa(dp396
g2
S'30411'
p397
sg4
S'7911'
p398
sg6
S'951ddfb533939e78289404d2b29d65c9'
p399
sg8
S'xx1c91c299fc335e3d3d1de2fc5bc434e9'
p400
sg10
S'xx21ef2add7f5cbd50376b35ff47e55e00'
p401
sg12
S'xx54d65f2ed9cba4765e7435531e43ce4c'
p402
sg14
S'Mozilla/5.0 (Linux; Android 5.1.1; vivo Y51 Build/LMY47V) AppleWebKit/537.36 (KHTML, like Gecko) Version/4.0 Chrome/37.0.0.0 Mobile MQQBrowser/6.8 TBS/036861 Safari/537.36 MicroMessenger/6.3.27.880 NetType/WIFI Language/zh_CN'
p403
sg16
S'd24938516601a33614cfcd4463e92aa4'
p404
sa(dp405
g2
S'10672'
p406
sg4
S'8346'
p407
sg6
S'f0aa28bb06217d46f9d47740dc5cab6c'
p408
sg8
S'xx7c7a4302fd998b8e0cb3021f56b8ad61'
p409
sg10
S'xx21ef2add7f5cbd50376b35ff47e55e00'
p410
sg12
S'xx54d65f2ed9cba4765e7435531e43ce4c'
p411
sg14
S'Mozilla/5.0 (Linux; Android 5.1.1; vivo Y51 Build/LMY47V) AppleWebKit/537.36 (KHTML, like Gecko) Version/4.0 Chrome/37.0.0.0 Mobile MQQBrowser/6.8 TBS/036849 Safari/537.36 MicroMessenger/6.3.25.861 NetType/WIFI Language/zh_CN'
p412
sg16
S'7a3dc9ad2725f8288ba3b0f9e1455161'
p413
sa(dp414
g2
S'10672'
p415
sg4
S'8360'
p416
sg6
S'f0aa28bb06217d46f9d47740dc5cab6c'
p417
sg8
S'xx7c7a4302fd998b8e0cb3021f56b8ad61'
p418
sg10
S'xx21ef2add7f5cbd50376b35ff47e55e00'
p419
sg12
S'xx54d65f2ed9cba4765e7435531e43ce4c'
p420
sg14
S'Mozilla/5.0 (Linux; Android 5.1.1; vivo Y51 Build/LMY47V) AppleWebKit/537.36 (KHTML, like Gecko) Version/4.0 Chrome/37.0.0.0 Mobile MQQBrowser/6.8 TBS/036849 Safari/537.36 MicroMessenger/6.3.25.861 NetType/WIFI Language/zh_CN'
p421
sg16
S'7a3dc9ad2725f8288ba3b0f9e1455161'
p422
sa.