(lp0
(dp1
S'user_id'
p2
S'5426'
p3
sS'data_id'
p4
S'154'
p5
sS'ip'
p6
S'5b48c78089c6f21a864d9e71cbaf0c9d'
p7
sS'phone_B'
p8
S'xx793cb56eb44b467d52f157b6e03236d5'
p9
sS'phone_C'
p10
S'xx75953413298bd753821e98513fdaabcc'
p11
sS'phone_A'
p12
S'xx55f0b48ce941bad8dbde256676bc5ce5'
p13
sS'user_agent'
p14
S'Mozilla/5.0 (Linux; Android 5.1.1; Mi-4c Build/LMY47V) AppleWebKit/537.36 (KHTML, like Gecko) Version/4.0 Chrome/37.0.0.0 Mobile MQQBrowser/6.8 TBS/036849 Safari/537.36 MicroMessenger/6.3.27.880 NetType/WIFI Language/zh_CN'
p15
sS'ua'
p16
S'cbf65985e94c5c8d5f145f92294f4e50'
p17
sa(dp18
g2
S'5426'
p19
sg4
S'170'
p20
sg6
S'5b48c78089c6f21a864d9e71cbaf0c9d'
p21
sg8
S'xx793cb56eb44b467d52f157b6e03236d5'
p22
sg10
S'xx75953413298bd753821e98513fdaabcc'
p23
sg12
S'xx55f0b48ce941bad8dbde256676bc5ce5'
p24
sg14
S'Mozilla/5.0 (Linux; Android 5.1.1; Mi-4c Build/LMY47V) AppleWebKit/537.36 (KHTML, like Gecko) Version/4.0 Chrome/37.0.0.0 Mobile MQQBrowser/6.8 TBS/036849 Safari/537.36 MicroMessenger/6.3.27.880 NetType/WIFI Language/zh_CN'
p25
sg16
S'cbf65985e94c5c8d5f145f92294f4e50'
p26
sa(dp27
g2
S'5426'
p28
sg4
S'184'
p29
sg6
S'5b48c78089c6f21a864d9e71cbaf0c9d'
p30
sg8
S'xx793cb56eb44b467d52f157b6e03236d5'
p31
sg10
S'xx75953413298bd753821e98513fdaabcc'
p32
sg12
S'xx55f0b48ce941bad8dbde256676bc5ce5'
p33
sg14
S'Mozilla/5.0 (Linux; Android 5.1.1; Mi-4c Build/LMY47V) AppleWebKit/537.36 (KHTML, like Gecko) Version/4.0 Chrome/37.0.0.0 Mobile MQQBrowser/6.8 TBS/036849 Safari/537.36 MicroMessenger/6.3.27.880 NetType/WIFI Language/zh_CN'
p34
sg16
S'cbf65985e94c5c8d5f145f92294f4e50'
p35
sa(dp36
g2
S'49741'
p37
sg4
S'554'
p38
sg6
S'6f9d457af057d70e609eeecbaab44612'
p39
sg8
S'xx793cb56eb44b467d52f157b6e03236d5'
p40
sg10
S'xx75953413298bd753821e98513fdaabcc'
p41
sg12
S'xx55f0b48ce941bad8dbde256676bc5ce5'
p42
sg14
S'Mozilla/5.0 (Linux; Android 5.1.1; Mi-4c Build/LMY47V) AppleWebKit/537.36 (KHTML, like Gecko) Version/4.0 Chrome/37.0.0.0 Mobile MQQBrowser/6.8 TBS/036849 Safari/537.36 MicroMessenger/6.3.27.880 NetType/WIFI Language/zh_CN'
p43
sg16
S'cbf65985e94c5c8d5f145f92294f4e50'
p44
sa(dp45
g2
S'49741'
p46
sg4
S'570'
p47
sg6
S'6f9d457af057d70e609eeecbaab44612'
p48
sg8
S'xx793cb56eb44b467d52f157b6e03236d5'
p49
sg10
S'xx75953413298bd753821e98513fdaabcc'
p50
sg12
S'xx55f0b48ce941bad8dbde256676bc5ce5'
p51
sg14
S'Mozilla/5.0 (Linux; Android 5.1.1; Mi-4c Build/LMY47V) AppleWebKit/537.36 (KHTML, like Gecko) Version/4.0 Chrome/37.0.0.0 Mobile MQQBrowser/6.8 TBS/036849 Safari/537.36 MicroMessenger/6.3.27.880 NetType/WIFI Language/zh_CN'
p52
sg16
S'cbf65985e94c5c8d5f145f92294f4e50'
p53
sa(dp54
g2
S'46178'
p55
sg4
S'693'
p56
sg6
S'5b48c78089c6f21a864d9e71cbaf0c9d'
p57
sg8
S'xx793cb56eb44b467d52f157b6e03236d5'
p58
sg10
S'xx75953413298bd753821e98513fdaabcc'
p59
sg12
S'xx55f0b48ce941bad8dbde256676bc5ce5'
p60
sg14
S'Mozilla/5.0 (Linux; Android 5.1.1; Mi-4c Build/LMY47V) AppleWebKit/537.36 (KHTML, like Gecko) Version/4.0 Chrome/37.0.0.0 Mobile MQQBrowser/6.8 TBS/036849 Safari/537.36 MicroMessenger/6.3.27.880 NetType/WIFI Language/zh_CN'
p61
sg16
S'cbf65985e94c5c8d5f145f92294f4e50'
p62
sa(dp63
g2
S'46178'
p64
sg4
S'706'
p65
sg6
S'5b48c78089c6f21a864d9e71cbaf0c9d'
p66
sg8
S'xx793cb56eb44b467d52f157b6e03236d5'
p67
sg10
S'xx75953413298bd753821e98513fdaabcc'
p68
sg12
S'xx55f0b48ce941bad8dbde256676bc5ce5'
p69
sg14
S'Mozilla/5.0 (Linux; Android 5.1.1; Mi-4c Build/LMY47V) AppleWebKit/537.36 (KHTML, like Gecko) Version/4.0 Chrome/37.0.0.0 Mobile MQQBrowser/6.8 TBS/036849 Safari/537.36 MicroMessenger/6.3.27.880 NetType/WIFI Language/zh_CN'
p70
sg16
S'cbf65985e94c5c8d5f145f92294f4e50'
p71
sa(dp72
g2
S'10354'
p73
sg4
S'788'
p74
sg6
S'bb253c38f47e65ae996b4ea409b55318'
p75
sg8
S'xx793cb56eb44b467d52f157b6e03236d5'
p76
sg10
S'xx75953413298bd753821e98513fdaabcc'
p77
sg12
S'xx55f0b48ce941bad8dbde256676bc5ce5'
p78
sg14
S'Mozilla/5.0 (Linux; Android 5.1.1; Mi-4c Build/LMY47V) AppleWebKit/537.36 (KHTML, like Gecko) Version/4.0 Chrome/37.0.0.0 Mobile MQQBrowser/6.8 TBS/036849 Safari/537.36 MicroMessenger/6.3.27.880 NetType/WIFI Language/zh_CN'
p79
sg16
S'cbf65985e94c5c8d5f145f92294f4e50'
p80
sa(dp81
g2
S'10354'
p82
sg4
S'806'
p83
sg6
S'bb253c38f47e65ae996b4ea409b55318'
p84
sg8
S'xx793cb56eb44b467d52f157b6e03236d5'
p85
sg10
S'xx75953413298bd753821e98513fdaabcc'
p86
sg12
S'xx55f0b48ce941bad8dbde256676bc5ce5'
p87
sg14
S'Mozilla/5.0 (Linux; Android 5.1.1; Mi-4c Build/LMY47V) AppleWebKit/537.36 (KHTML, like Gecko) Version/4.0 Chrome/37.0.0.0 Mobile MQQBrowser/6.8 TBS/036849 Safari/537.36 MicroMessenger/6.3.27.880 NetType/WIFI Language/zh_CN'
p88
sg16
S'cbf65985e94c5c8d5f145f92294f4e50'
p89
sa(dp90
g2
S'34267'
p91
sg4
S'856'
p92
sg6
S'5b48c78089c6f21a864d9e71cbaf0c9d'
p93
sg8
S'xx793cb56eb44b467d52f157b6e03236d5'
p94
sg10
S'xx75953413298bd753821e98513fdaabcc'
p95
sg12
S'xx55f0b48ce941bad8dbde256676bc5ce5'
p96
sg14
S'Mozilla/5.0 (Linux; Android 5.1.1; Mi-4c Build/LMY47V) AppleWebKit/537.36 (KHTML, like Gecko) Version/4.0 Chrome/37.0.0.0 Mobile MQQBrowser/6.8 TBS/036849 Safari/537.36 MicroMessenger/6.3.27.880 NetType/WIFI Language/zh_CN'
p97
sg16
S'cbf65985e94c5c8d5f145f92294f4e50'
p98
sa(dp99
g2
S'34267'
p100
sg4
S'878'
p101
sg6
S'5b48c78089c6f21a864d9e71cbaf0c9d'
p102
sg8
S'xx793cb56eb44b467d52f157b6e03236d5'
p103
sg10
S'xx75953413298bd753821e98513fdaabcc'
p104
sg12
S'xx55f0b48ce941bad8dbde256676bc5ce5'
p105
sg14
S'Mozilla/5.0 (Linux; Android 5.1.1; Mi-4c Build/LMY47V) AppleWebKit/537.36 (KHTML, like Gecko) Version/4.0 Chrome/37.0.0.0 Mobile MQQBrowser/6.8 TBS/036849 Safari/537.36 MicroMessenger/6.3.27.880 NetType/WIFI Language/zh_CN'
p106
sg16
S'cbf65985e94c5c8d5f145f92294f4e50'
p107
sa(dp108
g2
S'5426'
p109
sg4
S'958'
p110
sg6
S'5b48c78089c6f21a864d9e71cbaf0c9d'
p111
sg8
S'xx793cb56eb44b467d52f157b6e03236d5'
p112
sg10
S'xx75953413298bd753821e98513fdaabcc'
p113
sg12
S'xx55f0b48ce941bad8dbde256676bc5ce5'
p114
sg14
S'Mozilla/5.0 (Linux; Android 5.1.1; Mi-4c Build/LMY47V) AppleWebKit/537.36 (KHTML, like Gecko) Version/4.0 Chrome/37.0.0.0 Mobile MQQBrowser/6.8 TBS/036849 Safari/537.36 MicroMessenger/6.3.27.880 NetType/WIFI Language/zh_CN'
p115
sg16
S'cbf65985e94c5c8d5f145f92294f4e50'
p116
sa(dp117
g2
S'5426'
p118
sg4
S'974'
p119
sg6
S'5b48c78089c6f21a864d9e71cbaf0c9d'
p120
sg8
S'xx793cb56eb44b467d52f157b6e03236d5'
p121
sg10
S'xx75953413298bd753821e98513fdaabcc'
p122
sg12
S'xx55f0b48ce941bad8dbde256676bc5ce5'
p123
sg14
S'Mozilla/5.0 (Linux; Android 5.1.1; Mi-4c Build/LMY47V) AppleWebKit/537.36 (KHTML, like Gecko) Version/4.0 Chrome/37.0.0.0 Mobile MQQBrowser/6.8 TBS/036849 Safari/537.36 MicroMessenger/6.3.27.880 NetType/WIFI Language/zh_CN'
p124
sg16
S'cbf65985e94c5c8d5f145f92294f4e50'
p125
sa(dp126
g2
S'46178'
p127
sg4
S'1281'
p128
sg6
S'5b48c78089c6f21a864d9e71cbaf0c9d'
p129
sg8
S'xx793cb56eb44b467d52f157b6e03236d5'
p130
sg10
S'xx75953413298bd753821e98513fdaabcc'
p131
sg12
S'xx55f0b48ce941bad8dbde256676bc5ce5'
p132
sg14
S'Mozilla/5.0 (Linux; Android 5.1.1; Mi-4c Build/LMY47V) AppleWebKit/537.36 (KHTML, like Gecko) Version/4.0 Chrome/37.0.0.0 Mobile MQQBrowser/6.8 TBS/036849 Safari/537.36 MicroMessenger/6.3.27.880 NetType/WIFI Language/zh_CN'
p133
sg16
S'cbf65985e94c5c8d5f145f92294f4e50'
p134
sa(dp135
g2
S'46178'
p136
sg4
S'1296'
p137
sg6
S'5b48c78089c6f21a864d9e71cbaf0c9d'
p138
sg8
S'xx793cb56eb44b467d52f157b6e03236d5'
p139
sg10
S'xx75953413298bd753821e98513fdaabcc'
p140
sg12
S'xx55f0b48ce941bad8dbde256676bc5ce5'
p141
sg14
S'Mozilla/5.0 (Linux; Android 5.1.1; Mi-4c Build/LMY47V) AppleWebKit/537.36 (KHTML, like Gecko) Version/4.0 Chrome/37.0.0.0 Mobile MQQBrowser/6.8 TBS/036849 Safari/537.36 MicroMessenger/6.3.27.880 NetType/WIFI Language/zh_CN'
p142
sg16
S'cbf65985e94c5c8d5f145f92294f4e50'
p143
sa(dp144
g2
S'46178'
p145
sg4
S'1302'
p146
sg6
S'5b48c78089c6f21a864d9e71cbaf0c9d'
p147
sg8
S'xx793cb56eb44b467d52f157b6e03236d5'
p148
sg10
S'xx75953413298bd753821e98513fdaabcc'
p149
sg12
S'xx55f0b48ce941bad8dbde256676bc5ce5'
p150
sg14
S'Mozilla/5.0 (Linux; Android 5.1.1; Mi-4c Build/LMY47V) AppleWebKit/537.36 (KHTML, like Gecko) Version/4.0 Chrome/37.0.0.0 Mobile MQQBrowser/6.8 TBS/036849 Safari/537.36 MicroMessenger/6.3.27.880 NetType/WIFI Language/zh_CN'
p151
sg16
S'cbf65985e94c5c8d5f145f92294f4e50'
p152
sa(dp153
g2
S'34267'
p154
sg4
S'2256'
p155
sg6
S'5b48c78089c6f21a864d9e71cbaf0c9d'
p156
sg8
S'xx793cb56eb44b467d52f157b6e03236d5'
p157
sg10
S'xx75953413298bd753821e98513fdaabcc'
p158
sg12
S'xx55f0b48ce941bad8dbde256676bc5ce5'
p159
sg14
S'Mozilla/5.0 (Linux; Android 5.1.1; Mi-4c Build/LMY47V) AppleWebKit/537.36 (KHTML, like Gecko) Version/4.0 Chrome/37.0.0.0 Mobile MQQBrowser/6.8 TBS/036849 Safari/537.36 MicroMessenger/6.3.27.880 NetType/WIFI Language/zh_CN'
p160
sg16
S'cbf65985e94c5c8d5f145f92294f4e50'
p161
sa(dp162
g2
S'34267'
p163
sg4
S'2271'
p164
sg6
S'5b48c78089c6f21a864d9e71cbaf0c9d'
p165
sg8
S'xx793cb56eb44b467d52f157b6e03236d5'
p166
sg10
S'xx75953413298bd753821e98513fdaabcc'
p167
sg12
S'xx55f0b48ce941bad8dbde256676bc5ce5'
p168
sg14
S'Mozilla/5.0 (Linux; Android 5.1.1; Mi-4c Build/LMY47V) AppleWebKit/537.36 (KHTML, like Gecko) Version/4.0 Chrome/37.0.0.0 Mobile MQQBrowser/6.8 TBS/036849 Safari/537.36 MicroMessenger/6.3.27.880 NetType/WIFI Language/zh_CN'
p169
sg16
S'cbf65985e94c5c8d5f145f92294f4e50'
p170
sa(dp171
g2
S'34267'
p172
sg4
S'2286'
p173
sg6
S'5b48c78089c6f21a864d9e71cbaf0c9d'
p174
sg8
S'xx793cb56eb44b467d52f157b6e03236d5'
p175
sg10
S'xx75953413298bd753821e98513fdaabcc'
p176
sg12
S'xx55f0b48ce941bad8dbde256676bc5ce5'
p177
sg14
S'Mozilla/5.0 (Linux; Android 5.1.1; Mi-4c Build/LMY47V) AppleWebKit/537.36 (KHTML, like Gecko) Version/4.0 Chrome/37.0.0.0 Mobile MQQBrowser/6.8 TBS/036849 Safari/537.36 MicroMessenger/6.3.27.880 NetType/WIFI Language/zh_CN'
p178
sg16
S'cbf65985e94c5c8d5f145f92294f4e50'
p179
sa(dp180
g2
S'5426'
p181
sg4
S'2566'
p182
sg6
S'5b48c78089c6f21a864d9e71cbaf0c9d'
p183
sg8
S'xx793cb56eb44b467d52f157b6e03236d5'
p184
sg10
S'xx75953413298bd753821e98513fdaabcc'
p185
sg12
S'xx55f0b48ce941bad8dbde256676bc5ce5'
p186
sg14
S'Mozilla/5.0 (Linux; Android 5.1.1; Mi-4c Build/LMY47V) AppleWebKit/537.36 (KHTML, like Gecko) Version/4.0 Chrome/37.0.0.0 Mobile MQQBrowser/6.8 TBS/036849 Safari/537.36 MicroMessenger/6.3.27.880 NetType/WIFI Language/zh_CN'
p187
sg16
S'cbf65985e94c5c8d5f145f92294f4e50'
p188
sa(dp189
g2
S'5426'
p190
sg4
S'2581'
p191
sg6
S'5b48c78089c6f21a864d9e71cbaf0c9d'
p192
sg8
S'xx793cb56eb44b467d52f157b6e03236d5'
p193
sg10
S'xx75953413298bd753821e98513fdaabcc'
p194
sg12
S'xx55f0b48ce941bad8dbde256676bc5ce5'
p195
sg14
S'Mozilla/5.0 (Linux; Android 5.1.1; Mi-4c Build/LMY47V) AppleWebKit/537.36 (KHTML, like Gecko) Version/4.0 Chrome/37.0.0.0 Mobile MQQBrowser/6.8 TBS/036849 Safari/537.36 MicroMessenger/6.3.27.880 NetType/WIFI Language/zh_CN'
p196
sg16
S'cbf65985e94c5c8d5f145f92294f4e50'
p197
sa(dp198
g2
S'5426'
p199
sg4
S'2596'
p200
sg6
S'5b48c78089c6f21a864d9e71cbaf0c9d'
p201
sg8
S'xx793cb56eb44b467d52f157b6e03236d5'
p202
sg10
S'xx75953413298bd753821e98513fdaabcc'
p203
sg12
S'xx55f0b48ce941bad8dbde256676bc5ce5'
p204
sg14
S'Mozilla/5.0 (Linux; Android 5.1.1; Mi-4c Build/LMY47V) AppleWebKit/537.36 (KHTML, like Gecko) Version/4.0 Chrome/37.0.0.0 Mobile MQQBrowser/6.8 TBS/036849 Safari/537.36 MicroMessenger/6.3.27.880 NetType/WIFI Language/zh_CN'
p205
sg16
S'cbf65985e94c5c8d5f145f92294f4e50'
p206
sa(dp207
g2
S'46178'
p208
sg4
S'2830'
p209
sg6
S'5b48c78089c6f21a864d9e71cbaf0c9d'
p210
sg8
S'xx793cb56eb44b467d52f157b6e03236d5'
p211
sg10
S'xx75953413298bd753821e98513fdaabcc'
p212
sg12
S'xx55f0b48ce941bad8dbde256676bc5ce5'
p213
sg14
S'Mozilla/5.0 (Linux; Android 5.1.1; Mi-4c Build/LMY47V) AppleWebKit/537.36 (KHTML, like Gecko) Version/4.0 Chrome/37.0.0.0 Mobile MQQBrowser/6.8 TBS/036849 Safari/537.36 MicroMessenger/6.3.27.880 NetType/WIFI Language/zh_CN'
p214
sg16
S'cbf65985e94c5c8d5f145f92294f4e50'
p215
sa(dp216
g2
S'46178'
p217
sg4
S'2853'
p218
sg6
S'5b48c78089c6f21a864d9e71cbaf0c9d'
p219
sg8
S'xx793cb56eb44b467d52f157b6e03236d5'
p220
sg10
S'xx75953413298bd753821e98513fdaabcc'
p221
sg12
S'xx55f0b48ce941bad8dbde256676bc5ce5'
p222
sg14
S'Mozilla/5.0 (Linux; Android 5.1.1; Mi-4c Build/LMY47V) AppleWebKit/537.36 (KHTML, like Gecko) Version/4.0 Chrome/37.0.0.0 Mobile MQQBrowser/6.8 TBS/036849 Safari/537.36 MicroMessenger/6.3.27.880 NetType/WIFI Language/zh_CN'
p223
sg16
S'cbf65985e94c5c8d5f145f92294f4e50'
p224
sa(dp225
g2
S'34267'
p226
sg4
S'3171'
p227
sg6
S'5b48c78089c6f21a864d9e71cbaf0c9d'
p228
sg8
S'xx793cb56eb44b467d52f157b6e03236d5'
p229
sg10
S'xx75953413298bd753821e98513fdaabcc'
p230
sg12
S'xx55f0b48ce941bad8dbde256676bc5ce5'
p231
sg14
S'Mozilla/5.0 (Linux; Android 5.1.1; Mi-4c Build/LMY47V) AppleWebKit/537.36 (KHTML, like Gecko) Version/4.0 Chrome/37.0.0.0 Mobile MQQBrowser/6.8 TBS/036849 Safari/537.36 MicroMessenger/6.3.27.880 NetType/WIFI Language/zh_CN'
p232
sg16
S'cbf65985e94c5c8d5f145f92294f4e50'
p233
sa(dp234
g2
S'34267'
p235
sg4
S'3186'
p236
sg6
S'5b48c78089c6f21a864d9e71cbaf0c9d'
p237
sg8
S'xx793cb56eb44b467d52f157b6e03236d5'
p238
sg10
S'xx75953413298bd753821e98513fdaabcc'
p239
sg12
S'xx55f0b48ce941bad8dbde256676bc5ce5'
p240
sg14
S'Mozilla/5.0 (Linux; Android 5.1.1; Mi-4c Build/LMY47V) AppleWebKit/537.36 (KHTML, like Gecko) Version/4.0 Chrome/37.0.0.0 Mobile MQQBrowser/6.8 TBS/036849 Safari/537.36 MicroMessenger/6.3.27.880 NetType/WIFI Language/zh_CN'
p241
sg16
S'cbf65985e94c5c8d5f145f92294f4e50'
p242
sa(dp243
g2
S'5426'
p244
sg4
S'3290'
p245
sg6
S'5b48c78089c6f21a864d9e71cbaf0c9d'
p246
sg8
S'xx793cb56eb44b467d52f157b6e03236d5'
p247
sg10
S'xx75953413298bd753821e98513fdaabcc'
p248
sg12
S'xx55f0b48ce941bad8dbde256676bc5ce5'
p249
sg14
S'Mozilla/5.0 (Linux; Android 5.1.1; Mi-4c Build/LMY47V) AppleWebKit/537.36 (KHTML, like Gecko) Version/4.0 Chrome/37.0.0.0 Mobile MQQBrowser/6.8 TBS/036849 Safari/537.36 MicroMessenger/6.3.27.880 NetType/WIFI Language/zh_CN'
p250
sg16
S'cbf65985e94c5c8d5f145f92294f4e50'
p251
sa(dp252
g2
S'5426'
p253
sg4
S'3303'
p254
sg6
S'5b48c78089c6f21a864d9e71cbaf0c9d'
p255
sg8
S'xx793cb56eb44b467d52f157b6e03236d5'
p256
sg10
S'xx75953413298bd753821e98513fdaabcc'
p257
sg12
S'xx55f0b48ce941bad8dbde256676bc5ce5'
p258
sg14
S'Mozilla/5.0 (Linux; Android 5.1.1; Mi-4c Build/LMY47V) AppleWebKit/537.36 (KHTML, like Gecko) Version/4.0 Chrome/37.0.0.0 Mobile MQQBrowser/6.8 TBS/036849 Safari/537.36 MicroMessenger/6.3.27.880 NetType/WIFI Language/zh_CN'
p259
sg16
S'cbf65985e94c5c8d5f145f92294f4e50'
p260
sa(dp261
g2
S'46178'
p262
sg4
S'3583'
p263
sg6
S'5b48c78089c6f21a864d9e71cbaf0c9d'
p264
sg8
S'xx793cb56eb44b467d52f157b6e03236d5'
p265
sg10
S'xx75953413298bd753821e98513fdaabcc'
p266
sg12
S'xx55f0b48ce941bad8dbde256676bc5ce5'
p267
sg14
S'Mozilla/5.0 (Linux; Android 5.1.1; Mi-4c Build/LMY47V) AppleWebKit/537.36 (KHTML, like Gecko) Version/4.0 Chrome/37.0.0.0 Mobile MQQBrowser/6.8 TBS/036849 Safari/537.36 MicroMessenger/6.3.27.880 NetType/WIFI Language/zh_CN'
p268
sg16
S'cbf65985e94c5c8d5f145f92294f4e50'
p269
sa(dp270
g2
S'46178'
p271
sg4
S'3595'
p272
sg6
S'5b48c78089c6f21a864d9e71cbaf0c9d'
p273
sg8
S'xx793cb56eb44b467d52f157b6e03236d5'
p274
sg10
S'xx75953413298bd753821e98513fdaabcc'
p275
sg12
S'xx55f0b48ce941bad8dbde256676bc5ce5'
p276
sg14
S'Mozilla/5.0 (Linux; Android 5.1.1; Mi-4c Build/LMY47V) AppleWebKit/537.36 (KHTML, like Gecko) Version/4.0 Chrome/37.0.0.0 Mobile MQQBrowser/6.8 TBS/036849 Safari/537.36 MicroMessenger/6.3.27.880 NetType/WIFI Language/zh_CN'
p277
sg16
S'cbf65985e94c5c8d5f145f92294f4e50'
p278
sa(dp279
g2
S'5426'
p280
sg4
S'4066'
p281
sg6
S'5b48c78089c6f21a864d9e71cbaf0c9d'
p282
sg8
S'xx793cb56eb44b467d52f157b6e03236d5'
p283
sg10
S'xx75953413298bd753821e98513fdaabcc'
p284
sg12
S'xx55f0b48ce941bad8dbde256676bc5ce5'
p285
sg14
S'Mozilla/5.0 (Linux; Android 5.1.1; Mi-4c Build/LMY47V) AppleWebKit/537.36 (KHTML, like Gecko) Version/4.0 Chrome/37.0.0.0 Mobile MQQBrowser/6.8 TBS/036849 Safari/537.36 MicroMessenger/6.3.27.880 NetType/WIFI Language/zh_CN'
p286
sg16
S'cbf65985e94c5c8d5f145f92294f4e50'
p287
sa(dp288
g2
S'5426'
p289
sg4
S'4096'
p290
sg6
S'5b48c78089c6f21a864d9e71cbaf0c9d'
p291
sg8
S'xx793cb56eb44b467d52f157b6e03236d5'
p292
sg10
S'xx75953413298bd753821e98513fdaabcc'
p293
sg12
S'xx55f0b48ce941bad8dbde256676bc5ce5'
p294
sg14
S'Mozilla/5.0 (Linux; Android 5.1.1; Mi-4c Build/LMY47V) AppleWebKit/537.36 (KHTML, like Gecko) Version/4.0 Chrome/37.0.0.0 Mobile MQQBrowser/6.8 TBS/036849 Safari/537.36 MicroMessenger/6.3.27.880 NetType/WIFI Language/zh_CN'
p295
sg16
S'cbf65985e94c5c8d5f145f92294f4e50'
p296
sa(dp297
g2
S'46178'
p298
sg4
S'4504'
p299
sg6
S'5b48c78089c6f21a864d9e71cbaf0c9d'
p300
sg8
S'xx793cb56eb44b467d52f157b6e03236d5'
p301
sg10
S'xx75953413298bd753821e98513fdaabcc'
p302
sg12
S'xx55f0b48ce941bad8dbde256676bc5ce5'
p303
sg14
S'Mozilla/5.0 (Linux; Android 5.1.1; Mi-4c Build/LMY47V) AppleWebKit/537.36 (KHTML, like Gecko) Version/4.0 Chrome/37.0.0.0 Mobile MQQBrowser/6.8 TBS/036849 Safari/537.36 MicroMessenger/6.3.27.880 NetType/WIFI Language/zh_CN'
p304
sg16
S'cbf65985e94c5c8d5f145f92294f4e50'
p305
sa(dp306
g2
S'46178'
p307
sg4
S'4524'
p308
sg6
S'5b48c78089c6f21a864d9e71cbaf0c9d'
p309
sg8
S'xx793cb56eb44b467d52f157b6e03236d5'
p310
sg10
S'xx75953413298bd753821e98513fdaabcc'
p311
sg12
S'xx55f0b48ce941bad8dbde256676bc5ce5'
p312
sg14
S'Mozilla/5.0 (Linux; Android 5.1.1; Mi-4c Build/LMY47V) AppleWebKit/537.36 (KHTML, like Gecko) Version/4.0 Chrome/37.0.0.0 Mobile MQQBrowser/6.8 TBS/036849 Safari/537.36 MicroMessenger/6.3.27.880 NetType/WIFI Language/zh_CN'
p313
sg16
S'cbf65985e94c5c8d5f145f92294f4e50'
p314
sa(dp315
g2
S'46178'
p316
sg4
S'4886'
p317
sg6
S'5b48c78089c6f21a864d9e71cbaf0c9d'
p318
sg8
S'xx793cb56eb44b467d52f157b6e03236d5'
p319
sg10
S'xx75953413298bd753821e98513fdaabcc'
p320
sg12
S'xx55f0b48ce941bad8dbde256676bc5ce5'
p321
sg14
S'Mozilla/5.0 (Linux; Android 5.1.1; Mi-4c Build/LMY47V) AppleWebKit/537.36 (KHTML, like Gecko) Version/4.0 Chrome/37.0.0.0 Mobile MQQBrowser/6.8 TBS/036849 Safari/537.36 MicroMessenger/6.3.27.880 NetType/WIFI Language/zh_CN'
p322
sg16
S'cbf65985e94c5c8d5f145f92294f4e50'
p323
sa(dp324
g2
S'46178'
p325
sg4
S'4904'
p326
sg6
S'5b48c78089c6f21a864d9e71cbaf0c9d'
p327
sg8
S'xx793cb56eb44b467d52f157b6e03236d5'
p328
sg10
S'xx75953413298bd753821e98513fdaabcc'
p329
sg12
S'xx55f0b48ce941bad8dbde256676bc5ce5'
p330
sg14
S'Mozilla/5.0 (Linux; Android 5.1.1; Mi-4c Build/LMY47V) AppleWebKit/537.36 (KHTML, like Gecko) Version/4.0 Chrome/37.0.0.0 Mobile MQQBrowser/6.8 TBS/036849 Safari/537.36 MicroMessenger/6.3.27.880 NetType/WIFI Language/zh_CN'
p331
sg16
S'cbf65985e94c5c8d5f145f92294f4e50'
p332
sa(dp333
g2
S'46178'
p334
sg4
S'4918'
p335
sg6
S'5b48c78089c6f21a864d9e71cbaf0c9d'
p336
sg8
S'xx793cb56eb44b467d52f157b6e03236d5'
p337
sg10
S'xx75953413298bd753821e98513fdaabcc'
p338
sg12
S'xx55f0b48ce941bad8dbde256676bc5ce5'
p339
sg14
S'Mozilla/5.0 (Linux; Android 5.1.1; Mi-4c Build/LMY47V) AppleWebKit/537.36 (KHTML, like Gecko) Version/4.0 Chrome/37.0.0.0 Mobile MQQBrowser/6.8 TBS/036849 Safari/537.36 MicroMessenger/6.3.27.880 NetType/WIFI Language/zh_CN'
p340
sg16
S'cbf65985e94c5c8d5f145f92294f4e50'
p341
sa(dp342
g2
S'46178'
p343
sg4
S'5065'
p344
sg6
S'5b48c78089c6f21a864d9e71cbaf0c9d'
p345
sg8
S'xx793cb56eb44b467d52f157b6e03236d5'
p346
sg10
S'xx75953413298bd753821e98513fdaabcc'
p347
sg12
S'xx55f0b48ce941bad8dbde256676bc5ce5'
p348
sg14
S'Mozilla/5.0 (Linux; Android 5.1.1; Mi-4c Build/LMY47V) AppleWebKit/537.36 (KHTML, like Gecko) Version/4.0 Chrome/37.0.0.0 Mobile MQQBrowser/6.8 TBS/036849 Safari/537.36 MicroMessenger/6.3.27.880 NetType/WIFI Language/zh_CN'
p349
sg16
S'cbf65985e94c5c8d5f145f92294f4e50'
p350
sa(dp351
g2
S'46178'
p352
sg4
S'5083'
p353
sg6
S'5b48c78089c6f21a864d9e71cbaf0c9d'
p354
sg8
S'xx793cb56eb44b467d52f157b6e03236d5'
p355
sg10
S'xx75953413298bd753821e98513fdaabcc'
p356
sg12
S'xx55f0b48ce941bad8dbde256676bc5ce5'
p357
sg14
S'Mozilla/5.0 (Linux; Android 5.1.1; Mi-4c Build/LMY47V) AppleWebKit/537.36 (KHTML, like Gecko) Version/4.0 Chrome/37.0.0.0 Mobile MQQBrowser/6.8 TBS/036849 Safari/537.36 MicroMessenger/6.3.27.880 NetType/WIFI Language/zh_CN'
p358
sg16
S'cbf65985e94c5c8d5f145f92294f4e50'
p359
sa(dp360
g2
S'46178'
p361
sg4
S'5103'
p362
sg6
S'5b48c78089c6f21a864d9e71cbaf0c9d'
p363
sg8
S'xx793cb56eb44b467d52f157b6e03236d5'
p364
sg10
S'xx75953413298bd753821e98513fdaabcc'
p365
sg12
S'xx55f0b48ce941bad8dbde256676bc5ce5'
p366
sg14
S'Mozilla/5.0 (Linux; Android 5.1.1; Mi-4c Build/LMY47V) AppleWebKit/537.36 (KHTML, like Gecko) Version/4.0 Chrome/37.0.0.0 Mobile MQQBrowser/6.8 TBS/036849 Safari/537.36 MicroMessenger/6.3.27.880 NetType/WIFI Language/zh_CN'
p367
sg16
S'cbf65985e94c5c8d5f145f92294f4e50'
p368
sa(dp369
g2
S'5426'
p370
sg4
S'5860'
p371
sg6
S'5b48c78089c6f21a864d9e71cbaf0c9d'
p372
sg8
S'xx793cb56eb44b467d52f157b6e03236d5'
p373
sg10
S'xx75953413298bd753821e98513fdaabcc'
p374
sg12
S'xx55f0b48ce941bad8dbde256676bc5ce5'
p375
sg14
S'Mozilla/5.0 (Linux; Android 5.1.1; Mi-4c Build/LMY47V) AppleWebKit/537.36 (KHTML, like Gecko) Version/4.0 Chrome/37.0.0.0 Mobile MQQBrowser/6.8 TBS/036849 Safari/537.36 MicroMessenger/6.3.27.880 NetType/WIFI Language/zh_CN'
p376
sg16
S'cbf65985e94c5c8d5f145f92294f4e50'
p377
sa(dp378
g2
S'5426'
p379
sg4
S'5874'
p380
sg6
S'5b48c78089c6f21a864d9e71cbaf0c9d'
p381
sg8
S'xx793cb56eb44b467d52f157b6e03236d5'
p382
sg10
S'xx75953413298bd753821e98513fdaabcc'
p383
sg12
S'xx55f0b48ce941bad8dbde256676bc5ce5'
p384
sg14
S'Mozilla/5.0 (Linux; Android 5.1.1; Mi-4c Build/LMY47V) AppleWebKit/537.36 (KHTML, like Gecko) Version/4.0 Chrome/37.0.0.0 Mobile MQQBrowser/6.8 TBS/036849 Safari/537.36 MicroMessenger/6.3.27.880 NetType/WIFI Language/zh_CN'
p385
sg16
S'cbf65985e94c5c8d5f145f92294f4e50'
p386
sa(dp387
g2
S'34267'
p388
sg4
S'6054'
p389
sg6
S'5b48c78089c6f21a864d9e71cbaf0c9d'
p390
sg8
S'xx793cb56eb44b467d52f157b6e03236d5'
p391
sg10
S'xx75953413298bd753821e98513fdaabcc'
p392
sg12
S'xx55f0b48ce941bad8dbde256676bc5ce5'
p393
sg14
S'Mozilla/5.0 (Linux; Android 5.1.1; Mi-4c Build/LMY47V) AppleWebKit/537.36 (KHTML, like Gecko) Version/4.0 Chrome/37.0.0.0 Mobile MQQBrowser/6.8 TBS/036849 Safari/537.36 MicroMessenger/6.3.27.880 NetType/WIFI Language/zh_CN'
p394
sg16
S'cbf65985e94c5c8d5f145f92294f4e50'
p395
sa(dp396
g2
S'34267'
p397
sg4
S'6067'
p398
sg6
S'5b48c78089c6f21a864d9e71cbaf0c9d'
p399
sg8
S'xx793cb56eb44b467d52f157b6e03236d5'
p400
sg10
S'xx75953413298bd753821e98513fdaabcc'
p401
sg12
S'xx55f0b48ce941bad8dbde256676bc5ce5'
p402
sg14
S'Mozilla/5.0 (Linux; Android 5.1.1; Mi-4c Build/LMY47V) AppleWebKit/537.36 (KHTML, like Gecko) Version/4.0 Chrome/37.0.0.0 Mobile MQQBrowser/6.8 TBS/036849 Safari/537.36 MicroMessenger/6.3.27.880 NetType/WIFI Language/zh_CN'
p403
sg16
S'cbf65985e94c5c8d5f145f92294f4e50'
p404
sa(dp405
g2
S'34267'
p406
sg4
S'6111'
p407
sg6
S'5b48c78089c6f21a864d9e71cbaf0c9d'
p408
sg8
S'xx793cb56eb44b467d52f157b6e03236d5'
p409
sg10
S'xx75953413298bd753821e98513fdaabcc'
p410
sg12
S'xx55f0b48ce941bad8dbde256676bc5ce5'
p411
sg14
S'Mozilla/5.0 (Linux; Android 5.1.1; Mi-4c Build/LMY47V) AppleWebKit/537.36 (KHTML, like Gecko) Version/4.0 Chrome/37.0.0.0 Mobile MQQBrowser/6.8 TBS/036849 Safari/537.36 MicroMessenger/6.3.27.880 NetType/WIFI Language/zh_CN'
p412
sg16
S'cbf65985e94c5c8d5f145f92294f4e50'
p413
sa(dp414
g2
S'34267'
p415
sg4
S'6128'
p416
sg6
S'5b48c78089c6f21a864d9e71cbaf0c9d'
p417
sg8
S'xx793cb56eb44b467d52f157b6e03236d5'
p418
sg10
S'xx75953413298bd753821e98513fdaabcc'
p419
sg12
S'xx55f0b48ce941bad8dbde256676bc5ce5'
p420
sg14
S'Mozilla/5.0 (Linux; Android 5.1.1; Mi-4c Build/LMY47V) AppleWebKit/537.36 (KHTML, like Gecko) Version/4.0 Chrome/37.0.0.0 Mobile MQQBrowser/6.8 TBS/036849 Safari/537.36 MicroMessenger/6.3.27.880 NetType/WIFI Language/zh_CN'
p421
sg16
S'cbf65985e94c5c8d5f145f92294f4e50'
p422
sa(dp423
g2
S'34267'
p424
sg4
S'6143'
p425
sg6
S'5b48c78089c6f21a864d9e71cbaf0c9d'
p426
sg8
S'xx793cb56eb44b467d52f157b6e03236d5'
p427
sg10
S'xx75953413298bd753821e98513fdaabcc'
p428
sg12
S'xx55f0b48ce941bad8dbde256676bc5ce5'
p429
sg14
S'Mozilla/5.0 (Linux; Android 5.1.1; Mi-4c Build/LMY47V) AppleWebKit/537.36 (KHTML, like Gecko) Version/4.0 Chrome/37.0.0.0 Mobile MQQBrowser/6.8 TBS/036849 Safari/537.36 MicroMessenger/6.3.27.880 NetType/WIFI Language/zh_CN'
p430
sg16
S'cbf65985e94c5c8d5f145f92294f4e50'
p431
sa(dp432
g2
S'34267'
p433
sg4
S'6158'
p434
sg6
S'5b48c78089c6f21a864d9e71cbaf0c9d'
p435
sg8
S'xx793cb56eb44b467d52f157b6e03236d5'
p436
sg10
S'xx75953413298bd753821e98513fdaabcc'
p437
sg12
S'xx55f0b48ce941bad8dbde256676bc5ce5'
p438
sg14
S'Mozilla/5.0 (Linux; Android 5.1.1; Mi-4c Build/LMY47V) AppleWebKit/537.36 (KHTML, like Gecko) Version/4.0 Chrome/37.0.0.0 Mobile MQQBrowser/6.8 TBS/036849 Safari/537.36 MicroMessenger/6.3.27.880 NetType/WIFI Language/zh_CN'
p439
sg16
S'cbf65985e94c5c8d5f145f92294f4e50'
p440
sa(dp441
g2
S'34267'
p442
sg4
S'6169'
p443
sg6
S'5b48c78089c6f21a864d9e71cbaf0c9d'
p444
sg8
S'xx793cb56eb44b467d52f157b6e03236d5'
p445
sg10
S'xx75953413298bd753821e98513fdaabcc'
p446
sg12
S'xx55f0b48ce941bad8dbde256676bc5ce5'
p447
sg14
S'Mozilla/5.0 (Linux; Android 5.1.1; Mi-4c Build/LMY47V) AppleWebKit/537.36 (KHTML, like Gecko) Version/4.0 Chrome/37.0.0.0 Mobile MQQBrowser/6.8 TBS/036849 Safari/537.36 MicroMessenger/6.3.27.880 NetType/WIFI Language/zh_CN'
p448
sg16
S'cbf65985e94c5c8d5f145f92294f4e50'
p449
sa(dp450
g2
S'34267'
p451
sg4
S'6185'
p452
sg6
S'5b48c78089c6f21a864d9e71cbaf0c9d'
p453
sg8
S'xx793cb56eb44b467d52f157b6e03236d5'
p454
sg10
S'xx75953413298bd753821e98513fdaabcc'
p455
sg12
S'xx55f0b48ce941bad8dbde256676bc5ce5'
p456
sg14
S'Mozilla/5.0 (Linux; Android 5.1.1; Mi-4c Build/LMY47V) AppleWebKit/537.36 (KHTML, like Gecko) Version/4.0 Chrome/37.0.0.0 Mobile MQQBrowser/6.8 TBS/036849 Safari/537.36 MicroMessenger/6.3.27.880 NetType/WIFI Language/zh_CN'
p457
sg16
S'cbf65985e94c5c8d5f145f92294f4e50'
p458
sa(dp459
g2
S'34267'
p460
sg4
S'6357'
p461
sg6
S'5b48c78089c6f21a864d9e71cbaf0c9d'
p462
sg8
S'xx793cb56eb44b467d52f157b6e03236d5'
p463
sg10
S'xx75953413298bd753821e98513fdaabcc'
p464
sg12
S'xx55f0b48ce941bad8dbde256676bc5ce5'
p465
sg14
S'Mozilla/5.0 (Linux; Android 5.1.1; Mi-4c Build/LMY47V) AppleWebKit/537.36 (KHTML, like Gecko) Version/4.0 Chrome/37.0.0.0 Mobile MQQBrowser/6.8 TBS/036849 Safari/537.36 MicroMessenger/6.3.27.880 NetType/WIFI Language/zh_CN'
p466
sg16
S'cbf65985e94c5c8d5f145f92294f4e50'
p467
sa(dp468
g2
S'34267'
p469
sg4
S'6378'
p470
sg6
S'5b48c78089c6f21a864d9e71cbaf0c9d'
p471
sg8
S'xx793cb56eb44b467d52f157b6e03236d5'
p472
sg10
S'xx75953413298bd753821e98513fdaabcc'
p473
sg12
S'xx55f0b48ce941bad8dbde256676bc5ce5'
p474
sg14
S'Mozilla/5.0 (Linux; Android 5.1.1; Mi-4c Build/LMY47V) AppleWebKit/537.36 (KHTML, like Gecko) Version/4.0 Chrome/37.0.0.0 Mobile MQQBrowser/6.8 TBS/036849 Safari/537.36 MicroMessenger/6.3.27.880 NetType/WIFI Language/zh_CN'
p475
sg16
S'cbf65985e94c5c8d5f145f92294f4e50'
p476
sa(dp477
g2
S'34267'
p478
sg4
S'6869'
p479
sg6
S'5b48c78089c6f21a864d9e71cbaf0c9d'
p480
sg8
S'xx793cb56eb44b467d52f157b6e03236d5'
p481
sg10
S'xx75953413298bd753821e98513fdaabcc'
p482
sg12
S'xx55f0b48ce941bad8dbde256676bc5ce5'
p483
sg14
S'Mozilla/5.0 (Linux; Android 5.1.1; Mi-4c Build/LMY47V) AppleWebKit/537.36 (KHTML, like Gecko) Version/4.0 Chrome/37.0.0.0 Mobile MQQBrowser/6.8 TBS/036849 Safari/537.36 MicroMessenger/6.3.27.880 NetType/WIFI Language/zh_CN'
p484
sg16
S'cbf65985e94c5c8d5f145f92294f4e50'
p485
sa(dp486
g2
S'34267'
p487
sg4
S'6886'
p488
sg6
S'5b48c78089c6f21a864d9e71cbaf0c9d'
p489
sg8
S'xx793cb56eb44b467d52f157b6e03236d5'
p490
sg10
S'xx75953413298bd753821e98513fdaabcc'
p491
sg12
S'xx55f0b48ce941bad8dbde256676bc5ce5'
p492
sg14
S'Mozilla/5.0 (Linux; Android 5.1.1; Mi-4c Build/LMY47V) AppleWebKit/537.36 (KHTML, like Gecko) Version/4.0 Chrome/37.0.0.0 Mobile MQQBrowser/6.8 TBS/036849 Safari/537.36 MicroMessenger/6.3.27.880 NetType/WIFI Language/zh_CN'
p493
sg16
S'cbf65985e94c5c8d5f145f92294f4e50'
p494
sa(dp495
g2
S'34267'
p496
sg4
S'7364'
p497
sg6
S'5b48c78089c6f21a864d9e71cbaf0c9d'
p498
sg8
S'xx793cb56eb44b467d52f157b6e03236d5'
p499
sg10
S'xx75953413298bd753821e98513fdaabcc'
p500
sg12
S'xx55f0b48ce941bad8dbde256676bc5ce5'
p501
sg14
S'Mozilla/5.0 (Linux; Android 5.1.1; Mi-4c Build/LMY47V) AppleWebKit/537.36 (KHTML, like Gecko) Version/4.0 Chrome/37.0.0.0 Mobile MQQBrowser/6.8 TBS/036849 Safari/537.36 MicroMessenger/6.3.27.880 NetType/WIFI Language/zh_CN'
p502
sg16
S'cbf65985e94c5c8d5f145f92294f4e50'
p503
sa(dp504
g2
S'34267'
p505
sg4
S'7380'
p506
sg6
S'5b48c78089c6f21a864d9e71cbaf0c9d'
p507
sg8
S'xx793cb56eb44b467d52f157b6e03236d5'
p508
sg10
S'xx75953413298bd753821e98513fdaabcc'
p509
sg12
S'xx55f0b48ce941bad8dbde256676bc5ce5'
p510
sg14
S'Mozilla/5.0 (Linux; Android 5.1.1; Mi-4c Build/LMY47V) AppleWebKit/537.36 (KHTML, like Gecko) Version/4.0 Chrome/37.0.0.0 Mobile MQQBrowser/6.8 TBS/036849 Safari/537.36 MicroMessenger/6.3.27.880 NetType/WIFI Language/zh_CN'
p511
sg16
S'cbf65985e94c5c8d5f145f92294f4e50'
p512
sa.