(lp0
(dp1
S'user_id'
p2
S'49762'
p3
sS'data_id'
p4
S'2426'
p5
sS'ip'
p6
S'7355930dc9ffeda1c797a05f22d679a1'
p7
sS'phone_B'
p8
S'xx97a763316ca73ddac30ec2eacc590122'
p9
sS'phone_C'
p10
S'xx12c8d148104736d95b9c60883f569522'
p11
sS'phone_A'
p12
S'xx56f4cecf34ce21896cf67f702409e60b'
p13
sS'user_agent'
p14
S'Mozilla/5.0 (Linux; Android 4.4.4; vivo X5S L Build/KTU84P) AppleWebKit/537.36 (KHTML, like Gecko) Version/4.0 Chrome/37.0.0.0 Mobile MQQBrowser/6.8 TBS/036844 Safari/537.36 MicroMessenger/6.3.27.880 NetType/WIFI Language/zh_CN'
p15
sS'ua'
p16
S'f104e0d133f8d70b57209b72d2f97ddf'
p17
sa(dp18
g2
S'49762'
p19
sg4
S'2445'
p20
sg6
S'7355930dc9ffeda1c797a05f22d679a1'
p21
sg8
S'xx97a763316ca73ddac30ec2eacc590122'
p22
sg10
S'xx12c8d148104736d95b9c60883f569522'
p23
sg12
S'xx56f4cecf34ce21896cf67f702409e60b'
p24
sg14
S'Mozilla/5.0 (Linux; Android 4.4.4; vivo X5S L Build/KTU84P) AppleWebKit/537.36 (KHTML, like Gecko) Version/4.0 Chrome/37.0.0.0 Mobile MQQBrowser/6.8 TBS/036844 Safari/537.36 MicroMessenger/6.3.27.880 NetType/WIFI Language/zh_CN'
p25
sg16
S'f104e0d133f8d70b57209b72d2f97ddf'
p26
sa(dp27
g2
S'49762'
p28
sg4
S'2461'
p29
sg6
S'7355930dc9ffeda1c797a05f22d679a1'
p30
sg8
S'xx97a763316ca73ddac30ec2eacc590122'
p31
sg10
S'xx12c8d148104736d95b9c60883f569522'
p32
sg12
S'xx56f4cecf34ce21896cf67f702409e60b'
p33
sg14
S'Mozilla/5.0 (Linux; Android 4.4.4; vivo X5S L Build/KTU84P) AppleWebKit/537.36 (KHTML, like Gecko) Version/4.0 Chrome/37.0.0.0 Mobile MQQBrowser/6.8 TBS/036844 Safari/537.36 MicroMessenger/6.3.27.880 NetType/WIFI Language/zh_CN'
p34
sg16
S'f104e0d133f8d70b57209b72d2f97ddf'
p35
sa(dp36
g2
S'49762'
p37
sg4
S'2490'
p38
sg6
S'7355930dc9ffeda1c797a05f22d679a1'
p39
sg8
S'xx97a763316ca73ddac30ec2eacc590122'
p40
sg10
S'xx12c8d148104736d95b9c60883f569522'
p41
sg12
S'xx56f4cecf34ce21896cf67f702409e60b'
p42
sg14
S'Mozilla/5.0 (Linux; Android 4.4.4; vivo X5S L Build/KTU84P) AppleWebKit/537.36 (KHTML, like Gecko) Version/4.0 Chrome/37.0.0.0 Mobile MQQBrowser/6.8 TBS/036844 Safari/537.36 MicroMessenger/6.3.27.880 NetType/WIFI Language/zh_CN'
p43
sg16
S'f104e0d133f8d70b57209b72d2f97ddf'
p44
sa(dp45
g2
S'49762'
p46
sg4
S'2509'
p47
sg6
S'7355930dc9ffeda1c797a05f22d679a1'
p48
sg8
S'xx97a763316ca73ddac30ec2eacc590122'
p49
sg10
S'xx12c8d148104736d95b9c60883f569522'
p50
sg12
S'xx56f4cecf34ce21896cf67f702409e60b'
p51
sg14
S'Mozilla/5.0 (Linux; Android 4.4.4; vivo X5S L Build/KTU84P) AppleWebKit/537.36 (KHTML, like Gecko) Version/4.0 Chrome/37.0.0.0 Mobile MQQBrowser/6.8 TBS/036844 Safari/537.36 MicroMessenger/6.3.27.880 NetType/WIFI Language/zh_CN'
p52
sg16
S'f104e0d133f8d70b57209b72d2f97ddf'
p53
sa(dp54
g2
S'49762'
p55
sg4
S'2527'
p56
sg6
S'7355930dc9ffeda1c797a05f22d679a1'
p57
sg8
S'xx97a763316ca73ddac30ec2eacc590122'
p58
sg10
S'xx12c8d148104736d95b9c60883f569522'
p59
sg12
S'xx56f4cecf34ce21896cf67f702409e60b'
p60
sg14
S'Mozilla/5.0 (Linux; Android 4.4.4; vivo X5S L Build/KTU84P) AppleWebKit/537.36 (KHTML, like Gecko) Version/4.0 Chrome/37.0.0.0 Mobile MQQBrowser/6.8 TBS/036844 Safari/537.36 MicroMessenger/6.3.27.880 NetType/WIFI Language/zh_CN'
p61
sg16
S'f104e0d133f8d70b57209b72d2f97ddf'
p62
sa(dp63
g2
S'49762'
p64
sg4
S'2553'
p65
sg6
S'7355930dc9ffeda1c797a05f22d679a1'
p66
sg8
S'xx97a763316ca73ddac30ec2eacc590122'
p67
sg10
S'xx12c8d148104736d95b9c60883f569522'
p68
sg12
S'xx56f4cecf34ce21896cf67f702409e60b'
p69
sg14
S'Mozilla/5.0 (Linux; Android 4.4.4; vivo X5S L Build/KTU84P) AppleWebKit/537.36 (KHTML, like Gecko) Version/4.0 Chrome/37.0.0.0 Mobile MQQBrowser/6.8 TBS/036844 Safari/537.36 MicroMessenger/6.3.27.880 NetType/WIFI Language/zh_CN'
p70
sg16
S'f104e0d133f8d70b57209b72d2f97ddf'
p71
sa(dp72
g2
S'49762'
p73
sg4
S'2577'
p74
sg6
S'7355930dc9ffeda1c797a05f22d679a1'
p75
sg8
S'xx97a763316ca73ddac30ec2eacc590122'
p76
sg10
S'xx12c8d148104736d95b9c60883f569522'
p77
sg12
S'xx56f4cecf34ce21896cf67f702409e60b'
p78
sg14
S'Mozilla/5.0 (Linux; Android 4.4.4; vivo X5S L Build/KTU84P) AppleWebKit/537.36 (KHTML, like Gecko) Version/4.0 Chrome/37.0.0.0 Mobile MQQBrowser/6.8 TBS/036844 Safari/537.36 MicroMessenger/6.3.27.880 NetType/WIFI Language/zh_CN'
p79
sg16
S'f104e0d133f8d70b57209b72d2f97ddf'
p80
sa(dp81
g2
S'49762'
p82
sg4
S'2600'
p83
sg6
S'7355930dc9ffeda1c797a05f22d679a1'
p84
sg8
S'xx97a763316ca73ddac30ec2eacc590122'
p85
sg10
S'xx12c8d148104736d95b9c60883f569522'
p86
sg12
S'xx56f4cecf34ce21896cf67f702409e60b'
p87
sg14
S'Mozilla/5.0 (Linux; Android 4.4.4; vivo X5S L Build/KTU84P) AppleWebKit/537.36 (KHTML, like Gecko) Version/4.0 Chrome/37.0.0.0 Mobile MQQBrowser/6.8 TBS/036844 Safari/537.36 MicroMessenger/6.3.27.880 NetType/WIFI Language/zh_CN'
p88
sg16
S'f104e0d133f8d70b57209b72d2f97ddf'
p89
sa(dp90
g2
S'49762'
p91
sg4
S'2649'
p92
sg6
S'7355930dc9ffeda1c797a05f22d679a1'
p93
sg8
S'xx97a763316ca73ddac30ec2eacc590122'
p94
sg10
S'xx12c8d148104736d95b9c60883f569522'
p95
sg12
S'xx56f4cecf34ce21896cf67f702409e60b'
p96
sg14
S'Mozilla/5.0 (Linux; Android 4.4.4; vivo X5S L Build/KTU84P) AppleWebKit/537.36 (KHTML, like Gecko) Version/4.0 Chrome/37.0.0.0 Mobile MQQBrowser/6.8 TBS/036844 Safari/537.36 MicroMessenger/6.3.27.880 NetType/WIFI Language/zh_CN'
p97
sg16
S'f104e0d133f8d70b57209b72d2f97ddf'
p98
sa(dp99
g2
S'49762'
p100
sg4
S'2670'
p101
sg6
S'7355930dc9ffeda1c797a05f22d679a1'
p102
sg8
S'xx97a763316ca73ddac30ec2eacc590122'
p103
sg10
S'xx12c8d148104736d95b9c60883f569522'
p104
sg12
S'xx56f4cecf34ce21896cf67f702409e60b'
p105
sg14
S'Mozilla/5.0 (Linux; Android 4.4.4; vivo X5S L Build/KTU84P) AppleWebKit/537.36 (KHTML, like Gecko) Version/4.0 Chrome/37.0.0.0 Mobile MQQBrowser/6.8 TBS/036844 Safari/537.36 MicroMessenger/6.3.27.880 NetType/WIFI Language/zh_CN'
p106
sg16
S'f104e0d133f8d70b57209b72d2f97ddf'
p107
sa(dp108
g2
S'49762'
p109
sg4
S'2689'
p110
sg6
S'7355930dc9ffeda1c797a05f22d679a1'
p111
sg8
S'xx97a763316ca73ddac30ec2eacc590122'
p112
sg10
S'xx12c8d148104736d95b9c60883f569522'
p113
sg12
S'xx56f4cecf34ce21896cf67f702409e60b'
p114
sg14
S'Mozilla/5.0 (Linux; Android 4.4.4; vivo X5S L Build/KTU84P) AppleWebKit/537.36 (KHTML, like Gecko) Version/4.0 Chrome/37.0.0.0 Mobile MQQBrowser/6.8 TBS/036844 Safari/537.36 MicroMessenger/6.3.27.880 NetType/WIFI Language/zh_CN'
p115
sg16
S'f104e0d133f8d70b57209b72d2f97ddf'
p116
sa(dp117
g2
S'49762'
p118
sg4
S'2711'
p119
sg6
S'7355930dc9ffeda1c797a05f22d679a1'
p120
sg8
S'xx97a763316ca73ddac30ec2eacc590122'
p121
sg10
S'xx12c8d148104736d95b9c60883f569522'
p122
sg12
S'xx56f4cecf34ce21896cf67f702409e60b'
p123
sg14
S'Mozilla/5.0 (Linux; Android 4.4.4; vivo X5S L Build/KTU84P) AppleWebKit/537.36 (KHTML, like Gecko) Version/4.0 Chrome/37.0.0.0 Mobile MQQBrowser/6.8 TBS/036844 Safari/537.36 MicroMessenger/6.3.27.880 NetType/WIFI Language/zh_CN'
p124
sg16
S'f104e0d133f8d70b57209b72d2f97ddf'
p125
sa(dp126
g2
S'35063'
p127
sg4
S'5553'
p128
sg6
S'1dc889c5d6202d34a546b88afcfd9686'
p129
sg8
S'xxb569a4dd57bf175c950a3ad99fab7cc5'
p130
sg10
S'xxdc7ecc030b2995d647abb07267596eee'
p131
sg12
S'xx56f4cecf34ce21896cf67f702409e60b'
p132
sg14
S'Mozilla/5.0 (Linux; Android 4.4.4; vivo X5S L Build/KTU84P) AppleWebKit/537.36 (KHTML, like Gecko) Version/4.0 Chrome/37.0.0.0 Mobile MQQBrowser/6.8 TBS/036824 Safari/537.36 MicroMessenger/6.3.27.880 NetType/WIFI Language/zh_CN'
p133
sg16
S'5edd04e20492c253c0f04f1959ef4da9'
p134
sa(dp135
g2
S'35063'
p136
sg4
S'5569'
p137
sg6
S'1dc889c5d6202d34a546b88afcfd9686'
p138
sg8
S'xxb569a4dd57bf175c950a3ad99fab7cc5'
p139
sg10
S'xxdc7ecc030b2995d647abb07267596eee'
p140
sg12
S'xx56f4cecf34ce21896cf67f702409e60b'
p141
sg14
S'Mozilla/5.0 (Linux; Android 4.4.4; vivo X5S L Build/KTU84P) AppleWebKit/537.36 (KHTML, like Gecko) Version/4.0 Chrome/37.0.0.0 Mobile MQQBrowser/6.8 TBS/036824 Safari/537.36 MicroMessenger/6.3.27.880 NetType/WIFI Language/zh_CN'
p142
sg16
S'5edd04e20492c253c0f04f1959ef4da9'
p143
sa(dp144
g2
S'35063'
p145
sg4
S'5584'
p146
sg6
S'1dc889c5d6202d34a546b88afcfd9686'
p147
sg8
S'xxb569a4dd57bf175c950a3ad99fab7cc5'
p148
sg10
S'xxdc7ecc030b2995d647abb07267596eee'
p149
sg12
S'xx56f4cecf34ce21896cf67f702409e60b'
p150
sg14
S'Mozilla/5.0 (Linux; Android 4.4.4; vivo X5S L Build/KTU84P) AppleWebKit/537.36 (KHTML, like Gecko) Version/4.0 Chrome/37.0.0.0 Mobile MQQBrowser/6.8 TBS/036824 Safari/537.36 MicroMessenger/6.3.27.880 NetType/WIFI Language/zh_CN'
p151
sg16
S'5edd04e20492c253c0f04f1959ef4da9'
p152
sa.