(lp0
(dp1
S'user_id'
p2
S'17468'
p3
sS'data_id'
p4
S'3520'
p5
sS'ip'
p6
S'fb80d29c6d18cc5f77e9dcd695d8d071'
p7
sS'phone_B'
p8
S'xxabd3b3ad9f1667c0478dcd004075e767'
p9
sS'phone_C'
p10
S'xx0c9f1fe300d88e3e3708548fb622bdd5'
p11
sS'phone_A'
p12
S'xx57259a592bf44daf8635cc7d3c051c0a'
p13
sS'user_agent'
p14
S'Mozilla/5.0 (Linux; Android 5.1.1; SM-G5500 Build/LMY47X) AppleWebKit/537.36 (KHTML, like Gecko) Version/4.0 Chrome/37.0.0.0 Mobile MQQBrowser/6.8 TBS/036863 Safari/537.36 MicroMessenger/6.3.27.880 NetType/cmnet Language/zh_CN'
p15
sS'ua'
p16
S'cb5df8741127cff3e2ca392f302e91cc'
p17
sa(dp18
g2
S'17468'
p19
sg4
S'3532'
p20
sg6
S'fb80d29c6d18cc5f77e9dcd695d8d071'
p21
sg8
S'xxabd3b3ad9f1667c0478dcd004075e767'
p22
sg10
S'xx0c9f1fe300d88e3e3708548fb622bdd5'
p23
sg12
S'xx57259a592bf44daf8635cc7d3c051c0a'
p24
sg14
S'Mozilla/5.0 (Linux; Android 5.1.1; SM-G5500 Build/LMY47X) AppleWebKit/537.36 (KHTML, like Gecko) Version/4.0 Chrome/37.0.0.0 Mobile MQQBrowser/6.8 TBS/036863 Safari/537.36 MicroMessenger/6.3.27.880 NetType/cmnet Language/zh_CN'
p25
sg16
S'cb5df8741127cff3e2ca392f302e91cc'
p26
sa(dp27
g2
S'17468'
p28
sg4
S'5156'
p29
sg6
S'fb80d29c6d18cc5f77e9dcd695d8d071'
p30
sg8
S'xxabd3b3ad9f1667c0478dcd004075e767'
p31
sg10
S'xx0c9f1fe300d88e3e3708548fb622bdd5'
p32
sg12
S'xx57259a592bf44daf8635cc7d3c051c0a'
p33
sg14
S'Mozilla/5.0 (Linux; Android 5.1.1; SM-G5500 Build/LMY47X) AppleWebKit/537.36 (KHTML, like Gecko) Version/4.0 Chrome/37.0.0.0 Mobile MQQBrowser/6.8 TBS/036863 Safari/537.36 MicroMessenger/6.3.27.880 NetType/cmnet Language/zh_CN'
p34
sg16
S'cb5df8741127cff3e2ca392f302e91cc'
p35
sa(dp36
g2
S'17468'
p37
sg4
S'5175'
p38
sg6
S'fb80d29c6d18cc5f77e9dcd695d8d071'
p39
sg8
S'xxabd3b3ad9f1667c0478dcd004075e767'
p40
sg10
S'xx0c9f1fe300d88e3e3708548fb622bdd5'
p41
sg12
S'xx57259a592bf44daf8635cc7d3c051c0a'
p42
sg14
S'Mozilla/5.0 (Linux; Android 5.1.1; SM-G5500 Build/LMY47X) AppleWebKit/537.36 (KHTML, like Gecko) Version/4.0 Chrome/37.0.0.0 Mobile MQQBrowser/6.8 TBS/036863 Safari/537.36 MicroMessenger/6.3.27.880 NetType/cmnet Language/zh_CN'
p43
sg16
S'cb5df8741127cff3e2ca392f302e91cc'
p44
sa(dp45
g2
S'17468'
p46
sg4
S'5200'
p47
sg6
S'fb80d29c6d18cc5f77e9dcd695d8d071'
p48
sg8
S'xxabd3b3ad9f1667c0478dcd004075e767'
p49
sg10
S'xx0c9f1fe300d88e3e3708548fb622bdd5'
p50
sg12
S'xx57259a592bf44daf8635cc7d3c051c0a'
p51
sg14
S'Mozilla/5.0 (Linux; Android 5.1.1; SM-G5500 Build/LMY47X) AppleWebKit/537.36 (KHTML, like Gecko) Version/4.0 Chrome/37.0.0.0 Mobile MQQBrowser/6.8 TBS/036863 Safari/537.36 MicroMessenger/6.3.27.880 NetType/cmnet Language/zh_CN'
p52
sg16
S'cb5df8741127cff3e2ca392f302e91cc'
p53
sa(dp54
g2
S'17468'
p55
sg4
S'5214'
p56
sg6
S'fb80d29c6d18cc5f77e9dcd695d8d071'
p57
sg8
S'xxabd3b3ad9f1667c0478dcd004075e767'
p58
sg10
S'xx0c9f1fe300d88e3e3708548fb622bdd5'
p59
sg12
S'xx57259a592bf44daf8635cc7d3c051c0a'
p60
sg14
S'Mozilla/5.0 (Linux; Android 5.1.1; SM-G5500 Build/LMY47X) AppleWebKit/537.36 (KHTML, like Gecko) Version/4.0 Chrome/37.0.0.0 Mobile MQQBrowser/6.8 TBS/036863 Safari/537.36 MicroMessenger/6.3.27.880 NetType/cmnet Language/zh_CN'
p61
sg16
S'cb5df8741127cff3e2ca392f302e91cc'
p62
sa(dp63
g2
S'17468'
p64
sg4
S'5228'
p65
sg6
S'fb80d29c6d18cc5f77e9dcd695d8d071'
p66
sg8
S'xxabd3b3ad9f1667c0478dcd004075e767'
p67
sg10
S'xx0c9f1fe300d88e3e3708548fb622bdd5'
p68
sg12
S'xx57259a592bf44daf8635cc7d3c051c0a'
p69
sg14
S'Mozilla/5.0 (Linux; Android 5.1.1; SM-G5500 Build/LMY47X) AppleWebKit/537.36 (KHTML, like Gecko) Version/4.0 Chrome/37.0.0.0 Mobile MQQBrowser/6.8 TBS/036863 Safari/537.36 MicroMessenger/6.3.27.880 NetType/cmnet Language/zh_CN'
p70
sg16
S'cb5df8741127cff3e2ca392f302e91cc'
p71
sa(dp72
g2
S'17468'
p73
sg4
S'5248'
p74
sg6
S'fb80d29c6d18cc5f77e9dcd695d8d071'
p75
sg8
S'xxabd3b3ad9f1667c0478dcd004075e767'
p76
sg10
S'xx0c9f1fe300d88e3e3708548fb622bdd5'
p77
sg12
S'xx57259a592bf44daf8635cc7d3c051c0a'
p78
sg14
S'Mozilla/5.0 (Linux; Android 5.1.1; SM-G5500 Build/LMY47X) AppleWebKit/537.36 (KHTML, like Gecko) Version/4.0 Chrome/37.0.0.0 Mobile MQQBrowser/6.8 TBS/036863 Safari/537.36 MicroMessenger/6.3.27.880 NetType/cmnet Language/zh_CN'
p79
sg16
S'cb5df8741127cff3e2ca392f302e91cc'
p80
sa(dp81
g2
S'26435'
p82
sg4
S'5929'
p83
sg6
S'a5b44b593f8f8dbc9d4ef18a119f70cf'
p84
sg8
S'xx8446fe317fce79ae21158b1da3cd27fc'
p85
sg10
S'xx0c9f1fe300d88e3e3708548fb622bdd5'
p86
sg12
S'xx57259a592bf44daf8635cc7d3c051c0a'
p87
sg14
S'Mozilla/5.0 (Linux; Android 5.1.1; SM-G5500 Build/LMY47X) AppleWebKit/537.36 (KHTML, like Gecko) Version/4.0 Chrome/37.0.0.0 Mobile MQQBrowser/6.8 TBS/036849 Safari/537.36 MicroMessenger/6.3.27.880 NetType/WIFI Language/zh_CN'
p88
sg16
S'18e53a586fd769eead3dca54633f5c17'
p89
sa(dp90
g2
S'26435'
p91
sg4
S'5948'
p92
sg6
S'a5b44b593f8f8dbc9d4ef18a119f70cf'
p93
sg8
S'xx8446fe317fce79ae21158b1da3cd27fc'
p94
sg10
S'xx0c9f1fe300d88e3e3708548fb622bdd5'
p95
sg12
S'xx57259a592bf44daf8635cc7d3c051c0a'
p96
sg14
S'Mozilla/5.0 (Linux; Android 5.1.1; SM-G5500 Build/LMY47X) AppleWebKit/537.36 (KHTML, like Gecko) Version/4.0 Chrome/37.0.0.0 Mobile MQQBrowser/6.8 TBS/036849 Safari/537.36 MicroMessenger/6.3.27.880 NetType/WIFI Language/zh_CN'
p97
sg16
S'18e53a586fd769eead3dca54633f5c17'
p98
sa(dp99
g2
S'26435'
p100
sg4
S'5974'
p101
sg6
S'a5b44b593f8f8dbc9d4ef18a119f70cf'
p102
sg8
S'xx8446fe317fce79ae21158b1da3cd27fc'
p103
sg10
S'xx0c9f1fe300d88e3e3708548fb622bdd5'
p104
sg12
S'xx57259a592bf44daf8635cc7d3c051c0a'
p105
sg14
S'Mozilla/5.0 (Linux; Android 5.1.1; SM-G5500 Build/LMY47X) AppleWebKit/537.36 (KHTML, like Gecko) Version/4.0 Chrome/37.0.0.0 Mobile MQQBrowser/6.8 TBS/036849 Safari/537.36 MicroMessenger/6.3.27.880 NetType/WIFI Language/zh_CN'
p106
sg16
S'18e53a586fd769eead3dca54633f5c17'
p107
sa(dp108
g2
S'26435'
p109
sg4
S'5989'
p110
sg6
S'a5b44b593f8f8dbc9d4ef18a119f70cf'
p111
sg8
S'xx8446fe317fce79ae21158b1da3cd27fc'
p112
sg10
S'xx0c9f1fe300d88e3e3708548fb622bdd5'
p113
sg12
S'xx57259a592bf44daf8635cc7d3c051c0a'
p114
sg14
S'Mozilla/5.0 (Linux; Android 5.1.1; SM-G5500 Build/LMY47X) AppleWebKit/537.36 (KHTML, like Gecko) Version/4.0 Chrome/37.0.0.0 Mobile MQQBrowser/6.8 TBS/036849 Safari/537.36 MicroMessenger/6.3.27.880 NetType/WIFI Language/zh_CN'
p115
sg16
S'18e53a586fd769eead3dca54633f5c17'
p116
sa(dp117
g2
S'26435'
p118
sg4
S'6004'
p119
sg6
S'a5b44b593f8f8dbc9d4ef18a119f70cf'
p120
sg8
S'xx8446fe317fce79ae21158b1da3cd27fc'
p121
sg10
S'xx0c9f1fe300d88e3e3708548fb622bdd5'
p122
sg12
S'xx57259a592bf44daf8635cc7d3c051c0a'
p123
sg14
S'Mozilla/5.0 (Linux; Android 5.1.1; SM-G5500 Build/LMY47X) AppleWebKit/537.36 (KHTML, like Gecko) Version/4.0 Chrome/37.0.0.0 Mobile MQQBrowser/6.8 TBS/036849 Safari/537.36 MicroMessenger/6.3.27.880 NetType/WIFI Language/zh_CN'
p124
sg16
S'18e53a586fd769eead3dca54633f5c17'
p125
sa(dp126
g2
S'26435'
p127
sg4
S'6045'
p128
sg6
S'a5b44b593f8f8dbc9d4ef18a119f70cf'
p129
sg8
S'xx8446fe317fce79ae21158b1da3cd27fc'
p130
sg10
S'xx0c9f1fe300d88e3e3708548fb622bdd5'
p131
sg12
S'xx57259a592bf44daf8635cc7d3c051c0a'
p132
sg14
S'Mozilla/5.0 (Linux; Android 5.1.1; SM-G5500 Build/LMY47X) AppleWebKit/537.36 (KHTML, like Gecko) Version/4.0 Chrome/37.0.0.0 Mobile MQQBrowser/6.8 TBS/036849 Safari/537.36 MicroMessenger/6.3.27.880 NetType/WIFI Language/zh_CN'
p133
sg16
S'18e53a586fd769eead3dca54633f5c17'
p134
sa(dp135
g2
S'26435'
p136
sg4
S'6127'
p137
sg6
S'a5b44b593f8f8dbc9d4ef18a119f70cf'
p138
sg8
S'xx8446fe317fce79ae21158b1da3cd27fc'
p139
sg10
S'xx0c9f1fe300d88e3e3708548fb622bdd5'
p140
sg12
S'xx57259a592bf44daf8635cc7d3c051c0a'
p141
sg14
S'Mozilla/5.0 (Linux; Android 5.1.1; SM-G5500 Build/LMY47X) AppleWebKit/537.36 (KHTML, like Gecko) Version/4.0 Chrome/37.0.0.0 Mobile MQQBrowser/6.8 TBS/036849 Safari/537.36 MicroMessenger/6.3.27.880 NetType/WIFI Language/zh_CN'
p142
sg16
S'18e53a586fd769eead3dca54633f5c17'
p143
sa(dp144
g2
S'26435'
p145
sg4
S'6229'
p146
sg6
S'a5b44b593f8f8dbc9d4ef18a119f70cf'
p147
sg8
S'xx8446fe317fce79ae21158b1da3cd27fc'
p148
sg10
S'xx0c9f1fe300d88e3e3708548fb622bdd5'
p149
sg12
S'xx57259a592bf44daf8635cc7d3c051c0a'
p150
sg14
S'Mozilla/5.0 (Linux; Android 5.1.1; SM-G5500 Build/LMY47X) AppleWebKit/537.36 (KHTML, like Gecko) Version/4.0 Chrome/37.0.0.0 Mobile MQQBrowser/6.8 TBS/036849 Safari/537.36 MicroMessenger/6.3.27.880 NetType/WIFI Language/zh_CN'
p151
sg16
S'18e53a586fd769eead3dca54633f5c17'
p152
sa(dp153
g2
S'26435'
p154
sg4
S'6267'
p155
sg6
S'a5b44b593f8f8dbc9d4ef18a119f70cf'
p156
sg8
S'xx8446fe317fce79ae21158b1da3cd27fc'
p157
sg10
S'xx0c9f1fe300d88e3e3708548fb622bdd5'
p158
sg12
S'xx57259a592bf44daf8635cc7d3c051c0a'
p159
sg14
S'Mozilla/5.0 (Linux; Android 5.1.1; SM-G5500 Build/LMY47X) AppleWebKit/537.36 (KHTML, like Gecko) Version/4.0 Chrome/37.0.0.0 Mobile MQQBrowser/6.8 TBS/036849 Safari/537.36 MicroMessenger/6.3.27.880 NetType/WIFI Language/zh_CN'
p160
sg16
S'18e53a586fd769eead3dca54633f5c17'
p161
sa(dp162
g2
S'26435'
p163
sg4
S'6341'
p164
sg6
S'a5b44b593f8f8dbc9d4ef18a119f70cf'
p165
sg8
S'xx8446fe317fce79ae21158b1da3cd27fc'
p166
sg10
S'xx0c9f1fe300d88e3e3708548fb622bdd5'
p167
sg12
S'xx57259a592bf44daf8635cc7d3c051c0a'
p168
sg14
S'Mozilla/5.0 (Linux; Android 5.1.1; SM-G5500 Build/LMY47X) AppleWebKit/537.36 (KHTML, like Gecko) Version/4.0 Chrome/37.0.0.0 Mobile MQQBrowser/6.8 TBS/036849 Safari/537.36 MicroMessenger/6.3.27.880 NetType/WIFI Language/zh_CN'
p169
sg16
S'18e53a586fd769eead3dca54633f5c17'
p170
sa(dp171
g2
S'17468'
p172
sg4
S'6627'
p173
sg6
S'fb80d29c6d18cc5f77e9dcd695d8d071'
p174
sg8
S'xxabd3b3ad9f1667c0478dcd004075e767'
p175
sg10
S'xx0c9f1fe300d88e3e3708548fb622bdd5'
p176
sg12
S'xx57259a592bf44daf8635cc7d3c051c0a'
p177
sg14
S'Mozilla/5.0 (Linux; Android 5.1.1; SM-G5500 Build/LMY47X) AppleWebKit/537.36 (KHTML, like Gecko) Version/4.0 Chrome/37.0.0.0 Mobile MQQBrowser/6.8 TBS/036863 Safari/537.36 MicroMessenger/6.3.27.880 NetType/cmnet Language/zh_CN'
p178
sg16
S'cb5df8741127cff3e2ca392f302e91cc'
p179
sa(dp180
g2
S'17468'
p181
sg4
S'6644'
p182
sg6
S'fb80d29c6d18cc5f77e9dcd695d8d071'
p183
sg8
S'xxabd3b3ad9f1667c0478dcd004075e767'
p184
sg10
S'xx0c9f1fe300d88e3e3708548fb622bdd5'
p185
sg12
S'xx57259a592bf44daf8635cc7d3c051c0a'
p186
sg14
S'Mozilla/5.0 (Linux; Android 5.1.1; SM-G5500 Build/LMY47X) AppleWebKit/537.36 (KHTML, like Gecko) Version/4.0 Chrome/37.0.0.0 Mobile MQQBrowser/6.8 TBS/036863 Safari/537.36 MicroMessenger/6.3.27.880 NetType/cmnet Language/zh_CN'
p187
sg16
S'cb5df8741127cff3e2ca392f302e91cc'
p188
sa(dp189
g2
S'17468'
p190
sg4
S'6675'
p191
sg6
S'fb80d29c6d18cc5f77e9dcd695d8d071'
p192
sg8
S'xxabd3b3ad9f1667c0478dcd004075e767'
p193
sg10
S'xx0c9f1fe300d88e3e3708548fb622bdd5'
p194
sg12
S'xx57259a592bf44daf8635cc7d3c051c0a'
p195
sg14
S'Mozilla/5.0 (Linux; Android 5.1.1; SM-G5500 Build/LMY47X) AppleWebKit/537.36 (KHTML, like Gecko) Version/4.0 Chrome/37.0.0.0 Mobile MQQBrowser/6.8 TBS/036863 Safari/537.36 MicroMessenger/6.3.27.880 NetType/cmnet Language/zh_CN'
p196
sg16
S'cb5df8741127cff3e2ca392f302e91cc'
p197
sa(dp198
g2
S'17468'
p199
sg4
S'6696'
p200
sg6
S'fb80d29c6d18cc5f77e9dcd695d8d071'
p201
sg8
S'xxabd3b3ad9f1667c0478dcd004075e767'
p202
sg10
S'xx0c9f1fe300d88e3e3708548fb622bdd5'
p203
sg12
S'xx57259a592bf44daf8635cc7d3c051c0a'
p204
sg14
S'Mozilla/5.0 (Linux; Android 5.1.1; SM-G5500 Build/LMY47X) AppleWebKit/537.36 (KHTML, like Gecko) Version/4.0 Chrome/37.0.0.0 Mobile MQQBrowser/6.8 TBS/036863 Safari/537.36 MicroMessenger/6.3.27.880 NetType/cmnet Language/zh_CN'
p205
sg16
S'cb5df8741127cff3e2ca392f302e91cc'
p206
sa(dp207
g2
S'26435'
p208
sg4
S'6721'
p209
sg6
S'a5b44b593f8f8dbc9d4ef18a119f70cf'
p210
sg8
S'xx8446fe317fce79ae21158b1da3cd27fc'
p211
sg10
S'xx0c9f1fe300d88e3e3708548fb622bdd5'
p212
sg12
S'xx57259a592bf44daf8635cc7d3c051c0a'
p213
sg14
S'Mozilla/5.0 (Linux; Android 5.1.1; SM-G5500 Build/LMY47X) AppleWebKit/537.36 (KHTML, like Gecko) Version/4.0 Chrome/37.0.0.0 Mobile MQQBrowser/6.8 TBS/036849 Safari/537.36 MicroMessenger/6.3.27.880 NetType/WIFI Language/zh_CN'
p214
sg16
S'18e53a586fd769eead3dca54633f5c17'
p215
sa(dp216
g2
S'26435'
p217
sg4
S'6737'
p218
sg6
S'a5b44b593f8f8dbc9d4ef18a119f70cf'
p219
sg8
S'xx8446fe317fce79ae21158b1da3cd27fc'
p220
sg10
S'xx0c9f1fe300d88e3e3708548fb622bdd5'
p221
sg12
S'xx57259a592bf44daf8635cc7d3c051c0a'
p222
sg14
S'Mozilla/5.0 (Linux; Android 5.1.1; SM-G5500 Build/LMY47X) AppleWebKit/537.36 (KHTML, like Gecko) Version/4.0 Chrome/37.0.0.0 Mobile MQQBrowser/6.8 TBS/036849 Safari/537.36 MicroMessenger/6.3.27.880 NetType/WIFI Language/zh_CN'
p223
sg16
S'18e53a586fd769eead3dca54633f5c17'
p224
sa(dp225
g2
S'26435'
p226
sg4
S'6754'
p227
sg6
S'a5b44b593f8f8dbc9d4ef18a119f70cf'
p228
sg8
S'xx8446fe317fce79ae21158b1da3cd27fc'
p229
sg10
S'xx0c9f1fe300d88e3e3708548fb622bdd5'
p230
sg12
S'xx57259a592bf44daf8635cc7d3c051c0a'
p231
sg14
S'Mozilla/5.0 (Linux; Android 5.1.1; SM-G5500 Build/LMY47X) AppleWebKit/537.36 (KHTML, like Gecko) Version/4.0 Chrome/37.0.0.0 Mobile MQQBrowser/6.8 TBS/036849 Safari/537.36 MicroMessenger/6.3.27.880 NetType/WIFI Language/zh_CN'
p232
sg16
S'18e53a586fd769eead3dca54633f5c17'
p233
sa(dp234
g2
S'17468'
p235
sg4
S'6785'
p236
sg6
S'fb80d29c6d18cc5f77e9dcd695d8d071'
p237
sg8
S'xxabd3b3ad9f1667c0478dcd004075e767'
p238
sg10
S'xx0c9f1fe300d88e3e3708548fb622bdd5'
p239
sg12
S'xx57259a592bf44daf8635cc7d3c051c0a'
p240
sg14
S'Mozilla/5.0 (Linux; Android 5.1.1; SM-G5500 Build/LMY47X) AppleWebKit/537.36 (KHTML, like Gecko) Version/4.0 Chrome/37.0.0.0 Mobile MQQBrowser/6.8 TBS/036863 Safari/537.36 MicroMessenger/6.3.27.880 NetType/cmnet Language/zh_CN'
p241
sg16
S'cb5df8741127cff3e2ca392f302e91cc'
p242
sa(dp243
g2
S'17468'
p244
sg4
S'6824'
p245
sg6
S'fb80d29c6d18cc5f77e9dcd695d8d071'
p246
sg8
S'xxabd3b3ad9f1667c0478dcd004075e767'
p247
sg10
S'xx0c9f1fe300d88e3e3708548fb622bdd5'
p248
sg12
S'xx57259a592bf44daf8635cc7d3c051c0a'
p249
sg14
S'Mozilla/5.0 (Linux; Android 5.1.1; SM-G5500 Build/LMY47X) AppleWebKit/537.36 (KHTML, like Gecko) Version/4.0 Chrome/37.0.0.0 Mobile MQQBrowser/6.8 TBS/036863 Safari/537.36 MicroMessenger/6.3.27.880 NetType/cmnet Language/zh_CN'
p250
sg16
S'cb5df8741127cff3e2ca392f302e91cc'
p251
sa(dp252
g2
S'17468'
p253
sg4
S'6961'
p254
sg6
S'fb80d29c6d18cc5f77e9dcd695d8d071'
p255
sg8
S'xxabd3b3ad9f1667c0478dcd004075e767'
p256
sg10
S'xx0c9f1fe300d88e3e3708548fb622bdd5'
p257
sg12
S'xx57259a592bf44daf8635cc7d3c051c0a'
p258
sg14
S'Mozilla/5.0 (Linux; Android 5.1.1; SM-G5500 Build/LMY47X) AppleWebKit/537.36 (KHTML, like Gecko) Version/4.0 Chrome/37.0.0.0 Mobile MQQBrowser/6.8 TBS/036863 Safari/537.36 MicroMessenger/6.3.27.880 NetType/cmnet Language/zh_CN'
p259
sg16
S'cb5df8741127cff3e2ca392f302e91cc'
p260
sa(dp261
g2
S'17468'
p262
sg4
S'7368'
p263
sg6
S'fb80d29c6d18cc5f77e9dcd695d8d071'
p264
sg8
S'xxabd3b3ad9f1667c0478dcd004075e767'
p265
sg10
S'xx0c9f1fe300d88e3e3708548fb622bdd5'
p266
sg12
S'xx57259a592bf44daf8635cc7d3c051c0a'
p267
sg14
S'Mozilla/5.0 (Linux; Android 5.1.1; SM-G5500 Build/LMY47X) AppleWebKit/537.36 (KHTML, like Gecko) Version/4.0 Chrome/37.0.0.0 Mobile MQQBrowser/6.8 TBS/036863 Safari/537.36 MicroMessenger/6.3.27.880 NetType/cmnet Language/zh_CN'
p268
sg16
S'cb5df8741127cff3e2ca392f302e91cc'
p269
sa(dp270
g2
S'17468'
p271
sg4
S'7550'
p272
sg6
S'fb80d29c6d18cc5f77e9dcd695d8d071'
p273
sg8
S'xxabd3b3ad9f1667c0478dcd004075e767'
p274
sg10
S'xx0c9f1fe300d88e3e3708548fb622bdd5'
p275
sg12
S'xx57259a592bf44daf8635cc7d3c051c0a'
p276
sg14
S'Mozilla/5.0 (Linux; Android 5.1.1; SM-G5500 Build/LMY47X) AppleWebKit/537.36 (KHTML, like Gecko) Version/4.0 Chrome/37.0.0.0 Mobile MQQBrowser/6.8 TBS/036863 Safari/537.36 MicroMessenger/6.3.27.880 NetType/cmnet Language/zh_CN'
p277
sg16
S'cb5df8741127cff3e2ca392f302e91cc'
p278
sa(dp279
g2
S'17468'
p280
sg4
S'7559'
p281
sg6
S'fb80d29c6d18cc5f77e9dcd695d8d071'
p282
sg8
S'xxabd3b3ad9f1667c0478dcd004075e767'
p283
sg10
S'xx0c9f1fe300d88e3e3708548fb622bdd5'
p284
sg12
S'xx57259a592bf44daf8635cc7d3c051c0a'
p285
sg14
S'Mozilla/5.0 (Linux; Android 5.1.1; SM-G5500 Build/LMY47X) AppleWebKit/537.36 (KHTML, like Gecko) Version/4.0 Chrome/37.0.0.0 Mobile MQQBrowser/6.8 TBS/036863 Safari/537.36 MicroMessenger/6.3.27.880 NetType/cmnet Language/zh_CN'
p286
sg16
S'cb5df8741127cff3e2ca392f302e91cc'
p287
sa(dp288
g2
S'17468'
p289
sg4
S'7573'
p290
sg6
S'fb80d29c6d18cc5f77e9dcd695d8d071'
p291
sg8
S'xxabd3b3ad9f1667c0478dcd004075e767'
p292
sg10
S'xx0c9f1fe300d88e3e3708548fb622bdd5'
p293
sg12
S'xx57259a592bf44daf8635cc7d3c051c0a'
p294
sg14
S'Mozilla/5.0 (Linux; Android 5.1.1; SM-G5500 Build/LMY47X) AppleWebKit/537.36 (KHTML, like Gecko) Version/4.0 Chrome/37.0.0.0 Mobile MQQBrowser/6.8 TBS/036863 Safari/537.36 MicroMessenger/6.3.27.880 NetType/cmnet Language/zh_CN'
p295
sg16
S'cb5df8741127cff3e2ca392f302e91cc'
p296
sa(dp297
g2
S'17468'
p298
sg4
S'7586'
p299
sg6
S'fb80d29c6d18cc5f77e9dcd695d8d071'
p300
sg8
S'xxabd3b3ad9f1667c0478dcd004075e767'
p301
sg10
S'xx0c9f1fe300d88e3e3708548fb622bdd5'
p302
sg12
S'xx57259a592bf44daf8635cc7d3c051c0a'
p303
sg14
S'Mozilla/5.0 (Linux; Android 5.1.1; SM-G5500 Build/LMY47X) AppleWebKit/537.36 (KHTML, like Gecko) Version/4.0 Chrome/37.0.0.0 Mobile MQQBrowser/6.8 TBS/036863 Safari/537.36 MicroMessenger/6.3.27.880 NetType/cmnet Language/zh_CN'
p304
sg16
S'cb5df8741127cff3e2ca392f302e91cc'
p305
sa(dp306
g2
S'30485'
p307
sg4
S'8381'
p308
sg6
S'37ec7b91655b3c964292df15710fad2a'
p309
sg8
S'xx8446fe317fce79ae21158b1da3cd27fc'
p310
sg10
S'xx0c9f1fe300d88e3e3708548fb622bdd5'
p311
sg12
S'xx57259a592bf44daf8635cc7d3c051c0a'
p312
sg14
S'Mozilla/5.0 (Linux; Android 5.1.1; SM-G5500 Build/LMY47X) AppleWebKit/537.36 (KHTML, like Gecko) Version/4.0 Chrome/37.0.0.0 Mobile MQQBrowser/6.8 TBS/036849 Safari/537.36 MicroMessenger/6.3.27.880 NetType/WIFI Language/zh_CN'
p313
sg16
S'18e53a586fd769eead3dca54633f5c17'
p314
sa(dp315
g2
S'30485'
p316
sg4
S'8397'
p317
sg6
S'37ec7b91655b3c964292df15710fad2a'
p318
sg8
S'xx8446fe317fce79ae21158b1da3cd27fc'
p319
sg10
S'xx0c9f1fe300d88e3e3708548fb622bdd5'
p320
sg12
S'xx57259a592bf44daf8635cc7d3c051c0a'
p321
sg14
S'Mozilla/5.0 (Linux; Android 5.1.1; SM-G5500 Build/LMY47X) AppleWebKit/537.36 (KHTML, like Gecko) Version/4.0 Chrome/37.0.0.0 Mobile MQQBrowser/6.8 TBS/036849 Safari/537.36 MicroMessenger/6.3.27.880 NetType/WIFI Language/zh_CN'
p322
sg16
S'18e53a586fd769eead3dca54633f5c17'
p323
sa.