(lp0
(dp1
S'user_id'
p2
S'44440'
p3
sS'data_id'
p4
S'123'
p5
sS'ip'
p6
S'03f52a4f7e66c7ccc384ce91e7bd50e9'
p7
sS'phone_B'
p8
S'xx5518368d15df9a91a32c24860fc37dce'
p9
sS'phone_C'
p10
S'xxb11b423e9c806a45c448ad3a899b0e7e'
p11
sS'phone_A'
p12
S'xx5729517e6f36b53455cb02f1baa55dfb'
p13
sS'user_agent'
p14
S'Mozilla/5.0 (Linux; Android 6.0; HTC D816d Build/MRA58K) AppleWebKit/537.36 (KHTML, like Gecko) Version/4.0 Chrome/37.0.0.0 Mobile MQQBrowser/6.8 TBS/036869 Safari/537.36 MicroMessenger/6.3.27.880 NetType/WIFI Language/zh_CN'
p15
sS'ua'
p16
S'068c012e72935cd7d86c1a03f567db30'
p17
sa(dp18
g2
S'44440'
p19
sg4
S'132'
p20
sg6
S'03f52a4f7e66c7ccc384ce91e7bd50e9'
p21
sg8
S'xx5518368d15df9a91a32c24860fc37dce'
p22
sg10
S'xxb11b423e9c806a45c448ad3a899b0e7e'
p23
sg12
S'xx5729517e6f36b53455cb02f1baa55dfb'
p24
sg14
S'Mozilla/5.0 (Linux; Android 6.0; HTC D816d Build/MRA58K) AppleWebKit/537.36 (KHTML, like Gecko) Version/4.0 Chrome/37.0.0.0 Mobile MQQBrowser/6.8 TBS/036869 Safari/537.36 MicroMessenger/6.3.27.880 NetType/WIFI Language/zh_CN'
p25
sg16
S'068c012e72935cd7d86c1a03f567db30'
p26
sa(dp27
g2
S'44440'
p28
sg4
S'841'
p29
sg6
S'03f52a4f7e66c7ccc384ce91e7bd50e9'
p30
sg8
S'xx5518368d15df9a91a32c24860fc37dce'
p31
sg10
S'xxb11b423e9c806a45c448ad3a899b0e7e'
p32
sg12
S'xx5729517e6f36b53455cb02f1baa55dfb'
p33
sg14
S'Mozilla/5.0 (Linux; Android 6.0; HTC D816d Build/MRA58K) AppleWebKit/537.36 (KHTML, like Gecko) Version/4.0 Chrome/37.0.0.0 Mobile MQQBrowser/6.8 TBS/036869 Safari/537.36 MicroMessenger/6.3.27.880 NetType/WIFI Language/zh_CN'
p34
sg16
S'068c012e72935cd7d86c1a03f567db30'
p35
sa(dp36
g2
S'44440'
p37
sg4
S'859'
p38
sg6
S'03f52a4f7e66c7ccc384ce91e7bd50e9'
p39
sg8
S'xx5518368d15df9a91a32c24860fc37dce'
p40
sg10
S'xxb11b423e9c806a45c448ad3a899b0e7e'
p41
sg12
S'xx5729517e6f36b53455cb02f1baa55dfb'
p42
sg14
S'Mozilla/5.0 (Linux; Android 6.0; HTC D816d Build/MRA58K) AppleWebKit/537.36 (KHTML, like Gecko) Version/4.0 Chrome/37.0.0.0 Mobile MQQBrowser/6.8 TBS/036869 Safari/537.36 MicroMessenger/6.3.27.880 NetType/WIFI Language/zh_CN'
p43
sg16
S'068c012e72935cd7d86c1a03f567db30'
p44
sa(dp45
g2
S'44440'
p46
sg4
S'1907'
p47
sg6
S'03f52a4f7e66c7ccc384ce91e7bd50e9'
p48
sg8
S'xx5518368d15df9a91a32c24860fc37dce'
p49
sg10
S'xxb11b423e9c806a45c448ad3a899b0e7e'
p50
sg12
S'xx5729517e6f36b53455cb02f1baa55dfb'
p51
sg14
S'Mozilla/5.0 (Linux; Android 6.0; HTC D816d Build/MRA58K) AppleWebKit/537.36 (KHTML, like Gecko) Version/4.0 Chrome/37.0.0.0 Mobile MQQBrowser/6.8 TBS/036869 Safari/537.36 MicroMessenger/6.3.27.880 NetType/WIFI Language/zh_CN'
p52
sg16
S'068c012e72935cd7d86c1a03f567db30'
p53
sa(dp54
g2
S'44440'
p55
sg4
S'1929'
p56
sg6
S'03f52a4f7e66c7ccc384ce91e7bd50e9'
p57
sg8
S'xx5518368d15df9a91a32c24860fc37dce'
p58
sg10
S'xxb11b423e9c806a45c448ad3a899b0e7e'
p59
sg12
S'xx5729517e6f36b53455cb02f1baa55dfb'
p60
sg14
S'Mozilla/5.0 (Linux; Android 6.0; HTC D816d Build/MRA58K) AppleWebKit/537.36 (KHTML, like Gecko) Version/4.0 Chrome/37.0.0.0 Mobile MQQBrowser/6.8 TBS/036869 Safari/537.36 MicroMessenger/6.3.27.880 NetType/WIFI Language/zh_CN'
p61
sg16
S'068c012e72935cd7d86c1a03f567db30'
p62
sa.