(lp0
(dp1
S'user_id'
p2
S'49744'
p3
sS'data_id'
p4
S'721'
p5
sS'ip'
p6
S'65fcf8544a9fc5302a6c4bfc23fc79fa'
p7
sS'phone_B'
p8
S'xx68a1a158ba2327d4689694cfe5cbc93b'
p9
sS'phone_C'
p10
S'xx68ff6327a2cc37c9cc1b05c3d634ccc2'
p11
sS'phone_A'
p12
S'xx59ada8aab843534d602ad4dab90e201f'
p13
sS'user_agent'
p14
S'Mozilla/5.0 (Linux; Android 4.4.2; HTC D816d Build/KOT49H) AppleWebKit/537.36 (KHTML, like Gecko) Version/4.0 Chrome/37.0.0.0 Mobile MQQBrowser/6.8 TBS/036849 Safari/537.36 MicroMessenger/6.3.25.861 NetType/ctnet Language/zh_CN'
p15
sS'ua'
p16
S'270fea1995167cb88126bb044f972124'
p17
sa(dp18
g2
S'49744'
p19
sg4
S'733'
p20
sg6
S'65fcf8544a9fc5302a6c4bfc23fc79fa'
p21
sg8
S'xx68a1a158ba2327d4689694cfe5cbc93b'
p22
sg10
S'xx68ff6327a2cc37c9cc1b05c3d634ccc2'
p23
sg12
S'xx59ada8aab843534d602ad4dab90e201f'
p24
sg14
S'Mozilla/5.0 (Linux; Android 4.4.2; HTC D816d Build/KOT49H) AppleWebKit/537.36 (KHTML, like Gecko) Version/4.0 Chrome/37.0.0.0 Mobile MQQBrowser/6.8 TBS/036849 Safari/537.36 MicroMessenger/6.3.25.861 NetType/ctnet Language/zh_CN'
p25
sg16
S'270fea1995167cb88126bb044f972124'
p26
sa(dp27
g2
S'49744'
p28
sg4
S'744'
p29
sg6
S'65fcf8544a9fc5302a6c4bfc23fc79fa'
p30
sg8
S'xx68a1a158ba2327d4689694cfe5cbc93b'
p31
sg10
S'xx68ff6327a2cc37c9cc1b05c3d634ccc2'
p32
sg12
S'xx59ada8aab843534d602ad4dab90e201f'
p33
sg14
S'Mozilla/5.0 (Linux; Android 4.4.2; HTC D816d Build/KOT49H) AppleWebKit/537.36 (KHTML, like Gecko) Version/4.0 Chrome/37.0.0.0 Mobile MQQBrowser/6.8 TBS/036849 Safari/537.36 MicroMessenger/6.3.25.861 NetType/ctnet Language/zh_CN'
p34
sg16
S'270fea1995167cb88126bb044f972124'
p35
sa(dp36
g2
S'49744'
p37
sg4
S'757'
p38
sg6
S'65fcf8544a9fc5302a6c4bfc23fc79fa'
p39
sg8
S'xx68a1a158ba2327d4689694cfe5cbc93b'
p40
sg10
S'xx68ff6327a2cc37c9cc1b05c3d634ccc2'
p41
sg12
S'xx59ada8aab843534d602ad4dab90e201f'
p42
sg14
S'Mozilla/5.0 (Linux; Android 4.4.2; HTC D816d Build/KOT49H) AppleWebKit/537.36 (KHTML, like Gecko) Version/4.0 Chrome/37.0.0.0 Mobile MQQBrowser/6.8 TBS/036849 Safari/537.36 MicroMessenger/6.3.25.861 NetType/ctnet Language/zh_CN'
p43
sg16
S'270fea1995167cb88126bb044f972124'
p44
sa.