(lp0
(dp1
S'user_id'
p2
S'36447'
p3
sS'data_id'
p4
S'5011'
p5
sS'ip'
p6
S'21678c5c2cb28f9427d740d238454637'
p7
sS'phone_B'
p8
S'xx918a18aaf31260f16731b6317cd22bdb'
p9
sS'phone_C'
p10
S'xxb3ef4711fb94ee256743640f111f50a4'
p11
sS'phone_A'
p12
S'xx5cf69bee74cc84b1ef4f587c84d7df71'
p13
sS'user_agent'
p14
S'Mozilla/5.0 (Linux; Android 4.4.4; X9007 Build/KTU84P) AppleWebKit/537.36 (KHTML, like Gecko) Version/4.0 Chrome/37.0.0.0 Mobile MQQBrowser/6.8 TBS/036869 Safari/537.36 MicroMessenger/6.3.27.880 NetType/WIFI Language/en'
p15
sS'ua'
p16
S'fcb5277eb63ac9c8ceca888cb22469be'
p17
sa(dp18
g2
S'36447'
p19
sg4
S'5028'
p20
sg6
S'21678c5c2cb28f9427d740d238454637'
p21
sg8
S'xx918a18aaf31260f16731b6317cd22bdb'
p22
sg10
S'xxb3ef4711fb94ee256743640f111f50a4'
p23
sg12
S'xx5cf69bee74cc84b1ef4f587c84d7df71'
p24
sg14
S'Mozilla/5.0 (Linux; Android 4.4.4; X9007 Build/KTU84P) AppleWebKit/537.36 (KHTML, like Gecko) Version/4.0 Chrome/37.0.0.0 Mobile MQQBrowser/6.8 TBS/036869 Safari/537.36 MicroMessenger/6.3.27.880 NetType/WIFI Language/en'
p25
sg16
S'fcb5277eb63ac9c8ceca888cb22469be'
p26
sa.