(lp0
(dp1
S'user_id'
p2
S'39428'
p3
sS'data_id'
p4
S'6116'
p5
sS'ip'
p6
S'919e530c8616322942471caeefd4ae11'
p7
sS'phone_B'
p8
S'xx24e3988ad1a8a1d3ab90021a8aea4778'
p9
sS'phone_C'
p10
S'xxf0ce69602a68e5d82c03993c78018e89'
p11
sS'phone_A'
p12
S'xx5d90740dbb4664a2ad07c40a60955ebd'
p13
sS'user_agent'
p14
S'Mozilla/5.0 (Linux; Android 4.4.2; Lenovo A360t Build/KOT49H) AppleWebKit/537.36 (KHTML, like Gecko) Version/4.0 Chrome/37.0.0.0 Mobile MQQBrowser/6.8 TBS/036849 Safari/537.36 MicroMessenger/6.3.27.880 NetType/WIFI Language/zh_CN'
p15
sS'ua'
p16
S'5d3ffb2b2e7e4e793f7924a68186567e'
p17
sa(dp18
g2
S'39428'
p19
sg4
S'6132'
p20
sg6
S'919e530c8616322942471caeefd4ae11'
p21
sg8
S'xx24e3988ad1a8a1d3ab90021a8aea4778'
p22
sg10
S'xxf0ce69602a68e5d82c03993c78018e89'
p23
sg12
S'xx5d90740dbb4664a2ad07c40a60955ebd'
p24
sg14
S'Mozilla/5.0 (Linux; Android 4.4.2; Lenovo A360t Build/KOT49H) AppleWebKit/537.36 (KHTML, like Gecko) Version/4.0 Chrome/37.0.0.0 Mobile MQQBrowser/6.8 TBS/036849 Safari/537.36 MicroMessenger/6.3.27.880 NetType/WIFI Language/zh_CN'
p25
sg16
S'5d3ffb2b2e7e4e793f7924a68186567e'
p26
sa(dp27
g2
S'39428'
p28
sg4
S'6145'
p29
sg6
S'919e530c8616322942471caeefd4ae11'
p30
sg8
S'xx24e3988ad1a8a1d3ab90021a8aea4778'
p31
sg10
S'xxf0ce69602a68e5d82c03993c78018e89'
p32
sg12
S'xx5d90740dbb4664a2ad07c40a60955ebd'
p33
sg14
S'Mozilla/5.0 (Linux; Android 4.4.2; Lenovo A360t Build/KOT49H) AppleWebKit/537.36 (KHTML, like Gecko) Version/4.0 Chrome/37.0.0.0 Mobile MQQBrowser/6.8 TBS/036849 Safari/537.36 MicroMessenger/6.3.27.880 NetType/WIFI Language/zh_CN'
p34
sg16
S'5d3ffb2b2e7e4e793f7924a68186567e'
p35
sa(dp36
g2
S'45199'
p37
sg4
S'7826'
p38
sg6
S'b1600bdca2a74f5f77f8758d9e6f829f'
p39
sg8
S'xx24e3988ad1a8a1d3ab90021a8aea4778'
p40
sg10
S'xxf0ce69602a68e5d82c03993c78018e89'
p41
sg12
S'xx5d90740dbb4664a2ad07c40a60955ebd'
p42
sg14
S'Mozilla/5.0 (Linux; Android 4.4.2; Lenovo A360t Build/KOT49H) AppleWebKit/537.36 (KHTML, like Gecko) Version/4.0 Chrome/37.0.0.0 Mobile MQQBrowser/6.8 TBS/036849 Safari/537.36 MicroMessenger/6.3.27.880 NetType/WIFI Language/zh_CN'
p43
sg16
S'5d3ffb2b2e7e4e793f7924a68186567e'
p44
sa(dp45
g2
S'45199'
p46
sg4
S'7837'
p47
sg6
S'b1600bdca2a74f5f77f8758d9e6f829f'
p48
sg8
S'xx24e3988ad1a8a1d3ab90021a8aea4778'
p49
sg10
S'xxf0ce69602a68e5d82c03993c78018e89'
p50
sg12
S'xx5d90740dbb4664a2ad07c40a60955ebd'
p51
sg14
S'Mozilla/5.0 (Linux; Android 4.4.2; Lenovo A360t Build/KOT49H) AppleWebKit/537.36 (KHTML, like Gecko) Version/4.0 Chrome/37.0.0.0 Mobile MQQBrowser/6.8 TBS/036849 Safari/537.36 MicroMessenger/6.3.27.880 NetType/WIFI Language/zh_CN'
p52
sg16
S'5d3ffb2b2e7e4e793f7924a68186567e'
p53
sa(dp54
g2
S'45199'
p55
sg4
S'8588'
p56
sg6
S'b1600bdca2a74f5f77f8758d9e6f829f'
p57
sg8
S'xx24e3988ad1a8a1d3ab90021a8aea4778'
p58
sg10
S'xxf0ce69602a68e5d82c03993c78018e89'
p59
sg12
S'xx5d90740dbb4664a2ad07c40a60955ebd'
p60
sg14
S'Mozilla/5.0 (Linux; Android 4.4.2; Lenovo A360t Build/KOT49H) AppleWebKit/537.36 (KHTML, like Gecko) Version/4.0 Chrome/37.0.0.0 Mobile MQQBrowser/6.8 TBS/036849 Safari/537.36 MicroMessenger/6.3.27.880 NetType/WIFI Language/zh_CN'
p61
sg16
S'5d3ffb2b2e7e4e793f7924a68186567e'
p62
sa(dp63
g2
S'45199'
p64
sg4
S'8609'
p65
sg6
S'b1600bdca2a74f5f77f8758d9e6f829f'
p66
sg8
S'xx24e3988ad1a8a1d3ab90021a8aea4778'
p67
sg10
S'xxf0ce69602a68e5d82c03993c78018e89'
p68
sg12
S'xx5d90740dbb4664a2ad07c40a60955ebd'
p69
sg14
S'Mozilla/5.0 (Linux; Android 4.4.2; Lenovo A360t Build/KOT49H) AppleWebKit/537.36 (KHTML, like Gecko) Version/4.0 Chrome/37.0.0.0 Mobile MQQBrowser/6.8 TBS/036849 Safari/537.36 MicroMessenger/6.3.27.880 NetType/WIFI Language/zh_CN'
p70
sg16
S'5d3ffb2b2e7e4e793f7924a68186567e'
p71
sa(dp72
g2
S'45199'
p73
sg4
S'8629'
p74
sg6
S'b1600bdca2a74f5f77f8758d9e6f829f'
p75
sg8
S'xx24e3988ad1a8a1d3ab90021a8aea4778'
p76
sg10
S'xxf0ce69602a68e5d82c03993c78018e89'
p77
sg12
S'xx5d90740dbb4664a2ad07c40a60955ebd'
p78
sg14
S'Mozilla/5.0 (Linux; Android 4.4.2; Lenovo A360t Build/KOT49H) AppleWebKit/537.36 (KHTML, like Gecko) Version/4.0 Chrome/37.0.0.0 Mobile MQQBrowser/6.8 TBS/036849 Safari/537.36 MicroMessenger/6.3.27.880 NetType/WIFI Language/zh_CN'
p79
sg16
S'5d3ffb2b2e7e4e793f7924a68186567e'
p80
sa(dp81
g2
S'45199'
p82
sg4
S'8644'
p83
sg6
S'b1600bdca2a74f5f77f8758d9e6f829f'
p84
sg8
S'xx24e3988ad1a8a1d3ab90021a8aea4778'
p85
sg10
S'xxf0ce69602a68e5d82c03993c78018e89'
p86
sg12
S'xx5d90740dbb4664a2ad07c40a60955ebd'
p87
sg14
S'Mozilla/5.0 (Linux; Android 4.4.2; Lenovo A360t Build/KOT49H) AppleWebKit/537.36 (KHTML, like Gecko) Version/4.0 Chrome/37.0.0.0 Mobile MQQBrowser/6.8 TBS/036849 Safari/537.36 MicroMessenger/6.3.27.880 NetType/WIFI Language/zh_CN'
p88
sg16
S'5d3ffb2b2e7e4e793f7924a68186567e'
p89
sa(dp90
g2
S'45199'
p91
sg4
S'8657'
p92
sg6
S'b1600bdca2a74f5f77f8758d9e6f829f'
p93
sg8
S'xx24e3988ad1a8a1d3ab90021a8aea4778'
p94
sg10
S'xxf0ce69602a68e5d82c03993c78018e89'
p95
sg12
S'xx5d90740dbb4664a2ad07c40a60955ebd'
p96
sg14
S'Mozilla/5.0 (Linux; Android 4.4.2; Lenovo A360t Build/KOT49H) AppleWebKit/537.36 (KHTML, like Gecko) Version/4.0 Chrome/37.0.0.0 Mobile MQQBrowser/6.8 TBS/036849 Safari/537.36 MicroMessenger/6.3.27.880 NetType/WIFI Language/zh_CN'
p97
sg16
S'5d3ffb2b2e7e4e793f7924a68186567e'
p98
sa(dp99
g2
S'45199'
p100
sg4
S'8676'
p101
sg6
S'b1600bdca2a74f5f77f8758d9e6f829f'
p102
sg8
S'xx24e3988ad1a8a1d3ab90021a8aea4778'
p103
sg10
S'xxf0ce69602a68e5d82c03993c78018e89'
p104
sg12
S'xx5d90740dbb4664a2ad07c40a60955ebd'
p105
sg14
S'Mozilla/5.0 (Linux; Android 4.4.2; Lenovo A360t Build/KOT49H) AppleWebKit/537.36 (KHTML, like Gecko) Version/4.0 Chrome/37.0.0.0 Mobile MQQBrowser/6.8 TBS/036849 Safari/537.36 MicroMessenger/6.3.27.880 NetType/WIFI Language/zh_CN'
p106
sg16
S'5d3ffb2b2e7e4e793f7924a68186567e'
p107
sa(dp108
g2
S'45199'
p109
sg4
S'8693'
p110
sg6
S'b1600bdca2a74f5f77f8758d9e6f829f'
p111
sg8
S'xx24e3988ad1a8a1d3ab90021a8aea4778'
p112
sg10
S'xxf0ce69602a68e5d82c03993c78018e89'
p113
sg12
S'xx5d90740dbb4664a2ad07c40a60955ebd'
p114
sg14
S'Mozilla/5.0 (Linux; Android 4.4.2; Lenovo A360t Build/KOT49H) AppleWebKit/537.36 (KHTML, like Gecko) Version/4.0 Chrome/37.0.0.0 Mobile MQQBrowser/6.8 TBS/036849 Safari/537.36 MicroMessenger/6.3.27.880 NetType/WIFI Language/zh_CN'
p115
sg16
S'5d3ffb2b2e7e4e793f7924a68186567e'
p116
sa(dp117
g2
S'45199'
p118
sg4
S'8713'
p119
sg6
S'b1600bdca2a74f5f77f8758d9e6f829f'
p120
sg8
S'xx24e3988ad1a8a1d3ab90021a8aea4778'
p121
sg10
S'xxf0ce69602a68e5d82c03993c78018e89'
p122
sg12
S'xx5d90740dbb4664a2ad07c40a60955ebd'
p123
sg14
S'Mozilla/5.0 (Linux; Android 4.4.2; Lenovo A360t Build/KOT49H) AppleWebKit/537.36 (KHTML, like Gecko) Version/4.0 Chrome/37.0.0.0 Mobile MQQBrowser/6.8 TBS/036849 Safari/537.36 MicroMessenger/6.3.27.880 NetType/WIFI Language/zh_CN'
p124
sg16
S'5d3ffb2b2e7e4e793f7924a68186567e'
p125
sa(dp126
g2
S'45199'
p127
sg4
S'8727'
p128
sg6
S'b1600bdca2a74f5f77f8758d9e6f829f'
p129
sg8
S'xx24e3988ad1a8a1d3ab90021a8aea4778'
p130
sg10
S'xxf0ce69602a68e5d82c03993c78018e89'
p131
sg12
S'xx5d90740dbb4664a2ad07c40a60955ebd'
p132
sg14
S'Mozilla/5.0 (Linux; Android 4.4.2; Lenovo A360t Build/KOT49H) AppleWebKit/537.36 (KHTML, like Gecko) Version/4.0 Chrome/37.0.0.0 Mobile MQQBrowser/6.8 TBS/036849 Safari/537.36 MicroMessenger/6.3.27.880 NetType/WIFI Language/zh_CN'
p133
sg16
S'5d3ffb2b2e7e4e793f7924a68186567e'
p134
sa(dp135
g2
S'45199'
p136
sg4
S'8742'
p137
sg6
S'b1600bdca2a74f5f77f8758d9e6f829f'
p138
sg8
S'xx24e3988ad1a8a1d3ab90021a8aea4778'
p139
sg10
S'xxf0ce69602a68e5d82c03993c78018e89'
p140
sg12
S'xx5d90740dbb4664a2ad07c40a60955ebd'
p141
sg14
S'Mozilla/5.0 (Linux; Android 4.4.2; Lenovo A360t Build/KOT49H) AppleWebKit/537.36 (KHTML, like Gecko) Version/4.0 Chrome/37.0.0.0 Mobile MQQBrowser/6.8 TBS/036849 Safari/537.36 MicroMessenger/6.3.27.880 NetType/WIFI Language/zh_CN'
p142
sg16
S'5d3ffb2b2e7e4e793f7924a68186567e'
p143
sa(dp144
g2
S'45199'
p145
sg4
S'8756'
p146
sg6
S'b1600bdca2a74f5f77f8758d9e6f829f'
p147
sg8
S'xx24e3988ad1a8a1d3ab90021a8aea4778'
p148
sg10
S'xxf0ce69602a68e5d82c03993c78018e89'
p149
sg12
S'xx5d90740dbb4664a2ad07c40a60955ebd'
p150
sg14
S'Mozilla/5.0 (Linux; Android 4.4.2; Lenovo A360t Build/KOT49H) AppleWebKit/537.36 (KHTML, like Gecko) Version/4.0 Chrome/37.0.0.0 Mobile MQQBrowser/6.8 TBS/036849 Safari/537.36 MicroMessenger/6.3.27.880 NetType/WIFI Language/zh_CN'
p151
sg16
S'5d3ffb2b2e7e4e793f7924a68186567e'
p152
sa(dp153
g2
S'45199'
p154
sg4
S'8772'
p155
sg6
S'b1600bdca2a74f5f77f8758d9e6f829f'
p156
sg8
S'xx24e3988ad1a8a1d3ab90021a8aea4778'
p157
sg10
S'xxf0ce69602a68e5d82c03993c78018e89'
p158
sg12
S'xx5d90740dbb4664a2ad07c40a60955ebd'
p159
sg14
S'Mozilla/5.0 (Linux; Android 4.4.2; Lenovo A360t Build/KOT49H) AppleWebKit/537.36 (KHTML, like Gecko) Version/4.0 Chrome/37.0.0.0 Mobile MQQBrowser/6.8 TBS/036849 Safari/537.36 MicroMessenger/6.3.27.880 NetType/WIFI Language/zh_CN'
p160
sg16
S'5d3ffb2b2e7e4e793f7924a68186567e'
p161
sa(dp162
g2
S'45199'
p163
sg4
S'8782'
p164
sg6
S'b1600bdca2a74f5f77f8758d9e6f829f'
p165
sg8
S'xx24e3988ad1a8a1d3ab90021a8aea4778'
p166
sg10
S'xxf0ce69602a68e5d82c03993c78018e89'
p167
sg12
S'xx5d90740dbb4664a2ad07c40a60955ebd'
p168
sg14
S'Mozilla/5.0 (Linux; Android 4.4.2; Lenovo A360t Build/KOT49H) AppleWebKit/537.36 (KHTML, like Gecko) Version/4.0 Chrome/37.0.0.0 Mobile MQQBrowser/6.8 TBS/036849 Safari/537.36 MicroMessenger/6.3.27.880 NetType/WIFI Language/zh_CN'
p169
sg16
S'5d3ffb2b2e7e4e793f7924a68186567e'
p170
sa(dp171
g2
S'45199'
p172
sg4
S'8796'
p173
sg6
S'b1600bdca2a74f5f77f8758d9e6f829f'
p174
sg8
S'xx24e3988ad1a8a1d3ab90021a8aea4778'
p175
sg10
S'xxf0ce69602a68e5d82c03993c78018e89'
p176
sg12
S'xx5d90740dbb4664a2ad07c40a60955ebd'
p177
sg14
S'Mozilla/5.0 (Linux; Android 4.4.2; Lenovo A360t Build/KOT49H) AppleWebKit/537.36 (KHTML, like Gecko) Version/4.0 Chrome/37.0.0.0 Mobile MQQBrowser/6.8 TBS/036849 Safari/537.36 MicroMessenger/6.3.27.880 NetType/WIFI Language/zh_CN'
p178
sg16
S'5d3ffb2b2e7e4e793f7924a68186567e'
p179
sa.