(lp0
(dp1
S'user_id'
p2
S'49819'
p3
sS'data_id'
p4
S'6746'
p5
sS'ip'
p6
S'128986be44cfafb2233e718426be7237'
p7
sS'phone_B'
p8
S'xx754617eb1a3e3ec9d3cc2fa8c4571c56'
p9
sS'phone_C'
p10
S'xx1bb74078365fe572c29a0d81127263cc'
p11
sS'phone_A'
p12
S'xx5d0b5a1327e650e40997ef9742ffb01b'
p13
sS'user_agent'
p14
S'Mozilla/5.0 (Linux; Android 5.1; WP_V5 Build/LMY47D) AppleWebKit/537.36 (KHTML, like Gecko) Version/4.0 Chrome/37.0.0.0 Mobile MQQBrowser/6.8 TBS/036849 Safari/537.36 MicroMessenger/6.3.27.880 NetType/WIFI Language/zh_CN'
p15
sS'ua'
p16
S'bb6a3e78f6256a56ee0899e0fbf00622'
p17
sa(dp18
g2
S'49819'
p19
sg4
S'6764'
p20
sg6
S'128986be44cfafb2233e718426be7237'
p21
sg8
S'xx754617eb1a3e3ec9d3cc2fa8c4571c56'
p22
sg10
S'xx1bb74078365fe572c29a0d81127263cc'
p23
sg12
S'xx5d0b5a1327e650e40997ef9742ffb01b'
p24
sg14
S'Mozilla/5.0 (Linux; Android 5.1; WP_V5 Build/LMY47D) AppleWebKit/537.36 (KHTML, like Gecko) Version/4.0 Chrome/37.0.0.0 Mobile MQQBrowser/6.8 TBS/036849 Safari/537.36 MicroMessenger/6.3.27.880 NetType/WIFI Language/zh_CN'
p25
sg16
S'bb6a3e78f6256a56ee0899e0fbf00622'
p26
sa(dp27
g2
S'49819'
p28
sg4
S'6780'
p29
sg6
S'128986be44cfafb2233e718426be7237'
p30
sg8
S'xx754617eb1a3e3ec9d3cc2fa8c4571c56'
p31
sg10
S'xx1bb74078365fe572c29a0d81127263cc'
p32
sg12
S'xx5d0b5a1327e650e40997ef9742ffb01b'
p33
sg14
S'Mozilla/5.0 (Linux; Android 5.1; WP_V5 Build/LMY47D) AppleWebKit/537.36 (KHTML, like Gecko) Version/4.0 Chrome/37.0.0.0 Mobile MQQBrowser/6.8 TBS/036849 Safari/537.36 MicroMessenger/6.3.27.880 NetType/WIFI Language/zh_CN'
p34
sg16
S'bb6a3e78f6256a56ee0899e0fbf00622'
p35
sa(dp36
g2
S'49819'
p37
sg4
S'6801'
p38
sg6
S'128986be44cfafb2233e718426be7237'
p39
sg8
S'xx754617eb1a3e3ec9d3cc2fa8c4571c56'
p40
sg10
S'xx1bb74078365fe572c29a0d81127263cc'
p41
sg12
S'xx5d0b5a1327e650e40997ef9742ffb01b'
p42
sg14
S'Mozilla/5.0 (Linux; Android 5.1; WP_V5 Build/LMY47D) AppleWebKit/537.36 (KHTML, like Gecko) Version/4.0 Chrome/37.0.0.0 Mobile MQQBrowser/6.8 TBS/036849 Safari/537.36 MicroMessenger/6.3.27.880 NetType/WIFI Language/zh_CN'
p43
sg16
S'bb6a3e78f6256a56ee0899e0fbf00622'
p44
sa.