(lp0
(dp1
S'user_id'
p2
S'39112'
p3
sS'data_id'
p4
S'986'
p5
sS'ip'
p6
S'1cb1750e4c77601799def0feb967d153'
p7
sS'phone_B'
p8
S'xx85ec84f01dd8cd7bad894eb6072bdc7e'
p9
sS'phone_C'
p10
S'xxa6d6c8e9e0447e2601cc502360739b8e'
p11
sS'phone_A'
p12
S'xx5e822eb48922e750d41409b89a42c39a'
p13
sS'user_agent'
p14
S'Mozilla/5.0 (Linux; Android 5.1.1; SCL-TL00 Build/HonorSCL-TL00) AppleWebKit/537.36 (KHTML, like Gecko) Version/4.0 Chrome/37.0.0.0 Mobile MQQBrowser/6.8 TBS/036824 Safari/537.36 MicroMessenger/6.3.27.880 NetType/WIFI Language/zh_CN'
p15
sS'ua'
p16
S'8e8ef9db12220fcb39c77ddf07eae5b9'
p17
sa(dp18
g2
S'39112'
p19
sg4
S'1000'
p20
sg6
S'1cb1750e4c77601799def0feb967d153'
p21
sg8
S'xx85ec84f01dd8cd7bad894eb6072bdc7e'
p22
sg10
S'xxa6d6c8e9e0447e2601cc502360739b8e'
p23
sg12
S'xx5e822eb48922e750d41409b89a42c39a'
p24
sg14
S'Mozilla/5.0 (Linux; Android 5.1.1; SCL-TL00 Build/HonorSCL-TL00) AppleWebKit/537.36 (KHTML, like Gecko) Version/4.0 Chrome/37.0.0.0 Mobile MQQBrowser/6.8 TBS/036824 Safari/537.36 MicroMessenger/6.3.27.880 NetType/WIFI Language/zh_CN'
p25
sg16
S'8e8ef9db12220fcb39c77ddf07eae5b9'
p26
sa(dp27
g2
S'42563'
p28
sg4
S'1021'
p29
sg6
S'f6c52aa927fb57dd052a400083d10ed1'
p30
sg8
S'xx678ccfc8b3f472756d6c03caa9508b79'
p31
sg10
S'xxa6d6c8e9e0447e2601cc502360739b8e'
p32
sg12
S'xx5e822eb48922e750d41409b89a42c39a'
p33
sg14
S'Mozilla/5.0 (Linux; Android 5.1.1; SCL-TL00 Build/HonorSCL-TL00) AppleWebKit/537.36 (KHTML, like Gecko) Version/4.0 Chrome/37.0.0.0 Mobile MQQBrowser/6.8 TBS/036849 Safari/537.36 MicroMessenger/6.3.27.880 NetType/WIFI Language/zh_CN'
p34
sg16
S'48cf9bba9f3ced3fc27ff5942c5fb697'
p35
sa(dp36
g2
S'42563'
p37
sg4
S'1038'
p38
sg6
S'f6c52aa927fb57dd052a400083d10ed1'
p39
sg8
S'xx678ccfc8b3f472756d6c03caa9508b79'
p40
sg10
S'xxa6d6c8e9e0447e2601cc502360739b8e'
p41
sg12
S'xx5e822eb48922e750d41409b89a42c39a'
p42
sg14
S'Mozilla/5.0 (Linux; Android 5.1.1; SCL-TL00 Build/HonorSCL-TL00) AppleWebKit/537.36 (KHTML, like Gecko) Version/4.0 Chrome/37.0.0.0 Mobile MQQBrowser/6.8 TBS/036849 Safari/537.36 MicroMessenger/6.3.27.880 NetType/WIFI Language/zh_CN'
p43
sg16
S'48cf9bba9f3ced3fc27ff5942c5fb697'
p44
sa(dp45
g2
S'42563'
p46
sg4
S'1054'
p47
sg6
S'f6c52aa927fb57dd052a400083d10ed1'
p48
sg8
S'xx678ccfc8b3f472756d6c03caa9508b79'
p49
sg10
S'xxa6d6c8e9e0447e2601cc502360739b8e'
p50
sg12
S'xx5e822eb48922e750d41409b89a42c39a'
p51
sg14
S'Mozilla/5.0 (Linux; Android 5.1.1; SCL-TL00 Build/HonorSCL-TL00) AppleWebKit/537.36 (KHTML, like Gecko) Version/4.0 Chrome/37.0.0.0 Mobile MQQBrowser/6.8 TBS/036849 Safari/537.36 MicroMessenger/6.3.27.880 NetType/WIFI Language/zh_CN'
p52
sg16
S'48cf9bba9f3ced3fc27ff5942c5fb697'
p53
sa(dp54
g2
S'42563'
p55
sg4
S'1074'
p56
sg6
S'f6c52aa927fb57dd052a400083d10ed1'
p57
sg8
S'xx678ccfc8b3f472756d6c03caa9508b79'
p58
sg10
S'xxa6d6c8e9e0447e2601cc502360739b8e'
p59
sg12
S'xx5e822eb48922e750d41409b89a42c39a'
p60
sg14
S'Mozilla/5.0 (Linux; Android 5.1.1; SCL-TL00 Build/HonorSCL-TL00) AppleWebKit/537.36 (KHTML, like Gecko) Version/4.0 Chrome/37.0.0.0 Mobile MQQBrowser/6.8 TBS/036849 Safari/537.36 MicroMessenger/6.3.27.880 NetType/WIFI Language/zh_CN'
p61
sg16
S'48cf9bba9f3ced3fc27ff5942c5fb697'
p62
sa(dp63
g2
S'29908'
p64
sg4
S'1567'
p65
sg6
S'9f1646758f5caa8f0024a86112f1fed2'
p66
sg8
S'xx7c568a849e75b04fa9202d3470a92808'
p67
sg10
S'xxa6d6c8e9e0447e2601cc502360739b8e'
p68
sg12
S'xx5e822eb48922e750d41409b89a42c39a'
p69
sg14
S'Mozilla/5.0 (Linux; Android 5.1.1; SCL-TL00 Build/HonorSCL-TL00) AppleWebKit/537.36 (KHTML, like Gecko) Version/4.0 Chrome/37.0.0.0 Mobile MQQBrowser/6.8 TBS/036869 Safari/537.36 MicroMessenger/6.3.27.880 NetType/cmnet Language/zh_CN'
p70
sg16
S'ae9854eee28c4a1a8d6b13ddc7fc9f03'
p71
sa(dp72
g2
S'29908'
p73
sg4
S'1582'
p74
sg6
S'9f1646758f5caa8f0024a86112f1fed2'
p75
sg8
S'xx7c568a849e75b04fa9202d3470a92808'
p76
sg10
S'xxa6d6c8e9e0447e2601cc502360739b8e'
p77
sg12
S'xx5e822eb48922e750d41409b89a42c39a'
p78
sg14
S'Mozilla/5.0 (Linux; Android 5.1.1; SCL-TL00 Build/HonorSCL-TL00) AppleWebKit/537.36 (KHTML, like Gecko) Version/4.0 Chrome/37.0.0.0 Mobile MQQBrowser/6.8 TBS/036869 Safari/537.36 MicroMessenger/6.3.27.880 NetType/cmnet Language/zh_CN'
p79
sg16
S'ae9854eee28c4a1a8d6b13ddc7fc9f03'
p80
sa(dp81
g2
S'49139'
p82
sg4
S'1778'
p83
sg6
S'6f9d457af057d70e609eeecbaab44612'
p84
sg8
S'xx85ec84f01dd8cd7bad894eb6072bdc7e'
p85
sg10
S'xxa6d6c8e9e0447e2601cc502360739b8e'
p86
sg12
S'xx5e822eb48922e750d41409b89a42c39a'
p87
sg14
S'Mozilla/5.0 (Linux; Android 5.1.1; SCL-TL00 Build/HonorSCL-TL00) AppleWebKit/537.36 (KHTML, like Gecko) Version/4.0 Chrome/37.0.0.0 Mobile MQQBrowser/6.8 TBS/036824 Safari/537.36 MicroMessenger/6.3.27.880 NetType/WIFI Language/zh_CN'
p88
sg16
S'8e8ef9db12220fcb39c77ddf07eae5b9'
p89
sa(dp90
g2
S'49139'
p91
sg4
S'1797'
p92
sg6
S'6f9d457af057d70e609eeecbaab44612'
p93
sg8
S'xx85ec84f01dd8cd7bad894eb6072bdc7e'
p94
sg10
S'xxa6d6c8e9e0447e2601cc502360739b8e'
p95
sg12
S'xx5e822eb48922e750d41409b89a42c39a'
p96
sg14
S'Mozilla/5.0 (Linux; Android 5.1.1; SCL-TL00 Build/HonorSCL-TL00) AppleWebKit/537.36 (KHTML, like Gecko) Version/4.0 Chrome/37.0.0.0 Mobile MQQBrowser/6.8 TBS/036824 Safari/537.36 MicroMessenger/6.3.27.880 NetType/WIFI Language/zh_CN'
p97
sg16
S'8e8ef9db12220fcb39c77ddf07eae5b9'
p98
sa(dp99
g2
S'32290'
p100
sg4
S'3329'
p101
sg6
S'509368e6f61d2e7b8daf31e0cb12da6d'
p102
sg8
S'xxb161ca18a2ad8e33c69f8b48997e7dcb'
p103
sg10
S'xxa6d6c8e9e0447e2601cc502360739b8e'
p104
sg12
S'xx5e822eb48922e750d41409b89a42c39a'
p105
sg14
S'Mozilla/5.0 (Linux; Android 5.1.1; SCL-TL00 Build/HonorSCL-TL00) AppleWebKit/537.36 (KHTML, like Gecko) Version/4.0 Chrome/37.0.0.0 Mobile MQQBrowser/6.8 TBS/036869 Safari/537.36 MicroMessenger/6.3.27.880 NetType/WIFI Language/zh_CN'
p106
sg16
S'5819a19c5e7bcd4b55db33ad89845479'
p107
sa(dp108
g2
S'32290'
p109
sg4
S'3340'
p110
sg6
S'509368e6f61d2e7b8daf31e0cb12da6d'
p111
sg8
S'xxb161ca18a2ad8e33c69f8b48997e7dcb'
p112
sg10
S'xxa6d6c8e9e0447e2601cc502360739b8e'
p113
sg12
S'xx5e822eb48922e750d41409b89a42c39a'
p114
sg14
S'Mozilla/5.0 (Linux; Android 5.1.1; SCL-TL00 Build/HonorSCL-TL00) AppleWebKit/537.36 (KHTML, like Gecko) Version/4.0 Chrome/37.0.0.0 Mobile MQQBrowser/6.8 TBS/036869 Safari/537.36 MicroMessenger/6.3.27.880 NetType/WIFI Language/zh_CN'
p115
sg16
S'5819a19c5e7bcd4b55db33ad89845479'
p116
sa(dp117
g2
S'48424'
p118
sg4
S'4352'
p119
sg6
S'6f9d457af057d70e609eeecbaab44612'
p120
sg8
S'xx85ec84f01dd8cd7bad894eb6072bdc7e'
p121
sg10
S'xxa6d6c8e9e0447e2601cc502360739b8e'
p122
sg12
S'xx5e822eb48922e750d41409b89a42c39a'
p123
sg14
S'Mozilla/5.0 (Linux; Android 5.1.1; SCL-TL00 Build/HonorSCL-TL00) AppleWebKit/537.36 (KHTML, like Gecko) Version/4.0 Chrome/37.0.0.0 Mobile MQQBrowser/6.8 TBS/036824 Safari/537.36 MicroMessenger/6.3.27.880 NetType/WIFI Language/zh_CN'
p124
sg16
S'8e8ef9db12220fcb39c77ddf07eae5b9'
p125
sa(dp126
g2
S'48424'
p127
sg4
S'4371'
p128
sg6
S'6f9d457af057d70e609eeecbaab44612'
p129
sg8
S'xx85ec84f01dd8cd7bad894eb6072bdc7e'
p130
sg10
S'xxa6d6c8e9e0447e2601cc502360739b8e'
p131
sg12
S'xx5e822eb48922e750d41409b89a42c39a'
p132
sg14
S'Mozilla/5.0 (Linux; Android 5.1.1; SCL-TL00 Build/HonorSCL-TL00) AppleWebKit/537.36 (KHTML, like Gecko) Version/4.0 Chrome/37.0.0.0 Mobile MQQBrowser/6.8 TBS/036824 Safari/537.36 MicroMessenger/6.3.27.880 NetType/WIFI Language/zh_CN'
p133
sg16
S'8e8ef9db12220fcb39c77ddf07eae5b9'
p134
sa(dp135
g2
S'49783'
p136
sg4
S'4396'
p137
sg6
S'109541bdadeee800acc0ac1c12bc169a'
p138
sg8
S'xxff9af90284c11deb3373bce16de24393'
p139
sg10
S'xxa6d6c8e9e0447e2601cc502360739b8e'
p140
sg12
S'xx5e822eb48922e750d41409b89a42c39a'
p141
sg14
S'Mozilla/5.0 (Linux; Android 5.1.1; SCL-TL00 Build/HonorSCL-TL00) AppleWebKit/537.36 (KHTML, like Gecko) Version/4.0 Chrome/37.0.0.0 Mobile MQQBrowser/6.8 TBS/036849 Safari/537.36 MicroMessenger/6.3.27.880 NetType/cmnet Language/zh_CN'
p142
sg16
S'cc354f6f0dce86a7d996da3fafb1cd56'
p143
sa(dp144
g2
S'49783'
p145
sg4
S'4419'
p146
sg6
S'109541bdadeee800acc0ac1c12bc169a'
p147
sg8
S'xxff9af90284c11deb3373bce16de24393'
p148
sg10
S'xxa6d6c8e9e0447e2601cc502360739b8e'
p149
sg12
S'xx5e822eb48922e750d41409b89a42c39a'
p150
sg14
S'Mozilla/5.0 (Linux; Android 5.1.1; SCL-TL00 Build/HonorSCL-TL00) AppleWebKit/537.36 (KHTML, like Gecko) Version/4.0 Chrome/37.0.0.0 Mobile MQQBrowser/6.8 TBS/036849 Safari/537.36 MicroMessenger/6.3.27.880 NetType/cmnet Language/zh_CN'
p151
sg16
S'cc354f6f0dce86a7d996da3fafb1cd56'
p152
sa(dp153
g2
S'21695'
p154
sg4
S'5966'
p155
sg6
S'a5b44b593f8f8dbc9d4ef18a119f70cf'
p156
sg8
S'xxb161ca18a2ad8e33c69f8b48997e7dcb'
p157
sg10
S'xxa6d6c8e9e0447e2601cc502360739b8e'
p158
sg12
S'xx5e822eb48922e750d41409b89a42c39a'
p159
sg14
S'Mozilla/5.0 (Linux; Android 5.1.1; SCL-TL00 Build/HonorSCL-TL00) AppleWebKit/537.36 (KHTML, like Gecko) Version/4.0 Chrome/37.0.0.0 Mobile MQQBrowser/6.8 TBS/036869 Safari/537.36 MicroMessenger/6.3.27.880 NetType/WIFI Language/zh_CN'
p160
sg16
S'5819a19c5e7bcd4b55db33ad89845479'
p161
sa(dp162
g2
S'21695'
p163
sg4
S'7088'
p164
sg6
S'6b415139e3d8c4a4ed08169940815b46'
p165
sg8
S'xxb161ca18a2ad8e33c69f8b48997e7dcb'
p166
sg10
S'xxa6d6c8e9e0447e2601cc502360739b8e'
p167
sg12
S'xx5e822eb48922e750d41409b89a42c39a'
p168
sg14
S'Mozilla/5.0 (Linux; Android 5.1.1; SCL-TL00 Build/HonorSCL-TL00) AppleWebKit/537.36 (KHTML, like Gecko) Version/4.0 Chrome/37.0.0.0 Mobile MQQBrowser/6.8 TBS/036869 Safari/537.36 MicroMessenger/6.3.27.880 NetType/WIFI Language/zh_CN'
p169
sg16
S'5819a19c5e7bcd4b55db33ad89845479'
p170
sa(dp171
g2
S'41891'
p172
sg4
S'7094'
p173
sg6
S'7424a490a049e5ce539b9db9fea35724'
p174
sg8
S'xx678ccfc8b3f472756d6c03caa9508b79'
p175
sg10
S'xxa6d6c8e9e0447e2601cc502360739b8e'
p176
sg12
S'xx5e822eb48922e750d41409b89a42c39a'
p177
sg14
S'Mozilla/5.0 (Linux; Android 5.1.1; SCL-TL00 Build/HonorSCL-TL00) AppleWebKit/537.36 (KHTML, like Gecko) Version/4.0 Chrome/37.0.0.0 Mobile MQQBrowser/6.8 TBS/036849 Safari/537.36 MicroMessenger/6.3.27.880 NetType/WIFI Language/zh_CN'
p178
sg16
S'48cf9bba9f3ced3fc27ff5942c5fb697'
p179
sa(dp180
g2
S'21695'
p181
sg4
S'7101'
p182
sg6
S'6b415139e3d8c4a4ed08169940815b46'
p183
sg8
S'xxb161ca18a2ad8e33c69f8b48997e7dcb'
p184
sg10
S'xxa6d6c8e9e0447e2601cc502360739b8e'
p185
sg12
S'xx5e822eb48922e750d41409b89a42c39a'
p186
sg14
S'Mozilla/5.0 (Linux; Android 5.1.1; SCL-TL00 Build/HonorSCL-TL00) AppleWebKit/537.36 (KHTML, like Gecko) Version/4.0 Chrome/37.0.0.0 Mobile MQQBrowser/6.8 TBS/036869 Safari/537.36 MicroMessenger/6.3.27.880 NetType/WIFI Language/zh_CN'
p187
sg16
S'5819a19c5e7bcd4b55db33ad89845479'
p188
sa(dp189
g2
S'41891'
p190
sg4
S'7111'
p191
sg6
S'7424a490a049e5ce539b9db9fea35724'
p192
sg8
S'xx678ccfc8b3f472756d6c03caa9508b79'
p193
sg10
S'xxa6d6c8e9e0447e2601cc502360739b8e'
p194
sg12
S'xx5e822eb48922e750d41409b89a42c39a'
p195
sg14
S'Mozilla/5.0 (Linux; Android 5.1.1; SCL-TL00 Build/HonorSCL-TL00) AppleWebKit/537.36 (KHTML, like Gecko) Version/4.0 Chrome/37.0.0.0 Mobile MQQBrowser/6.8 TBS/036849 Safari/537.36 MicroMessenger/6.3.27.880 NetType/WIFI Language/zh_CN'
p196
sg16
S'48cf9bba9f3ced3fc27ff5942c5fb697'
p197
sa(dp198
g2
S'41891'
p199
sg4
S'7141'
p200
sg6
S'7424a490a049e5ce539b9db9fea35724'
p201
sg8
S'xx678ccfc8b3f472756d6c03caa9508b79'
p202
sg10
S'xxa6d6c8e9e0447e2601cc502360739b8e'
p203
sg12
S'xx5e822eb48922e750d41409b89a42c39a'
p204
sg14
S'Mozilla/5.0 (Linux; Android 5.1.1; SCL-TL00 Build/HonorSCL-TL00) AppleWebKit/537.36 (KHTML, like Gecko) Version/4.0 Chrome/37.0.0.0 Mobile MQQBrowser/6.8 TBS/036849 Safari/537.36 MicroMessenger/6.3.27.880 NetType/WIFI Language/zh_CN'
p205
sg16
S'48cf9bba9f3ced3fc27ff5942c5fb697'
p206
sa(dp207
g2
S'41891'
p208
sg4
S'7180'
p209
sg6
S'7424a490a049e5ce539b9db9fea35724'
p210
sg8
S'xx678ccfc8b3f472756d6c03caa9508b79'
p211
sg10
S'xxa6d6c8e9e0447e2601cc502360739b8e'
p212
sg12
S'xx5e822eb48922e750d41409b89a42c39a'
p213
sg14
S'Mozilla/5.0 (Linux; Android 5.1.1; SCL-TL00 Build/HonorSCL-TL00) AppleWebKit/537.36 (KHTML, like Gecko) Version/4.0 Chrome/37.0.0.0 Mobile MQQBrowser/6.8 TBS/036849 Safari/537.36 MicroMessenger/6.3.27.880 NetType/WIFI Language/zh_CN'
p214
sg16
S'48cf9bba9f3ced3fc27ff5942c5fb697'
p215
sa(dp216
g2
S'41891'
p217
sg4
S'7199'
p218
sg6
S'7424a490a049e5ce539b9db9fea35724'
p219
sg8
S'xx678ccfc8b3f472756d6c03caa9508b79'
p220
sg10
S'xxa6d6c8e9e0447e2601cc502360739b8e'
p221
sg12
S'xx5e822eb48922e750d41409b89a42c39a'
p222
sg14
S'Mozilla/5.0 (Linux; Android 5.1.1; SCL-TL00 Build/HonorSCL-TL00) AppleWebKit/537.36 (KHTML, like Gecko) Version/4.0 Chrome/37.0.0.0 Mobile MQQBrowser/6.8 TBS/036849 Safari/537.36 MicroMessenger/6.3.27.880 NetType/WIFI Language/zh_CN'
p223
sg16
S'48cf9bba9f3ced3fc27ff5942c5fb697'
p224
sa(dp225
g2
S'41891'
p226
sg4
S'7239'
p227
sg6
S'7424a490a049e5ce539b9db9fea35724'
p228
sg8
S'xx678ccfc8b3f472756d6c03caa9508b79'
p229
sg10
S'xxa6d6c8e9e0447e2601cc502360739b8e'
p230
sg12
S'xx5e822eb48922e750d41409b89a42c39a'
p231
sg14
S'Mozilla/5.0 (Linux; Android 5.1.1; SCL-TL00 Build/HonorSCL-TL00) AppleWebKit/537.36 (KHTML, like Gecko) Version/4.0 Chrome/37.0.0.0 Mobile MQQBrowser/6.8 TBS/036849 Safari/537.36 MicroMessenger/6.3.27.880 NetType/WIFI Language/zh_CN'
p232
sg16
S'48cf9bba9f3ced3fc27ff5942c5fb697'
p233
sa(dp234
g2
S'41891'
p235
sg4
S'7258'
p236
sg6
S'7424a490a049e5ce539b9db9fea35724'
p237
sg8
S'xx678ccfc8b3f472756d6c03caa9508b79'
p238
sg10
S'xxa6d6c8e9e0447e2601cc502360739b8e'
p239
sg12
S'xx5e822eb48922e750d41409b89a42c39a'
p240
sg14
S'Mozilla/5.0 (Linux; Android 5.1.1; SCL-TL00 Build/HonorSCL-TL00) AppleWebKit/537.36 (KHTML, like Gecko) Version/4.0 Chrome/37.0.0.0 Mobile MQQBrowser/6.8 TBS/036849 Safari/537.36 MicroMessenger/6.3.27.880 NetType/WIFI Language/zh_CN'
p241
sg16
S'48cf9bba9f3ced3fc27ff5942c5fb697'
p242
sa(dp243
g2
S'30476'
p244
sg4
S'7272'
p245
sg6
S'37adcabb4bd30f1f2144e826fd42738a'
p246
sg8
S'xx678ccfc8b3f472756d6c03caa9508b79'
p247
sg10
S'xxa6d6c8e9e0447e2601cc502360739b8e'
p248
sg12
S'xx5e822eb48922e750d41409b89a42c39a'
p249
sg14
S'Mozilla/5.0 (Linux; Android 5.1.1; SCL-TL00 Build/HonorSCL-TL00) AppleWebKit/537.36 (KHTML, like Gecko) Version/4.0 Chrome/37.0.0.0 Mobile MQQBrowser/6.8 TBS/036849 Safari/537.36 MicroMessenger/6.3.27.880 NetType/WIFI Language/zh_CN'
p250
sg16
S'48cf9bba9f3ced3fc27ff5942c5fb697'
p251
sa(dp252
g2
S'21695'
p253
sg4
S'7317'
p254
sg6
S'6b415139e3d8c4a4ed08169940815b46'
p255
sg8
S'xxb161ca18a2ad8e33c69f8b48997e7dcb'
p256
sg10
S'xxa6d6c8e9e0447e2601cc502360739b8e'
p257
sg12
S'xx5e822eb48922e750d41409b89a42c39a'
p258
sg14
S'Mozilla/5.0 (Linux; Android 5.1.1; SCL-TL00 Build/HonorSCL-TL00) AppleWebKit/537.36 (KHTML, like Gecko) Version/4.0 Chrome/37.0.0.0 Mobile MQQBrowser/6.8 TBS/036869 Safari/537.36 MicroMessenger/6.3.27.880 NetType/WIFI Language/zh_CN'
p259
sg16
S'5819a19c5e7bcd4b55db33ad89845479'
p260
sa(dp261
g2
S'21695'
p262
sg4
S'7517'
p263
sg6
S'6b415139e3d8c4a4ed08169940815b46'
p264
sg8
S'xxb161ca18a2ad8e33c69f8b48997e7dcb'
p265
sg10
S'xxa6d6c8e9e0447e2601cc502360739b8e'
p266
sg12
S'xx5e822eb48922e750d41409b89a42c39a'
p267
sg14
S'Mozilla/5.0 (Linux; Android 5.1.1; SCL-TL00 Build/HonorSCL-TL00) AppleWebKit/537.36 (KHTML, like Gecko) Version/4.0 Chrome/37.0.0.0 Mobile MQQBrowser/6.8 TBS/036869 Safari/537.36 MicroMessenger/6.3.27.880 NetType/WIFI Language/zh_CN'
p268
sg16
S'5819a19c5e7bcd4b55db33ad89845479'
p269
sa(dp270
g2
S'21695'
p271
sg4
S'8163'
p272
sg6
S'6b415139e3d8c4a4ed08169940815b46'
p273
sg8
S'xxb161ca18a2ad8e33c69f8b48997e7dcb'
p274
sg10
S'xxa6d6c8e9e0447e2601cc502360739b8e'
p275
sg12
S'xx5e822eb48922e750d41409b89a42c39a'
p276
sg14
S'Mozilla/5.0 (Linux; Android 5.1.1; SCL-TL00 Build/HonorSCL-TL00) AppleWebKit/537.36 (KHTML, like Gecko) Version/4.0 Chrome/37.0.0.0 Mobile MQQBrowser/6.8 TBS/036869 Safari/537.36 MicroMessenger/6.3.27.880 NetType/WIFI Language/zh_CN'
p277
sg16
S'5819a19c5e7bcd4b55db33ad89845479'
p278
sa(dp279
g2
S'21695'
p280
sg4
S'8174'
p281
sg6
S'6b415139e3d8c4a4ed08169940815b46'
p282
sg8
S'xxb161ca18a2ad8e33c69f8b48997e7dcb'
p283
sg10
S'xxa6d6c8e9e0447e2601cc502360739b8e'
p284
sg12
S'xx5e822eb48922e750d41409b89a42c39a'
p285
sg14
S'Mozilla/5.0 (Linux; Android 5.1.1; SCL-TL00 Build/HonorSCL-TL00) AppleWebKit/537.36 (KHTML, like Gecko) Version/4.0 Chrome/37.0.0.0 Mobile MQQBrowser/6.8 TBS/036869 Safari/537.36 MicroMessenger/6.3.27.880 NetType/WIFI Language/zh_CN'
p286
sg16
S'5819a19c5e7bcd4b55db33ad89845479'
p287
sa.