(lp0
(dp1
S'user_id'
p2
S'49740'
p3
sS'data_id'
p4
S'528'
p5
sS'ip'
p6
S'a402ae5ebf42b0633e4caf77403a303e'
p7
sS'phone_B'
p8
S'xx955cde2d0fa9b38ab5437ae0d56a4077'
p9
sS'phone_C'
p10
S'xx7b095e7288d4e18b0040f72dda7e33b0'
p11
sS'phone_A'
p12
S'xx5e1fae03d917c57964a2e2ae640b0e4b'
p13
sS'user_agent'
p14
S'Mozilla/5.0 (Linux; Android 5.0; SM-N9002 Build/LRX21V) AppleWebKit/537.36 (KHTML, like Gecko) Version/4.0 Chrome/37.0.0.0 Mobile MQQBrowser/6.8 TBS/036849 Safari/537.36 MicroMessenger/6.3.27.880 NetType/WIFI Language/zh_CN'
p15
sS'ua'
p16
S'020ff52e2410507a28eabe6c49e62809'
p17
sa(dp18
g2
S'49740'
p19
sg4
S'545'
p20
sg6
S'a402ae5ebf42b0633e4caf77403a303e'
p21
sg8
S'xx955cde2d0fa9b38ab5437ae0d56a4077'
p22
sg10
S'xx7b095e7288d4e18b0040f72dda7e33b0'
p23
sg12
S'xx5e1fae03d917c57964a2e2ae640b0e4b'
p24
sg14
S'Mozilla/5.0 (Linux; Android 5.0; SM-N9002 Build/LRX21V) AppleWebKit/537.36 (KHTML, like Gecko) Version/4.0 Chrome/37.0.0.0 Mobile MQQBrowser/6.8 TBS/036849 Safari/537.36 MicroMessenger/6.3.27.880 NetType/WIFI Language/zh_CN'
p25
sg16
S'020ff52e2410507a28eabe6c49e62809'
p26
sa(dp27
g2
S'30427'
p28
sg4
S'5359'
p29
sg6
S'37ec7b91655b3c964292df15710fad2a'
p30
sg8
S'xx4ef22fc78320715fc5387ec2caac5654'
p31
sg10
S'xx01c927462399715bdc6360652d7c02a2'
p32
sg12
S'xx5e1fae03d917c57964a2e2ae640b0e4b'
p33
sg14
S'Mozilla/5.0 (Linux; Android 5.0; SM-N9002 Build/LRX21V) AppleWebKit/537.36 (KHTML, like Gecko) Version/4.0 Chrome/37.0.0.0 Mobile MQQBrowser/6.8 TBS/036824 Safari/537.36 MicroMessenger/6.3.27.880 NetType/WIFI Language/zh_CN'
p34
sg16
S'050bea8709803516b1dd8d08233e86b1'
p35
sa(dp36
g2
S'30427'
p37
sg4
S'5370'
p38
sg6
S'37ec7b91655b3c964292df15710fad2a'
p39
sg8
S'xx4ef22fc78320715fc5387ec2caac5654'
p40
sg10
S'xx01c927462399715bdc6360652d7c02a2'
p41
sg12
S'xx5e1fae03d917c57964a2e2ae640b0e4b'
p42
sg14
S'Mozilla/5.0 (Linux; Android 5.0; SM-N9002 Build/LRX21V) AppleWebKit/537.36 (KHTML, like Gecko) Version/4.0 Chrome/37.0.0.0 Mobile MQQBrowser/6.8 TBS/036824 Safari/537.36 MicroMessenger/6.3.27.880 NetType/WIFI Language/zh_CN'
p43
sg16
S'050bea8709803516b1dd8d08233e86b1'
p44
sa.