(lp0
(dp1
S'user_id'
p2
S'45663'
p3
sS'data_id'
p4
S'3758'
p5
sS'ip'
p6
S'a9178732a905478fe713174dc3bc2579'
p7
sS'phone_B'
p8
S'xx007af3c52ea85d3c0bdb99ac853c8b6a'
p9
sS'phone_C'
p10
S'xx1bb74078365fe572c29a0d81127263cc'
p11
sS'phone_A'
p12
S'xx5f6af4be611cbc1ec761b004c8c7b598'
p13
sS'user_agent'
p14
S'Mozilla/5.0 (Linux; Android 5.1; lephone T6+V Build/LMY47D) AppleWebKit/537.36 (KHTML, like Gecko) Version/4.0 Chrome/37.0.0.0 Mobile MQQBrowser/6.8 TBS/036849 Safari/537.36 MicroMessenger/6.3.27.880 NetType/WIFI Language/zh_CN'
p15
sS'ua'
p16
S'3538c846814f5bb27e3491b83952f47f'
p17
sa(dp18
g2
S'45663'
p19
sg4
S'3777'
p20
sg6
S'a9178732a905478fe713174dc3bc2579'
p21
sg8
S'xx007af3c52ea85d3c0bdb99ac853c8b6a'
p22
sg10
S'xx1bb74078365fe572c29a0d81127263cc'
p23
sg12
S'xx5f6af4be611cbc1ec761b004c8c7b598'
p24
sg14
S'Mozilla/5.0 (Linux; Android 5.1; lephone T6+V Build/LMY47D) AppleWebKit/537.36 (KHTML, like Gecko) Version/4.0 Chrome/37.0.0.0 Mobile MQQBrowser/6.8 TBS/036849 Safari/537.36 MicroMessenger/6.3.27.880 NetType/WIFI Language/zh_CN'
p25
sg16
S'3538c846814f5bb27e3491b83952f47f'
p26
sa.