(lp0
(dp1
S'user_id'
p2
S'49801'
p3
sS'data_id'
p4
S'5563'
p5
sS'ip'
p6
S'a2cc057e70d667a9b68a39d6cb3938e2'
p7
sS'phone_B'
p8
S'xx2819b6bc1273b6839b5d7377528ac9b9'
p9
sS'phone_C'
p10
S'xx39d378f51b72092d97bfc6eda90c14b6'
p11
sS'phone_A'
p12
S'xx5f32a7417368e6a721c80557b95c62b1'
p13
sS'user_agent'
p14
S'Mozilla/5.0 (Linux; Android 5.0; vivo Y35L Build/LRX21M) AppleWebKit/537.36 (KHTML, like Gecko) Version/4.0 Chrome/37.0.0.0 Mobile MQQBrowser/6.8 TBS/036825 Safari/537.36 MicroMessenger/6.3.27.880 NetType/WIFI Language/zh_CN'
p15
sS'ua'
p16
S'b7e642aadaafe39b0be429c3a75692c9'
p17
sa(dp18
g2
S'49801'
p19
sg4
S'5580'
p20
sg6
S'a2cc057e70d667a9b68a39d6cb3938e2'
p21
sg8
S'xx2819b6bc1273b6839b5d7377528ac9b9'
p22
sg10
S'xx39d378f51b72092d97bfc6eda90c14b6'
p23
sg12
S'xx5f32a7417368e6a721c80557b95c62b1'
p24
sg14
S'Mozilla/5.0 (Linux; Android 5.0; vivo Y35L Build/LRX21M) AppleWebKit/537.36 (KHTML, like Gecko) Version/4.0 Chrome/37.0.0.0 Mobile MQQBrowser/6.8 TBS/036825 Safari/537.36 MicroMessenger/6.3.27.880 NetType/WIFI Language/zh_CN'
p25
sg16
S'b7e642aadaafe39b0be429c3a75692c9'
p26
sa.