(lp0
(dp1
S'user_id'
p2
S'24044'
p3
sS'data_id'
p4
S'2176'
p5
sS'ip'
p6
S'c4ee8e86e6948d76286a75f6cbe68028'
p7
sS'phone_B'
p8
S'xx0f1130c284f37d1a36e8ec0806b13ed7'
p9
sS'phone_C'
p10
S'xx56173981ee3abe7f88e74c71a7a2ce7f'
p11
sS'phone_A'
p12
S'xx60af443186d6d81315d0dc757f4fb4df'
p13
sS'user_agent'
p14
S'Mozilla/5.0 (Linux; Android 6.0; PLK-TL00 Build/HONORPLK-TL00) AppleWebKit/537.36 (KHTML, like Gecko) Version/4.0 Chrome/37.0.0.0 Mobile MQQBrowser/6.8 TBS/036849 Safari/537.36 MicroMessenger/6.3.27.880 NetType/cmnet Language/zh_CN'
p15
sS'ua'
p16
S'd7e0ec39474c2ec66d6e4f7c8bd08d5c'
p17
sa(dp18
g2
S'24044'
p19
sg4
S'2192'
p20
sg6
S'c4ee8e86e6948d76286a75f6cbe68028'
p21
sg8
S'xx0f1130c284f37d1a36e8ec0806b13ed7'
p22
sg10
S'xx56173981ee3abe7f88e74c71a7a2ce7f'
p23
sg12
S'xx60af443186d6d81315d0dc757f4fb4df'
p24
sg14
S'Mozilla/5.0 (Linux; Android 6.0; PLK-TL00 Build/HONORPLK-TL00) AppleWebKit/537.36 (KHTML, like Gecko) Version/4.0 Chrome/37.0.0.0 Mobile MQQBrowser/6.8 TBS/036849 Safari/537.36 MicroMessenger/6.3.27.880 NetType/cmnet Language/zh_CN'
p25
sg16
S'd7e0ec39474c2ec66d6e4f7c8bd08d5c'
p26
sa(dp27
g2
S'24044'
p28
sg4
S'2882'
p29
sg6
S'c4ee8e86e6948d76286a75f6cbe68028'
p30
sg8
S'xx0f1130c284f37d1a36e8ec0806b13ed7'
p31
sg10
S'xx56173981ee3abe7f88e74c71a7a2ce7f'
p32
sg12
S'xx60af443186d6d81315d0dc757f4fb4df'
p33
sg14
S'Mozilla/5.0 (Linux; Android 6.0; PLK-TL00 Build/HONORPLK-TL00) AppleWebKit/537.36 (KHTML, like Gecko) Version/4.0 Chrome/37.0.0.0 Mobile MQQBrowser/6.8 TBS/036849 Safari/537.36 MicroMessenger/6.3.27.880 NetType/cmnet Language/zh_CN'
p34
sg16
S'd7e0ec39474c2ec66d6e4f7c8bd08d5c'
p35
sa(dp36
g2
S'24044'
p37
sg4
S'2904'
p38
sg6
S'c4ee8e86e6948d76286a75f6cbe68028'
p39
sg8
S'xx0f1130c284f37d1a36e8ec0806b13ed7'
p40
sg10
S'xx56173981ee3abe7f88e74c71a7a2ce7f'
p41
sg12
S'xx60af443186d6d81315d0dc757f4fb4df'
p42
sg14
S'Mozilla/5.0 (Linux; Android 6.0; PLK-TL00 Build/HONORPLK-TL00) AppleWebKit/537.36 (KHTML, like Gecko) Version/4.0 Chrome/37.0.0.0 Mobile MQQBrowser/6.8 TBS/036849 Safari/537.36 MicroMessenger/6.3.27.880 NetType/cmnet Language/zh_CN'
p43
sg16
S'd7e0ec39474c2ec66d6e4f7c8bd08d5c'
p44
sa(dp45
g2
S'49771'
p46
sg4
S'3319'
p47
sg6
S'7ad6ba29c8e2117fc5d1ce0cf6043119'
p48
sg8
S'xx0dcfd3e7f0c9d2266b76e9162d1f9823'
p49
sg10
S'xx56173981ee3abe7f88e74c71a7a2ce7f'
p50
sg12
S'xx60af443186d6d81315d0dc757f4fb4df'
p51
sg14
S'Mozilla/5.0 (Linux; Android 6.0; PLK-TL00 Build/HONORPLK-TL00) AppleWebKit/537.36 (KHTML, like Gecko) Version/4.0 Chrome/37.0.0.0 Mobile MQQBrowser/6.8 TBS/036849 Safari/537.36 MicroMessenger/6.3.27.880 NetType/WIFI Language/zh_CN'
p52
sg16
S'1c06d1c457ea3687cc5d8a1cf130c797'
p53
sa(dp54
g2
S'49771'
p55
sg4
S'3326'
p56
sg6
S'7ad6ba29c8e2117fc5d1ce0cf6043119'
p57
sg8
S'xx0dcfd3e7f0c9d2266b76e9162d1f9823'
p58
sg10
S'xx56173981ee3abe7f88e74c71a7a2ce7f'
p59
sg12
S'xx60af443186d6d81315d0dc757f4fb4df'
p60
sg14
S'Mozilla/5.0 (Linux; Android 6.0; PLK-TL00 Build/HONORPLK-TL00) AppleWebKit/537.36 (KHTML, like Gecko) Version/4.0 Chrome/37.0.0.0 Mobile MQQBrowser/6.8 TBS/036849 Safari/537.36 MicroMessenger/6.3.27.880 NetType/WIFI Language/zh_CN'
p61
sg16
S'1c06d1c457ea3687cc5d8a1cf130c797'
p62
sa(dp63
g2
S'24044'
p64
sg4
S'3331'
p65
sg6
S'c4ee8e86e6948d76286a75f6cbe68028'
p66
sg8
S'xx0f1130c284f37d1a36e8ec0806b13ed7'
p67
sg10
S'xx56173981ee3abe7f88e74c71a7a2ce7f'
p68
sg12
S'xx60af443186d6d81315d0dc757f4fb4df'
p69
sg14
S'Mozilla/5.0 (Linux; Android 6.0; PLK-TL00 Build/HONORPLK-TL00) AppleWebKit/537.36 (KHTML, like Gecko) Version/4.0 Chrome/37.0.0.0 Mobile MQQBrowser/6.8 TBS/036849 Safari/537.36 MicroMessenger/6.3.27.880 NetType/cmnet Language/zh_CN'
p70
sg16
S'd7e0ec39474c2ec66d6e4f7c8bd08d5c'
p71
sa(dp72
g2
S'24044'
p73
sg4
S'3442'
p74
sg6
S'c4ee8e86e6948d76286a75f6cbe68028'
p75
sg8
S'xx0f1130c284f37d1a36e8ec0806b13ed7'
p76
sg10
S'xx56173981ee3abe7f88e74c71a7a2ce7f'
p77
sg12
S'xx60af443186d6d81315d0dc757f4fb4df'
p78
sg14
S'Mozilla/5.0 (Linux; Android 6.0; PLK-TL00 Build/HONORPLK-TL00) AppleWebKit/537.36 (KHTML, like Gecko) Version/4.0 Chrome/37.0.0.0 Mobile MQQBrowser/6.8 TBS/036849 Safari/537.36 MicroMessenger/6.3.27.880 NetType/cmnet Language/zh_CN'
p79
sg16
S'd7e0ec39474c2ec66d6e4f7c8bd08d5c'
p80
sa(dp81
g2
S'24044'
p82
sg4
S'3456'
p83
sg6
S'c4ee8e86e6948d76286a75f6cbe68028'
p84
sg8
S'xx0f1130c284f37d1a36e8ec0806b13ed7'
p85
sg10
S'xx56173981ee3abe7f88e74c71a7a2ce7f'
p86
sg12
S'xx60af443186d6d81315d0dc757f4fb4df'
p87
sg14
S'Mozilla/5.0 (Linux; Android 6.0; PLK-TL00 Build/HONORPLK-TL00) AppleWebKit/537.36 (KHTML, like Gecko) Version/4.0 Chrome/37.0.0.0 Mobile MQQBrowser/6.8 TBS/036849 Safari/537.36 MicroMessenger/6.3.27.880 NetType/cmnet Language/zh_CN'
p88
sg16
S'd7e0ec39474c2ec66d6e4f7c8bd08d5c'
p89
sa(dp90
g2
S'24044'
p91
sg4
S'3471'
p92
sg6
S'c4ee8e86e6948d76286a75f6cbe68028'
p93
sg8
S'xx0f1130c284f37d1a36e8ec0806b13ed7'
p94
sg10
S'xx56173981ee3abe7f88e74c71a7a2ce7f'
p95
sg12
S'xx60af443186d6d81315d0dc757f4fb4df'
p96
sg14
S'Mozilla/5.0 (Linux; Android 6.0; PLK-TL00 Build/HONORPLK-TL00) AppleWebKit/537.36 (KHTML, like Gecko) Version/4.0 Chrome/37.0.0.0 Mobile MQQBrowser/6.8 TBS/036849 Safari/537.36 MicroMessenger/6.3.27.880 NetType/cmnet Language/zh_CN'
p97
sg16
S'd7e0ec39474c2ec66d6e4f7c8bd08d5c'
p98
sa(dp99
g2
S'24044'
p100
sg4
S'3490'
p101
sg6
S'c4ee8e86e6948d76286a75f6cbe68028'
p102
sg8
S'xx0f1130c284f37d1a36e8ec0806b13ed7'
p103
sg10
S'xx56173981ee3abe7f88e74c71a7a2ce7f'
p104
sg12
S'xx60af443186d6d81315d0dc757f4fb4df'
p105
sg14
S'Mozilla/5.0 (Linux; Android 6.0; PLK-TL00 Build/HONORPLK-TL00) AppleWebKit/537.36 (KHTML, like Gecko) Version/4.0 Chrome/37.0.0.0 Mobile MQQBrowser/6.8 TBS/036849 Safari/537.36 MicroMessenger/6.3.27.880 NetType/cmnet Language/zh_CN'
p106
sg16
S'd7e0ec39474c2ec66d6e4f7c8bd08d5c'
p107
sa(dp108
g2
S'49771'
p109
sg4
S'3511'
p110
sg6
S'7ad6ba29c8e2117fc5d1ce0cf6043119'
p111
sg8
S'xx0dcfd3e7f0c9d2266b76e9162d1f9823'
p112
sg10
S'xx56173981ee3abe7f88e74c71a7a2ce7f'
p113
sg12
S'xx60af443186d6d81315d0dc757f4fb4df'
p114
sg14
S'Mozilla/5.0 (Linux; Android 6.0; PLK-TL00 Build/HONORPLK-TL00) AppleWebKit/537.36 (KHTML, like Gecko) Version/4.0 Chrome/37.0.0.0 Mobile MQQBrowser/6.8 TBS/036849 Safari/537.36 MicroMessenger/6.3.27.880 NetType/WIFI Language/zh_CN'
p115
sg16
S'1c06d1c457ea3687cc5d8a1cf130c797'
p116
sa(dp117
g2
S'49771'
p118
sg4
S'3523'
p119
sg6
S'7ad6ba29c8e2117fc5d1ce0cf6043119'
p120
sg8
S'xx0dcfd3e7f0c9d2266b76e9162d1f9823'
p121
sg10
S'xx56173981ee3abe7f88e74c71a7a2ce7f'
p122
sg12
S'xx60af443186d6d81315d0dc757f4fb4df'
p123
sg14
S'Mozilla/5.0 (Linux; Android 6.0; PLK-TL00 Build/HONORPLK-TL00) AppleWebKit/537.36 (KHTML, like Gecko) Version/4.0 Chrome/37.0.0.0 Mobile MQQBrowser/6.8 TBS/036849 Safari/537.36 MicroMessenger/6.3.27.880 NetType/WIFI Language/zh_CN'
p124
sg16
S'1c06d1c457ea3687cc5d8a1cf130c797'
p125
sa(dp126
g2
S'24044'
p127
sg4
S'4072'
p128
sg6
S'c4ee8e86e6948d76286a75f6cbe68028'
p129
sg8
S'xx0f1130c284f37d1a36e8ec0806b13ed7'
p130
sg10
S'xx56173981ee3abe7f88e74c71a7a2ce7f'
p131
sg12
S'xx60af443186d6d81315d0dc757f4fb4df'
p132
sg14
S'Mozilla/5.0 (Linux; Android 6.0; PLK-TL00 Build/HONORPLK-TL00) AppleWebKit/537.36 (KHTML, like Gecko) Version/4.0 Chrome/37.0.0.0 Mobile MQQBrowser/6.8 TBS/036849 Safari/537.36 MicroMessenger/6.3.27.880 NetType/cmnet Language/zh_CN'
p133
sg16
S'd7e0ec39474c2ec66d6e4f7c8bd08d5c'
p134
sa(dp135
g2
S'24044'
p136
sg4
S'4098'
p137
sg6
S'c4ee8e86e6948d76286a75f6cbe68028'
p138
sg8
S'xx0f1130c284f37d1a36e8ec0806b13ed7'
p139
sg10
S'xx56173981ee3abe7f88e74c71a7a2ce7f'
p140
sg12
S'xx60af443186d6d81315d0dc757f4fb4df'
p141
sg14
S'Mozilla/5.0 (Linux; Android 6.0; PLK-TL00 Build/HONORPLK-TL00) AppleWebKit/537.36 (KHTML, like Gecko) Version/4.0 Chrome/37.0.0.0 Mobile MQQBrowser/6.8 TBS/036849 Safari/537.36 MicroMessenger/6.3.27.880 NetType/cmnet Language/zh_CN'
p142
sg16
S'd7e0ec39474c2ec66d6e4f7c8bd08d5c'
p143
sa(dp144
g2
S'24044'
p145
sg4
S'4123'
p146
sg6
S'c4ee8e86e6948d76286a75f6cbe68028'
p147
sg8
S'xx0f1130c284f37d1a36e8ec0806b13ed7'
p148
sg10
S'xx56173981ee3abe7f88e74c71a7a2ce7f'
p149
sg12
S'xx60af443186d6d81315d0dc757f4fb4df'
p150
sg14
S'Mozilla/5.0 (Linux; Android 6.0; PLK-TL00 Build/HONORPLK-TL00) AppleWebKit/537.36 (KHTML, like Gecko) Version/4.0 Chrome/37.0.0.0 Mobile MQQBrowser/6.8 TBS/036849 Safari/537.36 MicroMessenger/6.3.27.880 NetType/cmnet Language/zh_CN'
p151
sg16
S'd7e0ec39474c2ec66d6e4f7c8bd08d5c'
p152
sa.