(lp0
(dp1
S'user_id'
p2
S'28497'
p3
sS'data_id'
p4
S'491'
p5
sS'ip'
p6
S'03f52a4f7e66c7ccc384ce91e7bd50e9'
p7
sS'phone_B'
p8
S'xx715551d75bbd1ea8f4ac7683682745d7'
p9
sS'phone_C'
p10
S'xx21ef2add7f5cbd50376b35ff47e55e00'
p11
sS'phone_A'
p12
S'xx608a93bff15fdcbcb25561273d70bc99'
p13
sS'user_agent'
p14
S'Mozilla/5.0 (Linux; Android 5.1.1; vivo Y51A Build/LMY47V) AppleWebKit/537.36 (KHTML, like Gecko) Version/4.0 Chrome/37.0.0.0 Mobile MQQBrowser/6.8 TBS/036849 Safari/537.36 MicroMessenger/6.3.27.880 NetType/WIFI Language/zh_CN'
p15
sS'ua'
p16
S'f5afeeabb8f05e88384cefde7cfa6279'
p17
sa(dp18
g2
S'28497'
p19
sg4
S'499'
p20
sg6
S'03f52a4f7e66c7ccc384ce91e7bd50e9'
p21
sg8
S'xx715551d75bbd1ea8f4ac7683682745d7'
p22
sg10
S'xx21ef2add7f5cbd50376b35ff47e55e00'
p23
sg12
S'xx608a93bff15fdcbcb25561273d70bc99'
p24
sg14
S'Mozilla/5.0 (Linux; Android 5.1.1; vivo Y51A Build/LMY47V) AppleWebKit/537.36 (KHTML, like Gecko) Version/4.0 Chrome/37.0.0.0 Mobile MQQBrowser/6.8 TBS/036849 Safari/537.36 MicroMessenger/6.3.27.880 NetType/WIFI Language/zh_CN'
p25
sg16
S'f5afeeabb8f05e88384cefde7cfa6279'
p26
sa(dp27
g2
S'28497'
p28
sg4
S'558'
p29
sg6
S'03f52a4f7e66c7ccc384ce91e7bd50e9'
p30
sg8
S'xx715551d75bbd1ea8f4ac7683682745d7'
p31
sg10
S'xx21ef2add7f5cbd50376b35ff47e55e00'
p32
sg12
S'xx608a93bff15fdcbcb25561273d70bc99'
p33
sg14
S'Mozilla/5.0 (Linux; Android 5.1.1; vivo Y51A Build/LMY47V) AppleWebKit/537.36 (KHTML, like Gecko) Version/4.0 Chrome/37.0.0.0 Mobile MQQBrowser/6.8 TBS/036849 Safari/537.36 MicroMessenger/6.3.27.880 NetType/WIFI Language/zh_CN'
p34
sg16
S'f5afeeabb8f05e88384cefde7cfa6279'
p35
sa(dp36
g2
S'28497'
p37
sg4
S'574'
p38
sg6
S'03f52a4f7e66c7ccc384ce91e7bd50e9'
p39
sg8
S'xx715551d75bbd1ea8f4ac7683682745d7'
p40
sg10
S'xx21ef2add7f5cbd50376b35ff47e55e00'
p41
sg12
S'xx608a93bff15fdcbcb25561273d70bc99'
p42
sg14
S'Mozilla/5.0 (Linux; Android 5.1.1; vivo Y51A Build/LMY47V) AppleWebKit/537.36 (KHTML, like Gecko) Version/4.0 Chrome/37.0.0.0 Mobile MQQBrowser/6.8 TBS/036849 Safari/537.36 MicroMessenger/6.3.27.880 NetType/WIFI Language/zh_CN'
p43
sg16
S'f5afeeabb8f05e88384cefde7cfa6279'
p44
sa(dp45
g2
S'28497'
p46
sg4
S'591'
p47
sg6
S'03f52a4f7e66c7ccc384ce91e7bd50e9'
p48
sg8
S'xx715551d75bbd1ea8f4ac7683682745d7'
p49
sg10
S'xx21ef2add7f5cbd50376b35ff47e55e00'
p50
sg12
S'xx608a93bff15fdcbcb25561273d70bc99'
p51
sg14
S'Mozilla/5.0 (Linux; Android 5.1.1; vivo Y51A Build/LMY47V) AppleWebKit/537.36 (KHTML, like Gecko) Version/4.0 Chrome/37.0.0.0 Mobile MQQBrowser/6.8 TBS/036849 Safari/537.36 MicroMessenger/6.3.27.880 NetType/WIFI Language/zh_CN'
p52
sg16
S'f5afeeabb8f05e88384cefde7cfa6279'
p53
sa(dp54
g2
S'28497'
p55
sg4
S'606'
p56
sg6
S'03f52a4f7e66c7ccc384ce91e7bd50e9'
p57
sg8
S'xx715551d75bbd1ea8f4ac7683682745d7'
p58
sg10
S'xx21ef2add7f5cbd50376b35ff47e55e00'
p59
sg12
S'xx608a93bff15fdcbcb25561273d70bc99'
p60
sg14
S'Mozilla/5.0 (Linux; Android 5.1.1; vivo Y51A Build/LMY47V) AppleWebKit/537.36 (KHTML, like Gecko) Version/4.0 Chrome/37.0.0.0 Mobile MQQBrowser/6.8 TBS/036849 Safari/537.36 MicroMessenger/6.3.27.880 NetType/WIFI Language/zh_CN'
p61
sg16
S'f5afeeabb8f05e88384cefde7cfa6279'
p62
sa(dp63
g2
S'28497'
p64
sg4
S'620'
p65
sg6
S'03f52a4f7e66c7ccc384ce91e7bd50e9'
p66
sg8
S'xx715551d75bbd1ea8f4ac7683682745d7'
p67
sg10
S'xx21ef2add7f5cbd50376b35ff47e55e00'
p68
sg12
S'xx608a93bff15fdcbcb25561273d70bc99'
p69
sg14
S'Mozilla/5.0 (Linux; Android 5.1.1; vivo Y51A Build/LMY47V) AppleWebKit/537.36 (KHTML, like Gecko) Version/4.0 Chrome/37.0.0.0 Mobile MQQBrowser/6.8 TBS/036849 Safari/537.36 MicroMessenger/6.3.27.880 NetType/WIFI Language/zh_CN'
p70
sg16
S'f5afeeabb8f05e88384cefde7cfa6279'
p71
sa(dp72
g2
S'28497'
p73
sg4
S'637'
p74
sg6
S'03f52a4f7e66c7ccc384ce91e7bd50e9'
p75
sg8
S'xx715551d75bbd1ea8f4ac7683682745d7'
p76
sg10
S'xx21ef2add7f5cbd50376b35ff47e55e00'
p77
sg12
S'xx608a93bff15fdcbcb25561273d70bc99'
p78
sg14
S'Mozilla/5.0 (Linux; Android 5.1.1; vivo Y51A Build/LMY47V) AppleWebKit/537.36 (KHTML, like Gecko) Version/4.0 Chrome/37.0.0.0 Mobile MQQBrowser/6.8 TBS/036849 Safari/537.36 MicroMessenger/6.3.27.880 NetType/WIFI Language/zh_CN'
p79
sg16
S'f5afeeabb8f05e88384cefde7cfa6279'
p80
sa(dp81
g2
S'28497'
p82
sg4
S'651'
p83
sg6
S'03f52a4f7e66c7ccc384ce91e7bd50e9'
p84
sg8
S'xx715551d75bbd1ea8f4ac7683682745d7'
p85
sg10
S'xx21ef2add7f5cbd50376b35ff47e55e00'
p86
sg12
S'xx608a93bff15fdcbcb25561273d70bc99'
p87
sg14
S'Mozilla/5.0 (Linux; Android 5.1.1; vivo Y51A Build/LMY47V) AppleWebKit/537.36 (KHTML, like Gecko) Version/4.0 Chrome/37.0.0.0 Mobile MQQBrowser/6.8 TBS/036849 Safari/537.36 MicroMessenger/6.3.27.880 NetType/WIFI Language/zh_CN'
p88
sg16
S'f5afeeabb8f05e88384cefde7cfa6279'
p89
sa(dp90
g2
S'28497'
p91
sg4
S'667'
p92
sg6
S'03f52a4f7e66c7ccc384ce91e7bd50e9'
p93
sg8
S'xx715551d75bbd1ea8f4ac7683682745d7'
p94
sg10
S'xx21ef2add7f5cbd50376b35ff47e55e00'
p95
sg12
S'xx608a93bff15fdcbcb25561273d70bc99'
p96
sg14
S'Mozilla/5.0 (Linux; Android 5.1.1; vivo Y51A Build/LMY47V) AppleWebKit/537.36 (KHTML, like Gecko) Version/4.0 Chrome/37.0.0.0 Mobile MQQBrowser/6.8 TBS/036849 Safari/537.36 MicroMessenger/6.3.27.880 NetType/WIFI Language/zh_CN'
p97
sg16
S'f5afeeabb8f05e88384cefde7cfa6279'
p98
sa(dp99
g2
S'28497'
p100
sg4
S'680'
p101
sg6
S'03f52a4f7e66c7ccc384ce91e7bd50e9'
p102
sg8
S'xx715551d75bbd1ea8f4ac7683682745d7'
p103
sg10
S'xx21ef2add7f5cbd50376b35ff47e55e00'
p104
sg12
S'xx608a93bff15fdcbcb25561273d70bc99'
p105
sg14
S'Mozilla/5.0 (Linux; Android 5.1.1; vivo Y51A Build/LMY47V) AppleWebKit/537.36 (KHTML, like Gecko) Version/4.0 Chrome/37.0.0.0 Mobile MQQBrowser/6.8 TBS/036849 Safari/537.36 MicroMessenger/6.3.27.880 NetType/WIFI Language/zh_CN'
p106
sg16
S'f5afeeabb8f05e88384cefde7cfa6279'
p107
sa(dp108
g2
S'28497'
p109
sg4
S'691'
p110
sg6
S'03f52a4f7e66c7ccc384ce91e7bd50e9'
p111
sg8
S'xx715551d75bbd1ea8f4ac7683682745d7'
p112
sg10
S'xx21ef2add7f5cbd50376b35ff47e55e00'
p113
sg12
S'xx608a93bff15fdcbcb25561273d70bc99'
p114
sg14
S'Mozilla/5.0 (Linux; Android 5.1.1; vivo Y51A Build/LMY47V) AppleWebKit/537.36 (KHTML, like Gecko) Version/4.0 Chrome/37.0.0.0 Mobile MQQBrowser/6.8 TBS/036849 Safari/537.36 MicroMessenger/6.3.27.880 NetType/WIFI Language/zh_CN'
p115
sg16
S'f5afeeabb8f05e88384cefde7cfa6279'
p116
sa(dp117
g2
S'28497'
p118
sg4
S'704'
p119
sg6
S'03f52a4f7e66c7ccc384ce91e7bd50e9'
p120
sg8
S'xx715551d75bbd1ea8f4ac7683682745d7'
p121
sg10
S'xx21ef2add7f5cbd50376b35ff47e55e00'
p122
sg12
S'xx608a93bff15fdcbcb25561273d70bc99'
p123
sg14
S'Mozilla/5.0 (Linux; Android 5.1.1; vivo Y51A Build/LMY47V) AppleWebKit/537.36 (KHTML, like Gecko) Version/4.0 Chrome/37.0.0.0 Mobile MQQBrowser/6.8 TBS/036849 Safari/537.36 MicroMessenger/6.3.27.880 NetType/WIFI Language/zh_CN'
p124
sg16
S'f5afeeabb8f05e88384cefde7cfa6279'
p125
sa(dp126
g2
S'28497'
p127
sg4
S'717'
p128
sg6
S'03f52a4f7e66c7ccc384ce91e7bd50e9'
p129
sg8
S'xx715551d75bbd1ea8f4ac7683682745d7'
p130
sg10
S'xx21ef2add7f5cbd50376b35ff47e55e00'
p131
sg12
S'xx608a93bff15fdcbcb25561273d70bc99'
p132
sg14
S'Mozilla/5.0 (Linux; Android 5.1.1; vivo Y51A Build/LMY47V) AppleWebKit/537.36 (KHTML, like Gecko) Version/4.0 Chrome/37.0.0.0 Mobile MQQBrowser/6.8 TBS/036849 Safari/537.36 MicroMessenger/6.3.27.880 NetType/WIFI Language/zh_CN'
p133
sg16
S'f5afeeabb8f05e88384cefde7cfa6279'
p134
sa(dp135
g2
S'28497'
p136
sg4
S'730'
p137
sg6
S'03f52a4f7e66c7ccc384ce91e7bd50e9'
p138
sg8
S'xx715551d75bbd1ea8f4ac7683682745d7'
p139
sg10
S'xx21ef2add7f5cbd50376b35ff47e55e00'
p140
sg12
S'xx608a93bff15fdcbcb25561273d70bc99'
p141
sg14
S'Mozilla/5.0 (Linux; Android 5.1.1; vivo Y51A Build/LMY47V) AppleWebKit/537.36 (KHTML, like Gecko) Version/4.0 Chrome/37.0.0.0 Mobile MQQBrowser/6.8 TBS/036849 Safari/537.36 MicroMessenger/6.3.27.880 NetType/WIFI Language/zh_CN'
p142
sg16
S'f5afeeabb8f05e88384cefde7cfa6279'
p143
sa(dp144
g2
S'28497'
p145
sg4
S'742'
p146
sg6
S'03f52a4f7e66c7ccc384ce91e7bd50e9'
p147
sg8
S'xx715551d75bbd1ea8f4ac7683682745d7'
p148
sg10
S'xx21ef2add7f5cbd50376b35ff47e55e00'
p149
sg12
S'xx608a93bff15fdcbcb25561273d70bc99'
p150
sg14
S'Mozilla/5.0 (Linux; Android 5.1.1; vivo Y51A Build/LMY47V) AppleWebKit/537.36 (KHTML, like Gecko) Version/4.0 Chrome/37.0.0.0 Mobile MQQBrowser/6.8 TBS/036849 Safari/537.36 MicroMessenger/6.3.27.880 NetType/WIFI Language/zh_CN'
p151
sg16
S'f5afeeabb8f05e88384cefde7cfa6279'
p152
sa(dp153
g2
S'28497'
p154
sg4
S'753'
p155
sg6
S'03f52a4f7e66c7ccc384ce91e7bd50e9'
p156
sg8
S'xx715551d75bbd1ea8f4ac7683682745d7'
p157
sg10
S'xx21ef2add7f5cbd50376b35ff47e55e00'
p158
sg12
S'xx608a93bff15fdcbcb25561273d70bc99'
p159
sg14
S'Mozilla/5.0 (Linux; Android 5.1.1; vivo Y51A Build/LMY47V) AppleWebKit/537.36 (KHTML, like Gecko) Version/4.0 Chrome/37.0.0.0 Mobile MQQBrowser/6.8 TBS/036849 Safari/537.36 MicroMessenger/6.3.27.880 NetType/WIFI Language/zh_CN'
p160
sg16
S'f5afeeabb8f05e88384cefde7cfa6279'
p161
sa(dp162
g2
S'28497'
p163
sg4
S'781'
p164
sg6
S'03f52a4f7e66c7ccc384ce91e7bd50e9'
p165
sg8
S'xx715551d75bbd1ea8f4ac7683682745d7'
p166
sg10
S'xx21ef2add7f5cbd50376b35ff47e55e00'
p167
sg12
S'xx608a93bff15fdcbcb25561273d70bc99'
p168
sg14
S'Mozilla/5.0 (Linux; Android 5.1.1; vivo Y51A Build/LMY47V) AppleWebKit/537.36 (KHTML, like Gecko) Version/4.0 Chrome/37.0.0.0 Mobile MQQBrowser/6.8 TBS/036849 Safari/537.36 MicroMessenger/6.3.27.880 NetType/WIFI Language/zh_CN'
p169
sg16
S'f5afeeabb8f05e88384cefde7cfa6279'
p170
sa(dp171
g2
S'28497'
p172
sg4
S'792'
p173
sg6
S'03f52a4f7e66c7ccc384ce91e7bd50e9'
p174
sg8
S'xx715551d75bbd1ea8f4ac7683682745d7'
p175
sg10
S'xx21ef2add7f5cbd50376b35ff47e55e00'
p176
sg12
S'xx608a93bff15fdcbcb25561273d70bc99'
p177
sg14
S'Mozilla/5.0 (Linux; Android 5.1.1; vivo Y51A Build/LMY47V) AppleWebKit/537.36 (KHTML, like Gecko) Version/4.0 Chrome/37.0.0.0 Mobile MQQBrowser/6.8 TBS/036849 Safari/537.36 MicroMessenger/6.3.27.880 NetType/WIFI Language/zh_CN'
p178
sg16
S'f5afeeabb8f05e88384cefde7cfa6279'
p179
sa(dp180
g2
S'28497'
p181
sg4
S'811'
p182
sg6
S'03f52a4f7e66c7ccc384ce91e7bd50e9'
p183
sg8
S'xx715551d75bbd1ea8f4ac7683682745d7'
p184
sg10
S'xx21ef2add7f5cbd50376b35ff47e55e00'
p185
sg12
S'xx608a93bff15fdcbcb25561273d70bc99'
p186
sg14
S'Mozilla/5.0 (Linux; Android 5.1.1; vivo Y51A Build/LMY47V) AppleWebKit/537.36 (KHTML, like Gecko) Version/4.0 Chrome/37.0.0.0 Mobile MQQBrowser/6.8 TBS/036849 Safari/537.36 MicroMessenger/6.3.27.880 NetType/WIFI Language/zh_CN'
p187
sg16
S'f5afeeabb8f05e88384cefde7cfa6279'
p188
sa(dp189
g2
S'28497'
p190
sg4
S'822'
p191
sg6
S'03f52a4f7e66c7ccc384ce91e7bd50e9'
p192
sg8
S'xx715551d75bbd1ea8f4ac7683682745d7'
p193
sg10
S'xx21ef2add7f5cbd50376b35ff47e55e00'
p194
sg12
S'xx608a93bff15fdcbcb25561273d70bc99'
p195
sg14
S'Mozilla/5.0 (Linux; Android 5.1.1; vivo Y51A Build/LMY47V) AppleWebKit/537.36 (KHTML, like Gecko) Version/4.0 Chrome/37.0.0.0 Mobile MQQBrowser/6.8 TBS/036849 Safari/537.36 MicroMessenger/6.3.27.880 NetType/WIFI Language/zh_CN'
p196
sg16
S'f5afeeabb8f05e88384cefde7cfa6279'
p197
sa(dp198
g2
S'28497'
p199
sg4
S'834'
p200
sg6
S'03f52a4f7e66c7ccc384ce91e7bd50e9'
p201
sg8
S'xx715551d75bbd1ea8f4ac7683682745d7'
p202
sg10
S'xx21ef2add7f5cbd50376b35ff47e55e00'
p203
sg12
S'xx608a93bff15fdcbcb25561273d70bc99'
p204
sg14
S'Mozilla/5.0 (Linux; Android 5.1.1; vivo Y51A Build/LMY47V) AppleWebKit/537.36 (KHTML, like Gecko) Version/4.0 Chrome/37.0.0.0 Mobile MQQBrowser/6.8 TBS/036849 Safari/537.36 MicroMessenger/6.3.27.880 NetType/WIFI Language/zh_CN'
p205
sg16
S'f5afeeabb8f05e88384cefde7cfa6279'
p206
sa(dp207
g2
S'28497'
p208
sg4
S'846'
p209
sg6
S'03f52a4f7e66c7ccc384ce91e7bd50e9'
p210
sg8
S'xx715551d75bbd1ea8f4ac7683682745d7'
p211
sg10
S'xx21ef2add7f5cbd50376b35ff47e55e00'
p212
sg12
S'xx608a93bff15fdcbcb25561273d70bc99'
p213
sg14
S'Mozilla/5.0 (Linux; Android 5.1.1; vivo Y51A Build/LMY47V) AppleWebKit/537.36 (KHTML, like Gecko) Version/4.0 Chrome/37.0.0.0 Mobile MQQBrowser/6.8 TBS/036849 Safari/537.36 MicroMessenger/6.3.27.880 NetType/WIFI Language/zh_CN'
p214
sg16
S'f5afeeabb8f05e88384cefde7cfa6279'
p215
sa(dp216
g2
S'28497'
p217
sg4
S'880'
p218
sg6
S'03f52a4f7e66c7ccc384ce91e7bd50e9'
p219
sg8
S'xx715551d75bbd1ea8f4ac7683682745d7'
p220
sg10
S'xx21ef2add7f5cbd50376b35ff47e55e00'
p221
sg12
S'xx608a93bff15fdcbcb25561273d70bc99'
p222
sg14
S'Mozilla/5.0 (Linux; Android 5.1.1; vivo Y51A Build/LMY47V) AppleWebKit/537.36 (KHTML, like Gecko) Version/4.0 Chrome/37.0.0.0 Mobile MQQBrowser/6.8 TBS/036849 Safari/537.36 MicroMessenger/6.3.27.880 NetType/WIFI Language/zh_CN'
p223
sg16
S'f5afeeabb8f05e88384cefde7cfa6279'
p224
sa(dp225
g2
S'28497'
p226
sg4
S'898'
p227
sg6
S'03f52a4f7e66c7ccc384ce91e7bd50e9'
p228
sg8
S'xx715551d75bbd1ea8f4ac7683682745d7'
p229
sg10
S'xx21ef2add7f5cbd50376b35ff47e55e00'
p230
sg12
S'xx608a93bff15fdcbcb25561273d70bc99'
p231
sg14
S'Mozilla/5.0 (Linux; Android 5.1.1; vivo Y51A Build/LMY47V) AppleWebKit/537.36 (KHTML, like Gecko) Version/4.0 Chrome/37.0.0.0 Mobile MQQBrowser/6.8 TBS/036849 Safari/537.36 MicroMessenger/6.3.27.880 NetType/WIFI Language/zh_CN'
p232
sg16
S'f5afeeabb8f05e88384cefde7cfa6279'
p233
sa(dp234
g2
S'28497'
p235
sg4
S'914'
p236
sg6
S'03f52a4f7e66c7ccc384ce91e7bd50e9'
p237
sg8
S'xx715551d75bbd1ea8f4ac7683682745d7'
p238
sg10
S'xx21ef2add7f5cbd50376b35ff47e55e00'
p239
sg12
S'xx608a93bff15fdcbcb25561273d70bc99'
p240
sg14
S'Mozilla/5.0 (Linux; Android 5.1.1; vivo Y51A Build/LMY47V) AppleWebKit/537.36 (KHTML, like Gecko) Version/4.0 Chrome/37.0.0.0 Mobile MQQBrowser/6.8 TBS/036849 Safari/537.36 MicroMessenger/6.3.27.880 NetType/WIFI Language/zh_CN'
p241
sg16
S'f5afeeabb8f05e88384cefde7cfa6279'
p242
sa(dp243
g2
S'28497'
p244
sg4
S'929'
p245
sg6
S'03f52a4f7e66c7ccc384ce91e7bd50e9'
p246
sg8
S'xx715551d75bbd1ea8f4ac7683682745d7'
p247
sg10
S'xx21ef2add7f5cbd50376b35ff47e55e00'
p248
sg12
S'xx608a93bff15fdcbcb25561273d70bc99'
p249
sg14
S'Mozilla/5.0 (Linux; Android 5.1.1; vivo Y51A Build/LMY47V) AppleWebKit/537.36 (KHTML, like Gecko) Version/4.0 Chrome/37.0.0.0 Mobile MQQBrowser/6.8 TBS/036849 Safari/537.36 MicroMessenger/6.3.27.880 NetType/WIFI Language/zh_CN'
p250
sg16
S'f5afeeabb8f05e88384cefde7cfa6279'
p251
sa(dp252
g2
S'28497'
p253
sg4
S'944'
p254
sg6
S'03f52a4f7e66c7ccc384ce91e7bd50e9'
p255
sg8
S'xx715551d75bbd1ea8f4ac7683682745d7'
p256
sg10
S'xx21ef2add7f5cbd50376b35ff47e55e00'
p257
sg12
S'xx608a93bff15fdcbcb25561273d70bc99'
p258
sg14
S'Mozilla/5.0 (Linux; Android 5.1.1; vivo Y51A Build/LMY47V) AppleWebKit/537.36 (KHTML, like Gecko) Version/4.0 Chrome/37.0.0.0 Mobile MQQBrowser/6.8 TBS/036849 Safari/537.36 MicroMessenger/6.3.27.880 NetType/WIFI Language/zh_CN'
p259
sg16
S'f5afeeabb8f05e88384cefde7cfa6279'
p260
sa(dp261
g2
S'28497'
p262
sg4
S'961'
p263
sg6
S'03f52a4f7e66c7ccc384ce91e7bd50e9'
p264
sg8
S'xx715551d75bbd1ea8f4ac7683682745d7'
p265
sg10
S'xx21ef2add7f5cbd50376b35ff47e55e00'
p266
sg12
S'xx608a93bff15fdcbcb25561273d70bc99'
p267
sg14
S'Mozilla/5.0 (Linux; Android 5.1.1; vivo Y51A Build/LMY47V) AppleWebKit/537.36 (KHTML, like Gecko) Version/4.0 Chrome/37.0.0.0 Mobile MQQBrowser/6.8 TBS/036849 Safari/537.36 MicroMessenger/6.3.27.880 NetType/WIFI Language/zh_CN'
p268
sg16
S'f5afeeabb8f05e88384cefde7cfa6279'
p269
sa(dp270
g2
S'28497'
p271
sg4
S'977'
p272
sg6
S'03f52a4f7e66c7ccc384ce91e7bd50e9'
p273
sg8
S'xx715551d75bbd1ea8f4ac7683682745d7'
p274
sg10
S'xx21ef2add7f5cbd50376b35ff47e55e00'
p275
sg12
S'xx608a93bff15fdcbcb25561273d70bc99'
p276
sg14
S'Mozilla/5.0 (Linux; Android 5.1.1; vivo Y51A Build/LMY47V) AppleWebKit/537.36 (KHTML, like Gecko) Version/4.0 Chrome/37.0.0.0 Mobile MQQBrowser/6.8 TBS/036849 Safari/537.36 MicroMessenger/6.3.27.880 NetType/WIFI Language/zh_CN'
p277
sg16
S'f5afeeabb8f05e88384cefde7cfa6279'
p278
sa(dp279
g2
S'28497'
p280
sg4
S'993'
p281
sg6
S'03f52a4f7e66c7ccc384ce91e7bd50e9'
p282
sg8
S'xx715551d75bbd1ea8f4ac7683682745d7'
p283
sg10
S'xx21ef2add7f5cbd50376b35ff47e55e00'
p284
sg12
S'xx608a93bff15fdcbcb25561273d70bc99'
p285
sg14
S'Mozilla/5.0 (Linux; Android 5.1.1; vivo Y51A Build/LMY47V) AppleWebKit/537.36 (KHTML, like Gecko) Version/4.0 Chrome/37.0.0.0 Mobile MQQBrowser/6.8 TBS/036849 Safari/537.36 MicroMessenger/6.3.27.880 NetType/WIFI Language/zh_CN'
p286
sg16
S'f5afeeabb8f05e88384cefde7cfa6279'
p287
sa(dp288
g2
S'28497'
p289
sg4
S'1008'
p290
sg6
S'03f52a4f7e66c7ccc384ce91e7bd50e9'
p291
sg8
S'xx715551d75bbd1ea8f4ac7683682745d7'
p292
sg10
S'xx21ef2add7f5cbd50376b35ff47e55e00'
p293
sg12
S'xx608a93bff15fdcbcb25561273d70bc99'
p294
sg14
S'Mozilla/5.0 (Linux; Android 5.1.1; vivo Y51A Build/LMY47V) AppleWebKit/537.36 (KHTML, like Gecko) Version/4.0 Chrome/37.0.0.0 Mobile MQQBrowser/6.8 TBS/036849 Safari/537.36 MicroMessenger/6.3.27.880 NetType/WIFI Language/zh_CN'
p295
sg16
S'f5afeeabb8f05e88384cefde7cfa6279'
p296
sa(dp297
g2
S'28497'
p298
sg4
S'1022'
p299
sg6
S'03f52a4f7e66c7ccc384ce91e7bd50e9'
p300
sg8
S'xx715551d75bbd1ea8f4ac7683682745d7'
p301
sg10
S'xx21ef2add7f5cbd50376b35ff47e55e00'
p302
sg12
S'xx608a93bff15fdcbcb25561273d70bc99'
p303
sg14
S'Mozilla/5.0 (Linux; Android 5.1.1; vivo Y51A Build/LMY47V) AppleWebKit/537.36 (KHTML, like Gecko) Version/4.0 Chrome/37.0.0.0 Mobile MQQBrowser/6.8 TBS/036849 Safari/537.36 MicroMessenger/6.3.27.880 NetType/WIFI Language/zh_CN'
p304
sg16
S'f5afeeabb8f05e88384cefde7cfa6279'
p305
sa(dp306
g2
S'28497'
p307
sg4
S'1039'
p308
sg6
S'03f52a4f7e66c7ccc384ce91e7bd50e9'
p309
sg8
S'xx715551d75bbd1ea8f4ac7683682745d7'
p310
sg10
S'xx21ef2add7f5cbd50376b35ff47e55e00'
p311
sg12
S'xx608a93bff15fdcbcb25561273d70bc99'
p312
sg14
S'Mozilla/5.0 (Linux; Android 5.1.1; vivo Y51A Build/LMY47V) AppleWebKit/537.36 (KHTML, like Gecko) Version/4.0 Chrome/37.0.0.0 Mobile MQQBrowser/6.8 TBS/036849 Safari/537.36 MicroMessenger/6.3.27.880 NetType/WIFI Language/zh_CN'
p313
sg16
S'f5afeeabb8f05e88384cefde7cfa6279'
p314
sa(dp315
g2
S'28497'
p316
sg4
S'1055'
p317
sg6
S'03f52a4f7e66c7ccc384ce91e7bd50e9'
p318
sg8
S'xx715551d75bbd1ea8f4ac7683682745d7'
p319
sg10
S'xx21ef2add7f5cbd50376b35ff47e55e00'
p320
sg12
S'xx608a93bff15fdcbcb25561273d70bc99'
p321
sg14
S'Mozilla/5.0 (Linux; Android 5.1.1; vivo Y51A Build/LMY47V) AppleWebKit/537.36 (KHTML, like Gecko) Version/4.0 Chrome/37.0.0.0 Mobile MQQBrowser/6.8 TBS/036849 Safari/537.36 MicroMessenger/6.3.27.880 NetType/WIFI Language/zh_CN'
p322
sg16
S'f5afeeabb8f05e88384cefde7cfa6279'
p323
sa(dp324
g2
S'28497'
p325
sg4
S'1075'
p326
sg6
S'03f52a4f7e66c7ccc384ce91e7bd50e9'
p327
sg8
S'xx715551d75bbd1ea8f4ac7683682745d7'
p328
sg10
S'xx21ef2add7f5cbd50376b35ff47e55e00'
p329
sg12
S'xx608a93bff15fdcbcb25561273d70bc99'
p330
sg14
S'Mozilla/5.0 (Linux; Android 5.1.1; vivo Y51A Build/LMY47V) AppleWebKit/537.36 (KHTML, like Gecko) Version/4.0 Chrome/37.0.0.0 Mobile MQQBrowser/6.8 TBS/036849 Safari/537.36 MicroMessenger/6.3.27.880 NetType/WIFI Language/zh_CN'
p331
sg16
S'f5afeeabb8f05e88384cefde7cfa6279'
p332
sa(dp333
g2
S'28497'
p334
sg4
S'1093'
p335
sg6
S'03f52a4f7e66c7ccc384ce91e7bd50e9'
p336
sg8
S'xx715551d75bbd1ea8f4ac7683682745d7'
p337
sg10
S'xx21ef2add7f5cbd50376b35ff47e55e00'
p338
sg12
S'xx608a93bff15fdcbcb25561273d70bc99'
p339
sg14
S'Mozilla/5.0 (Linux; Android 5.1.1; vivo Y51A Build/LMY47V) AppleWebKit/537.36 (KHTML, like Gecko) Version/4.0 Chrome/37.0.0.0 Mobile MQQBrowser/6.8 TBS/036849 Safari/537.36 MicroMessenger/6.3.27.880 NetType/WIFI Language/zh_CN'
p340
sg16
S'f5afeeabb8f05e88384cefde7cfa6279'
p341
sa(dp342
g2
S'28497'
p343
sg4
S'1108'
p344
sg6
S'03f52a4f7e66c7ccc384ce91e7bd50e9'
p345
sg8
S'xx715551d75bbd1ea8f4ac7683682745d7'
p346
sg10
S'xx21ef2add7f5cbd50376b35ff47e55e00'
p347
sg12
S'xx608a93bff15fdcbcb25561273d70bc99'
p348
sg14
S'Mozilla/5.0 (Linux; Android 5.1.1; vivo Y51A Build/LMY47V) AppleWebKit/537.36 (KHTML, like Gecko) Version/4.0 Chrome/37.0.0.0 Mobile MQQBrowser/6.8 TBS/036849 Safari/537.36 MicroMessenger/6.3.27.880 NetType/WIFI Language/zh_CN'
p349
sg16
S'f5afeeabb8f05e88384cefde7cfa6279'
p350
sa(dp351
g2
S'28497'
p352
sg4
S'1124'
p353
sg6
S'03f52a4f7e66c7ccc384ce91e7bd50e9'
p354
sg8
S'xx715551d75bbd1ea8f4ac7683682745d7'
p355
sg10
S'xx21ef2add7f5cbd50376b35ff47e55e00'
p356
sg12
S'xx608a93bff15fdcbcb25561273d70bc99'
p357
sg14
S'Mozilla/5.0 (Linux; Android 5.1.1; vivo Y51A Build/LMY47V) AppleWebKit/537.36 (KHTML, like Gecko) Version/4.0 Chrome/37.0.0.0 Mobile MQQBrowser/6.8 TBS/036849 Safari/537.36 MicroMessenger/6.3.27.880 NetType/WIFI Language/zh_CN'
p358
sg16
S'f5afeeabb8f05e88384cefde7cfa6279'
p359
sa(dp360
g2
S'28497'
p361
sg4
S'1144'
p362
sg6
S'03f52a4f7e66c7ccc384ce91e7bd50e9'
p363
sg8
S'xx715551d75bbd1ea8f4ac7683682745d7'
p364
sg10
S'xx21ef2add7f5cbd50376b35ff47e55e00'
p365
sg12
S'xx608a93bff15fdcbcb25561273d70bc99'
p366
sg14
S'Mozilla/5.0 (Linux; Android 5.1.1; vivo Y51A Build/LMY47V) AppleWebKit/537.36 (KHTML, like Gecko) Version/4.0 Chrome/37.0.0.0 Mobile MQQBrowser/6.8 TBS/036849 Safari/537.36 MicroMessenger/6.3.27.880 NetType/WIFI Language/zh_CN'
p367
sg16
S'f5afeeabb8f05e88384cefde7cfa6279'
p368
sa(dp369
g2
S'28497'
p370
sg4
S'1161'
p371
sg6
S'03f52a4f7e66c7ccc384ce91e7bd50e9'
p372
sg8
S'xx715551d75bbd1ea8f4ac7683682745d7'
p373
sg10
S'xx21ef2add7f5cbd50376b35ff47e55e00'
p374
sg12
S'xx608a93bff15fdcbcb25561273d70bc99'
p375
sg14
S'Mozilla/5.0 (Linux; Android 5.1.1; vivo Y51A Build/LMY47V) AppleWebKit/537.36 (KHTML, like Gecko) Version/4.0 Chrome/37.0.0.0 Mobile MQQBrowser/6.8 TBS/036849 Safari/537.36 MicroMessenger/6.3.27.880 NetType/WIFI Language/zh_CN'
p376
sg16
S'f5afeeabb8f05e88384cefde7cfa6279'
p377
sa(dp378
g2
S'28497'
p379
sg4
S'1184'
p380
sg6
S'03f52a4f7e66c7ccc384ce91e7bd50e9'
p381
sg8
S'xx715551d75bbd1ea8f4ac7683682745d7'
p382
sg10
S'xx21ef2add7f5cbd50376b35ff47e55e00'
p383
sg12
S'xx608a93bff15fdcbcb25561273d70bc99'
p384
sg14
S'Mozilla/5.0 (Linux; Android 5.1.1; vivo Y51A Build/LMY47V) AppleWebKit/537.36 (KHTML, like Gecko) Version/4.0 Chrome/37.0.0.0 Mobile MQQBrowser/6.8 TBS/036849 Safari/537.36 MicroMessenger/6.3.27.880 NetType/WIFI Language/zh_CN'
p385
sg16
S'f5afeeabb8f05e88384cefde7cfa6279'
p386
sa(dp387
g2
S'28497'
p388
sg4
S'1192'
p389
sg6
S'03f52a4f7e66c7ccc384ce91e7bd50e9'
p390
sg8
S'xx715551d75bbd1ea8f4ac7683682745d7'
p391
sg10
S'xx21ef2add7f5cbd50376b35ff47e55e00'
p392
sg12
S'xx608a93bff15fdcbcb25561273d70bc99'
p393
sg14
S'Mozilla/5.0 (Linux; Android 5.1.1; vivo Y51A Build/LMY47V) AppleWebKit/537.36 (KHTML, like Gecko) Version/4.0 Chrome/37.0.0.0 Mobile MQQBrowser/6.8 TBS/036849 Safari/537.36 MicroMessenger/6.3.27.880 NetType/WIFI Language/zh_CN'
p394
sg16
S'f5afeeabb8f05e88384cefde7cfa6279'
p395
sa(dp396
g2
S'28497'
p397
sg4
S'1208'
p398
sg6
S'03f52a4f7e66c7ccc384ce91e7bd50e9'
p399
sg8
S'xx715551d75bbd1ea8f4ac7683682745d7'
p400
sg10
S'xx21ef2add7f5cbd50376b35ff47e55e00'
p401
sg12
S'xx608a93bff15fdcbcb25561273d70bc99'
p402
sg14
S'Mozilla/5.0 (Linux; Android 5.1.1; vivo Y51A Build/LMY47V) AppleWebKit/537.36 (KHTML, like Gecko) Version/4.0 Chrome/37.0.0.0 Mobile MQQBrowser/6.8 TBS/036849 Safari/537.36 MicroMessenger/6.3.27.880 NetType/WIFI Language/zh_CN'
p403
sg16
S'f5afeeabb8f05e88384cefde7cfa6279'
p404
sa(dp405
g2
S'28497'
p406
sg4
S'1225'
p407
sg6
S'03f52a4f7e66c7ccc384ce91e7bd50e9'
p408
sg8
S'xx715551d75bbd1ea8f4ac7683682745d7'
p409
sg10
S'xx21ef2add7f5cbd50376b35ff47e55e00'
p410
sg12
S'xx608a93bff15fdcbcb25561273d70bc99'
p411
sg14
S'Mozilla/5.0 (Linux; Android 5.1.1; vivo Y51A Build/LMY47V) AppleWebKit/537.36 (KHTML, like Gecko) Version/4.0 Chrome/37.0.0.0 Mobile MQQBrowser/6.8 TBS/036849 Safari/537.36 MicroMessenger/6.3.27.880 NetType/WIFI Language/zh_CN'
p412
sg16
S'f5afeeabb8f05e88384cefde7cfa6279'
p413
sa(dp414
g2
S'28497'
p415
sg4
S'1241'
p416
sg6
S'03f52a4f7e66c7ccc384ce91e7bd50e9'
p417
sg8
S'xx715551d75bbd1ea8f4ac7683682745d7'
p418
sg10
S'xx21ef2add7f5cbd50376b35ff47e55e00'
p419
sg12
S'xx608a93bff15fdcbcb25561273d70bc99'
p420
sg14
S'Mozilla/5.0 (Linux; Android 5.1.1; vivo Y51A Build/LMY47V) AppleWebKit/537.36 (KHTML, like Gecko) Version/4.0 Chrome/37.0.0.0 Mobile MQQBrowser/6.8 TBS/036849 Safari/537.36 MicroMessenger/6.3.27.880 NetType/WIFI Language/zh_CN'
p421
sg16
S'f5afeeabb8f05e88384cefde7cfa6279'
p422
sa(dp423
g2
S'28497'
p424
sg4
S'1252'
p425
sg6
S'03f52a4f7e66c7ccc384ce91e7bd50e9'
p426
sg8
S'xx715551d75bbd1ea8f4ac7683682745d7'
p427
sg10
S'xx21ef2add7f5cbd50376b35ff47e55e00'
p428
sg12
S'xx608a93bff15fdcbcb25561273d70bc99'
p429
sg14
S'Mozilla/5.0 (Linux; Android 5.1.1; vivo Y51A Build/LMY47V) AppleWebKit/537.36 (KHTML, like Gecko) Version/4.0 Chrome/37.0.0.0 Mobile MQQBrowser/6.8 TBS/036849 Safari/537.36 MicroMessenger/6.3.27.880 NetType/WIFI Language/zh_CN'
p430
sg16
S'f5afeeabb8f05e88384cefde7cfa6279'
p431
sa(dp432
g2
S'28497'
p433
sg4
S'1263'
p434
sg6
S'03f52a4f7e66c7ccc384ce91e7bd50e9'
p435
sg8
S'xx715551d75bbd1ea8f4ac7683682745d7'
p436
sg10
S'xx21ef2add7f5cbd50376b35ff47e55e00'
p437
sg12
S'xx608a93bff15fdcbcb25561273d70bc99'
p438
sg14
S'Mozilla/5.0 (Linux; Android 5.1.1; vivo Y51A Build/LMY47V) AppleWebKit/537.36 (KHTML, like Gecko) Version/4.0 Chrome/37.0.0.0 Mobile MQQBrowser/6.8 TBS/036849 Safari/537.36 MicroMessenger/6.3.27.880 NetType/WIFI Language/zh_CN'
p439
sg16
S'f5afeeabb8f05e88384cefde7cfa6279'
p440
sa(dp441
g2
S'28497'
p442
sg4
S'1285'
p443
sg6
S'03f52a4f7e66c7ccc384ce91e7bd50e9'
p444
sg8
S'xx715551d75bbd1ea8f4ac7683682745d7'
p445
sg10
S'xx21ef2add7f5cbd50376b35ff47e55e00'
p446
sg12
S'xx608a93bff15fdcbcb25561273d70bc99'
p447
sg14
S'Mozilla/5.0 (Linux; Android 5.1.1; vivo Y51A Build/LMY47V) AppleWebKit/537.36 (KHTML, like Gecko) Version/4.0 Chrome/37.0.0.0 Mobile MQQBrowser/6.8 TBS/036849 Safari/537.36 MicroMessenger/6.3.27.880 NetType/WIFI Language/zh_CN'
p448
sg16
S'f5afeeabb8f05e88384cefde7cfa6279'
p449
sa(dp450
g2
S'28497'
p451
sg4
S'1299'
p452
sg6
S'03f52a4f7e66c7ccc384ce91e7bd50e9'
p453
sg8
S'xx715551d75bbd1ea8f4ac7683682745d7'
p454
sg10
S'xx21ef2add7f5cbd50376b35ff47e55e00'
p455
sg12
S'xx608a93bff15fdcbcb25561273d70bc99'
p456
sg14
S'Mozilla/5.0 (Linux; Android 5.1.1; vivo Y51A Build/LMY47V) AppleWebKit/537.36 (KHTML, like Gecko) Version/4.0 Chrome/37.0.0.0 Mobile MQQBrowser/6.8 TBS/036849 Safari/537.36 MicroMessenger/6.3.27.880 NetType/WIFI Language/zh_CN'
p457
sg16
S'f5afeeabb8f05e88384cefde7cfa6279'
p458
sa(dp459
g2
S'28497'
p460
sg4
S'1312'
p461
sg6
S'03f52a4f7e66c7ccc384ce91e7bd50e9'
p462
sg8
S'xx715551d75bbd1ea8f4ac7683682745d7'
p463
sg10
S'xx21ef2add7f5cbd50376b35ff47e55e00'
p464
sg12
S'xx608a93bff15fdcbcb25561273d70bc99'
p465
sg14
S'Mozilla/5.0 (Linux; Android 5.1.1; vivo Y51A Build/LMY47V) AppleWebKit/537.36 (KHTML, like Gecko) Version/4.0 Chrome/37.0.0.0 Mobile MQQBrowser/6.8 TBS/036849 Safari/537.36 MicroMessenger/6.3.27.880 NetType/WIFI Language/zh_CN'
p466
sg16
S'f5afeeabb8f05e88384cefde7cfa6279'
p467
sa(dp468
g2
S'28497'
p469
sg4
S'1317'
p470
sg6
S'03f52a4f7e66c7ccc384ce91e7bd50e9'
p471
sg8
S'xx715551d75bbd1ea8f4ac7683682745d7'
p472
sg10
S'xx21ef2add7f5cbd50376b35ff47e55e00'
p473
sg12
S'xx608a93bff15fdcbcb25561273d70bc99'
p474
sg14
S'Mozilla/5.0 (Linux; Android 5.1.1; vivo Y51A Build/LMY47V) AppleWebKit/537.36 (KHTML, like Gecko) Version/4.0 Chrome/37.0.0.0 Mobile MQQBrowser/6.8 TBS/036849 Safari/537.36 MicroMessenger/6.3.27.880 NetType/WIFI Language/zh_CN'
p475
sg16
S'f5afeeabb8f05e88384cefde7cfa6279'
p476
sa(dp477
g2
S'28497'
p478
sg4
S'1326'
p479
sg6
S'03f52a4f7e66c7ccc384ce91e7bd50e9'
p480
sg8
S'xx715551d75bbd1ea8f4ac7683682745d7'
p481
sg10
S'xx21ef2add7f5cbd50376b35ff47e55e00'
p482
sg12
S'xx608a93bff15fdcbcb25561273d70bc99'
p483
sg14
S'Mozilla/5.0 (Linux; Android 5.1.1; vivo Y51A Build/LMY47V) AppleWebKit/537.36 (KHTML, like Gecko) Version/4.0 Chrome/37.0.0.0 Mobile MQQBrowser/6.8 TBS/036849 Safari/537.36 MicroMessenger/6.3.27.880 NetType/WIFI Language/zh_CN'
p484
sg16
S'f5afeeabb8f05e88384cefde7cfa6279'
p485
sa(dp486
g2
S'28497'
p487
sg4
S'1333'
p488
sg6
S'03f52a4f7e66c7ccc384ce91e7bd50e9'
p489
sg8
S'xx715551d75bbd1ea8f4ac7683682745d7'
p490
sg10
S'xx21ef2add7f5cbd50376b35ff47e55e00'
p491
sg12
S'xx608a93bff15fdcbcb25561273d70bc99'
p492
sg14
S'Mozilla/5.0 (Linux; Android 5.1.1; vivo Y51A Build/LMY47V) AppleWebKit/537.36 (KHTML, like Gecko) Version/4.0 Chrome/37.0.0.0 Mobile MQQBrowser/6.8 TBS/036849 Safari/537.36 MicroMessenger/6.3.27.880 NetType/WIFI Language/zh_CN'
p493
sg16
S'f5afeeabb8f05e88384cefde7cfa6279'
p494
sa(dp495
g2
S'28497'
p496
sg4
S'1336'
p497
sg6
S'03f52a4f7e66c7ccc384ce91e7bd50e9'
p498
sg8
S'xx715551d75bbd1ea8f4ac7683682745d7'
p499
sg10
S'xx21ef2add7f5cbd50376b35ff47e55e00'
p500
sg12
S'xx608a93bff15fdcbcb25561273d70bc99'
p501
sg14
S'Mozilla/5.0 (Linux; Android 5.1.1; vivo Y51A Build/LMY47V) AppleWebKit/537.36 (KHTML, like Gecko) Version/4.0 Chrome/37.0.0.0 Mobile MQQBrowser/6.8 TBS/036849 Safari/537.36 MicroMessenger/6.3.27.880 NetType/WIFI Language/zh_CN'
p502
sg16
S'f5afeeabb8f05e88384cefde7cfa6279'
p503
sa(dp504
g2
S'28497'
p505
sg4
S'1343'
p506
sg6
S'03f52a4f7e66c7ccc384ce91e7bd50e9'
p507
sg8
S'xx715551d75bbd1ea8f4ac7683682745d7'
p508
sg10
S'xx21ef2add7f5cbd50376b35ff47e55e00'
p509
sg12
S'xx608a93bff15fdcbcb25561273d70bc99'
p510
sg14
S'Mozilla/5.0 (Linux; Android 5.1.1; vivo Y51A Build/LMY47V) AppleWebKit/537.36 (KHTML, like Gecko) Version/4.0 Chrome/37.0.0.0 Mobile MQQBrowser/6.8 TBS/036849 Safari/537.36 MicroMessenger/6.3.27.880 NetType/WIFI Language/zh_CN'
p511
sg16
S'f5afeeabb8f05e88384cefde7cfa6279'
p512
sa(dp513
g2
S'28497'
p514
sg4
S'1354'
p515
sg6
S'03f52a4f7e66c7ccc384ce91e7bd50e9'
p516
sg8
S'xx715551d75bbd1ea8f4ac7683682745d7'
p517
sg10
S'xx21ef2add7f5cbd50376b35ff47e55e00'
p518
sg12
S'xx608a93bff15fdcbcb25561273d70bc99'
p519
sg14
S'Mozilla/5.0 (Linux; Android 5.1.1; vivo Y51A Build/LMY47V) AppleWebKit/537.36 (KHTML, like Gecko) Version/4.0 Chrome/37.0.0.0 Mobile MQQBrowser/6.8 TBS/036849 Safari/537.36 MicroMessenger/6.3.27.880 NetType/WIFI Language/zh_CN'
p520
sg16
S'f5afeeabb8f05e88384cefde7cfa6279'
p521
sa(dp522
g2
S'28497'
p523
sg4
S'1367'
p524
sg6
S'03f52a4f7e66c7ccc384ce91e7bd50e9'
p525
sg8
S'xx715551d75bbd1ea8f4ac7683682745d7'
p526
sg10
S'xx21ef2add7f5cbd50376b35ff47e55e00'
p527
sg12
S'xx608a93bff15fdcbcb25561273d70bc99'
p528
sg14
S'Mozilla/5.0 (Linux; Android 5.1.1; vivo Y51A Build/LMY47V) AppleWebKit/537.36 (KHTML, like Gecko) Version/4.0 Chrome/37.0.0.0 Mobile MQQBrowser/6.8 TBS/036849 Safari/537.36 MicroMessenger/6.3.27.880 NetType/WIFI Language/zh_CN'
p529
sg16
S'f5afeeabb8f05e88384cefde7cfa6279'
p530
sa(dp531
g2
S'28497'
p532
sg4
S'1382'
p533
sg6
S'03f52a4f7e66c7ccc384ce91e7bd50e9'
p534
sg8
S'xx715551d75bbd1ea8f4ac7683682745d7'
p535
sg10
S'xx21ef2add7f5cbd50376b35ff47e55e00'
p536
sg12
S'xx608a93bff15fdcbcb25561273d70bc99'
p537
sg14
S'Mozilla/5.0 (Linux; Android 5.1.1; vivo Y51A Build/LMY47V) AppleWebKit/537.36 (KHTML, like Gecko) Version/4.0 Chrome/37.0.0.0 Mobile MQQBrowser/6.8 TBS/036849 Safari/537.36 MicroMessenger/6.3.27.880 NetType/WIFI Language/zh_CN'
p538
sg16
S'f5afeeabb8f05e88384cefde7cfa6279'
p539
sa(dp540
g2
S'28497'
p541
sg4
S'1386'
p542
sg6
S'03f52a4f7e66c7ccc384ce91e7bd50e9'
p543
sg8
S'xx715551d75bbd1ea8f4ac7683682745d7'
p544
sg10
S'xx21ef2add7f5cbd50376b35ff47e55e00'
p545
sg12
S'xx608a93bff15fdcbcb25561273d70bc99'
p546
sg14
S'Mozilla/5.0 (Linux; Android 5.1.1; vivo Y51A Build/LMY47V) AppleWebKit/537.36 (KHTML, like Gecko) Version/4.0 Chrome/37.0.0.0 Mobile MQQBrowser/6.8 TBS/036849 Safari/537.36 MicroMessenger/6.3.27.880 NetType/WIFI Language/zh_CN'
p547
sg16
S'f5afeeabb8f05e88384cefde7cfa6279'
p548
sa(dp549
g2
S'28497'
p550
sg4
S'1399'
p551
sg6
S'03f52a4f7e66c7ccc384ce91e7bd50e9'
p552
sg8
S'xx715551d75bbd1ea8f4ac7683682745d7'
p553
sg10
S'xx21ef2add7f5cbd50376b35ff47e55e00'
p554
sg12
S'xx608a93bff15fdcbcb25561273d70bc99'
p555
sg14
S'Mozilla/5.0 (Linux; Android 5.1.1; vivo Y51A Build/LMY47V) AppleWebKit/537.36 (KHTML, like Gecko) Version/4.0 Chrome/37.0.0.0 Mobile MQQBrowser/6.8 TBS/036849 Safari/537.36 MicroMessenger/6.3.27.880 NetType/WIFI Language/zh_CN'
p556
sg16
S'f5afeeabb8f05e88384cefde7cfa6279'
p557
sa(dp558
g2
S'28497'
p559
sg4
S'1411'
p560
sg6
S'03f52a4f7e66c7ccc384ce91e7bd50e9'
p561
sg8
S'xx715551d75bbd1ea8f4ac7683682745d7'
p562
sg10
S'xx21ef2add7f5cbd50376b35ff47e55e00'
p563
sg12
S'xx608a93bff15fdcbcb25561273d70bc99'
p564
sg14
S'Mozilla/5.0 (Linux; Android 5.1.1; vivo Y51A Build/LMY47V) AppleWebKit/537.36 (KHTML, like Gecko) Version/4.0 Chrome/37.0.0.0 Mobile MQQBrowser/6.8 TBS/036849 Safari/537.36 MicroMessenger/6.3.27.880 NetType/WIFI Language/zh_CN'
p565
sg16
S'f5afeeabb8f05e88384cefde7cfa6279'
p566
sa(dp567
g2
S'28497'
p568
sg4
S'1420'
p569
sg6
S'03f52a4f7e66c7ccc384ce91e7bd50e9'
p570
sg8
S'xx715551d75bbd1ea8f4ac7683682745d7'
p571
sg10
S'xx21ef2add7f5cbd50376b35ff47e55e00'
p572
sg12
S'xx608a93bff15fdcbcb25561273d70bc99'
p573
sg14
S'Mozilla/5.0 (Linux; Android 5.1.1; vivo Y51A Build/LMY47V) AppleWebKit/537.36 (KHTML, like Gecko) Version/4.0 Chrome/37.0.0.0 Mobile MQQBrowser/6.8 TBS/036849 Safari/537.36 MicroMessenger/6.3.27.880 NetType/WIFI Language/zh_CN'
p574
sg16
S'f5afeeabb8f05e88384cefde7cfa6279'
p575
sa(dp576
g2
S'28497'
p577
sg4
S'1427'
p578
sg6
S'03f52a4f7e66c7ccc384ce91e7bd50e9'
p579
sg8
S'xx715551d75bbd1ea8f4ac7683682745d7'
p580
sg10
S'xx21ef2add7f5cbd50376b35ff47e55e00'
p581
sg12
S'xx608a93bff15fdcbcb25561273d70bc99'
p582
sg14
S'Mozilla/5.0 (Linux; Android 5.1.1; vivo Y51A Build/LMY47V) AppleWebKit/537.36 (KHTML, like Gecko) Version/4.0 Chrome/37.0.0.0 Mobile MQQBrowser/6.8 TBS/036849 Safari/537.36 MicroMessenger/6.3.27.880 NetType/WIFI Language/zh_CN'
p583
sg16
S'f5afeeabb8f05e88384cefde7cfa6279'
p584
sa(dp585
g2
S'28497'
p586
sg4
S'1435'
p587
sg6
S'03f52a4f7e66c7ccc384ce91e7bd50e9'
p588
sg8
S'xx715551d75bbd1ea8f4ac7683682745d7'
p589
sg10
S'xx21ef2add7f5cbd50376b35ff47e55e00'
p590
sg12
S'xx608a93bff15fdcbcb25561273d70bc99'
p591
sg14
S'Mozilla/5.0 (Linux; Android 5.1.1; vivo Y51A Build/LMY47V) AppleWebKit/537.36 (KHTML, like Gecko) Version/4.0 Chrome/37.0.0.0 Mobile MQQBrowser/6.8 TBS/036849 Safari/537.36 MicroMessenger/6.3.27.880 NetType/WIFI Language/zh_CN'
p592
sg16
S'f5afeeabb8f05e88384cefde7cfa6279'
p593
sa(dp594
g2
S'28497'
p595
sg4
S'1443'
p596
sg6
S'03f52a4f7e66c7ccc384ce91e7bd50e9'
p597
sg8
S'xx715551d75bbd1ea8f4ac7683682745d7'
p598
sg10
S'xx21ef2add7f5cbd50376b35ff47e55e00'
p599
sg12
S'xx608a93bff15fdcbcb25561273d70bc99'
p600
sg14
S'Mozilla/5.0 (Linux; Android 5.1.1; vivo Y51A Build/LMY47V) AppleWebKit/537.36 (KHTML, like Gecko) Version/4.0 Chrome/37.0.0.0 Mobile MQQBrowser/6.8 TBS/036849 Safari/537.36 MicroMessenger/6.3.27.880 NetType/WIFI Language/zh_CN'
p601
sg16
S'f5afeeabb8f05e88384cefde7cfa6279'
p602
sa(dp603
g2
S'28497'
p604
sg4
S'1452'
p605
sg6
S'03f52a4f7e66c7ccc384ce91e7bd50e9'
p606
sg8
S'xx715551d75bbd1ea8f4ac7683682745d7'
p607
sg10
S'xx21ef2add7f5cbd50376b35ff47e55e00'
p608
sg12
S'xx608a93bff15fdcbcb25561273d70bc99'
p609
sg14
S'Mozilla/5.0 (Linux; Android 5.1.1; vivo Y51A Build/LMY47V) AppleWebKit/537.36 (KHTML, like Gecko) Version/4.0 Chrome/37.0.0.0 Mobile MQQBrowser/6.8 TBS/036849 Safari/537.36 MicroMessenger/6.3.27.880 NetType/WIFI Language/zh_CN'
p610
sg16
S'f5afeeabb8f05e88384cefde7cfa6279'
p611
sa(dp612
g2
S'28497'
p613
sg4
S'1458'
p614
sg6
S'03f52a4f7e66c7ccc384ce91e7bd50e9'
p615
sg8
S'xx715551d75bbd1ea8f4ac7683682745d7'
p616
sg10
S'xx21ef2add7f5cbd50376b35ff47e55e00'
p617
sg12
S'xx608a93bff15fdcbcb25561273d70bc99'
p618
sg14
S'Mozilla/5.0 (Linux; Android 5.1.1; vivo Y51A Build/LMY47V) AppleWebKit/537.36 (KHTML, like Gecko) Version/4.0 Chrome/37.0.0.0 Mobile MQQBrowser/6.8 TBS/036849 Safari/537.36 MicroMessenger/6.3.27.880 NetType/WIFI Language/zh_CN'
p619
sg16
S'f5afeeabb8f05e88384cefde7cfa6279'
p620
sa(dp621
g2
S'28497'
p622
sg4
S'1466'
p623
sg6
S'03f52a4f7e66c7ccc384ce91e7bd50e9'
p624
sg8
S'xx715551d75bbd1ea8f4ac7683682745d7'
p625
sg10
S'xx21ef2add7f5cbd50376b35ff47e55e00'
p626
sg12
S'xx608a93bff15fdcbcb25561273d70bc99'
p627
sg14
S'Mozilla/5.0 (Linux; Android 5.1.1; vivo Y51A Build/LMY47V) AppleWebKit/537.36 (KHTML, like Gecko) Version/4.0 Chrome/37.0.0.0 Mobile MQQBrowser/6.8 TBS/036849 Safari/537.36 MicroMessenger/6.3.27.880 NetType/WIFI Language/zh_CN'
p628
sg16
S'f5afeeabb8f05e88384cefde7cfa6279'
p629
sa(dp630
g2
S'28497'
p631
sg4
S'1557'
p632
sg6
S'03f52a4f7e66c7ccc384ce91e7bd50e9'
p633
sg8
S'xx715551d75bbd1ea8f4ac7683682745d7'
p634
sg10
S'xx21ef2add7f5cbd50376b35ff47e55e00'
p635
sg12
S'xx608a93bff15fdcbcb25561273d70bc99'
p636
sg14
S'Mozilla/5.0 (Linux; Android 5.1.1; vivo Y51A Build/LMY47V) AppleWebKit/537.36 (KHTML, like Gecko) Version/4.0 Chrome/37.0.0.0 Mobile MQQBrowser/6.8 TBS/036849 Safari/537.36 MicroMessenger/6.3.27.880 NetType/WIFI Language/zh_CN'
p637
sg16
S'f5afeeabb8f05e88384cefde7cfa6279'
p638
sa(dp639
g2
S'28497'
p640
sg4
S'1572'
p641
sg6
S'03f52a4f7e66c7ccc384ce91e7bd50e9'
p642
sg8
S'xx715551d75bbd1ea8f4ac7683682745d7'
p643
sg10
S'xx21ef2add7f5cbd50376b35ff47e55e00'
p644
sg12
S'xx608a93bff15fdcbcb25561273d70bc99'
p645
sg14
S'Mozilla/5.0 (Linux; Android 5.1.1; vivo Y51A Build/LMY47V) AppleWebKit/537.36 (KHTML, like Gecko) Version/4.0 Chrome/37.0.0.0 Mobile MQQBrowser/6.8 TBS/036849 Safari/537.36 MicroMessenger/6.3.27.880 NetType/WIFI Language/zh_CN'
p646
sg16
S'f5afeeabb8f05e88384cefde7cfa6279'
p647
sa(dp648
g2
S'28497'
p649
sg4
S'1581'
p650
sg6
S'03f52a4f7e66c7ccc384ce91e7bd50e9'
p651
sg8
S'xx715551d75bbd1ea8f4ac7683682745d7'
p652
sg10
S'xx21ef2add7f5cbd50376b35ff47e55e00'
p653
sg12
S'xx608a93bff15fdcbcb25561273d70bc99'
p654
sg14
S'Mozilla/5.0 (Linux; Android 5.1.1; vivo Y51A Build/LMY47V) AppleWebKit/537.36 (KHTML, like Gecko) Version/4.0 Chrome/37.0.0.0 Mobile MQQBrowser/6.8 TBS/036849 Safari/537.36 MicroMessenger/6.3.27.880 NetType/WIFI Language/zh_CN'
p655
sg16
S'f5afeeabb8f05e88384cefde7cfa6279'
p656
sa(dp657
g2
S'28497'
p658
sg4
S'1587'
p659
sg6
S'03f52a4f7e66c7ccc384ce91e7bd50e9'
p660
sg8
S'xx715551d75bbd1ea8f4ac7683682745d7'
p661
sg10
S'xx21ef2add7f5cbd50376b35ff47e55e00'
p662
sg12
S'xx608a93bff15fdcbcb25561273d70bc99'
p663
sg14
S'Mozilla/5.0 (Linux; Android 5.1.1; vivo Y51A Build/LMY47V) AppleWebKit/537.36 (KHTML, like Gecko) Version/4.0 Chrome/37.0.0.0 Mobile MQQBrowser/6.8 TBS/036849 Safari/537.36 MicroMessenger/6.3.27.880 NetType/WIFI Language/zh_CN'
p664
sg16
S'f5afeeabb8f05e88384cefde7cfa6279'
p665
sa(dp666
g2
S'28497'
p667
sg4
S'1596'
p668
sg6
S'03f52a4f7e66c7ccc384ce91e7bd50e9'
p669
sg8
S'xx715551d75bbd1ea8f4ac7683682745d7'
p670
sg10
S'xx21ef2add7f5cbd50376b35ff47e55e00'
p671
sg12
S'xx608a93bff15fdcbcb25561273d70bc99'
p672
sg14
S'Mozilla/5.0 (Linux; Android 5.1.1; vivo Y51A Build/LMY47V) AppleWebKit/537.36 (KHTML, like Gecko) Version/4.0 Chrome/37.0.0.0 Mobile MQQBrowser/6.8 TBS/036849 Safari/537.36 MicroMessenger/6.3.27.880 NetType/WIFI Language/zh_CN'
p673
sg16
S'f5afeeabb8f05e88384cefde7cfa6279'
p674
sa(dp675
g2
S'28497'
p676
sg4
S'1605'
p677
sg6
S'03f52a4f7e66c7ccc384ce91e7bd50e9'
p678
sg8
S'xx715551d75bbd1ea8f4ac7683682745d7'
p679
sg10
S'xx21ef2add7f5cbd50376b35ff47e55e00'
p680
sg12
S'xx608a93bff15fdcbcb25561273d70bc99'
p681
sg14
S'Mozilla/5.0 (Linux; Android 5.1.1; vivo Y51A Build/LMY47V) AppleWebKit/537.36 (KHTML, like Gecko) Version/4.0 Chrome/37.0.0.0 Mobile MQQBrowser/6.8 TBS/036849 Safari/537.36 MicroMessenger/6.3.27.880 NetType/WIFI Language/zh_CN'
p682
sg16
S'f5afeeabb8f05e88384cefde7cfa6279'
p683
sa(dp684
g2
S'28497'
p685
sg4
S'1614'
p686
sg6
S'03f52a4f7e66c7ccc384ce91e7bd50e9'
p687
sg8
S'xx715551d75bbd1ea8f4ac7683682745d7'
p688
sg10
S'xx21ef2add7f5cbd50376b35ff47e55e00'
p689
sg12
S'xx608a93bff15fdcbcb25561273d70bc99'
p690
sg14
S'Mozilla/5.0 (Linux; Android 5.1.1; vivo Y51A Build/LMY47V) AppleWebKit/537.36 (KHTML, like Gecko) Version/4.0 Chrome/37.0.0.0 Mobile MQQBrowser/6.8 TBS/036849 Safari/537.36 MicroMessenger/6.3.27.880 NetType/WIFI Language/zh_CN'
p691
sg16
S'f5afeeabb8f05e88384cefde7cfa6279'
p692
sa(dp693
g2
S'28497'
p694
sg4
S'1627'
p695
sg6
S'03f52a4f7e66c7ccc384ce91e7bd50e9'
p696
sg8
S'xx715551d75bbd1ea8f4ac7683682745d7'
p697
sg10
S'xx21ef2add7f5cbd50376b35ff47e55e00'
p698
sg12
S'xx608a93bff15fdcbcb25561273d70bc99'
p699
sg14
S'Mozilla/5.0 (Linux; Android 5.1.1; vivo Y51A Build/LMY47V) AppleWebKit/537.36 (KHTML, like Gecko) Version/4.0 Chrome/37.0.0.0 Mobile MQQBrowser/6.8 TBS/036849 Safari/537.36 MicroMessenger/6.3.27.880 NetType/WIFI Language/zh_CN'
p700
sg16
S'f5afeeabb8f05e88384cefde7cfa6279'
p701
sa(dp702
g2
S'28497'
p703
sg4
S'1637'
p704
sg6
S'03f52a4f7e66c7ccc384ce91e7bd50e9'
p705
sg8
S'xx715551d75bbd1ea8f4ac7683682745d7'
p706
sg10
S'xx21ef2add7f5cbd50376b35ff47e55e00'
p707
sg12
S'xx608a93bff15fdcbcb25561273d70bc99'
p708
sg14
S'Mozilla/5.0 (Linux; Android 5.1.1; vivo Y51A Build/LMY47V) AppleWebKit/537.36 (KHTML, like Gecko) Version/4.0 Chrome/37.0.0.0 Mobile MQQBrowser/6.8 TBS/036849 Safari/537.36 MicroMessenger/6.3.27.880 NetType/WIFI Language/zh_CN'
p709
sg16
S'f5afeeabb8f05e88384cefde7cfa6279'
p710
sa(dp711
g2
S'28497'
p712
sg4
S'1640'
p713
sg6
S'03f52a4f7e66c7ccc384ce91e7bd50e9'
p714
sg8
S'xx715551d75bbd1ea8f4ac7683682745d7'
p715
sg10
S'xx21ef2add7f5cbd50376b35ff47e55e00'
p716
sg12
S'xx608a93bff15fdcbcb25561273d70bc99'
p717
sg14
S'Mozilla/5.0 (Linux; Android 5.1.1; vivo Y51A Build/LMY47V) AppleWebKit/537.36 (KHTML, like Gecko) Version/4.0 Chrome/37.0.0.0 Mobile MQQBrowser/6.8 TBS/036849 Safari/537.36 MicroMessenger/6.3.27.880 NetType/WIFI Language/zh_CN'
p718
sg16
S'f5afeeabb8f05e88384cefde7cfa6279'
p719
sa(dp720
g2
S'28497'
p721
sg4
S'1651'
p722
sg6
S'03f52a4f7e66c7ccc384ce91e7bd50e9'
p723
sg8
S'xx715551d75bbd1ea8f4ac7683682745d7'
p724
sg10
S'xx21ef2add7f5cbd50376b35ff47e55e00'
p725
sg12
S'xx608a93bff15fdcbcb25561273d70bc99'
p726
sg14
S'Mozilla/5.0 (Linux; Android 5.1.1; vivo Y51A Build/LMY47V) AppleWebKit/537.36 (KHTML, like Gecko) Version/4.0 Chrome/37.0.0.0 Mobile MQQBrowser/6.8 TBS/036849 Safari/537.36 MicroMessenger/6.3.27.880 NetType/WIFI Language/zh_CN'
p727
sg16
S'f5afeeabb8f05e88384cefde7cfa6279'
p728
sa(dp729
g2
S'28497'
p730
sg4
S'1660'
p731
sg6
S'03f52a4f7e66c7ccc384ce91e7bd50e9'
p732
sg8
S'xx715551d75bbd1ea8f4ac7683682745d7'
p733
sg10
S'xx21ef2add7f5cbd50376b35ff47e55e00'
p734
sg12
S'xx608a93bff15fdcbcb25561273d70bc99'
p735
sg14
S'Mozilla/5.0 (Linux; Android 5.1.1; vivo Y51A Build/LMY47V) AppleWebKit/537.36 (KHTML, like Gecko) Version/4.0 Chrome/37.0.0.0 Mobile MQQBrowser/6.8 TBS/036849 Safari/537.36 MicroMessenger/6.3.27.880 NetType/WIFI Language/zh_CN'
p736
sg16
S'f5afeeabb8f05e88384cefde7cfa6279'
p737
sa(dp738
g2
S'28497'
p739
sg4
S'1686'
p740
sg6
S'03f52a4f7e66c7ccc384ce91e7bd50e9'
p741
sg8
S'xx715551d75bbd1ea8f4ac7683682745d7'
p742
sg10
S'xx21ef2add7f5cbd50376b35ff47e55e00'
p743
sg12
S'xx608a93bff15fdcbcb25561273d70bc99'
p744
sg14
S'Mozilla/5.0 (Linux; Android 5.1.1; vivo Y51A Build/LMY47V) AppleWebKit/537.36 (KHTML, like Gecko) Version/4.0 Chrome/37.0.0.0 Mobile MQQBrowser/6.8 TBS/036849 Safari/537.36 MicroMessenger/6.3.27.880 NetType/WIFI Language/zh_CN'
p745
sg16
S'f5afeeabb8f05e88384cefde7cfa6279'
p746
sa(dp747
g2
S'28497'
p748
sg4
S'1699'
p749
sg6
S'03f52a4f7e66c7ccc384ce91e7bd50e9'
p750
sg8
S'xx715551d75bbd1ea8f4ac7683682745d7'
p751
sg10
S'xx21ef2add7f5cbd50376b35ff47e55e00'
p752
sg12
S'xx608a93bff15fdcbcb25561273d70bc99'
p753
sg14
S'Mozilla/5.0 (Linux; Android 5.1.1; vivo Y51A Build/LMY47V) AppleWebKit/537.36 (KHTML, like Gecko) Version/4.0 Chrome/37.0.0.0 Mobile MQQBrowser/6.8 TBS/036849 Safari/537.36 MicroMessenger/6.3.27.880 NetType/WIFI Language/zh_CN'
p754
sg16
S'f5afeeabb8f05e88384cefde7cfa6279'
p755
sa(dp756
g2
S'28497'
p757
sg4
S'1708'
p758
sg6
S'03f52a4f7e66c7ccc384ce91e7bd50e9'
p759
sg8
S'xx715551d75bbd1ea8f4ac7683682745d7'
p760
sg10
S'xx21ef2add7f5cbd50376b35ff47e55e00'
p761
sg12
S'xx608a93bff15fdcbcb25561273d70bc99'
p762
sg14
S'Mozilla/5.0 (Linux; Android 5.1.1; vivo Y51A Build/LMY47V) AppleWebKit/537.36 (KHTML, like Gecko) Version/4.0 Chrome/37.0.0.0 Mobile MQQBrowser/6.8 TBS/036849 Safari/537.36 MicroMessenger/6.3.27.880 NetType/WIFI Language/zh_CN'
p763
sg16
S'f5afeeabb8f05e88384cefde7cfa6279'
p764
sa(dp765
g2
S'28497'
p766
sg4
S'1717'
p767
sg6
S'03f52a4f7e66c7ccc384ce91e7bd50e9'
p768
sg8
S'xx715551d75bbd1ea8f4ac7683682745d7'
p769
sg10
S'xx21ef2add7f5cbd50376b35ff47e55e00'
p770
sg12
S'xx608a93bff15fdcbcb25561273d70bc99'
p771
sg14
S'Mozilla/5.0 (Linux; Android 5.1.1; vivo Y51A Build/LMY47V) AppleWebKit/537.36 (KHTML, like Gecko) Version/4.0 Chrome/37.0.0.0 Mobile MQQBrowser/6.8 TBS/036849 Safari/537.36 MicroMessenger/6.3.27.880 NetType/WIFI Language/zh_CN'
p772
sg16
S'f5afeeabb8f05e88384cefde7cfa6279'
p773
sa(dp774
g2
S'28497'
p775
sg4
S'2033'
p776
sg6
S'03f52a4f7e66c7ccc384ce91e7bd50e9'
p777
sg8
S'xx715551d75bbd1ea8f4ac7683682745d7'
p778
sg10
S'xx21ef2add7f5cbd50376b35ff47e55e00'
p779
sg12
S'xx608a93bff15fdcbcb25561273d70bc99'
p780
sg14
S'Mozilla/5.0 (Linux; Android 5.1.1; vivo Y51A Build/LMY47V) AppleWebKit/537.36 (KHTML, like Gecko) Version/4.0 Chrome/37.0.0.0 Mobile MQQBrowser/6.8 TBS/036849 Safari/537.36 MicroMessenger/6.3.27.880 NetType/WIFI Language/zh_CN'
p781
sg16
S'f5afeeabb8f05e88384cefde7cfa6279'
p782
sa(dp783
g2
S'28497'
p784
sg4
S'2045'
p785
sg6
S'03f52a4f7e66c7ccc384ce91e7bd50e9'
p786
sg8
S'xx715551d75bbd1ea8f4ac7683682745d7'
p787
sg10
S'xx21ef2add7f5cbd50376b35ff47e55e00'
p788
sg12
S'xx608a93bff15fdcbcb25561273d70bc99'
p789
sg14
S'Mozilla/5.0 (Linux; Android 5.1.1; vivo Y51A Build/LMY47V) AppleWebKit/537.36 (KHTML, like Gecko) Version/4.0 Chrome/37.0.0.0 Mobile MQQBrowser/6.8 TBS/036849 Safari/537.36 MicroMessenger/6.3.27.880 NetType/WIFI Language/zh_CN'
p790
sg16
S'f5afeeabb8f05e88384cefde7cfa6279'
p791
sa(dp792
g2
S'28497'
p793
sg4
S'2067'
p794
sg6
S'03f52a4f7e66c7ccc384ce91e7bd50e9'
p795
sg8
S'xx715551d75bbd1ea8f4ac7683682745d7'
p796
sg10
S'xx21ef2add7f5cbd50376b35ff47e55e00'
p797
sg12
S'xx608a93bff15fdcbcb25561273d70bc99'
p798
sg14
S'Mozilla/5.0 (Linux; Android 5.1.1; vivo Y51A Build/LMY47V) AppleWebKit/537.36 (KHTML, like Gecko) Version/4.0 Chrome/37.0.0.0 Mobile MQQBrowser/6.8 TBS/036849 Safari/537.36 MicroMessenger/6.3.27.880 NetType/WIFI Language/zh_CN'
p799
sg16
S'f5afeeabb8f05e88384cefde7cfa6279'
p800
sa(dp801
g2
S'28497'
p802
sg4
S'2083'
p803
sg6
S'03f52a4f7e66c7ccc384ce91e7bd50e9'
p804
sg8
S'xx715551d75bbd1ea8f4ac7683682745d7'
p805
sg10
S'xx21ef2add7f5cbd50376b35ff47e55e00'
p806
sg12
S'xx608a93bff15fdcbcb25561273d70bc99'
p807
sg14
S'Mozilla/5.0 (Linux; Android 5.1.1; vivo Y51A Build/LMY47V) AppleWebKit/537.36 (KHTML, like Gecko) Version/4.0 Chrome/37.0.0.0 Mobile MQQBrowser/6.8 TBS/036849 Safari/537.36 MicroMessenger/6.3.27.880 NetType/WIFI Language/zh_CN'
p808
sg16
S'f5afeeabb8f05e88384cefde7cfa6279'
p809
sa(dp810
g2
S'28497'
p811
sg4
S'2099'
p812
sg6
S'03f52a4f7e66c7ccc384ce91e7bd50e9'
p813
sg8
S'xx715551d75bbd1ea8f4ac7683682745d7'
p814
sg10
S'xx21ef2add7f5cbd50376b35ff47e55e00'
p815
sg12
S'xx608a93bff15fdcbcb25561273d70bc99'
p816
sg14
S'Mozilla/5.0 (Linux; Android 5.1.1; vivo Y51A Build/LMY47V) AppleWebKit/537.36 (KHTML, like Gecko) Version/4.0 Chrome/37.0.0.0 Mobile MQQBrowser/6.8 TBS/036849 Safari/537.36 MicroMessenger/6.3.27.880 NetType/WIFI Language/zh_CN'
p817
sg16
S'f5afeeabb8f05e88384cefde7cfa6279'
p818
sa(dp819
g2
S'28497'
p820
sg4
S'2125'
p821
sg6
S'03f52a4f7e66c7ccc384ce91e7bd50e9'
p822
sg8
S'xx715551d75bbd1ea8f4ac7683682745d7'
p823
sg10
S'xx21ef2add7f5cbd50376b35ff47e55e00'
p824
sg12
S'xx608a93bff15fdcbcb25561273d70bc99'
p825
sg14
S'Mozilla/5.0 (Linux; Android 5.1.1; vivo Y51A Build/LMY47V) AppleWebKit/537.36 (KHTML, like Gecko) Version/4.0 Chrome/37.0.0.0 Mobile MQQBrowser/6.8 TBS/036849 Safari/537.36 MicroMessenger/6.3.27.880 NetType/WIFI Language/zh_CN'
p826
sg16
S'f5afeeabb8f05e88384cefde7cfa6279'
p827
sa(dp828
g2
S'28497'
p829
sg4
S'2339'
p830
sg6
S'03f52a4f7e66c7ccc384ce91e7bd50e9'
p831
sg8
S'xx715551d75bbd1ea8f4ac7683682745d7'
p832
sg10
S'xx21ef2add7f5cbd50376b35ff47e55e00'
p833
sg12
S'xx608a93bff15fdcbcb25561273d70bc99'
p834
sg14
S'Mozilla/5.0 (Linux; Android 5.1.1; vivo Y51A Build/LMY47V) AppleWebKit/537.36 (KHTML, like Gecko) Version/4.0 Chrome/37.0.0.0 Mobile MQQBrowser/6.8 TBS/036849 Safari/537.36 MicroMessenger/6.3.27.880 NetType/WIFI Language/zh_CN'
p835
sg16
S'f5afeeabb8f05e88384cefde7cfa6279'
p836
sa(dp837
g2
S'28497'
p838
sg4
S'2358'
p839
sg6
S'03f52a4f7e66c7ccc384ce91e7bd50e9'
p840
sg8
S'xx715551d75bbd1ea8f4ac7683682745d7'
p841
sg10
S'xx21ef2add7f5cbd50376b35ff47e55e00'
p842
sg12
S'xx608a93bff15fdcbcb25561273d70bc99'
p843
sg14
S'Mozilla/5.0 (Linux; Android 5.1.1; vivo Y51A Build/LMY47V) AppleWebKit/537.36 (KHTML, like Gecko) Version/4.0 Chrome/37.0.0.0 Mobile MQQBrowser/6.8 TBS/036849 Safari/537.36 MicroMessenger/6.3.27.880 NetType/WIFI Language/zh_CN'
p844
sg16
S'f5afeeabb8f05e88384cefde7cfa6279'
p845
sa(dp846
g2
S'28497'
p847
sg4
S'2380'
p848
sg6
S'03f52a4f7e66c7ccc384ce91e7bd50e9'
p849
sg8
S'xx715551d75bbd1ea8f4ac7683682745d7'
p850
sg10
S'xx21ef2add7f5cbd50376b35ff47e55e00'
p851
sg12
S'xx608a93bff15fdcbcb25561273d70bc99'
p852
sg14
S'Mozilla/5.0 (Linux; Android 5.1.1; vivo Y51A Build/LMY47V) AppleWebKit/537.36 (KHTML, like Gecko) Version/4.0 Chrome/37.0.0.0 Mobile MQQBrowser/6.8 TBS/036849 Safari/537.36 MicroMessenger/6.3.27.880 NetType/WIFI Language/zh_CN'
p853
sg16
S'f5afeeabb8f05e88384cefde7cfa6279'
p854
sa(dp855
g2
S'28497'
p856
sg4
S'3693'
p857
sg6
S'03f52a4f7e66c7ccc384ce91e7bd50e9'
p858
sg8
S'xx715551d75bbd1ea8f4ac7683682745d7'
p859
sg10
S'xx21ef2add7f5cbd50376b35ff47e55e00'
p860
sg12
S'xx608a93bff15fdcbcb25561273d70bc99'
p861
sg14
S'Mozilla/5.0 (Linux; Android 5.1.1; vivo Y51A Build/LMY47V) AppleWebKit/537.36 (KHTML, like Gecko) Version/4.0 Chrome/37.0.0.0 Mobile MQQBrowser/6.8 TBS/036849 Safari/537.36 MicroMessenger/6.3.27.880 NetType/WIFI Language/zh_CN'
p862
sg16
S'f5afeeabb8f05e88384cefde7cfa6279'
p863
sa(dp864
g2
S'28497'
p865
sg4
S'3711'
p866
sg6
S'03f52a4f7e66c7ccc384ce91e7bd50e9'
p867
sg8
S'xx715551d75bbd1ea8f4ac7683682745d7'
p868
sg10
S'xx21ef2add7f5cbd50376b35ff47e55e00'
p869
sg12
S'xx608a93bff15fdcbcb25561273d70bc99'
p870
sg14
S'Mozilla/5.0 (Linux; Android 5.1.1; vivo Y51A Build/LMY47V) AppleWebKit/537.36 (KHTML, like Gecko) Version/4.0 Chrome/37.0.0.0 Mobile MQQBrowser/6.8 TBS/036849 Safari/537.36 MicroMessenger/6.3.27.880 NetType/WIFI Language/zh_CN'
p871
sg16
S'f5afeeabb8f05e88384cefde7cfa6279'
p872
sa(dp873
g2
S'28497'
p874
sg4
S'3730'
p875
sg6
S'03f52a4f7e66c7ccc384ce91e7bd50e9'
p876
sg8
S'xx715551d75bbd1ea8f4ac7683682745d7'
p877
sg10
S'xx21ef2add7f5cbd50376b35ff47e55e00'
p878
sg12
S'xx608a93bff15fdcbcb25561273d70bc99'
p879
sg14
S'Mozilla/5.0 (Linux; Android 5.1.1; vivo Y51A Build/LMY47V) AppleWebKit/537.36 (KHTML, like Gecko) Version/4.0 Chrome/37.0.0.0 Mobile MQQBrowser/6.8 TBS/036849 Safari/537.36 MicroMessenger/6.3.27.880 NetType/WIFI Language/zh_CN'
p880
sg16
S'f5afeeabb8f05e88384cefde7cfa6279'
p881
sa(dp882
g2
S'28497'
p883
sg4
S'3747'
p884
sg6
S'03f52a4f7e66c7ccc384ce91e7bd50e9'
p885
sg8
S'xx715551d75bbd1ea8f4ac7683682745d7'
p886
sg10
S'xx21ef2add7f5cbd50376b35ff47e55e00'
p887
sg12
S'xx608a93bff15fdcbcb25561273d70bc99'
p888
sg14
S'Mozilla/5.0 (Linux; Android 5.1.1; vivo Y51A Build/LMY47V) AppleWebKit/537.36 (KHTML, like Gecko) Version/4.0 Chrome/37.0.0.0 Mobile MQQBrowser/6.8 TBS/036849 Safari/537.36 MicroMessenger/6.3.27.880 NetType/WIFI Language/zh_CN'
p889
sg16
S'f5afeeabb8f05e88384cefde7cfa6279'
p890
sa(dp891
g2
S'28497'
p892
sg4
S'3765'
p893
sg6
S'03f52a4f7e66c7ccc384ce91e7bd50e9'
p894
sg8
S'xx715551d75bbd1ea8f4ac7683682745d7'
p895
sg10
S'xx21ef2add7f5cbd50376b35ff47e55e00'
p896
sg12
S'xx608a93bff15fdcbcb25561273d70bc99'
p897
sg14
S'Mozilla/5.0 (Linux; Android 5.1.1; vivo Y51A Build/LMY47V) AppleWebKit/537.36 (KHTML, like Gecko) Version/4.0 Chrome/37.0.0.0 Mobile MQQBrowser/6.8 TBS/036849 Safari/537.36 MicroMessenger/6.3.27.880 NetType/WIFI Language/zh_CN'
p898
sg16
S'f5afeeabb8f05e88384cefde7cfa6279'
p899
sa(dp900
g2
S'28497'
p901
sg4
S'3786'
p902
sg6
S'03f52a4f7e66c7ccc384ce91e7bd50e9'
p903
sg8
S'xx715551d75bbd1ea8f4ac7683682745d7'
p904
sg10
S'xx21ef2add7f5cbd50376b35ff47e55e00'
p905
sg12
S'xx608a93bff15fdcbcb25561273d70bc99'
p906
sg14
S'Mozilla/5.0 (Linux; Android 5.1.1; vivo Y51A Build/LMY47V) AppleWebKit/537.36 (KHTML, like Gecko) Version/4.0 Chrome/37.0.0.0 Mobile MQQBrowser/6.8 TBS/036849 Safari/537.36 MicroMessenger/6.3.27.880 NetType/WIFI Language/zh_CN'
p907
sg16
S'f5afeeabb8f05e88384cefde7cfa6279'
p908
sa(dp909
g2
S'28497'
p910
sg4
S'3804'
p911
sg6
S'03f52a4f7e66c7ccc384ce91e7bd50e9'
p912
sg8
S'xx715551d75bbd1ea8f4ac7683682745d7'
p913
sg10
S'xx21ef2add7f5cbd50376b35ff47e55e00'
p914
sg12
S'xx608a93bff15fdcbcb25561273d70bc99'
p915
sg14
S'Mozilla/5.0 (Linux; Android 5.1.1; vivo Y51A Build/LMY47V) AppleWebKit/537.36 (KHTML, like Gecko) Version/4.0 Chrome/37.0.0.0 Mobile MQQBrowser/6.8 TBS/036849 Safari/537.36 MicroMessenger/6.3.27.880 NetType/WIFI Language/zh_CN'
p916
sg16
S'f5afeeabb8f05e88384cefde7cfa6279'
p917
sa(dp918
g2
S'28497'
p919
sg4
S'3819'
p920
sg6
S'03f52a4f7e66c7ccc384ce91e7bd50e9'
p921
sg8
S'xx715551d75bbd1ea8f4ac7683682745d7'
p922
sg10
S'xx21ef2add7f5cbd50376b35ff47e55e00'
p923
sg12
S'xx608a93bff15fdcbcb25561273d70bc99'
p924
sg14
S'Mozilla/5.0 (Linux; Android 5.1.1; vivo Y51A Build/LMY47V) AppleWebKit/537.36 (KHTML, like Gecko) Version/4.0 Chrome/37.0.0.0 Mobile MQQBrowser/6.8 TBS/036849 Safari/537.36 MicroMessenger/6.3.27.880 NetType/WIFI Language/zh_CN'
p925
sg16
S'f5afeeabb8f05e88384cefde7cfa6279'
p926
sa(dp927
g2
S'28497'
p928
sg4
S'3839'
p929
sg6
S'03f52a4f7e66c7ccc384ce91e7bd50e9'
p930
sg8
S'xx715551d75bbd1ea8f4ac7683682745d7'
p931
sg10
S'xx21ef2add7f5cbd50376b35ff47e55e00'
p932
sg12
S'xx608a93bff15fdcbcb25561273d70bc99'
p933
sg14
S'Mozilla/5.0 (Linux; Android 5.1.1; vivo Y51A Build/LMY47V) AppleWebKit/537.36 (KHTML, like Gecko) Version/4.0 Chrome/37.0.0.0 Mobile MQQBrowser/6.8 TBS/036849 Safari/537.36 MicroMessenger/6.3.27.880 NetType/WIFI Language/zh_CN'
p934
sg16
S'f5afeeabb8f05e88384cefde7cfa6279'
p935
sa(dp936
g2
S'28497'
p937
sg4
S'3990'
p938
sg6
S'03f52a4f7e66c7ccc384ce91e7bd50e9'
p939
sg8
S'xx715551d75bbd1ea8f4ac7683682745d7'
p940
sg10
S'xx21ef2add7f5cbd50376b35ff47e55e00'
p941
sg12
S'xx608a93bff15fdcbcb25561273d70bc99'
p942
sg14
S'Mozilla/5.0 (Linux; Android 5.1.1; vivo Y51A Build/LMY47V) AppleWebKit/537.36 (KHTML, like Gecko) Version/4.0 Chrome/37.0.0.0 Mobile MQQBrowser/6.8 TBS/036849 Safari/537.36 MicroMessenger/6.3.27.880 NetType/WIFI Language/zh_CN'
p943
sg16
S'f5afeeabb8f05e88384cefde7cfa6279'
p944
sa(dp945
g2
S'28497'
p946
sg4
S'4009'
p947
sg6
S'03f52a4f7e66c7ccc384ce91e7bd50e9'
p948
sg8
S'xx715551d75bbd1ea8f4ac7683682745d7'
p949
sg10
S'xx21ef2add7f5cbd50376b35ff47e55e00'
p950
sg12
S'xx608a93bff15fdcbcb25561273d70bc99'
p951
sg14
S'Mozilla/5.0 (Linux; Android 5.1.1; vivo Y51A Build/LMY47V) AppleWebKit/537.36 (KHTML, like Gecko) Version/4.0 Chrome/37.0.0.0 Mobile MQQBrowser/6.8 TBS/036849 Safari/537.36 MicroMessenger/6.3.27.880 NetType/WIFI Language/zh_CN'
p952
sg16
S'f5afeeabb8f05e88384cefde7cfa6279'
p953
sa(dp954
g2
S'28497'
p955
sg4
S'4027'
p956
sg6
S'03f52a4f7e66c7ccc384ce91e7bd50e9'
p957
sg8
S'xx715551d75bbd1ea8f4ac7683682745d7'
p958
sg10
S'xx21ef2add7f5cbd50376b35ff47e55e00'
p959
sg12
S'xx608a93bff15fdcbcb25561273d70bc99'
p960
sg14
S'Mozilla/5.0 (Linux; Android 5.1.1; vivo Y51A Build/LMY47V) AppleWebKit/537.36 (KHTML, like Gecko) Version/4.0 Chrome/37.0.0.0 Mobile MQQBrowser/6.8 TBS/036849 Safari/537.36 MicroMessenger/6.3.27.880 NetType/WIFI Language/zh_CN'
p961
sg16
S'f5afeeabb8f05e88384cefde7cfa6279'
p962
sa(dp963
g2
S'28497'
p964
sg4
S'4047'
p965
sg6
S'03f52a4f7e66c7ccc384ce91e7bd50e9'
p966
sg8
S'xx715551d75bbd1ea8f4ac7683682745d7'
p967
sg10
S'xx21ef2add7f5cbd50376b35ff47e55e00'
p968
sg12
S'xx608a93bff15fdcbcb25561273d70bc99'
p969
sg14
S'Mozilla/5.0 (Linux; Android 5.1.1; vivo Y51A Build/LMY47V) AppleWebKit/537.36 (KHTML, like Gecko) Version/4.0 Chrome/37.0.0.0 Mobile MQQBrowser/6.8 TBS/036849 Safari/537.36 MicroMessenger/6.3.27.880 NetType/WIFI Language/zh_CN'
p970
sg16
S'f5afeeabb8f05e88384cefde7cfa6279'
p971
sa(dp972
g2
S'28497'
p973
sg4
S'4070'
p974
sg6
S'03f52a4f7e66c7ccc384ce91e7bd50e9'
p975
sg8
S'xx715551d75bbd1ea8f4ac7683682745d7'
p976
sg10
S'xx21ef2add7f5cbd50376b35ff47e55e00'
p977
sg12
S'xx608a93bff15fdcbcb25561273d70bc99'
p978
sg14
S'Mozilla/5.0 (Linux; Android 5.1.1; vivo Y51A Build/LMY47V) AppleWebKit/537.36 (KHTML, like Gecko) Version/4.0 Chrome/37.0.0.0 Mobile MQQBrowser/6.8 TBS/036849 Safari/537.36 MicroMessenger/6.3.27.880 NetType/WIFI Language/zh_CN'
p979
sg16
S'f5afeeabb8f05e88384cefde7cfa6279'
p980
sa(dp981
g2
S'28497'
p982
sg4
S'4143'
p983
sg6
S'03f52a4f7e66c7ccc384ce91e7bd50e9'
p984
sg8
S'xx715551d75bbd1ea8f4ac7683682745d7'
p985
sg10
S'xx21ef2add7f5cbd50376b35ff47e55e00'
p986
sg12
S'xx608a93bff15fdcbcb25561273d70bc99'
p987
sg14
S'Mozilla/5.0 (Linux; Android 5.1.1; vivo Y51A Build/LMY47V) AppleWebKit/537.36 (KHTML, like Gecko) Version/4.0 Chrome/37.0.0.0 Mobile MQQBrowser/6.8 TBS/036849 Safari/537.36 MicroMessenger/6.3.27.880 NetType/WIFI Language/zh_CN'
p988
sg16
S'f5afeeabb8f05e88384cefde7cfa6279'
p989
sa(dp990
g2
S'28497'
p991
sg4
S'4265'
p992
sg6
S'03f52a4f7e66c7ccc384ce91e7bd50e9'
p993
sg8
S'xx715551d75bbd1ea8f4ac7683682745d7'
p994
sg10
S'xx21ef2add7f5cbd50376b35ff47e55e00'
p995
sg12
S'xx608a93bff15fdcbcb25561273d70bc99'
p996
sg14
S'Mozilla/5.0 (Linux; Android 5.1.1; vivo Y51A Build/LMY47V) AppleWebKit/537.36 (KHTML, like Gecko) Version/4.0 Chrome/37.0.0.0 Mobile MQQBrowser/6.8 TBS/036849 Safari/537.36 MicroMessenger/6.3.27.880 NetType/WIFI Language/zh_CN'
p997
sg16
S'f5afeeabb8f05e88384cefde7cfa6279'
p998
sa(dp999
g2
S'28497'
p1000
sg4
S'4336'
p1001
sg6
S'8e1afb072c40eb1656fe62c4a763a779'
p1002
sg8
S'xx715551d75bbd1ea8f4ac7683682745d7'
p1003
sg10
S'xx21ef2add7f5cbd50376b35ff47e55e00'
p1004
sg12
S'xx608a93bff15fdcbcb25561273d70bc99'
p1005
sg14
S'Mozilla/5.0 (Linux; Android 5.1.1; vivo Y51A Build/LMY47V) AppleWebKit/537.36 (KHTML, like Gecko) Version/4.0 Chrome/37.0.0.0 Mobile MQQBrowser/6.8 TBS/036849 Safari/537.36 MicroMessenger/6.3.27.880 NetType/WIFI Language/zh_CN'
p1006
sg16
S'f5afeeabb8f05e88384cefde7cfa6279'
p1007
sa(dp1008
g2
S'28497'
p1009
sg4
S'4360'
p1010
sg6
S'8e1afb072c40eb1656fe62c4a763a779'
p1011
sg8
S'xx715551d75bbd1ea8f4ac7683682745d7'
p1012
sg10
S'xx21ef2add7f5cbd50376b35ff47e55e00'
p1013
sg12
S'xx608a93bff15fdcbcb25561273d70bc99'
p1014
sg14
S'Mozilla/5.0 (Linux; Android 5.1.1; vivo Y51A Build/LMY47V) AppleWebKit/537.36 (KHTML, like Gecko) Version/4.0 Chrome/37.0.0.0 Mobile MQQBrowser/6.8 TBS/036849 Safari/537.36 MicroMessenger/6.3.27.880 NetType/WIFI Language/zh_CN'
p1015
sg16
S'f5afeeabb8f05e88384cefde7cfa6279'
p1016
sa(dp1017
g2
S'28497'
p1018
sg4
S'4390'
p1019
sg6
S'8e1afb072c40eb1656fe62c4a763a779'
p1020
sg8
S'xx715551d75bbd1ea8f4ac7683682745d7'
p1021
sg10
S'xx21ef2add7f5cbd50376b35ff47e55e00'
p1022
sg12
S'xx608a93bff15fdcbcb25561273d70bc99'
p1023
sg14
S'Mozilla/5.0 (Linux; Android 5.1.1; vivo Y51A Build/LMY47V) AppleWebKit/537.36 (KHTML, like Gecko) Version/4.0 Chrome/37.0.0.0 Mobile MQQBrowser/6.8 TBS/036849 Safari/537.36 MicroMessenger/6.3.27.880 NetType/WIFI Language/zh_CN'
p1024
sg16
S'f5afeeabb8f05e88384cefde7cfa6279'
p1025
sa(dp1026
g2
S'28497'
p1027
sg4
S'4436'
p1028
sg6
S'8e1afb072c40eb1656fe62c4a763a779'
p1029
sg8
S'xx715551d75bbd1ea8f4ac7683682745d7'
p1030
sg10
S'xx21ef2add7f5cbd50376b35ff47e55e00'
p1031
sg12
S'xx608a93bff15fdcbcb25561273d70bc99'
p1032
sg14
S'Mozilla/5.0 (Linux; Android 5.1.1; vivo Y51A Build/LMY47V) AppleWebKit/537.36 (KHTML, like Gecko) Version/4.0 Chrome/37.0.0.0 Mobile MQQBrowser/6.8 TBS/036849 Safari/537.36 MicroMessenger/6.3.27.880 NetType/WIFI Language/zh_CN'
p1033
sg16
S'f5afeeabb8f05e88384cefde7cfa6279'
p1034
sa(dp1035
g2
S'28497'
p1036
sg4
S'4460'
p1037
sg6
S'8e1afb072c40eb1656fe62c4a763a779'
p1038
sg8
S'xx715551d75bbd1ea8f4ac7683682745d7'
p1039
sg10
S'xx21ef2add7f5cbd50376b35ff47e55e00'
p1040
sg12
S'xx608a93bff15fdcbcb25561273d70bc99'
p1041
sg14
S'Mozilla/5.0 (Linux; Android 5.1.1; vivo Y51A Build/LMY47V) AppleWebKit/537.36 (KHTML, like Gecko) Version/4.0 Chrome/37.0.0.0 Mobile MQQBrowser/6.8 TBS/036849 Safari/537.36 MicroMessenger/6.3.27.880 NetType/WIFI Language/zh_CN'
p1042
sg16
S'f5afeeabb8f05e88384cefde7cfa6279'
p1043
sa(dp1044
g2
S'28497'
p1045
sg4
S'4606'
p1046
sg6
S'8e1afb072c40eb1656fe62c4a763a779'
p1047
sg8
S'xx715551d75bbd1ea8f4ac7683682745d7'
p1048
sg10
S'xx21ef2add7f5cbd50376b35ff47e55e00'
p1049
sg12
S'xx608a93bff15fdcbcb25561273d70bc99'
p1050
sg14
S'Mozilla/5.0 (Linux; Android 5.1.1; vivo Y51A Build/LMY47V) AppleWebKit/537.36 (KHTML, like Gecko) Version/4.0 Chrome/37.0.0.0 Mobile MQQBrowser/6.8 TBS/036849 Safari/537.36 MicroMessenger/6.3.27.880 NetType/WIFI Language/zh_CN'
p1051
sg16
S'f5afeeabb8f05e88384cefde7cfa6279'
p1052
sa(dp1053
g2
S'28497'
p1054
sg4
S'4721'
p1055
sg6
S'8e1afb072c40eb1656fe62c4a763a779'
p1056
sg8
S'xx715551d75bbd1ea8f4ac7683682745d7'
p1057
sg10
S'xx21ef2add7f5cbd50376b35ff47e55e00'
p1058
sg12
S'xx608a93bff15fdcbcb25561273d70bc99'
p1059
sg14
S'Mozilla/5.0 (Linux; Android 5.1.1; vivo Y51A Build/LMY47V) AppleWebKit/537.36 (KHTML, like Gecko) Version/4.0 Chrome/37.0.0.0 Mobile MQQBrowser/6.8 TBS/036849 Safari/537.36 MicroMessenger/6.3.27.880 NetType/WIFI Language/zh_CN'
p1060
sg16
S'f5afeeabb8f05e88384cefde7cfa6279'
p1061
sa(dp1062
g2
S'28497'
p1063
sg4
S'4881'
p1064
sg6
S'8e1afb072c40eb1656fe62c4a763a779'
p1065
sg8
S'xx715551d75bbd1ea8f4ac7683682745d7'
p1066
sg10
S'xx21ef2add7f5cbd50376b35ff47e55e00'
p1067
sg12
S'xx608a93bff15fdcbcb25561273d70bc99'
p1068
sg14
S'Mozilla/5.0 (Linux; Android 5.1.1; vivo Y51A Build/LMY47V) AppleWebKit/537.36 (KHTML, like Gecko) Version/4.0 Chrome/37.0.0.0 Mobile MQQBrowser/6.8 TBS/036849 Safari/537.36 MicroMessenger/6.3.27.880 NetType/WIFI Language/zh_CN'
p1069
sg16
S'f5afeeabb8f05e88384cefde7cfa6279'
p1070
sa(dp1071
g2
S'28497'
p1072
sg4
S'4921'
p1073
sg6
S'8e1afb072c40eb1656fe62c4a763a779'
p1074
sg8
S'xx715551d75bbd1ea8f4ac7683682745d7'
p1075
sg10
S'xx21ef2add7f5cbd50376b35ff47e55e00'
p1076
sg12
S'xx608a93bff15fdcbcb25561273d70bc99'
p1077
sg14
S'Mozilla/5.0 (Linux; Android 5.1.1; vivo Y51A Build/LMY47V) AppleWebKit/537.36 (KHTML, like Gecko) Version/4.0 Chrome/37.0.0.0 Mobile MQQBrowser/6.8 TBS/036849 Safari/537.36 MicroMessenger/6.3.27.880 NetType/WIFI Language/zh_CN'
p1078
sg16
S'f5afeeabb8f05e88384cefde7cfa6279'
p1079
sa(dp1080
g2
S'28497'
p1081
sg4
S'4984'
p1082
sg6
S'8e1afb072c40eb1656fe62c4a763a779'
p1083
sg8
S'xx715551d75bbd1ea8f4ac7683682745d7'
p1084
sg10
S'xx21ef2add7f5cbd50376b35ff47e55e00'
p1085
sg12
S'xx608a93bff15fdcbcb25561273d70bc99'
p1086
sg14
S'Mozilla/5.0 (Linux; Android 5.1.1; vivo Y51A Build/LMY47V) AppleWebKit/537.36 (KHTML, like Gecko) Version/4.0 Chrome/37.0.0.0 Mobile MQQBrowser/6.8 TBS/036849 Safari/537.36 MicroMessenger/6.3.27.880 NetType/WIFI Language/zh_CN'
p1087
sg16
S'f5afeeabb8f05e88384cefde7cfa6279'
p1088
sa(dp1089
g2
S'28497'
p1090
sg4
S'5157'
p1091
sg6
S'8e1afb072c40eb1656fe62c4a763a779'
p1092
sg8
S'xx715551d75bbd1ea8f4ac7683682745d7'
p1093
sg10
S'xx21ef2add7f5cbd50376b35ff47e55e00'
p1094
sg12
S'xx608a93bff15fdcbcb25561273d70bc99'
p1095
sg14
S'Mozilla/5.0 (Linux; Android 5.1.1; vivo Y51A Build/LMY47V) AppleWebKit/537.36 (KHTML, like Gecko) Version/4.0 Chrome/37.0.0.0 Mobile MQQBrowser/6.8 TBS/036849 Safari/537.36 MicroMessenger/6.3.27.880 NetType/WIFI Language/zh_CN'
p1096
sg16
S'f5afeeabb8f05e88384cefde7cfa6279'
p1097
sa(dp1098
g2
S'28497'
p1099
sg4
S'5190'
p1100
sg6
S'8e1afb072c40eb1656fe62c4a763a779'
p1101
sg8
S'xx715551d75bbd1ea8f4ac7683682745d7'
p1102
sg10
S'xx21ef2add7f5cbd50376b35ff47e55e00'
p1103
sg12
S'xx608a93bff15fdcbcb25561273d70bc99'
p1104
sg14
S'Mozilla/5.0 (Linux; Android 5.1.1; vivo Y51A Build/LMY47V) AppleWebKit/537.36 (KHTML, like Gecko) Version/4.0 Chrome/37.0.0.0 Mobile MQQBrowser/6.8 TBS/036849 Safari/537.36 MicroMessenger/6.3.27.880 NetType/WIFI Language/zh_CN'
p1105
sg16
S'f5afeeabb8f05e88384cefde7cfa6279'
p1106
sa(dp1107
g2
S'28497'
p1108
sg4
S'5263'
p1109
sg6
S'8e1afb072c40eb1656fe62c4a763a779'
p1110
sg8
S'xx715551d75bbd1ea8f4ac7683682745d7'
p1111
sg10
S'xx21ef2add7f5cbd50376b35ff47e55e00'
p1112
sg12
S'xx608a93bff15fdcbcb25561273d70bc99'
p1113
sg14
S'Mozilla/5.0 (Linux; Android 5.1.1; vivo Y51A Build/LMY47V) AppleWebKit/537.36 (KHTML, like Gecko) Version/4.0 Chrome/37.0.0.0 Mobile MQQBrowser/6.8 TBS/036849 Safari/537.36 MicroMessenger/6.3.27.880 NetType/WIFI Language/zh_CN'
p1114
sg16
S'f5afeeabb8f05e88384cefde7cfa6279'
p1115
sa(dp1116
g2
S'28497'
p1117
sg4
S'5289'
p1118
sg6
S'8e1afb072c40eb1656fe62c4a763a779'
p1119
sg8
S'xx715551d75bbd1ea8f4ac7683682745d7'
p1120
sg10
S'xx21ef2add7f5cbd50376b35ff47e55e00'
p1121
sg12
S'xx608a93bff15fdcbcb25561273d70bc99'
p1122
sg14
S'Mozilla/5.0 (Linux; Android 5.1.1; vivo Y51A Build/LMY47V) AppleWebKit/537.36 (KHTML, like Gecko) Version/4.0 Chrome/37.0.0.0 Mobile MQQBrowser/6.8 TBS/036849 Safari/537.36 MicroMessenger/6.3.27.880 NetType/WIFI Language/zh_CN'
p1123
sg16
S'f5afeeabb8f05e88384cefde7cfa6279'
p1124
sa(dp1125
g2
S'28497'
p1126
sg4
S'5318'
p1127
sg6
S'8e1afb072c40eb1656fe62c4a763a779'
p1128
sg8
S'xx715551d75bbd1ea8f4ac7683682745d7'
p1129
sg10
S'xx21ef2add7f5cbd50376b35ff47e55e00'
p1130
sg12
S'xx608a93bff15fdcbcb25561273d70bc99'
p1131
sg14
S'Mozilla/5.0 (Linux; Android 5.1.1; vivo Y51A Build/LMY47V) AppleWebKit/537.36 (KHTML, like Gecko) Version/4.0 Chrome/37.0.0.0 Mobile MQQBrowser/6.8 TBS/036849 Safari/537.36 MicroMessenger/6.3.27.880 NetType/WIFI Language/zh_CN'
p1132
sg16
S'f5afeeabb8f05e88384cefde7cfa6279'
p1133
sa(dp1134
g2
S'28497'
p1135
sg4
S'5355'
p1136
sg6
S'8e1afb072c40eb1656fe62c4a763a779'
p1137
sg8
S'xx715551d75bbd1ea8f4ac7683682745d7'
p1138
sg10
S'xx21ef2add7f5cbd50376b35ff47e55e00'
p1139
sg12
S'xx608a93bff15fdcbcb25561273d70bc99'
p1140
sg14
S'Mozilla/5.0 (Linux; Android 5.1.1; vivo Y51A Build/LMY47V) AppleWebKit/537.36 (KHTML, like Gecko) Version/4.0 Chrome/37.0.0.0 Mobile MQQBrowser/6.8 TBS/036849 Safari/537.36 MicroMessenger/6.3.27.880 NetType/WIFI Language/zh_CN'
p1141
sg16
S'f5afeeabb8f05e88384cefde7cfa6279'
p1142
sa(dp1143
g2
S'28497'
p1144
sg4
S'5403'
p1145
sg6
S'8e1afb072c40eb1656fe62c4a763a779'
p1146
sg8
S'xx715551d75bbd1ea8f4ac7683682745d7'
p1147
sg10
S'xx21ef2add7f5cbd50376b35ff47e55e00'
p1148
sg12
S'xx608a93bff15fdcbcb25561273d70bc99'
p1149
sg14
S'Mozilla/5.0 (Linux; Android 5.1.1; vivo Y51A Build/LMY47V) AppleWebKit/537.36 (KHTML, like Gecko) Version/4.0 Chrome/37.0.0.0 Mobile MQQBrowser/6.8 TBS/036849 Safari/537.36 MicroMessenger/6.3.27.880 NetType/WIFI Language/zh_CN'
p1150
sg16
S'f5afeeabb8f05e88384cefde7cfa6279'
p1151
sa(dp1152
g2
S'28497'
p1153
sg4
S'5467'
p1154
sg6
S'8e1afb072c40eb1656fe62c4a763a779'
p1155
sg8
S'xx715551d75bbd1ea8f4ac7683682745d7'
p1156
sg10
S'xx21ef2add7f5cbd50376b35ff47e55e00'
p1157
sg12
S'xx608a93bff15fdcbcb25561273d70bc99'
p1158
sg14
S'Mozilla/5.0 (Linux; Android 5.1.1; vivo Y51A Build/LMY47V) AppleWebKit/537.36 (KHTML, like Gecko) Version/4.0 Chrome/37.0.0.0 Mobile MQQBrowser/6.8 TBS/036849 Safari/537.36 MicroMessenger/6.3.27.880 NetType/WIFI Language/zh_CN'
p1159
sg16
S'f5afeeabb8f05e88384cefde7cfa6279'
p1160
sa(dp1161
g2
S'28497'
p1162
sg4
S'5497'
p1163
sg6
S'8e1afb072c40eb1656fe62c4a763a779'
p1164
sg8
S'xx715551d75bbd1ea8f4ac7683682745d7'
p1165
sg10
S'xx21ef2add7f5cbd50376b35ff47e55e00'
p1166
sg12
S'xx608a93bff15fdcbcb25561273d70bc99'
p1167
sg14
S'Mozilla/5.0 (Linux; Android 5.1.1; vivo Y51A Build/LMY47V) AppleWebKit/537.36 (KHTML, like Gecko) Version/4.0 Chrome/37.0.0.0 Mobile MQQBrowser/6.8 TBS/036849 Safari/537.36 MicroMessenger/6.3.27.880 NetType/WIFI Language/zh_CN'
p1168
sg16
S'f5afeeabb8f05e88384cefde7cfa6279'
p1169
sa(dp1170
g2
S'28497'
p1171
sg4
S'5574'
p1172
sg6
S'8e1afb072c40eb1656fe62c4a763a779'
p1173
sg8
S'xx715551d75bbd1ea8f4ac7683682745d7'
p1174
sg10
S'xx21ef2add7f5cbd50376b35ff47e55e00'
p1175
sg12
S'xx608a93bff15fdcbcb25561273d70bc99'
p1176
sg14
S'Mozilla/5.0 (Linux; Android 5.1.1; vivo Y51A Build/LMY47V) AppleWebKit/537.36 (KHTML, like Gecko) Version/4.0 Chrome/37.0.0.0 Mobile MQQBrowser/6.8 TBS/036849 Safari/537.36 MicroMessenger/6.3.27.880 NetType/WIFI Language/zh_CN'
p1177
sg16
S'f5afeeabb8f05e88384cefde7cfa6279'
p1178
sa(dp1179
g2
S'28497'
p1180
sg4
S'5620'
p1181
sg6
S'8e1afb072c40eb1656fe62c4a763a779'
p1182
sg8
S'xx715551d75bbd1ea8f4ac7683682745d7'
p1183
sg10
S'xx21ef2add7f5cbd50376b35ff47e55e00'
p1184
sg12
S'xx608a93bff15fdcbcb25561273d70bc99'
p1185
sg14
S'Mozilla/5.0 (Linux; Android 5.1.1; vivo Y51A Build/LMY47V) AppleWebKit/537.36 (KHTML, like Gecko) Version/4.0 Chrome/37.0.0.0 Mobile MQQBrowser/6.8 TBS/036849 Safari/537.36 MicroMessenger/6.3.27.880 NetType/WIFI Language/zh_CN'
p1186
sg16
S'f5afeeabb8f05e88384cefde7cfa6279'
p1187
sa(dp1188
g2
S'28497'
p1189
sg4
S'5700'
p1190
sg6
S'8e1afb072c40eb1656fe62c4a763a779'
p1191
sg8
S'xx715551d75bbd1ea8f4ac7683682745d7'
p1192
sg10
S'xx21ef2add7f5cbd50376b35ff47e55e00'
p1193
sg12
S'xx608a93bff15fdcbcb25561273d70bc99'
p1194
sg14
S'Mozilla/5.0 (Linux; Android 5.1.1; vivo Y51A Build/LMY47V) AppleWebKit/537.36 (KHTML, like Gecko) Version/4.0 Chrome/37.0.0.0 Mobile MQQBrowser/6.8 TBS/036849 Safari/537.36 MicroMessenger/6.3.27.880 NetType/WIFI Language/zh_CN'
p1195
sg16
S'f5afeeabb8f05e88384cefde7cfa6279'
p1196
sa(dp1197
g2
S'28497'
p1198
sg4
S'5820'
p1199
sg6
S'8e1afb072c40eb1656fe62c4a763a779'
p1200
sg8
S'xx715551d75bbd1ea8f4ac7683682745d7'
p1201
sg10
S'xx21ef2add7f5cbd50376b35ff47e55e00'
p1202
sg12
S'xx608a93bff15fdcbcb25561273d70bc99'
p1203
sg14
S'Mozilla/5.0 (Linux; Android 5.1.1; vivo Y51A Build/LMY47V) AppleWebKit/537.36 (KHTML, like Gecko) Version/4.0 Chrome/37.0.0.0 Mobile MQQBrowser/6.8 TBS/036849 Safari/537.36 MicroMessenger/6.3.27.880 NetType/WIFI Language/zh_CN'
p1204
sg16
S'f5afeeabb8f05e88384cefde7cfa6279'
p1205
sa(dp1206
g2
S'28497'
p1207
sg4
S'5924'
p1208
sg6
S'8e1afb072c40eb1656fe62c4a763a779'
p1209
sg8
S'xx715551d75bbd1ea8f4ac7683682745d7'
p1210
sg10
S'xx21ef2add7f5cbd50376b35ff47e55e00'
p1211
sg12
S'xx608a93bff15fdcbcb25561273d70bc99'
p1212
sg14
S'Mozilla/5.0 (Linux; Android 5.1.1; vivo Y51A Build/LMY47V) AppleWebKit/537.36 (KHTML, like Gecko) Version/4.0 Chrome/37.0.0.0 Mobile MQQBrowser/6.8 TBS/036849 Safari/537.36 MicroMessenger/6.3.27.880 NetType/WIFI Language/zh_CN'
p1213
sg16
S'f5afeeabb8f05e88384cefde7cfa6279'
p1214
sa(dp1215
g2
S'28497'
p1216
sg4
S'5984'
p1217
sg6
S'8e1afb072c40eb1656fe62c4a763a779'
p1218
sg8
S'xx715551d75bbd1ea8f4ac7683682745d7'
p1219
sg10
S'xx21ef2add7f5cbd50376b35ff47e55e00'
p1220
sg12
S'xx608a93bff15fdcbcb25561273d70bc99'
p1221
sg14
S'Mozilla/5.0 (Linux; Android 5.1.1; vivo Y51A Build/LMY47V) AppleWebKit/537.36 (KHTML, like Gecko) Version/4.0 Chrome/37.0.0.0 Mobile MQQBrowser/6.8 TBS/036849 Safari/537.36 MicroMessenger/6.3.27.880 NetType/WIFI Language/zh_CN'
p1222
sg16
S'f5afeeabb8f05e88384cefde7cfa6279'
p1223
sa(dp1224
g2
S'28497'
p1225
sg4
S'6071'
p1226
sg6
S'8e1afb072c40eb1656fe62c4a763a779'
p1227
sg8
S'xx715551d75bbd1ea8f4ac7683682745d7'
p1228
sg10
S'xx21ef2add7f5cbd50376b35ff47e55e00'
p1229
sg12
S'xx608a93bff15fdcbcb25561273d70bc99'
p1230
sg14
S'Mozilla/5.0 (Linux; Android 5.1.1; vivo Y51A Build/LMY47V) AppleWebKit/537.36 (KHTML, like Gecko) Version/4.0 Chrome/37.0.0.0 Mobile MQQBrowser/6.8 TBS/036849 Safari/537.36 MicroMessenger/6.3.27.880 NetType/WIFI Language/zh_CN'
p1231
sg16
S'f5afeeabb8f05e88384cefde7cfa6279'
p1232
sa.