(lp0
(dp1
S'user_id'
p2
S'36464'
p3
sS'data_id'
p4
S'137'
p5
sS'ip'
p6
S'e841e854ac4344daf1372f538c820ba7'
p7
sS'phone_B'
p8
S'xx4c1fdc0b76ecb505523d95648d872823'
p9
sS'phone_C'
p10
S'xx1bb74078365fe572c29a0d81127263cc'
p11
sS'phone_A'
p12
S'xx6714af1edba96583b469c48194f1a89f'
p13
sS'user_agent'
p14
S'Mozilla/5.0 (Linux; Android 5.1; V3 Build/LMY47D) AppleWebKit/537.36 (KHTML, like Gecko) Version/4.0 Chrome/37.0.0.0 Mobile MQQBrowser/6.8 TBS/036849 Safari/537.36 MicroMessenger/6.3.25.861 NetType/WIFI Language/zh_CN'
p15
sS'ua'
p16
S'f319eec7f9ba158d102134e3a009cf6f'
p17
sa(dp18
g2
S'36464'
p19
sg4
S'151'
p20
sg6
S'e841e854ac4344daf1372f538c820ba7'
p21
sg8
S'xx4c1fdc0b76ecb505523d95648d872823'
p22
sg10
S'xx1bb74078365fe572c29a0d81127263cc'
p23
sg12
S'xx6714af1edba96583b469c48194f1a89f'
p24
sg14
S'Mozilla/5.0 (Linux; Android 5.1; V3 Build/LMY47D) AppleWebKit/537.36 (KHTML, like Gecko) Version/4.0 Chrome/37.0.0.0 Mobile MQQBrowser/6.8 TBS/036849 Safari/537.36 MicroMessenger/6.3.25.861 NetType/WIFI Language/zh_CN'
p25
sg16
S'f319eec7f9ba158d102134e3a009cf6f'
p26
sa.