(lp0
(dp1
S'user_id'
p2
S'32093'
p3
sS'data_id'
p4
S'1217'
p5
sS'ip'
p6
S'86c8e95acef18d7dda721ed41c20d7f2'
p7
sS'phone_B'
p8
S'xx49939ba0b01c5c739a01494d148296ac'
p9
sS'phone_C'
p10
S'xxdbf94ccae2856247b57669df9afdc12f'
p11
sS'phone_A'
p12
S'xx676bd6d9e42c989417cc7dcb55f57267'
p13
sS'user_agent'
p14
S'Mozilla/5.0 (Linux; Android 5.1; M571C Build/LMY47D) AppleWebKit/537.36 (KHTML, like Gecko) Version/4.0 Chrome/37.0.0.0 Mobile MQQBrowser/6.8 TBS/036849 Safari/537.36 MicroMessenger/6.3.27.880 NetType/ctlte Language/zh_CN'
p15
sS'ua'
p16
S'2c9d26db32bf30f8db63f83045074e4a'
p17
sa(dp18
g2
S'32093'
p19
sg4
S'1233'
p20
sg6
S'86c8e95acef18d7dda721ed41c20d7f2'
p21
sg8
S'xx49939ba0b01c5c739a01494d148296ac'
p22
sg10
S'xxdbf94ccae2856247b57669df9afdc12f'
p23
sg12
S'xx676bd6d9e42c989417cc7dcb55f57267'
p24
sg14
S'Mozilla/5.0 (Linux; Android 5.1; M571C Build/LMY47D) AppleWebKit/537.36 (KHTML, like Gecko) Version/4.0 Chrome/37.0.0.0 Mobile MQQBrowser/6.8 TBS/036849 Safari/537.36 MicroMessenger/6.3.27.880 NetType/ctlte Language/zh_CN'
p25
sg16
S'2c9d26db32bf30f8db63f83045074e4a'
p26
sa.