(lp0
(dp1
S'user_id'
p2
S'25860'
p3
sS'data_id'
p4
S'171'
p5
sS'ip'
p6
S'fff0f9c3c91c0d54dddb8398eef86169'
p7
sS'phone_B'
p8
S'xx25445e9f5ed870b3d7d633b8e6651b01'
p9
sS'phone_C'
p10
S'xx2adf3e3470a5aea8372c77808537a599'
p11
sS'phone_A'
p12
S'xx6802b2044cf104938c79d172b67ef12b'
p13
sS'user_agent'
p14
S'Mozilla/5.0 (Linux; Android 6.0.1; MI 4LTE Build/MMB29M) AppleWebKit/537.36 (KHTML, like Gecko) Version/4.0 Chrome/37.0.0.0 Mobile MQQBrowser/6.8 TBS/036849 Safari/537.36 MicroMessenger/6.3.27.880 NetType/cmnet Language/zh_CN'
p15
sS'ua'
p16
S'09dd93f5b1142768f0a77c22d4ce180f'
p17
sa(dp18
g2
S'25860'
p19
sg4
S'185'
p20
sg6
S'fff0f9c3c91c0d54dddb8398eef86169'
p21
sg8
S'xx25445e9f5ed870b3d7d633b8e6651b01'
p22
sg10
S'xx2adf3e3470a5aea8372c77808537a599'
p23
sg12
S'xx6802b2044cf104938c79d172b67ef12b'
p24
sg14
S'Mozilla/5.0 (Linux; Android 6.0.1; MI 4LTE Build/MMB29M) AppleWebKit/537.36 (KHTML, like Gecko) Version/4.0 Chrome/37.0.0.0 Mobile MQQBrowser/6.8 TBS/036849 Safari/537.36 MicroMessenger/6.3.27.880 NetType/cmnet Language/zh_CN'
p25
sg16
S'09dd93f5b1142768f0a77c22d4ce180f'
p26
sa(dp27
g2
S'40040'
p28
sg4
S'452'
p29
sg6
S'fff0f9c3c91c0d54dddb8398eef86169'
p30
sg8
S'xx25445e9f5ed870b3d7d633b8e6651b01'
p31
sg10
S'xx2adf3e3470a5aea8372c77808537a599'
p32
sg12
S'xx6802b2044cf104938c79d172b67ef12b'
p33
sg14
S'Mozilla/5.0 (Linux; Android 6.0.1; MI 4LTE Build/MMB29M) AppleWebKit/537.36 (KHTML, like Gecko) Version/4.0 Chrome/37.0.0.0 Mobile MQQBrowser/6.8 TBS/036849 Safari/537.36 MicroMessenger/6.3.27.880 NetType/cmnet Language/zh_CN'
p34
sg16
S'09dd93f5b1142768f0a77c22d4ce180f'
p35
sa(dp36
g2
S'40040'
p37
sg4
S'459'
p38
sg6
S'fff0f9c3c91c0d54dddb8398eef86169'
p39
sg8
S'xx25445e9f5ed870b3d7d633b8e6651b01'
p40
sg10
S'xx2adf3e3470a5aea8372c77808537a599'
p41
sg12
S'xx6802b2044cf104938c79d172b67ef12b'
p42
sg14
S'Mozilla/5.0 (Linux; Android 6.0.1; MI 4LTE Build/MMB29M) AppleWebKit/537.36 (KHTML, like Gecko) Version/4.0 Chrome/37.0.0.0 Mobile MQQBrowser/6.8 TBS/036849 Safari/537.36 MicroMessenger/6.3.27.880 NetType/cmnet Language/zh_CN'
p43
sg16
S'09dd93f5b1142768f0a77c22d4ce180f'
p44
sa(dp45
g2
S'40040'
p46
sg4
S'466'
p47
sg6
S'fff0f9c3c91c0d54dddb8398eef86169'
p48
sg8
S'xx25445e9f5ed870b3d7d633b8e6651b01'
p49
sg10
S'xx2adf3e3470a5aea8372c77808537a599'
p50
sg12
S'xx6802b2044cf104938c79d172b67ef12b'
p51
sg14
S'Mozilla/5.0 (Linux; Android 6.0.1; MI 4LTE Build/MMB29M) AppleWebKit/537.36 (KHTML, like Gecko) Version/4.0 Chrome/37.0.0.0 Mobile MQQBrowser/6.8 TBS/036849 Safari/537.36 MicroMessenger/6.3.27.880 NetType/cmnet Language/zh_CN'
p52
sg16
S'09dd93f5b1142768f0a77c22d4ce180f'
p53
sa(dp54
g2
S'40040'
p55
sg4
S'804'
p56
sg6
S'fff0f9c3c91c0d54dddb8398eef86169'
p57
sg8
S'xx25445e9f5ed870b3d7d633b8e6651b01'
p58
sg10
S'xx2adf3e3470a5aea8372c77808537a599'
p59
sg12
S'xx6802b2044cf104938c79d172b67ef12b'
p60
sg14
S'Mozilla/5.0 (Linux; Android 6.0.1; MI 4LTE Build/MMB29M) AppleWebKit/537.36 (KHTML, like Gecko) Version/4.0 Chrome/37.0.0.0 Mobile MQQBrowser/6.8 TBS/036849 Safari/537.36 MicroMessenger/6.3.27.880 NetType/cmnet Language/zh_CN'
p61
sg16
S'09dd93f5b1142768f0a77c22d4ce180f'
p62
sa(dp63
g2
S'25860'
p64
sg4
S'953'
p65
sg6
S'fff0f9c3c91c0d54dddb8398eef86169'
p66
sg8
S'xx25445e9f5ed870b3d7d633b8e6651b01'
p67
sg10
S'xx2adf3e3470a5aea8372c77808537a599'
p68
sg12
S'xx6802b2044cf104938c79d172b67ef12b'
p69
sg14
S'Mozilla/5.0 (Linux; Android 6.0.1; MI 4LTE Build/MMB29M) AppleWebKit/537.36 (KHTML, like Gecko) Version/4.0 Chrome/37.0.0.0 Mobile MQQBrowser/6.8 TBS/036849 Safari/537.36 MicroMessenger/6.3.27.880 NetType/cmnet Language/zh_CN'
p70
sg16
S'09dd93f5b1142768f0a77c22d4ce180f'
p71
sa(dp72
g2
S'25860'
p73
sg4
S'970'
p74
sg6
S'fff0f9c3c91c0d54dddb8398eef86169'
p75
sg8
S'xx25445e9f5ed870b3d7d633b8e6651b01'
p76
sg10
S'xx2adf3e3470a5aea8372c77808537a599'
p77
sg12
S'xx6802b2044cf104938c79d172b67ef12b'
p78
sg14
S'Mozilla/5.0 (Linux; Android 6.0.1; MI 4LTE Build/MMB29M) AppleWebKit/537.36 (KHTML, like Gecko) Version/4.0 Chrome/37.0.0.0 Mobile MQQBrowser/6.8 TBS/036849 Safari/537.36 MicroMessenger/6.3.27.880 NetType/cmnet Language/zh_CN'
p79
sg16
S'09dd93f5b1142768f0a77c22d4ce180f'
p80
sa(dp81
g2
S'25860'
p82
sg4
S'987'
p83
sg6
S'fff0f9c3c91c0d54dddb8398eef86169'
p84
sg8
S'xx25445e9f5ed870b3d7d633b8e6651b01'
p85
sg10
S'xx2adf3e3470a5aea8372c77808537a599'
p86
sg12
S'xx6802b2044cf104938c79d172b67ef12b'
p87
sg14
S'Mozilla/5.0 (Linux; Android 6.0.1; MI 4LTE Build/MMB29M) AppleWebKit/537.36 (KHTML, like Gecko) Version/4.0 Chrome/37.0.0.0 Mobile MQQBrowser/6.8 TBS/036849 Safari/537.36 MicroMessenger/6.3.27.880 NetType/cmnet Language/zh_CN'
p88
sg16
S'09dd93f5b1142768f0a77c22d4ce180f'
p89
sa(dp90
g2
S'25860'
p91
sg4
S'1535'
p92
sg6
S'fff0f9c3c91c0d54dddb8398eef86169'
p93
sg8
S'xx25445e9f5ed870b3d7d633b8e6651b01'
p94
sg10
S'xx2adf3e3470a5aea8372c77808537a599'
p95
sg12
S'xx6802b2044cf104938c79d172b67ef12b'
p96
sg14
S'Mozilla/5.0 (Linux; Android 6.0.1; MI 4LTE Build/MMB29M) AppleWebKit/537.36 (KHTML, like Gecko) Version/4.0 Chrome/37.0.0.0 Mobile MQQBrowser/6.8 TBS/036849 Safari/537.36 MicroMessenger/6.3.27.880 NetType/cmnet Language/zh_CN'
p97
sg16
S'09dd93f5b1142768f0a77c22d4ce180f'
p98
sa(dp99
g2
S'25860'
p100
sg4
S'1550'
p101
sg6
S'fff0f9c3c91c0d54dddb8398eef86169'
p102
sg8
S'xx25445e9f5ed870b3d7d633b8e6651b01'
p103
sg10
S'xx2adf3e3470a5aea8372c77808537a599'
p104
sg12
S'xx6802b2044cf104938c79d172b67ef12b'
p105
sg14
S'Mozilla/5.0 (Linux; Android 6.0.1; MI 4LTE Build/MMB29M) AppleWebKit/537.36 (KHTML, like Gecko) Version/4.0 Chrome/37.0.0.0 Mobile MQQBrowser/6.8 TBS/036849 Safari/537.36 MicroMessenger/6.3.27.880 NetType/cmnet Language/zh_CN'
p106
sg16
S'09dd93f5b1142768f0a77c22d4ce180f'
p107
sa(dp108
g2
S'40040'
p109
sg4
S'1669'
p110
sg6
S'fff0f9c3c91c0d54dddb8398eef86169'
p111
sg8
S'xx25445e9f5ed870b3d7d633b8e6651b01'
p112
sg10
S'xx2adf3e3470a5aea8372c77808537a599'
p113
sg12
S'xx6802b2044cf104938c79d172b67ef12b'
p114
sg14
S'Mozilla/5.0 (Linux; Android 6.0.1; MI 4LTE Build/MMB29M) AppleWebKit/537.36 (KHTML, like Gecko) Version/4.0 Chrome/37.0.0.0 Mobile MQQBrowser/6.8 TBS/036849 Safari/537.36 MicroMessenger/6.3.27.880 NetType/cmnet Language/zh_CN'
p115
sg16
S'09dd93f5b1142768f0a77c22d4ce180f'
p116
sa(dp117
g2
S'40040'
p118
sg4
S'1684'
p119
sg6
S'fff0f9c3c91c0d54dddb8398eef86169'
p120
sg8
S'xx25445e9f5ed870b3d7d633b8e6651b01'
p121
sg10
S'xx2adf3e3470a5aea8372c77808537a599'
p122
sg12
S'xx6802b2044cf104938c79d172b67ef12b'
p123
sg14
S'Mozilla/5.0 (Linux; Android 6.0.1; MI 4LTE Build/MMB29M) AppleWebKit/537.36 (KHTML, like Gecko) Version/4.0 Chrome/37.0.0.0 Mobile MQQBrowser/6.8 TBS/036849 Safari/537.36 MicroMessenger/6.3.27.880 NetType/cmnet Language/zh_CN'
p124
sg16
S'09dd93f5b1142768f0a77c22d4ce180f'
p125
sa(dp126
g2
S'21684'
p127
sg4
S'2727'
p128
sg6
S'0861e34ee85520c5055f8ddaaeb1533a'
p129
sg8
S'xx25445e9f5ed870b3d7d633b8e6651b01'
p130
sg10
S'xx2adf3e3470a5aea8372c77808537a599'
p131
sg12
S'xx6802b2044cf104938c79d172b67ef12b'
p132
sg14
S'Mozilla/5.0 (Linux; Android 6.0.1; MI 4LTE Build/MMB29M) AppleWebKit/537.36 (KHTML, like Gecko) Version/4.0 Chrome/37.0.0.0 Mobile MQQBrowser/6.8 TBS/036849 Safari/537.36 MicroMessenger/6.3.27.880 NetType/cmnet Language/zh_CN'
p133
sg16
S'09dd93f5b1142768f0a77c22d4ce180f'
p134
sa(dp135
g2
S'21684'
p136
sg4
S'2744'
p137
sg6
S'0861e34ee85520c5055f8ddaaeb1533a'
p138
sg8
S'xx25445e9f5ed870b3d7d633b8e6651b01'
p139
sg10
S'xx2adf3e3470a5aea8372c77808537a599'
p140
sg12
S'xx6802b2044cf104938c79d172b67ef12b'
p141
sg14
S'Mozilla/5.0 (Linux; Android 6.0.1; MI 4LTE Build/MMB29M) AppleWebKit/537.36 (KHTML, like Gecko) Version/4.0 Chrome/37.0.0.0 Mobile MQQBrowser/6.8 TBS/036849 Safari/537.36 MicroMessenger/6.3.27.880 NetType/cmnet Language/zh_CN'
p142
sg16
S'09dd93f5b1142768f0a77c22d4ce180f'
p143
sa(dp144
g2
S'4467'
p145
sg4
S'4040'
p146
sg6
S'd0043c7fcf1c9edc8c6d978743676b56'
p147
sg8
S'xxb7b21a9016f2e502eb68cdea4eb681b8'
p148
sg10
S'xx3ce7ff13eb470676c2ea32effbfd4a77'
p149
sg12
S'xx6802b2044cf104938c79d172b67ef12b'
p150
sg14
S'Mozilla/5.0 (Linux; Android 6.0.1; MI 4LTE Build/MMB29M) AppleWebKit/537.36 (KHTML, like Gecko) Version/4.0 Chrome/37.0.0.0 Mobile MQQBrowser/6.8 TBS/036869 Safari/537.36 MicroMessenger/6.3.27.880 NetType/WIFI Language/zh_CN'
p151
sg16
S'34bda778fb95066b2421201bd1f4209e'
p152
sa(dp153
g2
S'4467'
p154
sg4
S'4061'
p155
sg6
S'd0043c7fcf1c9edc8c6d978743676b56'
p156
sg8
S'xxb7b21a9016f2e502eb68cdea4eb681b8'
p157
sg10
S'xx3ce7ff13eb470676c2ea32effbfd4a77'
p158
sg12
S'xx6802b2044cf104938c79d172b67ef12b'
p159
sg14
S'Mozilla/5.0 (Linux; Android 6.0.1; MI 4LTE Build/MMB29M) AppleWebKit/537.36 (KHTML, like Gecko) Version/4.0 Chrome/37.0.0.0 Mobile MQQBrowser/6.8 TBS/036869 Safari/537.36 MicroMessenger/6.3.27.880 NetType/WIFI Language/zh_CN'
p160
sg16
S'34bda778fb95066b2421201bd1f4209e'
p161
sa(dp162
g2
S'4467'
p163
sg4
S'4099'
p164
sg6
S'd0043c7fcf1c9edc8c6d978743676b56'
p165
sg8
S'xxb7b21a9016f2e502eb68cdea4eb681b8'
p166
sg10
S'xx3ce7ff13eb470676c2ea32effbfd4a77'
p167
sg12
S'xx6802b2044cf104938c79d172b67ef12b'
p168
sg14
S'Mozilla/5.0 (Linux; Android 6.0.1; MI 4LTE Build/MMB29M) AppleWebKit/537.36 (KHTML, like Gecko) Version/4.0 Chrome/37.0.0.0 Mobile MQQBrowser/6.8 TBS/036869 Safari/537.36 MicroMessenger/6.3.27.880 NetType/WIFI Language/zh_CN'
p169
sg16
S'34bda778fb95066b2421201bd1f4209e'
p170
sa(dp171
g2
S'4467'
p172
sg4
S'4124'
p173
sg6
S'd0043c7fcf1c9edc8c6d978743676b56'
p174
sg8
S'xxb7b21a9016f2e502eb68cdea4eb681b8'
p175
sg10
S'xx3ce7ff13eb470676c2ea32effbfd4a77'
p176
sg12
S'xx6802b2044cf104938c79d172b67ef12b'
p177
sg14
S'Mozilla/5.0 (Linux; Android 6.0.1; MI 4LTE Build/MMB29M) AppleWebKit/537.36 (KHTML, like Gecko) Version/4.0 Chrome/37.0.0.0 Mobile MQQBrowser/6.8 TBS/036869 Safari/537.36 MicroMessenger/6.3.27.880 NetType/WIFI Language/zh_CN'
p178
sg16
S'34bda778fb95066b2421201bd1f4209e'
p179
sa(dp180
g2
S'4467'
p181
sg4
S'4146'
p182
sg6
S'd0043c7fcf1c9edc8c6d978743676b56'
p183
sg8
S'xxb7b21a9016f2e502eb68cdea4eb681b8'
p184
sg10
S'xx3ce7ff13eb470676c2ea32effbfd4a77'
p185
sg12
S'xx6802b2044cf104938c79d172b67ef12b'
p186
sg14
S'Mozilla/5.0 (Linux; Android 6.0.1; MI 4LTE Build/MMB29M) AppleWebKit/537.36 (KHTML, like Gecko) Version/4.0 Chrome/37.0.0.0 Mobile MQQBrowser/6.8 TBS/036869 Safari/537.36 MicroMessenger/6.3.27.880 NetType/WIFI Language/zh_CN'
p187
sg16
S'34bda778fb95066b2421201bd1f4209e'
p188
sa(dp189
g2
S'4467'
p190
sg4
S'4421'
p191
sg6
S'd0043c7fcf1c9edc8c6d978743676b56'
p192
sg8
S'xxb7b21a9016f2e502eb68cdea4eb681b8'
p193
sg10
S'xx3ce7ff13eb470676c2ea32effbfd4a77'
p194
sg12
S'xx6802b2044cf104938c79d172b67ef12b'
p195
sg14
S'Mozilla/5.0 (Linux; Android 6.0.1; MI 4LTE Build/MMB29M) AppleWebKit/537.36 (KHTML, like Gecko) Version/4.0 Chrome/37.0.0.0 Mobile MQQBrowser/6.8 TBS/036869 Safari/537.36 MicroMessenger/6.3.27.880 NetType/WIFI Language/zh_CN'
p196
sg16
S'34bda778fb95066b2421201bd1f4209e'
p197
sa(dp198
g2
S'47088'
p199
sg4
S'8338'
p200
sg6
S'e29483f5d48909ce7997109bb3c0c935'
p201
sg8
S'xxbda6f5891b955ae93028b0e23451c364'
p202
sg10
S'xx2adf3e3470a5aea8372c77808537a599'
p203
sg12
S'xx6802b2044cf104938c79d172b67ef12b'
p204
sg14
S'Mozilla/5.0 (Linux; Android 6.0.1; MI 4LTE Build/MMB29M) AppleWebKit/537.36 (KHTML, like Gecko) Version/4.0 Chrome/37.0.0.0 Mobile MQQBrowser/6.8 TBS/036849 Safari/537.36 MicroMessenger/6.3.27.880 NetType/WIFI Language/zh_CN'
p205
sg16
S'63b37a8fb6ad0738ab05a33c6c9be1cc'
p206
sa(dp207
g2
S'47088'
p208
sg4
S'8348'
p209
sg6
S'e29483f5d48909ce7997109bb3c0c935'
p210
sg8
S'xxbda6f5891b955ae93028b0e23451c364'
p211
sg10
S'xx2adf3e3470a5aea8372c77808537a599'
p212
sg12
S'xx6802b2044cf104938c79d172b67ef12b'
p213
sg14
S'Mozilla/5.0 (Linux; Android 6.0.1; MI 4LTE Build/MMB29M) AppleWebKit/537.36 (KHTML, like Gecko) Version/4.0 Chrome/37.0.0.0 Mobile MQQBrowser/6.8 TBS/036849 Safari/537.36 MicroMessenger/6.3.27.880 NetType/WIFI Language/zh_CN'
p214
sg16
S'63b37a8fb6ad0738ab05a33c6c9be1cc'
p215
sa(dp216
g2
S'47088'
p217
sg4
S'8361'
p218
sg6
S'e29483f5d48909ce7997109bb3c0c935'
p219
sg8
S'xxbda6f5891b955ae93028b0e23451c364'
p220
sg10
S'xx2adf3e3470a5aea8372c77808537a599'
p221
sg12
S'xx6802b2044cf104938c79d172b67ef12b'
p222
sg14
S'Mozilla/5.0 (Linux; Android 6.0.1; MI 4LTE Build/MMB29M) AppleWebKit/537.36 (KHTML, like Gecko) Version/4.0 Chrome/37.0.0.0 Mobile MQQBrowser/6.8 TBS/036849 Safari/537.36 MicroMessenger/6.3.27.880 NetType/WIFI Language/zh_CN'
p223
sg16
S'63b37a8fb6ad0738ab05a33c6c9be1cc'
p224
sa(dp225
g2
S'47088'
p226
sg4
S'8377'
p227
sg6
S'e29483f5d48909ce7997109bb3c0c935'
p228
sg8
S'xxbda6f5891b955ae93028b0e23451c364'
p229
sg10
S'xx2adf3e3470a5aea8372c77808537a599'
p230
sg12
S'xx6802b2044cf104938c79d172b67ef12b'
p231
sg14
S'Mozilla/5.0 (Linux; Android 6.0.1; MI 4LTE Build/MMB29M) AppleWebKit/537.36 (KHTML, like Gecko) Version/4.0 Chrome/37.0.0.0 Mobile MQQBrowser/6.8 TBS/036849 Safari/537.36 MicroMessenger/6.3.27.880 NetType/WIFI Language/zh_CN'
p232
sg16
S'63b37a8fb6ad0738ab05a33c6c9be1cc'
p233
sa(dp234
g2
S'47088'
p235
sg4
S'8393'
p236
sg6
S'e29483f5d48909ce7997109bb3c0c935'
p237
sg8
S'xxbda6f5891b955ae93028b0e23451c364'
p238
sg10
S'xx2adf3e3470a5aea8372c77808537a599'
p239
sg12
S'xx6802b2044cf104938c79d172b67ef12b'
p240
sg14
S'Mozilla/5.0 (Linux; Android 6.0.1; MI 4LTE Build/MMB29M) AppleWebKit/537.36 (KHTML, like Gecko) Version/4.0 Chrome/37.0.0.0 Mobile MQQBrowser/6.8 TBS/036849 Safari/537.36 MicroMessenger/6.3.27.880 NetType/WIFI Language/zh_CN'
p241
sg16
S'63b37a8fb6ad0738ab05a33c6c9be1cc'
p242
sa(dp243
g2
S'47088'
p244
sg4
S'8425'
p245
sg6
S'e29483f5d48909ce7997109bb3c0c935'
p246
sg8
S'xxbda6f5891b955ae93028b0e23451c364'
p247
sg10
S'xx2adf3e3470a5aea8372c77808537a599'
p248
sg12
S'xx6802b2044cf104938c79d172b67ef12b'
p249
sg14
S'Mozilla/5.0 (Linux; Android 6.0.1; MI 4LTE Build/MMB29M) AppleWebKit/537.36 (KHTML, like Gecko) Version/4.0 Chrome/37.0.0.0 Mobile MQQBrowser/6.8 TBS/036849 Safari/537.36 MicroMessenger/6.3.27.880 NetType/WIFI Language/zh_CN'
p250
sg16
S'63b37a8fb6ad0738ab05a33c6c9be1cc'
p251
sa(dp252
g2
S'40040'
p253
sg4
S'8520'
p254
sg6
S'fff0f9c3c91c0d54dddb8398eef86169'
p255
sg8
S'xx25445e9f5ed870b3d7d633b8e6651b01'
p256
sg10
S'xx2adf3e3470a5aea8372c77808537a599'
p257
sg12
S'xx6802b2044cf104938c79d172b67ef12b'
p258
sg14
S'Mozilla/5.0 (Linux; Android 6.0.1; MI 4LTE Build/MMB29M) AppleWebKit/537.36 (KHTML, like Gecko) Version/4.0 Chrome/37.0.0.0 Mobile MQQBrowser/6.8 TBS/036849 Safari/537.36 MicroMessenger/6.3.27.880 NetType/cmnet Language/zh_CN'
p259
sg16
S'09dd93f5b1142768f0a77c22d4ce180f'
p260
sa(dp261
g2
S'40040'
p262
sg4
S'8533'
p263
sg6
S'fff0f9c3c91c0d54dddb8398eef86169'
p264
sg8
S'xx25445e9f5ed870b3d7d633b8e6651b01'
p265
sg10
S'xx2adf3e3470a5aea8372c77808537a599'
p266
sg12
S'xx6802b2044cf104938c79d172b67ef12b'
p267
sg14
S'Mozilla/5.0 (Linux; Android 6.0.1; MI 4LTE Build/MMB29M) AppleWebKit/537.36 (KHTML, like Gecko) Version/4.0 Chrome/37.0.0.0 Mobile MQQBrowser/6.8 TBS/036849 Safari/537.36 MicroMessenger/6.3.27.880 NetType/cmnet Language/zh_CN'
p268
sg16
S'09dd93f5b1142768f0a77c22d4ce180f'
p269
sa(dp270
g2
S'25860'
p271
sg4
S'8656'
p272
sg6
S'fff0f9c3c91c0d54dddb8398eef86169'
p273
sg8
S'xx25445e9f5ed870b3d7d633b8e6651b01'
p274
sg10
S'xx2adf3e3470a5aea8372c77808537a599'
p275
sg12
S'xx6802b2044cf104938c79d172b67ef12b'
p276
sg14
S'Mozilla/5.0 (Linux; Android 6.0.1; MI 4LTE Build/MMB29M) AppleWebKit/537.36 (KHTML, like Gecko) Version/4.0 Chrome/37.0.0.0 Mobile MQQBrowser/6.8 TBS/036849 Safari/537.36 MicroMessenger/6.3.27.880 NetType/cmnet Language/zh_CN'
p277
sg16
S'09dd93f5b1142768f0a77c22d4ce180f'
p278
sa(dp279
g2
S'25860'
p280
sg4
S'8675'
p281
sg6
S'fff0f9c3c91c0d54dddb8398eef86169'
p282
sg8
S'xx25445e9f5ed870b3d7d633b8e6651b01'
p283
sg10
S'xx2adf3e3470a5aea8372c77808537a599'
p284
sg12
S'xx6802b2044cf104938c79d172b67ef12b'
p285
sg14
S'Mozilla/5.0 (Linux; Android 6.0.1; MI 4LTE Build/MMB29M) AppleWebKit/537.36 (KHTML, like Gecko) Version/4.0 Chrome/37.0.0.0 Mobile MQQBrowser/6.8 TBS/036849 Safari/537.36 MicroMessenger/6.3.27.880 NetType/cmnet Language/zh_CN'
p286
sg16
S'09dd93f5b1142768f0a77c22d4ce180f'
p287
sa.