(lp0
(dp1
S'user_id'
p2
S'21614'
p3
sS'data_id'
p4
S'2442'
p5
sS'ip'
p6
S'03058ff25b1b7f26625c3e6dad07f9c3'
p7
sS'phone_B'
p8
S'xxb500c23963d9363eae18902963f6bd60'
p9
sS'phone_C'
p10
S'xx4006016f077807be1693755fe7f3cb22'
p11
sS'phone_A'
p12
S'xx68c0e99e20b7141e219b6f8f1d057da8'
p13
sS'user_agent'
p14
S'Mozilla/5.0 (Linux; Android 5.1; SM-J5008 Build/LMY47O) AppleWebKit/537.36 (KHTML, like Gecko) Version/4.0 Chrome/37.0.0.0 Mobile MQQBrowser/6.8 TBS/036849 Safari/537.36 MicroMessenger/6.3.25.861 NetType/WIFI Language/zh_CN'
p15
sS'ua'
p16
S'2c67e37b6d2b0db3d11d6a8e1be4e3c2'
p17
sa(dp18
g2
S'21614'
p19
sg4
S'2458'
p20
sg6
S'03058ff25b1b7f26625c3e6dad07f9c3'
p21
sg8
S'xxb500c23963d9363eae18902963f6bd60'
p22
sg10
S'xx4006016f077807be1693755fe7f3cb22'
p23
sg12
S'xx68c0e99e20b7141e219b6f8f1d057da8'
p24
sg14
S'Mozilla/5.0 (Linux; Android 5.1; SM-J5008 Build/LMY47O) AppleWebKit/537.36 (KHTML, like Gecko) Version/4.0 Chrome/37.0.0.0 Mobile MQQBrowser/6.8 TBS/036849 Safari/537.36 MicroMessenger/6.3.25.861 NetType/WIFI Language/zh_CN'
p25
sg16
S'2c67e37b6d2b0db3d11d6a8e1be4e3c2'
p26
sa(dp27
g2
S'21614'
p28
sg4
S'2745'
p29
sg6
S'03058ff25b1b7f26625c3e6dad07f9c3'
p30
sg8
S'xxb500c23963d9363eae18902963f6bd60'
p31
sg10
S'xx4006016f077807be1693755fe7f3cb22'
p32
sg12
S'xx68c0e99e20b7141e219b6f8f1d057da8'
p33
sg14
S'Mozilla/5.0 (Linux; Android 5.1; SM-J5008 Build/LMY47O) AppleWebKit/537.36 (KHTML, like Gecko) Version/4.0 Chrome/37.0.0.0 Mobile MQQBrowser/6.8 TBS/036849 Safari/537.36 MicroMessenger/6.3.25.861 NetType/WIFI Language/zh_CN'
p34
sg16
S'2c67e37b6d2b0db3d11d6a8e1be4e3c2'
p35
sa(dp36
g2
S'21614'
p37
sg4
S'3535'
p38
sg6
S'164c6243771f55af973d93918a3fad16'
p39
sg8
S'xxc54e733759913c5bf6be2c96f50633d3'
p40
sg10
S'xx4006016f077807be1693755fe7f3cb22'
p41
sg12
S'xx68c0e99e20b7141e219b6f8f1d057da8'
p42
sg14
S'Mozilla/5.0 (Linux; Android 5.1; SM-J5008 Build/LMY47O) AppleWebKit/537.36 (KHTML, like Gecko) Version/4.0 Chrome/37.0.0.0 Mobile MQQBrowser/6.8 TBS/036849 Safari/537.36 MicroMessenger/6.3.25.861 NetType/cmnet Language/zh_CN'
p43
sg16
S'd9e096c0f987b9589387e30def25a4c5'
p44
sa(dp45
g2
S'21614'
p46
sg4
S'3550'
p47
sg6
S'164c6243771f55af973d93918a3fad16'
p48
sg8
S'xxc54e733759913c5bf6be2c96f50633d3'
p49
sg10
S'xx4006016f077807be1693755fe7f3cb22'
p50
sg12
S'xx68c0e99e20b7141e219b6f8f1d057da8'
p51
sg14
S'Mozilla/5.0 (Linux; Android 5.1; SM-J5008 Build/LMY47O) AppleWebKit/537.36 (KHTML, like Gecko) Version/4.0 Chrome/37.0.0.0 Mobile MQQBrowser/6.8 TBS/036849 Safari/537.36 MicroMessenger/6.3.25.861 NetType/cmnet Language/zh_CN'
p52
sg16
S'd9e096c0f987b9589387e30def25a4c5'
p53
sa(dp54
g2
S'21614'
p55
sg4
S'5015'
p56
sg6
S'164c6243771f55af973d93918a3fad16'
p57
sg8
S'xxc54e733759913c5bf6be2c96f50633d3'
p58
sg10
S'xx4006016f077807be1693755fe7f3cb22'
p59
sg12
S'xx68c0e99e20b7141e219b6f8f1d057da8'
p60
sg14
S'Mozilla/5.0 (Linux; Android 5.1; SM-J5008 Build/LMY47O) AppleWebKit/537.36 (KHTML, like Gecko) Version/4.0 Chrome/37.0.0.0 Mobile MQQBrowser/6.8 TBS/036849 Safari/537.36 MicroMessenger/6.3.25.861 NetType/cmnet Language/zh_CN'
p61
sg16
S'd9e096c0f987b9589387e30def25a4c5'
p62
sa(dp63
g2
S'21614'
p64
sg4
S'5036'
p65
sg6
S'164c6243771f55af973d93918a3fad16'
p66
sg8
S'xxc54e733759913c5bf6be2c96f50633d3'
p67
sg10
S'xx4006016f077807be1693755fe7f3cb22'
p68
sg12
S'xx68c0e99e20b7141e219b6f8f1d057da8'
p69
sg14
S'Mozilla/5.0 (Linux; Android 5.1; SM-J5008 Build/LMY47O) AppleWebKit/537.36 (KHTML, like Gecko) Version/4.0 Chrome/37.0.0.0 Mobile MQQBrowser/6.8 TBS/036849 Safari/537.36 MicroMessenger/6.3.25.861 NetType/cmnet Language/zh_CN'
p70
sg16
S'd9e096c0f987b9589387e30def25a4c5'
p71
sa.