(lp0
(dp1
S'user_id'
p2
S'49808'
p3
sS'data_id'
p4
S'6077'
p5
sS'ip'
p6
S'a9178732a905478fe713174dc3bc2579'
p7
sS'phone_B'
p8
S'xxdef7420d1107fe831d547c7df605f646'
p9
sS'phone_C'
p10
S'xx82b314b6fc5bbfd9ceb7043404c0a6e0'
p11
sS'phone_A'
p12
S'xx6876f9a528b9a23a618003d28248181d'
p13
sS'user_agent'
p14
S'Mozilla/5.0 (Linux; Android 4.4.4; SM-G5308W Build/KTU84P) AppleWebKit/537.36 (KHTML, like Gecko) Version/4.0 Chrome/37.0.0.0 Mobile MQQBrowser/6.8 TBS/036865 Safari/537.36 MicroMessenger/6.3.27.880 NetType/WIFI Language/zh_CN'
p15
sS'ua'
p16
S'ca0b18bc702bbce73bf565babe9fcc42'
p17
sa.