(lp0
(dp1
S'user_id'
p2
S'30534'
p3
sS'data_id'
p4
S'7614'
p5
sS'ip'
p6
S'6b387e72cd73a7cffbebce68dd596ff7'
p7
sS'phone_B'
p8
S'xx93fcadd28088cb357fdbc6a98365c7ce'
p9
sS'phone_C'
p10
S'xx8f194e7b9c7190e70cabcf32ac59c81b'
p11
sS'phone_A'
p12
S'xx693bb40c80bf071d8adb1fc22ff8f1fd'
p13
sS'user_agent'
p14
S'Mozilla/5.0 (Linux; Android 4.4.4; LA2-S Build/KTU84P) AppleWebKit/537.36 (KHTML, like Gecko) Version/4.0 Chrome/37.0.0.0 Mobile MQQBrowser/6.8 TBS/036849 Safari/537.36 MicroMessenger/6.3.25.861 NetType/WIFI Language/zh_CN'
p15
sS'ua'
p16
S'792f0e0f9139e5a12e7c2f7850eb1e41'
p17
sa(dp18
g2
S'30534'
p19
sg4
S'7627'
p20
sg6
S'6b387e72cd73a7cffbebce68dd596ff7'
p21
sg8
S'xx93fcadd28088cb357fdbc6a98365c7ce'
p22
sg10
S'xx8f194e7b9c7190e70cabcf32ac59c81b'
p23
sg12
S'xx693bb40c80bf071d8adb1fc22ff8f1fd'
p24
sg14
S'Mozilla/5.0 (Linux; Android 4.4.4; LA2-S Build/KTU84P) AppleWebKit/537.36 (KHTML, like Gecko) Version/4.0 Chrome/37.0.0.0 Mobile MQQBrowser/6.8 TBS/036849 Safari/537.36 MicroMessenger/6.3.25.861 NetType/WIFI Language/zh_CN'
p25
sg16
S'792f0e0f9139e5a12e7c2f7850eb1e41'
p26
sa(dp27
g2
S'30534'
p28
sg4
S'7638'
p29
sg6
S'6b387e72cd73a7cffbebce68dd596ff7'
p30
sg8
S'xx93fcadd28088cb357fdbc6a98365c7ce'
p31
sg10
S'xx8f194e7b9c7190e70cabcf32ac59c81b'
p32
sg12
S'xx693bb40c80bf071d8adb1fc22ff8f1fd'
p33
sg14
S'Mozilla/5.0 (Linux; Android 4.4.4; LA2-S Build/KTU84P) AppleWebKit/537.36 (KHTML, like Gecko) Version/4.0 Chrome/37.0.0.0 Mobile MQQBrowser/6.8 TBS/036849 Safari/537.36 MicroMessenger/6.3.25.861 NetType/WIFI Language/zh_CN'
p34
sg16
S'792f0e0f9139e5a12e7c2f7850eb1e41'
p35
sa(dp36
g2
S'30392'
p37
sg4
S'8503'
p38
sg6
S'37ec7b91655b3c964292df15710fad2a'
p39
sg8
S'xxf1e03ea219d24e535b79ffecdc652cf1'
p40
sg10
S'xx8f194e7b9c7190e70cabcf32ac59c81b'
p41
sg12
S'xx693bb40c80bf071d8adb1fc22ff8f1fd'
p42
sg14
S'Mozilla/5.0 (Linux; Android 4.4.4; LA2-S Build/KTU84P) AppleWebKit/537.36 (KHTML, like Gecko) Version/4.0 Chrome/37.0.0.0 Mobile MQQBrowser/6.8 TBS/036824 Safari/537.36 MicroMessenger/6.3.27.880 NetType/WIFI Language/zh_CN'
p43
sg16
S'65ea865965b45b594c4057943a5484d7'
p44
sa(dp45
g2
S'30392'
p46
sg4
S'8514'
p47
sg6
S'37ec7b91655b3c964292df15710fad2a'
p48
sg8
S'xxf1e03ea219d24e535b79ffecdc652cf1'
p49
sg10
S'xx8f194e7b9c7190e70cabcf32ac59c81b'
p50
sg12
S'xx693bb40c80bf071d8adb1fc22ff8f1fd'
p51
sg14
S'Mozilla/5.0 (Linux; Android 4.4.4; LA2-S Build/KTU84P) AppleWebKit/537.36 (KHTML, like Gecko) Version/4.0 Chrome/37.0.0.0 Mobile MQQBrowser/6.8 TBS/036824 Safari/537.36 MicroMessenger/6.3.27.880 NetType/WIFI Language/zh_CN'
p52
sg16
S'65ea865965b45b594c4057943a5484d7'
p53
sa(dp54
g2
S'30392'
p55
sg4
S'8524'
p56
sg6
S'37ec7b91655b3c964292df15710fad2a'
p57
sg8
S'xxf1e03ea219d24e535b79ffecdc652cf1'
p58
sg10
S'xx8f194e7b9c7190e70cabcf32ac59c81b'
p59
sg12
S'xx693bb40c80bf071d8adb1fc22ff8f1fd'
p60
sg14
S'Mozilla/5.0 (Linux; Android 4.4.4; LA2-S Build/KTU84P) AppleWebKit/537.36 (KHTML, like Gecko) Version/4.0 Chrome/37.0.0.0 Mobile MQQBrowser/6.8 TBS/036824 Safari/537.36 MicroMessenger/6.3.27.880 NetType/WIFI Language/zh_CN'
p61
sg16
S'65ea865965b45b594c4057943a5484d7'
p62
sa(dp63
g2
S'30392'
p64
sg4
S'8535'
p65
sg6
S'37ec7b91655b3c964292df15710fad2a'
p66
sg8
S'xxf1e03ea219d24e535b79ffecdc652cf1'
p67
sg10
S'xx8f194e7b9c7190e70cabcf32ac59c81b'
p68
sg12
S'xx693bb40c80bf071d8adb1fc22ff8f1fd'
p69
sg14
S'Mozilla/5.0 (Linux; Android 4.4.4; LA2-S Build/KTU84P) AppleWebKit/537.36 (KHTML, like Gecko) Version/4.0 Chrome/37.0.0.0 Mobile MQQBrowser/6.8 TBS/036824 Safari/537.36 MicroMessenger/6.3.27.880 NetType/WIFI Language/zh_CN'
p70
sg16
S'65ea865965b45b594c4057943a5484d7'
p71
sa(dp72
g2
S'30392'
p73
sg4
S'8550'
p74
sg6
S'37ec7b91655b3c964292df15710fad2a'
p75
sg8
S'xxf1e03ea219d24e535b79ffecdc652cf1'
p76
sg10
S'xx8f194e7b9c7190e70cabcf32ac59c81b'
p77
sg12
S'xx693bb40c80bf071d8adb1fc22ff8f1fd'
p78
sg14
S'Mozilla/5.0 (Linux; Android 4.4.4; LA2-S Build/KTU84P) AppleWebKit/537.36 (KHTML, like Gecko) Version/4.0 Chrome/37.0.0.0 Mobile MQQBrowser/6.8 TBS/036824 Safari/537.36 MicroMessenger/6.3.27.880 NetType/WIFI Language/zh_CN'
p79
sg16
S'65ea865965b45b594c4057943a5484d7'
p80
sa.