(lp0
(dp1
S'user_id'
p2
S'36580'
p3
sS'data_id'
p4
S'4877'
p5
sS'ip'
p6
S'd4e6a8b568406ecfd7f027035439e233'
p7
sS'phone_B'
p8
S'xx69b6108baadffc25db33a361213601c6'
p9
sS'phone_C'
p10
S'xxc7b2fece2e10c769b8b065ad8e0d18a7'
p11
sS'phone_A'
p12
S'xx6a6c72cfa46e8b0db8270b8f1fc936d0'
p13
sS'user_agent'
p14
S'Mozilla/5.0 (Linux; Android 5.1; m1 metal Build/LMY47I) AppleWebKit/537.36 (KHTML, like Gecko) Version/4.0 Chrome/37.0.0.0 Mobile MQQBrowser/6.8 TBS/036869 Safari/537.36 MicroMessenger/6.3.27.880 NetType/cmnet Language/zh_CN'
p15
sS'ua'
p16
S'c0c05ee8bfd98b1ab098057d0aa4f28b'
p17
sa(dp18
g2
S'36580'
p19
sg4
S'4895'
p20
sg6
S'd4e6a8b568406ecfd7f027035439e233'
p21
sg8
S'xx69b6108baadffc25db33a361213601c6'
p22
sg10
S'xxc7b2fece2e10c769b8b065ad8e0d18a7'
p23
sg12
S'xx6a6c72cfa46e8b0db8270b8f1fc936d0'
p24
sg14
S'Mozilla/5.0 (Linux; Android 5.1; m1 metal Build/LMY47I) AppleWebKit/537.36 (KHTML, like Gecko) Version/4.0 Chrome/37.0.0.0 Mobile MQQBrowser/6.8 TBS/036869 Safari/537.36 MicroMessenger/6.3.27.880 NetType/cmnet Language/zh_CN'
p25
sg16
S'c0c05ee8bfd98b1ab098057d0aa4f28b'
p26
sa(dp27
g2
S'36580'
p28
sg4
S'4963'
p29
sg6
S'd4e6a8b568406ecfd7f027035439e233'
p30
sg8
S'xx69b6108baadffc25db33a361213601c6'
p31
sg10
S'xxc7b2fece2e10c769b8b065ad8e0d18a7'
p32
sg12
S'xx6a6c72cfa46e8b0db8270b8f1fc936d0'
p33
sg14
S'Mozilla/5.0 (Linux; Android 5.1; m1 metal Build/LMY47I) AppleWebKit/537.36 (KHTML, like Gecko) Version/4.0 Chrome/37.0.0.0 Mobile MQQBrowser/6.8 TBS/036869 Safari/537.36 MicroMessenger/6.3.27.880 NetType/cmnet Language/zh_CN'
p34
sg16
S'c0c05ee8bfd98b1ab098057d0aa4f28b'
p35
sa(dp36
g2
S'36580'
p37
sg4
S'4980'
p38
sg6
S'd4e6a8b568406ecfd7f027035439e233'
p39
sg8
S'xx69b6108baadffc25db33a361213601c6'
p40
sg10
S'xxc7b2fece2e10c769b8b065ad8e0d18a7'
p41
sg12
S'xx6a6c72cfa46e8b0db8270b8f1fc936d0'
p42
sg14
S'Mozilla/5.0 (Linux; Android 5.1; m1 metal Build/LMY47I) AppleWebKit/537.36 (KHTML, like Gecko) Version/4.0 Chrome/37.0.0.0 Mobile MQQBrowser/6.8 TBS/036869 Safari/537.36 MicroMessenger/6.3.27.880 NetType/cmnet Language/zh_CN'
p43
sg16
S'c0c05ee8bfd98b1ab098057d0aa4f28b'
p44
sa(dp45
g2
S'36580'
p46
sg4
S'4992'
p47
sg6
S'd4e6a8b568406ecfd7f027035439e233'
p48
sg8
S'xx69b6108baadffc25db33a361213601c6'
p49
sg10
S'xxc7b2fece2e10c769b8b065ad8e0d18a7'
p50
sg12
S'xx6a6c72cfa46e8b0db8270b8f1fc936d0'
p51
sg14
S'Mozilla/5.0 (Linux; Android 5.1; m1 metal Build/LMY47I) AppleWebKit/537.36 (KHTML, like Gecko) Version/4.0 Chrome/37.0.0.0 Mobile MQQBrowser/6.8 TBS/036869 Safari/537.36 MicroMessenger/6.3.27.880 NetType/cmnet Language/zh_CN'
p52
sg16
S'c0c05ee8bfd98b1ab098057d0aa4f28b'
p53
sa(dp54
g2
S'36580'
p55
sg4
S'5021'
p56
sg6
S'd4e6a8b568406ecfd7f027035439e233'
p57
sg8
S'xx69b6108baadffc25db33a361213601c6'
p58
sg10
S'xxc7b2fece2e10c769b8b065ad8e0d18a7'
p59
sg12
S'xx6a6c72cfa46e8b0db8270b8f1fc936d0'
p60
sg14
S'Mozilla/5.0 (Linux; Android 5.1; m1 metal Build/LMY47I) AppleWebKit/537.36 (KHTML, like Gecko) Version/4.0 Chrome/37.0.0.0 Mobile MQQBrowser/6.8 TBS/036869 Safari/537.36 MicroMessenger/6.3.27.880 NetType/cmnet Language/zh_CN'
p61
sg16
S'c0c05ee8bfd98b1ab098057d0aa4f28b'
p62
sa(dp63
g2
S'36580'
p64
sg4
S'5422'
p65
sg6
S'd4e6a8b568406ecfd7f027035439e233'
p66
sg8
S'xx69b6108baadffc25db33a361213601c6'
p67
sg10
S'xxc7b2fece2e10c769b8b065ad8e0d18a7'
p68
sg12
S'xx6a6c72cfa46e8b0db8270b8f1fc936d0'
p69
sg14
S'Mozilla/5.0 (Linux; Android 5.1; m1 metal Build/LMY47I) AppleWebKit/537.36 (KHTML, like Gecko) Version/4.0 Chrome/37.0.0.0 Mobile MQQBrowser/6.8 TBS/036869 Safari/537.36 MicroMessenger/6.3.27.880 NetType/cmnet Language/zh_CN'
p70
sg16
S'c0c05ee8bfd98b1ab098057d0aa4f28b'
p71
sa(dp72
g2
S'36580'
p73
sg4
S'5437'
p74
sg6
S'd4e6a8b568406ecfd7f027035439e233'
p75
sg8
S'xx69b6108baadffc25db33a361213601c6'
p76
sg10
S'xxc7b2fece2e10c769b8b065ad8e0d18a7'
p77
sg12
S'xx6a6c72cfa46e8b0db8270b8f1fc936d0'
p78
sg14
S'Mozilla/5.0 (Linux; Android 5.1; m1 metal Build/LMY47I) AppleWebKit/537.36 (KHTML, like Gecko) Version/4.0 Chrome/37.0.0.0 Mobile MQQBrowser/6.8 TBS/036869 Safari/537.36 MicroMessenger/6.3.27.880 NetType/cmnet Language/zh_CN'
p79
sg16
S'c0c05ee8bfd98b1ab098057d0aa4f28b'
p80
sa(dp81
g2
S'35266'
p82
sg4
S'5476'
p83
sg6
S'7424a490a049e5ce539b9db9fea35724'
p84
sg8
S'xxe85d0fbfa657358b1d603d3fc9fa0a24'
p85
sg10
S'xxc7b2fece2e10c769b8b065ad8e0d18a7'
p86
sg12
S'xx6a6c72cfa46e8b0db8270b8f1fc936d0'
p87
sg14
S'Mozilla/5.0 (Linux; Android 5.1; m1 metal Build/LMY47I) AppleWebKit/537.36 (KHTML, like Gecko) Version/4.0 Chrome/37.0.0.0 Mobile MQQBrowser/6.8 TBS/036849 Safari/537.36 MicroMessenger/6.3.27.880 NetType/WIFI Language/zh_CN'
p88
sg16
S'8f59766fad7eb6d46dc886ca1b2ce8ae'
p89
sa(dp90
g2
S'35266'
p91
sg4
S'5493'
p92
sg6
S'7424a490a049e5ce539b9db9fea35724'
p93
sg8
S'xxe85d0fbfa657358b1d603d3fc9fa0a24'
p94
sg10
S'xxc7b2fece2e10c769b8b065ad8e0d18a7'
p95
sg12
S'xx6a6c72cfa46e8b0db8270b8f1fc936d0'
p96
sg14
S'Mozilla/5.0 (Linux; Android 5.1; m1 metal Build/LMY47I) AppleWebKit/537.36 (KHTML, like Gecko) Version/4.0 Chrome/37.0.0.0 Mobile MQQBrowser/6.8 TBS/036849 Safari/537.36 MicroMessenger/6.3.27.880 NetType/WIFI Language/zh_CN'
p97
sg16
S'8f59766fad7eb6d46dc886ca1b2ce8ae'
p98
sa(dp99
g2
S'35266'
p100
sg4
S'5537'
p101
sg6
S'7424a490a049e5ce539b9db9fea35724'
p102
sg8
S'xxe85d0fbfa657358b1d603d3fc9fa0a24'
p103
sg10
S'xxc7b2fece2e10c769b8b065ad8e0d18a7'
p104
sg12
S'xx6a6c72cfa46e8b0db8270b8f1fc936d0'
p105
sg14
S'Mozilla/5.0 (Linux; Android 5.1; m1 metal Build/LMY47I) AppleWebKit/537.36 (KHTML, like Gecko) Version/4.0 Chrome/37.0.0.0 Mobile MQQBrowser/6.8 TBS/036849 Safari/537.36 MicroMessenger/6.3.27.880 NetType/WIFI Language/zh_CN'
p106
sg16
S'8f59766fad7eb6d46dc886ca1b2ce8ae'
p107
sa(dp108
g2
S'36580'
p109
sg4
S'5556'
p110
sg6
S'd4e6a8b568406ecfd7f027035439e233'
p111
sg8
S'xx69b6108baadffc25db33a361213601c6'
p112
sg10
S'xxc7b2fece2e10c769b8b065ad8e0d18a7'
p113
sg12
S'xx6a6c72cfa46e8b0db8270b8f1fc936d0'
p114
sg14
S'Mozilla/5.0 (Linux; Android 5.1; m1 metal Build/LMY47I) AppleWebKit/537.36 (KHTML, like Gecko) Version/4.0 Chrome/37.0.0.0 Mobile MQQBrowser/6.8 TBS/036869 Safari/537.36 MicroMessenger/6.3.27.880 NetType/cmnet Language/zh_CN'
p115
sg16
S'c0c05ee8bfd98b1ab098057d0aa4f28b'
p116
sa(dp117
g2
S'36580'
p118
sg4
S'5571'
p119
sg6
S'd4e6a8b568406ecfd7f027035439e233'
p120
sg8
S'xx69b6108baadffc25db33a361213601c6'
p121
sg10
S'xxc7b2fece2e10c769b8b065ad8e0d18a7'
p122
sg12
S'xx6a6c72cfa46e8b0db8270b8f1fc936d0'
p123
sg14
S'Mozilla/5.0 (Linux; Android 5.1; m1 metal Build/LMY47I) AppleWebKit/537.36 (KHTML, like Gecko) Version/4.0 Chrome/37.0.0.0 Mobile MQQBrowser/6.8 TBS/036869 Safari/537.36 MicroMessenger/6.3.27.880 NetType/cmnet Language/zh_CN'
p124
sg16
S'c0c05ee8bfd98b1ab098057d0aa4f28b'
p125
sa(dp126
g2
S'36580'
p127
sg4
S'5585'
p128
sg6
S'd4e6a8b568406ecfd7f027035439e233'
p129
sg8
S'xx69b6108baadffc25db33a361213601c6'
p130
sg10
S'xxc7b2fece2e10c769b8b065ad8e0d18a7'
p131
sg12
S'xx6a6c72cfa46e8b0db8270b8f1fc936d0'
p132
sg14
S'Mozilla/5.0 (Linux; Android 5.1; m1 metal Build/LMY47I) AppleWebKit/537.36 (KHTML, like Gecko) Version/4.0 Chrome/37.0.0.0 Mobile MQQBrowser/6.8 TBS/036869 Safari/537.36 MicroMessenger/6.3.27.880 NetType/cmnet Language/zh_CN'
p133
sg16
S'c0c05ee8bfd98b1ab098057d0aa4f28b'
p134
sa(dp135
g2
S'36580'
p136
sg4
S'5610'
p137
sg6
S'd4e6a8b568406ecfd7f027035439e233'
p138
sg8
S'xx69b6108baadffc25db33a361213601c6'
p139
sg10
S'xxc7b2fece2e10c769b8b065ad8e0d18a7'
p140
sg12
S'xx6a6c72cfa46e8b0db8270b8f1fc936d0'
p141
sg14
S'Mozilla/5.0 (Linux; Android 5.1; m1 metal Build/LMY47I) AppleWebKit/537.36 (KHTML, like Gecko) Version/4.0 Chrome/37.0.0.0 Mobile MQQBrowser/6.8 TBS/036869 Safari/537.36 MicroMessenger/6.3.27.880 NetType/cmnet Language/zh_CN'
p142
sg16
S'c0c05ee8bfd98b1ab098057d0aa4f28b'
p143
sa(dp144
g2
S'36580'
p145
sg4
S'5701'
p146
sg6
S'd4e6a8b568406ecfd7f027035439e233'
p147
sg8
S'xx69b6108baadffc25db33a361213601c6'
p148
sg10
S'xxc7b2fece2e10c769b8b065ad8e0d18a7'
p149
sg12
S'xx6a6c72cfa46e8b0db8270b8f1fc936d0'
p150
sg14
S'Mozilla/5.0 (Linux; Android 5.1; m1 metal Build/LMY47I) AppleWebKit/537.36 (KHTML, like Gecko) Version/4.0 Chrome/37.0.0.0 Mobile MQQBrowser/6.8 TBS/036869 Safari/537.36 MicroMessenger/6.3.27.880 NetType/cmnet Language/zh_CN'
p151
sg16
S'c0c05ee8bfd98b1ab098057d0aa4f28b'
p152
sa(dp153
g2
S'47535'
p154
sg4
S'5902'
p155
sg6
S'881ec66076c52948b01f6e4ec201fe61'
p156
sg8
S'xxe85d0fbfa657358b1d603d3fc9fa0a24'
p157
sg10
S'xxc7b2fece2e10c769b8b065ad8e0d18a7'
p158
sg12
S'xx6a6c72cfa46e8b0db8270b8f1fc936d0'
p159
sg14
S'Mozilla/5.0 (Linux; Android 5.1; m1 metal Build/LMY47I) AppleWebKit/537.36 (KHTML, like Gecko) Version/4.0 Chrome/37.0.0.0 Mobile MQQBrowser/6.8 TBS/036849 Safari/537.36 MicroMessenger/6.3.27.880 NetType/WIFI Language/zh_CN'
p160
sg16
S'8f59766fad7eb6d46dc886ca1b2ce8ae'
p161
sa(dp162
g2
S'47535'
p163
sg4
S'5919'
p164
sg6
S'881ec66076c52948b01f6e4ec201fe61'
p165
sg8
S'xxe85d0fbfa657358b1d603d3fc9fa0a24'
p166
sg10
S'xxc7b2fece2e10c769b8b065ad8e0d18a7'
p167
sg12
S'xx6a6c72cfa46e8b0db8270b8f1fc936d0'
p168
sg14
S'Mozilla/5.0 (Linux; Android 5.1; m1 metal Build/LMY47I) AppleWebKit/537.36 (KHTML, like Gecko) Version/4.0 Chrome/37.0.0.0 Mobile MQQBrowser/6.8 TBS/036849 Safari/537.36 MicroMessenger/6.3.27.880 NetType/WIFI Language/zh_CN'
p169
sg16
S'8f59766fad7eb6d46dc886ca1b2ce8ae'
p170
sa.