(lp0
(dp1
S'user_id'
p2
S'35740'
p3
sS'data_id'
p4
S'6891'
p5
sS'ip'
p6
S'45ab387fc9dcf475cba7e579bcfc8714'
p7
sS'phone_B'
p8
S'xx9f5062054a061054e645e8bf64d2046b'
p9
sS'phone_C'
p10
S'xx9aae67933c73a5ef2f0fa1dfb08afdd9'
p11
sS'phone_A'
p12
S'xx6b728817ab0c9f06d85ee064ed9c76e5'
p13
sS'user_agent'
p14
S'Mozilla/5.0 (Linux; Android 4.4.4; Coolpad Y82-520 Build/KTU84P) AppleWebKit/537.36 (KHTML, like Gecko) Version/4.0 Chrome/37.0.0.0 Mobile MQQBrowser/6.8 TBS/036849 Safari/537.36 MicroMessenger/6.3.27.880 NetType/ctlte Language/zh_CN'
p15
sS'ua'
p16
S'8260354493d29dcb72316b18a47ef9c7'
p17
sa(dp18
g2
S'35740'
p19
sg4
S'6905'
p20
sg6
S'45ab387fc9dcf475cba7e579bcfc8714'
p21
sg8
S'xx9f5062054a061054e645e8bf64d2046b'
p22
sg10
S'xx9aae67933c73a5ef2f0fa1dfb08afdd9'
p23
sg12
S'xx6b728817ab0c9f06d85ee064ed9c76e5'
p24
sg14
S'Mozilla/5.0 (Linux; Android 4.4.4; Coolpad Y82-520 Build/KTU84P) AppleWebKit/537.36 (KHTML, like Gecko) Version/4.0 Chrome/37.0.0.0 Mobile MQQBrowser/6.8 TBS/036849 Safari/537.36 MicroMessenger/6.3.27.880 NetType/ctlte Language/zh_CN'
p25
sg16
S'8260354493d29dcb72316b18a47ef9c7'
p26
sa(dp27
g2
S'35759'
p28
sg4
S'7347'
p29
sg6
S'45ab387fc9dcf475cba7e579bcfc8714'
p30
sg8
S'xx9f5062054a061054e645e8bf64d2046b'
p31
sg10
S'xx9aae67933c73a5ef2f0fa1dfb08afdd9'
p32
sg12
S'xx6b728817ab0c9f06d85ee064ed9c76e5'
p33
sg14
S'Mozilla/5.0 (Linux; Android 4.4.4; Coolpad Y82-520 Build/KTU84P) AppleWebKit/537.36 (KHTML, like Gecko) Version/4.0 Chrome/37.0.0.0 Mobile MQQBrowser/6.8 TBS/036849 Safari/537.36 MicroMessenger/6.3.27.880 NetType/ctlte Language/zh_CN'
p34
sg16
S'8260354493d29dcb72316b18a47ef9c7'
p35
sa(dp36
g2
S'35759'
p37
sg4
S'7361'
p38
sg6
S'45ab387fc9dcf475cba7e579bcfc8714'
p39
sg8
S'xx9f5062054a061054e645e8bf64d2046b'
p40
sg10
S'xx9aae67933c73a5ef2f0fa1dfb08afdd9'
p41
sg12
S'xx6b728817ab0c9f06d85ee064ed9c76e5'
p42
sg14
S'Mozilla/5.0 (Linux; Android 4.4.4; Coolpad Y82-520 Build/KTU84P) AppleWebKit/537.36 (KHTML, like Gecko) Version/4.0 Chrome/37.0.0.0 Mobile MQQBrowser/6.8 TBS/036849 Safari/537.36 MicroMessenger/6.3.27.880 NetType/ctlte Language/zh_CN'
p43
sg16
S'8260354493d29dcb72316b18a47ef9c7'
p44
sa(dp45
g2
S'35759'
p46
sg4
S'7372'
p47
sg6
S'45ab387fc9dcf475cba7e579bcfc8714'
p48
sg8
S'xx9f5062054a061054e645e8bf64d2046b'
p49
sg10
S'xx9aae67933c73a5ef2f0fa1dfb08afdd9'
p50
sg12
S'xx6b728817ab0c9f06d85ee064ed9c76e5'
p51
sg14
S'Mozilla/5.0 (Linux; Android 4.4.4; Coolpad Y82-520 Build/KTU84P) AppleWebKit/537.36 (KHTML, like Gecko) Version/4.0 Chrome/37.0.0.0 Mobile MQQBrowser/6.8 TBS/036849 Safari/537.36 MicroMessenger/6.3.27.880 NetType/ctlte Language/zh_CN'
p52
sg16
S'8260354493d29dcb72316b18a47ef9c7'
p53
sa(dp54
g2
S'35748'
p55
sg4
S'7707'
p56
sg6
S'45ab387fc9dcf475cba7e579bcfc8714'
p57
sg8
S'xx9f5062054a061054e645e8bf64d2046b'
p58
sg10
S'xx9aae67933c73a5ef2f0fa1dfb08afdd9'
p59
sg12
S'xx6b728817ab0c9f06d85ee064ed9c76e5'
p60
sg14
S'Mozilla/5.0 (Linux; Android 4.4.4; Coolpad Y82-520 Build/KTU84P) AppleWebKit/537.36 (KHTML, like Gecko) Version/4.0 Chrome/37.0.0.0 Mobile MQQBrowser/6.8 TBS/036849 Safari/537.36 MicroMessenger/6.3.27.880 NetType/ctlte Language/zh_CN'
p61
sg16
S'8260354493d29dcb72316b18a47ef9c7'
p62
sa(dp63
g2
S'35748'
p64
sg4
S'7717'
p65
sg6
S'45ab387fc9dcf475cba7e579bcfc8714'
p66
sg8
S'xx9f5062054a061054e645e8bf64d2046b'
p67
sg10
S'xx9aae67933c73a5ef2f0fa1dfb08afdd9'
p68
sg12
S'xx6b728817ab0c9f06d85ee064ed9c76e5'
p69
sg14
S'Mozilla/5.0 (Linux; Android 4.4.4; Coolpad Y82-520 Build/KTU84P) AppleWebKit/537.36 (KHTML, like Gecko) Version/4.0 Chrome/37.0.0.0 Mobile MQQBrowser/6.8 TBS/036849 Safari/537.36 MicroMessenger/6.3.27.880 NetType/ctlte Language/zh_CN'
p70
sg16
S'8260354493d29dcb72316b18a47ef9c7'
p71
sa.