(lp0
(dp1
S'user_id'
p2
S'42244'
p3
sS'data_id'
p4
S'52'
p5
sS'ip'
p6
S'dd357e7ebd99f0c5ef623e8d1aec9934'
p7
sS'phone_B'
p8
S'xx02a8f9be367d66e4981b2ab97fb25ae6'
p9
sS'phone_C'
p10
S'xx84969784dda9fa89fb5e4ac2cc0e2f85'
p11
sS'phone_A'
p12
S'xx6b34bae3d40572171add9deebb43a537'
p13
sS'user_agent'
p14
S'Mozilla/5.0 (Linux; Android 4.4.4; OPPO R7 Build/KTU84P) AppleWebKit/537.36 (KHTML, like Gecko) Version/4.0 Chrome/37.0.0.0 Mobile MQQBrowser/6.8 TBS/036869 Safari/537.36 MicroMessenger/6.3.27.880 NetType/cmnet Language/zh_CN'
p15
sS'ua'
p16
S'4baace542f4e3829ab1a3ac87615ce68'
p17
sa(dp18
g2
S'42244'
p19
sg4
S'60'
p20
sg6
S'dd357e7ebd99f0c5ef623e8d1aec9934'
p21
sg8
S'xx02a8f9be367d66e4981b2ab97fb25ae6'
p22
sg10
S'xx84969784dda9fa89fb5e4ac2cc0e2f85'
p23
sg12
S'xx6b34bae3d40572171add9deebb43a537'
p24
sg14
S'Mozilla/5.0 (Linux; Android 4.4.4; OPPO R7 Build/KTU84P) AppleWebKit/537.36 (KHTML, like Gecko) Version/4.0 Chrome/37.0.0.0 Mobile MQQBrowser/6.8 TBS/036869 Safari/537.36 MicroMessenger/6.3.27.880 NetType/cmnet Language/zh_CN'
p25
sg16
S'4baace542f4e3829ab1a3ac87615ce68'
p26
sa(dp27
g2
S'42244'
p28
sg4
S'68'
p29
sg6
S'dd357e7ebd99f0c5ef623e8d1aec9934'
p30
sg8
S'xx02a8f9be367d66e4981b2ab97fb25ae6'
p31
sg10
S'xx84969784dda9fa89fb5e4ac2cc0e2f85'
p32
sg12
S'xx6b34bae3d40572171add9deebb43a537'
p33
sg14
S'Mozilla/5.0 (Linux; Android 4.4.4; OPPO R7 Build/KTU84P) AppleWebKit/537.36 (KHTML, like Gecko) Version/4.0 Chrome/37.0.0.0 Mobile MQQBrowser/6.8 TBS/036869 Safari/537.36 MicroMessenger/6.3.27.880 NetType/cmnet Language/zh_CN'
p34
sg16
S'4baace542f4e3829ab1a3ac87615ce68'
p35
sa(dp36
g2
S'25548'
p37
sg4
S'104'
p38
sg6
S'f7569616c9cabfcda10b9a4d51694372'
p39
sg8
S'xx6360c6b0b8475b030a515bcccc77ff52'
p40
sg10
S'xx84969784dda9fa89fb5e4ac2cc0e2f85'
p41
sg12
S'xx6b34bae3d40572171add9deebb43a537'
p42
sg14
S'Mozilla/5.0 (Linux; Android 4.4.4; OPPO R7 Build/KTU84P) AppleWebKit/537.36 (KHTML, like Gecko) Version/4.0 Chrome/37.0.0.0 Mobile MQQBrowser/6.8 TBS/036869 Safari/537.36 MicroMessenger/6.3.27.880 NetType/WIFI Language/zh_CN'
p43
sg16
S'9959c10d166a65923a630d4ede895660'
p44
sa(dp45
g2
S'25548'
p46
sg4
S'114'
p47
sg6
S'f7569616c9cabfcda10b9a4d51694372'
p48
sg8
S'xx6360c6b0b8475b030a515bcccc77ff52'
p49
sg10
S'xx84969784dda9fa89fb5e4ac2cc0e2f85'
p50
sg12
S'xx6b34bae3d40572171add9deebb43a537'
p51
sg14
S'Mozilla/5.0 (Linux; Android 4.4.4; OPPO R7 Build/KTU84P) AppleWebKit/537.36 (KHTML, like Gecko) Version/4.0 Chrome/37.0.0.0 Mobile MQQBrowser/6.8 TBS/036869 Safari/537.36 MicroMessenger/6.3.27.880 NetType/WIFI Language/zh_CN'
p52
sg16
S'9959c10d166a65923a630d4ede895660'
p53
sa(dp54
g2
S'42244'
p55
sg4
S'133'
p56
sg6
S'dd357e7ebd99f0c5ef623e8d1aec9934'
p57
sg8
S'xx02a8f9be367d66e4981b2ab97fb25ae6'
p58
sg10
S'xx84969784dda9fa89fb5e4ac2cc0e2f85'
p59
sg12
S'xx6b34bae3d40572171add9deebb43a537'
p60
sg14
S'Mozilla/5.0 (Linux; Android 4.4.4; OPPO R7 Build/KTU84P) AppleWebKit/537.36 (KHTML, like Gecko) Version/4.0 Chrome/37.0.0.0 Mobile MQQBrowser/6.8 TBS/036869 Safari/537.36 MicroMessenger/6.3.27.880 NetType/cmnet Language/zh_CN'
p61
sg16
S'4baace542f4e3829ab1a3ac87615ce68'
p62
sa(dp63
g2
S'42244'
p64
sg4
S'145'
p65
sg6
S'dd357e7ebd99f0c5ef623e8d1aec9934'
p66
sg8
S'xx02a8f9be367d66e4981b2ab97fb25ae6'
p67
sg10
S'xx84969784dda9fa89fb5e4ac2cc0e2f85'
p68
sg12
S'xx6b34bae3d40572171add9deebb43a537'
p69
sg14
S'Mozilla/5.0 (Linux; Android 4.4.4; OPPO R7 Build/KTU84P) AppleWebKit/537.36 (KHTML, like Gecko) Version/4.0 Chrome/37.0.0.0 Mobile MQQBrowser/6.8 TBS/036869 Safari/537.36 MicroMessenger/6.3.27.880 NetType/cmnet Language/zh_CN'
p70
sg16
S'4baace542f4e3829ab1a3ac87615ce68'
p71
sa(dp72
g2
S'42244'
p73
sg4
S'158'
p74
sg6
S'dd357e7ebd99f0c5ef623e8d1aec9934'
p75
sg8
S'xx02a8f9be367d66e4981b2ab97fb25ae6'
p76
sg10
S'xx84969784dda9fa89fb5e4ac2cc0e2f85'
p77
sg12
S'xx6b34bae3d40572171add9deebb43a537'
p78
sg14
S'Mozilla/5.0 (Linux; Android 4.4.4; OPPO R7 Build/KTU84P) AppleWebKit/537.36 (KHTML, like Gecko) Version/4.0 Chrome/37.0.0.0 Mobile MQQBrowser/6.8 TBS/036869 Safari/537.36 MicroMessenger/6.3.27.880 NetType/cmnet Language/zh_CN'
p79
sg16
S'4baace542f4e3829ab1a3ac87615ce68'
p80
sa(dp81
g2
S'42244'
p82
sg4
S'173'
p83
sg6
S'dd357e7ebd99f0c5ef623e8d1aec9934'
p84
sg8
S'xx02a8f9be367d66e4981b2ab97fb25ae6'
p85
sg10
S'xx84969784dda9fa89fb5e4ac2cc0e2f85'
p86
sg12
S'xx6b34bae3d40572171add9deebb43a537'
p87
sg14
S'Mozilla/5.0 (Linux; Android 4.4.4; OPPO R7 Build/KTU84P) AppleWebKit/537.36 (KHTML, like Gecko) Version/4.0 Chrome/37.0.0.0 Mobile MQQBrowser/6.8 TBS/036869 Safari/537.36 MicroMessenger/6.3.27.880 NetType/cmnet Language/zh_CN'
p88
sg16
S'4baace542f4e3829ab1a3ac87615ce68'
p89
sa(dp90
g2
S'42244'
p91
sg4
S'186'
p92
sg6
S'dd357e7ebd99f0c5ef623e8d1aec9934'
p93
sg8
S'xx02a8f9be367d66e4981b2ab97fb25ae6'
p94
sg10
S'xx84969784dda9fa89fb5e4ac2cc0e2f85'
p95
sg12
S'xx6b34bae3d40572171add9deebb43a537'
p96
sg14
S'Mozilla/5.0 (Linux; Android 4.4.4; OPPO R7 Build/KTU84P) AppleWebKit/537.36 (KHTML, like Gecko) Version/4.0 Chrome/37.0.0.0 Mobile MQQBrowser/6.8 TBS/036869 Safari/537.36 MicroMessenger/6.3.27.880 NetType/cmnet Language/zh_CN'
p97
sg16
S'4baace542f4e3829ab1a3ac87615ce68'
p98
sa(dp99
g2
S'42244'
p100
sg4
S'372'
p101
sg6
S'dd357e7ebd99f0c5ef623e8d1aec9934'
p102
sg8
S'xx02a8f9be367d66e4981b2ab97fb25ae6'
p103
sg10
S'xx84969784dda9fa89fb5e4ac2cc0e2f85'
p104
sg12
S'xx6b34bae3d40572171add9deebb43a537'
p105
sg14
S'Mozilla/5.0 (Linux; Android 4.4.4; OPPO R7 Build/KTU84P) AppleWebKit/537.36 (KHTML, like Gecko) Version/4.0 Chrome/37.0.0.0 Mobile MQQBrowser/6.8 TBS/036869 Safari/537.36 MicroMessenger/6.3.27.880 NetType/cmnet Language/zh_CN'
p106
sg16
S'4baace542f4e3829ab1a3ac87615ce68'
p107
sa(dp108
g2
S'42244'
p109
sg4
S'1081'
p110
sg6
S'dd357e7ebd99f0c5ef623e8d1aec9934'
p111
sg8
S'xx02a8f9be367d66e4981b2ab97fb25ae6'
p112
sg10
S'xx84969784dda9fa89fb5e4ac2cc0e2f85'
p113
sg12
S'xx6b34bae3d40572171add9deebb43a537'
p114
sg14
S'Mozilla/5.0 (Linux; Android 4.4.4; OPPO R7 Build/KTU84P) AppleWebKit/537.36 (KHTML, like Gecko) Version/4.0 Chrome/37.0.0.0 Mobile MQQBrowser/6.8 TBS/036869 Safari/537.36 MicroMessenger/6.3.27.880 NetType/cmnet Language/zh_CN'
p115
sg16
S'4baace542f4e3829ab1a3ac87615ce68'
p116
sa(dp117
g2
S'42244'
p118
sg4
S'1098'
p119
sg6
S'dd357e7ebd99f0c5ef623e8d1aec9934'
p120
sg8
S'xx02a8f9be367d66e4981b2ab97fb25ae6'
p121
sg10
S'xx84969784dda9fa89fb5e4ac2cc0e2f85'
p122
sg12
S'xx6b34bae3d40572171add9deebb43a537'
p123
sg14
S'Mozilla/5.0 (Linux; Android 4.4.4; OPPO R7 Build/KTU84P) AppleWebKit/537.36 (KHTML, like Gecko) Version/4.0 Chrome/37.0.0.0 Mobile MQQBrowser/6.8 TBS/036869 Safari/537.36 MicroMessenger/6.3.27.880 NetType/cmnet Language/zh_CN'
p124
sg16
S'4baace542f4e3829ab1a3ac87615ce68'
p125
sa(dp126
g2
S'42244'
p127
sg4
S'1114'
p128
sg6
S'dd357e7ebd99f0c5ef623e8d1aec9934'
p129
sg8
S'xx02a8f9be367d66e4981b2ab97fb25ae6'
p130
sg10
S'xx84969784dda9fa89fb5e4ac2cc0e2f85'
p131
sg12
S'xx6b34bae3d40572171add9deebb43a537'
p132
sg14
S'Mozilla/5.0 (Linux; Android 4.4.4; OPPO R7 Build/KTU84P) AppleWebKit/537.36 (KHTML, like Gecko) Version/4.0 Chrome/37.0.0.0 Mobile MQQBrowser/6.8 TBS/036869 Safari/537.36 MicroMessenger/6.3.27.880 NetType/cmnet Language/zh_CN'
p133
sg16
S'4baace542f4e3829ab1a3ac87615ce68'
p134
sa(dp135
g2
S'42244'
p136
sg4
S'1131'
p137
sg6
S'dd357e7ebd99f0c5ef623e8d1aec9934'
p138
sg8
S'xx02a8f9be367d66e4981b2ab97fb25ae6'
p139
sg10
S'xx84969784dda9fa89fb5e4ac2cc0e2f85'
p140
sg12
S'xx6b34bae3d40572171add9deebb43a537'
p141
sg14
S'Mozilla/5.0 (Linux; Android 4.4.4; OPPO R7 Build/KTU84P) AppleWebKit/537.36 (KHTML, like Gecko) Version/4.0 Chrome/37.0.0.0 Mobile MQQBrowser/6.8 TBS/036869 Safari/537.36 MicroMessenger/6.3.27.880 NetType/cmnet Language/zh_CN'
p142
sg16
S'4baace542f4e3829ab1a3ac87615ce68'
p143
sa(dp144
g2
S'42244'
p145
sg4
S'1159'
p146
sg6
S'dd357e7ebd99f0c5ef623e8d1aec9934'
p147
sg8
S'xx02a8f9be367d66e4981b2ab97fb25ae6'
p148
sg10
S'xx84969784dda9fa89fb5e4ac2cc0e2f85'
p149
sg12
S'xx6b34bae3d40572171add9deebb43a537'
p150
sg14
S'Mozilla/5.0 (Linux; Android 4.4.4; OPPO R7 Build/KTU84P) AppleWebKit/537.36 (KHTML, like Gecko) Version/4.0 Chrome/37.0.0.0 Mobile MQQBrowser/6.8 TBS/036869 Safari/537.36 MicroMessenger/6.3.27.880 NetType/cmnet Language/zh_CN'
p151
sg16
S'4baace542f4e3829ab1a3ac87615ce68'
p152
sa(dp153
g2
S'42244'
p154
sg4
S'1203'
p155
sg6
S'dd357e7ebd99f0c5ef623e8d1aec9934'
p156
sg8
S'xx02a8f9be367d66e4981b2ab97fb25ae6'
p157
sg10
S'xx84969784dda9fa89fb5e4ac2cc0e2f85'
p158
sg12
S'xx6b34bae3d40572171add9deebb43a537'
p159
sg14
S'Mozilla/5.0 (Linux; Android 4.4.4; OPPO R7 Build/KTU84P) AppleWebKit/537.36 (KHTML, like Gecko) Version/4.0 Chrome/37.0.0.0 Mobile MQQBrowser/6.8 TBS/036869 Safari/537.36 MicroMessenger/6.3.27.880 NetType/cmnet Language/zh_CN'
p160
sg16
S'4baace542f4e3829ab1a3ac87615ce68'
p161
sa(dp162
g2
S'42244'
p163
sg4
S'1220'
p164
sg6
S'dd357e7ebd99f0c5ef623e8d1aec9934'
p165
sg8
S'xx02a8f9be367d66e4981b2ab97fb25ae6'
p166
sg10
S'xx84969784dda9fa89fb5e4ac2cc0e2f85'
p167
sg12
S'xx6b34bae3d40572171add9deebb43a537'
p168
sg14
S'Mozilla/5.0 (Linux; Android 4.4.4; OPPO R7 Build/KTU84P) AppleWebKit/537.36 (KHTML, like Gecko) Version/4.0 Chrome/37.0.0.0 Mobile MQQBrowser/6.8 TBS/036869 Safari/537.36 MicroMessenger/6.3.27.880 NetType/cmnet Language/zh_CN'
p169
sg16
S'4baace542f4e3829ab1a3ac87615ce68'
p170
sa(dp171
g2
S'42244'
p172
sg4
S'1235'
p173
sg6
S'dd357e7ebd99f0c5ef623e8d1aec9934'
p174
sg8
S'xx02a8f9be367d66e4981b2ab97fb25ae6'
p175
sg10
S'xx84969784dda9fa89fb5e4ac2cc0e2f85'
p176
sg12
S'xx6b34bae3d40572171add9deebb43a537'
p177
sg14
S'Mozilla/5.0 (Linux; Android 4.4.4; OPPO R7 Build/KTU84P) AppleWebKit/537.36 (KHTML, like Gecko) Version/4.0 Chrome/37.0.0.0 Mobile MQQBrowser/6.8 TBS/036869 Safari/537.36 MicroMessenger/6.3.27.880 NetType/cmnet Language/zh_CN'
p178
sg16
S'4baace542f4e3829ab1a3ac87615ce68'
p179
sa(dp180
g2
S'42244'
p181
sg4
S'1248'
p182
sg6
S'dd357e7ebd99f0c5ef623e8d1aec9934'
p183
sg8
S'xx02a8f9be367d66e4981b2ab97fb25ae6'
p184
sg10
S'xx84969784dda9fa89fb5e4ac2cc0e2f85'
p185
sg12
S'xx6b34bae3d40572171add9deebb43a537'
p186
sg14
S'Mozilla/5.0 (Linux; Android 4.4.4; OPPO R7 Build/KTU84P) AppleWebKit/537.36 (KHTML, like Gecko) Version/4.0 Chrome/37.0.0.0 Mobile MQQBrowser/6.8 TBS/036869 Safari/537.36 MicroMessenger/6.3.27.880 NetType/cmnet Language/zh_CN'
p187
sg16
S'4baace542f4e3829ab1a3ac87615ce68'
p188
sa(dp189
g2
S'42244'
p190
sg4
S'1253'
p191
sg6
S'dd357e7ebd99f0c5ef623e8d1aec9934'
p192
sg8
S'xx02a8f9be367d66e4981b2ab97fb25ae6'
p193
sg10
S'xx84969784dda9fa89fb5e4ac2cc0e2f85'
p194
sg12
S'xx6b34bae3d40572171add9deebb43a537'
p195
sg14
S'Mozilla/5.0 (Linux; Android 4.4.4; OPPO R7 Build/KTU84P) AppleWebKit/537.36 (KHTML, like Gecko) Version/4.0 Chrome/37.0.0.0 Mobile MQQBrowser/6.8 TBS/036869 Safari/537.36 MicroMessenger/6.3.27.880 NetType/cmnet Language/zh_CN'
p196
sg16
S'4baace542f4e3829ab1a3ac87615ce68'
p197
sa(dp198
g2
S'42244'
p199
sg4
S'1265'
p200
sg6
S'dd357e7ebd99f0c5ef623e8d1aec9934'
p201
sg8
S'xx02a8f9be367d66e4981b2ab97fb25ae6'
p202
sg10
S'xx84969784dda9fa89fb5e4ac2cc0e2f85'
p203
sg12
S'xx6b34bae3d40572171add9deebb43a537'
p204
sg14
S'Mozilla/5.0 (Linux; Android 4.4.4; OPPO R7 Build/KTU84P) AppleWebKit/537.36 (KHTML, like Gecko) Version/4.0 Chrome/37.0.0.0 Mobile MQQBrowser/6.8 TBS/036869 Safari/537.36 MicroMessenger/6.3.27.880 NetType/cmnet Language/zh_CN'
p205
sg16
S'4baace542f4e3829ab1a3ac87615ce68'
p206
sa(dp207
g2
S'42244'
p208
sg4
S'1279'
p209
sg6
S'dd357e7ebd99f0c5ef623e8d1aec9934'
p210
sg8
S'xx02a8f9be367d66e4981b2ab97fb25ae6'
p211
sg10
S'xx84969784dda9fa89fb5e4ac2cc0e2f85'
p212
sg12
S'xx6b34bae3d40572171add9deebb43a537'
p213
sg14
S'Mozilla/5.0 (Linux; Android 4.4.4; OPPO R7 Build/KTU84P) AppleWebKit/537.36 (KHTML, like Gecko) Version/4.0 Chrome/37.0.0.0 Mobile MQQBrowser/6.8 TBS/036869 Safari/537.36 MicroMessenger/6.3.27.880 NetType/cmnet Language/zh_CN'
p214
sg16
S'4baace542f4e3829ab1a3ac87615ce68'
p215
sa(dp216
g2
S'42244'
p217
sg4
S'1289'
p218
sg6
S'dd357e7ebd99f0c5ef623e8d1aec9934'
p219
sg8
S'xx02a8f9be367d66e4981b2ab97fb25ae6'
p220
sg10
S'xx84969784dda9fa89fb5e4ac2cc0e2f85'
p221
sg12
S'xx6b34bae3d40572171add9deebb43a537'
p222
sg14
S'Mozilla/5.0 (Linux; Android 4.4.4; OPPO R7 Build/KTU84P) AppleWebKit/537.36 (KHTML, like Gecko) Version/4.0 Chrome/37.0.0.0 Mobile MQQBrowser/6.8 TBS/036869 Safari/537.36 MicroMessenger/6.3.27.880 NetType/cmnet Language/zh_CN'
p223
sg16
S'4baace542f4e3829ab1a3ac87615ce68'
p224
sa(dp225
g2
S'24726'
p226
sg4
S'1795'
p227
sg6
S'b65f797cfa2796d0cef4d0a27a74c915'
p228
sg8
S'xxc5ef245d942162c14866fff512947c5f'
p229
sg10
S'xx84969784dda9fa89fb5e4ac2cc0e2f85'
p230
sg12
S'xx6b34bae3d40572171add9deebb43a537'
p231
sg14
S'Mozilla/5.0 (Linux; Android 4.4.4; OPPO R7 Build/KTU84P) AppleWebKit/537.36 (KHTML, like Gecko) Version/4.0 Chrome/37.0.0.0 Mobile MQQBrowser/6.8 TBS/036849 Safari/537.36 MicroMessenger/6.3.27.880 NetType/WIFI Language/zh_CN'
p232
sg16
S'692d794d30b67b69ac6287e80f33b05c'
p233
sa(dp234
g2
S'24726'
p235
sg4
S'1808'
p236
sg6
S'b65f797cfa2796d0cef4d0a27a74c915'
p237
sg8
S'xxc5ef245d942162c14866fff512947c5f'
p238
sg10
S'xx84969784dda9fa89fb5e4ac2cc0e2f85'
p239
sg12
S'xx6b34bae3d40572171add9deebb43a537'
p240
sg14
S'Mozilla/5.0 (Linux; Android 4.4.4; OPPO R7 Build/KTU84P) AppleWebKit/537.36 (KHTML, like Gecko) Version/4.0 Chrome/37.0.0.0 Mobile MQQBrowser/6.8 TBS/036849 Safari/537.36 MicroMessenger/6.3.27.880 NetType/WIFI Language/zh_CN'
p241
sg16
S'692d794d30b67b69ac6287e80f33b05c'
p242
sa(dp243
g2
S'24726'
p244
sg4
S'1844'
p245
sg6
S'b65f797cfa2796d0cef4d0a27a74c915'
p246
sg8
S'xxc5ef245d942162c14866fff512947c5f'
p247
sg10
S'xx84969784dda9fa89fb5e4ac2cc0e2f85'
p248
sg12
S'xx6b34bae3d40572171add9deebb43a537'
p249
sg14
S'Mozilla/5.0 (Linux; Android 4.4.4; OPPO R7 Build/KTU84P) AppleWebKit/537.36 (KHTML, like Gecko) Version/4.0 Chrome/37.0.0.0 Mobile MQQBrowser/6.8 TBS/036849 Safari/537.36 MicroMessenger/6.3.27.880 NetType/WIFI Language/zh_CN'
p250
sg16
S'692d794d30b67b69ac6287e80f33b05c'
p251
sa(dp252
g2
S'24726'
p253
sg4
S'1849'
p254
sg6
S'b65f797cfa2796d0cef4d0a27a74c915'
p255
sg8
S'xxc5ef245d942162c14866fff512947c5f'
p256
sg10
S'xx84969784dda9fa89fb5e4ac2cc0e2f85'
p257
sg12
S'xx6b34bae3d40572171add9deebb43a537'
p258
sg14
S'Mozilla/5.0 (Linux; Android 4.4.4; OPPO R7 Build/KTU84P) AppleWebKit/537.36 (KHTML, like Gecko) Version/4.0 Chrome/37.0.0.0 Mobile MQQBrowser/6.8 TBS/036849 Safari/537.36 MicroMessenger/6.3.27.880 NetType/WIFI Language/zh_CN'
p259
sg16
S'692d794d30b67b69ac6287e80f33b05c'
p260
sa(dp261
g2
S'24726'
p262
sg4
S'2344'
p263
sg6
S'b65f797cfa2796d0cef4d0a27a74c915'
p264
sg8
S'xxc5ef245d942162c14866fff512947c5f'
p265
sg10
S'xx84969784dda9fa89fb5e4ac2cc0e2f85'
p266
sg12
S'xx6b34bae3d40572171add9deebb43a537'
p267
sg14
S'Mozilla/5.0 (Linux; Android 4.4.4; OPPO R7 Build/KTU84P) AppleWebKit/537.36 (KHTML, like Gecko) Version/4.0 Chrome/37.0.0.0 Mobile MQQBrowser/6.8 TBS/036849 Safari/537.36 MicroMessenger/6.3.27.880 NetType/WIFI Language/zh_CN'
p268
sg16
S'692d794d30b67b69ac6287e80f33b05c'
p269
sa(dp270
g2
S'24726'
p271
sg4
S'2359'
p272
sg6
S'b65f797cfa2796d0cef4d0a27a74c915'
p273
sg8
S'xxc5ef245d942162c14866fff512947c5f'
p274
sg10
S'xx84969784dda9fa89fb5e4ac2cc0e2f85'
p275
sg12
S'xx6b34bae3d40572171add9deebb43a537'
p276
sg14
S'Mozilla/5.0 (Linux; Android 4.4.4; OPPO R7 Build/KTU84P) AppleWebKit/537.36 (KHTML, like Gecko) Version/4.0 Chrome/37.0.0.0 Mobile MQQBrowser/6.8 TBS/036849 Safari/537.36 MicroMessenger/6.3.27.880 NetType/WIFI Language/zh_CN'
p277
sg16
S'692d794d30b67b69ac6287e80f33b05c'
p278
sa(dp279
g2
S'16498'
p280
sg4
S'3215'
p281
sg6
S'b61f047e76ef94b4a4035e953a4ae79a'
p282
sg8
S'xx591b23d1394b12890fc89c1ad88b4ddc'
p283
sg10
S'xx84969784dda9fa89fb5e4ac2cc0e2f85'
p284
sg12
S'xx6b34bae3d40572171add9deebb43a537'
p285
sg14
S'Mozilla/5.0 (Linux; Android 4.4.4; OPPO R7 Build/KTU84P) AppleWebKit/537.36 (KHTML, like Gecko) Version/4.0 Chrome/37.0.0.0 Mobile MQQBrowser/6.8 TBS/036824 Safari/537.36 MicroMessenger/6.3.27.880 NetType/WIFI Language/zh_CN'
p286
sg16
S'd4b731f1f22dabf3f2c528fa7eaca95b'
p287
sa(dp288
g2
S'16498'
p289
sg4
S'3229'
p290
sg6
S'b61f047e76ef94b4a4035e953a4ae79a'
p291
sg8
S'xx591b23d1394b12890fc89c1ad88b4ddc'
p292
sg10
S'xx84969784dda9fa89fb5e4ac2cc0e2f85'
p293
sg12
S'xx6b34bae3d40572171add9deebb43a537'
p294
sg14
S'Mozilla/5.0 (Linux; Android 4.4.4; OPPO R7 Build/KTU84P) AppleWebKit/537.36 (KHTML, like Gecko) Version/4.0 Chrome/37.0.0.0 Mobile MQQBrowser/6.8 TBS/036824 Safari/537.36 MicroMessenger/6.3.27.880 NetType/WIFI Language/zh_CN'
p295
sg16
S'd4b731f1f22dabf3f2c528fa7eaca95b'
p296
sa(dp297
g2
S'42244'
p298
sg4
S'7647'
p299
sg6
S'dd357e7ebd99f0c5ef623e8d1aec9934'
p300
sg8
S'xx02a8f9be367d66e4981b2ab97fb25ae6'
p301
sg10
S'xx84969784dda9fa89fb5e4ac2cc0e2f85'
p302
sg12
S'xx6b34bae3d40572171add9deebb43a537'
p303
sg14
S'Mozilla/5.0 (Linux; Android 4.4.4; OPPO R7 Build/KTU84P) AppleWebKit/537.36 (KHTML, like Gecko) Version/4.0 Chrome/37.0.0.0 Mobile MQQBrowser/6.8 TBS/036869 Safari/537.36 MicroMessenger/6.3.27.880 NetType/cmnet Language/zh_CN'
p304
sg16
S'4baace542f4e3829ab1a3ac87615ce68'
p305
sa(dp306
g2
S'42244'
p307
sg4
S'7658'
p308
sg6
S'dd357e7ebd99f0c5ef623e8d1aec9934'
p309
sg8
S'xx02a8f9be367d66e4981b2ab97fb25ae6'
p310
sg10
S'xx84969784dda9fa89fb5e4ac2cc0e2f85'
p311
sg12
S'xx6b34bae3d40572171add9deebb43a537'
p312
sg14
S'Mozilla/5.0 (Linux; Android 4.4.4; OPPO R7 Build/KTU84P) AppleWebKit/537.36 (KHTML, like Gecko) Version/4.0 Chrome/37.0.0.0 Mobile MQQBrowser/6.8 TBS/036869 Safari/537.36 MicroMessenger/6.3.27.880 NetType/cmnet Language/zh_CN'
p313
sg16
S'4baace542f4e3829ab1a3ac87615ce68'
p314
sa(dp315
g2
S'42244'
p316
sg4
S'7724'
p317
sg6
S'dd357e7ebd99f0c5ef623e8d1aec9934'
p318
sg8
S'xx02a8f9be367d66e4981b2ab97fb25ae6'
p319
sg10
S'xx84969784dda9fa89fb5e4ac2cc0e2f85'
p320
sg12
S'xx6b34bae3d40572171add9deebb43a537'
p321
sg14
S'Mozilla/5.0 (Linux; Android 4.4.4; OPPO R7 Build/KTU84P) AppleWebKit/537.36 (KHTML, like Gecko) Version/4.0 Chrome/37.0.0.0 Mobile MQQBrowser/6.8 TBS/036869 Safari/537.36 MicroMessenger/6.3.27.880 NetType/cmnet Language/zh_CN'
p322
sg16
S'4baace542f4e3829ab1a3ac87615ce68'
p323
sa(dp324
g2
S'42244'
p325
sg4
S'7750'
p326
sg6
S'dd357e7ebd99f0c5ef623e8d1aec9934'
p327
sg8
S'xx02a8f9be367d66e4981b2ab97fb25ae6'
p328
sg10
S'xx84969784dda9fa89fb5e4ac2cc0e2f85'
p329
sg12
S'xx6b34bae3d40572171add9deebb43a537'
p330
sg14
S'Mozilla/5.0 (Linux; Android 4.4.4; OPPO R7 Build/KTU84P) AppleWebKit/537.36 (KHTML, like Gecko) Version/4.0 Chrome/37.0.0.0 Mobile MQQBrowser/6.8 TBS/036869 Safari/537.36 MicroMessenger/6.3.27.880 NetType/cmnet Language/zh_CN'
p331
sg16
S'4baace542f4e3829ab1a3ac87615ce68'
p332
sa(dp333
g2
S'16498'
p334
sg4
S'8115'
p335
sg6
S'b61f047e76ef94b4a4035e953a4ae79a'
p336
sg8
S'xx591b23d1394b12890fc89c1ad88b4ddc'
p337
sg10
S'xx84969784dda9fa89fb5e4ac2cc0e2f85'
p338
sg12
S'xx6b34bae3d40572171add9deebb43a537'
p339
sg14
S'Mozilla/5.0 (Linux; Android 4.4.4; OPPO R7 Build/KTU84P) AppleWebKit/537.36 (KHTML, like Gecko) Version/4.0 Chrome/37.0.0.0 Mobile MQQBrowser/6.8 TBS/036824 Safari/537.36 MicroMessenger/6.3.27.880 NetType/WIFI Language/zh_CN'
p340
sg16
S'd4b731f1f22dabf3f2c528fa7eaca95b'
p341
sa(dp342
g2
S'42244'
p343
sg4
S'8274'
p344
sg6
S'dd357e7ebd99f0c5ef623e8d1aec9934'
p345
sg8
S'xx02a8f9be367d66e4981b2ab97fb25ae6'
p346
sg10
S'xx84969784dda9fa89fb5e4ac2cc0e2f85'
p347
sg12
S'xx6b34bae3d40572171add9deebb43a537'
p348
sg14
S'Mozilla/5.0 (Linux; Android 4.4.4; OPPO R7 Build/KTU84P) AppleWebKit/537.36 (KHTML, like Gecko) Version/4.0 Chrome/37.0.0.0 Mobile MQQBrowser/6.8 TBS/036869 Safari/537.36 MicroMessenger/6.3.27.880 NetType/cmnet Language/zh_CN'
p349
sg16
S'4baace542f4e3829ab1a3ac87615ce68'
p350
sa(dp351
g2
S'42244'
p352
sg4
S'8285'
p353
sg6
S'dd357e7ebd99f0c5ef623e8d1aec9934'
p354
sg8
S'xx02a8f9be367d66e4981b2ab97fb25ae6'
p355
sg10
S'xx84969784dda9fa89fb5e4ac2cc0e2f85'
p356
sg12
S'xx6b34bae3d40572171add9deebb43a537'
p357
sg14
S'Mozilla/5.0 (Linux; Android 4.4.4; OPPO R7 Build/KTU84P) AppleWebKit/537.36 (KHTML, like Gecko) Version/4.0 Chrome/37.0.0.0 Mobile MQQBrowser/6.8 TBS/036869 Safari/537.36 MicroMessenger/6.3.27.880 NetType/cmnet Language/zh_CN'
p358
sg16
S'4baace542f4e3829ab1a3ac87615ce68'
p359
sa(dp360
g2
S'42244'
p361
sg4
S'8298'
p362
sg6
S'dd357e7ebd99f0c5ef623e8d1aec9934'
p363
sg8
S'xx02a8f9be367d66e4981b2ab97fb25ae6'
p364
sg10
S'xx84969784dda9fa89fb5e4ac2cc0e2f85'
p365
sg12
S'xx6b34bae3d40572171add9deebb43a537'
p366
sg14
S'Mozilla/5.0 (Linux; Android 4.4.4; OPPO R7 Build/KTU84P) AppleWebKit/537.36 (KHTML, like Gecko) Version/4.0 Chrome/37.0.0.0 Mobile MQQBrowser/6.8 TBS/036869 Safari/537.36 MicroMessenger/6.3.27.880 NetType/cmnet Language/zh_CN'
p367
sg16
S'4baace542f4e3829ab1a3ac87615ce68'
p368
sa.