(lp0
(dp1
S'user_id'
p2
S'39907'
p3
sS'data_id'
p4
S'3809'
p5
sS'ip'
p6
S'5b48c78089c6f21a864d9e71cbaf0c9d'
p7
sS'phone_B'
p8
S'xx92123c0245c781b477f84abd11c1ec3d'
p9
sS'phone_C'
p10
S'xxa6b433905a180e4ce2b451cdfe38d862'
p11
sS'phone_A'
p12
S'xx6b82225a3268cff2c7de2f68dcd66430'
p13
sS'user_agent'
p14
S'Mozilla/5.0 (Linux; Android 5.1.1; ZTE N939Sc Build/LMY47V; wv) AppleWebKit/537.36 (KHTML, like Gecko) Version/4.0 Chrome/43.0.2357.121 Mobile Safari/537.36 MicroMessenger/6.3.27.880 NetType/WIFI Language/zh_CN'
p15
sS'ua'
p16
S'7ef54c92cebbb894b8a4c0e6e03b7975'
p17
sa(dp18
g2
S'39907'
p19
sg4
S'3828'
p20
sg6
S'5b48c78089c6f21a864d9e71cbaf0c9d'
p21
sg8
S'xx92123c0245c781b477f84abd11c1ec3d'
p22
sg10
S'xxa6b433905a180e4ce2b451cdfe38d862'
p23
sg12
S'xx6b82225a3268cff2c7de2f68dcd66430'
p24
sg14
S'Mozilla/5.0 (Linux; Android 5.1.1; ZTE N939Sc Build/LMY47V; wv) AppleWebKit/537.36 (KHTML, like Gecko) Version/4.0 Chrome/43.0.2357.121 Mobile Safari/537.36 MicroMessenger/6.3.27.880 NetType/WIFI Language/zh_CN'
p25
sg16
S'7ef54c92cebbb894b8a4c0e6e03b7975'
p26
sa(dp27
g2
S'39907'
p28
sg4
S'3847'
p29
sg6
S'5b48c78089c6f21a864d9e71cbaf0c9d'
p30
sg8
S'xx92123c0245c781b477f84abd11c1ec3d'
p31
sg10
S'xxa6b433905a180e4ce2b451cdfe38d862'
p32
sg12
S'xx6b82225a3268cff2c7de2f68dcd66430'
p33
sg14
S'Mozilla/5.0 (Linux; Android 5.1.1; ZTE N939Sc Build/LMY47V; wv) AppleWebKit/537.36 (KHTML, like Gecko) Version/4.0 Chrome/43.0.2357.121 Mobile Safari/537.36 MicroMessenger/6.3.27.880 NetType/WIFI Language/zh_CN'
p34
sg16
S'7ef54c92cebbb894b8a4c0e6e03b7975'
p35
sa.