(lp0
(dp1
S'user_id'
p2
S'49733'
p3
sS'data_id'
p4
S'6'
p5
sS'ip'
p6
S'951ddfb533939e78289404d2b29d65c9'
p7
sS'phone_B'
p8
S'xxd6783c381fb54181e2247c6693a8f3da'
p9
sS'phone_C'
p10
S'xxd28321b7c6d1358dd5b62101b960506a'
p11
sS'phone_A'
p12
S'xx6cc8c17713a9b6fe1a8c30a7cf20d628'
p13
sS'user_agent'
p14
S'Mozilla/5.0 (Linux; Android 5.1; vivo X6Plus D Build/LMY47I) AppleWebKit/537.36 (KHTML, like Gecko) Version/4.0 Chrome/37.0.0.0 Mobile MQQBrowser/6.8 TBS/036869 Safari/537.36 MicroMessenger/6.3.25.861 NetType/WIFI Language/zh_CN'
p15
sS'ua'
p16
S'ed148ea8d13a96e98cd2d3cfb07559f1'
p17
sa(dp18
g2
S'49733'
p19
sg4
S'18'
p20
sg6
S'951ddfb533939e78289404d2b29d65c9'
p21
sg8
S'xxd6783c381fb54181e2247c6693a8f3da'
p22
sg10
S'xxd28321b7c6d1358dd5b62101b960506a'
p23
sg12
S'xx6cc8c17713a9b6fe1a8c30a7cf20d628'
p24
sg14
S'Mozilla/5.0 (Linux; Android 5.1; vivo X6Plus D Build/LMY47I) AppleWebKit/537.36 (KHTML, like Gecko) Version/4.0 Chrome/37.0.0.0 Mobile MQQBrowser/6.8 TBS/036869 Safari/537.36 MicroMessenger/6.3.25.861 NetType/WIFI Language/zh_CN'
p25
sg16
S'ed148ea8d13a96e98cd2d3cfb07559f1'
p26
sa(dp27
g2
S'49733'
p28
sg4
S'30'
p29
sg6
S'951ddfb533939e78289404d2b29d65c9'
p30
sg8
S'xxd6783c381fb54181e2247c6693a8f3da'
p31
sg10
S'xxd28321b7c6d1358dd5b62101b960506a'
p32
sg12
S'xx6cc8c17713a9b6fe1a8c30a7cf20d628'
p33
sg14
S'Mozilla/5.0 (Linux; Android 5.1; vivo X6Plus D Build/LMY47I) AppleWebKit/537.36 (KHTML, like Gecko) Version/4.0 Chrome/37.0.0.0 Mobile MQQBrowser/6.8 TBS/036869 Safari/537.36 MicroMessenger/6.3.25.861 NetType/WIFI Language/zh_CN'
p34
sg16
S'ed148ea8d13a96e98cd2d3cfb07559f1'
p35
sa(dp36
g2
S'30418'
p37
sg4
S'6171'
p38
sg6
S'ffa598e601fb6d42317babdd99e9dbcd'
p39
sg8
S'xxe8a0dd5375532a7e176affd4cc6d532a'
p40
sg10
S'xxd28321b7c6d1358dd5b62101b960506a'
p41
sg12
S'xx6cc8c17713a9b6fe1a8c30a7cf20d628'
p42
sg14
S'Mozilla/5.0 (Linux; Android 5.1; vivo X6Plus D Build/LMY47I) AppleWebKit/537.36 (KHTML, like Gecko) Version/4.0 Chrome/37.0.0.0 Mobile MQQBrowser/6.8 TBS/036869 Safari/537.36 MicroMessenger/6.3.27.880 NetType/WIFI Language/zh_CN'
p43
sg16
S'146e3533dbe96a4842b9e54aca67d334'
p44
sa(dp45
g2
S'30418'
p46
sg4
S'6187'
p47
sg6
S'ffa598e601fb6d42317babdd99e9dbcd'
p48
sg8
S'xxe8a0dd5375532a7e176affd4cc6d532a'
p49
sg10
S'xxd28321b7c6d1358dd5b62101b960506a'
p50
sg12
S'xx6cc8c17713a9b6fe1a8c30a7cf20d628'
p51
sg14
S'Mozilla/5.0 (Linux; Android 5.1; vivo X6Plus D Build/LMY47I) AppleWebKit/537.36 (KHTML, like Gecko) Version/4.0 Chrome/37.0.0.0 Mobile MQQBrowser/6.8 TBS/036869 Safari/537.36 MicroMessenger/6.3.27.880 NetType/WIFI Language/zh_CN'
p52
sg16
S'146e3533dbe96a4842b9e54aca67d334'
p53
sa(dp54
g2
S'30418'
p55
sg4
S'6201'
p56
sg6
S'ffa598e601fb6d42317babdd99e9dbcd'
p57
sg8
S'xxe8a0dd5375532a7e176affd4cc6d532a'
p58
sg10
S'xxd28321b7c6d1358dd5b62101b960506a'
p59
sg12
S'xx6cc8c17713a9b6fe1a8c30a7cf20d628'
p60
sg14
S'Mozilla/5.0 (Linux; Android 5.1; vivo X6Plus D Build/LMY47I) AppleWebKit/537.36 (KHTML, like Gecko) Version/4.0 Chrome/37.0.0.0 Mobile MQQBrowser/6.8 TBS/036869 Safari/537.36 MicroMessenger/6.3.27.880 NetType/WIFI Language/zh_CN'
p61
sg16
S'146e3533dbe96a4842b9e54aca67d334'
p62
sa.