(lp0
(dp1
S'user_id'
p2
S'32454'
p3
sS'data_id'
p4
S'807'
p5
sS'ip'
p6
S'4bc6b35d24d9d8caff31f55075521d54'
p7
sS'phone_B'
p8
S'xxcc7fe913c7fdda244955b47404f58575'
p9
sS'phone_C'
p10
S'xx40127b3a140751e77a9cc1579b2ecdf2'
p11
sS'phone_A'
p12
S'xx6c5db90dea8a04f766948528f24631cb'
p13
sS'user_agent'
p14
S'Mozilla/5.0 (Linux; Android 5.1.1; OPPO A53 Build/LMY47V) AppleWebKit/537.36 (KHTML, like Gecko) Version/4.0 Chrome/37.0.0.0 Mobile MQQBrowser/6.8 TBS/036849 Safari/537.36 MicroMessenger/6.3.27.880 NetType/WIFI Language/zh_CN'
p15
sS'ua'
p16
S'4cf159143426b492ac0c827651c43a7f'
p17
sa(dp18
g2
S'32454'
p19
sg4
S'821'
p20
sg6
S'4bc6b35d24d9d8caff31f55075521d54'
p21
sg8
S'xxcc7fe913c7fdda244955b47404f58575'
p22
sg10
S'xx40127b3a140751e77a9cc1579b2ecdf2'
p23
sg12
S'xx6c5db90dea8a04f766948528f24631cb'
p24
sg14
S'Mozilla/5.0 (Linux; Android 5.1.1; OPPO A53 Build/LMY47V) AppleWebKit/537.36 (KHTML, like Gecko) Version/4.0 Chrome/37.0.0.0 Mobile MQQBrowser/6.8 TBS/036849 Safari/537.36 MicroMessenger/6.3.27.880 NetType/WIFI Language/zh_CN'
p25
sg16
S'4cf159143426b492ac0c827651c43a7f'
p26
sa(dp27
g2
S'32454'
p28
sg4
S'863'
p29
sg6
S'4bc6b35d24d9d8caff31f55075521d54'
p30
sg8
S'xxcc7fe913c7fdda244955b47404f58575'
p31
sg10
S'xx40127b3a140751e77a9cc1579b2ecdf2'
p32
sg12
S'xx6c5db90dea8a04f766948528f24631cb'
p33
sg14
S'Mozilla/5.0 (Linux; Android 5.1.1; OPPO A53 Build/LMY47V) AppleWebKit/537.36 (KHTML, like Gecko) Version/4.0 Chrome/37.0.0.0 Mobile MQQBrowser/6.8 TBS/036849 Safari/537.36 MicroMessenger/6.3.27.880 NetType/WIFI Language/zh_CN'
p34
sg16
S'4cf159143426b492ac0c827651c43a7f'
p35
sa(dp36
g2
S'28302'
p37
sg4
S'2648'
p38
sg6
S'cb1f876f264de3e6820a60f9f976cfd5'
p39
sg8
S'xx07d6458830c35a9ef643effef74feaeb'
p40
sg10
S'xx40127b3a140751e77a9cc1579b2ecdf2'
p41
sg12
S'xx6c5db90dea8a04f766948528f24631cb'
p42
sg14
S'Mozilla/5.0 (Linux; Android 5.1.1; OPPO A53 Build/LMY47V) AppleWebKit/537.36 (KHTML, like Gecko) Version/4.0 Chrome/37.0.0.0 Mobile MQQBrowser/6.8 TBS/036869 Safari/537.36 MicroMessenger/6.3.27.880 NetType/WIFI Language/zh_CN'
p43
sg16
S'1b39c6f3c4bfa8a029341e93e9420c34'
p44
sa(dp45
g2
S'28302'
p46
sg4
S'2671'
p47
sg6
S'cb1f876f264de3e6820a60f9f976cfd5'
p48
sg8
S'xx07d6458830c35a9ef643effef74feaeb'
p49
sg10
S'xx40127b3a140751e77a9cc1579b2ecdf2'
p50
sg12
S'xx6c5db90dea8a04f766948528f24631cb'
p51
sg14
S'Mozilla/5.0 (Linux; Android 5.1.1; OPPO A53 Build/LMY47V) AppleWebKit/537.36 (KHTML, like Gecko) Version/4.0 Chrome/37.0.0.0 Mobile MQQBrowser/6.8 TBS/036869 Safari/537.36 MicroMessenger/6.3.27.880 NetType/WIFI Language/zh_CN'
p52
sg16
S'1b39c6f3c4bfa8a029341e93e9420c34'
p53
sa(dp54
g2
S'28302'
p55
sg4
S'2688'
p56
sg6
S'cb1f876f264de3e6820a60f9f976cfd5'
p57
sg8
S'xx07d6458830c35a9ef643effef74feaeb'
p58
sg10
S'xx40127b3a140751e77a9cc1579b2ecdf2'
p59
sg12
S'xx6c5db90dea8a04f766948528f24631cb'
p60
sg14
S'Mozilla/5.0 (Linux; Android 5.1.1; OPPO A53 Build/LMY47V) AppleWebKit/537.36 (KHTML, like Gecko) Version/4.0 Chrome/37.0.0.0 Mobile MQQBrowser/6.8 TBS/036869 Safari/537.36 MicroMessenger/6.3.27.880 NetType/WIFI Language/zh_CN'
p61
sg16
S'1b39c6f3c4bfa8a029341e93e9420c34'
p62
sa(dp63
g2
S'28302'
p64
sg4
S'2799'
p65
sg6
S'cb1f876f264de3e6820a60f9f976cfd5'
p66
sg8
S'xx07d6458830c35a9ef643effef74feaeb'
p67
sg10
S'xx40127b3a140751e77a9cc1579b2ecdf2'
p68
sg12
S'xx6c5db90dea8a04f766948528f24631cb'
p69
sg14
S'Mozilla/5.0 (Linux; Android 5.1.1; OPPO A53 Build/LMY47V) AppleWebKit/537.36 (KHTML, like Gecko) Version/4.0 Chrome/37.0.0.0 Mobile MQQBrowser/6.8 TBS/036869 Safari/537.36 MicroMessenger/6.3.27.880 NetType/WIFI Language/zh_CN'
p70
sg16
S'1b39c6f3c4bfa8a029341e93e9420c34'
p71
sa(dp72
g2
S'28518'
p73
sg4
S'3042'
p74
sg6
S'cb1f876f264de3e6820a60f9f976cfd5'
p75
sg8
S'xx07d6458830c35a9ef643effef74feaeb'
p76
sg10
S'xx40127b3a140751e77a9cc1579b2ecdf2'
p77
sg12
S'xx6c5db90dea8a04f766948528f24631cb'
p78
sg14
S'Mozilla/5.0 (Linux; Android 5.1.1; OPPO A53 Build/LMY47V) AppleWebKit/537.36 (KHTML, like Gecko) Version/4.0 Chrome/37.0.0.0 Mobile MQQBrowser/6.8 TBS/036869 Safari/537.36 MicroMessenger/6.3.27.880 NetType/WIFI Language/zh_CN'
p79
sg16
S'1b39c6f3c4bfa8a029341e93e9420c34'
p80
sa(dp81
g2
S'28518'
p82
sg4
S'3063'
p83
sg6
S'cb1f876f264de3e6820a60f9f976cfd5'
p84
sg8
S'xx07d6458830c35a9ef643effef74feaeb'
p85
sg10
S'xx40127b3a140751e77a9cc1579b2ecdf2'
p86
sg12
S'xx6c5db90dea8a04f766948528f24631cb'
p87
sg14
S'Mozilla/5.0 (Linux; Android 5.1.1; OPPO A53 Build/LMY47V) AppleWebKit/537.36 (KHTML, like Gecko) Version/4.0 Chrome/37.0.0.0 Mobile MQQBrowser/6.8 TBS/036869 Safari/537.36 MicroMessenger/6.3.27.880 NetType/WIFI Language/zh_CN'
p88
sg16
S'1b39c6f3c4bfa8a029341e93e9420c34'
p89
sa(dp90
g2
S'28518'
p91
sg4
S'3083'
p92
sg6
S'cb1f876f264de3e6820a60f9f976cfd5'
p93
sg8
S'xx07d6458830c35a9ef643effef74feaeb'
p94
sg10
S'xx40127b3a140751e77a9cc1579b2ecdf2'
p95
sg12
S'xx6c5db90dea8a04f766948528f24631cb'
p96
sg14
S'Mozilla/5.0 (Linux; Android 5.1.1; OPPO A53 Build/LMY47V) AppleWebKit/537.36 (KHTML, like Gecko) Version/4.0 Chrome/37.0.0.0 Mobile MQQBrowser/6.8 TBS/036869 Safari/537.36 MicroMessenger/6.3.27.880 NetType/WIFI Language/zh_CN'
p97
sg16
S'1b39c6f3c4bfa8a029341e93e9420c34'
p98
sa(dp99
g2
S'28518'
p100
sg4
S'3094'
p101
sg6
S'cb1f876f264de3e6820a60f9f976cfd5'
p102
sg8
S'xx07d6458830c35a9ef643effef74feaeb'
p103
sg10
S'xx40127b3a140751e77a9cc1579b2ecdf2'
p104
sg12
S'xx6c5db90dea8a04f766948528f24631cb'
p105
sg14
S'Mozilla/5.0 (Linux; Android 5.1.1; OPPO A53 Build/LMY47V) AppleWebKit/537.36 (KHTML, like Gecko) Version/4.0 Chrome/37.0.0.0 Mobile MQQBrowser/6.8 TBS/036869 Safari/537.36 MicroMessenger/6.3.27.880 NetType/WIFI Language/zh_CN'
p106
sg16
S'1b39c6f3c4bfa8a029341e93e9420c34'
p107
sa(dp108
g2
S'21757'
p109
sg4
S'3896'
p110
sg6
S'bfbc90d014bc9e8c3ce11a116f0afef5'
p111
sg8
S'xxcc7fe913c7fdda244955b47404f58575'
p112
sg10
S'xx40127b3a140751e77a9cc1579b2ecdf2'
p113
sg12
S'xx6c5db90dea8a04f766948528f24631cb'
p114
sg14
S'Mozilla/5.0 (Linux; Android 5.1.1; OPPO A53 Build/LMY47V) AppleWebKit/537.36 (KHTML, like Gecko) Version/4.0 Chrome/37.0.0.0 Mobile MQQBrowser/6.8 TBS/036849 Safari/537.36 MicroMessenger/6.3.27.880 NetType/WIFI Language/zh_CN'
p115
sg16
S'4cf159143426b492ac0c827651c43a7f'
p116
sa(dp117
g2
S'21757'
p118
sg4
S'3920'
p119
sg6
S'bfbc90d014bc9e8c3ce11a116f0afef5'
p120
sg8
S'xxcc7fe913c7fdda244955b47404f58575'
p121
sg10
S'xx40127b3a140751e77a9cc1579b2ecdf2'
p122
sg12
S'xx6c5db90dea8a04f766948528f24631cb'
p123
sg14
S'Mozilla/5.0 (Linux; Android 5.1.1; OPPO A53 Build/LMY47V) AppleWebKit/537.36 (KHTML, like Gecko) Version/4.0 Chrome/37.0.0.0 Mobile MQQBrowser/6.8 TBS/036849 Safari/537.36 MicroMessenger/6.3.27.880 NetType/WIFI Language/zh_CN'
p124
sg16
S'4cf159143426b492ac0c827651c43a7f'
p125
sa(dp126
g2
S'21757'
p127
sg4
S'4082'
p128
sg6
S'bfbc90d014bc9e8c3ce11a116f0afef5'
p129
sg8
S'xxcc7fe913c7fdda244955b47404f58575'
p130
sg10
S'xx40127b3a140751e77a9cc1579b2ecdf2'
p131
sg12
S'xx6c5db90dea8a04f766948528f24631cb'
p132
sg14
S'Mozilla/5.0 (Linux; Android 5.1.1; OPPO A53 Build/LMY47V) AppleWebKit/537.36 (KHTML, like Gecko) Version/4.0 Chrome/37.0.0.0 Mobile MQQBrowser/6.8 TBS/036849 Safari/537.36 MicroMessenger/6.3.27.880 NetType/WIFI Language/zh_CN'
p133
sg16
S'4cf159143426b492ac0c827651c43a7f'
p134
sa(dp135
g2
S'5800'
p136
sg4
S'4735'
p137
sg6
S'4870d930dc6b6e799fc103399feb30ff'
p138
sg8
S'xxcc7fe913c7fdda244955b47404f58575'
p139
sg10
S'xx40127b3a140751e77a9cc1579b2ecdf2'
p140
sg12
S'xx6c5db90dea8a04f766948528f24631cb'
p141
sg14
S'Mozilla/5.0 (Linux; Android 5.1.1; OPPO A53 Build/LMY47V) AppleWebKit/537.36 (KHTML, like Gecko) Version/4.0 Chrome/37.0.0.0 Mobile MQQBrowser/6.8 TBS/036849 Safari/537.36 MicroMessenger/6.3.27.880 NetType/WIFI Language/zh_CN'
p142
sg16
S'4cf159143426b492ac0c827651c43a7f'
p143
sa(dp144
g2
S'37940'
p145
sg4
S'5142'
p146
sg6
S'2895900db82eff118dff5a88ec3bd7bf'
p147
sg8
S'xxa3f9babcbaafd7d2e72c4cc28a4f7b27'
p148
sg10
S'xx40127b3a140751e77a9cc1579b2ecdf2'
p149
sg12
S'xx6c5db90dea8a04f766948528f24631cb'
p150
sg14
S'Mozilla/5.0 (Linux; Android 5.1.1; OPPO A53 Build/LMY47V) AppleWebKit/537.36 (KHTML, like Gecko) Version/4.0 Chrome/37.0.0.0 Mobile MQQBrowser/6.8 TBS/036849 Safari/537.36 MicroMessenger/6.3.27.880 NetType/cmnet Language/zh_CN'
p151
sg16
S'd818594fa8435044cc3e3d1df499ce17'
p152
sa(dp153
g2
S'37940'
p154
sg4
S'5159'
p155
sg6
S'2895900db82eff118dff5a88ec3bd7bf'
p156
sg8
S'xxa3f9babcbaafd7d2e72c4cc28a4f7b27'
p157
sg10
S'xx40127b3a140751e77a9cc1579b2ecdf2'
p158
sg12
S'xx6c5db90dea8a04f766948528f24631cb'
p159
sg14
S'Mozilla/5.0 (Linux; Android 5.1.1; OPPO A53 Build/LMY47V) AppleWebKit/537.36 (KHTML, like Gecko) Version/4.0 Chrome/37.0.0.0 Mobile MQQBrowser/6.8 TBS/036849 Safari/537.36 MicroMessenger/6.3.27.880 NetType/cmnet Language/zh_CN'
p160
sg16
S'd818594fa8435044cc3e3d1df499ce17'
p161
sa(dp162
g2
S'37940'
p163
sg4
S'5183'
p164
sg6
S'2895900db82eff118dff5a88ec3bd7bf'
p165
sg8
S'xxa3f9babcbaafd7d2e72c4cc28a4f7b27'
p166
sg10
S'xx40127b3a140751e77a9cc1579b2ecdf2'
p167
sg12
S'xx6c5db90dea8a04f766948528f24631cb'
p168
sg14
S'Mozilla/5.0 (Linux; Android 5.1.1; OPPO A53 Build/LMY47V) AppleWebKit/537.36 (KHTML, like Gecko) Version/4.0 Chrome/37.0.0.0 Mobile MQQBrowser/6.8 TBS/036849 Safari/537.36 MicroMessenger/6.3.27.880 NetType/cmnet Language/zh_CN'
p169
sg16
S'd818594fa8435044cc3e3d1df499ce17'
p170
sa(dp171
g2
S'21757'
p172
sg4
S'5414'
p173
sg6
S'fca8f5236f19ebce72d5785aa76f8758'
p174
sg8
S'xxcc7fe913c7fdda244955b47404f58575'
p175
sg10
S'xx40127b3a140751e77a9cc1579b2ecdf2'
p176
sg12
S'xx6c5db90dea8a04f766948528f24631cb'
p177
sg14
S'Mozilla/5.0 (Linux; Android 5.1.1; OPPO A53 Build/LMY47V) AppleWebKit/537.36 (KHTML, like Gecko) Version/4.0 Chrome/37.0.0.0 Mobile MQQBrowser/6.8 TBS/036849 Safari/537.36 MicroMessenger/6.3.27.880 NetType/WIFI Language/zh_CN'
p178
sg16
S'4cf159143426b492ac0c827651c43a7f'
p179
sa(dp180
g2
S'21757'
p181
sg4
S'5426'
p182
sg6
S'fca8f5236f19ebce72d5785aa76f8758'
p183
sg8
S'xxcc7fe913c7fdda244955b47404f58575'
p184
sg10
S'xx40127b3a140751e77a9cc1579b2ecdf2'
p185
sg12
S'xx6c5db90dea8a04f766948528f24631cb'
p186
sg14
S'Mozilla/5.0 (Linux; Android 5.1.1; OPPO A53 Build/LMY47V) AppleWebKit/537.36 (KHTML, like Gecko) Version/4.0 Chrome/37.0.0.0 Mobile MQQBrowser/6.8 TBS/036849 Safari/537.36 MicroMessenger/6.3.27.880 NetType/WIFI Language/zh_CN'
p187
sg16
S'4cf159143426b492ac0c827651c43a7f'
p188
sa(dp189
g2
S'20728'
p190
sg4
S'6051'
p191
sg6
S'a5b44b593f8f8dbc9d4ef18a119f70cf'
p192
sg8
S'xxcc7fe913c7fdda244955b47404f58575'
p193
sg10
S'xx40127b3a140751e77a9cc1579b2ecdf2'
p194
sg12
S'xx6c5db90dea8a04f766948528f24631cb'
p195
sg14
S'Mozilla/5.0 (Linux; Android 5.1.1; OPPO A53 Build/LMY47V) AppleWebKit/537.36 (KHTML, like Gecko) Version/4.0 Chrome/37.0.0.0 Mobile MQQBrowser/6.8 TBS/036849 Safari/537.36 MicroMessenger/6.3.27.880 NetType/WIFI Language/zh_CN'
p196
sg16
S'4cf159143426b492ac0c827651c43a7f'
p197
sa(dp198
g2
S'20728'
p199
sg4
S'6063'
p200
sg6
S'a5b44b593f8f8dbc9d4ef18a119f70cf'
p201
sg8
S'xxcc7fe913c7fdda244955b47404f58575'
p202
sg10
S'xx40127b3a140751e77a9cc1579b2ecdf2'
p203
sg12
S'xx6c5db90dea8a04f766948528f24631cb'
p204
sg14
S'Mozilla/5.0 (Linux; Android 5.1.1; OPPO A53 Build/LMY47V) AppleWebKit/537.36 (KHTML, like Gecko) Version/4.0 Chrome/37.0.0.0 Mobile MQQBrowser/6.8 TBS/036849 Safari/537.36 MicroMessenger/6.3.27.880 NetType/WIFI Language/zh_CN'
p205
sg16
S'4cf159143426b492ac0c827651c43a7f'
p206
sa(dp207
g2
S'28302'
p208
sg4
S'6734'
p209
sg6
S'cb1f876f264de3e6820a60f9f976cfd5'
p210
sg8
S'xx07d6458830c35a9ef643effef74feaeb'
p211
sg10
S'xx40127b3a140751e77a9cc1579b2ecdf2'
p212
sg12
S'xx6c5db90dea8a04f766948528f24631cb'
p213
sg14
S'Mozilla/5.0 (Linux; Android 5.1.1; OPPO A53 Build/LMY47V) AppleWebKit/537.36 (KHTML, like Gecko) Version/4.0 Chrome/37.0.0.0 Mobile MQQBrowser/6.8 TBS/036869 Safari/537.36 MicroMessenger/6.3.27.880 NetType/WIFI Language/zh_CN'
p214
sg16
S'1b39c6f3c4bfa8a029341e93e9420c34'
p215
sa(dp216
g2
S'28518'
p217
sg4
S'6938'
p218
sg6
S'cb1f876f264de3e6820a60f9f976cfd5'
p219
sg8
S'xx07d6458830c35a9ef643effef74feaeb'
p220
sg10
S'xx40127b3a140751e77a9cc1579b2ecdf2'
p221
sg12
S'xx6c5db90dea8a04f766948528f24631cb'
p222
sg14
S'Mozilla/5.0 (Linux; Android 5.1.1; OPPO A53 Build/LMY47V) AppleWebKit/537.36 (KHTML, like Gecko) Version/4.0 Chrome/37.0.0.0 Mobile MQQBrowser/6.8 TBS/036869 Safari/537.36 MicroMessenger/6.3.27.880 NetType/WIFI Language/zh_CN'
p223
sg16
S'1b39c6f3c4bfa8a029341e93e9420c34'
p224
sa(dp225
g2
S'20728'
p226
sg4
S'7516'
p227
sg6
S'6b415139e3d8c4a4ed08169940815b46'
p228
sg8
S'xxcc7fe913c7fdda244955b47404f58575'
p229
sg10
S'xx40127b3a140751e77a9cc1579b2ecdf2'
p230
sg12
S'xx6c5db90dea8a04f766948528f24631cb'
p231
sg14
S'Mozilla/5.0 (Linux; Android 5.1.1; OPPO A53 Build/LMY47V) AppleWebKit/537.36 (KHTML, like Gecko) Version/4.0 Chrome/37.0.0.0 Mobile MQQBrowser/6.8 TBS/036849 Safari/537.36 MicroMessenger/6.3.27.880 NetType/WIFI Language/zh_CN'
p232
sg16
S'4cf159143426b492ac0c827651c43a7f'
p233
sa(dp234
g2
S'20728'
p235
sg4
S'7528'
p236
sg6
S'6b415139e3d8c4a4ed08169940815b46'
p237
sg8
S'xxcc7fe913c7fdda244955b47404f58575'
p238
sg10
S'xx40127b3a140751e77a9cc1579b2ecdf2'
p239
sg12
S'xx6c5db90dea8a04f766948528f24631cb'
p240
sg14
S'Mozilla/5.0 (Linux; Android 5.1.1; OPPO A53 Build/LMY47V) AppleWebKit/537.36 (KHTML, like Gecko) Version/4.0 Chrome/37.0.0.0 Mobile MQQBrowser/6.8 TBS/036849 Safari/537.36 MicroMessenger/6.3.27.880 NetType/WIFI Language/zh_CN'
p241
sg16
S'4cf159143426b492ac0c827651c43a7f'
p242
sa.