(lp0
(dp1
S'user_id'
p2
S'31119'
p3
sS'data_id'
p4
S'1895'
p5
sS'ip'
p6
S'509368e6f61d2e7b8daf31e0cb12da6d'
p7
sS'phone_B'
p8
S'xx206af2e3dbb3261f6caeb417ebaeffce'
p9
sS'phone_C'
p10
S'xxa2688a2f031d413266952588af165010'
p11
sS'phone_A'
p12
S'xx6d2223f1610ce9dceda0e205c52a662d'
p13
sS'user_agent'
p14
S'Mozilla/5.0 (Linux; Android 5.1; GN5001 Build/LMY47D) AppleWebKit/537.36 (KHTML, like Gecko) Version/4.0 Chrome/37.0.0.0 Mobile MQQBrowser/6.8 TBS/036849 Safari/537.36 MicroMessenger/6.3.27.880 NetType/WIFI Language/zh_CN'
p15
sS'ua'
p16
S'8d6ad1b2557eedf5465a3b79a8f67c32'
p17
sa(dp18
g2
S'31119'
p19
sg4
S'1911'
p20
sg6
S'509368e6f61d2e7b8daf31e0cb12da6d'
p21
sg8
S'xx206af2e3dbb3261f6caeb417ebaeffce'
p22
sg10
S'xxa2688a2f031d413266952588af165010'
p23
sg12
S'xx6d2223f1610ce9dceda0e205c52a662d'
p24
sg14
S'Mozilla/5.0 (Linux; Android 5.1; GN5001 Build/LMY47D) AppleWebKit/537.36 (KHTML, like Gecko) Version/4.0 Chrome/37.0.0.0 Mobile MQQBrowser/6.8 TBS/036849 Safari/537.36 MicroMessenger/6.3.27.880 NetType/WIFI Language/zh_CN'
p25
sg16
S'8d6ad1b2557eedf5465a3b79a8f67c32'
p26
sa(dp27
g2
S'49770'
p28
sg4
S'3312'
p29
sg6
S'a2cc057e70d667a9b68a39d6cb3938e2'
p30
sg8
S'xx206af2e3dbb3261f6caeb417ebaeffce'
p31
sg10
S'xxa2688a2f031d413266952588af165010'
p32
sg12
S'xx6d2223f1610ce9dceda0e205c52a662d'
p33
sg14
S'Mozilla/5.0 (Linux; Android 5.1; GN5001 Build/LMY47D) AppleWebKit/537.36 (KHTML, like Gecko) Version/4.0 Chrome/37.0.0.0 Mobile MQQBrowser/6.8 TBS/036849 Safari/537.36 MicroMessenger/6.3.27.880 NetType/WIFI Language/zh_CN'
p34
sg16
S'8d6ad1b2557eedf5465a3b79a8f67c32'
p35
sa(dp36
g2
S'49770'
p37
sg4
S'3322'
p38
sg6
S'a2cc057e70d667a9b68a39d6cb3938e2'
p39
sg8
S'xx206af2e3dbb3261f6caeb417ebaeffce'
p40
sg10
S'xxa2688a2f031d413266952588af165010'
p41
sg12
S'xx6d2223f1610ce9dceda0e205c52a662d'
p42
sg14
S'Mozilla/5.0 (Linux; Android 5.1; GN5001 Build/LMY47D) AppleWebKit/537.36 (KHTML, like Gecko) Version/4.0 Chrome/37.0.0.0 Mobile MQQBrowser/6.8 TBS/036849 Safari/537.36 MicroMessenger/6.3.27.880 NetType/WIFI Language/zh_CN'
p43
sg16
S'8d6ad1b2557eedf5465a3b79a8f67c32'
p44
sa(dp45
g2
S'49825'
p46
sg4
S'7035'
p47
sg6
S'a2cc057e70d667a9b68a39d6cb3938e2'
p48
sg8
S'xx206af2e3dbb3261f6caeb417ebaeffce'
p49
sg10
S'xxa2688a2f031d413266952588af165010'
p50
sg12
S'xx6d2223f1610ce9dceda0e205c52a662d'
p51
sg14
S'Mozilla/5.0 (Linux; Android 5.1; GN5001 Build/LMY47D) AppleWebKit/537.36 (KHTML, like Gecko) Version/4.0 Chrome/37.0.0.0 Mobile MQQBrowser/6.8 TBS/036849 Safari/537.36 MicroMessenger/6.3.27.880 NetType/WIFI Language/zh_CN'
p52
sg16
S'8d6ad1b2557eedf5465a3b79a8f67c32'
p53
sa.