(lp0
(dp1
S'user_id'
p2
S'18392'
p3
sS'data_id'
p4
S'6772'
p5
sS'ip'
p6
S'5c2e3b0908252065e0159aa6ec8d1f8b'
p7
sS'phone_B'
p8
S'xx46ea6c4087105c2e198c7e563359cfd5'
p9
sS'phone_C'
p10
S'xx33c06c3983412acb99a71f08c5080470'
p11
sS'phone_A'
p12
S'xx6de7e385bc33565a0de200f9e0895f9e'
p13
sS'user_agent'
p14
S'Mozilla/5.0 (Linux; Android 6.0; ALE-UL00 Build/HuaweiALE-UL00) AppleWebKit/537.36 (KHTML, like Gecko) Version/4.0 Chrome/37.0.0.0 Mobile MQQBrowser/6.8 TBS/036849 Safari/537.36 MicroMessenger/6.3.27.880 NetType/WIFI Language/zh_CN'
p15
sS'ua'
p16
S'64a4d1cc76a57f64691cf0172e3ae790'
p17
sa(dp18
g2
S'18392'
p19
sg4
S'6790'
p20
sg6
S'5c2e3b0908252065e0159aa6ec8d1f8b'
p21
sg8
S'xx46ea6c4087105c2e198c7e563359cfd5'
p22
sg10
S'xx33c06c3983412acb99a71f08c5080470'
p23
sg12
S'xx6de7e385bc33565a0de200f9e0895f9e'
p24
sg14
S'Mozilla/5.0 (Linux; Android 6.0; ALE-UL00 Build/HuaweiALE-UL00) AppleWebKit/537.36 (KHTML, like Gecko) Version/4.0 Chrome/37.0.0.0 Mobile MQQBrowser/6.8 TBS/036849 Safari/537.36 MicroMessenger/6.3.27.880 NetType/WIFI Language/zh_CN'
p25
sg16
S'64a4d1cc76a57f64691cf0172e3ae790'
p26
sa(dp27
g2
S'18392'
p28
sg4
S'6834'
p29
sg6
S'5c2e3b0908252065e0159aa6ec8d1f8b'
p30
sg8
S'xx46ea6c4087105c2e198c7e563359cfd5'
p31
sg10
S'xx33c06c3983412acb99a71f08c5080470'
p32
sg12
S'xx6de7e385bc33565a0de200f9e0895f9e'
p33
sg14
S'Mozilla/5.0 (Linux; Android 6.0; ALE-UL00 Build/HuaweiALE-UL00) AppleWebKit/537.36 (KHTML, like Gecko) Version/4.0 Chrome/37.0.0.0 Mobile MQQBrowser/6.8 TBS/036849 Safari/537.36 MicroMessenger/6.3.27.880 NetType/WIFI Language/zh_CN'
p34
sg16
S'64a4d1cc76a57f64691cf0172e3ae790'
p35
sa(dp36
g2
S'18392'
p37
sg4
S'6843'
p38
sg6
S'5c2e3b0908252065e0159aa6ec8d1f8b'
p39
sg8
S'xx46ea6c4087105c2e198c7e563359cfd5'
p40
sg10
S'xx33c06c3983412acb99a71f08c5080470'
p41
sg12
S'xx6de7e385bc33565a0de200f9e0895f9e'
p42
sg14
S'Mozilla/5.0 (Linux; Android 6.0; ALE-UL00 Build/HuaweiALE-UL00) AppleWebKit/537.36 (KHTML, like Gecko) Version/4.0 Chrome/37.0.0.0 Mobile MQQBrowser/6.8 TBS/036849 Safari/537.36 MicroMessenger/6.3.27.880 NetType/WIFI Language/zh_CN'
p43
sg16
S'64a4d1cc76a57f64691cf0172e3ae790'
p44
sa(dp45
g2
S'18392'
p46
sg4
S'6913'
p47
sg6
S'5c2e3b0908252065e0159aa6ec8d1f8b'
p48
sg8
S'xx46ea6c4087105c2e198c7e563359cfd5'
p49
sg10
S'xx33c06c3983412acb99a71f08c5080470'
p50
sg12
S'xx6de7e385bc33565a0de200f9e0895f9e'
p51
sg14
S'Mozilla/5.0 (Linux; Android 6.0; ALE-UL00 Build/HuaweiALE-UL00) AppleWebKit/537.36 (KHTML, like Gecko) Version/4.0 Chrome/37.0.0.0 Mobile MQQBrowser/6.8 TBS/036849 Safari/537.36 MicroMessenger/6.3.27.880 NetType/WIFI Language/zh_CN'
p52
sg16
S'64a4d1cc76a57f64691cf0172e3ae790'
p53
sa(dp54
g2
S'18392'
p55
sg4
S'6927'
p56
sg6
S'5c2e3b0908252065e0159aa6ec8d1f8b'
p57
sg8
S'xx46ea6c4087105c2e198c7e563359cfd5'
p58
sg10
S'xx33c06c3983412acb99a71f08c5080470'
p59
sg12
S'xx6de7e385bc33565a0de200f9e0895f9e'
p60
sg14
S'Mozilla/5.0 (Linux; Android 6.0; ALE-UL00 Build/HuaweiALE-UL00) AppleWebKit/537.36 (KHTML, like Gecko) Version/4.0 Chrome/37.0.0.0 Mobile MQQBrowser/6.8 TBS/036849 Safari/537.36 MicroMessenger/6.3.27.880 NetType/WIFI Language/zh_CN'
p61
sg16
S'64a4d1cc76a57f64691cf0172e3ae790'
p62
sa(dp63
g2
S'18392'
p64
sg4
S'6943'
p65
sg6
S'5c2e3b0908252065e0159aa6ec8d1f8b'
p66
sg8
S'xx46ea6c4087105c2e198c7e563359cfd5'
p67
sg10
S'xx33c06c3983412acb99a71f08c5080470'
p68
sg12
S'xx6de7e385bc33565a0de200f9e0895f9e'
p69
sg14
S'Mozilla/5.0 (Linux; Android 6.0; ALE-UL00 Build/HuaweiALE-UL00) AppleWebKit/537.36 (KHTML, like Gecko) Version/4.0 Chrome/37.0.0.0 Mobile MQQBrowser/6.8 TBS/036849 Safari/537.36 MicroMessenger/6.3.27.880 NetType/WIFI Language/zh_CN'
p70
sg16
S'64a4d1cc76a57f64691cf0172e3ae790'
p71
sa(dp72
g2
S'18392'
p73
sg4
S'6984'
p74
sg6
S'5c2e3b0908252065e0159aa6ec8d1f8b'
p75
sg8
S'xx46ea6c4087105c2e198c7e563359cfd5'
p76
sg10
S'xx33c06c3983412acb99a71f08c5080470'
p77
sg12
S'xx6de7e385bc33565a0de200f9e0895f9e'
p78
sg14
S'Mozilla/5.0 (Linux; Android 6.0; ALE-UL00 Build/HuaweiALE-UL00) AppleWebKit/537.36 (KHTML, like Gecko) Version/4.0 Chrome/37.0.0.0 Mobile MQQBrowser/6.8 TBS/036849 Safari/537.36 MicroMessenger/6.3.27.880 NetType/WIFI Language/zh_CN'
p79
sg16
S'64a4d1cc76a57f64691cf0172e3ae790'
p80
sa(dp81
g2
S'18392'
p82
sg4
S'6993'
p83
sg6
S'5c2e3b0908252065e0159aa6ec8d1f8b'
p84
sg8
S'xx46ea6c4087105c2e198c7e563359cfd5'
p85
sg10
S'xx33c06c3983412acb99a71f08c5080470'
p86
sg12
S'xx6de7e385bc33565a0de200f9e0895f9e'
p87
sg14
S'Mozilla/5.0 (Linux; Android 6.0; ALE-UL00 Build/HuaweiALE-UL00) AppleWebKit/537.36 (KHTML, like Gecko) Version/4.0 Chrome/37.0.0.0 Mobile MQQBrowser/6.8 TBS/036849 Safari/537.36 MicroMessenger/6.3.27.880 NetType/WIFI Language/zh_CN'
p88
sg16
S'64a4d1cc76a57f64691cf0172e3ae790'
p89
sa(dp90
g2
S'18392'
p91
sg4
S'7008'
p92
sg6
S'5c2e3b0908252065e0159aa6ec8d1f8b'
p93
sg8
S'xx46ea6c4087105c2e198c7e563359cfd5'
p94
sg10
S'xx33c06c3983412acb99a71f08c5080470'
p95
sg12
S'xx6de7e385bc33565a0de200f9e0895f9e'
p96
sg14
S'Mozilla/5.0 (Linux; Android 6.0; ALE-UL00 Build/HuaweiALE-UL00) AppleWebKit/537.36 (KHTML, like Gecko) Version/4.0 Chrome/37.0.0.0 Mobile MQQBrowser/6.8 TBS/036849 Safari/537.36 MicroMessenger/6.3.27.880 NetType/WIFI Language/zh_CN'
p97
sg16
S'64a4d1cc76a57f64691cf0172e3ae790'
p98
sa(dp99
g2
S'18392'
p100
sg4
S'7017'
p101
sg6
S'5c2e3b0908252065e0159aa6ec8d1f8b'
p102
sg8
S'xx46ea6c4087105c2e198c7e563359cfd5'
p103
sg10
S'xx33c06c3983412acb99a71f08c5080470'
p104
sg12
S'xx6de7e385bc33565a0de200f9e0895f9e'
p105
sg14
S'Mozilla/5.0 (Linux; Android 6.0; ALE-UL00 Build/HuaweiALE-UL00) AppleWebKit/537.36 (KHTML, like Gecko) Version/4.0 Chrome/37.0.0.0 Mobile MQQBrowser/6.8 TBS/036849 Safari/537.36 MicroMessenger/6.3.27.880 NetType/WIFI Language/zh_CN'
p106
sg16
S'64a4d1cc76a57f64691cf0172e3ae790'
p107
sa(dp108
g2
S'18392'
p109
sg4
S'7034'
p110
sg6
S'5c2e3b0908252065e0159aa6ec8d1f8b'
p111
sg8
S'xx46ea6c4087105c2e198c7e563359cfd5'
p112
sg10
S'xx33c06c3983412acb99a71f08c5080470'
p113
sg12
S'xx6de7e385bc33565a0de200f9e0895f9e'
p114
sg14
S'Mozilla/5.0 (Linux; Android 6.0; ALE-UL00 Build/HuaweiALE-UL00) AppleWebKit/537.36 (KHTML, like Gecko) Version/4.0 Chrome/37.0.0.0 Mobile MQQBrowser/6.8 TBS/036849 Safari/537.36 MicroMessenger/6.3.27.880 NetType/WIFI Language/zh_CN'
p115
sg16
S'64a4d1cc76a57f64691cf0172e3ae790'
p116
sa(dp117
g2
S'18392'
p118
sg4
S'7044'
p119
sg6
S'5c2e3b0908252065e0159aa6ec8d1f8b'
p120
sg8
S'xx46ea6c4087105c2e198c7e563359cfd5'
p121
sg10
S'xx33c06c3983412acb99a71f08c5080470'
p122
sg12
S'xx6de7e385bc33565a0de200f9e0895f9e'
p123
sg14
S'Mozilla/5.0 (Linux; Android 6.0; ALE-UL00 Build/HuaweiALE-UL00) AppleWebKit/537.36 (KHTML, like Gecko) Version/4.0 Chrome/37.0.0.0 Mobile MQQBrowser/6.8 TBS/036849 Safari/537.36 MicroMessenger/6.3.27.880 NetType/WIFI Language/zh_CN'
p124
sg16
S'64a4d1cc76a57f64691cf0172e3ae790'
p125
sa(dp126
g2
S'18392'
p127
sg4
S'7063'
p128
sg6
S'5c2e3b0908252065e0159aa6ec8d1f8b'
p129
sg8
S'xx46ea6c4087105c2e198c7e563359cfd5'
p130
sg10
S'xx33c06c3983412acb99a71f08c5080470'
p131
sg12
S'xx6de7e385bc33565a0de200f9e0895f9e'
p132
sg14
S'Mozilla/5.0 (Linux; Android 6.0; ALE-UL00 Build/HuaweiALE-UL00) AppleWebKit/537.36 (KHTML, like Gecko) Version/4.0 Chrome/37.0.0.0 Mobile MQQBrowser/6.8 TBS/036849 Safari/537.36 MicroMessenger/6.3.27.880 NetType/WIFI Language/zh_CN'
p133
sg16
S'64a4d1cc76a57f64691cf0172e3ae790'
p134
sa(dp135
g2
S'18392'
p136
sg4
S'7070'
p137
sg6
S'5c2e3b0908252065e0159aa6ec8d1f8b'
p138
sg8
S'xx46ea6c4087105c2e198c7e563359cfd5'
p139
sg10
S'xx33c06c3983412acb99a71f08c5080470'
p140
sg12
S'xx6de7e385bc33565a0de200f9e0895f9e'
p141
sg14
S'Mozilla/5.0 (Linux; Android 6.0; ALE-UL00 Build/HuaweiALE-UL00) AppleWebKit/537.36 (KHTML, like Gecko) Version/4.0 Chrome/37.0.0.0 Mobile MQQBrowser/6.8 TBS/036849 Safari/537.36 MicroMessenger/6.3.27.880 NetType/WIFI Language/zh_CN'
p142
sg16
S'64a4d1cc76a57f64691cf0172e3ae790'
p143
sa(dp144
g2
S'18392'
p145
sg4
S'7078'
p146
sg6
S'5c2e3b0908252065e0159aa6ec8d1f8b'
p147
sg8
S'xx46ea6c4087105c2e198c7e563359cfd5'
p148
sg10
S'xx33c06c3983412acb99a71f08c5080470'
p149
sg12
S'xx6de7e385bc33565a0de200f9e0895f9e'
p150
sg14
S'Mozilla/5.0 (Linux; Android 6.0; ALE-UL00 Build/HuaweiALE-UL00) AppleWebKit/537.36 (KHTML, like Gecko) Version/4.0 Chrome/37.0.0.0 Mobile MQQBrowser/6.8 TBS/036849 Safari/537.36 MicroMessenger/6.3.27.880 NetType/WIFI Language/zh_CN'
p151
sg16
S'64a4d1cc76a57f64691cf0172e3ae790'
p152
sa(dp153
g2
S'18392'
p154
sg4
S'7085'
p155
sg6
S'5c2e3b0908252065e0159aa6ec8d1f8b'
p156
sg8
S'xx46ea6c4087105c2e198c7e563359cfd5'
p157
sg10
S'xx33c06c3983412acb99a71f08c5080470'
p158
sg12
S'xx6de7e385bc33565a0de200f9e0895f9e'
p159
sg14
S'Mozilla/5.0 (Linux; Android 6.0; ALE-UL00 Build/HuaweiALE-UL00) AppleWebKit/537.36 (KHTML, like Gecko) Version/4.0 Chrome/37.0.0.0 Mobile MQQBrowser/6.8 TBS/036849 Safari/537.36 MicroMessenger/6.3.27.880 NetType/WIFI Language/zh_CN'
p160
sg16
S'64a4d1cc76a57f64691cf0172e3ae790'
p161
sa(dp162
g2
S'18392'
p163
sg4
S'7090'
p164
sg6
S'5c2e3b0908252065e0159aa6ec8d1f8b'
p165
sg8
S'xx46ea6c4087105c2e198c7e563359cfd5'
p166
sg10
S'xx33c06c3983412acb99a71f08c5080470'
p167
sg12
S'xx6de7e385bc33565a0de200f9e0895f9e'
p168
sg14
S'Mozilla/5.0 (Linux; Android 6.0; ALE-UL00 Build/HuaweiALE-UL00) AppleWebKit/537.36 (KHTML, like Gecko) Version/4.0 Chrome/37.0.0.0 Mobile MQQBrowser/6.8 TBS/036849 Safari/537.36 MicroMessenger/6.3.27.880 NetType/WIFI Language/zh_CN'
p169
sg16
S'64a4d1cc76a57f64691cf0172e3ae790'
p170
sa(dp171
g2
S'18392'
p172
sg4
S'7102'
p173
sg6
S'5c2e3b0908252065e0159aa6ec8d1f8b'
p174
sg8
S'xx46ea6c4087105c2e198c7e563359cfd5'
p175
sg10
S'xx33c06c3983412acb99a71f08c5080470'
p176
sg12
S'xx6de7e385bc33565a0de200f9e0895f9e'
p177
sg14
S'Mozilla/5.0 (Linux; Android 6.0; ALE-UL00 Build/HuaweiALE-UL00) AppleWebKit/537.36 (KHTML, like Gecko) Version/4.0 Chrome/37.0.0.0 Mobile MQQBrowser/6.8 TBS/036849 Safari/537.36 MicroMessenger/6.3.27.880 NetType/WIFI Language/zh_CN'
p178
sg16
S'64a4d1cc76a57f64691cf0172e3ae790'
p179
sa(dp180
g2
S'18392'
p181
sg4
S'7119'
p182
sg6
S'5c2e3b0908252065e0159aa6ec8d1f8b'
p183
sg8
S'xx46ea6c4087105c2e198c7e563359cfd5'
p184
sg10
S'xx33c06c3983412acb99a71f08c5080470'
p185
sg12
S'xx6de7e385bc33565a0de200f9e0895f9e'
p186
sg14
S'Mozilla/5.0 (Linux; Android 6.0; ALE-UL00 Build/HuaweiALE-UL00) AppleWebKit/537.36 (KHTML, like Gecko) Version/4.0 Chrome/37.0.0.0 Mobile MQQBrowser/6.8 TBS/036849 Safari/537.36 MicroMessenger/6.3.27.880 NetType/WIFI Language/zh_CN'
p187
sg16
S'64a4d1cc76a57f64691cf0172e3ae790'
p188
sa(dp189
g2
S'18392'
p190
sg4
S'7133'
p191
sg6
S'5c2e3b0908252065e0159aa6ec8d1f8b'
p192
sg8
S'xx46ea6c4087105c2e198c7e563359cfd5'
p193
sg10
S'xx33c06c3983412acb99a71f08c5080470'
p194
sg12
S'xx6de7e385bc33565a0de200f9e0895f9e'
p195
sg14
S'Mozilla/5.0 (Linux; Android 6.0; ALE-UL00 Build/HuaweiALE-UL00) AppleWebKit/537.36 (KHTML, like Gecko) Version/4.0 Chrome/37.0.0.0 Mobile MQQBrowser/6.8 TBS/036849 Safari/537.36 MicroMessenger/6.3.27.880 NetType/WIFI Language/zh_CN'
p196
sg16
S'64a4d1cc76a57f64691cf0172e3ae790'
p197
sa(dp198
g2
S'18392'
p199
sg4
S'7152'
p200
sg6
S'5c2e3b0908252065e0159aa6ec8d1f8b'
p201
sg8
S'xx46ea6c4087105c2e198c7e563359cfd5'
p202
sg10
S'xx33c06c3983412acb99a71f08c5080470'
p203
sg12
S'xx6de7e385bc33565a0de200f9e0895f9e'
p204
sg14
S'Mozilla/5.0 (Linux; Android 6.0; ALE-UL00 Build/HuaweiALE-UL00) AppleWebKit/537.36 (KHTML, like Gecko) Version/4.0 Chrome/37.0.0.0 Mobile MQQBrowser/6.8 TBS/036849 Safari/537.36 MicroMessenger/6.3.27.880 NetType/WIFI Language/zh_CN'
p205
sg16
S'64a4d1cc76a57f64691cf0172e3ae790'
p206
sa(dp207
g2
S'18392'
p208
sg4
S'7166'
p209
sg6
S'5c2e3b0908252065e0159aa6ec8d1f8b'
p210
sg8
S'xx46ea6c4087105c2e198c7e563359cfd5'
p211
sg10
S'xx33c06c3983412acb99a71f08c5080470'
p212
sg12
S'xx6de7e385bc33565a0de200f9e0895f9e'
p213
sg14
S'Mozilla/5.0 (Linux; Android 6.0; ALE-UL00 Build/HuaweiALE-UL00) AppleWebKit/537.36 (KHTML, like Gecko) Version/4.0 Chrome/37.0.0.0 Mobile MQQBrowser/6.8 TBS/036849 Safari/537.36 MicroMessenger/6.3.27.880 NetType/WIFI Language/zh_CN'
p214
sg16
S'64a4d1cc76a57f64691cf0172e3ae790'
p215
sa(dp216
g2
S'18392'
p217
sg4
S'7183'
p218
sg6
S'5c2e3b0908252065e0159aa6ec8d1f8b'
p219
sg8
S'xx46ea6c4087105c2e198c7e563359cfd5'
p220
sg10
S'xx33c06c3983412acb99a71f08c5080470'
p221
sg12
S'xx6de7e385bc33565a0de200f9e0895f9e'
p222
sg14
S'Mozilla/5.0 (Linux; Android 6.0; ALE-UL00 Build/HuaweiALE-UL00) AppleWebKit/537.36 (KHTML, like Gecko) Version/4.0 Chrome/37.0.0.0 Mobile MQQBrowser/6.8 TBS/036849 Safari/537.36 MicroMessenger/6.3.27.880 NetType/WIFI Language/zh_CN'
p223
sg16
S'64a4d1cc76a57f64691cf0172e3ae790'
p224
sa(dp225
g2
S'18392'
p226
sg4
S'7196'
p227
sg6
S'5c2e3b0908252065e0159aa6ec8d1f8b'
p228
sg8
S'xx46ea6c4087105c2e198c7e563359cfd5'
p229
sg10
S'xx33c06c3983412acb99a71f08c5080470'
p230
sg12
S'xx6de7e385bc33565a0de200f9e0895f9e'
p231
sg14
S'Mozilla/5.0 (Linux; Android 6.0; ALE-UL00 Build/HuaweiALE-UL00) AppleWebKit/537.36 (KHTML, like Gecko) Version/4.0 Chrome/37.0.0.0 Mobile MQQBrowser/6.8 TBS/036849 Safari/537.36 MicroMessenger/6.3.27.880 NetType/WIFI Language/zh_CN'
p232
sg16
S'64a4d1cc76a57f64691cf0172e3ae790'
p233
sa(dp234
g2
S'18392'
p235
sg4
S'7200'
p236
sg6
S'5c2e3b0908252065e0159aa6ec8d1f8b'
p237
sg8
S'xx46ea6c4087105c2e198c7e563359cfd5'
p238
sg10
S'xx33c06c3983412acb99a71f08c5080470'
p239
sg12
S'xx6de7e385bc33565a0de200f9e0895f9e'
p240
sg14
S'Mozilla/5.0 (Linux; Android 6.0; ALE-UL00 Build/HuaweiALE-UL00) AppleWebKit/537.36 (KHTML, like Gecko) Version/4.0 Chrome/37.0.0.0 Mobile MQQBrowser/6.8 TBS/036849 Safari/537.36 MicroMessenger/6.3.27.880 NetType/WIFI Language/zh_CN'
p241
sg16
S'64a4d1cc76a57f64691cf0172e3ae790'
p242
sa(dp243
g2
S'18392'
p244
sg4
S'7224'
p245
sg6
S'5c2e3b0908252065e0159aa6ec8d1f8b'
p246
sg8
S'xx46ea6c4087105c2e198c7e563359cfd5'
p247
sg10
S'xx33c06c3983412acb99a71f08c5080470'
p248
sg12
S'xx6de7e385bc33565a0de200f9e0895f9e'
p249
sg14
S'Mozilla/5.0 (Linux; Android 6.0; ALE-UL00 Build/HuaweiALE-UL00) AppleWebKit/537.36 (KHTML, like Gecko) Version/4.0 Chrome/37.0.0.0 Mobile MQQBrowser/6.8 TBS/036849 Safari/537.36 MicroMessenger/6.3.27.880 NetType/WIFI Language/zh_CN'
p250
sg16
S'64a4d1cc76a57f64691cf0172e3ae790'
p251
sa(dp252
g2
S'18392'
p253
sg4
S'7237'
p254
sg6
S'5c2e3b0908252065e0159aa6ec8d1f8b'
p255
sg8
S'xx46ea6c4087105c2e198c7e563359cfd5'
p256
sg10
S'xx33c06c3983412acb99a71f08c5080470'
p257
sg12
S'xx6de7e385bc33565a0de200f9e0895f9e'
p258
sg14
S'Mozilla/5.0 (Linux; Android 6.0; ALE-UL00 Build/HuaweiALE-UL00) AppleWebKit/537.36 (KHTML, like Gecko) Version/4.0 Chrome/37.0.0.0 Mobile MQQBrowser/6.8 TBS/036849 Safari/537.36 MicroMessenger/6.3.27.880 NetType/WIFI Language/zh_CN'
p259
sg16
S'64a4d1cc76a57f64691cf0172e3ae790'
p260
sa(dp261
g2
S'18392'
p262
sg4
S'7252'
p263
sg6
S'5c2e3b0908252065e0159aa6ec8d1f8b'
p264
sg8
S'xx46ea6c4087105c2e198c7e563359cfd5'
p265
sg10
S'xx33c06c3983412acb99a71f08c5080470'
p266
sg12
S'xx6de7e385bc33565a0de200f9e0895f9e'
p267
sg14
S'Mozilla/5.0 (Linux; Android 6.0; ALE-UL00 Build/HuaweiALE-UL00) AppleWebKit/537.36 (KHTML, like Gecko) Version/4.0 Chrome/37.0.0.0 Mobile MQQBrowser/6.8 TBS/036849 Safari/537.36 MicroMessenger/6.3.27.880 NetType/WIFI Language/zh_CN'
p268
sg16
S'64a4d1cc76a57f64691cf0172e3ae790'
p269
sa(dp270
g2
S'18392'
p271
sg4
S'7263'
p272
sg6
S'5c2e3b0908252065e0159aa6ec8d1f8b'
p273
sg8
S'xx46ea6c4087105c2e198c7e563359cfd5'
p274
sg10
S'xx33c06c3983412acb99a71f08c5080470'
p275
sg12
S'xx6de7e385bc33565a0de200f9e0895f9e'
p276
sg14
S'Mozilla/5.0 (Linux; Android 6.0; ALE-UL00 Build/HuaweiALE-UL00) AppleWebKit/537.36 (KHTML, like Gecko) Version/4.0 Chrome/37.0.0.0 Mobile MQQBrowser/6.8 TBS/036849 Safari/537.36 MicroMessenger/6.3.27.880 NetType/WIFI Language/zh_CN'
p277
sg16
S'64a4d1cc76a57f64691cf0172e3ae790'
p278
sa(dp279
g2
S'18392'
p280
sg4
S'7277'
p281
sg6
S'5c2e3b0908252065e0159aa6ec8d1f8b'
p282
sg8
S'xx46ea6c4087105c2e198c7e563359cfd5'
p283
sg10
S'xx33c06c3983412acb99a71f08c5080470'
p284
sg12
S'xx6de7e385bc33565a0de200f9e0895f9e'
p285
sg14
S'Mozilla/5.0 (Linux; Android 6.0; ALE-UL00 Build/HuaweiALE-UL00) AppleWebKit/537.36 (KHTML, like Gecko) Version/4.0 Chrome/37.0.0.0 Mobile MQQBrowser/6.8 TBS/036849 Safari/537.36 MicroMessenger/6.3.27.880 NetType/WIFI Language/zh_CN'
p286
sg16
S'64a4d1cc76a57f64691cf0172e3ae790'
p287
sa(dp288
g2
S'18392'
p289
sg4
S'7297'
p290
sg6
S'5c2e3b0908252065e0159aa6ec8d1f8b'
p291
sg8
S'xx46ea6c4087105c2e198c7e563359cfd5'
p292
sg10
S'xx33c06c3983412acb99a71f08c5080470'
p293
sg12
S'xx6de7e385bc33565a0de200f9e0895f9e'
p294
sg14
S'Mozilla/5.0 (Linux; Android 6.0; ALE-UL00 Build/HuaweiALE-UL00) AppleWebKit/537.36 (KHTML, like Gecko) Version/4.0 Chrome/37.0.0.0 Mobile MQQBrowser/6.8 TBS/036849 Safari/537.36 MicroMessenger/6.3.27.880 NetType/WIFI Language/zh_CN'
p295
sg16
S'64a4d1cc76a57f64691cf0172e3ae790'
p296
sa(dp297
g2
S'18392'
p298
sg4
S'7307'
p299
sg6
S'5c2e3b0908252065e0159aa6ec8d1f8b'
p300
sg8
S'xx46ea6c4087105c2e198c7e563359cfd5'
p301
sg10
S'xx33c06c3983412acb99a71f08c5080470'
p302
sg12
S'xx6de7e385bc33565a0de200f9e0895f9e'
p303
sg14
S'Mozilla/5.0 (Linux; Android 6.0; ALE-UL00 Build/HuaweiALE-UL00) AppleWebKit/537.36 (KHTML, like Gecko) Version/4.0 Chrome/37.0.0.0 Mobile MQQBrowser/6.8 TBS/036849 Safari/537.36 MicroMessenger/6.3.27.880 NetType/WIFI Language/zh_CN'
p304
sg16
S'64a4d1cc76a57f64691cf0172e3ae790'
p305
sa(dp306
g2
S'18392'
p307
sg4
S'7326'
p308
sg6
S'5c2e3b0908252065e0159aa6ec8d1f8b'
p309
sg8
S'xx46ea6c4087105c2e198c7e563359cfd5'
p310
sg10
S'xx33c06c3983412acb99a71f08c5080470'
p311
sg12
S'xx6de7e385bc33565a0de200f9e0895f9e'
p312
sg14
S'Mozilla/5.0 (Linux; Android 6.0; ALE-UL00 Build/HuaweiALE-UL00) AppleWebKit/537.36 (KHTML, like Gecko) Version/4.0 Chrome/37.0.0.0 Mobile MQQBrowser/6.8 TBS/036849 Safari/537.36 MicroMessenger/6.3.27.880 NetType/WIFI Language/zh_CN'
p313
sg16
S'64a4d1cc76a57f64691cf0172e3ae790'
p314
sa(dp315
g2
S'18392'
p316
sg4
S'7339'
p317
sg6
S'5c2e3b0908252065e0159aa6ec8d1f8b'
p318
sg8
S'xx46ea6c4087105c2e198c7e563359cfd5'
p319
sg10
S'xx33c06c3983412acb99a71f08c5080470'
p320
sg12
S'xx6de7e385bc33565a0de200f9e0895f9e'
p321
sg14
S'Mozilla/5.0 (Linux; Android 6.0; ALE-UL00 Build/HuaweiALE-UL00) AppleWebKit/537.36 (KHTML, like Gecko) Version/4.0 Chrome/37.0.0.0 Mobile MQQBrowser/6.8 TBS/036849 Safari/537.36 MicroMessenger/6.3.27.880 NetType/WIFI Language/zh_CN'
p322
sg16
S'64a4d1cc76a57f64691cf0172e3ae790'
p323
sa(dp324
g2
S'18392'
p325
sg4
S'7352'
p326
sg6
S'5c2e3b0908252065e0159aa6ec8d1f8b'
p327
sg8
S'xx46ea6c4087105c2e198c7e563359cfd5'
p328
sg10
S'xx33c06c3983412acb99a71f08c5080470'
p329
sg12
S'xx6de7e385bc33565a0de200f9e0895f9e'
p330
sg14
S'Mozilla/5.0 (Linux; Android 6.0; ALE-UL00 Build/HuaweiALE-UL00) AppleWebKit/537.36 (KHTML, like Gecko) Version/4.0 Chrome/37.0.0.0 Mobile MQQBrowser/6.8 TBS/036849 Safari/537.36 MicroMessenger/6.3.27.880 NetType/WIFI Language/zh_CN'
p331
sg16
S'64a4d1cc76a57f64691cf0172e3ae790'
p332
sa(dp333
g2
S'18392'
p334
sg4
S'7365'
p335
sg6
S'5c2e3b0908252065e0159aa6ec8d1f8b'
p336
sg8
S'xx46ea6c4087105c2e198c7e563359cfd5'
p337
sg10
S'xx33c06c3983412acb99a71f08c5080470'
p338
sg12
S'xx6de7e385bc33565a0de200f9e0895f9e'
p339
sg14
S'Mozilla/5.0 (Linux; Android 6.0; ALE-UL00 Build/HuaweiALE-UL00) AppleWebKit/537.36 (KHTML, like Gecko) Version/4.0 Chrome/37.0.0.0 Mobile MQQBrowser/6.8 TBS/036849 Safari/537.36 MicroMessenger/6.3.27.880 NetType/WIFI Language/zh_CN'
p340
sg16
S'64a4d1cc76a57f64691cf0172e3ae790'
p341
sa(dp342
g2
S'18392'
p343
sg4
S'7381'
p344
sg6
S'5c2e3b0908252065e0159aa6ec8d1f8b'
p345
sg8
S'xx46ea6c4087105c2e198c7e563359cfd5'
p346
sg10
S'xx33c06c3983412acb99a71f08c5080470'
p347
sg12
S'xx6de7e385bc33565a0de200f9e0895f9e'
p348
sg14
S'Mozilla/5.0 (Linux; Android 6.0; ALE-UL00 Build/HuaweiALE-UL00) AppleWebKit/537.36 (KHTML, like Gecko) Version/4.0 Chrome/37.0.0.0 Mobile MQQBrowser/6.8 TBS/036849 Safari/537.36 MicroMessenger/6.3.27.880 NetType/WIFI Language/zh_CN'
p349
sg16
S'64a4d1cc76a57f64691cf0172e3ae790'
p350
sa(dp351
g2
S'18392'
p352
sg4
S'7392'
p353
sg6
S'5c2e3b0908252065e0159aa6ec8d1f8b'
p354
sg8
S'xx46ea6c4087105c2e198c7e563359cfd5'
p355
sg10
S'xx33c06c3983412acb99a71f08c5080470'
p356
sg12
S'xx6de7e385bc33565a0de200f9e0895f9e'
p357
sg14
S'Mozilla/5.0 (Linux; Android 6.0; ALE-UL00 Build/HuaweiALE-UL00) AppleWebKit/537.36 (KHTML, like Gecko) Version/4.0 Chrome/37.0.0.0 Mobile MQQBrowser/6.8 TBS/036849 Safari/537.36 MicroMessenger/6.3.27.880 NetType/WIFI Language/zh_CN'
p358
sg16
S'64a4d1cc76a57f64691cf0172e3ae790'
p359
sa(dp360
g2
S'18392'
p361
sg4
S'7404'
p362
sg6
S'5c2e3b0908252065e0159aa6ec8d1f8b'
p363
sg8
S'xx46ea6c4087105c2e198c7e563359cfd5'
p364
sg10
S'xx33c06c3983412acb99a71f08c5080470'
p365
sg12
S'xx6de7e385bc33565a0de200f9e0895f9e'
p366
sg14
S'Mozilla/5.0 (Linux; Android 6.0; ALE-UL00 Build/HuaweiALE-UL00) AppleWebKit/537.36 (KHTML, like Gecko) Version/4.0 Chrome/37.0.0.0 Mobile MQQBrowser/6.8 TBS/036849 Safari/537.36 MicroMessenger/6.3.27.880 NetType/WIFI Language/zh_CN'
p367
sg16
S'64a4d1cc76a57f64691cf0172e3ae790'
p368
sa.