(lp0
(dp1
S'user_id'
p2
S'31549'
p3
sS'data_id'
p4
S'7478'
p5
sS'ip'
p6
S'786d06683180fec2232049e18a69876a'
p7
sS'phone_B'
p8
S'xx6aa3f75845b716d1e08849ff6280d2b1'
p9
sS'phone_C'
p10
S'xxdb6364a694fd63a2aea7e5d8616cf41b'
p11
sS'phone_A'
p12
S'xx6d1f0d5afb78a5e6a4cfcce14b7913b8'
p13
sS'user_agent'
p14
S'Mozilla/5.0 (Linux; Android 4.4.4; Coolpad 8297-T01 Build/KTU84P) AppleWebKit/537.36 (KHTML, like Gecko) Version/4.0 Chrome/37.0.0.0 Mobile MQQBrowser/6.8 TBS/036849 Safari/537.36 MicroMessenger/6.3.25.861 NetType/WIFI Language/zh_CN'
p15
sS'ua'
p16
S'f32a48c4fef9668175fab37abd727d1f'
p17
sa(dp18
g2
S'31549'
p19
sg4
S'7493'
p20
sg6
S'786d06683180fec2232049e18a69876a'
p21
sg8
S'xx6aa3f75845b716d1e08849ff6280d2b1'
p22
sg10
S'xxdb6364a694fd63a2aea7e5d8616cf41b'
p23
sg12
S'xx6d1f0d5afb78a5e6a4cfcce14b7913b8'
p24
sg14
S'Mozilla/5.0 (Linux; Android 4.4.4; Coolpad 8297-T01 Build/KTU84P) AppleWebKit/537.36 (KHTML, like Gecko) Version/4.0 Chrome/37.0.0.0 Mobile MQQBrowser/6.8 TBS/036849 Safari/537.36 MicroMessenger/6.3.25.861 NetType/WIFI Language/zh_CN'
p25
sg16
S'f32a48c4fef9668175fab37abd727d1f'
p26
sa(dp27
g2
S'31549'
p28
sg4
S'7505'
p29
sg6
S'786d06683180fec2232049e18a69876a'
p30
sg8
S'xx6aa3f75845b716d1e08849ff6280d2b1'
p31
sg10
S'xxdb6364a694fd63a2aea7e5d8616cf41b'
p32
sg12
S'xx6d1f0d5afb78a5e6a4cfcce14b7913b8'
p33
sg14
S'Mozilla/5.0 (Linux; Android 4.4.4; Coolpad 8297-T01 Build/KTU84P) AppleWebKit/537.36 (KHTML, like Gecko) Version/4.0 Chrome/37.0.0.0 Mobile MQQBrowser/6.8 TBS/036849 Safari/537.36 MicroMessenger/6.3.25.861 NetType/WIFI Language/zh_CN'
p34
sg16
S'f32a48c4fef9668175fab37abd727d1f'
p35
sa(dp36
g2
S'31549'
p37
sg4
S'7568'
p38
sg6
S'786d06683180fec2232049e18a69876a'
p39
sg8
S'xx6aa3f75845b716d1e08849ff6280d2b1'
p40
sg10
S'xxdb6364a694fd63a2aea7e5d8616cf41b'
p41
sg12
S'xx6d1f0d5afb78a5e6a4cfcce14b7913b8'
p42
sg14
S'Mozilla/5.0 (Linux; Android 4.4.4; Coolpad 8297-T01 Build/KTU84P) AppleWebKit/537.36 (KHTML, like Gecko) Version/4.0 Chrome/37.0.0.0 Mobile MQQBrowser/6.8 TBS/036849 Safari/537.36 MicroMessenger/6.3.25.861 NetType/WIFI Language/zh_CN'
p43
sg16
S'f32a48c4fef9668175fab37abd727d1f'
p44
sa(dp45
g2
S'31549'
p46
sg4
S'7662'
p47
sg6
S'786d06683180fec2232049e18a69876a'
p48
sg8
S'xx6aa3f75845b716d1e08849ff6280d2b1'
p49
sg10
S'xxdb6364a694fd63a2aea7e5d8616cf41b'
p50
sg12
S'xx6d1f0d5afb78a5e6a4cfcce14b7913b8'
p51
sg14
S'Mozilla/5.0 (Linux; Android 4.4.4; Coolpad 8297-T01 Build/KTU84P) AppleWebKit/537.36 (KHTML, like Gecko) Version/4.0 Chrome/37.0.0.0 Mobile MQQBrowser/6.8 TBS/036849 Safari/537.36 MicroMessenger/6.3.25.861 NetType/WIFI Language/zh_CN'
p52
sg16
S'f32a48c4fef9668175fab37abd727d1f'
p53
sa(dp54
g2
S'31549'
p55
sg4
S'7741'
p56
sg6
S'786d06683180fec2232049e18a69876a'
p57
sg8
S'xx6aa3f75845b716d1e08849ff6280d2b1'
p58
sg10
S'xxdb6364a694fd63a2aea7e5d8616cf41b'
p59
sg12
S'xx6d1f0d5afb78a5e6a4cfcce14b7913b8'
p60
sg14
S'Mozilla/5.0 (Linux; Android 4.4.4; Coolpad 8297-T01 Build/KTU84P) AppleWebKit/537.36 (KHTML, like Gecko) Version/4.0 Chrome/37.0.0.0 Mobile MQQBrowser/6.8 TBS/036849 Safari/537.36 MicroMessenger/6.3.25.861 NetType/WIFI Language/zh_CN'
p61
sg16
S'f32a48c4fef9668175fab37abd727d1f'
p62
sa(dp63
g2
S'31549'
p64
sg4
S'7757'
p65
sg6
S'786d06683180fec2232049e18a69876a'
p66
sg8
S'xx6aa3f75845b716d1e08849ff6280d2b1'
p67
sg10
S'xxdb6364a694fd63a2aea7e5d8616cf41b'
p68
sg12
S'xx6d1f0d5afb78a5e6a4cfcce14b7913b8'
p69
sg14
S'Mozilla/5.0 (Linux; Android 4.4.4; Coolpad 8297-T01 Build/KTU84P) AppleWebKit/537.36 (KHTML, like Gecko) Version/4.0 Chrome/37.0.0.0 Mobile MQQBrowser/6.8 TBS/036849 Safari/537.36 MicroMessenger/6.3.25.861 NetType/WIFI Language/zh_CN'
p70
sg16
S'f32a48c4fef9668175fab37abd727d1f'
p71
sa(dp72
g2
S'31549'
p73
sg4
S'8127'
p74
sg6
S'786d06683180fec2232049e18a69876a'
p75
sg8
S'xx6aa3f75845b716d1e08849ff6280d2b1'
p76
sg10
S'xxdb6364a694fd63a2aea7e5d8616cf41b'
p77
sg12
S'xx6d1f0d5afb78a5e6a4cfcce14b7913b8'
p78
sg14
S'Mozilla/5.0 (Linux; Android 4.4.4; Coolpad 8297-T01 Build/KTU84P) AppleWebKit/537.36 (KHTML, like Gecko) Version/4.0 Chrome/37.0.0.0 Mobile MQQBrowser/6.8 TBS/036849 Safari/537.36 MicroMessenger/6.3.25.861 NetType/WIFI Language/zh_CN'
p79
sg16
S'f32a48c4fef9668175fab37abd727d1f'
p80
sa(dp81
g2
S'31549'
p82
sg4
S'8140'
p83
sg6
S'786d06683180fec2232049e18a69876a'
p84
sg8
S'xx6aa3f75845b716d1e08849ff6280d2b1'
p85
sg10
S'xxdb6364a694fd63a2aea7e5d8616cf41b'
p86
sg12
S'xx6d1f0d5afb78a5e6a4cfcce14b7913b8'
p87
sg14
S'Mozilla/5.0 (Linux; Android 4.4.4; Coolpad 8297-T01 Build/KTU84P) AppleWebKit/537.36 (KHTML, like Gecko) Version/4.0 Chrome/37.0.0.0 Mobile MQQBrowser/6.8 TBS/036849 Safari/537.36 MicroMessenger/6.3.25.861 NetType/WIFI Language/zh_CN'
p88
sg16
S'f32a48c4fef9668175fab37abd727d1f'
p89
sa(dp90
g2
S'31549'
p91
sg4
S'8157'
p92
sg6
S'786d06683180fec2232049e18a69876a'
p93
sg8
S'xx6aa3f75845b716d1e08849ff6280d2b1'
p94
sg10
S'xxdb6364a694fd63a2aea7e5d8616cf41b'
p95
sg12
S'xx6d1f0d5afb78a5e6a4cfcce14b7913b8'
p96
sg14
S'Mozilla/5.0 (Linux; Android 4.4.4; Coolpad 8297-T01 Build/KTU84P) AppleWebKit/537.36 (KHTML, like Gecko) Version/4.0 Chrome/37.0.0.0 Mobile MQQBrowser/6.8 TBS/036849 Safari/537.36 MicroMessenger/6.3.25.861 NetType/WIFI Language/zh_CN'
p97
sg16
S'f32a48c4fef9668175fab37abd727d1f'
p98
sa.