(lp0
(dp1
S'user_id'
p2
S'42572'
p3
sS'data_id'
p4
S'780'
p5
sS'ip'
p6
S'de17a6a29674548500739afde18b53d1'
p7
sS'phone_B'
p8
S'xxd81b005079bf69419f06d8e1fa37d5e2'
p9
sS'phone_C'
p10
S'xxa08ef96bf76b77805513e806b52f05f2'
p11
sS'phone_A'
p12
S'xx6e0e378c1ed4c3bb3a994b5b0e743ff1'
p13
sS'user_agent'
p14
S'Mozilla/5.0 (Linux; Android 4.4.4; Hisense M20-T Build/KTU84P) AppleWebKit/537.36 (KHTML, like Gecko) Version/4.0 Chrome/37.0.0.0 Mobile MQQBrowser/6.8 TBS/036849 Safari/537.36 MicroMessenger/6.3.27.880 NetType/WIFI Language/zh_CN'
p15
sS'ua'
p16
S'bda3d95bcc79fd3fd5b07b27d24829c1'
p17
sa(dp18
g2
S'42572'
p19
sg4
S'789'
p20
sg6
S'de17a6a29674548500739afde18b53d1'
p21
sg8
S'xxd81b005079bf69419f06d8e1fa37d5e2'
p22
sg10
S'xxa08ef96bf76b77805513e806b52f05f2'
p23
sg12
S'xx6e0e378c1ed4c3bb3a994b5b0e743ff1'
p24
sg14
S'Mozilla/5.0 (Linux; Android 4.4.4; Hisense M20-T Build/KTU84P) AppleWebKit/537.36 (KHTML, like Gecko) Version/4.0 Chrome/37.0.0.0 Mobile MQQBrowser/6.8 TBS/036849 Safari/537.36 MicroMessenger/6.3.27.880 NetType/WIFI Language/zh_CN'
p25
sg16
S'bda3d95bcc79fd3fd5b07b27d24829c1'
p26
sa(dp27
g2
S'42572'
p28
sg4
S'808'
p29
sg6
S'de17a6a29674548500739afde18b53d1'
p30
sg8
S'xxd81b005079bf69419f06d8e1fa37d5e2'
p31
sg10
S'xxa08ef96bf76b77805513e806b52f05f2'
p32
sg12
S'xx6e0e378c1ed4c3bb3a994b5b0e743ff1'
p33
sg14
S'Mozilla/5.0 (Linux; Android 4.4.4; Hisense M20-T Build/KTU84P) AppleWebKit/537.36 (KHTML, like Gecko) Version/4.0 Chrome/37.0.0.0 Mobile MQQBrowser/6.8 TBS/036849 Safari/537.36 MicroMessenger/6.3.27.880 NetType/WIFI Language/zh_CN'
p34
sg16
S'bda3d95bcc79fd3fd5b07b27d24829c1'
p35
sa(dp36
g2
S'42572'
p37
sg4
S'2407'
p38
sg6
S'de17a6a29674548500739afde18b53d1'
p39
sg8
S'xxd81b005079bf69419f06d8e1fa37d5e2'
p40
sg10
S'xxa08ef96bf76b77805513e806b52f05f2'
p41
sg12
S'xx6e0e378c1ed4c3bb3a994b5b0e743ff1'
p42
sg14
S'Mozilla/5.0 (Linux; Android 4.4.4; Hisense M20-T Build/KTU84P) AppleWebKit/537.36 (KHTML, like Gecko) Version/4.0 Chrome/37.0.0.0 Mobile MQQBrowser/6.8 TBS/036849 Safari/537.36 MicroMessenger/6.3.27.880 NetType/WIFI Language/zh_CN'
p43
sg16
S'bda3d95bcc79fd3fd5b07b27d24829c1'
p44
sa(dp45
g2
S'42572'
p46
sg4
S'2429'
p47
sg6
S'de17a6a29674548500739afde18b53d1'
p48
sg8
S'xxd81b005079bf69419f06d8e1fa37d5e2'
p49
sg10
S'xxa08ef96bf76b77805513e806b52f05f2'
p50
sg12
S'xx6e0e378c1ed4c3bb3a994b5b0e743ff1'
p51
sg14
S'Mozilla/5.0 (Linux; Android 4.4.4; Hisense M20-T Build/KTU84P) AppleWebKit/537.36 (KHTML, like Gecko) Version/4.0 Chrome/37.0.0.0 Mobile MQQBrowser/6.8 TBS/036849 Safari/537.36 MicroMessenger/6.3.27.880 NetType/WIFI Language/zh_CN'
p52
sg16
S'bda3d95bcc79fd3fd5b07b27d24829c1'
p53
sa(dp54
g2
S'42572'
p55
sg4
S'2449'
p56
sg6
S'de17a6a29674548500739afde18b53d1'
p57
sg8
S'xxd81b005079bf69419f06d8e1fa37d5e2'
p58
sg10
S'xxa08ef96bf76b77805513e806b52f05f2'
p59
sg12
S'xx6e0e378c1ed4c3bb3a994b5b0e743ff1'
p60
sg14
S'Mozilla/5.0 (Linux; Android 4.4.4; Hisense M20-T Build/KTU84P) AppleWebKit/537.36 (KHTML, like Gecko) Version/4.0 Chrome/37.0.0.0 Mobile MQQBrowser/6.8 TBS/036849 Safari/537.36 MicroMessenger/6.3.27.880 NetType/WIFI Language/zh_CN'
p61
sg16
S'bda3d95bcc79fd3fd5b07b27d24829c1'
p62
sa(dp63
g2
S'32412'
p64
sg4
S'7366'
p65
sg6
S'175b45cc5a9b735c4cdb9e07c003b981'
p66
sg8
S'xx637d7b22358efbdcef429a045df898cb'
p67
sg10
S'xxf0ce69602a68e5d82c03993c78018e89'
p68
sg12
S'xx6e0e378c1ed4c3bb3a994b5b0e743ff1'
p69
sg14
S'Mozilla/5.0 (Linux; Android 4.4.4; Hisense M20-T Build/KTU84P) AppleWebKit/537.36 (KHTML, like Gecko) Version/4.0 Chrome/37.0.0.0 Mobile MQQBrowser/6.8 TBS/036860 Safari/537.36 MicroMessenger/6.3.27.880 NetType/WIFI Language/zh_CN'
p70
sg16
S'4b625f5f7d85f576b1abf8b9d4141208'
p71
sa(dp72
g2
S'32412'
p73
sg4
S'7382'
p74
sg6
S'175b45cc5a9b735c4cdb9e07c003b981'
p75
sg8
S'xx637d7b22358efbdcef429a045df898cb'
p76
sg10
S'xxf0ce69602a68e5d82c03993c78018e89'
p77
sg12
S'xx6e0e378c1ed4c3bb3a994b5b0e743ff1'
p78
sg14
S'Mozilla/5.0 (Linux; Android 4.4.4; Hisense M20-T Build/KTU84P) AppleWebKit/537.36 (KHTML, like Gecko) Version/4.0 Chrome/37.0.0.0 Mobile MQQBrowser/6.8 TBS/036860 Safari/537.36 MicroMessenger/6.3.27.880 NetType/WIFI Language/zh_CN'
p79
sg16
S'4b625f5f7d85f576b1abf8b9d4141208'
p80
sa.