(lp0
(dp1
S'user_id'
p2
S'44437'
p3
sS'data_id'
p4
S'153'
p5
sS'ip'
p6
S'dc84fa7c4b6fff77af54a8168e29b84d'
p7
sS'phone_B'
p8
S'xx0547cc58a276f9bd7c3374c0d74acc35'
p9
sS'phone_C'
p10
S'xx9cc2e83f171459c78fa180efb424ac48'
p11
sS'phone_A'
p12
S'xx6e2b663652ff2e04c8f639c4496e803b'
p13
sS'user_agent'
p14
S'Mozilla/5.0 (Linux; Android 5.1.1; Redmi 3 Build/LMY47V) AppleWebKit/537.36 (KHTML, like Gecko) Version/4.0 Chrome/37.0.0.0 Mobile MQQBrowser/6.8 TBS/036824 Safari/537.36 MicroMessenger/6.3.27.880 NetType/WIFI Language/zh_CN'
p15
sS'ua'
p16
S'e8d9f564dfb31043826d2396788d0626'
p17
sa(dp18
g2
S'44437'
p19
sg4
S'168'
p20
sg6
S'dc84fa7c4b6fff77af54a8168e29b84d'
p21
sg8
S'xx0547cc58a276f9bd7c3374c0d74acc35'
p22
sg10
S'xx9cc2e83f171459c78fa180efb424ac48'
p23
sg12
S'xx6e2b663652ff2e04c8f639c4496e803b'
p24
sg14
S'Mozilla/5.0 (Linux; Android 5.1.1; Redmi 3 Build/LMY47V) AppleWebKit/537.36 (KHTML, like Gecko) Version/4.0 Chrome/37.0.0.0 Mobile MQQBrowser/6.8 TBS/036824 Safari/537.36 MicroMessenger/6.3.27.880 NetType/WIFI Language/zh_CN'
p25
sg16
S'e8d9f564dfb31043826d2396788d0626'
p26
sa(dp27
g2
S'20574'
p28
sg4
S'835'
p29
sg6
S'a5b44b593f8f8dbc9d4ef18a119f70cf'
p30
sg8
S'xx9934070bb3d8bfad711c6353a92a2ab5'
p31
sg10
S'xx9cc2e83f171459c78fa180efb424ac48'
p32
sg12
S'xx6e2b663652ff2e04c8f639c4496e803b'
p33
sg14
S'Mozilla/5.0 (Linux; Android 5.1.1; Redmi 3 Build/LMY47V) AppleWebKit/537.36 (KHTML, like Gecko) Version/4.0 Chrome/37.0.0.0 Mobile MQQBrowser/6.8 TBS/036849 Safari/537.36 MicroMessenger/6.3.27.880 NetType/WIFI Language/zh_CN'
p34
sg16
S'3f28073769e2b8477b42b90a304ebe0c'
p35
sa(dp36
g2
S'20574'
p37
sg4
S'848'
p38
sg6
S'a5b44b593f8f8dbc9d4ef18a119f70cf'
p39
sg8
S'xx9934070bb3d8bfad711c6353a92a2ab5'
p40
sg10
S'xx9cc2e83f171459c78fa180efb424ac48'
p41
sg12
S'xx6e2b663652ff2e04c8f639c4496e803b'
p42
sg14
S'Mozilla/5.0 (Linux; Android 5.1.1; Redmi 3 Build/LMY47V) AppleWebKit/537.36 (KHTML, like Gecko) Version/4.0 Chrome/37.0.0.0 Mobile MQQBrowser/6.8 TBS/036849 Safari/537.36 MicroMessenger/6.3.27.880 NetType/WIFI Language/zh_CN'
p43
sg16
S'3f28073769e2b8477b42b90a304ebe0c'
p44
sa(dp45
g2
S'20574'
p46
sg4
S'886'
p47
sg6
S'a5b44b593f8f8dbc9d4ef18a119f70cf'
p48
sg8
S'xx9934070bb3d8bfad711c6353a92a2ab5'
p49
sg10
S'xx9cc2e83f171459c78fa180efb424ac48'
p50
sg12
S'xx6e2b663652ff2e04c8f639c4496e803b'
p51
sg14
S'Mozilla/5.0 (Linux; Android 5.1.1; Redmi 3 Build/LMY47V) AppleWebKit/537.36 (KHTML, like Gecko) Version/4.0 Chrome/37.0.0.0 Mobile MQQBrowser/6.8 TBS/036849 Safari/537.36 MicroMessenger/6.3.27.880 NetType/WIFI Language/zh_CN'
p52
sg16
S'3f28073769e2b8477b42b90a304ebe0c'
p53
sa(dp54
g2
S'20574'
p55
sg4
S'904'
p56
sg6
S'a5b44b593f8f8dbc9d4ef18a119f70cf'
p57
sg8
S'xx9934070bb3d8bfad711c6353a92a2ab5'
p58
sg10
S'xx9cc2e83f171459c78fa180efb424ac48'
p59
sg12
S'xx6e2b663652ff2e04c8f639c4496e803b'
p60
sg14
S'Mozilla/5.0 (Linux; Android 5.1.1; Redmi 3 Build/LMY47V) AppleWebKit/537.36 (KHTML, like Gecko) Version/4.0 Chrome/37.0.0.0 Mobile MQQBrowser/6.8 TBS/036849 Safari/537.36 MicroMessenger/6.3.27.880 NetType/WIFI Language/zh_CN'
p61
sg16
S'3f28073769e2b8477b42b90a304ebe0c'
p62
sa(dp63
g2
S'20574'
p64
sg4
S'936'
p65
sg6
S'a5b44b593f8f8dbc9d4ef18a119f70cf'
p66
sg8
S'xx9934070bb3d8bfad711c6353a92a2ab5'
p67
sg10
S'xx9cc2e83f171459c78fa180efb424ac48'
p68
sg12
S'xx6e2b663652ff2e04c8f639c4496e803b'
p69
sg14
S'Mozilla/5.0 (Linux; Android 5.1.1; Redmi 3 Build/LMY47V) AppleWebKit/537.36 (KHTML, like Gecko) Version/4.0 Chrome/37.0.0.0 Mobile MQQBrowser/6.8 TBS/036849 Safari/537.36 MicroMessenger/6.3.27.880 NetType/WIFI Language/zh_CN'
p70
sg16
S'3f28073769e2b8477b42b90a304ebe0c'
p71
sa(dp72
g2
S'20574'
p73
sg4
S'973'
p74
sg6
S'a5b44b593f8f8dbc9d4ef18a119f70cf'
p75
sg8
S'xx9934070bb3d8bfad711c6353a92a2ab5'
p76
sg10
S'xx9cc2e83f171459c78fa180efb424ac48'
p77
sg12
S'xx6e2b663652ff2e04c8f639c4496e803b'
p78
sg14
S'Mozilla/5.0 (Linux; Android 5.1.1; Redmi 3 Build/LMY47V) AppleWebKit/537.36 (KHTML, like Gecko) Version/4.0 Chrome/37.0.0.0 Mobile MQQBrowser/6.8 TBS/036849 Safari/537.36 MicroMessenger/6.3.27.880 NetType/WIFI Language/zh_CN'
p79
sg16
S'3f28073769e2b8477b42b90a304ebe0c'
p80
sa(dp81
g2
S'20574'
p82
sg4
S'1210'
p83
sg6
S'a5b44b593f8f8dbc9d4ef18a119f70cf'
p84
sg8
S'xx9934070bb3d8bfad711c6353a92a2ab5'
p85
sg10
S'xx9cc2e83f171459c78fa180efb424ac48'
p86
sg12
S'xx6e2b663652ff2e04c8f639c4496e803b'
p87
sg14
S'Mozilla/5.0 (Linux; Android 5.1.1; Redmi 3 Build/LMY47V) AppleWebKit/537.36 (KHTML, like Gecko) Version/4.0 Chrome/37.0.0.0 Mobile MQQBrowser/6.8 TBS/036849 Safari/537.36 MicroMessenger/6.3.27.880 NetType/WIFI Language/zh_CN'
p88
sg16
S'3f28073769e2b8477b42b90a304ebe0c'
p89
sa(dp90
g2
S'20574'
p91
sg4
S'1337'
p92
sg6
S'a5b44b593f8f8dbc9d4ef18a119f70cf'
p93
sg8
S'xx9934070bb3d8bfad711c6353a92a2ab5'
p94
sg10
S'xx9cc2e83f171459c78fa180efb424ac48'
p95
sg12
S'xx6e2b663652ff2e04c8f639c4496e803b'
p96
sg14
S'Mozilla/5.0 (Linux; Android 5.1.1; Redmi 3 Build/LMY47V) AppleWebKit/537.36 (KHTML, like Gecko) Version/4.0 Chrome/37.0.0.0 Mobile MQQBrowser/6.8 TBS/036849 Safari/537.36 MicroMessenger/6.3.27.880 NetType/WIFI Language/zh_CN'
p97
sg16
S'3f28073769e2b8477b42b90a304ebe0c'
p98
sa(dp99
g2
S'35645'
p100
sg4
S'1983'
p101
sg6
S'5aed78690d86fb465be0e63a638c1bb9'
p102
sg8
S'xx0547cc58a276f9bd7c3374c0d74acc35'
p103
sg10
S'xx9cc2e83f171459c78fa180efb424ac48'
p104
sg12
S'xx6e2b663652ff2e04c8f639c4496e803b'
p105
sg14
S'Mozilla/5.0 (Linux; Android 5.1.1; Redmi 3 Build/LMY47V) AppleWebKit/537.36 (KHTML, like Gecko) Version/4.0 Chrome/37.0.0.0 Mobile MQQBrowser/6.8 TBS/036824 Safari/537.36 MicroMessenger/6.3.27.880 NetType/WIFI Language/zh_CN'
p106
sg16
S'e8d9f564dfb31043826d2396788d0626'
p107
sa(dp108
g2
S'35645'
p109
sg4
S'2000'
p110
sg6
S'5aed78690d86fb465be0e63a638c1bb9'
p111
sg8
S'xx0547cc58a276f9bd7c3374c0d74acc35'
p112
sg10
S'xx9cc2e83f171459c78fa180efb424ac48'
p113
sg12
S'xx6e2b663652ff2e04c8f639c4496e803b'
p114
sg14
S'Mozilla/5.0 (Linux; Android 5.1.1; Redmi 3 Build/LMY47V) AppleWebKit/537.36 (KHTML, like Gecko) Version/4.0 Chrome/37.0.0.0 Mobile MQQBrowser/6.8 TBS/036824 Safari/537.36 MicroMessenger/6.3.27.880 NetType/WIFI Language/zh_CN'
p115
sg16
S'e8d9f564dfb31043826d2396788d0626'
p116
sa(dp117
g2
S'35645'
p118
sg4
S'2017'
p119
sg6
S'5aed78690d86fb465be0e63a638c1bb9'
p120
sg8
S'xx0547cc58a276f9bd7c3374c0d74acc35'
p121
sg10
S'xx9cc2e83f171459c78fa180efb424ac48'
p122
sg12
S'xx6e2b663652ff2e04c8f639c4496e803b'
p123
sg14
S'Mozilla/5.0 (Linux; Android 5.1.1; Redmi 3 Build/LMY47V) AppleWebKit/537.36 (KHTML, like Gecko) Version/4.0 Chrome/37.0.0.0 Mobile MQQBrowser/6.8 TBS/036824 Safari/537.36 MicroMessenger/6.3.27.880 NetType/WIFI Language/zh_CN'
p124
sg16
S'e8d9f564dfb31043826d2396788d0626'
p125
sa(dp126
g2
S'25243'
p127
sg4
S'2415'
p128
sg6
S'de17a6a29674548500739afde18b53d1'
p129
sg8
S'xx9934070bb3d8bfad711c6353a92a2ab5'
p130
sg10
S'xx9cc2e83f171459c78fa180efb424ac48'
p131
sg12
S'xx6e2b663652ff2e04c8f639c4496e803b'
p132
sg14
S'Mozilla/5.0 (Linux; Android 5.1.1; Redmi 3 Build/LMY47V) AppleWebKit/537.36 (KHTML, like Gecko) Version/4.0 Chrome/37.0.0.0 Mobile MQQBrowser/6.8 TBS/036849 Safari/537.36 MicroMessenger/6.3.27.880 NetType/WIFI Language/zh_CN'
p133
sg16
S'3f28073769e2b8477b42b90a304ebe0c'
p134
sa(dp135
g2
S'25243'
p136
sg4
S'2436'
p137
sg6
S'de17a6a29674548500739afde18b53d1'
p138
sg8
S'xx9934070bb3d8bfad711c6353a92a2ab5'
p139
sg10
S'xx9cc2e83f171459c78fa180efb424ac48'
p140
sg12
S'xx6e2b663652ff2e04c8f639c4496e803b'
p141
sg14
S'Mozilla/5.0 (Linux; Android 5.1.1; Redmi 3 Build/LMY47V) AppleWebKit/537.36 (KHTML, like Gecko) Version/4.0 Chrome/37.0.0.0 Mobile MQQBrowser/6.8 TBS/036849 Safari/537.36 MicroMessenger/6.3.27.880 NetType/WIFI Language/zh_CN'
p142
sg16
S'3f28073769e2b8477b42b90a304ebe0c'
p143
sa(dp144
g2
S'25243'
p145
sg4
S'2452'
p146
sg6
S'de17a6a29674548500739afde18b53d1'
p147
sg8
S'xx9934070bb3d8bfad711c6353a92a2ab5'
p148
sg10
S'xx9cc2e83f171459c78fa180efb424ac48'
p149
sg12
S'xx6e2b663652ff2e04c8f639c4496e803b'
p150
sg14
S'Mozilla/5.0 (Linux; Android 5.1.1; Redmi 3 Build/LMY47V) AppleWebKit/537.36 (KHTML, like Gecko) Version/4.0 Chrome/37.0.0.0 Mobile MQQBrowser/6.8 TBS/036849 Safari/537.36 MicroMessenger/6.3.27.880 NetType/WIFI Language/zh_CN'
p151
sg16
S'3f28073769e2b8477b42b90a304ebe0c'
p152
sa(dp153
g2
S'25243'
p154
sg4
S'2478'
p155
sg6
S'de17a6a29674548500739afde18b53d1'
p156
sg8
S'xx9934070bb3d8bfad711c6353a92a2ab5'
p157
sg10
S'xx9cc2e83f171459c78fa180efb424ac48'
p158
sg12
S'xx6e2b663652ff2e04c8f639c4496e803b'
p159
sg14
S'Mozilla/5.0 (Linux; Android 5.1.1; Redmi 3 Build/LMY47V) AppleWebKit/537.36 (KHTML, like Gecko) Version/4.0 Chrome/37.0.0.0 Mobile MQQBrowser/6.8 TBS/036849 Safari/537.36 MicroMessenger/6.3.27.880 NetType/WIFI Language/zh_CN'
p160
sg16
S'3f28073769e2b8477b42b90a304ebe0c'
p161
sa(dp162
g2
S'25243'
p163
sg4
S'2500'
p164
sg6
S'de17a6a29674548500739afde18b53d1'
p165
sg8
S'xx9934070bb3d8bfad711c6353a92a2ab5'
p166
sg10
S'xx9cc2e83f171459c78fa180efb424ac48'
p167
sg12
S'xx6e2b663652ff2e04c8f639c4496e803b'
p168
sg14
S'Mozilla/5.0 (Linux; Android 5.1.1; Redmi 3 Build/LMY47V) AppleWebKit/537.36 (KHTML, like Gecko) Version/4.0 Chrome/37.0.0.0 Mobile MQQBrowser/6.8 TBS/036849 Safari/537.36 MicroMessenger/6.3.27.880 NetType/WIFI Language/zh_CN'
p169
sg16
S'3f28073769e2b8477b42b90a304ebe0c'
p170
sa(dp171
g2
S'25243'
p172
sg4
S'2536'
p173
sg6
S'de17a6a29674548500739afde18b53d1'
p174
sg8
S'xx9934070bb3d8bfad711c6353a92a2ab5'
p175
sg10
S'xx9cc2e83f171459c78fa180efb424ac48'
p176
sg12
S'xx6e2b663652ff2e04c8f639c4496e803b'
p177
sg14
S'Mozilla/5.0 (Linux; Android 5.1.1; Redmi 3 Build/LMY47V) AppleWebKit/537.36 (KHTML, like Gecko) Version/4.0 Chrome/37.0.0.0 Mobile MQQBrowser/6.8 TBS/036849 Safari/537.36 MicroMessenger/6.3.27.880 NetType/WIFI Language/zh_CN'
p178
sg16
S'3f28073769e2b8477b42b90a304ebe0c'
p179
sa(dp180
g2
S'25243'
p181
sg4
S'2583'
p182
sg6
S'de17a6a29674548500739afde18b53d1'
p183
sg8
S'xx9934070bb3d8bfad711c6353a92a2ab5'
p184
sg10
S'xx9cc2e83f171459c78fa180efb424ac48'
p185
sg12
S'xx6e2b663652ff2e04c8f639c4496e803b'
p186
sg14
S'Mozilla/5.0 (Linux; Android 5.1.1; Redmi 3 Build/LMY47V) AppleWebKit/537.36 (KHTML, like Gecko) Version/4.0 Chrome/37.0.0.0 Mobile MQQBrowser/6.8 TBS/036849 Safari/537.36 MicroMessenger/6.3.27.880 NetType/WIFI Language/zh_CN'
p187
sg16
S'3f28073769e2b8477b42b90a304ebe0c'
p188
sa(dp189
g2
S'25243'
p190
sg4
S'2601'
p191
sg6
S'de17a6a29674548500739afde18b53d1'
p192
sg8
S'xx9934070bb3d8bfad711c6353a92a2ab5'
p193
sg10
S'xx9cc2e83f171459c78fa180efb424ac48'
p194
sg12
S'xx6e2b663652ff2e04c8f639c4496e803b'
p195
sg14
S'Mozilla/5.0 (Linux; Android 5.1.1; Redmi 3 Build/LMY47V) AppleWebKit/537.36 (KHTML, like Gecko) Version/4.0 Chrome/37.0.0.0 Mobile MQQBrowser/6.8 TBS/036849 Safari/537.36 MicroMessenger/6.3.27.880 NetType/WIFI Language/zh_CN'
p196
sg16
S'3f28073769e2b8477b42b90a304ebe0c'
p197
sa(dp198
g2
S'20574'
p199
sg4
S'2791'
p200
sg6
S'a5b44b593f8f8dbc9d4ef18a119f70cf'
p201
sg8
S'xx9934070bb3d8bfad711c6353a92a2ab5'
p202
sg10
S'xx9cc2e83f171459c78fa180efb424ac48'
p203
sg12
S'xx6e2b663652ff2e04c8f639c4496e803b'
p204
sg14
S'Mozilla/5.0 (Linux; Android 5.1.1; Redmi 3 Build/LMY47V) AppleWebKit/537.36 (KHTML, like Gecko) Version/4.0 Chrome/37.0.0.0 Mobile MQQBrowser/6.8 TBS/036849 Safari/537.36 MicroMessenger/6.3.27.880 NetType/WIFI Language/zh_CN'
p205
sg16
S'3f28073769e2b8477b42b90a304ebe0c'
p206
sa(dp207
g2
S'20574'
p208
sg4
S'2805'
p209
sg6
S'a5b44b593f8f8dbc9d4ef18a119f70cf'
p210
sg8
S'xx9934070bb3d8bfad711c6353a92a2ab5'
p211
sg10
S'xx9cc2e83f171459c78fa180efb424ac48'
p212
sg12
S'xx6e2b663652ff2e04c8f639c4496e803b'
p213
sg14
S'Mozilla/5.0 (Linux; Android 5.1.1; Redmi 3 Build/LMY47V) AppleWebKit/537.36 (KHTML, like Gecko) Version/4.0 Chrome/37.0.0.0 Mobile MQQBrowser/6.8 TBS/036849 Safari/537.36 MicroMessenger/6.3.27.880 NetType/WIFI Language/zh_CN'
p214
sg16
S'3f28073769e2b8477b42b90a304ebe0c'
p215
sa(dp216
g2
S'20574'
p217
sg4
S'2827'
p218
sg6
S'a5b44b593f8f8dbc9d4ef18a119f70cf'
p219
sg8
S'xx9934070bb3d8bfad711c6353a92a2ab5'
p220
sg10
S'xx9cc2e83f171459c78fa180efb424ac48'
p221
sg12
S'xx6e2b663652ff2e04c8f639c4496e803b'
p222
sg14
S'Mozilla/5.0 (Linux; Android 5.1.1; Redmi 3 Build/LMY47V) AppleWebKit/537.36 (KHTML, like Gecko) Version/4.0 Chrome/37.0.0.0 Mobile MQQBrowser/6.8 TBS/036849 Safari/537.36 MicroMessenger/6.3.27.880 NetType/WIFI Language/zh_CN'
p223
sg16
S'3f28073769e2b8477b42b90a304ebe0c'
p224
sa(dp225
g2
S'25243'
p226
sg4
S'3270'
p227
sg6
S'de17a6a29674548500739afde18b53d1'
p228
sg8
S'xx9934070bb3d8bfad711c6353a92a2ab5'
p229
sg10
S'xx9cc2e83f171459c78fa180efb424ac48'
p230
sg12
S'xx6e2b663652ff2e04c8f639c4496e803b'
p231
sg14
S'Mozilla/5.0 (Linux; Android 5.1.1; Redmi 3 Build/LMY47V) AppleWebKit/537.36 (KHTML, like Gecko) Version/4.0 Chrome/37.0.0.0 Mobile MQQBrowser/6.8 TBS/036849 Safari/537.36 MicroMessenger/6.3.27.880 NetType/WIFI Language/zh_CN'
p232
sg16
S'3f28073769e2b8477b42b90a304ebe0c'
p233
sa(dp234
g2
S'25243'
p235
sg4
S'3285'
p236
sg6
S'de17a6a29674548500739afde18b53d1'
p237
sg8
S'xx9934070bb3d8bfad711c6353a92a2ab5'
p238
sg10
S'xx9cc2e83f171459c78fa180efb424ac48'
p239
sg12
S'xx6e2b663652ff2e04c8f639c4496e803b'
p240
sg14
S'Mozilla/5.0 (Linux; Android 5.1.1; Redmi 3 Build/LMY47V) AppleWebKit/537.36 (KHTML, like Gecko) Version/4.0 Chrome/37.0.0.0 Mobile MQQBrowser/6.8 TBS/036849 Safari/537.36 MicroMessenger/6.3.27.880 NetType/WIFI Language/zh_CN'
p241
sg16
S'3f28073769e2b8477b42b90a304ebe0c'
p242
sa(dp243
g2
S'25243'
p244
sg4
S'3299'
p245
sg6
S'de17a6a29674548500739afde18b53d1'
p246
sg8
S'xx9934070bb3d8bfad711c6353a92a2ab5'
p247
sg10
S'xx9cc2e83f171459c78fa180efb424ac48'
p248
sg12
S'xx6e2b663652ff2e04c8f639c4496e803b'
p249
sg14
S'Mozilla/5.0 (Linux; Android 5.1.1; Redmi 3 Build/LMY47V) AppleWebKit/537.36 (KHTML, like Gecko) Version/4.0 Chrome/37.0.0.0 Mobile MQQBrowser/6.8 TBS/036849 Safari/537.36 MicroMessenger/6.3.27.880 NetType/WIFI Language/zh_CN'
p250
sg16
S'3f28073769e2b8477b42b90a304ebe0c'
p251
sa(dp252
g2
S'49772'
p253
sg4
S'3569'
p254
sg6
S'a2cc057e70d667a9b68a39d6cb3938e2'
p255
sg8
S'xx0547cc58a276f9bd7c3374c0d74acc35'
p256
sg10
S'xx9cc2e83f171459c78fa180efb424ac48'
p257
sg12
S'xx6e2b663652ff2e04c8f639c4496e803b'
p258
sg14
S'Mozilla/5.0 (Linux; Android 5.1.1; Redmi 3 Build/LMY47V) AppleWebKit/537.36 (KHTML, like Gecko) Version/4.0 Chrome/37.0.0.0 Mobile MQQBrowser/6.8 TBS/036824 Safari/537.36 MicroMessenger/6.3.27.880 NetType/WIFI Language/zh_CN'
p259
sg16
S'e8d9f564dfb31043826d2396788d0626'
p260
sa(dp261
g2
S'49772'
p262
sg4
S'3587'
p263
sg6
S'a2cc057e70d667a9b68a39d6cb3938e2'
p264
sg8
S'xx0547cc58a276f9bd7c3374c0d74acc35'
p265
sg10
S'xx9cc2e83f171459c78fa180efb424ac48'
p266
sg12
S'xx6e2b663652ff2e04c8f639c4496e803b'
p267
sg14
S'Mozilla/5.0 (Linux; Android 5.1.1; Redmi 3 Build/LMY47V) AppleWebKit/537.36 (KHTML, like Gecko) Version/4.0 Chrome/37.0.0.0 Mobile MQQBrowser/6.8 TBS/036824 Safari/537.36 MicroMessenger/6.3.27.880 NetType/WIFI Language/zh_CN'
p268
sg16
S'e8d9f564dfb31043826d2396788d0626'
p269
sa(dp270
g2
S'49772'
p271
sg4
S'3598'
p272
sg6
S'a2cc057e70d667a9b68a39d6cb3938e2'
p273
sg8
S'xx0547cc58a276f9bd7c3374c0d74acc35'
p274
sg10
S'xx9cc2e83f171459c78fa180efb424ac48'
p275
sg12
S'xx6e2b663652ff2e04c8f639c4496e803b'
p276
sg14
S'Mozilla/5.0 (Linux; Android 5.1.1; Redmi 3 Build/LMY47V) AppleWebKit/537.36 (KHTML, like Gecko) Version/4.0 Chrome/37.0.0.0 Mobile MQQBrowser/6.8 TBS/036824 Safari/537.36 MicroMessenger/6.3.27.880 NetType/WIFI Language/zh_CN'
p277
sg16
S'e8d9f564dfb31043826d2396788d0626'
p278
sa(dp279
g2
S'49772'
p280
sg4
S'3616'
p281
sg6
S'a2cc057e70d667a9b68a39d6cb3938e2'
p282
sg8
S'xx0547cc58a276f9bd7c3374c0d74acc35'
p283
sg10
S'xx9cc2e83f171459c78fa180efb424ac48'
p284
sg12
S'xx6e2b663652ff2e04c8f639c4496e803b'
p285
sg14
S'Mozilla/5.0 (Linux; Android 5.1.1; Redmi 3 Build/LMY47V) AppleWebKit/537.36 (KHTML, like Gecko) Version/4.0 Chrome/37.0.0.0 Mobile MQQBrowser/6.8 TBS/036824 Safari/537.36 MicroMessenger/6.3.27.880 NetType/WIFI Language/zh_CN'
p286
sg16
S'e8d9f564dfb31043826d2396788d0626'
p287
sa(dp288
g2
S'20574'
p289
sg4
S'3702'
p290
sg6
S'a5b44b593f8f8dbc9d4ef18a119f70cf'
p291
sg8
S'xx9934070bb3d8bfad711c6353a92a2ab5'
p292
sg10
S'xx9cc2e83f171459c78fa180efb424ac48'
p293
sg12
S'xx6e2b663652ff2e04c8f639c4496e803b'
p294
sg14
S'Mozilla/5.0 (Linux; Android 5.1.1; Redmi 3 Build/LMY47V) AppleWebKit/537.36 (KHTML, like Gecko) Version/4.0 Chrome/37.0.0.0 Mobile MQQBrowser/6.8 TBS/036849 Safari/537.36 MicroMessenger/6.3.27.880 NetType/WIFI Language/zh_CN'
p295
sg16
S'3f28073769e2b8477b42b90a304ebe0c'
p296
sa(dp297
g2
S'20574'
p298
sg4
S'3719'
p299
sg6
S'a5b44b593f8f8dbc9d4ef18a119f70cf'
p300
sg8
S'xx9934070bb3d8bfad711c6353a92a2ab5'
p301
sg10
S'xx9cc2e83f171459c78fa180efb424ac48'
p302
sg12
S'xx6e2b663652ff2e04c8f639c4496e803b'
p303
sg14
S'Mozilla/5.0 (Linux; Android 5.1.1; Redmi 3 Build/LMY47V) AppleWebKit/537.36 (KHTML, like Gecko) Version/4.0 Chrome/37.0.0.0 Mobile MQQBrowser/6.8 TBS/036849 Safari/537.36 MicroMessenger/6.3.27.880 NetType/WIFI Language/zh_CN'
p304
sg16
S'3f28073769e2b8477b42b90a304ebe0c'
p305
sa(dp306
g2
S'20574'
p307
sg4
S'4043'
p308
sg6
S'a5b44b593f8f8dbc9d4ef18a119f70cf'
p309
sg8
S'xx9934070bb3d8bfad711c6353a92a2ab5'
p310
sg10
S'xx9cc2e83f171459c78fa180efb424ac48'
p311
sg12
S'xx6e2b663652ff2e04c8f639c4496e803b'
p312
sg14
S'Mozilla/5.0 (Linux; Android 5.1.1; Redmi 3 Build/LMY47V) AppleWebKit/537.36 (KHTML, like Gecko) Version/4.0 Chrome/37.0.0.0 Mobile MQQBrowser/6.8 TBS/036849 Safari/537.36 MicroMessenger/6.3.27.880 NetType/WIFI Language/zh_CN'
p313
sg16
S'3f28073769e2b8477b42b90a304ebe0c'
p314
sa(dp315
g2
S'25243'
p316
sg4
S'4087'
p317
sg6
S'de17a6a29674548500739afde18b53d1'
p318
sg8
S'xx9934070bb3d8bfad711c6353a92a2ab5'
p319
sg10
S'xx9cc2e83f171459c78fa180efb424ac48'
p320
sg12
S'xx6e2b663652ff2e04c8f639c4496e803b'
p321
sg14
S'Mozilla/5.0 (Linux; Android 5.1.1; Redmi 3 Build/LMY47V) AppleWebKit/537.36 (KHTML, like Gecko) Version/4.0 Chrome/37.0.0.0 Mobile MQQBrowser/6.8 TBS/036849 Safari/537.36 MicroMessenger/6.3.27.880 NetType/WIFI Language/zh_CN'
p322
sg16
S'3f28073769e2b8477b42b90a304ebe0c'
p323
sa(dp324
g2
S'25243'
p325
sg4
S'4110'
p326
sg6
S'de17a6a29674548500739afde18b53d1'
p327
sg8
S'xx9934070bb3d8bfad711c6353a92a2ab5'
p328
sg10
S'xx9cc2e83f171459c78fa180efb424ac48'
p329
sg12
S'xx6e2b663652ff2e04c8f639c4496e803b'
p330
sg14
S'Mozilla/5.0 (Linux; Android 5.1.1; Redmi 3 Build/LMY47V) AppleWebKit/537.36 (KHTML, like Gecko) Version/4.0 Chrome/37.0.0.0 Mobile MQQBrowser/6.8 TBS/036849 Safari/537.36 MicroMessenger/6.3.27.880 NetType/WIFI Language/zh_CN'
p331
sg16
S'3f28073769e2b8477b42b90a304ebe0c'
p332
sa(dp333
g2
S'25243'
p334
sg4
S'4155'
p335
sg6
S'de17a6a29674548500739afde18b53d1'
p336
sg8
S'xx9934070bb3d8bfad711c6353a92a2ab5'
p337
sg10
S'xx9cc2e83f171459c78fa180efb424ac48'
p338
sg12
S'xx6e2b663652ff2e04c8f639c4496e803b'
p339
sg14
S'Mozilla/5.0 (Linux; Android 5.1.1; Redmi 3 Build/LMY47V) AppleWebKit/537.36 (KHTML, like Gecko) Version/4.0 Chrome/37.0.0.0 Mobile MQQBrowser/6.8 TBS/036849 Safari/537.36 MicroMessenger/6.3.27.880 NetType/WIFI Language/zh_CN'
p340
sg16
S'3f28073769e2b8477b42b90a304ebe0c'
p341
sa(dp342
g2
S'25243'
p343
sg4
S'4175'
p344
sg6
S'de17a6a29674548500739afde18b53d1'
p345
sg8
S'xx9934070bb3d8bfad711c6353a92a2ab5'
p346
sg10
S'xx9cc2e83f171459c78fa180efb424ac48'
p347
sg12
S'xx6e2b663652ff2e04c8f639c4496e803b'
p348
sg14
S'Mozilla/5.0 (Linux; Android 5.1.1; Redmi 3 Build/LMY47V) AppleWebKit/537.36 (KHTML, like Gecko) Version/4.0 Chrome/37.0.0.0 Mobile MQQBrowser/6.8 TBS/036849 Safari/537.36 MicroMessenger/6.3.27.880 NetType/WIFI Language/zh_CN'
p349
sg16
S'3f28073769e2b8477b42b90a304ebe0c'
p350
sa(dp351
g2
S'25243'
p352
sg4
S'4182'
p353
sg6
S'de17a6a29674548500739afde18b53d1'
p354
sg8
S'xx9934070bb3d8bfad711c6353a92a2ab5'
p355
sg10
S'xx9cc2e83f171459c78fa180efb424ac48'
p356
sg12
S'xx6e2b663652ff2e04c8f639c4496e803b'
p357
sg14
S'Mozilla/5.0 (Linux; Android 5.1.1; Redmi 3 Build/LMY47V) AppleWebKit/537.36 (KHTML, like Gecko) Version/4.0 Chrome/37.0.0.0 Mobile MQQBrowser/6.8 TBS/036849 Safari/537.36 MicroMessenger/6.3.27.880 NetType/WIFI Language/zh_CN'
p358
sg16
S'3f28073769e2b8477b42b90a304ebe0c'
p359
sa(dp360
g2
S'25243'
p361
sg4
S'4204'
p362
sg6
S'de17a6a29674548500739afde18b53d1'
p363
sg8
S'xx9934070bb3d8bfad711c6353a92a2ab5'
p364
sg10
S'xx9cc2e83f171459c78fa180efb424ac48'
p365
sg12
S'xx6e2b663652ff2e04c8f639c4496e803b'
p366
sg14
S'Mozilla/5.0 (Linux; Android 5.1.1; Redmi 3 Build/LMY47V) AppleWebKit/537.36 (KHTML, like Gecko) Version/4.0 Chrome/37.0.0.0 Mobile MQQBrowser/6.8 TBS/036849 Safari/537.36 MicroMessenger/6.3.27.880 NetType/WIFI Language/zh_CN'
p367
sg16
S'3f28073769e2b8477b42b90a304ebe0c'
p368
sa(dp369
g2
S'25243'
p370
sg4
S'4267'
p371
sg6
S'de17a6a29674548500739afde18b53d1'
p372
sg8
S'xx9934070bb3d8bfad711c6353a92a2ab5'
p373
sg10
S'xx9cc2e83f171459c78fa180efb424ac48'
p374
sg12
S'xx6e2b663652ff2e04c8f639c4496e803b'
p375
sg14
S'Mozilla/5.0 (Linux; Android 5.1.1; Redmi 3 Build/LMY47V) AppleWebKit/537.36 (KHTML, like Gecko) Version/4.0 Chrome/37.0.0.0 Mobile MQQBrowser/6.8 TBS/036849 Safari/537.36 MicroMessenger/6.3.27.880 NetType/WIFI Language/zh_CN'
p376
sg16
S'3f28073769e2b8477b42b90a304ebe0c'
p377
sa(dp378
g2
S'25243'
p379
sg4
S'4319'
p380
sg6
S'de17a6a29674548500739afde18b53d1'
p381
sg8
S'xx9934070bb3d8bfad711c6353a92a2ab5'
p382
sg10
S'xx9cc2e83f171459c78fa180efb424ac48'
p383
sg12
S'xx6e2b663652ff2e04c8f639c4496e803b'
p384
sg14
S'Mozilla/5.0 (Linux; Android 5.1.1; Redmi 3 Build/LMY47V) AppleWebKit/537.36 (KHTML, like Gecko) Version/4.0 Chrome/37.0.0.0 Mobile MQQBrowser/6.8 TBS/036849 Safari/537.36 MicroMessenger/6.3.27.880 NetType/WIFI Language/zh_CN'
p385
sg16
S'3f28073769e2b8477b42b90a304ebe0c'
p386
sa(dp387
g2
S'25243'
p388
sg4
S'4391'
p389
sg6
S'de17a6a29674548500739afde18b53d1'
p390
sg8
S'xx9934070bb3d8bfad711c6353a92a2ab5'
p391
sg10
S'xx9cc2e83f171459c78fa180efb424ac48'
p392
sg12
S'xx6e2b663652ff2e04c8f639c4496e803b'
p393
sg14
S'Mozilla/5.0 (Linux; Android 5.1.1; Redmi 3 Build/LMY47V) AppleWebKit/537.36 (KHTML, like Gecko) Version/4.0 Chrome/37.0.0.0 Mobile MQQBrowser/6.8 TBS/036849 Safari/537.36 MicroMessenger/6.3.27.880 NetType/WIFI Language/zh_CN'
p394
sg16
S'3f28073769e2b8477b42b90a304ebe0c'
p395
sa(dp396
g2
S'25243'
p397
sg4
S'4518'
p398
sg6
S'de17a6a29674548500739afde18b53d1'
p399
sg8
S'xx9934070bb3d8bfad711c6353a92a2ab5'
p400
sg10
S'xx9cc2e83f171459c78fa180efb424ac48'
p401
sg12
S'xx6e2b663652ff2e04c8f639c4496e803b'
p402
sg14
S'Mozilla/5.0 (Linux; Android 5.1.1; Redmi 3 Build/LMY47V) AppleWebKit/537.36 (KHTML, like Gecko) Version/4.0 Chrome/37.0.0.0 Mobile MQQBrowser/6.8 TBS/036849 Safari/537.36 MicroMessenger/6.3.27.880 NetType/WIFI Language/zh_CN'
p403
sg16
S'3f28073769e2b8477b42b90a304ebe0c'
p404
sa(dp405
g2
S'25243'
p406
sg4
S'4667'
p407
sg6
S'de17a6a29674548500739afde18b53d1'
p408
sg8
S'xx9934070bb3d8bfad711c6353a92a2ab5'
p409
sg10
S'xx9cc2e83f171459c78fa180efb424ac48'
p410
sg12
S'xx6e2b663652ff2e04c8f639c4496e803b'
p411
sg14
S'Mozilla/5.0 (Linux; Android 5.1.1; Redmi 3 Build/LMY47V) AppleWebKit/537.36 (KHTML, like Gecko) Version/4.0 Chrome/37.0.0.0 Mobile MQQBrowser/6.8 TBS/036849 Safari/537.36 MicroMessenger/6.3.27.880 NetType/WIFI Language/zh_CN'
p412
sg16
S'3f28073769e2b8477b42b90a304ebe0c'
p413
sa(dp414
g2
S'17271'
p415
sg4
S'7588'
p416
sg6
S'9a3bb90ea999051f1b5a6584aa020244'
p417
sg8
S'xx28b69bc63182280d80765edc85be84c2'
p418
sg10
S'xx9cc2e83f171459c78fa180efb424ac48'
p419
sg12
S'xx6e2b663652ff2e04c8f639c4496e803b'
p420
sg14
S'Mozilla/5.0 (Linux; Android 5.1.1; Redmi 3 Build/LMY47V) AppleWebKit/537.36 (KHTML, like Gecko) Version/4.0 Chrome/37.0.0.0 Mobile MQQBrowser/6.8 TBS/036849 Safari/537.36 MicroMessenger/6.3.27.880 NetType/WIFI Language/zh_TW'
p421
sg16
S'386775247c7189cfd23a07e711f36522'
p422
sa(dp423
g2
S'17271'
p424
sg4
S'7597'
p425
sg6
S'9a3bb90ea999051f1b5a6584aa020244'
p426
sg8
S'xx28b69bc63182280d80765edc85be84c2'
p427
sg10
S'xx9cc2e83f171459c78fa180efb424ac48'
p428
sg12
S'xx6e2b663652ff2e04c8f639c4496e803b'
p429
sg14
S'Mozilla/5.0 (Linux; Android 5.1.1; Redmi 3 Build/LMY47V) AppleWebKit/537.36 (KHTML, like Gecko) Version/4.0 Chrome/37.0.0.0 Mobile MQQBrowser/6.8 TBS/036849 Safari/537.36 MicroMessenger/6.3.27.880 NetType/WIFI Language/zh_TW'
p430
sg16
S'386775247c7189cfd23a07e711f36522'
p431
sa(dp432
g2
S'17271'
p433
sg4
S'7623'
p434
sg6
S'9a3bb90ea999051f1b5a6584aa020244'
p435
sg8
S'xx28b69bc63182280d80765edc85be84c2'
p436
sg10
S'xx9cc2e83f171459c78fa180efb424ac48'
p437
sg12
S'xx6e2b663652ff2e04c8f639c4496e803b'
p438
sg14
S'Mozilla/5.0 (Linux; Android 5.1.1; Redmi 3 Build/LMY47V) AppleWebKit/537.36 (KHTML, like Gecko) Version/4.0 Chrome/37.0.0.0 Mobile MQQBrowser/6.8 TBS/036849 Safari/537.36 MicroMessenger/6.3.27.880 NetType/WIFI Language/zh_TW'
p439
sg16
S'386775247c7189cfd23a07e711f36522'
p440
sa(dp441
g2
S'17271'
p442
sg4
S'7633'
p443
sg6
S'9a3bb90ea999051f1b5a6584aa020244'
p444
sg8
S'xx28b69bc63182280d80765edc85be84c2'
p445
sg10
S'xx9cc2e83f171459c78fa180efb424ac48'
p446
sg12
S'xx6e2b663652ff2e04c8f639c4496e803b'
p447
sg14
S'Mozilla/5.0 (Linux; Android 5.1.1; Redmi 3 Build/LMY47V) AppleWebKit/537.36 (KHTML, like Gecko) Version/4.0 Chrome/37.0.0.0 Mobile MQQBrowser/6.8 TBS/036849 Safari/537.36 MicroMessenger/6.3.27.880 NetType/WIFI Language/zh_TW'
p448
sg16
S'386775247c7189cfd23a07e711f36522'
p449
sa(dp450
g2
S'17271'
p451
sg4
S'7652'
p452
sg6
S'9a3bb90ea999051f1b5a6584aa020244'
p453
sg8
S'xx28b69bc63182280d80765edc85be84c2'
p454
sg10
S'xx9cc2e83f171459c78fa180efb424ac48'
p455
sg12
S'xx6e2b663652ff2e04c8f639c4496e803b'
p456
sg14
S'Mozilla/5.0 (Linux; Android 5.1.1; Redmi 3 Build/LMY47V) AppleWebKit/537.36 (KHTML, like Gecko) Version/4.0 Chrome/37.0.0.0 Mobile MQQBrowser/6.8 TBS/036849 Safari/537.36 MicroMessenger/6.3.27.880 NetType/WIFI Language/zh_TW'
p457
sg16
S'386775247c7189cfd23a07e711f36522'
p458
sa(dp459
g2
S'17271'
p460
sg4
S'7853'
p461
sg6
S'9a3bb90ea999051f1b5a6584aa020244'
p462
sg8
S'xx28b69bc63182280d80765edc85be84c2'
p463
sg10
S'xx9cc2e83f171459c78fa180efb424ac48'
p464
sg12
S'xx6e2b663652ff2e04c8f639c4496e803b'
p465
sg14
S'Mozilla/5.0 (Linux; Android 5.1.1; Redmi 3 Build/LMY47V) AppleWebKit/537.36 (KHTML, like Gecko) Version/4.0 Chrome/37.0.0.0 Mobile MQQBrowser/6.8 TBS/036849 Safari/537.36 MicroMessenger/6.3.27.880 NetType/WIFI Language/zh_TW'
p466
sg16
S'386775247c7189cfd23a07e711f36522'
p467
sa(dp468
g2
S'17271'
p469
sg4
S'7865'
p470
sg6
S'9a3bb90ea999051f1b5a6584aa020244'
p471
sg8
S'xx28b69bc63182280d80765edc85be84c2'
p472
sg10
S'xx9cc2e83f171459c78fa180efb424ac48'
p473
sg12
S'xx6e2b663652ff2e04c8f639c4496e803b'
p474
sg14
S'Mozilla/5.0 (Linux; Android 5.1.1; Redmi 3 Build/LMY47V) AppleWebKit/537.36 (KHTML, like Gecko) Version/4.0 Chrome/37.0.0.0 Mobile MQQBrowser/6.8 TBS/036849 Safari/537.36 MicroMessenger/6.3.27.880 NetType/WIFI Language/zh_TW'
p475
sg16
S'386775247c7189cfd23a07e711f36522'
p476
sa(dp477
g2
S'17271'
p478
sg4
S'7880'
p479
sg6
S'9a3bb90ea999051f1b5a6584aa020244'
p480
sg8
S'xx28b69bc63182280d80765edc85be84c2'
p481
sg10
S'xx9cc2e83f171459c78fa180efb424ac48'
p482
sg12
S'xx6e2b663652ff2e04c8f639c4496e803b'
p483
sg14
S'Mozilla/5.0 (Linux; Android 5.1.1; Redmi 3 Build/LMY47V) AppleWebKit/537.36 (KHTML, like Gecko) Version/4.0 Chrome/37.0.0.0 Mobile MQQBrowser/6.8 TBS/036849 Safari/537.36 MicroMessenger/6.3.27.880 NetType/WIFI Language/zh_TW'
p484
sg16
S'386775247c7189cfd23a07e711f36522'
p485
sa(dp486
g2
S'17271'
p487
sg4
S'7893'
p488
sg6
S'9a3bb90ea999051f1b5a6584aa020244'
p489
sg8
S'xx28b69bc63182280d80765edc85be84c2'
p490
sg10
S'xx9cc2e83f171459c78fa180efb424ac48'
p491
sg12
S'xx6e2b663652ff2e04c8f639c4496e803b'
p492
sg14
S'Mozilla/5.0 (Linux; Android 5.1.1; Redmi 3 Build/LMY47V) AppleWebKit/537.36 (KHTML, like Gecko) Version/4.0 Chrome/37.0.0.0 Mobile MQQBrowser/6.8 TBS/036849 Safari/537.36 MicroMessenger/6.3.27.880 NetType/WIFI Language/zh_TW'
p493
sg16
S'386775247c7189cfd23a07e711f36522'
p494
sa(dp495
g2
S'17271'
p496
sg4
S'7907'
p497
sg6
S'9a3bb90ea999051f1b5a6584aa020244'
p498
sg8
S'xx28b69bc63182280d80765edc85be84c2'
p499
sg10
S'xx9cc2e83f171459c78fa180efb424ac48'
p500
sg12
S'xx6e2b663652ff2e04c8f639c4496e803b'
p501
sg14
S'Mozilla/5.0 (Linux; Android 5.1.1; Redmi 3 Build/LMY47V) AppleWebKit/537.36 (KHTML, like Gecko) Version/4.0 Chrome/37.0.0.0 Mobile MQQBrowser/6.8 TBS/036849 Safari/537.36 MicroMessenger/6.3.27.880 NetType/WIFI Language/zh_TW'
p502
sg16
S'386775247c7189cfd23a07e711f36522'
p503
sa(dp504
g2
S'17271'
p505
sg4
S'8015'
p506
sg6
S'9a3bb90ea999051f1b5a6584aa020244'
p507
sg8
S'xx28b69bc63182280d80765edc85be84c2'
p508
sg10
S'xx9cc2e83f171459c78fa180efb424ac48'
p509
sg12
S'xx6e2b663652ff2e04c8f639c4496e803b'
p510
sg14
S'Mozilla/5.0 (Linux; Android 5.1.1; Redmi 3 Build/LMY47V) AppleWebKit/537.36 (KHTML, like Gecko) Version/4.0 Chrome/37.0.0.0 Mobile MQQBrowser/6.8 TBS/036849 Safari/537.36 MicroMessenger/6.3.27.880 NetType/WIFI Language/zh_TW'
p511
sg16
S'386775247c7189cfd23a07e711f36522'
p512
sa(dp513
g2
S'17271'
p514
sg4
S'8031'
p515
sg6
S'9a3bb90ea999051f1b5a6584aa020244'
p516
sg8
S'xx28b69bc63182280d80765edc85be84c2'
p517
sg10
S'xx9cc2e83f171459c78fa180efb424ac48'
p518
sg12
S'xx6e2b663652ff2e04c8f639c4496e803b'
p519
sg14
S'Mozilla/5.0 (Linux; Android 5.1.1; Redmi 3 Build/LMY47V) AppleWebKit/537.36 (KHTML, like Gecko) Version/4.0 Chrome/37.0.0.0 Mobile MQQBrowser/6.8 TBS/036849 Safari/537.36 MicroMessenger/6.3.27.880 NetType/WIFI Language/zh_TW'
p520
sg16
S'386775247c7189cfd23a07e711f36522'
p521
sa(dp522
g2
S'17271'
p523
sg4
S'8041'
p524
sg6
S'9a3bb90ea999051f1b5a6584aa020244'
p525
sg8
S'xx28b69bc63182280d80765edc85be84c2'
p526
sg10
S'xx9cc2e83f171459c78fa180efb424ac48'
p527
sg12
S'xx6e2b663652ff2e04c8f639c4496e803b'
p528
sg14
S'Mozilla/5.0 (Linux; Android 5.1.1; Redmi 3 Build/LMY47V) AppleWebKit/537.36 (KHTML, like Gecko) Version/4.0 Chrome/37.0.0.0 Mobile MQQBrowser/6.8 TBS/036849 Safari/537.36 MicroMessenger/6.3.27.880 NetType/WIFI Language/zh_TW'
p529
sg16
S'386775247c7189cfd23a07e711f36522'
p530
sa(dp531
g2
S'17271'
p532
sg4
S'8162'
p533
sg6
S'9a3bb90ea999051f1b5a6584aa020244'
p534
sg8
S'xx28b69bc63182280d80765edc85be84c2'
p535
sg10
S'xx9cc2e83f171459c78fa180efb424ac48'
p536
sg12
S'xx6e2b663652ff2e04c8f639c4496e803b'
p537
sg14
S'Mozilla/5.0 (Linux; Android 5.1.1; Redmi 3 Build/LMY47V) AppleWebKit/537.36 (KHTML, like Gecko) Version/4.0 Chrome/37.0.0.0 Mobile MQQBrowser/6.8 TBS/036849 Safari/537.36 MicroMessenger/6.3.27.880 NetType/WIFI Language/zh_TW'
p538
sg16
S'386775247c7189cfd23a07e711f36522'
p539
sa(dp540
g2
S'17271'
p541
sg4
S'8173'
p542
sg6
S'9a3bb90ea999051f1b5a6584aa020244'
p543
sg8
S'xx28b69bc63182280d80765edc85be84c2'
p544
sg10
S'xx9cc2e83f171459c78fa180efb424ac48'
p545
sg12
S'xx6e2b663652ff2e04c8f639c4496e803b'
p546
sg14
S'Mozilla/5.0 (Linux; Android 5.1.1; Redmi 3 Build/LMY47V) AppleWebKit/537.36 (KHTML, like Gecko) Version/4.0 Chrome/37.0.0.0 Mobile MQQBrowser/6.8 TBS/036849 Safari/537.36 MicroMessenger/6.3.27.880 NetType/WIFI Language/zh_TW'
p547
sg16
S'386775247c7189cfd23a07e711f36522'
p548
sa(dp549
g2
S'17271'
p550
sg4
S'8186'
p551
sg6
S'9a3bb90ea999051f1b5a6584aa020244'
p552
sg8
S'xx28b69bc63182280d80765edc85be84c2'
p553
sg10
S'xx9cc2e83f171459c78fa180efb424ac48'
p554
sg12
S'xx6e2b663652ff2e04c8f639c4496e803b'
p555
sg14
S'Mozilla/5.0 (Linux; Android 5.1.1; Redmi 3 Build/LMY47V) AppleWebKit/537.36 (KHTML, like Gecko) Version/4.0 Chrome/37.0.0.0 Mobile MQQBrowser/6.8 TBS/036849 Safari/537.36 MicroMessenger/6.3.27.880 NetType/WIFI Language/zh_TW'
p556
sg16
S'386775247c7189cfd23a07e711f36522'
p557
sa(dp558
g2
S'17271'
p559
sg4
S'8197'
p560
sg6
S'9a3bb90ea999051f1b5a6584aa020244'
p561
sg8
S'xx28b69bc63182280d80765edc85be84c2'
p562
sg10
S'xx9cc2e83f171459c78fa180efb424ac48'
p563
sg12
S'xx6e2b663652ff2e04c8f639c4496e803b'
p564
sg14
S'Mozilla/5.0 (Linux; Android 5.1.1; Redmi 3 Build/LMY47V) AppleWebKit/537.36 (KHTML, like Gecko) Version/4.0 Chrome/37.0.0.0 Mobile MQQBrowser/6.8 TBS/036849 Safari/537.36 MicroMessenger/6.3.27.880 NetType/WIFI Language/zh_TW'
p565
sg16
S'386775247c7189cfd23a07e711f36522'
p566
sa(dp567
g2
S'17271'
p568
sg4
S'8211'
p569
sg6
S'9a3bb90ea999051f1b5a6584aa020244'
p570
sg8
S'xx28b69bc63182280d80765edc85be84c2'
p571
sg10
S'xx9cc2e83f171459c78fa180efb424ac48'
p572
sg12
S'xx6e2b663652ff2e04c8f639c4496e803b'
p573
sg14
S'Mozilla/5.0 (Linux; Android 5.1.1; Redmi 3 Build/LMY47V) AppleWebKit/537.36 (KHTML, like Gecko) Version/4.0 Chrome/37.0.0.0 Mobile MQQBrowser/6.8 TBS/036849 Safari/537.36 MicroMessenger/6.3.27.880 NetType/WIFI Language/zh_TW'
p574
sg16
S'386775247c7189cfd23a07e711f36522'
p575
sa(dp576
g2
S'17271'
p577
sg4
S'8220'
p578
sg6
S'9a3bb90ea999051f1b5a6584aa020244'
p579
sg8
S'xx28b69bc63182280d80765edc85be84c2'
p580
sg10
S'xx9cc2e83f171459c78fa180efb424ac48'
p581
sg12
S'xx6e2b663652ff2e04c8f639c4496e803b'
p582
sg14
S'Mozilla/5.0 (Linux; Android 5.1.1; Redmi 3 Build/LMY47V) AppleWebKit/537.36 (KHTML, like Gecko) Version/4.0 Chrome/37.0.0.0 Mobile MQQBrowser/6.8 TBS/036849 Safari/537.36 MicroMessenger/6.3.27.880 NetType/WIFI Language/zh_TW'
p583
sg16
S'386775247c7189cfd23a07e711f36522'
p584
sa(dp585
g2
S'17271'
p586
sg4
S'8232'
p587
sg6
S'9a3bb90ea999051f1b5a6584aa020244'
p588
sg8
S'xx28b69bc63182280d80765edc85be84c2'
p589
sg10
S'xx9cc2e83f171459c78fa180efb424ac48'
p590
sg12
S'xx6e2b663652ff2e04c8f639c4496e803b'
p591
sg14
S'Mozilla/5.0 (Linux; Android 5.1.1; Redmi 3 Build/LMY47V) AppleWebKit/537.36 (KHTML, like Gecko) Version/4.0 Chrome/37.0.0.0 Mobile MQQBrowser/6.8 TBS/036849 Safari/537.36 MicroMessenger/6.3.27.880 NetType/WIFI Language/zh_TW'
p592
sg16
S'386775247c7189cfd23a07e711f36522'
p593
sa(dp594
g2
S'17271'
p595
sg4
S'8236'
p596
sg6
S'9a3bb90ea999051f1b5a6584aa020244'
p597
sg8
S'xx28b69bc63182280d80765edc85be84c2'
p598
sg10
S'xx9cc2e83f171459c78fa180efb424ac48'
p599
sg12
S'xx6e2b663652ff2e04c8f639c4496e803b'
p600
sg14
S'Mozilla/5.0 (Linux; Android 5.1.1; Redmi 3 Build/LMY47V) AppleWebKit/537.36 (KHTML, like Gecko) Version/4.0 Chrome/37.0.0.0 Mobile MQQBrowser/6.8 TBS/036849 Safari/537.36 MicroMessenger/6.3.27.880 NetType/WIFI Language/zh_TW'
p601
sg16
S'386775247c7189cfd23a07e711f36522'
p602
sa(dp603
g2
S'17271'
p604
sg4
S'8269'
p605
sg6
S'9a3bb90ea999051f1b5a6584aa020244'
p606
sg8
S'xx28b69bc63182280d80765edc85be84c2'
p607
sg10
S'xx9cc2e83f171459c78fa180efb424ac48'
p608
sg12
S'xx6e2b663652ff2e04c8f639c4496e803b'
p609
sg14
S'Mozilla/5.0 (Linux; Android 5.1.1; Redmi 3 Build/LMY47V) AppleWebKit/537.36 (KHTML, like Gecko) Version/4.0 Chrome/37.0.0.0 Mobile MQQBrowser/6.8 TBS/036849 Safari/537.36 MicroMessenger/6.3.27.880 NetType/WIFI Language/zh_TW'
p610
sg16
S'386775247c7189cfd23a07e711f36522'
p611
sa(dp612
g2
S'17271'
p613
sg4
S'8282'
p614
sg6
S'9a3bb90ea999051f1b5a6584aa020244'
p615
sg8
S'xx28b69bc63182280d80765edc85be84c2'
p616
sg10
S'xx9cc2e83f171459c78fa180efb424ac48'
p617
sg12
S'xx6e2b663652ff2e04c8f639c4496e803b'
p618
sg14
S'Mozilla/5.0 (Linux; Android 5.1.1; Redmi 3 Build/LMY47V) AppleWebKit/537.36 (KHTML, like Gecko) Version/4.0 Chrome/37.0.0.0 Mobile MQQBrowser/6.8 TBS/036849 Safari/537.36 MicroMessenger/6.3.27.880 NetType/WIFI Language/zh_TW'
p619
sg16
S'386775247c7189cfd23a07e711f36522'
p620
sa(dp621
g2
S'17271'
p622
sg4
S'8372'
p623
sg6
S'9a3bb90ea999051f1b5a6584aa020244'
p624
sg8
S'xx28b69bc63182280d80765edc85be84c2'
p625
sg10
S'xx9cc2e83f171459c78fa180efb424ac48'
p626
sg12
S'xx6e2b663652ff2e04c8f639c4496e803b'
p627
sg14
S'Mozilla/5.0 (Linux; Android 5.1.1; Redmi 3 Build/LMY47V) AppleWebKit/537.36 (KHTML, like Gecko) Version/4.0 Chrome/37.0.0.0 Mobile MQQBrowser/6.8 TBS/036849 Safari/537.36 MicroMessenger/6.3.27.880 NetType/WIFI Language/zh_TW'
p628
sg16
S'386775247c7189cfd23a07e711f36522'
p629
sa(dp630
g2
S'17271'
p631
sg4
S'8531'
p632
sg6
S'9a3bb90ea999051f1b5a6584aa020244'
p633
sg8
S'xx28b69bc63182280d80765edc85be84c2'
p634
sg10
S'xx9cc2e83f171459c78fa180efb424ac48'
p635
sg12
S'xx6e2b663652ff2e04c8f639c4496e803b'
p636
sg14
S'Mozilla/5.0 (Linux; Android 5.1.1; Redmi 3 Build/LMY47V) AppleWebKit/537.36 (KHTML, like Gecko) Version/4.0 Chrome/37.0.0.0 Mobile MQQBrowser/6.8 TBS/036849 Safari/537.36 MicroMessenger/6.3.27.880 NetType/WIFI Language/zh_TW'
p637
sg16
S'386775247c7189cfd23a07e711f36522'
p638
sa(dp639
g2
S'17271'
p640
sg4
S'8547'
p641
sg6
S'9a3bb90ea999051f1b5a6584aa020244'
p642
sg8
S'xx28b69bc63182280d80765edc85be84c2'
p643
sg10
S'xx9cc2e83f171459c78fa180efb424ac48'
p644
sg12
S'xx6e2b663652ff2e04c8f639c4496e803b'
p645
sg14
S'Mozilla/5.0 (Linux; Android 5.1.1; Redmi 3 Build/LMY47V) AppleWebKit/537.36 (KHTML, like Gecko) Version/4.0 Chrome/37.0.0.0 Mobile MQQBrowser/6.8 TBS/036849 Safari/537.36 MicroMessenger/6.3.27.880 NetType/WIFI Language/zh_TW'
p646
sg16
S'386775247c7189cfd23a07e711f36522'
p647
sa(dp648
g2
S'17271'
p649
sg4
S'8563'
p650
sg6
S'9a3bb90ea999051f1b5a6584aa020244'
p651
sg8
S'xx28b69bc63182280d80765edc85be84c2'
p652
sg10
S'xx9cc2e83f171459c78fa180efb424ac48'
p653
sg12
S'xx6e2b663652ff2e04c8f639c4496e803b'
p654
sg14
S'Mozilla/5.0 (Linux; Android 5.1.1; Redmi 3 Build/LMY47V) AppleWebKit/537.36 (KHTML, like Gecko) Version/4.0 Chrome/37.0.0.0 Mobile MQQBrowser/6.8 TBS/036849 Safari/537.36 MicroMessenger/6.3.27.880 NetType/WIFI Language/zh_TW'
p655
sg16
S'386775247c7189cfd23a07e711f36522'
p656
sa(dp657
g2
S'17271'
p658
sg4
S'8576'
p659
sg6
S'9a3bb90ea999051f1b5a6584aa020244'
p660
sg8
S'xx28b69bc63182280d80765edc85be84c2'
p661
sg10
S'xx9cc2e83f171459c78fa180efb424ac48'
p662
sg12
S'xx6e2b663652ff2e04c8f639c4496e803b'
p663
sg14
S'Mozilla/5.0 (Linux; Android 5.1.1; Redmi 3 Build/LMY47V) AppleWebKit/537.36 (KHTML, like Gecko) Version/4.0 Chrome/37.0.0.0 Mobile MQQBrowser/6.8 TBS/036849 Safari/537.36 MicroMessenger/6.3.27.880 NetType/WIFI Language/zh_TW'
p664
sg16
S'386775247c7189cfd23a07e711f36522'
p665
sa(dp666
g2
S'17271'
p667
sg4
S'8595'
p668
sg6
S'9a3bb90ea999051f1b5a6584aa020244'
p669
sg8
S'xx28b69bc63182280d80765edc85be84c2'
p670
sg10
S'xx9cc2e83f171459c78fa180efb424ac48'
p671
sg12
S'xx6e2b663652ff2e04c8f639c4496e803b'
p672
sg14
S'Mozilla/5.0 (Linux; Android 5.1.1; Redmi 3 Build/LMY47V) AppleWebKit/537.36 (KHTML, like Gecko) Version/4.0 Chrome/37.0.0.0 Mobile MQQBrowser/6.8 TBS/036849 Safari/537.36 MicroMessenger/6.3.27.880 NetType/WIFI Language/zh_TW'
p673
sg16
S'386775247c7189cfd23a07e711f36522'
p674
sa(dp675
g2
S'17271'
p676
sg4
S'8618'
p677
sg6
S'9a3bb90ea999051f1b5a6584aa020244'
p678
sg8
S'xx28b69bc63182280d80765edc85be84c2'
p679
sg10
S'xx9cc2e83f171459c78fa180efb424ac48'
p680
sg12
S'xx6e2b663652ff2e04c8f639c4496e803b'
p681
sg14
S'Mozilla/5.0 (Linux; Android 5.1.1; Redmi 3 Build/LMY47V) AppleWebKit/537.36 (KHTML, like Gecko) Version/4.0 Chrome/37.0.0.0 Mobile MQQBrowser/6.8 TBS/036849 Safari/537.36 MicroMessenger/6.3.27.880 NetType/WIFI Language/zh_TW'
p682
sg16
S'386775247c7189cfd23a07e711f36522'
p683
sa(dp684
g2
S'17271'
p685
sg4
S'8638'
p686
sg6
S'9a3bb90ea999051f1b5a6584aa020244'
p687
sg8
S'xx28b69bc63182280d80765edc85be84c2'
p688
sg10
S'xx9cc2e83f171459c78fa180efb424ac48'
p689
sg12
S'xx6e2b663652ff2e04c8f639c4496e803b'
p690
sg14
S'Mozilla/5.0 (Linux; Android 5.1.1; Redmi 3 Build/LMY47V) AppleWebKit/537.36 (KHTML, like Gecko) Version/4.0 Chrome/37.0.0.0 Mobile MQQBrowser/6.8 TBS/036849 Safari/537.36 MicroMessenger/6.3.27.880 NetType/WIFI Language/zh_TW'
p691
sg16
S'386775247c7189cfd23a07e711f36522'
p692
sa(dp693
g2
S'17271'
p694
sg4
S'8653'
p695
sg6
S'9a3bb90ea999051f1b5a6584aa020244'
p696
sg8
S'xx28b69bc63182280d80765edc85be84c2'
p697
sg10
S'xx9cc2e83f171459c78fa180efb424ac48'
p698
sg12
S'xx6e2b663652ff2e04c8f639c4496e803b'
p699
sg14
S'Mozilla/5.0 (Linux; Android 5.1.1; Redmi 3 Build/LMY47V) AppleWebKit/537.36 (KHTML, like Gecko) Version/4.0 Chrome/37.0.0.0 Mobile MQQBrowser/6.8 TBS/036849 Safari/537.36 MicroMessenger/6.3.27.880 NetType/WIFI Language/zh_TW'
p700
sg16
S'386775247c7189cfd23a07e711f36522'
p701
sa(dp702
g2
S'17271'
p703
sg4
S'8672'
p704
sg6
S'9a3bb90ea999051f1b5a6584aa020244'
p705
sg8
S'xx28b69bc63182280d80765edc85be84c2'
p706
sg10
S'xx9cc2e83f171459c78fa180efb424ac48'
p707
sg12
S'xx6e2b663652ff2e04c8f639c4496e803b'
p708
sg14
S'Mozilla/5.0 (Linux; Android 5.1.1; Redmi 3 Build/LMY47V) AppleWebKit/537.36 (KHTML, like Gecko) Version/4.0 Chrome/37.0.0.0 Mobile MQQBrowser/6.8 TBS/036849 Safari/537.36 MicroMessenger/6.3.27.880 NetType/WIFI Language/zh_TW'
p709
sg16
S'386775247c7189cfd23a07e711f36522'
p710
sa(dp711
g2
S'17271'
p712
sg4
S'8692'
p713
sg6
S'9a3bb90ea999051f1b5a6584aa020244'
p714
sg8
S'xx28b69bc63182280d80765edc85be84c2'
p715
sg10
S'xx9cc2e83f171459c78fa180efb424ac48'
p716
sg12
S'xx6e2b663652ff2e04c8f639c4496e803b'
p717
sg14
S'Mozilla/5.0 (Linux; Android 5.1.1; Redmi 3 Build/LMY47V) AppleWebKit/537.36 (KHTML, like Gecko) Version/4.0 Chrome/37.0.0.0 Mobile MQQBrowser/6.8 TBS/036849 Safari/537.36 MicroMessenger/6.3.27.880 NetType/WIFI Language/zh_TW'
p718
sg16
S'386775247c7189cfd23a07e711f36522'
p719
sa(dp720
g2
S'17271'
p721
sg4
S'8714'
p722
sg6
S'9a3bb90ea999051f1b5a6584aa020244'
p723
sg8
S'xx28b69bc63182280d80765edc85be84c2'
p724
sg10
S'xx9cc2e83f171459c78fa180efb424ac48'
p725
sg12
S'xx6e2b663652ff2e04c8f639c4496e803b'
p726
sg14
S'Mozilla/5.0 (Linux; Android 5.1.1; Redmi 3 Build/LMY47V) AppleWebKit/537.36 (KHTML, like Gecko) Version/4.0 Chrome/37.0.0.0 Mobile MQQBrowser/6.8 TBS/036849 Safari/537.36 MicroMessenger/6.3.27.880 NetType/WIFI Language/zh_TW'
p727
sg16
S'386775247c7189cfd23a07e711f36522'
p728
sa(dp729
g2
S'17271'
p730
sg4
S'8787'
p731
sg6
S'9a3bb90ea999051f1b5a6584aa020244'
p732
sg8
S'xx28b69bc63182280d80765edc85be84c2'
p733
sg10
S'xx9cc2e83f171459c78fa180efb424ac48'
p734
sg12
S'xx6e2b663652ff2e04c8f639c4496e803b'
p735
sg14
S'Mozilla/5.0 (Linux; Android 5.1.1; Redmi 3 Build/LMY47V) AppleWebKit/537.36 (KHTML, like Gecko) Version/4.0 Chrome/37.0.0.0 Mobile MQQBrowser/6.8 TBS/036849 Safari/537.36 MicroMessenger/6.3.27.880 NetType/WIFI Language/zh_TW'
p736
sg16
S'386775247c7189cfd23a07e711f36522'
p737
sa(dp738
g2
S'17271'
p739
sg4
S'8800'
p740
sg6
S'9a3bb90ea999051f1b5a6584aa020244'
p741
sg8
S'xx28b69bc63182280d80765edc85be84c2'
p742
sg10
S'xx9cc2e83f171459c78fa180efb424ac48'
p743
sg12
S'xx6e2b663652ff2e04c8f639c4496e803b'
p744
sg14
S'Mozilla/5.0 (Linux; Android 5.1.1; Redmi 3 Build/LMY47V) AppleWebKit/537.36 (KHTML, like Gecko) Version/4.0 Chrome/37.0.0.0 Mobile MQQBrowser/6.8 TBS/036849 Safari/537.36 MicroMessenger/6.3.27.880 NetType/WIFI Language/zh_TW'
p745
sg16
S'386775247c7189cfd23a07e711f36522'
p746
sa(dp747
g2
S'17271'
p748
sg4
S'8805'
p749
sg6
S'9a3bb90ea999051f1b5a6584aa020244'
p750
sg8
S'xx28b69bc63182280d80765edc85be84c2'
p751
sg10
S'xx9cc2e83f171459c78fa180efb424ac48'
p752
sg12
S'xx6e2b663652ff2e04c8f639c4496e803b'
p753
sg14
S'Mozilla/5.0 (Linux; Android 5.1.1; Redmi 3 Build/LMY47V) AppleWebKit/537.36 (KHTML, like Gecko) Version/4.0 Chrome/37.0.0.0 Mobile MQQBrowser/6.8 TBS/036849 Safari/537.36 MicroMessenger/6.3.27.880 NetType/WIFI Language/zh_TW'
p754
sg16
S'386775247c7189cfd23a07e711f36522'
p755
sa(dp756
g2
S'17271'
p757
sg4
S'8815'
p758
sg6
S'9a3bb90ea999051f1b5a6584aa020244'
p759
sg8
S'xx28b69bc63182280d80765edc85be84c2'
p760
sg10
S'xx9cc2e83f171459c78fa180efb424ac48'
p761
sg12
S'xx6e2b663652ff2e04c8f639c4496e803b'
p762
sg14
S'Mozilla/5.0 (Linux; Android 5.1.1; Redmi 3 Build/LMY47V) AppleWebKit/537.36 (KHTML, like Gecko) Version/4.0 Chrome/37.0.0.0 Mobile MQQBrowser/6.8 TBS/036849 Safari/537.36 MicroMessenger/6.3.27.880 NetType/WIFI Language/zh_TW'
p763
sg16
S'386775247c7189cfd23a07e711f36522'
p764
sa.