(lp0
(dp1
S'user_id'
p2
S'49755'
p3
sS'data_id'
p4
S'1869'
p5
sS'ip'
p6
S'84aadc322373131b46b55830f63e38ea'
p7
sS'phone_B'
p8
S'xx339e657d5c0d88a47df2077cbcdd1da0'
p9
sS'phone_C'
p10
S'xx7c11889d568b644595fc506dc352723e'
p11
sS'phone_A'
p12
S'xx6e986e8343818023a77873455ba721f0'
p13
sS'user_agent'
p14
S'Mozilla/5.0 (Linux; Android 4.4.4; A31t Build/KTU84P) AppleWebKit/537.36 (KHTML, like Gecko) Version/4.0 Chrome/37.0.0.0 Mobile MQQBrowser/6.8 TBS/036849 Safari/537.36 MicroMessenger/6.3.27.880 NetType/cmnet Language/zh_CN'
p15
sS'ua'
p16
S'd3da83fcae3bf3c6c3c7ba8207f9f82e'
p17
sa(dp18
g2
S'49755'
p19
sg4
S'1883'
p20
sg6
S'84aadc322373131b46b55830f63e38ea'
p21
sg8
S'xx339e657d5c0d88a47df2077cbcdd1da0'
p22
sg10
S'xx7c11889d568b644595fc506dc352723e'
p23
sg12
S'xx6e986e8343818023a77873455ba721f0'
p24
sg14
S'Mozilla/5.0 (Linux; Android 4.4.4; A31t Build/KTU84P) AppleWebKit/537.36 (KHTML, like Gecko) Version/4.0 Chrome/37.0.0.0 Mobile MQQBrowser/6.8 TBS/036849 Safari/537.36 MicroMessenger/6.3.27.880 NetType/cmnet Language/zh_CN'
p25
sg16
S'd3da83fcae3bf3c6c3c7ba8207f9f82e'
p26
sa(dp27
g2
S'47639'
p28
sg4
S'2013'
p29
sg6
S'c79aaf8cd2dd549616d334c1307c2091'
p30
sg8
S'xx9d8fbf4460a7a2aa6ddb3c23a6eaad44'
p31
sg10
S'xx7c11889d568b644595fc506dc352723e'
p32
sg12
S'xx6e986e8343818023a77873455ba721f0'
p33
sg14
S'Mozilla/5.0 (Linux; Android 4.4.4; A31t Build/KTU84P) AppleWebKit/537.36 (KHTML, like Gecko) Version/4.0 Chrome/37.0.0.0 Mobile MQQBrowser/6.8 TBS/036824 Safari/537.36 MicroMessenger/6.3.27.880 NetType/WIFI Language/zh_CN'
p34
sg16
S'364bd6c6e5375a2500a82102c42e10f6'
p35
sa(dp36
g2
S'47639'
p37
sg4
S'2028'
p38
sg6
S'c79aaf8cd2dd549616d334c1307c2091'
p39
sg8
S'xx9d8fbf4460a7a2aa6ddb3c23a6eaad44'
p40
sg10
S'xx7c11889d568b644595fc506dc352723e'
p41
sg12
S'xx6e986e8343818023a77873455ba721f0'
p42
sg14
S'Mozilla/5.0 (Linux; Android 4.4.4; A31t Build/KTU84P) AppleWebKit/537.36 (KHTML, like Gecko) Version/4.0 Chrome/37.0.0.0 Mobile MQQBrowser/6.8 TBS/036824 Safari/537.36 MicroMessenger/6.3.27.880 NetType/WIFI Language/zh_CN'
p43
sg16
S'364bd6c6e5375a2500a82102c42e10f6'
p44
sa(dp45
g2
S'42489'
p46
sg4
S'3430'
p47
sg6
S'1cb1750e4c77601799def0feb967d153'
p48
sg8
S'xx63407fe205c874e8003a09f0b6c6e22c'
p49
sg10
S'xx7c11889d568b644595fc506dc352723e'
p50
sg12
S'xx6e986e8343818023a77873455ba721f0'
p51
sg14
S'Mozilla/5.0 (Linux; Android 4.4.4; A31t Build/KTU84P) AppleWebKit/537.36 (KHTML, like Gecko) Version/4.0 Chrome/37.0.0.0 Mobile MQQBrowser/6.8 TBS/036869 Safari/537.36 MicroMessenger/6.3.27.880 NetType/WIFI Language/zh_CN'
p52
sg16
S'4b94e6cb8972b678229c347d538280ff'
p53
sa(dp54
g2
S'42489'
p55
sg4
S'3447'
p56
sg6
S'1cb1750e4c77601799def0feb967d153'
p57
sg8
S'xx63407fe205c874e8003a09f0b6c6e22c'
p58
sg10
S'xx7c11889d568b644595fc506dc352723e'
p59
sg12
S'xx6e986e8343818023a77873455ba721f0'
p60
sg14
S'Mozilla/5.0 (Linux; Android 4.4.4; A31t Build/KTU84P) AppleWebKit/537.36 (KHTML, like Gecko) Version/4.0 Chrome/37.0.0.0 Mobile MQQBrowser/6.8 TBS/036869 Safari/537.36 MicroMessenger/6.3.27.880 NetType/WIFI Language/zh_CN'
p61
sg16
S'4b94e6cb8972b678229c347d538280ff'
p62
sa(dp63
g2
S'31909'
p64
sg4
S'4432'
p65
sg6
S'4b721cebadb6882353815251e6bf1904'
p66
sg8
S'xxdf8b6e4e8d1ed7bd54cf99f35223d737'
p67
sg10
S'xx7c11889d568b644595fc506dc352723e'
p68
sg12
S'xx6e986e8343818023a77873455ba721f0'
p69
sg14
S'Mozilla/5.0 (Linux; Android 4.4.4; A31t Build/KTU84P) AppleWebKit/537.36 (KHTML, like Gecko) Version/4.0 Chrome/37.0.0.0 Mobile MQQBrowser/6.8 TBS/036849 Safari/537.36 MicroMessenger/6.3.27.880 NetType/WIFI Language/zh_CN'
p70
sg16
S'a0711749993cdc05061d7237c09505d0'
p71
sa(dp72
g2
S'31909'
p73
sg4
S'4448'
p74
sg6
S'4b721cebadb6882353815251e6bf1904'
p75
sg8
S'xxdf8b6e4e8d1ed7bd54cf99f35223d737'
p76
sg10
S'xx7c11889d568b644595fc506dc352723e'
p77
sg12
S'xx6e986e8343818023a77873455ba721f0'
p78
sg14
S'Mozilla/5.0 (Linux; Android 4.4.4; A31t Build/KTU84P) AppleWebKit/537.36 (KHTML, like Gecko) Version/4.0 Chrome/37.0.0.0 Mobile MQQBrowser/6.8 TBS/036849 Safari/537.36 MicroMessenger/6.3.27.880 NetType/WIFI Language/zh_CN'
p79
sg16
S'a0711749993cdc05061d7237c09505d0'
p80
sa(dp81
g2
S'30417'
p82
sg4
S'4960'
p83
sg6
S'4b721cebadb6882353815251e6bf1904'
p84
sg8
S'xx63407fe205c874e8003a09f0b6c6e22c'
p85
sg10
S'xx7c11889d568b644595fc506dc352723e'
p86
sg12
S'xx6e986e8343818023a77873455ba721f0'
p87
sg14
S'Mozilla/5.0 (Linux; Android 4.4.4; A31t Build/KTU84P) AppleWebKit/537.36 (KHTML, like Gecko) Version/4.0 Chrome/37.0.0.0 Mobile MQQBrowser/6.8 TBS/036869 Safari/537.36 MicroMessenger/6.3.27.880 NetType/WIFI Language/zh_CN'
p88
sg16
S'4b94e6cb8972b678229c347d538280ff'
p89
sa(dp90
g2
S'30417'
p91
sg4
S'4974'
p92
sg6
S'4b721cebadb6882353815251e6bf1904'
p93
sg8
S'xx63407fe205c874e8003a09f0b6c6e22c'
p94
sg10
S'xx7c11889d568b644595fc506dc352723e'
p95
sg12
S'xx6e986e8343818023a77873455ba721f0'
p96
sg14
S'Mozilla/5.0 (Linux; Android 4.4.4; A31t Build/KTU84P) AppleWebKit/537.36 (KHTML, like Gecko) Version/4.0 Chrome/37.0.0.0 Mobile MQQBrowser/6.8 TBS/036869 Safari/537.36 MicroMessenger/6.3.27.880 NetType/WIFI Language/zh_CN'
p97
sg16
S'4b94e6cb8972b678229c347d538280ff'
p98
sa(dp99
g2
S'36851'
p100
sg4
S'8602'
p101
sg6
S'5aed78690d86fb465be0e63a638c1bb9'
p102
sg8
S'xxdf8b6e4e8d1ed7bd54cf99f35223d737'
p103
sg10
S'xx7c11889d568b644595fc506dc352723e'
p104
sg12
S'xx6e986e8343818023a77873455ba721f0'
p105
sg14
S'Mozilla/5.0 (Linux; Android 4.4.4; A31t Build/KTU84P) AppleWebKit/537.36 (KHTML, like Gecko) Version/4.0 Chrome/37.0.0.0 Mobile MQQBrowser/6.8 TBS/036849 Safari/537.36 MicroMessenger/6.3.27.880 NetType/WIFI Language/zh_CN'
p106
sg16
S'a0711749993cdc05061d7237c09505d0'
p107
sa(dp108
g2
S'36851'
p109
sg4
S'8622'
p110
sg6
S'5aed78690d86fb465be0e63a638c1bb9'
p111
sg8
S'xxdf8b6e4e8d1ed7bd54cf99f35223d737'
p112
sg10
S'xx7c11889d568b644595fc506dc352723e'
p113
sg12
S'xx6e986e8343818023a77873455ba721f0'
p114
sg14
S'Mozilla/5.0 (Linux; Android 4.4.4; A31t Build/KTU84P) AppleWebKit/537.36 (KHTML, like Gecko) Version/4.0 Chrome/37.0.0.0 Mobile MQQBrowser/6.8 TBS/036849 Safari/537.36 MicroMessenger/6.3.27.880 NetType/WIFI Language/zh_CN'
p115
sg16
S'a0711749993cdc05061d7237c09505d0'
p116
sa(dp117
g2
S'38977'
p118
sg4
S'8777'
p119
sg6
S'ae58490d99b19d2d8fa91e375b9c67b2'
p120
sg8
S'xxa4180418fdd243afd05d269bd0ef104d'
p121
sg10
S'xx7c11889d568b644595fc506dc352723e'
p122
sg12
S'xx6e986e8343818023a77873455ba721f0'
p123
sg14
S'Mozilla/5.0 (Linux; Android 4.4.4; A31t Build/KTU84P) AppleWebKit/537.36 (KHTML, like Gecko) Version/4.0 Chrome/37.0.0.0 Mobile MQQBrowser/6.8 TBS/036865 Safari/537.36 MicroMessenger/6.3.27.880 NetType/cmnet Language/zh_CN'
p124
sg16
S'0f932aab60b59303f05c60df205b2bdd'
p125
sa(dp126
g2
S'38977'
p127
sg4
S'8788'
p128
sg6
S'ae58490d99b19d2d8fa91e375b9c67b2'
p129
sg8
S'xxa4180418fdd243afd05d269bd0ef104d'
p130
sg10
S'xx7c11889d568b644595fc506dc352723e'
p131
sg12
S'xx6e986e8343818023a77873455ba721f0'
p132
sg14
S'Mozilla/5.0 (Linux; Android 4.4.4; A31t Build/KTU84P) AppleWebKit/537.36 (KHTML, like Gecko) Version/4.0 Chrome/37.0.0.0 Mobile MQQBrowser/6.8 TBS/036865 Safari/537.36 MicroMessenger/6.3.27.880 NetType/cmnet Language/zh_CN'
p133
sg16
S'0f932aab60b59303f05c60df205b2bdd'
p134
sa.