(lp0
(dp1
S'user_id'
p2
S'49758'
p3
sS'data_id'
p4
S'1873'
p5
sS'ip'
p6
S'e29483f5d48909ce7997109bb3c0c935'
p7
sS'phone_B'
p8
S'xx629c7c60a2026b76c50463743c294bf9'
p9
sS'phone_C'
p10
S'xxcde82fe0c46dde6ee9733156e07be27d'
p11
sS'phone_A'
p12
S'xx6e2515867f397f1a423841d528423d76'
p13
sS'user_agent'
p14
S'Mozilla/5.0 (Linux; Android 6.0; CAM-TL00H Build/HONORCAM-TL00H) AppleWebKit/537.36 (KHTML, like Gecko) Version/4.0 Chrome/37.0.0.0 Mobile MQQBrowser/6.8 TBS/036849 Safari/537.36 MicroMessenger/6.3.27.880 NetType/WIFI Language/zh_CN'
p15
sS'ua'
p16
S'd7f105fa48e122ea0168d5667c3558f5'
p17
sa(dp18
g2
S'49758'
p19
sg4
S'1889'
p20
sg6
S'e29483f5d48909ce7997109bb3c0c935'
p21
sg8
S'xx629c7c60a2026b76c50463743c294bf9'
p22
sg10
S'xxcde82fe0c46dde6ee9733156e07be27d'
p23
sg12
S'xx6e2515867f397f1a423841d528423d76'
p24
sg14
S'Mozilla/5.0 (Linux; Android 6.0; CAM-TL00H Build/HONORCAM-TL00H) AppleWebKit/537.36 (KHTML, like Gecko) Version/4.0 Chrome/37.0.0.0 Mobile MQQBrowser/6.8 TBS/036849 Safari/537.36 MicroMessenger/6.3.27.880 NetType/WIFI Language/zh_CN'
p25
sg16
S'd7f105fa48e122ea0168d5667c3558f5'
p26
sa(dp27
g2
S'49758'
p28
sg4
S'1903'
p29
sg6
S'e29483f5d48909ce7997109bb3c0c935'
p30
sg8
S'xx629c7c60a2026b76c50463743c294bf9'
p31
sg10
S'xxcde82fe0c46dde6ee9733156e07be27d'
p32
sg12
S'xx6e2515867f397f1a423841d528423d76'
p33
sg14
S'Mozilla/5.0 (Linux; Android 6.0; CAM-TL00H Build/HONORCAM-TL00H) AppleWebKit/537.36 (KHTML, like Gecko) Version/4.0 Chrome/37.0.0.0 Mobile MQQBrowser/6.8 TBS/036849 Safari/537.36 MicroMessenger/6.3.27.880 NetType/WIFI Language/zh_CN'
p34
sg16
S'd7f105fa48e122ea0168d5667c3558f5'
p35
sa(dp36
g2
S'49758'
p37
sg4
S'1923'
p38
sg6
S'e29483f5d48909ce7997109bb3c0c935'
p39
sg8
S'xx629c7c60a2026b76c50463743c294bf9'
p40
sg10
S'xxcde82fe0c46dde6ee9733156e07be27d'
p41
sg12
S'xx6e2515867f397f1a423841d528423d76'
p42
sg14
S'Mozilla/5.0 (Linux; Android 6.0; CAM-TL00H Build/HONORCAM-TL00H) AppleWebKit/537.36 (KHTML, like Gecko) Version/4.0 Chrome/37.0.0.0 Mobile MQQBrowser/6.8 TBS/036849 Safari/537.36 MicroMessenger/6.3.27.880 NetType/WIFI Language/zh_CN'
p43
sg16
S'd7f105fa48e122ea0168d5667c3558f5'
p44
sa(dp45
g2
S'49758'
p46
sg4
S'1942'
p47
sg6
S'e29483f5d48909ce7997109bb3c0c935'
p48
sg8
S'xx629c7c60a2026b76c50463743c294bf9'
p49
sg10
S'xxcde82fe0c46dde6ee9733156e07be27d'
p50
sg12
S'xx6e2515867f397f1a423841d528423d76'
p51
sg14
S'Mozilla/5.0 (Linux; Android 6.0; CAM-TL00H Build/HONORCAM-TL00H) AppleWebKit/537.36 (KHTML, like Gecko) Version/4.0 Chrome/37.0.0.0 Mobile MQQBrowser/6.8 TBS/036849 Safari/537.36 MicroMessenger/6.3.27.880 NetType/WIFI Language/zh_CN'
p52
sg16
S'd7f105fa48e122ea0168d5667c3558f5'
p53
sa(dp54
g2
S'49758'
p55
sg4
S'1966'
p56
sg6
S'e29483f5d48909ce7997109bb3c0c935'
p57
sg8
S'xx629c7c60a2026b76c50463743c294bf9'
p58
sg10
S'xxcde82fe0c46dde6ee9733156e07be27d'
p59
sg12
S'xx6e2515867f397f1a423841d528423d76'
p60
sg14
S'Mozilla/5.0 (Linux; Android 6.0; CAM-TL00H Build/HONORCAM-TL00H) AppleWebKit/537.36 (KHTML, like Gecko) Version/4.0 Chrome/37.0.0.0 Mobile MQQBrowser/6.8 TBS/036849 Safari/537.36 MicroMessenger/6.3.27.880 NetType/WIFI Language/zh_CN'
p61
sg16
S'd7f105fa48e122ea0168d5667c3558f5'
p62
sa(dp63
g2
S'49758'
p64
sg4
S'2173'
p65
sg6
S'e29483f5d48909ce7997109bb3c0c935'
p66
sg8
S'xx629c7c60a2026b76c50463743c294bf9'
p67
sg10
S'xxcde82fe0c46dde6ee9733156e07be27d'
p68
sg12
S'xx6e2515867f397f1a423841d528423d76'
p69
sg14
S'Mozilla/5.0 (Linux; Android 6.0; CAM-TL00H Build/HONORCAM-TL00H) AppleWebKit/537.36 (KHTML, like Gecko) Version/4.0 Chrome/37.0.0.0 Mobile MQQBrowser/6.8 TBS/036849 Safari/537.36 MicroMessenger/6.3.27.880 NetType/WIFI Language/zh_CN'
p70
sg16
S'd7f105fa48e122ea0168d5667c3558f5'
p71
sa(dp72
g2
S'49758'
p73
sg4
S'2813'
p74
sg6
S'e29483f5d48909ce7997109bb3c0c935'
p75
sg8
S'xx629c7c60a2026b76c50463743c294bf9'
p76
sg10
S'xxcde82fe0c46dde6ee9733156e07be27d'
p77
sg12
S'xx6e2515867f397f1a423841d528423d76'
p78
sg14
S'Mozilla/5.0 (Linux; Android 6.0; CAM-TL00H Build/HONORCAM-TL00H) AppleWebKit/537.36 (KHTML, like Gecko) Version/4.0 Chrome/37.0.0.0 Mobile MQQBrowser/6.8 TBS/036849 Safari/537.36 MicroMessenger/6.3.27.880 NetType/WIFI Language/zh_CN'
p79
sg16
S'd7f105fa48e122ea0168d5667c3558f5'
p80
sa(dp81
g2
S'49758'
p82
sg4
S'2828'
p83
sg6
S'e29483f5d48909ce7997109bb3c0c935'
p84
sg8
S'xx629c7c60a2026b76c50463743c294bf9'
p85
sg10
S'xxcde82fe0c46dde6ee9733156e07be27d'
p86
sg12
S'xx6e2515867f397f1a423841d528423d76'
p87
sg14
S'Mozilla/5.0 (Linux; Android 6.0; CAM-TL00H Build/HONORCAM-TL00H) AppleWebKit/537.36 (KHTML, like Gecko) Version/4.0 Chrome/37.0.0.0 Mobile MQQBrowser/6.8 TBS/036849 Safari/537.36 MicroMessenger/6.3.27.880 NetType/WIFI Language/zh_CN'
p88
sg16
S'd7f105fa48e122ea0168d5667c3558f5'
p89
sa(dp90
g2
S'49758'
p91
sg4
S'2849'
p92
sg6
S'e29483f5d48909ce7997109bb3c0c935'
p93
sg8
S'xx629c7c60a2026b76c50463743c294bf9'
p94
sg10
S'xxcde82fe0c46dde6ee9733156e07be27d'
p95
sg12
S'xx6e2515867f397f1a423841d528423d76'
p96
sg14
S'Mozilla/5.0 (Linux; Android 6.0; CAM-TL00H Build/HONORCAM-TL00H) AppleWebKit/537.36 (KHTML, like Gecko) Version/4.0 Chrome/37.0.0.0 Mobile MQQBrowser/6.8 TBS/036849 Safari/537.36 MicroMessenger/6.3.27.880 NetType/WIFI Language/zh_CN'
p97
sg16
S'd7f105fa48e122ea0168d5667c3558f5'
p98
sa(dp99
g2
S'49758'
p100
sg4
S'2867'
p101
sg6
S'e29483f5d48909ce7997109bb3c0c935'
p102
sg8
S'xx629c7c60a2026b76c50463743c294bf9'
p103
sg10
S'xxcde82fe0c46dde6ee9733156e07be27d'
p104
sg12
S'xx6e2515867f397f1a423841d528423d76'
p105
sg14
S'Mozilla/5.0 (Linux; Android 6.0; CAM-TL00H Build/HONORCAM-TL00H) AppleWebKit/537.36 (KHTML, like Gecko) Version/4.0 Chrome/37.0.0.0 Mobile MQQBrowser/6.8 TBS/036849 Safari/537.36 MicroMessenger/6.3.27.880 NetType/WIFI Language/zh_CN'
p106
sg16
S'd7f105fa48e122ea0168d5667c3558f5'
p107
sa(dp108
g2
S'49758'
p109
sg4
S'2955'
p110
sg6
S'e29483f5d48909ce7997109bb3c0c935'
p111
sg8
S'xx629c7c60a2026b76c50463743c294bf9'
p112
sg10
S'xxcde82fe0c46dde6ee9733156e07be27d'
p113
sg12
S'xx6e2515867f397f1a423841d528423d76'
p114
sg14
S'Mozilla/5.0 (Linux; Android 6.0; CAM-TL00H Build/HONORCAM-TL00H) AppleWebKit/537.36 (KHTML, like Gecko) Version/4.0 Chrome/37.0.0.0 Mobile MQQBrowser/6.8 TBS/036849 Safari/537.36 MicroMessenger/6.3.27.880 NetType/WIFI Language/zh_CN'
p115
sg16
S'd7f105fa48e122ea0168d5667c3558f5'
p116
sa(dp117
g2
S'49758'
p118
sg4
S'2971'
p119
sg6
S'e29483f5d48909ce7997109bb3c0c935'
p120
sg8
S'xx629c7c60a2026b76c50463743c294bf9'
p121
sg10
S'xxcde82fe0c46dde6ee9733156e07be27d'
p122
sg12
S'xx6e2515867f397f1a423841d528423d76'
p123
sg14
S'Mozilla/5.0 (Linux; Android 6.0; CAM-TL00H Build/HONORCAM-TL00H) AppleWebKit/537.36 (KHTML, like Gecko) Version/4.0 Chrome/37.0.0.0 Mobile MQQBrowser/6.8 TBS/036849 Safari/537.36 MicroMessenger/6.3.27.880 NetType/WIFI Language/zh_CN'
p124
sg16
S'd7f105fa48e122ea0168d5667c3558f5'
p125
sa(dp126
g2
S'49758'
p127
sg4
S'2983'
p128
sg6
S'e29483f5d48909ce7997109bb3c0c935'
p129
sg8
S'xx629c7c60a2026b76c50463743c294bf9'
p130
sg10
S'xxcde82fe0c46dde6ee9733156e07be27d'
p131
sg12
S'xx6e2515867f397f1a423841d528423d76'
p132
sg14
S'Mozilla/5.0 (Linux; Android 6.0; CAM-TL00H Build/HONORCAM-TL00H) AppleWebKit/537.36 (KHTML, like Gecko) Version/4.0 Chrome/37.0.0.0 Mobile MQQBrowser/6.8 TBS/036849 Safari/537.36 MicroMessenger/6.3.27.880 NetType/WIFI Language/zh_CN'
p133
sg16
S'd7f105fa48e122ea0168d5667c3558f5'
p134
sa(dp135
g2
S'49758'
p136
sg4
S'3011'
p137
sg6
S'e29483f5d48909ce7997109bb3c0c935'
p138
sg8
S'xx629c7c60a2026b76c50463743c294bf9'
p139
sg10
S'xxcde82fe0c46dde6ee9733156e07be27d'
p140
sg12
S'xx6e2515867f397f1a423841d528423d76'
p141
sg14
S'Mozilla/5.0 (Linux; Android 6.0; CAM-TL00H Build/HONORCAM-TL00H) AppleWebKit/537.36 (KHTML, like Gecko) Version/4.0 Chrome/37.0.0.0 Mobile MQQBrowser/6.8 TBS/036849 Safari/537.36 MicroMessenger/6.3.27.880 NetType/WIFI Language/zh_CN'
p142
sg16
S'd7f105fa48e122ea0168d5667c3558f5'
p143
sa(dp144
g2
S'49758'
p145
sg4
S'3026'
p146
sg6
S'e29483f5d48909ce7997109bb3c0c935'
p147
sg8
S'xx629c7c60a2026b76c50463743c294bf9'
p148
sg10
S'xxcde82fe0c46dde6ee9733156e07be27d'
p149
sg12
S'xx6e2515867f397f1a423841d528423d76'
p150
sg14
S'Mozilla/5.0 (Linux; Android 6.0; CAM-TL00H Build/HONORCAM-TL00H) AppleWebKit/537.36 (KHTML, like Gecko) Version/4.0 Chrome/37.0.0.0 Mobile MQQBrowser/6.8 TBS/036849 Safari/537.36 MicroMessenger/6.3.27.880 NetType/WIFI Language/zh_CN'
p151
sg16
S'd7f105fa48e122ea0168d5667c3558f5'
p152
sa(dp153
g2
S'49758'
p154
sg4
S'3172'
p155
sg6
S'e29483f5d48909ce7997109bb3c0c935'
p156
sg8
S'xx629c7c60a2026b76c50463743c294bf9'
p157
sg10
S'xxcde82fe0c46dde6ee9733156e07be27d'
p158
sg12
S'xx6e2515867f397f1a423841d528423d76'
p159
sg14
S'Mozilla/5.0 (Linux; Android 6.0; CAM-TL00H Build/HONORCAM-TL00H) AppleWebKit/537.36 (KHTML, like Gecko) Version/4.0 Chrome/37.0.0.0 Mobile MQQBrowser/6.8 TBS/036849 Safari/537.36 MicroMessenger/6.3.27.880 NetType/WIFI Language/zh_CN'
p160
sg16
S'd7f105fa48e122ea0168d5667c3558f5'
p161
sa(dp162
g2
S'49758'
p163
sg4
S'3187'
p164
sg6
S'e29483f5d48909ce7997109bb3c0c935'
p165
sg8
S'xx629c7c60a2026b76c50463743c294bf9'
p166
sg10
S'xxcde82fe0c46dde6ee9733156e07be27d'
p167
sg12
S'xx6e2515867f397f1a423841d528423d76'
p168
sg14
S'Mozilla/5.0 (Linux; Android 6.0; CAM-TL00H Build/HONORCAM-TL00H) AppleWebKit/537.36 (KHTML, like Gecko) Version/4.0 Chrome/37.0.0.0 Mobile MQQBrowser/6.8 TBS/036849 Safari/537.36 MicroMessenger/6.3.27.880 NetType/WIFI Language/zh_CN'
p169
sg16
S'd7f105fa48e122ea0168d5667c3558f5'
p170
sa(dp171
g2
S'49758'
p172
sg4
S'3202'
p173
sg6
S'e29483f5d48909ce7997109bb3c0c935'
p174
sg8
S'xx629c7c60a2026b76c50463743c294bf9'
p175
sg10
S'xxcde82fe0c46dde6ee9733156e07be27d'
p176
sg12
S'xx6e2515867f397f1a423841d528423d76'
p177
sg14
S'Mozilla/5.0 (Linux; Android 6.0; CAM-TL00H Build/HONORCAM-TL00H) AppleWebKit/537.36 (KHTML, like Gecko) Version/4.0 Chrome/37.0.0.0 Mobile MQQBrowser/6.8 TBS/036849 Safari/537.36 MicroMessenger/6.3.27.880 NetType/WIFI Language/zh_CN'
p178
sg16
S'd7f105fa48e122ea0168d5667c3558f5'
p179
sa(dp180
g2
S'49758'
p181
sg4
S'3217'
p182
sg6
S'e29483f5d48909ce7997109bb3c0c935'
p183
sg8
S'xx629c7c60a2026b76c50463743c294bf9'
p184
sg10
S'xxcde82fe0c46dde6ee9733156e07be27d'
p185
sg12
S'xx6e2515867f397f1a423841d528423d76'
p186
sg14
S'Mozilla/5.0 (Linux; Android 6.0; CAM-TL00H Build/HONORCAM-TL00H) AppleWebKit/537.36 (KHTML, like Gecko) Version/4.0 Chrome/37.0.0.0 Mobile MQQBrowser/6.8 TBS/036849 Safari/537.36 MicroMessenger/6.3.27.880 NetType/WIFI Language/zh_CN'
p187
sg16
S'd7f105fa48e122ea0168d5667c3558f5'
p188
sa(dp189
g2
S'49758'
p190
sg4
S'3287'
p191
sg6
S'e29483f5d48909ce7997109bb3c0c935'
p192
sg8
S'xx629c7c60a2026b76c50463743c294bf9'
p193
sg10
S'xxcde82fe0c46dde6ee9733156e07be27d'
p194
sg12
S'xx6e2515867f397f1a423841d528423d76'
p195
sg14
S'Mozilla/5.0 (Linux; Android 6.0; CAM-TL00H Build/HONORCAM-TL00H) AppleWebKit/537.36 (KHTML, like Gecko) Version/4.0 Chrome/37.0.0.0 Mobile MQQBrowser/6.8 TBS/036849 Safari/537.36 MicroMessenger/6.3.27.880 NetType/WIFI Language/zh_CN'
p196
sg16
S'd7f105fa48e122ea0168d5667c3558f5'
p197
sa(dp198
g2
S'49758'
p199
sg4
S'3301'
p200
sg6
S'e29483f5d48909ce7997109bb3c0c935'
p201
sg8
S'xx629c7c60a2026b76c50463743c294bf9'
p202
sg10
S'xxcde82fe0c46dde6ee9733156e07be27d'
p203
sg12
S'xx6e2515867f397f1a423841d528423d76'
p204
sg14
S'Mozilla/5.0 (Linux; Android 6.0; CAM-TL00H Build/HONORCAM-TL00H) AppleWebKit/537.36 (KHTML, like Gecko) Version/4.0 Chrome/37.0.0.0 Mobile MQQBrowser/6.8 TBS/036849 Safari/537.36 MicroMessenger/6.3.27.880 NetType/WIFI Language/zh_CN'
p205
sg16
S'd7f105fa48e122ea0168d5667c3558f5'
p206
sa(dp207
g2
S'49758'
p208
sg4
S'3993'
p209
sg6
S'e29483f5d48909ce7997109bb3c0c935'
p210
sg8
S'xx629c7c60a2026b76c50463743c294bf9'
p211
sg10
S'xxcde82fe0c46dde6ee9733156e07be27d'
p212
sg12
S'xx6e2515867f397f1a423841d528423d76'
p213
sg14
S'Mozilla/5.0 (Linux; Android 6.0; CAM-TL00H Build/HONORCAM-TL00H) AppleWebKit/537.36 (KHTML, like Gecko) Version/4.0 Chrome/37.0.0.0 Mobile MQQBrowser/6.8 TBS/036849 Safari/537.36 MicroMessenger/6.3.27.880 NetType/WIFI Language/zh_CN'
p214
sg16
S'd7f105fa48e122ea0168d5667c3558f5'
p215
sa(dp216
g2
S'49758'
p217
sg4
S'4016'
p218
sg6
S'e29483f5d48909ce7997109bb3c0c935'
p219
sg8
S'xx629c7c60a2026b76c50463743c294bf9'
p220
sg10
S'xxcde82fe0c46dde6ee9733156e07be27d'
p221
sg12
S'xx6e2515867f397f1a423841d528423d76'
p222
sg14
S'Mozilla/5.0 (Linux; Android 6.0; CAM-TL00H Build/HONORCAM-TL00H) AppleWebKit/537.36 (KHTML, like Gecko) Version/4.0 Chrome/37.0.0.0 Mobile MQQBrowser/6.8 TBS/036849 Safari/537.36 MicroMessenger/6.3.27.880 NetType/WIFI Language/zh_CN'
p223
sg16
S'd7f105fa48e122ea0168d5667c3558f5'
p224
sa(dp225
g2
S'49758'
p226
sg4
S'4032'
p227
sg6
S'e29483f5d48909ce7997109bb3c0c935'
p228
sg8
S'xx629c7c60a2026b76c50463743c294bf9'
p229
sg10
S'xxcde82fe0c46dde6ee9733156e07be27d'
p230
sg12
S'xx6e2515867f397f1a423841d528423d76'
p231
sg14
S'Mozilla/5.0 (Linux; Android 6.0; CAM-TL00H Build/HONORCAM-TL00H) AppleWebKit/537.36 (KHTML, like Gecko) Version/4.0 Chrome/37.0.0.0 Mobile MQQBrowser/6.8 TBS/036849 Safari/537.36 MicroMessenger/6.3.27.880 NetType/WIFI Language/zh_CN'
p232
sg16
S'd7f105fa48e122ea0168d5667c3558f5'
p233
sa(dp234
g2
S'49758'
p235
sg4
S'4046'
p236
sg6
S'e29483f5d48909ce7997109bb3c0c935'
p237
sg8
S'xx629c7c60a2026b76c50463743c294bf9'
p238
sg10
S'xxcde82fe0c46dde6ee9733156e07be27d'
p239
sg12
S'xx6e2515867f397f1a423841d528423d76'
p240
sg14
S'Mozilla/5.0 (Linux; Android 6.0; CAM-TL00H Build/HONORCAM-TL00H) AppleWebKit/537.36 (KHTML, like Gecko) Version/4.0 Chrome/37.0.0.0 Mobile MQQBrowser/6.8 TBS/036849 Safari/537.36 MicroMessenger/6.3.27.880 NetType/WIFI Language/zh_CN'
p241
sg16
S'd7f105fa48e122ea0168d5667c3558f5'
p242
sa(dp243
g2
S'49758'
p244
sg4
S'4094'
p245
sg6
S'e29483f5d48909ce7997109bb3c0c935'
p246
sg8
S'xx629c7c60a2026b76c50463743c294bf9'
p247
sg10
S'xxcde82fe0c46dde6ee9733156e07be27d'
p248
sg12
S'xx6e2515867f397f1a423841d528423d76'
p249
sg14
S'Mozilla/5.0 (Linux; Android 6.0; CAM-TL00H Build/HONORCAM-TL00H) AppleWebKit/537.36 (KHTML, like Gecko) Version/4.0 Chrome/37.0.0.0 Mobile MQQBrowser/6.8 TBS/036849 Safari/537.36 MicroMessenger/6.3.27.880 NetType/WIFI Language/zh_CN'
p250
sg16
S'd7f105fa48e122ea0168d5667c3558f5'
p251
sa(dp252
g2
S'49758'
p253
sg4
S'4136'
p254
sg6
S'e29483f5d48909ce7997109bb3c0c935'
p255
sg8
S'xx629c7c60a2026b76c50463743c294bf9'
p256
sg10
S'xxcde82fe0c46dde6ee9733156e07be27d'
p257
sg12
S'xx6e2515867f397f1a423841d528423d76'
p258
sg14
S'Mozilla/5.0 (Linux; Android 6.0; CAM-TL00H Build/HONORCAM-TL00H) AppleWebKit/537.36 (KHTML, like Gecko) Version/4.0 Chrome/37.0.0.0 Mobile MQQBrowser/6.8 TBS/036849 Safari/537.36 MicroMessenger/6.3.27.880 NetType/WIFI Language/zh_CN'
p259
sg16
S'd7f105fa48e122ea0168d5667c3558f5'
p260
sa(dp261
g2
S'49758'
p262
sg4
S'4239'
p263
sg6
S'e29483f5d48909ce7997109bb3c0c935'
p264
sg8
S'xx629c7c60a2026b76c50463743c294bf9'
p265
sg10
S'xxcde82fe0c46dde6ee9733156e07be27d'
p266
sg12
S'xx6e2515867f397f1a423841d528423d76'
p267
sg14
S'Mozilla/5.0 (Linux; Android 6.0; CAM-TL00H Build/HONORCAM-TL00H) AppleWebKit/537.36 (KHTML, like Gecko) Version/4.0 Chrome/37.0.0.0 Mobile MQQBrowser/6.8 TBS/036849 Safari/537.36 MicroMessenger/6.3.27.880 NetType/WIFI Language/zh_CN'
p268
sg16
S'd7f105fa48e122ea0168d5667c3558f5'
p269
sa(dp270
g2
S'49758'
p271
sg4
S'4381'
p272
sg6
S'e29483f5d48909ce7997109bb3c0c935'
p273
sg8
S'xx629c7c60a2026b76c50463743c294bf9'
p274
sg10
S'xxcde82fe0c46dde6ee9733156e07be27d'
p275
sg12
S'xx6e2515867f397f1a423841d528423d76'
p276
sg14
S'Mozilla/5.0 (Linux; Android 6.0; CAM-TL00H Build/HONORCAM-TL00H) AppleWebKit/537.36 (KHTML, like Gecko) Version/4.0 Chrome/37.0.0.0 Mobile MQQBrowser/6.8 TBS/036849 Safari/537.36 MicroMessenger/6.3.27.880 NetType/WIFI Language/zh_CN'
p277
sg16
S'd7f105fa48e122ea0168d5667c3558f5'
p278
sa(dp279
g2
S'49758'
p280
sg4
S'4414'
p281
sg6
S'e29483f5d48909ce7997109bb3c0c935'
p282
sg8
S'xx629c7c60a2026b76c50463743c294bf9'
p283
sg10
S'xxcde82fe0c46dde6ee9733156e07be27d'
p284
sg12
S'xx6e2515867f397f1a423841d528423d76'
p285
sg14
S'Mozilla/5.0 (Linux; Android 6.0; CAM-TL00H Build/HONORCAM-TL00H) AppleWebKit/537.36 (KHTML, like Gecko) Version/4.0 Chrome/37.0.0.0 Mobile MQQBrowser/6.8 TBS/036849 Safari/537.36 MicroMessenger/6.3.27.880 NetType/WIFI Language/zh_CN'
p286
sg16
S'd7f105fa48e122ea0168d5667c3558f5'
p287
sa(dp288
g2
S'37980'
p289
sg4
S'5018'
p290
sg6
S'cbb5213867fd345f0c9e699b16abb6cb'
p291
sg8
S'xx629c7c60a2026b76c50463743c294bf9'
p292
sg10
S'xxcde82fe0c46dde6ee9733156e07be27d'
p293
sg12
S'xx6e2515867f397f1a423841d528423d76'
p294
sg14
S'Mozilla/5.0 (Linux; Android 6.0; CAM-TL00H Build/HONORCAM-TL00H) AppleWebKit/537.36 (KHTML, like Gecko) Version/4.0 Chrome/37.0.0.0 Mobile MQQBrowser/6.8 TBS/036849 Safari/537.36 MicroMessenger/6.3.27.880 NetType/WIFI Language/zh_CN'
p295
sg16
S'd7f105fa48e122ea0168d5667c3558f5'
p296
sa(dp297
g2
S'37980'
p298
sg4
S'5039'
p299
sg6
S'cbb5213867fd345f0c9e699b16abb6cb'
p300
sg8
S'xx629c7c60a2026b76c50463743c294bf9'
p301
sg10
S'xxcde82fe0c46dde6ee9733156e07be27d'
p302
sg12
S'xx6e2515867f397f1a423841d528423d76'
p303
sg14
S'Mozilla/5.0 (Linux; Android 6.0; CAM-TL00H Build/HONORCAM-TL00H) AppleWebKit/537.36 (KHTML, like Gecko) Version/4.0 Chrome/37.0.0.0 Mobile MQQBrowser/6.8 TBS/036849 Safari/537.36 MicroMessenger/6.3.27.880 NetType/WIFI Language/zh_CN'
p304
sg16
S'd7f105fa48e122ea0168d5667c3558f5'
p305
sa(dp306
g2
S'49758'
p307
sg4
S'5097'
p308
sg6
S'e29483f5d48909ce7997109bb3c0c935'
p309
sg8
S'xx629c7c60a2026b76c50463743c294bf9'
p310
sg10
S'xxcde82fe0c46dde6ee9733156e07be27d'
p311
sg12
S'xx6e2515867f397f1a423841d528423d76'
p312
sg14
S'Mozilla/5.0 (Linux; Android 6.0; CAM-TL00H Build/HONORCAM-TL00H) AppleWebKit/537.36 (KHTML, like Gecko) Version/4.0 Chrome/37.0.0.0 Mobile MQQBrowser/6.8 TBS/036849 Safari/537.36 MicroMessenger/6.3.27.880 NetType/WIFI Language/zh_CN'
p313
sg16
S'd7f105fa48e122ea0168d5667c3558f5'
p314
sa(dp315
g2
S'49758'
p316
sg4
S'5114'
p317
sg6
S'e29483f5d48909ce7997109bb3c0c935'
p318
sg8
S'xx629c7c60a2026b76c50463743c294bf9'
p319
sg10
S'xxcde82fe0c46dde6ee9733156e07be27d'
p320
sg12
S'xx6e2515867f397f1a423841d528423d76'
p321
sg14
S'Mozilla/5.0 (Linux; Android 6.0; CAM-TL00H Build/HONORCAM-TL00H) AppleWebKit/537.36 (KHTML, like Gecko) Version/4.0 Chrome/37.0.0.0 Mobile MQQBrowser/6.8 TBS/036849 Safari/537.36 MicroMessenger/6.3.27.880 NetType/WIFI Language/zh_CN'
p322
sg16
S'd7f105fa48e122ea0168d5667c3558f5'
p323
sa(dp324
g2
S'49758'
p325
sg4
S'5127'
p326
sg6
S'e29483f5d48909ce7997109bb3c0c935'
p327
sg8
S'xx629c7c60a2026b76c50463743c294bf9'
p328
sg10
S'xxcde82fe0c46dde6ee9733156e07be27d'
p329
sg12
S'xx6e2515867f397f1a423841d528423d76'
p330
sg14
S'Mozilla/5.0 (Linux; Android 6.0; CAM-TL00H Build/HONORCAM-TL00H) AppleWebKit/537.36 (KHTML, like Gecko) Version/4.0 Chrome/37.0.0.0 Mobile MQQBrowser/6.8 TBS/036849 Safari/537.36 MicroMessenger/6.3.27.880 NetType/WIFI Language/zh_CN'
p331
sg16
S'd7f105fa48e122ea0168d5667c3558f5'
p332
sa(dp333
g2
S'49758'
p334
sg4
S'5658'
p335
sg6
S'e29483f5d48909ce7997109bb3c0c935'
p336
sg8
S'xx629c7c60a2026b76c50463743c294bf9'
p337
sg10
S'xxcde82fe0c46dde6ee9733156e07be27d'
p338
sg12
S'xx6e2515867f397f1a423841d528423d76'
p339
sg14
S'Mozilla/5.0 (Linux; Android 6.0; CAM-TL00H Build/HONORCAM-TL00H) AppleWebKit/537.36 (KHTML, like Gecko) Version/4.0 Chrome/37.0.0.0 Mobile MQQBrowser/6.8 TBS/036849 Safari/537.36 MicroMessenger/6.3.27.880 NetType/WIFI Language/zh_CN'
p340
sg16
S'd7f105fa48e122ea0168d5667c3558f5'
p341
sa(dp342
g2
S'49758'
p343
sg4
S'5673'
p344
sg6
S'e29483f5d48909ce7997109bb3c0c935'
p345
sg8
S'xx629c7c60a2026b76c50463743c294bf9'
p346
sg10
S'xxcde82fe0c46dde6ee9733156e07be27d'
p347
sg12
S'xx6e2515867f397f1a423841d528423d76'
p348
sg14
S'Mozilla/5.0 (Linux; Android 6.0; CAM-TL00H Build/HONORCAM-TL00H) AppleWebKit/537.36 (KHTML, like Gecko) Version/4.0 Chrome/37.0.0.0 Mobile MQQBrowser/6.8 TBS/036849 Safari/537.36 MicroMessenger/6.3.27.880 NetType/WIFI Language/zh_CN'
p349
sg16
S'd7f105fa48e122ea0168d5667c3558f5'
p350
sa(dp351
g2
S'49758'
p352
sg4
S'5688'
p353
sg6
S'e29483f5d48909ce7997109bb3c0c935'
p354
sg8
S'xx629c7c60a2026b76c50463743c294bf9'
p355
sg10
S'xxcde82fe0c46dde6ee9733156e07be27d'
p356
sg12
S'xx6e2515867f397f1a423841d528423d76'
p357
sg14
S'Mozilla/5.0 (Linux; Android 6.0; CAM-TL00H Build/HONORCAM-TL00H) AppleWebKit/537.36 (KHTML, like Gecko) Version/4.0 Chrome/37.0.0.0 Mobile MQQBrowser/6.8 TBS/036849 Safari/537.36 MicroMessenger/6.3.27.880 NetType/WIFI Language/zh_CN'
p358
sg16
S'd7f105fa48e122ea0168d5667c3558f5'
p359
sa(dp360
g2
S'49758'
p361
sg4
S'5710'
p362
sg6
S'e29483f5d48909ce7997109bb3c0c935'
p363
sg8
S'xx629c7c60a2026b76c50463743c294bf9'
p364
sg10
S'xxcde82fe0c46dde6ee9733156e07be27d'
p365
sg12
S'xx6e2515867f397f1a423841d528423d76'
p366
sg14
S'Mozilla/5.0 (Linux; Android 6.0; CAM-TL00H Build/HONORCAM-TL00H) AppleWebKit/537.36 (KHTML, like Gecko) Version/4.0 Chrome/37.0.0.0 Mobile MQQBrowser/6.8 TBS/036849 Safari/537.36 MicroMessenger/6.3.27.880 NetType/WIFI Language/zh_CN'
p367
sg16
S'd7f105fa48e122ea0168d5667c3558f5'
p368
sa(dp369
g2
S'49758'
p370
sg4
S'5736'
p371
sg6
S'e29483f5d48909ce7997109bb3c0c935'
p372
sg8
S'xx629c7c60a2026b76c50463743c294bf9'
p373
sg10
S'xxcde82fe0c46dde6ee9733156e07be27d'
p374
sg12
S'xx6e2515867f397f1a423841d528423d76'
p375
sg14
S'Mozilla/5.0 (Linux; Android 6.0; CAM-TL00H Build/HONORCAM-TL00H) AppleWebKit/537.36 (KHTML, like Gecko) Version/4.0 Chrome/37.0.0.0 Mobile MQQBrowser/6.8 TBS/036849 Safari/537.36 MicroMessenger/6.3.27.880 NetType/WIFI Language/zh_CN'
p376
sg16
S'd7f105fa48e122ea0168d5667c3558f5'
p377
sa(dp378
g2
S'49758'
p379
sg4
S'5754'
p380
sg6
S'e29483f5d48909ce7997109bb3c0c935'
p381
sg8
S'xx629c7c60a2026b76c50463743c294bf9'
p382
sg10
S'xxcde82fe0c46dde6ee9733156e07be27d'
p383
sg12
S'xx6e2515867f397f1a423841d528423d76'
p384
sg14
S'Mozilla/5.0 (Linux; Android 6.0; CAM-TL00H Build/HONORCAM-TL00H) AppleWebKit/537.36 (KHTML, like Gecko) Version/4.0 Chrome/37.0.0.0 Mobile MQQBrowser/6.8 TBS/036849 Safari/537.36 MicroMessenger/6.3.27.880 NetType/WIFI Language/zh_CN'
p385
sg16
S'd7f105fa48e122ea0168d5667c3558f5'
p386
sa(dp387
g2
S'49758'
p388
sg4
S'6689'
p389
sg6
S'e29483f5d48909ce7997109bb3c0c935'
p390
sg8
S'xx629c7c60a2026b76c50463743c294bf9'
p391
sg10
S'xxcde82fe0c46dde6ee9733156e07be27d'
p392
sg12
S'xx6e2515867f397f1a423841d528423d76'
p393
sg14
S'Mozilla/5.0 (Linux; Android 6.0; CAM-TL00H Build/HONORCAM-TL00H) AppleWebKit/537.36 (KHTML, like Gecko) Version/4.0 Chrome/37.0.0.0 Mobile MQQBrowser/6.8 TBS/036849 Safari/537.36 MicroMessenger/6.3.27.880 NetType/WIFI Language/zh_CN'
p394
sg16
S'd7f105fa48e122ea0168d5667c3558f5'
p395
sa(dp396
g2
S'49758'
p397
sg4
S'6708'
p398
sg6
S'e29483f5d48909ce7997109bb3c0c935'
p399
sg8
S'xx629c7c60a2026b76c50463743c294bf9'
p400
sg10
S'xxcde82fe0c46dde6ee9733156e07be27d'
p401
sg12
S'xx6e2515867f397f1a423841d528423d76'
p402
sg14
S'Mozilla/5.0 (Linux; Android 6.0; CAM-TL00H Build/HONORCAM-TL00H) AppleWebKit/537.36 (KHTML, like Gecko) Version/4.0 Chrome/37.0.0.0 Mobile MQQBrowser/6.8 TBS/036849 Safari/537.36 MicroMessenger/6.3.27.880 NetType/WIFI Language/zh_CN'
p403
sg16
S'd7f105fa48e122ea0168d5667c3558f5'
p404
sa(dp405
g2
S'49758'
p406
sg4
S'6725'
p407
sg6
S'e29483f5d48909ce7997109bb3c0c935'
p408
sg8
S'xx629c7c60a2026b76c50463743c294bf9'
p409
sg10
S'xxcde82fe0c46dde6ee9733156e07be27d'
p410
sg12
S'xx6e2515867f397f1a423841d528423d76'
p411
sg14
S'Mozilla/5.0 (Linux; Android 6.0; CAM-TL00H Build/HONORCAM-TL00H) AppleWebKit/537.36 (KHTML, like Gecko) Version/4.0 Chrome/37.0.0.0 Mobile MQQBrowser/6.8 TBS/036849 Safari/537.36 MicroMessenger/6.3.27.880 NetType/WIFI Language/zh_CN'
p412
sg16
S'd7f105fa48e122ea0168d5667c3558f5'
p413
sa(dp414
g2
S'49758'
p415
sg4
S'6742'
p416
sg6
S'e29483f5d48909ce7997109bb3c0c935'
p417
sg8
S'xx629c7c60a2026b76c50463743c294bf9'
p418
sg10
S'xxcde82fe0c46dde6ee9733156e07be27d'
p419
sg12
S'xx6e2515867f397f1a423841d528423d76'
p420
sg14
S'Mozilla/5.0 (Linux; Android 6.0; CAM-TL00H Build/HONORCAM-TL00H) AppleWebKit/537.36 (KHTML, like Gecko) Version/4.0 Chrome/37.0.0.0 Mobile MQQBrowser/6.8 TBS/036849 Safari/537.36 MicroMessenger/6.3.27.880 NetType/WIFI Language/zh_CN'
p421
sg16
S'd7f105fa48e122ea0168d5667c3558f5'
p422
sa(dp423
g2
S'49758'
p424
sg4
S'6759'
p425
sg6
S'e29483f5d48909ce7997109bb3c0c935'
p426
sg8
S'xx629c7c60a2026b76c50463743c294bf9'
p427
sg10
S'xxcde82fe0c46dde6ee9733156e07be27d'
p428
sg12
S'xx6e2515867f397f1a423841d528423d76'
p429
sg14
S'Mozilla/5.0 (Linux; Android 6.0; CAM-TL00H Build/HONORCAM-TL00H) AppleWebKit/537.36 (KHTML, like Gecko) Version/4.0 Chrome/37.0.0.0 Mobile MQQBrowser/6.8 TBS/036849 Safari/537.36 MicroMessenger/6.3.27.880 NetType/WIFI Language/zh_CN'
p430
sg16
S'd7f105fa48e122ea0168d5667c3558f5'
p431
sa(dp432
g2
S'49758'
p433
sg4
S'6828'
p434
sg6
S'e29483f5d48909ce7997109bb3c0c935'
p435
sg8
S'xx629c7c60a2026b76c50463743c294bf9'
p436
sg10
S'xxcde82fe0c46dde6ee9733156e07be27d'
p437
sg12
S'xx6e2515867f397f1a423841d528423d76'
p438
sg14
S'Mozilla/5.0 (Linux; Android 6.0; CAM-TL00H Build/HONORCAM-TL00H) AppleWebKit/537.36 (KHTML, like Gecko) Version/4.0 Chrome/37.0.0.0 Mobile MQQBrowser/6.8 TBS/036849 Safari/537.36 MicroMessenger/6.3.27.880 NetType/WIFI Language/zh_CN'
p439
sg16
S'd7f105fa48e122ea0168d5667c3558f5'
p440
sa.