(lp0
(dp1
S'user_id'
p2
S'29576'
p3
sS'data_id'
p4
S'8226'
p5
sS'ip'
p6
S'cbb5213867fd345f0c9e699b16abb6cb'
p7
sS'phone_B'
p8
S'xx5d3375fff880325c6633a6df81d10628'
p9
sS'phone_C'
p10
S'xx89408643ade79dac24b2f063cc8a819a'
p11
sS'phone_A'
p12
S'xx70c01f51dda49829bb32c9811f0d3147'
p13
sS'user_agent'
p14
S'Mozilla/5.0 (Linux; Android 5.1; HLJ-GM-Q1 Build/LMY47D) AppleWebKit/537.36 (KHTML, like Gecko) Version/4.0 Chrome/37.0.0.0 Mobile MQQBrowser/6.8 TBS/036849 Safari/537.36 MicroMessenger/6.3.27.880 NetType/WIFI Language/zh_CN'
p15
sS'ua'
p16
S'b037c7f33608c5bc8fbed9b41232b97d'
p17
sa(dp18
g2
S'29576'
p19
sg4
S'8241'
p20
sg6
S'cbb5213867fd345f0c9e699b16abb6cb'
p21
sg8
S'xx5d3375fff880325c6633a6df81d10628'
p22
sg10
S'xx89408643ade79dac24b2f063cc8a819a'
p23
sg12
S'xx70c01f51dda49829bb32c9811f0d3147'
p24
sg14
S'Mozilla/5.0 (Linux; Android 5.1; HLJ-GM-Q1 Build/LMY47D) AppleWebKit/537.36 (KHTML, like Gecko) Version/4.0 Chrome/37.0.0.0 Mobile MQQBrowser/6.8 TBS/036849 Safari/537.36 MicroMessenger/6.3.27.880 NetType/WIFI Language/zh_CN'
p25
sg16
S'b037c7f33608c5bc8fbed9b41232b97d'
p26
sa(dp27
g2
S'29576'
p28
sg4
S'8258'
p29
sg6
S'cbb5213867fd345f0c9e699b16abb6cb'
p30
sg8
S'xx5d3375fff880325c6633a6df81d10628'
p31
sg10
S'xx89408643ade79dac24b2f063cc8a819a'
p32
sg12
S'xx70c01f51dda49829bb32c9811f0d3147'
p33
sg14
S'Mozilla/5.0 (Linux; Android 5.1; HLJ-GM-Q1 Build/LMY47D) AppleWebKit/537.36 (KHTML, like Gecko) Version/4.0 Chrome/37.0.0.0 Mobile MQQBrowser/6.8 TBS/036849 Safari/537.36 MicroMessenger/6.3.27.880 NetType/WIFI Language/zh_CN'
p34
sg16
S'b037c7f33608c5bc8fbed9b41232b97d'
p35
sa(dp36
g2
S'29576'
p37
sg4
S'8272'
p38
sg6
S'cbb5213867fd345f0c9e699b16abb6cb'
p39
sg8
S'xx5d3375fff880325c6633a6df81d10628'
p40
sg10
S'xx89408643ade79dac24b2f063cc8a819a'
p41
sg12
S'xx70c01f51dda49829bb32c9811f0d3147'
p42
sg14
S'Mozilla/5.0 (Linux; Android 5.1; HLJ-GM-Q1 Build/LMY47D) AppleWebKit/537.36 (KHTML, like Gecko) Version/4.0 Chrome/37.0.0.0 Mobile MQQBrowser/6.8 TBS/036849 Safari/537.36 MicroMessenger/6.3.27.880 NetType/WIFI Language/zh_CN'
p43
sg16
S'b037c7f33608c5bc8fbed9b41232b97d'
p44
sa(dp45
g2
S'29576'
p46
sg4
S'8284'
p47
sg6
S'cbb5213867fd345f0c9e699b16abb6cb'
p48
sg8
S'xx5d3375fff880325c6633a6df81d10628'
p49
sg10
S'xx89408643ade79dac24b2f063cc8a819a'
p50
sg12
S'xx70c01f51dda49829bb32c9811f0d3147'
p51
sg14
S'Mozilla/5.0 (Linux; Android 5.1; HLJ-GM-Q1 Build/LMY47D) AppleWebKit/537.36 (KHTML, like Gecko) Version/4.0 Chrome/37.0.0.0 Mobile MQQBrowser/6.8 TBS/036849 Safari/537.36 MicroMessenger/6.3.27.880 NetType/WIFI Language/zh_CN'
p52
sg16
S'b037c7f33608c5bc8fbed9b41232b97d'
p53
sa(dp54
g2
S'29576'
p55
sg4
S'8295'
p56
sg6
S'cbb5213867fd345f0c9e699b16abb6cb'
p57
sg8
S'xx5d3375fff880325c6633a6df81d10628'
p58
sg10
S'xx89408643ade79dac24b2f063cc8a819a'
p59
sg12
S'xx70c01f51dda49829bb32c9811f0d3147'
p60
sg14
S'Mozilla/5.0 (Linux; Android 5.1; HLJ-GM-Q1 Build/LMY47D) AppleWebKit/537.36 (KHTML, like Gecko) Version/4.0 Chrome/37.0.0.0 Mobile MQQBrowser/6.8 TBS/036849 Safari/537.36 MicroMessenger/6.3.27.880 NetType/WIFI Language/zh_CN'
p61
sg16
S'b037c7f33608c5bc8fbed9b41232b97d'
p62
sa(dp63
g2
S'29576'
p64
sg4
S'8305'
p65
sg6
S'cbb5213867fd345f0c9e699b16abb6cb'
p66
sg8
S'xx5d3375fff880325c6633a6df81d10628'
p67
sg10
S'xx89408643ade79dac24b2f063cc8a819a'
p68
sg12
S'xx70c01f51dda49829bb32c9811f0d3147'
p69
sg14
S'Mozilla/5.0 (Linux; Android 5.1; HLJ-GM-Q1 Build/LMY47D) AppleWebKit/537.36 (KHTML, like Gecko) Version/4.0 Chrome/37.0.0.0 Mobile MQQBrowser/6.8 TBS/036849 Safari/537.36 MicroMessenger/6.3.27.880 NetType/WIFI Language/zh_CN'
p70
sg16
S'b037c7f33608c5bc8fbed9b41232b97d'
p71
sa.