(lp0
(dp1
S'user_id'
p2
S'5857'
p3
sS'data_id'
p4
S'146'
p5
sS'ip'
p6
S'd66c95a4c1c7aa3ad1fe1162a8491ff3'
p7
sS'phone_B'
p8
S'xx261ae21c73348075fa6bfe145803453e'
p9
sS'phone_C'
p10
S'xx7c11889d568b644595fc506dc352723e'
p11
sS'phone_A'
p12
S'xx70f16fb312003f3874f7aef96c54c83f'
p13
sS'user_agent'
p14
S'Mozilla/5.0 (Linux; Android 4.4.4; A31 Build/KTU84P) AppleWebKit/537.36 (KHTML, like Gecko) Version/4.0 Chrome/37.0.0.0 Mobile MQQBrowser/6.8 TBS/036849 Safari/537.36 MicroMessenger/6.3.27.880 NetType/WIFI Language/zh_CN'
p15
sS'ua'
p16
S'd7da8665b21ec6015c4745e4e18491e2'
p17
sa(dp18
g2
S'5857'
p19
sg4
S'160'
p20
sg6
S'd66c95a4c1c7aa3ad1fe1162a8491ff3'
p21
sg8
S'xx261ae21c73348075fa6bfe145803453e'
p22
sg10
S'xx7c11889d568b644595fc506dc352723e'
p23
sg12
S'xx70f16fb312003f3874f7aef96c54c83f'
p24
sg14
S'Mozilla/5.0 (Linux; Android 4.4.4; A31 Build/KTU84P) AppleWebKit/537.36 (KHTML, like Gecko) Version/4.0 Chrome/37.0.0.0 Mobile MQQBrowser/6.8 TBS/036849 Safari/537.36 MicroMessenger/6.3.27.880 NetType/WIFI Language/zh_CN'
p25
sg16
S'd7da8665b21ec6015c4745e4e18491e2'
p26
sa(dp27
g2
S'5857'
p28
sg4
S'182'
p29
sg6
S'd66c95a4c1c7aa3ad1fe1162a8491ff3'
p30
sg8
S'xx261ae21c73348075fa6bfe145803453e'
p31
sg10
S'xx7c11889d568b644595fc506dc352723e'
p32
sg12
S'xx70f16fb312003f3874f7aef96c54c83f'
p33
sg14
S'Mozilla/5.0 (Linux; Android 4.4.4; A31 Build/KTU84P) AppleWebKit/537.36 (KHTML, like Gecko) Version/4.0 Chrome/37.0.0.0 Mobile MQQBrowser/6.8 TBS/036849 Safari/537.36 MicroMessenger/6.3.27.880 NetType/WIFI Language/zh_CN'
p34
sg16
S'd7da8665b21ec6015c4745e4e18491e2'
p35
sa(dp36
g2
S'5857'
p37
sg4
S'357'
p38
sg6
S'd66c95a4c1c7aa3ad1fe1162a8491ff3'
p39
sg8
S'xx261ae21c73348075fa6bfe145803453e'
p40
sg10
S'xx7c11889d568b644595fc506dc352723e'
p41
sg12
S'xx70f16fb312003f3874f7aef96c54c83f'
p42
sg14
S'Mozilla/5.0 (Linux; Android 4.4.4; A31 Build/KTU84P) AppleWebKit/537.36 (KHTML, like Gecko) Version/4.0 Chrome/37.0.0.0 Mobile MQQBrowser/6.8 TBS/036849 Safari/537.36 MicroMessenger/6.3.27.880 NetType/WIFI Language/zh_CN'
p43
sg16
S'd7da8665b21ec6015c4745e4e18491e2'
p44
sa(dp45
g2
S'5857'
p46
sg4
S'451'
p47
sg6
S'd66c95a4c1c7aa3ad1fe1162a8491ff3'
p48
sg8
S'xx261ae21c73348075fa6bfe145803453e'
p49
sg10
S'xx7c11889d568b644595fc506dc352723e'
p50
sg12
S'xx70f16fb312003f3874f7aef96c54c83f'
p51
sg14
S'Mozilla/5.0 (Linux; Android 4.4.4; A31 Build/KTU84P) AppleWebKit/537.36 (KHTML, like Gecko) Version/4.0 Chrome/37.0.0.0 Mobile MQQBrowser/6.8 TBS/036849 Safari/537.36 MicroMessenger/6.3.27.880 NetType/WIFI Language/zh_CN'
p52
sg16
S'd7da8665b21ec6015c4745e4e18491e2'
p53
sa(dp54
g2
S'18924'
p55
sg4
S'565'
p56
sg6
S'22d28e31b2562d5e9a44cb2d2218b6b6'
p57
sg8
S'xxeba2cbc074415e232aedc4daf6a930c1'
p58
sg10
S'xx7c11889d568b644595fc506dc352723e'
p59
sg12
S'xx70f16fb312003f3874f7aef96c54c83f'
p60
sg14
S'Mozilla/5.0 (Linux; Android 4.4.4; A31 Build/KTU84P) AppleWebKit/537.36 (KHTML, like Gecko) Version/4.0 Chrome/37.0.0.0 Mobile MQQBrowser/6.8 TBS/036849 Safari/537.36 MicroMessenger/6.3.25.861 NetType/WIFI Language/zh_CN'
p61
sg16
S'1a21f68368014c18293897200d8059db'
p62
sa(dp63
g2
S'18924'
p64
sg4
S'580'
p65
sg6
S'22d28e31b2562d5e9a44cb2d2218b6b6'
p66
sg8
S'xxeba2cbc074415e232aedc4daf6a930c1'
p67
sg10
S'xx7c11889d568b644595fc506dc352723e'
p68
sg12
S'xx70f16fb312003f3874f7aef96c54c83f'
p69
sg14
S'Mozilla/5.0 (Linux; Android 4.4.4; A31 Build/KTU84P) AppleWebKit/537.36 (KHTML, like Gecko) Version/4.0 Chrome/37.0.0.0 Mobile MQQBrowser/6.8 TBS/036849 Safari/537.36 MicroMessenger/6.3.25.861 NetType/WIFI Language/zh_CN'
p70
sg16
S'1a21f68368014c18293897200d8059db'
p71
sa(dp72
g2
S'5857'
p73
sg4
S'593'
p74
sg6
S'd66c95a4c1c7aa3ad1fe1162a8491ff3'
p75
sg8
S'xx261ae21c73348075fa6bfe145803453e'
p76
sg10
S'xx7c11889d568b644595fc506dc352723e'
p77
sg12
S'xx70f16fb312003f3874f7aef96c54c83f'
p78
sg14
S'Mozilla/5.0 (Linux; Android 4.4.4; A31 Build/KTU84P) AppleWebKit/537.36 (KHTML, like Gecko) Version/4.0 Chrome/37.0.0.0 Mobile MQQBrowser/6.8 TBS/036849 Safari/537.36 MicroMessenger/6.3.27.880 NetType/WIFI Language/zh_CN'
p79
sg16
S'd7da8665b21ec6015c4745e4e18491e2'
p80
sa(dp81
g2
S'5857'
p82
sg4
S'610'
p83
sg6
S'd66c95a4c1c7aa3ad1fe1162a8491ff3'
p84
sg8
S'xx261ae21c73348075fa6bfe145803453e'
p85
sg10
S'xx7c11889d568b644595fc506dc352723e'
p86
sg12
S'xx70f16fb312003f3874f7aef96c54c83f'
p87
sg14
S'Mozilla/5.0 (Linux; Android 4.4.4; A31 Build/KTU84P) AppleWebKit/537.36 (KHTML, like Gecko) Version/4.0 Chrome/37.0.0.0 Mobile MQQBrowser/6.8 TBS/036849 Safari/537.36 MicroMessenger/6.3.27.880 NetType/WIFI Language/zh_CN'
p88
sg16
S'd7da8665b21ec6015c4745e4e18491e2'
p89
sa(dp90
g2
S'5857'
p91
sg4
S'890'
p92
sg6
S'd66c95a4c1c7aa3ad1fe1162a8491ff3'
p93
sg8
S'xx261ae21c73348075fa6bfe145803453e'
p94
sg10
S'xx7c11889d568b644595fc506dc352723e'
p95
sg12
S'xx70f16fb312003f3874f7aef96c54c83f'
p96
sg14
S'Mozilla/5.0 (Linux; Android 4.4.4; A31 Build/KTU84P) AppleWebKit/537.36 (KHTML, like Gecko) Version/4.0 Chrome/37.0.0.0 Mobile MQQBrowser/6.8 TBS/036849 Safari/537.36 MicroMessenger/6.3.27.880 NetType/WIFI Language/zh_CN'
p97
sg16
S'd7da8665b21ec6015c4745e4e18491e2'
p98
sa(dp99
g2
S'5857'
p100
sg4
S'908'
p101
sg6
S'd66c95a4c1c7aa3ad1fe1162a8491ff3'
p102
sg8
S'xx261ae21c73348075fa6bfe145803453e'
p103
sg10
S'xx7c11889d568b644595fc506dc352723e'
p104
sg12
S'xx70f16fb312003f3874f7aef96c54c83f'
p105
sg14
S'Mozilla/5.0 (Linux; Android 4.4.4; A31 Build/KTU84P) AppleWebKit/537.36 (KHTML, like Gecko) Version/4.0 Chrome/37.0.0.0 Mobile MQQBrowser/6.8 TBS/036849 Safari/537.36 MicroMessenger/6.3.27.880 NetType/WIFI Language/zh_CN'
p106
sg16
S'd7da8665b21ec6015c4745e4e18491e2'
p107
sa(dp108
g2
S'5857'
p109
sg4
S'1030'
p110
sg6
S'd66c95a4c1c7aa3ad1fe1162a8491ff3'
p111
sg8
S'xx261ae21c73348075fa6bfe145803453e'
p112
sg10
S'xx7c11889d568b644595fc506dc352723e'
p113
sg12
S'xx70f16fb312003f3874f7aef96c54c83f'
p114
sg14
S'Mozilla/5.0 (Linux; Android 4.4.4; A31 Build/KTU84P) AppleWebKit/537.36 (KHTML, like Gecko) Version/4.0 Chrome/37.0.0.0 Mobile MQQBrowser/6.8 TBS/036849 Safari/537.36 MicroMessenger/6.3.27.880 NetType/WIFI Language/zh_CN'
p115
sg16
S'd7da8665b21ec6015c4745e4e18491e2'
p116
sa(dp117
g2
S'5857'
p118
sg4
S'1049'
p119
sg6
S'd66c95a4c1c7aa3ad1fe1162a8491ff3'
p120
sg8
S'xx261ae21c73348075fa6bfe145803453e'
p121
sg10
S'xx7c11889d568b644595fc506dc352723e'
p122
sg12
S'xx70f16fb312003f3874f7aef96c54c83f'
p123
sg14
S'Mozilla/5.0 (Linux; Android 4.4.4; A31 Build/KTU84P) AppleWebKit/537.36 (KHTML, like Gecko) Version/4.0 Chrome/37.0.0.0 Mobile MQQBrowser/6.8 TBS/036849 Safari/537.36 MicroMessenger/6.3.27.880 NetType/WIFI Language/zh_CN'
p124
sg16
S'd7da8665b21ec6015c4745e4e18491e2'
p125
sa(dp126
g2
S'5857'
p127
sg4
S'1067'
p128
sg6
S'd66c95a4c1c7aa3ad1fe1162a8491ff3'
p129
sg8
S'xx261ae21c73348075fa6bfe145803453e'
p130
sg10
S'xx7c11889d568b644595fc506dc352723e'
p131
sg12
S'xx70f16fb312003f3874f7aef96c54c83f'
p132
sg14
S'Mozilla/5.0 (Linux; Android 4.4.4; A31 Build/KTU84P) AppleWebKit/537.36 (KHTML, like Gecko) Version/4.0 Chrome/37.0.0.0 Mobile MQQBrowser/6.8 TBS/036849 Safari/537.36 MicroMessenger/6.3.27.880 NetType/WIFI Language/zh_CN'
p133
sg16
S'd7da8665b21ec6015c4745e4e18491e2'
p134
sa(dp135
g2
S'5857'
p136
sg4
S'1085'
p137
sg6
S'd66c95a4c1c7aa3ad1fe1162a8491ff3'
p138
sg8
S'xx261ae21c73348075fa6bfe145803453e'
p139
sg10
S'xx7c11889d568b644595fc506dc352723e'
p140
sg12
S'xx70f16fb312003f3874f7aef96c54c83f'
p141
sg14
S'Mozilla/5.0 (Linux; Android 4.4.4; A31 Build/KTU84P) AppleWebKit/537.36 (KHTML, like Gecko) Version/4.0 Chrome/37.0.0.0 Mobile MQQBrowser/6.8 TBS/036849 Safari/537.36 MicroMessenger/6.3.27.880 NetType/WIFI Language/zh_CN'
p142
sg16
S'd7da8665b21ec6015c4745e4e18491e2'
p143
sa(dp144
g2
S'5857'
p145
sg4
S'1102'
p146
sg6
S'd66c95a4c1c7aa3ad1fe1162a8491ff3'
p147
sg8
S'xx261ae21c73348075fa6bfe145803453e'
p148
sg10
S'xx7c11889d568b644595fc506dc352723e'
p149
sg12
S'xx70f16fb312003f3874f7aef96c54c83f'
p150
sg14
S'Mozilla/5.0 (Linux; Android 4.4.4; A31 Build/KTU84P) AppleWebKit/537.36 (KHTML, like Gecko) Version/4.0 Chrome/37.0.0.0 Mobile MQQBrowser/6.8 TBS/036849 Safari/537.36 MicroMessenger/6.3.27.880 NetType/WIFI Language/zh_CN'
p151
sg16
S'd7da8665b21ec6015c4745e4e18491e2'
p152
sa(dp153
g2
S'5857'
p154
sg4
S'1119'
p155
sg6
S'd66c95a4c1c7aa3ad1fe1162a8491ff3'
p156
sg8
S'xx261ae21c73348075fa6bfe145803453e'
p157
sg10
S'xx7c11889d568b644595fc506dc352723e'
p158
sg12
S'xx70f16fb312003f3874f7aef96c54c83f'
p159
sg14
S'Mozilla/5.0 (Linux; Android 4.4.4; A31 Build/KTU84P) AppleWebKit/537.36 (KHTML, like Gecko) Version/4.0 Chrome/37.0.0.0 Mobile MQQBrowser/6.8 TBS/036849 Safari/537.36 MicroMessenger/6.3.27.880 NetType/WIFI Language/zh_CN'
p160
sg16
S'd7da8665b21ec6015c4745e4e18491e2'
p161
sa(dp162
g2
S'36139'
p163
sg4
S'1315'
p164
sg6
S'0d6e895df1b7595abf750b57e447465f'
p165
sg8
S'xx752e771c350b69da35c8a96c300edc5d'
p166
sg10
S'xx7c11889d568b644595fc506dc352723e'
p167
sg12
S'xx70f16fb312003f3874f7aef96c54c83f'
p168
sg14
S'Mozilla/5.0 (Linux; Android 4.4.4; A31 Build/KTU84P) AppleWebKit/537.36 (KHTML, like Gecko) Version/4.0 Chrome/37.0.0.0 Mobile MQQBrowser/6.8 TBS/036849 Safari/537.36 MicroMessenger/6.3.27.880 NetType/cmnet Language/zh_CN'
p169
sg16
S'2c4c2305c61441fecaf04532d2f67b82'
p170
sa(dp171
g2
S'36139'
p172
sg4
S'1328'
p173
sg6
S'0d6e895df1b7595abf750b57e447465f'
p174
sg8
S'xx752e771c350b69da35c8a96c300edc5d'
p175
sg10
S'xx7c11889d568b644595fc506dc352723e'
p176
sg12
S'xx70f16fb312003f3874f7aef96c54c83f'
p177
sg14
S'Mozilla/5.0 (Linux; Android 4.4.4; A31 Build/KTU84P) AppleWebKit/537.36 (KHTML, like Gecko) Version/4.0 Chrome/37.0.0.0 Mobile MQQBrowser/6.8 TBS/036849 Safari/537.36 MicroMessenger/6.3.27.880 NetType/cmnet Language/zh_CN'
p178
sg16
S'2c4c2305c61441fecaf04532d2f67b82'
p179
sa(dp180
g2
S'5857'
p181
sg4
S'1436'
p182
sg6
S'd66c95a4c1c7aa3ad1fe1162a8491ff3'
p183
sg8
S'xx261ae21c73348075fa6bfe145803453e'
p184
sg10
S'xx7c11889d568b644595fc506dc352723e'
p185
sg12
S'xx70f16fb312003f3874f7aef96c54c83f'
p186
sg14
S'Mozilla/5.0 (Linux; Android 4.4.4; A31 Build/KTU84P) AppleWebKit/537.36 (KHTML, like Gecko) Version/4.0 Chrome/37.0.0.0 Mobile MQQBrowser/6.8 TBS/036849 Safari/537.36 MicroMessenger/6.3.27.880 NetType/WIFI Language/zh_CN'
p187
sg16
S'd7da8665b21ec6015c4745e4e18491e2'
p188
sa(dp189
g2
S'5857'
p190
sg4
S'1454'
p191
sg6
S'd66c95a4c1c7aa3ad1fe1162a8491ff3'
p192
sg8
S'xx261ae21c73348075fa6bfe145803453e'
p193
sg10
S'xx7c11889d568b644595fc506dc352723e'
p194
sg12
S'xx70f16fb312003f3874f7aef96c54c83f'
p195
sg14
S'Mozilla/5.0 (Linux; Android 4.4.4; A31 Build/KTU84P) AppleWebKit/537.36 (KHTML, like Gecko) Version/4.0 Chrome/37.0.0.0 Mobile MQQBrowser/6.8 TBS/036849 Safari/537.36 MicroMessenger/6.3.27.880 NetType/WIFI Language/zh_CN'
p196
sg16
S'd7da8665b21ec6015c4745e4e18491e2'
p197
sa(dp198
g2
S'5857'
p199
sg4
S'1468'
p200
sg6
S'd66c95a4c1c7aa3ad1fe1162a8491ff3'
p201
sg8
S'xx261ae21c73348075fa6bfe145803453e'
p202
sg10
S'xx7c11889d568b644595fc506dc352723e'
p203
sg12
S'xx70f16fb312003f3874f7aef96c54c83f'
p204
sg14
S'Mozilla/5.0 (Linux; Android 4.4.4; A31 Build/KTU84P) AppleWebKit/537.36 (KHTML, like Gecko) Version/4.0 Chrome/37.0.0.0 Mobile MQQBrowser/6.8 TBS/036849 Safari/537.36 MicroMessenger/6.3.27.880 NetType/WIFI Language/zh_CN'
p205
sg16
S'd7da8665b21ec6015c4745e4e18491e2'
p206
sa(dp207
g2
S'5857'
p208
sg4
S'1485'
p209
sg6
S'd66c95a4c1c7aa3ad1fe1162a8491ff3'
p210
sg8
S'xx261ae21c73348075fa6bfe145803453e'
p211
sg10
S'xx7c11889d568b644595fc506dc352723e'
p212
sg12
S'xx70f16fb312003f3874f7aef96c54c83f'
p213
sg14
S'Mozilla/5.0 (Linux; Android 4.4.4; A31 Build/KTU84P) AppleWebKit/537.36 (KHTML, like Gecko) Version/4.0 Chrome/37.0.0.0 Mobile MQQBrowser/6.8 TBS/036849 Safari/537.36 MicroMessenger/6.3.27.880 NetType/WIFI Language/zh_CN'
p214
sg16
S'd7da8665b21ec6015c4745e4e18491e2'
p215
sa(dp216
g2
S'5857'
p217
sg4
S'1501'
p218
sg6
S'd66c95a4c1c7aa3ad1fe1162a8491ff3'
p219
sg8
S'xx261ae21c73348075fa6bfe145803453e'
p220
sg10
S'xx7c11889d568b644595fc506dc352723e'
p221
sg12
S'xx70f16fb312003f3874f7aef96c54c83f'
p222
sg14
S'Mozilla/5.0 (Linux; Android 4.4.4; A31 Build/KTU84P) AppleWebKit/537.36 (KHTML, like Gecko) Version/4.0 Chrome/37.0.0.0 Mobile MQQBrowser/6.8 TBS/036849 Safari/537.36 MicroMessenger/6.3.27.880 NetType/WIFI Language/zh_CN'
p223
sg16
S'd7da8665b21ec6015c4745e4e18491e2'
p224
sa(dp225
g2
S'5857'
p226
sg4
S'1515'
p227
sg6
S'd66c95a4c1c7aa3ad1fe1162a8491ff3'
p228
sg8
S'xx261ae21c73348075fa6bfe145803453e'
p229
sg10
S'xx7c11889d568b644595fc506dc352723e'
p230
sg12
S'xx70f16fb312003f3874f7aef96c54c83f'
p231
sg14
S'Mozilla/5.0 (Linux; Android 4.4.4; A31 Build/KTU84P) AppleWebKit/537.36 (KHTML, like Gecko) Version/4.0 Chrome/37.0.0.0 Mobile MQQBrowser/6.8 TBS/036849 Safari/537.36 MicroMessenger/6.3.27.880 NetType/WIFI Language/zh_CN'
p232
sg16
S'd7da8665b21ec6015c4745e4e18491e2'
p233
sa(dp234
g2
S'5857'
p235
sg4
S'1529'
p236
sg6
S'd66c95a4c1c7aa3ad1fe1162a8491ff3'
p237
sg8
S'xx261ae21c73348075fa6bfe145803453e'
p238
sg10
S'xx7c11889d568b644595fc506dc352723e'
p239
sg12
S'xx70f16fb312003f3874f7aef96c54c83f'
p240
sg14
S'Mozilla/5.0 (Linux; Android 4.4.4; A31 Build/KTU84P) AppleWebKit/537.36 (KHTML, like Gecko) Version/4.0 Chrome/37.0.0.0 Mobile MQQBrowser/6.8 TBS/036849 Safari/537.36 MicroMessenger/6.3.27.880 NetType/WIFI Language/zh_CN'
p241
sg16
S'd7da8665b21ec6015c4745e4e18491e2'
p242
sa(dp243
g2
S'5857'
p244
sg4
S'1540'
p245
sg6
S'd66c95a4c1c7aa3ad1fe1162a8491ff3'
p246
sg8
S'xx261ae21c73348075fa6bfe145803453e'
p247
sg10
S'xx7c11889d568b644595fc506dc352723e'
p248
sg12
S'xx70f16fb312003f3874f7aef96c54c83f'
p249
sg14
S'Mozilla/5.0 (Linux; Android 4.4.4; A31 Build/KTU84P) AppleWebKit/537.36 (KHTML, like Gecko) Version/4.0 Chrome/37.0.0.0 Mobile MQQBrowser/6.8 TBS/036849 Safari/537.36 MicroMessenger/6.3.27.880 NetType/WIFI Language/zh_CN'
p250
sg16
S'd7da8665b21ec6015c4745e4e18491e2'
p251
sa(dp252
g2
S'5857'
p253
sg4
S'1551'
p254
sg6
S'd66c95a4c1c7aa3ad1fe1162a8491ff3'
p255
sg8
S'xx261ae21c73348075fa6bfe145803453e'
p256
sg10
S'xx7c11889d568b644595fc506dc352723e'
p257
sg12
S'xx70f16fb312003f3874f7aef96c54c83f'
p258
sg14
S'Mozilla/5.0 (Linux; Android 4.4.4; A31 Build/KTU84P) AppleWebKit/537.36 (KHTML, like Gecko) Version/4.0 Chrome/37.0.0.0 Mobile MQQBrowser/6.8 TBS/036849 Safari/537.36 MicroMessenger/6.3.27.880 NetType/WIFI Language/zh_CN'
p259
sg16
S'd7da8665b21ec6015c4745e4e18491e2'
p260
sa(dp261
g2
S'5857'
p262
sg4
S'1568'
p263
sg6
S'd66c95a4c1c7aa3ad1fe1162a8491ff3'
p264
sg8
S'xx261ae21c73348075fa6bfe145803453e'
p265
sg10
S'xx7c11889d568b644595fc506dc352723e'
p266
sg12
S'xx70f16fb312003f3874f7aef96c54c83f'
p267
sg14
S'Mozilla/5.0 (Linux; Android 4.4.4; A31 Build/KTU84P) AppleWebKit/537.36 (KHTML, like Gecko) Version/4.0 Chrome/37.0.0.0 Mobile MQQBrowser/6.8 TBS/036849 Safari/537.36 MicroMessenger/6.3.27.880 NetType/WIFI Language/zh_CN'
p268
sg16
S'd7da8665b21ec6015c4745e4e18491e2'
p269
sa(dp270
g2
S'5857'
p271
sg4
S'1604'
p272
sg6
S'd66c95a4c1c7aa3ad1fe1162a8491ff3'
p273
sg8
S'xx261ae21c73348075fa6bfe145803453e'
p274
sg10
S'xx7c11889d568b644595fc506dc352723e'
p275
sg12
S'xx70f16fb312003f3874f7aef96c54c83f'
p276
sg14
S'Mozilla/5.0 (Linux; Android 4.4.4; A31 Build/KTU84P) AppleWebKit/537.36 (KHTML, like Gecko) Version/4.0 Chrome/37.0.0.0 Mobile MQQBrowser/6.8 TBS/036849 Safari/537.36 MicroMessenger/6.3.27.880 NetType/WIFI Language/zh_CN'
p277
sg16
S'd7da8665b21ec6015c4745e4e18491e2'
p278
sa(dp279
g2
S'5857'
p280
sg4
S'1624'
p281
sg6
S'd66c95a4c1c7aa3ad1fe1162a8491ff3'
p282
sg8
S'xx261ae21c73348075fa6bfe145803453e'
p283
sg10
S'xx7c11889d568b644595fc506dc352723e'
p284
sg12
S'xx70f16fb312003f3874f7aef96c54c83f'
p285
sg14
S'Mozilla/5.0 (Linux; Android 4.4.4; A31 Build/KTU84P) AppleWebKit/537.36 (KHTML, like Gecko) Version/4.0 Chrome/37.0.0.0 Mobile MQQBrowser/6.8 TBS/036849 Safari/537.36 MicroMessenger/6.3.27.880 NetType/WIFI Language/zh_CN'
p286
sg16
S'd7da8665b21ec6015c4745e4e18491e2'
p287
sa(dp288
g2
S'5857'
p289
sg4
S'1641'
p290
sg6
S'd66c95a4c1c7aa3ad1fe1162a8491ff3'
p291
sg8
S'xx261ae21c73348075fa6bfe145803453e'
p292
sg10
S'xx7c11889d568b644595fc506dc352723e'
p293
sg12
S'xx70f16fb312003f3874f7aef96c54c83f'
p294
sg14
S'Mozilla/5.0 (Linux; Android 4.4.4; A31 Build/KTU84P) AppleWebKit/537.36 (KHTML, like Gecko) Version/4.0 Chrome/37.0.0.0 Mobile MQQBrowser/6.8 TBS/036849 Safari/537.36 MicroMessenger/6.3.27.880 NetType/WIFI Language/zh_CN'
p295
sg16
S'd7da8665b21ec6015c4745e4e18491e2'
p296
sa(dp297
g2
S'5857'
p298
sg4
S'1653'
p299
sg6
S'd66c95a4c1c7aa3ad1fe1162a8491ff3'
p300
sg8
S'xx261ae21c73348075fa6bfe145803453e'
p301
sg10
S'xx7c11889d568b644595fc506dc352723e'
p302
sg12
S'xx70f16fb312003f3874f7aef96c54c83f'
p303
sg14
S'Mozilla/5.0 (Linux; Android 4.4.4; A31 Build/KTU84P) AppleWebKit/537.36 (KHTML, like Gecko) Version/4.0 Chrome/37.0.0.0 Mobile MQQBrowser/6.8 TBS/036849 Safari/537.36 MicroMessenger/6.3.27.880 NetType/WIFI Language/zh_CN'
p304
sg16
S'd7da8665b21ec6015c4745e4e18491e2'
p305
sa(dp306
g2
S'5857'
p307
sg4
S'1670'
p308
sg6
S'd66c95a4c1c7aa3ad1fe1162a8491ff3'
p309
sg8
S'xx261ae21c73348075fa6bfe145803453e'
p310
sg10
S'xx7c11889d568b644595fc506dc352723e'
p311
sg12
S'xx70f16fb312003f3874f7aef96c54c83f'
p312
sg14
S'Mozilla/5.0 (Linux; Android 4.4.4; A31 Build/KTU84P) AppleWebKit/537.36 (KHTML, like Gecko) Version/4.0 Chrome/37.0.0.0 Mobile MQQBrowser/6.8 TBS/036849 Safari/537.36 MicroMessenger/6.3.27.880 NetType/WIFI Language/zh_CN'
p313
sg16
S'd7da8665b21ec6015c4745e4e18491e2'
p314
sa(dp315
g2
S'5857'
p316
sg4
S'1698'
p317
sg6
S'd66c95a4c1c7aa3ad1fe1162a8491ff3'
p318
sg8
S'xx261ae21c73348075fa6bfe145803453e'
p319
sg10
S'xx7c11889d568b644595fc506dc352723e'
p320
sg12
S'xx70f16fb312003f3874f7aef96c54c83f'
p321
sg14
S'Mozilla/5.0 (Linux; Android 4.4.4; A31 Build/KTU84P) AppleWebKit/537.36 (KHTML, like Gecko) Version/4.0 Chrome/37.0.0.0 Mobile MQQBrowser/6.8 TBS/036849 Safari/537.36 MicroMessenger/6.3.27.880 NetType/WIFI Language/zh_CN'
p322
sg16
S'd7da8665b21ec6015c4745e4e18491e2'
p323
sa(dp324
g2
S'5857'
p325
sg4
S'1710'
p326
sg6
S'd66c95a4c1c7aa3ad1fe1162a8491ff3'
p327
sg8
S'xx261ae21c73348075fa6bfe145803453e'
p328
sg10
S'xx7c11889d568b644595fc506dc352723e'
p329
sg12
S'xx70f16fb312003f3874f7aef96c54c83f'
p330
sg14
S'Mozilla/5.0 (Linux; Android 4.4.4; A31 Build/KTU84P) AppleWebKit/537.36 (KHTML, like Gecko) Version/4.0 Chrome/37.0.0.0 Mobile MQQBrowser/6.8 TBS/036849 Safari/537.36 MicroMessenger/6.3.27.880 NetType/WIFI Language/zh_CN'
p331
sg16
S'd7da8665b21ec6015c4745e4e18491e2'
p332
sa(dp333
g2
S'5857'
p334
sg4
S'1723'
p335
sg6
S'd66c95a4c1c7aa3ad1fe1162a8491ff3'
p336
sg8
S'xx261ae21c73348075fa6bfe145803453e'
p337
sg10
S'xx7c11889d568b644595fc506dc352723e'
p338
sg12
S'xx70f16fb312003f3874f7aef96c54c83f'
p339
sg14
S'Mozilla/5.0 (Linux; Android 4.4.4; A31 Build/KTU84P) AppleWebKit/537.36 (KHTML, like Gecko) Version/4.0 Chrome/37.0.0.0 Mobile MQQBrowser/6.8 TBS/036849 Safari/537.36 MicroMessenger/6.3.27.880 NetType/WIFI Language/zh_CN'
p340
sg16
S'd7da8665b21ec6015c4745e4e18491e2'
p341
sa(dp342
g2
S'5857'
p343
sg4
S'1740'
p344
sg6
S'd66c95a4c1c7aa3ad1fe1162a8491ff3'
p345
sg8
S'xx261ae21c73348075fa6bfe145803453e'
p346
sg10
S'xx7c11889d568b644595fc506dc352723e'
p347
sg12
S'xx70f16fb312003f3874f7aef96c54c83f'
p348
sg14
S'Mozilla/5.0 (Linux; Android 4.4.4; A31 Build/KTU84P) AppleWebKit/537.36 (KHTML, like Gecko) Version/4.0 Chrome/37.0.0.0 Mobile MQQBrowser/6.8 TBS/036849 Safari/537.36 MicroMessenger/6.3.27.880 NetType/WIFI Language/zh_CN'
p349
sg16
S'd7da8665b21ec6015c4745e4e18491e2'
p350
sa(dp351
g2
S'36654'
p352
sg4
S'1758'
p353
sg6
S'55354d7eaad0a85c7da9f23784797167'
p354
sg8
S'xx9403ba2d8b8ed8617032b904764b5447'
p355
sg10
S'xx7c11889d568b644595fc506dc352723e'
p356
sg12
S'xx70f16fb312003f3874f7aef96c54c83f'
p357
sg14
S'Mozilla/5.0 (Linux; Android 4.4.4; A31 Build/KTU84P) AppleWebKit/537.36 (KHTML, like Gecko) Version/4.0 Chrome/37.0.0.0 Mobile MQQBrowser/6.8 TBS/036824 Safari/537.36 MicroMessenger/6.3.27.880 NetType/WIFI Language/zh_CN'
p358
sg16
S'0f94006a37d6395e5a7164312b6607c5'
p359
sa(dp360
g2
S'5857'
p361
sg4
S'1774'
p362
sg6
S'd66c95a4c1c7aa3ad1fe1162a8491ff3'
p363
sg8
S'xx261ae21c73348075fa6bfe145803453e'
p364
sg10
S'xx7c11889d568b644595fc506dc352723e'
p365
sg12
S'xx70f16fb312003f3874f7aef96c54c83f'
p366
sg14
S'Mozilla/5.0 (Linux; Android 4.4.4; A31 Build/KTU84P) AppleWebKit/537.36 (KHTML, like Gecko) Version/4.0 Chrome/37.0.0.0 Mobile MQQBrowser/6.8 TBS/036849 Safari/537.36 MicroMessenger/6.3.27.880 NetType/WIFI Language/zh_CN'
p367
sg16
S'd7da8665b21ec6015c4745e4e18491e2'
p368
sa(dp369
g2
S'36654'
p370
sg4
S'1776'
p371
sg6
S'55354d7eaad0a85c7da9f23784797167'
p372
sg8
S'xx9403ba2d8b8ed8617032b904764b5447'
p373
sg10
S'xx7c11889d568b644595fc506dc352723e'
p374
sg12
S'xx70f16fb312003f3874f7aef96c54c83f'
p375
sg14
S'Mozilla/5.0 (Linux; Android 4.4.4; A31 Build/KTU84P) AppleWebKit/537.36 (KHTML, like Gecko) Version/4.0 Chrome/37.0.0.0 Mobile MQQBrowser/6.8 TBS/036824 Safari/537.36 MicroMessenger/6.3.27.880 NetType/WIFI Language/zh_CN'
p376
sg16
S'0f94006a37d6395e5a7164312b6607c5'
p377
sa(dp378
g2
S'5857'
p379
sg4
S'1794'
p380
sg6
S'd66c95a4c1c7aa3ad1fe1162a8491ff3'
p381
sg8
S'xx261ae21c73348075fa6bfe145803453e'
p382
sg10
S'xx7c11889d568b644595fc506dc352723e'
p383
sg12
S'xx70f16fb312003f3874f7aef96c54c83f'
p384
sg14
S'Mozilla/5.0 (Linux; Android 4.4.4; A31 Build/KTU84P) AppleWebKit/537.36 (KHTML, like Gecko) Version/4.0 Chrome/37.0.0.0 Mobile MQQBrowser/6.8 TBS/036849 Safari/537.36 MicroMessenger/6.3.27.880 NetType/WIFI Language/zh_CN'
p385
sg16
S'd7da8665b21ec6015c4745e4e18491e2'
p386
sa(dp387
g2
S'5857'
p388
sg4
S'1807'
p389
sg6
S'd66c95a4c1c7aa3ad1fe1162a8491ff3'
p390
sg8
S'xx261ae21c73348075fa6bfe145803453e'
p391
sg10
S'xx7c11889d568b644595fc506dc352723e'
p392
sg12
S'xx70f16fb312003f3874f7aef96c54c83f'
p393
sg14
S'Mozilla/5.0 (Linux; Android 4.4.4; A31 Build/KTU84P) AppleWebKit/537.36 (KHTML, like Gecko) Version/4.0 Chrome/37.0.0.0 Mobile MQQBrowser/6.8 TBS/036849 Safari/537.36 MicroMessenger/6.3.27.880 NetType/WIFI Language/zh_CN'
p394
sg16
S'd7da8665b21ec6015c4745e4e18491e2'
p395
sa(dp396
g2
S'5857'
p397
sg4
S'1820'
p398
sg6
S'd66c95a4c1c7aa3ad1fe1162a8491ff3'
p399
sg8
S'xx261ae21c73348075fa6bfe145803453e'
p400
sg10
S'xx7c11889d568b644595fc506dc352723e'
p401
sg12
S'xx70f16fb312003f3874f7aef96c54c83f'
p402
sg14
S'Mozilla/5.0 (Linux; Android 4.4.4; A31 Build/KTU84P) AppleWebKit/537.36 (KHTML, like Gecko) Version/4.0 Chrome/37.0.0.0 Mobile MQQBrowser/6.8 TBS/036849 Safari/537.36 MicroMessenger/6.3.27.880 NetType/WIFI Language/zh_CN'
p403
sg16
S'd7da8665b21ec6015c4745e4e18491e2'
p404
sa(dp405
g2
S'43963'
p406
sg4
S'1826'
p407
sg6
S'e5f1bbe0d87aec895707c8dbba6c5a9b'
p408
sg8
S'xx261ae21c73348075fa6bfe145803453e'
p409
sg10
S'xx7c11889d568b644595fc506dc352723e'
p410
sg12
S'xx70f16fb312003f3874f7aef96c54c83f'
p411
sg14
S'Mozilla/5.0 (Linux; Android 4.4.4; A31 Build/KTU84P) AppleWebKit/537.36 (KHTML, like Gecko) Version/4.0 Chrome/37.0.0.0 Mobile MQQBrowser/6.8 TBS/036849 Safari/537.36 MicroMessenger/6.3.27.880 NetType/WIFI Language/zh_CN'
p412
sg16
S'd7da8665b21ec6015c4745e4e18491e2'
p413
sa(dp414
g2
S'5857'
p415
sg4
S'1832'
p416
sg6
S'd66c95a4c1c7aa3ad1fe1162a8491ff3'
p417
sg8
S'xx261ae21c73348075fa6bfe145803453e'
p418
sg10
S'xx7c11889d568b644595fc506dc352723e'
p419
sg12
S'xx70f16fb312003f3874f7aef96c54c83f'
p420
sg14
S'Mozilla/5.0 (Linux; Android 4.4.4; A31 Build/KTU84P) AppleWebKit/537.36 (KHTML, like Gecko) Version/4.0 Chrome/37.0.0.0 Mobile MQQBrowser/6.8 TBS/036849 Safari/537.36 MicroMessenger/6.3.27.880 NetType/WIFI Language/zh_CN'
p421
sg16
S'd7da8665b21ec6015c4745e4e18491e2'
p422
sa(dp423
g2
S'43963'
p424
sg4
S'1838'
p425
sg6
S'e5f1bbe0d87aec895707c8dbba6c5a9b'
p426
sg8
S'xx261ae21c73348075fa6bfe145803453e'
p427
sg10
S'xx7c11889d568b644595fc506dc352723e'
p428
sg12
S'xx70f16fb312003f3874f7aef96c54c83f'
p429
sg14
S'Mozilla/5.0 (Linux; Android 4.4.4; A31 Build/KTU84P) AppleWebKit/537.36 (KHTML, like Gecko) Version/4.0 Chrome/37.0.0.0 Mobile MQQBrowser/6.8 TBS/036849 Safari/537.36 MicroMessenger/6.3.27.880 NetType/WIFI Language/zh_CN'
p430
sg16
S'd7da8665b21ec6015c4745e4e18491e2'
p431
sa(dp432
g2
S'5857'
p433
sg4
S'1845'
p434
sg6
S'd66c95a4c1c7aa3ad1fe1162a8491ff3'
p435
sg8
S'xx261ae21c73348075fa6bfe145803453e'
p436
sg10
S'xx7c11889d568b644595fc506dc352723e'
p437
sg12
S'xx70f16fb312003f3874f7aef96c54c83f'
p438
sg14
S'Mozilla/5.0 (Linux; Android 4.4.4; A31 Build/KTU84P) AppleWebKit/537.36 (KHTML, like Gecko) Version/4.0 Chrome/37.0.0.0 Mobile MQQBrowser/6.8 TBS/036849 Safari/537.36 MicroMessenger/6.3.27.880 NetType/WIFI Language/zh_CN'
p439
sg16
S'd7da8665b21ec6015c4745e4e18491e2'
p440
sa(dp441
g2
S'5857'
p442
sg4
S'1856'
p443
sg6
S'd66c95a4c1c7aa3ad1fe1162a8491ff3'
p444
sg8
S'xx261ae21c73348075fa6bfe145803453e'
p445
sg10
S'xx7c11889d568b644595fc506dc352723e'
p446
sg12
S'xx70f16fb312003f3874f7aef96c54c83f'
p447
sg14
S'Mozilla/5.0 (Linux; Android 4.4.4; A31 Build/KTU84P) AppleWebKit/537.36 (KHTML, like Gecko) Version/4.0 Chrome/37.0.0.0 Mobile MQQBrowser/6.8 TBS/036849 Safari/537.36 MicroMessenger/6.3.27.880 NetType/WIFI Language/zh_CN'
p448
sg16
S'd7da8665b21ec6015c4745e4e18491e2'
p449
sa(dp450
g2
S'5857'
p451
sg4
S'1872'
p452
sg6
S'd66c95a4c1c7aa3ad1fe1162a8491ff3'
p453
sg8
S'xx261ae21c73348075fa6bfe145803453e'
p454
sg10
S'xx7c11889d568b644595fc506dc352723e'
p455
sg12
S'xx70f16fb312003f3874f7aef96c54c83f'
p456
sg14
S'Mozilla/5.0 (Linux; Android 4.4.4; A31 Build/KTU84P) AppleWebKit/537.36 (KHTML, like Gecko) Version/4.0 Chrome/37.0.0.0 Mobile MQQBrowser/6.8 TBS/036849 Safari/537.36 MicroMessenger/6.3.27.880 NetType/WIFI Language/zh_CN'
p457
sg16
S'd7da8665b21ec6015c4745e4e18491e2'
p458
sa(dp459
g2
S'5857'
p460
sg4
S'1887'
p461
sg6
S'd66c95a4c1c7aa3ad1fe1162a8491ff3'
p462
sg8
S'xx261ae21c73348075fa6bfe145803453e'
p463
sg10
S'xx7c11889d568b644595fc506dc352723e'
p464
sg12
S'xx70f16fb312003f3874f7aef96c54c83f'
p465
sg14
S'Mozilla/5.0 (Linux; Android 4.4.4; A31 Build/KTU84P) AppleWebKit/537.36 (KHTML, like Gecko) Version/4.0 Chrome/37.0.0.0 Mobile MQQBrowser/6.8 TBS/036849 Safari/537.36 MicroMessenger/6.3.27.880 NetType/WIFI Language/zh_CN'
p466
sg16
S'd7da8665b21ec6015c4745e4e18491e2'
p467
sa(dp468
g2
S'5857'
p469
sg4
S'1900'
p470
sg6
S'd66c95a4c1c7aa3ad1fe1162a8491ff3'
p471
sg8
S'xx261ae21c73348075fa6bfe145803453e'
p472
sg10
S'xx7c11889d568b644595fc506dc352723e'
p473
sg12
S'xx70f16fb312003f3874f7aef96c54c83f'
p474
sg14
S'Mozilla/5.0 (Linux; Android 4.4.4; A31 Build/KTU84P) AppleWebKit/537.36 (KHTML, like Gecko) Version/4.0 Chrome/37.0.0.0 Mobile MQQBrowser/6.8 TBS/036849 Safari/537.36 MicroMessenger/6.3.27.880 NetType/WIFI Language/zh_CN'
p475
sg16
S'd7da8665b21ec6015c4745e4e18491e2'
p476
sa(dp477
g2
S'43963'
p478
sg4
S'1902'
p479
sg6
S'e5f1bbe0d87aec895707c8dbba6c5a9b'
p480
sg8
S'xx261ae21c73348075fa6bfe145803453e'
p481
sg10
S'xx7c11889d568b644595fc506dc352723e'
p482
sg12
S'xx70f16fb312003f3874f7aef96c54c83f'
p483
sg14
S'Mozilla/5.0 (Linux; Android 4.4.4; A31 Build/KTU84P) AppleWebKit/537.36 (KHTML, like Gecko) Version/4.0 Chrome/37.0.0.0 Mobile MQQBrowser/6.8 TBS/036849 Safari/537.36 MicroMessenger/6.3.27.880 NetType/WIFI Language/zh_CN'
p484
sg16
S'd7da8665b21ec6015c4745e4e18491e2'
p485
sa(dp486
g2
S'43963'
p487
sg4
S'1917'
p488
sg6
S'e5f1bbe0d87aec895707c8dbba6c5a9b'
p489
sg8
S'xx261ae21c73348075fa6bfe145803453e'
p490
sg10
S'xx7c11889d568b644595fc506dc352723e'
p491
sg12
S'xx70f16fb312003f3874f7aef96c54c83f'
p492
sg14
S'Mozilla/5.0 (Linux; Android 4.4.4; A31 Build/KTU84P) AppleWebKit/537.36 (KHTML, like Gecko) Version/4.0 Chrome/37.0.0.0 Mobile MQQBrowser/6.8 TBS/036849 Safari/537.36 MicroMessenger/6.3.27.880 NetType/WIFI Language/zh_CN'
p493
sg16
S'd7da8665b21ec6015c4745e4e18491e2'
p494
sa(dp495
g2
S'5857'
p496
sg4
S'1924'
p497
sg6
S'd66c95a4c1c7aa3ad1fe1162a8491ff3'
p498
sg8
S'xx261ae21c73348075fa6bfe145803453e'
p499
sg10
S'xx7c11889d568b644595fc506dc352723e'
p500
sg12
S'xx70f16fb312003f3874f7aef96c54c83f'
p501
sg14
S'Mozilla/5.0 (Linux; Android 4.4.4; A31 Build/KTU84P) AppleWebKit/537.36 (KHTML, like Gecko) Version/4.0 Chrome/37.0.0.0 Mobile MQQBrowser/6.8 TBS/036849 Safari/537.36 MicroMessenger/6.3.27.880 NetType/WIFI Language/zh_CN'
p502
sg16
S'd7da8665b21ec6015c4745e4e18491e2'
p503
sa(dp504
g2
S'43963'
p505
sg4
S'1925'
p506
sg6
S'e5f1bbe0d87aec895707c8dbba6c5a9b'
p507
sg8
S'xx261ae21c73348075fa6bfe145803453e'
p508
sg10
S'xx7c11889d568b644595fc506dc352723e'
p509
sg12
S'xx70f16fb312003f3874f7aef96c54c83f'
p510
sg14
S'Mozilla/5.0 (Linux; Android 4.4.4; A31 Build/KTU84P) AppleWebKit/537.36 (KHTML, like Gecko) Version/4.0 Chrome/37.0.0.0 Mobile MQQBrowser/6.8 TBS/036849 Safari/537.36 MicroMessenger/6.3.27.880 NetType/WIFI Language/zh_CN'
p511
sg16
S'd7da8665b21ec6015c4745e4e18491e2'
p512
sa(dp513
g2
S'43963'
p514
sg4
S'1943'
p515
sg6
S'e5f1bbe0d87aec895707c8dbba6c5a9b'
p516
sg8
S'xx261ae21c73348075fa6bfe145803453e'
p517
sg10
S'xx7c11889d568b644595fc506dc352723e'
p518
sg12
S'xx70f16fb312003f3874f7aef96c54c83f'
p519
sg14
S'Mozilla/5.0 (Linux; Android 4.4.4; A31 Build/KTU84P) AppleWebKit/537.36 (KHTML, like Gecko) Version/4.0 Chrome/37.0.0.0 Mobile MQQBrowser/6.8 TBS/036849 Safari/537.36 MicroMessenger/6.3.27.880 NetType/WIFI Language/zh_CN'
p520
sg16
S'd7da8665b21ec6015c4745e4e18491e2'
p521
sa(dp522
g2
S'5857'
p523
sg4
S'1945'
p524
sg6
S'd66c95a4c1c7aa3ad1fe1162a8491ff3'
p525
sg8
S'xx261ae21c73348075fa6bfe145803453e'
p526
sg10
S'xx7c11889d568b644595fc506dc352723e'
p527
sg12
S'xx70f16fb312003f3874f7aef96c54c83f'
p528
sg14
S'Mozilla/5.0 (Linux; Android 4.4.4; A31 Build/KTU84P) AppleWebKit/537.36 (KHTML, like Gecko) Version/4.0 Chrome/37.0.0.0 Mobile MQQBrowser/6.8 TBS/036849 Safari/537.36 MicroMessenger/6.3.27.880 NetType/WIFI Language/zh_CN'
p529
sg16
S'd7da8665b21ec6015c4745e4e18491e2'
p530
sa(dp531
g2
S'36139'
p532
sg4
S'1962'
p533
sg6
S'0d6e895df1b7595abf750b57e447465f'
p534
sg8
S'xx752e771c350b69da35c8a96c300edc5d'
p535
sg10
S'xx7c11889d568b644595fc506dc352723e'
p536
sg12
S'xx70f16fb312003f3874f7aef96c54c83f'
p537
sg14
S'Mozilla/5.0 (Linux; Android 4.4.4; A31 Build/KTU84P) AppleWebKit/537.36 (KHTML, like Gecko) Version/4.0 Chrome/37.0.0.0 Mobile MQQBrowser/6.8 TBS/036849 Safari/537.36 MicroMessenger/6.3.27.880 NetType/cmnet Language/zh_CN'
p538
sg16
S'2c4c2305c61441fecaf04532d2f67b82'
p539
sa(dp540
g2
S'5857'
p541
sg4
S'1968'
p542
sg6
S'd66c95a4c1c7aa3ad1fe1162a8491ff3'
p543
sg8
S'xx261ae21c73348075fa6bfe145803453e'
p544
sg10
S'xx7c11889d568b644595fc506dc352723e'
p545
sg12
S'xx70f16fb312003f3874f7aef96c54c83f'
p546
sg14
S'Mozilla/5.0 (Linux; Android 4.4.4; A31 Build/KTU84P) AppleWebKit/537.36 (KHTML, like Gecko) Version/4.0 Chrome/37.0.0.0 Mobile MQQBrowser/6.8 TBS/036849 Safari/537.36 MicroMessenger/6.3.27.880 NetType/WIFI Language/zh_CN'
p547
sg16
S'd7da8665b21ec6015c4745e4e18491e2'
p548
sa(dp549
g2
S'43963'
p550
sg4
S'1974'
p551
sg6
S'aa155f533f5474bab0ae91c7baaed32a'
p552
sg8
S'xx261ae21c73348075fa6bfe145803453e'
p553
sg10
S'xx7c11889d568b644595fc506dc352723e'
p554
sg12
S'xx70f16fb312003f3874f7aef96c54c83f'
p555
sg14
S'Mozilla/5.0 (Linux; Android 4.4.4; A31 Build/KTU84P) AppleWebKit/537.36 (KHTML, like Gecko) Version/4.0 Chrome/37.0.0.0 Mobile MQQBrowser/6.8 TBS/036849 Safari/537.36 MicroMessenger/6.3.27.880 NetType/WIFI Language/zh_CN'
p556
sg16
S'd7da8665b21ec6015c4745e4e18491e2'
p557
sa(dp558
g2
S'36139'
p559
sg4
S'1980'
p560
sg6
S'0d6e895df1b7595abf750b57e447465f'
p561
sg8
S'xx752e771c350b69da35c8a96c300edc5d'
p562
sg10
S'xx7c11889d568b644595fc506dc352723e'
p563
sg12
S'xx70f16fb312003f3874f7aef96c54c83f'
p564
sg14
S'Mozilla/5.0 (Linux; Android 4.4.4; A31 Build/KTU84P) AppleWebKit/537.36 (KHTML, like Gecko) Version/4.0 Chrome/37.0.0.0 Mobile MQQBrowser/6.8 TBS/036849 Safari/537.36 MicroMessenger/6.3.27.880 NetType/cmnet Language/zh_CN'
p565
sg16
S'2c4c2305c61441fecaf04532d2f67b82'
p566
sa(dp567
g2
S'5857'
p568
sg4
S'1985'
p569
sg6
S'd66c95a4c1c7aa3ad1fe1162a8491ff3'
p570
sg8
S'xx261ae21c73348075fa6bfe145803453e'
p571
sg10
S'xx7c11889d568b644595fc506dc352723e'
p572
sg12
S'xx70f16fb312003f3874f7aef96c54c83f'
p573
sg14
S'Mozilla/5.0 (Linux; Android 4.4.4; A31 Build/KTU84P) AppleWebKit/537.36 (KHTML, like Gecko) Version/4.0 Chrome/37.0.0.0 Mobile MQQBrowser/6.8 TBS/036849 Safari/537.36 MicroMessenger/6.3.27.880 NetType/WIFI Language/zh_CN'
p574
sg16
S'd7da8665b21ec6015c4745e4e18491e2'
p575
sa(dp576
g2
S'5857'
p577
sg4
S'2001'
p578
sg6
S'd66c95a4c1c7aa3ad1fe1162a8491ff3'
p579
sg8
S'xx261ae21c73348075fa6bfe145803453e'
p580
sg10
S'xx7c11889d568b644595fc506dc352723e'
p581
sg12
S'xx70f16fb312003f3874f7aef96c54c83f'
p582
sg14
S'Mozilla/5.0 (Linux; Android 4.4.4; A31 Build/KTU84P) AppleWebKit/537.36 (KHTML, like Gecko) Version/4.0 Chrome/37.0.0.0 Mobile MQQBrowser/6.8 TBS/036849 Safari/537.36 MicroMessenger/6.3.27.880 NetType/WIFI Language/zh_CN'
p583
sg16
S'd7da8665b21ec6015c4745e4e18491e2'
p584
sa(dp585
g2
S'43963'
p586
sg4
S'2009'
p587
sg6
S'aa155f533f5474bab0ae91c7baaed32a'
p588
sg8
S'xx752e771c350b69da35c8a96c300edc5d'
p589
sg10
S'xx7c11889d568b644595fc506dc352723e'
p590
sg12
S'xx70f16fb312003f3874f7aef96c54c83f'
p591
sg14
S'Mozilla/5.0 (Linux; Android 4.4.4; A31 Build/KTU84P) AppleWebKit/537.36 (KHTML, like Gecko) Version/4.0 Chrome/37.0.0.0 Mobile MQQBrowser/6.8 TBS/036849 Safari/537.36 MicroMessenger/6.3.27.880 NetType/cmnet Language/zh_CN'
p592
sg16
S'2c4c2305c61441fecaf04532d2f67b82'
p593
sa(dp594
g2
S'5857'
p595
sg4
S'2016'
p596
sg6
S'd66c95a4c1c7aa3ad1fe1162a8491ff3'
p597
sg8
S'xx261ae21c73348075fa6bfe145803453e'
p598
sg10
S'xx7c11889d568b644595fc506dc352723e'
p599
sg12
S'xx70f16fb312003f3874f7aef96c54c83f'
p600
sg14
S'Mozilla/5.0 (Linux; Android 4.4.4; A31 Build/KTU84P) AppleWebKit/537.36 (KHTML, like Gecko) Version/4.0 Chrome/37.0.0.0 Mobile MQQBrowser/6.8 TBS/036849 Safari/537.36 MicroMessenger/6.3.27.880 NetType/WIFI Language/zh_CN'
p601
sg16
S'd7da8665b21ec6015c4745e4e18491e2'
p602
sa(dp603
g2
S'43963'
p604
sg4
S'2022'
p605
sg6
S'aa155f533f5474bab0ae91c7baaed32a'
p606
sg8
S'xx752e771c350b69da35c8a96c300edc5d'
p607
sg10
S'xx7c11889d568b644595fc506dc352723e'
p608
sg12
S'xx70f16fb312003f3874f7aef96c54c83f'
p609
sg14
S'Mozilla/5.0 (Linux; Android 4.4.4; A31 Build/KTU84P) AppleWebKit/537.36 (KHTML, like Gecko) Version/4.0 Chrome/37.0.0.0 Mobile MQQBrowser/6.8 TBS/036849 Safari/537.36 MicroMessenger/6.3.27.880 NetType/cmnet Language/zh_CN'
p610
sg16
S'2c4c2305c61441fecaf04532d2f67b82'
p611
sa(dp612
g2
S'5857'
p613
sg4
S'2032'
p614
sg6
S'd66c95a4c1c7aa3ad1fe1162a8491ff3'
p615
sg8
S'xx261ae21c73348075fa6bfe145803453e'
p616
sg10
S'xx7c11889d568b644595fc506dc352723e'
p617
sg12
S'xx70f16fb312003f3874f7aef96c54c83f'
p618
sg14
S'Mozilla/5.0 (Linux; Android 4.4.4; A31 Build/KTU84P) AppleWebKit/537.36 (KHTML, like Gecko) Version/4.0 Chrome/37.0.0.0 Mobile MQQBrowser/6.8 TBS/036849 Safari/537.36 MicroMessenger/6.3.27.880 NetType/WIFI Language/zh_CN'
p619
sg16
S'd7da8665b21ec6015c4745e4e18491e2'
p620
sa(dp621
g2
S'43963'
p622
sg4
S'2037'
p623
sg6
S'aa155f533f5474bab0ae91c7baaed32a'
p624
sg8
S'xx752e771c350b69da35c8a96c300edc5d'
p625
sg10
S'xx7c11889d568b644595fc506dc352723e'
p626
sg12
S'xx70f16fb312003f3874f7aef96c54c83f'
p627
sg14
S'Mozilla/5.0 (Linux; Android 4.4.4; A31 Build/KTU84P) AppleWebKit/537.36 (KHTML, like Gecko) Version/4.0 Chrome/37.0.0.0 Mobile MQQBrowser/6.8 TBS/036849 Safari/537.36 MicroMessenger/6.3.27.880 NetType/cmnet Language/zh_CN'
p628
sg16
S'2c4c2305c61441fecaf04532d2f67b82'
p629
sa(dp630
g2
S'5857'
p631
sg4
S'2044'
p632
sg6
S'd66c95a4c1c7aa3ad1fe1162a8491ff3'
p633
sg8
S'xx261ae21c73348075fa6bfe145803453e'
p634
sg10
S'xx7c11889d568b644595fc506dc352723e'
p635
sg12
S'xx70f16fb312003f3874f7aef96c54c83f'
p636
sg14
S'Mozilla/5.0 (Linux; Android 4.4.4; A31 Build/KTU84P) AppleWebKit/537.36 (KHTML, like Gecko) Version/4.0 Chrome/37.0.0.0 Mobile MQQBrowser/6.8 TBS/036849 Safari/537.36 MicroMessenger/6.3.27.880 NetType/WIFI Language/zh_CN'
p637
sg16
S'd7da8665b21ec6015c4745e4e18491e2'
p638
sa(dp639
g2
S'5857'
p640
sg4
S'2058'
p641
sg6
S'd66c95a4c1c7aa3ad1fe1162a8491ff3'
p642
sg8
S'xx261ae21c73348075fa6bfe145803453e'
p643
sg10
S'xx7c11889d568b644595fc506dc352723e'
p644
sg12
S'xx70f16fb312003f3874f7aef96c54c83f'
p645
sg14
S'Mozilla/5.0 (Linux; Android 4.4.4; A31 Build/KTU84P) AppleWebKit/537.36 (KHTML, like Gecko) Version/4.0 Chrome/37.0.0.0 Mobile MQQBrowser/6.8 TBS/036849 Safari/537.36 MicroMessenger/6.3.27.880 NetType/WIFI Language/zh_CN'
p646
sg16
S'd7da8665b21ec6015c4745e4e18491e2'
p647
sa(dp648
g2
S'43963'
p649
sg4
S'2059'
p650
sg6
S'aa155f533f5474bab0ae91c7baaed32a'
p651
sg8
S'xx752e771c350b69da35c8a96c300edc5d'
p652
sg10
S'xx7c11889d568b644595fc506dc352723e'
p653
sg12
S'xx70f16fb312003f3874f7aef96c54c83f'
p654
sg14
S'Mozilla/5.0 (Linux; Android 4.4.4; A31 Build/KTU84P) AppleWebKit/537.36 (KHTML, like Gecko) Version/4.0 Chrome/37.0.0.0 Mobile MQQBrowser/6.8 TBS/036849 Safari/537.36 MicroMessenger/6.3.27.880 NetType/cmnet Language/zh_CN'
p655
sg16
S'2c4c2305c61441fecaf04532d2f67b82'
p656
sa(dp657
g2
S'43963'
p658
sg4
S'2069'
p659
sg6
S'aa155f533f5474bab0ae91c7baaed32a'
p660
sg8
S'xx752e771c350b69da35c8a96c300edc5d'
p661
sg10
S'xx7c11889d568b644595fc506dc352723e'
p662
sg12
S'xx70f16fb312003f3874f7aef96c54c83f'
p663
sg14
S'Mozilla/5.0 (Linux; Android 4.4.4; A31 Build/KTU84P) AppleWebKit/537.36 (KHTML, like Gecko) Version/4.0 Chrome/37.0.0.0 Mobile MQQBrowser/6.8 TBS/036849 Safari/537.36 MicroMessenger/6.3.27.880 NetType/cmnet Language/zh_CN'
p664
sg16
S'2c4c2305c61441fecaf04532d2f67b82'
p665
sa(dp666
g2
S'5857'
p667
sg4
S'2072'
p668
sg6
S'd66c95a4c1c7aa3ad1fe1162a8491ff3'
p669
sg8
S'xx261ae21c73348075fa6bfe145803453e'
p670
sg10
S'xx7c11889d568b644595fc506dc352723e'
p671
sg12
S'xx70f16fb312003f3874f7aef96c54c83f'
p672
sg14
S'Mozilla/5.0 (Linux; Android 4.4.4; A31 Build/KTU84P) AppleWebKit/537.36 (KHTML, like Gecko) Version/4.0 Chrome/37.0.0.0 Mobile MQQBrowser/6.8 TBS/036849 Safari/537.36 MicroMessenger/6.3.27.880 NetType/WIFI Language/zh_CN'
p673
sg16
S'd7da8665b21ec6015c4745e4e18491e2'
p674
sa(dp675
g2
S'5857'
p676
sg4
S'2085'
p677
sg6
S'd66c95a4c1c7aa3ad1fe1162a8491ff3'
p678
sg8
S'xx261ae21c73348075fa6bfe145803453e'
p679
sg10
S'xx7c11889d568b644595fc506dc352723e'
p680
sg12
S'xx70f16fb312003f3874f7aef96c54c83f'
p681
sg14
S'Mozilla/5.0 (Linux; Android 4.4.4; A31 Build/KTU84P) AppleWebKit/537.36 (KHTML, like Gecko) Version/4.0 Chrome/37.0.0.0 Mobile MQQBrowser/6.8 TBS/036849 Safari/537.36 MicroMessenger/6.3.27.880 NetType/WIFI Language/zh_CN'
p682
sg16
S'd7da8665b21ec6015c4745e4e18491e2'
p683
sa(dp684
g2
S'5857'
p685
sg4
S'2095'
p686
sg6
S'd66c95a4c1c7aa3ad1fe1162a8491ff3'
p687
sg8
S'xx261ae21c73348075fa6bfe145803453e'
p688
sg10
S'xx7c11889d568b644595fc506dc352723e'
p689
sg12
S'xx70f16fb312003f3874f7aef96c54c83f'
p690
sg14
S'Mozilla/5.0 (Linux; Android 4.4.4; A31 Build/KTU84P) AppleWebKit/537.36 (KHTML, like Gecko) Version/4.0 Chrome/37.0.0.0 Mobile MQQBrowser/6.8 TBS/036849 Safari/537.36 MicroMessenger/6.3.27.880 NetType/WIFI Language/zh_CN'
p691
sg16
S'd7da8665b21ec6015c4745e4e18491e2'
p692
sa(dp693
g2
S'5857'
p694
sg4
S'2107'
p695
sg6
S'd66c95a4c1c7aa3ad1fe1162a8491ff3'
p696
sg8
S'xx261ae21c73348075fa6bfe145803453e'
p697
sg10
S'xx7c11889d568b644595fc506dc352723e'
p698
sg12
S'xx70f16fb312003f3874f7aef96c54c83f'
p699
sg14
S'Mozilla/5.0 (Linux; Android 4.4.4; A31 Build/KTU84P) AppleWebKit/537.36 (KHTML, like Gecko) Version/4.0 Chrome/37.0.0.0 Mobile MQQBrowser/6.8 TBS/036849 Safari/537.36 MicroMessenger/6.3.27.880 NetType/WIFI Language/zh_CN'
p700
sg16
S'd7da8665b21ec6015c4745e4e18491e2'
p701
sa(dp702
g2
S'5857'
p703
sg4
S'2115'
p704
sg6
S'd66c95a4c1c7aa3ad1fe1162a8491ff3'
p705
sg8
S'xx261ae21c73348075fa6bfe145803453e'
p706
sg10
S'xx7c11889d568b644595fc506dc352723e'
p707
sg12
S'xx70f16fb312003f3874f7aef96c54c83f'
p708
sg14
S'Mozilla/5.0 (Linux; Android 4.4.4; A31 Build/KTU84P) AppleWebKit/537.36 (KHTML, like Gecko) Version/4.0 Chrome/37.0.0.0 Mobile MQQBrowser/6.8 TBS/036849 Safari/537.36 MicroMessenger/6.3.27.880 NetType/WIFI Language/zh_CN'
p709
sg16
S'd7da8665b21ec6015c4745e4e18491e2'
p710
sa(dp711
g2
S'5857'
p712
sg4
S'2129'
p713
sg6
S'd66c95a4c1c7aa3ad1fe1162a8491ff3'
p714
sg8
S'xx261ae21c73348075fa6bfe145803453e'
p715
sg10
S'xx7c11889d568b644595fc506dc352723e'
p716
sg12
S'xx70f16fb312003f3874f7aef96c54c83f'
p717
sg14
S'Mozilla/5.0 (Linux; Android 4.4.4; A31 Build/KTU84P) AppleWebKit/537.36 (KHTML, like Gecko) Version/4.0 Chrome/37.0.0.0 Mobile MQQBrowser/6.8 TBS/036849 Safari/537.36 MicroMessenger/6.3.27.880 NetType/WIFI Language/zh_CN'
p718
sg16
S'd7da8665b21ec6015c4745e4e18491e2'
p719
sa(dp720
g2
S'5857'
p721
sg4
S'2138'
p722
sg6
S'd66c95a4c1c7aa3ad1fe1162a8491ff3'
p723
sg8
S'xx261ae21c73348075fa6bfe145803453e'
p724
sg10
S'xx7c11889d568b644595fc506dc352723e'
p725
sg12
S'xx70f16fb312003f3874f7aef96c54c83f'
p726
sg14
S'Mozilla/5.0 (Linux; Android 4.4.4; A31 Build/KTU84P) AppleWebKit/537.36 (KHTML, like Gecko) Version/4.0 Chrome/37.0.0.0 Mobile MQQBrowser/6.8 TBS/036849 Safari/537.36 MicroMessenger/6.3.27.880 NetType/WIFI Language/zh_CN'
p727
sg16
S'd7da8665b21ec6015c4745e4e18491e2'
p728
sa(dp729
g2
S'5857'
p730
sg4
S'2171'
p731
sg6
S'd66c95a4c1c7aa3ad1fe1162a8491ff3'
p732
sg8
S'xx261ae21c73348075fa6bfe145803453e'
p733
sg10
S'xx7c11889d568b644595fc506dc352723e'
p734
sg12
S'xx70f16fb312003f3874f7aef96c54c83f'
p735
sg14
S'Mozilla/5.0 (Linux; Android 4.4.4; A31 Build/KTU84P) AppleWebKit/537.36 (KHTML, like Gecko) Version/4.0 Chrome/37.0.0.0 Mobile MQQBrowser/6.8 TBS/036849 Safari/537.36 MicroMessenger/6.3.27.880 NetType/WIFI Language/zh_CN'
p736
sg16
S'd7da8665b21ec6015c4745e4e18491e2'
p737
sa(dp738
g2
S'5857'
p739
sg4
S'2187'
p740
sg6
S'd66c95a4c1c7aa3ad1fe1162a8491ff3'
p741
sg8
S'xx261ae21c73348075fa6bfe145803453e'
p742
sg10
S'xx7c11889d568b644595fc506dc352723e'
p743
sg12
S'xx70f16fb312003f3874f7aef96c54c83f'
p744
sg14
S'Mozilla/5.0 (Linux; Android 4.4.4; A31 Build/KTU84P) AppleWebKit/537.36 (KHTML, like Gecko) Version/4.0 Chrome/37.0.0.0 Mobile MQQBrowser/6.8 TBS/036849 Safari/537.36 MicroMessenger/6.3.27.880 NetType/WIFI Language/zh_CN'
p745
sg16
S'd7da8665b21ec6015c4745e4e18491e2'
p746
sa(dp747
g2
S'5857'
p748
sg4
S'2206'
p749
sg6
S'd66c95a4c1c7aa3ad1fe1162a8491ff3'
p750
sg8
S'xx261ae21c73348075fa6bfe145803453e'
p751
sg10
S'xx7c11889d568b644595fc506dc352723e'
p752
sg12
S'xx70f16fb312003f3874f7aef96c54c83f'
p753
sg14
S'Mozilla/5.0 (Linux; Android 4.4.4; A31 Build/KTU84P) AppleWebKit/537.36 (KHTML, like Gecko) Version/4.0 Chrome/37.0.0.0 Mobile MQQBrowser/6.8 TBS/036849 Safari/537.36 MicroMessenger/6.3.27.880 NetType/WIFI Language/zh_CN'
p754
sg16
S'd7da8665b21ec6015c4745e4e18491e2'
p755
sa(dp756
g2
S'5857'
p757
sg4
S'2224'
p758
sg6
S'd66c95a4c1c7aa3ad1fe1162a8491ff3'
p759
sg8
S'xx261ae21c73348075fa6bfe145803453e'
p760
sg10
S'xx7c11889d568b644595fc506dc352723e'
p761
sg12
S'xx70f16fb312003f3874f7aef96c54c83f'
p762
sg14
S'Mozilla/5.0 (Linux; Android 4.4.4; A31 Build/KTU84P) AppleWebKit/537.36 (KHTML, like Gecko) Version/4.0 Chrome/37.0.0.0 Mobile MQQBrowser/6.8 TBS/036849 Safari/537.36 MicroMessenger/6.3.27.880 NetType/WIFI Language/zh_CN'
p763
sg16
S'd7da8665b21ec6015c4745e4e18491e2'
p764
sa(dp765
g2
S'5857'
p766
sg4
S'2245'
p767
sg6
S'd66c95a4c1c7aa3ad1fe1162a8491ff3'
p768
sg8
S'xx261ae21c73348075fa6bfe145803453e'
p769
sg10
S'xx7c11889d568b644595fc506dc352723e'
p770
sg12
S'xx70f16fb312003f3874f7aef96c54c83f'
p771
sg14
S'Mozilla/5.0 (Linux; Android 4.4.4; A31 Build/KTU84P) AppleWebKit/537.36 (KHTML, like Gecko) Version/4.0 Chrome/37.0.0.0 Mobile MQQBrowser/6.8 TBS/036849 Safari/537.36 MicroMessenger/6.3.27.880 NetType/WIFI Language/zh_CN'
p772
sg16
S'd7da8665b21ec6015c4745e4e18491e2'
p773
sa(dp774
g2
S'5857'
p775
sg4
S'2282'
p776
sg6
S'd66c95a4c1c7aa3ad1fe1162a8491ff3'
p777
sg8
S'xx261ae21c73348075fa6bfe145803453e'
p778
sg10
S'xx7c11889d568b644595fc506dc352723e'
p779
sg12
S'xx70f16fb312003f3874f7aef96c54c83f'
p780
sg14
S'Mozilla/5.0 (Linux; Android 4.4.4; A31 Build/KTU84P) AppleWebKit/537.36 (KHTML, like Gecko) Version/4.0 Chrome/37.0.0.0 Mobile MQQBrowser/6.8 TBS/036849 Safari/537.36 MicroMessenger/6.3.27.880 NetType/WIFI Language/zh_CN'
p781
sg16
S'd7da8665b21ec6015c4745e4e18491e2'
p782
sa(dp783
g2
S'5857'
p784
sg4
S'2295'
p785
sg6
S'd66c95a4c1c7aa3ad1fe1162a8491ff3'
p786
sg8
S'xx261ae21c73348075fa6bfe145803453e'
p787
sg10
S'xx7c11889d568b644595fc506dc352723e'
p788
sg12
S'xx70f16fb312003f3874f7aef96c54c83f'
p789
sg14
S'Mozilla/5.0 (Linux; Android 4.4.4; A31 Build/KTU84P) AppleWebKit/537.36 (KHTML, like Gecko) Version/4.0 Chrome/37.0.0.0 Mobile MQQBrowser/6.8 TBS/036849 Safari/537.36 MicroMessenger/6.3.27.880 NetType/WIFI Language/zh_CN'
p790
sg16
S'd7da8665b21ec6015c4745e4e18491e2'
p791
sa(dp792
g2
S'5857'
p793
sg4
S'2310'
p794
sg6
S'd66c95a4c1c7aa3ad1fe1162a8491ff3'
p795
sg8
S'xx261ae21c73348075fa6bfe145803453e'
p796
sg10
S'xx7c11889d568b644595fc506dc352723e'
p797
sg12
S'xx70f16fb312003f3874f7aef96c54c83f'
p798
sg14
S'Mozilla/5.0 (Linux; Android 4.4.4; A31 Build/KTU84P) AppleWebKit/537.36 (KHTML, like Gecko) Version/4.0 Chrome/37.0.0.0 Mobile MQQBrowser/6.8 TBS/036849 Safari/537.36 MicroMessenger/6.3.27.880 NetType/WIFI Language/zh_CN'
p799
sg16
S'd7da8665b21ec6015c4745e4e18491e2'
p800
sa(dp801
g2
S'5857'
p802
sg4
S'2325'
p803
sg6
S'd66c95a4c1c7aa3ad1fe1162a8491ff3'
p804
sg8
S'xx261ae21c73348075fa6bfe145803453e'
p805
sg10
S'xx7c11889d568b644595fc506dc352723e'
p806
sg12
S'xx70f16fb312003f3874f7aef96c54c83f'
p807
sg14
S'Mozilla/5.0 (Linux; Android 4.4.4; A31 Build/KTU84P) AppleWebKit/537.36 (KHTML, like Gecko) Version/4.0 Chrome/37.0.0.0 Mobile MQQBrowser/6.8 TBS/036849 Safari/537.36 MicroMessenger/6.3.27.880 NetType/WIFI Language/zh_CN'
p808
sg16
S'd7da8665b21ec6015c4745e4e18491e2'
p809
sa(dp810
g2
S'5857'
p811
sg4
S'2332'
p812
sg6
S'd66c95a4c1c7aa3ad1fe1162a8491ff3'
p813
sg8
S'xx261ae21c73348075fa6bfe145803453e'
p814
sg10
S'xx7c11889d568b644595fc506dc352723e'
p815
sg12
S'xx70f16fb312003f3874f7aef96c54c83f'
p816
sg14
S'Mozilla/5.0 (Linux; Android 4.4.4; A31 Build/KTU84P) AppleWebKit/537.36 (KHTML, like Gecko) Version/4.0 Chrome/37.0.0.0 Mobile MQQBrowser/6.8 TBS/036849 Safari/537.36 MicroMessenger/6.3.27.880 NetType/WIFI Language/zh_CN'
p817
sg16
S'd7da8665b21ec6015c4745e4e18491e2'
p818
sa(dp819
g2
S'5857'
p820
sg4
S'2345'
p821
sg6
S'd66c95a4c1c7aa3ad1fe1162a8491ff3'
p822
sg8
S'xx261ae21c73348075fa6bfe145803453e'
p823
sg10
S'xx7c11889d568b644595fc506dc352723e'
p824
sg12
S'xx70f16fb312003f3874f7aef96c54c83f'
p825
sg14
S'Mozilla/5.0 (Linux; Android 4.4.4; A31 Build/KTU84P) AppleWebKit/537.36 (KHTML, like Gecko) Version/4.0 Chrome/37.0.0.0 Mobile MQQBrowser/6.8 TBS/036849 Safari/537.36 MicroMessenger/6.3.27.880 NetType/WIFI Language/zh_CN'
p826
sg16
S'd7da8665b21ec6015c4745e4e18491e2'
p827
sa(dp828
g2
S'5857'
p829
sg4
S'2361'
p830
sg6
S'd66c95a4c1c7aa3ad1fe1162a8491ff3'
p831
sg8
S'xx261ae21c73348075fa6bfe145803453e'
p832
sg10
S'xx7c11889d568b644595fc506dc352723e'
p833
sg12
S'xx70f16fb312003f3874f7aef96c54c83f'
p834
sg14
S'Mozilla/5.0 (Linux; Android 4.4.4; A31 Build/KTU84P) AppleWebKit/537.36 (KHTML, like Gecko) Version/4.0 Chrome/37.0.0.0 Mobile MQQBrowser/6.8 TBS/036849 Safari/537.36 MicroMessenger/6.3.27.880 NetType/WIFI Language/zh_CN'
p835
sg16
S'd7da8665b21ec6015c4745e4e18491e2'
p836
sa(dp837
g2
S'5857'
p838
sg4
S'2384'
p839
sg6
S'd66c95a4c1c7aa3ad1fe1162a8491ff3'
p840
sg8
S'xx261ae21c73348075fa6bfe145803453e'
p841
sg10
S'xx7c11889d568b644595fc506dc352723e'
p842
sg12
S'xx70f16fb312003f3874f7aef96c54c83f'
p843
sg14
S'Mozilla/5.0 (Linux; Android 4.4.4; A31 Build/KTU84P) AppleWebKit/537.36 (KHTML, like Gecko) Version/4.0 Chrome/37.0.0.0 Mobile MQQBrowser/6.8 TBS/036849 Safari/537.36 MicroMessenger/6.3.27.880 NetType/WIFI Language/zh_CN'
p844
sg16
S'd7da8665b21ec6015c4745e4e18491e2'
p845
sa(dp846
g2
S'5857'
p847
sg4
S'2400'
p848
sg6
S'd66c95a4c1c7aa3ad1fe1162a8491ff3'
p849
sg8
S'xx261ae21c73348075fa6bfe145803453e'
p850
sg10
S'xx7c11889d568b644595fc506dc352723e'
p851
sg12
S'xx70f16fb312003f3874f7aef96c54c83f'
p852
sg14
S'Mozilla/5.0 (Linux; Android 4.4.4; A31 Build/KTU84P) AppleWebKit/537.36 (KHTML, like Gecko) Version/4.0 Chrome/37.0.0.0 Mobile MQQBrowser/6.8 TBS/036849 Safari/537.36 MicroMessenger/6.3.27.880 NetType/WIFI Language/zh_CN'
p853
sg16
S'd7da8665b21ec6015c4745e4e18491e2'
p854
sa(dp855
g2
S'5857'
p856
sg4
S'2423'
p857
sg6
S'd66c95a4c1c7aa3ad1fe1162a8491ff3'
p858
sg8
S'xx261ae21c73348075fa6bfe145803453e'
p859
sg10
S'xx7c11889d568b644595fc506dc352723e'
p860
sg12
S'xx70f16fb312003f3874f7aef96c54c83f'
p861
sg14
S'Mozilla/5.0 (Linux; Android 4.4.4; A31 Build/KTU84P) AppleWebKit/537.36 (KHTML, like Gecko) Version/4.0 Chrome/37.0.0.0 Mobile MQQBrowser/6.8 TBS/036849 Safari/537.36 MicroMessenger/6.3.27.880 NetType/WIFI Language/zh_CN'
p862
sg16
S'd7da8665b21ec6015c4745e4e18491e2'
p863
sa(dp864
g2
S'5857'
p865
sg4
S'2446'
p866
sg6
S'd66c95a4c1c7aa3ad1fe1162a8491ff3'
p867
sg8
S'xx261ae21c73348075fa6bfe145803453e'
p868
sg10
S'xx7c11889d568b644595fc506dc352723e'
p869
sg12
S'xx70f16fb312003f3874f7aef96c54c83f'
p870
sg14
S'Mozilla/5.0 (Linux; Android 4.4.4; A31 Build/KTU84P) AppleWebKit/537.36 (KHTML, like Gecko) Version/4.0 Chrome/37.0.0.0 Mobile MQQBrowser/6.8 TBS/036849 Safari/537.36 MicroMessenger/6.3.27.880 NetType/WIFI Language/zh_CN'
p871
sg16
S'd7da8665b21ec6015c4745e4e18491e2'
p872
sa(dp873
g2
S'5857'
p874
sg4
S'2463'
p875
sg6
S'd66c95a4c1c7aa3ad1fe1162a8491ff3'
p876
sg8
S'xx261ae21c73348075fa6bfe145803453e'
p877
sg10
S'xx7c11889d568b644595fc506dc352723e'
p878
sg12
S'xx70f16fb312003f3874f7aef96c54c83f'
p879
sg14
S'Mozilla/5.0 (Linux; Android 4.4.4; A31 Build/KTU84P) AppleWebKit/537.36 (KHTML, like Gecko) Version/4.0 Chrome/37.0.0.0 Mobile MQQBrowser/6.8 TBS/036849 Safari/537.36 MicroMessenger/6.3.27.880 NetType/WIFI Language/zh_CN'
p880
sg16
S'd7da8665b21ec6015c4745e4e18491e2'
p881
sa(dp882
g2
S'5857'
p883
sg4
S'2486'
p884
sg6
S'd66c95a4c1c7aa3ad1fe1162a8491ff3'
p885
sg8
S'xx261ae21c73348075fa6bfe145803453e'
p886
sg10
S'xx7c11889d568b644595fc506dc352723e'
p887
sg12
S'xx70f16fb312003f3874f7aef96c54c83f'
p888
sg14
S'Mozilla/5.0 (Linux; Android 4.4.4; A31 Build/KTU84P) AppleWebKit/537.36 (KHTML, like Gecko) Version/4.0 Chrome/37.0.0.0 Mobile MQQBrowser/6.8 TBS/036849 Safari/537.36 MicroMessenger/6.3.27.880 NetType/WIFI Language/zh_CN'
p889
sg16
S'd7da8665b21ec6015c4745e4e18491e2'
p890
sa(dp891
g2
S'5857'
p892
sg4
S'2508'
p893
sg6
S'd66c95a4c1c7aa3ad1fe1162a8491ff3'
p894
sg8
S'xx261ae21c73348075fa6bfe145803453e'
p895
sg10
S'xx7c11889d568b644595fc506dc352723e'
p896
sg12
S'xx70f16fb312003f3874f7aef96c54c83f'
p897
sg14
S'Mozilla/5.0 (Linux; Android 4.4.4; A31 Build/KTU84P) AppleWebKit/537.36 (KHTML, like Gecko) Version/4.0 Chrome/37.0.0.0 Mobile MQQBrowser/6.8 TBS/036849 Safari/537.36 MicroMessenger/6.3.27.880 NetType/WIFI Language/zh_CN'
p898
sg16
S'd7da8665b21ec6015c4745e4e18491e2'
p899
sa(dp900
g2
S'5857'
p901
sg4
S'2531'
p902
sg6
S'd66c95a4c1c7aa3ad1fe1162a8491ff3'
p903
sg8
S'xx261ae21c73348075fa6bfe145803453e'
p904
sg10
S'xx7c11889d568b644595fc506dc352723e'
p905
sg12
S'xx70f16fb312003f3874f7aef96c54c83f'
p906
sg14
S'Mozilla/5.0 (Linux; Android 4.4.4; A31 Build/KTU84P) AppleWebKit/537.36 (KHTML, like Gecko) Version/4.0 Chrome/37.0.0.0 Mobile MQQBrowser/6.8 TBS/036849 Safari/537.36 MicroMessenger/6.3.27.880 NetType/WIFI Language/zh_CN'
p907
sg16
S'd7da8665b21ec6015c4745e4e18491e2'
p908
sa(dp909
g2
S'5857'
p910
sg4
S'2556'
p911
sg6
S'd66c95a4c1c7aa3ad1fe1162a8491ff3'
p912
sg8
S'xx261ae21c73348075fa6bfe145803453e'
p913
sg10
S'xx7c11889d568b644595fc506dc352723e'
p914
sg12
S'xx70f16fb312003f3874f7aef96c54c83f'
p915
sg14
S'Mozilla/5.0 (Linux; Android 4.4.4; A31 Build/KTU84P) AppleWebKit/537.36 (KHTML, like Gecko) Version/4.0 Chrome/37.0.0.0 Mobile MQQBrowser/6.8 TBS/036849 Safari/537.36 MicroMessenger/6.3.27.880 NetType/WIFI Language/zh_CN'
p916
sg16
S'd7da8665b21ec6015c4745e4e18491e2'
p917
sa(dp918
g2
S'5857'
p919
sg4
S'2582'
p920
sg6
S'd66c95a4c1c7aa3ad1fe1162a8491ff3'
p921
sg8
S'xx261ae21c73348075fa6bfe145803453e'
p922
sg10
S'xx7c11889d568b644595fc506dc352723e'
p923
sg12
S'xx70f16fb312003f3874f7aef96c54c83f'
p924
sg14
S'Mozilla/5.0 (Linux; Android 4.4.4; A31 Build/KTU84P) AppleWebKit/537.36 (KHTML, like Gecko) Version/4.0 Chrome/37.0.0.0 Mobile MQQBrowser/6.8 TBS/036849 Safari/537.36 MicroMessenger/6.3.27.880 NetType/WIFI Language/zh_CN'
p925
sg16
S'd7da8665b21ec6015c4745e4e18491e2'
p926
sa(dp927
g2
S'36139'
p928
sg4
S'2593'
p929
sg6
S'0d6e895df1b7595abf750b57e447465f'
p930
sg8
S'xx752e771c350b69da35c8a96c300edc5d'
p931
sg10
S'xx7c11889d568b644595fc506dc352723e'
p932
sg12
S'xx70f16fb312003f3874f7aef96c54c83f'
p933
sg14
S'Mozilla/5.0 (Linux; Android 4.4.4; A31 Build/KTU84P) AppleWebKit/537.36 (KHTML, like Gecko) Version/4.0 Chrome/37.0.0.0 Mobile MQQBrowser/6.8 TBS/036849 Safari/537.36 MicroMessenger/6.3.27.880 NetType/cmnet Language/zh_CN'
p934
sg16
S'2c4c2305c61441fecaf04532d2f67b82'
p935
sa(dp936
g2
S'36139'
p937
sg4
S'2611'
p938
sg6
S'0d6e895df1b7595abf750b57e447465f'
p939
sg8
S'xx752e771c350b69da35c8a96c300edc5d'
p940
sg10
S'xx7c11889d568b644595fc506dc352723e'
p941
sg12
S'xx70f16fb312003f3874f7aef96c54c83f'
p942
sg14
S'Mozilla/5.0 (Linux; Android 4.4.4; A31 Build/KTU84P) AppleWebKit/537.36 (KHTML, like Gecko) Version/4.0 Chrome/37.0.0.0 Mobile MQQBrowser/6.8 TBS/036849 Safari/537.36 MicroMessenger/6.3.27.880 NetType/cmnet Language/zh_CN'
p943
sg16
S'2c4c2305c61441fecaf04532d2f67b82'
p944
sa(dp945
g2
S'5857'
p946
sg4
S'2616'
p947
sg6
S'd66c95a4c1c7aa3ad1fe1162a8491ff3'
p948
sg8
S'xx261ae21c73348075fa6bfe145803453e'
p949
sg10
S'xx7c11889d568b644595fc506dc352723e'
p950
sg12
S'xx70f16fb312003f3874f7aef96c54c83f'
p951
sg14
S'Mozilla/5.0 (Linux; Android 4.4.4; A31 Build/KTU84P) AppleWebKit/537.36 (KHTML, like Gecko) Version/4.0 Chrome/37.0.0.0 Mobile MQQBrowser/6.8 TBS/036849 Safari/537.36 MicroMessenger/6.3.27.880 NetType/WIFI Language/zh_CN'
p952
sg16
S'd7da8665b21ec6015c4745e4e18491e2'
p953
sa(dp954
g2
S'5857'
p955
sg4
S'2635'
p956
sg6
S'd66c95a4c1c7aa3ad1fe1162a8491ff3'
p957
sg8
S'xx261ae21c73348075fa6bfe145803453e'
p958
sg10
S'xx7c11889d568b644595fc506dc352723e'
p959
sg12
S'xx70f16fb312003f3874f7aef96c54c83f'
p960
sg14
S'Mozilla/5.0 (Linux; Android 4.4.4; A31 Build/KTU84P) AppleWebKit/537.36 (KHTML, like Gecko) Version/4.0 Chrome/37.0.0.0 Mobile MQQBrowser/6.8 TBS/036849 Safari/537.36 MicroMessenger/6.3.27.880 NetType/WIFI Language/zh_CN'
p961
sg16
S'd7da8665b21ec6015c4745e4e18491e2'
p962
sa(dp963
g2
S'5857'
p964
sg4
S'2657'
p965
sg6
S'd66c95a4c1c7aa3ad1fe1162a8491ff3'
p966
sg8
S'xx261ae21c73348075fa6bfe145803453e'
p967
sg10
S'xx7c11889d568b644595fc506dc352723e'
p968
sg12
S'xx70f16fb312003f3874f7aef96c54c83f'
p969
sg14
S'Mozilla/5.0 (Linux; Android 4.4.4; A31 Build/KTU84P) AppleWebKit/537.36 (KHTML, like Gecko) Version/4.0 Chrome/37.0.0.0 Mobile MQQBrowser/6.8 TBS/036849 Safari/537.36 MicroMessenger/6.3.27.880 NetType/WIFI Language/zh_CN'
p970
sg16
S'd7da8665b21ec6015c4745e4e18491e2'
p971
sa(dp972
g2
S'42040'
p973
sg4
S'2674'
p974
sg6
S'ead072d55f4ed0a24f8443fc7e7f01a9'
p975
sg8
S'xx261ae21c73348075fa6bfe145803453e'
p976
sg10
S'xx7c11889d568b644595fc506dc352723e'
p977
sg12
S'xx70f16fb312003f3874f7aef96c54c83f'
p978
sg14
S'Mozilla/5.0 (Linux; Android 4.4.4; A31 Build/KTU84P) AppleWebKit/537.36 (KHTML, like Gecko) Version/4.0 Chrome/37.0.0.0 Mobile MQQBrowser/6.8 TBS/036849 Safari/537.36 MicroMessenger/6.3.27.880 NetType/WIFI Language/zh_CN'
p979
sg16
S'd7da8665b21ec6015c4745e4e18491e2'
p980
sa(dp981
g2
S'5857'
p982
sg4
S'2677'
p983
sg6
S'd66c95a4c1c7aa3ad1fe1162a8491ff3'
p984
sg8
S'xx261ae21c73348075fa6bfe145803453e'
p985
sg10
S'xx7c11889d568b644595fc506dc352723e'
p986
sg12
S'xx70f16fb312003f3874f7aef96c54c83f'
p987
sg14
S'Mozilla/5.0 (Linux; Android 4.4.4; A31 Build/KTU84P) AppleWebKit/537.36 (KHTML, like Gecko) Version/4.0 Chrome/37.0.0.0 Mobile MQQBrowser/6.8 TBS/036849 Safari/537.36 MicroMessenger/6.3.27.880 NetType/WIFI Language/zh_CN'
p988
sg16
S'd7da8665b21ec6015c4745e4e18491e2'
p989
sa(dp990
g2
S'42040'
p991
sg4
S'2694'
p992
sg6
S'ead072d55f4ed0a24f8443fc7e7f01a9'
p993
sg8
S'xx261ae21c73348075fa6bfe145803453e'
p994
sg10
S'xx7c11889d568b644595fc506dc352723e'
p995
sg12
S'xx70f16fb312003f3874f7aef96c54c83f'
p996
sg14
S'Mozilla/5.0 (Linux; Android 4.4.4; A31 Build/KTU84P) AppleWebKit/537.36 (KHTML, like Gecko) Version/4.0 Chrome/37.0.0.0 Mobile MQQBrowser/6.8 TBS/036849 Safari/537.36 MicroMessenger/6.3.27.880 NetType/WIFI Language/zh_CN'
p997
sg16
S'd7da8665b21ec6015c4745e4e18491e2'
p998
sa(dp999
g2
S'5857'
p1000
sg4
S'2698'
p1001
sg6
S'd66c95a4c1c7aa3ad1fe1162a8491ff3'
p1002
sg8
S'xx261ae21c73348075fa6bfe145803453e'
p1003
sg10
S'xx7c11889d568b644595fc506dc352723e'
p1004
sg12
S'xx70f16fb312003f3874f7aef96c54c83f'
p1005
sg14
S'Mozilla/5.0 (Linux; Android 4.4.4; A31 Build/KTU84P) AppleWebKit/537.36 (KHTML, like Gecko) Version/4.0 Chrome/37.0.0.0 Mobile MQQBrowser/6.8 TBS/036849 Safari/537.36 MicroMessenger/6.3.27.880 NetType/WIFI Language/zh_CN'
p1006
sg16
S'd7da8665b21ec6015c4745e4e18491e2'
p1007
sa(dp1008
g2
S'5857'
p1009
sg4
S'2710'
p1010
sg6
S'd66c95a4c1c7aa3ad1fe1162a8491ff3'
p1011
sg8
S'xx261ae21c73348075fa6bfe145803453e'
p1012
sg10
S'xx7c11889d568b644595fc506dc352723e'
p1013
sg12
S'xx70f16fb312003f3874f7aef96c54c83f'
p1014
sg14
S'Mozilla/5.0 (Linux; Android 4.4.4; A31 Build/KTU84P) AppleWebKit/537.36 (KHTML, like Gecko) Version/4.0 Chrome/37.0.0.0 Mobile MQQBrowser/6.8 TBS/036849 Safari/537.36 MicroMessenger/6.3.27.880 NetType/WIFI Language/zh_CN'
p1015
sg16
S'd7da8665b21ec6015c4745e4e18491e2'
p1016
sa(dp1017
g2
S'42040'
p1018
sg4
S'2713'
p1019
sg6
S'ead072d55f4ed0a24f8443fc7e7f01a9'
p1020
sg8
S'xx261ae21c73348075fa6bfe145803453e'
p1021
sg10
S'xx7c11889d568b644595fc506dc352723e'
p1022
sg12
S'xx70f16fb312003f3874f7aef96c54c83f'
p1023
sg14
S'Mozilla/5.0 (Linux; Android 4.4.4; A31 Build/KTU84P) AppleWebKit/537.36 (KHTML, like Gecko) Version/4.0 Chrome/37.0.0.0 Mobile MQQBrowser/6.8 TBS/036849 Safari/537.36 MicroMessenger/6.3.27.880 NetType/WIFI Language/zh_CN'
p1024
sg16
S'd7da8665b21ec6015c4745e4e18491e2'
p1025
sa(dp1026
g2
S'5857'
p1027
sg4
S'2729'
p1028
sg6
S'd66c95a4c1c7aa3ad1fe1162a8491ff3'
p1029
sg8
S'xx261ae21c73348075fa6bfe145803453e'
p1030
sg10
S'xx7c11889d568b644595fc506dc352723e'
p1031
sg12
S'xx70f16fb312003f3874f7aef96c54c83f'
p1032
sg14
S'Mozilla/5.0 (Linux; Android 4.4.4; A31 Build/KTU84P) AppleWebKit/537.36 (KHTML, like Gecko) Version/4.0 Chrome/37.0.0.0 Mobile MQQBrowser/6.8 TBS/036849 Safari/537.36 MicroMessenger/6.3.27.880 NetType/WIFI Language/zh_CN'
p1033
sg16
S'd7da8665b21ec6015c4745e4e18491e2'
p1034
sa(dp1035
g2
S'5857'
p1036
sg4
S'2748'
p1037
sg6
S'd66c95a4c1c7aa3ad1fe1162a8491ff3'
p1038
sg8
S'xx261ae21c73348075fa6bfe145803453e'
p1039
sg10
S'xx7c11889d568b644595fc506dc352723e'
p1040
sg12
S'xx70f16fb312003f3874f7aef96c54c83f'
p1041
sg14
S'Mozilla/5.0 (Linux; Android 4.4.4; A31 Build/KTU84P) AppleWebKit/537.36 (KHTML, like Gecko) Version/4.0 Chrome/37.0.0.0 Mobile MQQBrowser/6.8 TBS/036849 Safari/537.36 MicroMessenger/6.3.27.880 NetType/WIFI Language/zh_CN'
p1042
sg16
S'd7da8665b21ec6015c4745e4e18491e2'
p1043
sa(dp1044
g2
S'5857'
p1045
sg4
S'2777'
p1046
sg6
S'd66c95a4c1c7aa3ad1fe1162a8491ff3'
p1047
sg8
S'xx261ae21c73348075fa6bfe145803453e'
p1048
sg10
S'xx7c11889d568b644595fc506dc352723e'
p1049
sg12
S'xx70f16fb312003f3874f7aef96c54c83f'
p1050
sg14
S'Mozilla/5.0 (Linux; Android 4.4.4; A31 Build/KTU84P) AppleWebKit/537.36 (KHTML, like Gecko) Version/4.0 Chrome/37.0.0.0 Mobile MQQBrowser/6.8 TBS/036849 Safari/537.36 MicroMessenger/6.3.27.880 NetType/WIFI Language/zh_CN'
p1051
sg16
S'd7da8665b21ec6015c4745e4e18491e2'
p1052
sa(dp1053
g2
S'5857'
p1054
sg4
S'2787'
p1055
sg6
S'd66c95a4c1c7aa3ad1fe1162a8491ff3'
p1056
sg8
S'xx261ae21c73348075fa6bfe145803453e'
p1057
sg10
S'xx7c11889d568b644595fc506dc352723e'
p1058
sg12
S'xx70f16fb312003f3874f7aef96c54c83f'
p1059
sg14
S'Mozilla/5.0 (Linux; Android 4.4.4; A31 Build/KTU84P) AppleWebKit/537.36 (KHTML, like Gecko) Version/4.0 Chrome/37.0.0.0 Mobile MQQBrowser/6.8 TBS/036849 Safari/537.36 MicroMessenger/6.3.27.880 NetType/WIFI Language/zh_CN'
p1060
sg16
S'd7da8665b21ec6015c4745e4e18491e2'
p1061
sa(dp1062
g2
S'36139'
p1063
sg4
S'3182'
p1064
sg6
S'0d6e895df1b7595abf750b57e447465f'
p1065
sg8
S'xx752e771c350b69da35c8a96c300edc5d'
p1066
sg10
S'xx7c11889d568b644595fc506dc352723e'
p1067
sg12
S'xx70f16fb312003f3874f7aef96c54c83f'
p1068
sg14
S'Mozilla/5.0 (Linux; Android 4.4.4; A31 Build/KTU84P) AppleWebKit/537.36 (KHTML, like Gecko) Version/4.0 Chrome/37.0.0.0 Mobile MQQBrowser/6.8 TBS/036849 Safari/537.36 MicroMessenger/6.3.27.880 NetType/cmnet Language/zh_CN'
p1069
sg16
S'2c4c2305c61441fecaf04532d2f67b82'
p1070
sa(dp1071
g2
S'36139'
p1072
sg4
S'3194'
p1073
sg6
S'0d6e895df1b7595abf750b57e447465f'
p1074
sg8
S'xx752e771c350b69da35c8a96c300edc5d'
p1075
sg10
S'xx7c11889d568b644595fc506dc352723e'
p1076
sg12
S'xx70f16fb312003f3874f7aef96c54c83f'
p1077
sg14
S'Mozilla/5.0 (Linux; Android 4.4.4; A31 Build/KTU84P) AppleWebKit/537.36 (KHTML, like Gecko) Version/4.0 Chrome/37.0.0.0 Mobile MQQBrowser/6.8 TBS/036849 Safari/537.36 MicroMessenger/6.3.27.880 NetType/cmnet Language/zh_CN'
p1078
sg16
S'2c4c2305c61441fecaf04532d2f67b82'
p1079
sa(dp1080
g2
S'31665'
p1081
sg4
S'3209'
p1082
sg6
S'008f05ac96bad95da1f6d2e57dda5583'
p1083
sg8
S'xx261ae21c73348075fa6bfe145803453e'
p1084
sg10
S'xx7c11889d568b644595fc506dc352723e'
p1085
sg12
S'xx70f16fb312003f3874f7aef96c54c83f'
p1086
sg14
S'Mozilla/5.0 (Linux; Android 4.4.4; A31 Build/KTU84P) AppleWebKit/537.36 (KHTML, like Gecko) Version/4.0 Chrome/37.0.0.0 Mobile MQQBrowser/6.8 TBS/036849 Safari/537.36 MicroMessenger/6.3.27.880 NetType/WIFI Language/zh_CN'
p1087
sg16
S'd7da8665b21ec6015c4745e4e18491e2'
p1088
sa(dp1089
g2
S'31665'
p1090
sg4
S'3222'
p1091
sg6
S'008f05ac96bad95da1f6d2e57dda5583'
p1092
sg8
S'xx261ae21c73348075fa6bfe145803453e'
p1093
sg10
S'xx7c11889d568b644595fc506dc352723e'
p1094
sg12
S'xx70f16fb312003f3874f7aef96c54c83f'
p1095
sg14
S'Mozilla/5.0 (Linux; Android 4.4.4; A31 Build/KTU84P) AppleWebKit/537.36 (KHTML, like Gecko) Version/4.0 Chrome/37.0.0.0 Mobile MQQBrowser/6.8 TBS/036849 Safari/537.36 MicroMessenger/6.3.27.880 NetType/WIFI Language/zh_CN'
p1096
sg16
S'd7da8665b21ec6015c4745e4e18491e2'
p1097
sa(dp1098
g2
S'7158'
p1099
sg4
S'3356'
p1100
sg6
S'69c760a9f79b5d870de29b3e41d7b99d'
p1101
sg8
S'xx261ae21c73348075fa6bfe145803453e'
p1102
sg10
S'xx7c11889d568b644595fc506dc352723e'
p1103
sg12
S'xx70f16fb312003f3874f7aef96c54c83f'
p1104
sg14
S'Mozilla/5.0 (Linux; Android 4.4.4; A31 Build/KTU84P) AppleWebKit/537.36 (KHTML, like Gecko) Version/4.0 Chrome/37.0.0.0 Mobile MQQBrowser/6.8 TBS/036849 Safari/537.36 MicroMessenger/6.3.27.880 NetType/WIFI Language/zh_CN'
p1105
sg16
S'd7da8665b21ec6015c4745e4e18491e2'
p1106
sa(dp1107
g2
S'7158'
p1108
sg4
S'3377'
p1109
sg6
S'69c760a9f79b5d870de29b3e41d7b99d'
p1110
sg8
S'xx261ae21c73348075fa6bfe145803453e'
p1111
sg10
S'xx7c11889d568b644595fc506dc352723e'
p1112
sg12
S'xx70f16fb312003f3874f7aef96c54c83f'
p1113
sg14
S'Mozilla/5.0 (Linux; Android 4.4.4; A31 Build/KTU84P) AppleWebKit/537.36 (KHTML, like Gecko) Version/4.0 Chrome/37.0.0.0 Mobile MQQBrowser/6.8 TBS/036849 Safari/537.36 MicroMessenger/6.3.27.880 NetType/WIFI Language/zh_CN'
p1114
sg16
S'd7da8665b21ec6015c4745e4e18491e2'
p1115
sa(dp1116
g2
S'7158'
p1117
sg4
S'3797'
p1118
sg6
S'69c760a9f79b5d870de29b3e41d7b99d'
p1119
sg8
S'xx261ae21c73348075fa6bfe145803453e'
p1120
sg10
S'xx7c11889d568b644595fc506dc352723e'
p1121
sg12
S'xx70f16fb312003f3874f7aef96c54c83f'
p1122
sg14
S'Mozilla/5.0 (Linux; Android 4.4.4; A31 Build/KTU84P) AppleWebKit/537.36 (KHTML, like Gecko) Version/4.0 Chrome/37.0.0.0 Mobile MQQBrowser/6.8 TBS/036849 Safari/537.36 MicroMessenger/6.3.27.880 NetType/WIFI Language/zh_CN'
p1123
sg16
S'd7da8665b21ec6015c4745e4e18491e2'
p1124
sa(dp1125
g2
S'7158'
p1126
sg4
S'3812'
p1127
sg6
S'69c760a9f79b5d870de29b3e41d7b99d'
p1128
sg8
S'xx261ae21c73348075fa6bfe145803453e'
p1129
sg10
S'xx7c11889d568b644595fc506dc352723e'
p1130
sg12
S'xx70f16fb312003f3874f7aef96c54c83f'
p1131
sg14
S'Mozilla/5.0 (Linux; Android 4.4.4; A31 Build/KTU84P) AppleWebKit/537.36 (KHTML, like Gecko) Version/4.0 Chrome/37.0.0.0 Mobile MQQBrowser/6.8 TBS/036849 Safari/537.36 MicroMessenger/6.3.27.880 NetType/WIFI Language/zh_CN'
p1132
sg16
S'd7da8665b21ec6015c4745e4e18491e2'
p1133
sa(dp1134
g2
S'36139'
p1135
sg4
S'3821'
p1136
sg6
S'0d6e895df1b7595abf750b57e447465f'
p1137
sg8
S'xx752e771c350b69da35c8a96c300edc5d'
p1138
sg10
S'xx7c11889d568b644595fc506dc352723e'
p1139
sg12
S'xx70f16fb312003f3874f7aef96c54c83f'
p1140
sg14
S'Mozilla/5.0 (Linux; Android 4.4.4; A31 Build/KTU84P) AppleWebKit/537.36 (KHTML, like Gecko) Version/4.0 Chrome/37.0.0.0 Mobile MQQBrowser/6.8 TBS/036849 Safari/537.36 MicroMessenger/6.3.27.880 NetType/cmnet Language/zh_CN'
p1141
sg16
S'2c4c2305c61441fecaf04532d2f67b82'
p1142
sa(dp1143
g2
S'7158'
p1144
sg4
S'3822'
p1145
sg6
S'69c760a9f79b5d870de29b3e41d7b99d'
p1146
sg8
S'xx261ae21c73348075fa6bfe145803453e'
p1147
sg10
S'xx7c11889d568b644595fc506dc352723e'
p1148
sg12
S'xx70f16fb312003f3874f7aef96c54c83f'
p1149
sg14
S'Mozilla/5.0 (Linux; Android 4.4.4; A31 Build/KTU84P) AppleWebKit/537.36 (KHTML, like Gecko) Version/4.0 Chrome/37.0.0.0 Mobile MQQBrowser/6.8 TBS/036849 Safari/537.36 MicroMessenger/6.3.27.880 NetType/WIFI Language/zh_CN'
p1150
sg16
S'd7da8665b21ec6015c4745e4e18491e2'
p1151
sa(dp1152
g2
S'36139'
p1153
sg4
S'3838'
p1154
sg6
S'0d6e895df1b7595abf750b57e447465f'
p1155
sg8
S'xx752e771c350b69da35c8a96c300edc5d'
p1156
sg10
S'xx7c11889d568b644595fc506dc352723e'
p1157
sg12
S'xx70f16fb312003f3874f7aef96c54c83f'
p1158
sg14
S'Mozilla/5.0 (Linux; Android 4.4.4; A31 Build/KTU84P) AppleWebKit/537.36 (KHTML, like Gecko) Version/4.0 Chrome/37.0.0.0 Mobile MQQBrowser/6.8 TBS/036849 Safari/537.36 MicroMessenger/6.3.27.880 NetType/cmnet Language/zh_CN'
p1159
sg16
S'2c4c2305c61441fecaf04532d2f67b82'
p1160
sa(dp1161
g2
S'7158'
p1162
sg4
S'3840'
p1163
sg6
S'69c760a9f79b5d870de29b3e41d7b99d'
p1164
sg8
S'xx261ae21c73348075fa6bfe145803453e'
p1165
sg10
S'xx7c11889d568b644595fc506dc352723e'
p1166
sg12
S'xx70f16fb312003f3874f7aef96c54c83f'
p1167
sg14
S'Mozilla/5.0 (Linux; Android 4.4.4; A31 Build/KTU84P) AppleWebKit/537.36 (KHTML, like Gecko) Version/4.0 Chrome/37.0.0.0 Mobile MQQBrowser/6.8 TBS/036849 Safari/537.36 MicroMessenger/6.3.27.880 NetType/WIFI Language/zh_CN'
p1168
sg16
S'd7da8665b21ec6015c4745e4e18491e2'
p1169
sa(dp1170
g2
S'7158'
p1171
sg4
S'3861'
p1172
sg6
S'69c760a9f79b5d870de29b3e41d7b99d'
p1173
sg8
S'xx261ae21c73348075fa6bfe145803453e'
p1174
sg10
S'xx7c11889d568b644595fc506dc352723e'
p1175
sg12
S'xx70f16fb312003f3874f7aef96c54c83f'
p1176
sg14
S'Mozilla/5.0 (Linux; Android 4.4.4; A31 Build/KTU84P) AppleWebKit/537.36 (KHTML, like Gecko) Version/4.0 Chrome/37.0.0.0 Mobile MQQBrowser/6.8 TBS/036849 Safari/537.36 MicroMessenger/6.3.27.880 NetType/WIFI Language/zh_CN'
p1177
sg16
S'd7da8665b21ec6015c4745e4e18491e2'
p1178
sa(dp1179
g2
S'7158'
p1180
sg4
S'3890'
p1181
sg6
S'69c760a9f79b5d870de29b3e41d7b99d'
p1182
sg8
S'xx261ae21c73348075fa6bfe145803453e'
p1183
sg10
S'xx7c11889d568b644595fc506dc352723e'
p1184
sg12
S'xx70f16fb312003f3874f7aef96c54c83f'
p1185
sg14
S'Mozilla/5.0 (Linux; Android 4.4.4; A31 Build/KTU84P) AppleWebKit/537.36 (KHTML, like Gecko) Version/4.0 Chrome/37.0.0.0 Mobile MQQBrowser/6.8 TBS/036849 Safari/537.36 MicroMessenger/6.3.27.880 NetType/WIFI Language/zh_CN'
p1186
sg16
S'd7da8665b21ec6015c4745e4e18491e2'
p1187
sa(dp1188
g2
S'7158'
p1189
sg4
S'3930'
p1190
sg6
S'69c760a9f79b5d870de29b3e41d7b99d'
p1191
sg8
S'xx261ae21c73348075fa6bfe145803453e'
p1192
sg10
S'xx7c11889d568b644595fc506dc352723e'
p1193
sg12
S'xx70f16fb312003f3874f7aef96c54c83f'
p1194
sg14
S'Mozilla/5.0 (Linux; Android 4.4.4; A31 Build/KTU84P) AppleWebKit/537.36 (KHTML, like Gecko) Version/4.0 Chrome/37.0.0.0 Mobile MQQBrowser/6.8 TBS/036849 Safari/537.36 MicroMessenger/6.3.27.880 NetType/WIFI Language/zh_CN'
p1195
sg16
S'd7da8665b21ec6015c4745e4e18491e2'
p1196
sa(dp1197
g2
S'7158'
p1198
sg4
S'4012'
p1199
sg6
S'69c760a9f79b5d870de29b3e41d7b99d'
p1200
sg8
S'xx261ae21c73348075fa6bfe145803453e'
p1201
sg10
S'xx7c11889d568b644595fc506dc352723e'
p1202
sg12
S'xx70f16fb312003f3874f7aef96c54c83f'
p1203
sg14
S'Mozilla/5.0 (Linux; Android 4.4.4; A31 Build/KTU84P) AppleWebKit/537.36 (KHTML, like Gecko) Version/4.0 Chrome/37.0.0.0 Mobile MQQBrowser/6.8 TBS/036849 Safari/537.36 MicroMessenger/6.3.27.880 NetType/WIFI Language/zh_CN'
p1204
sg16
S'd7da8665b21ec6015c4745e4e18491e2'
p1205
sa(dp1206
g2
S'7158'
p1207
sg4
S'4028'
p1208
sg6
S'69c760a9f79b5d870de29b3e41d7b99d'
p1209
sg8
S'xx261ae21c73348075fa6bfe145803453e'
p1210
sg10
S'xx7c11889d568b644595fc506dc352723e'
p1211
sg12
S'xx70f16fb312003f3874f7aef96c54c83f'
p1212
sg14
S'Mozilla/5.0 (Linux; Android 4.4.4; A31 Build/KTU84P) AppleWebKit/537.36 (KHTML, like Gecko) Version/4.0 Chrome/37.0.0.0 Mobile MQQBrowser/6.8 TBS/036849 Safari/537.36 MicroMessenger/6.3.27.880 NetType/WIFI Language/zh_CN'
p1213
sg16
S'd7da8665b21ec6015c4745e4e18491e2'
p1214
sa(dp1215
g2
S'7158'
p1216
sg4
S'4041'
p1217
sg6
S'69c760a9f79b5d870de29b3e41d7b99d'
p1218
sg8
S'xx261ae21c73348075fa6bfe145803453e'
p1219
sg10
S'xx7c11889d568b644595fc506dc352723e'
p1220
sg12
S'xx70f16fb312003f3874f7aef96c54c83f'
p1221
sg14
S'Mozilla/5.0 (Linux; Android 4.4.4; A31 Build/KTU84P) AppleWebKit/537.36 (KHTML, like Gecko) Version/4.0 Chrome/37.0.0.0 Mobile MQQBrowser/6.8 TBS/036849 Safari/537.36 MicroMessenger/6.3.27.880 NetType/WIFI Language/zh_CN'
p1222
sg16
S'd7da8665b21ec6015c4745e4e18491e2'
p1223
sa(dp1224
g2
S'7158'
p1225
sg4
S'4074'
p1226
sg6
S'69c760a9f79b5d870de29b3e41d7b99d'
p1227
sg8
S'xx261ae21c73348075fa6bfe145803453e'
p1228
sg10
S'xx7c11889d568b644595fc506dc352723e'
p1229
sg12
S'xx70f16fb312003f3874f7aef96c54c83f'
p1230
sg14
S'Mozilla/5.0 (Linux; Android 4.4.4; A31 Build/KTU84P) AppleWebKit/537.36 (KHTML, like Gecko) Version/4.0 Chrome/37.0.0.0 Mobile MQQBrowser/6.8 TBS/036849 Safari/537.36 MicroMessenger/6.3.27.880 NetType/WIFI Language/zh_CN'
p1231
sg16
S'd7da8665b21ec6015c4745e4e18491e2'
p1232
sa(dp1233
g2
S'34109'
p1234
sg4
S'4185'
p1235
sg6
S'269ada9eb9f889abb8b8833f5a709933'
p1236
sg8
S'xx261ae21c73348075fa6bfe145803453e'
p1237
sg10
S'xx7c11889d568b644595fc506dc352723e'
p1238
sg12
S'xx70f16fb312003f3874f7aef96c54c83f'
p1239
sg14
S'Mozilla/5.0 (Linux; Android 4.4.4; A31 Build/KTU84P) AppleWebKit/537.36 (KHTML, like Gecko) Version/4.0 Chrome/37.0.0.0 Mobile MQQBrowser/6.8 TBS/036849 Safari/537.36 MicroMessenger/6.3.27.880 NetType/WIFI Language/zh_CN'
p1240
sg16
S'd7da8665b21ec6015c4745e4e18491e2'
p1241
sa(dp1242
g2
S'34109'
p1243
sg4
S'4206'
p1244
sg6
S'269ada9eb9f889abb8b8833f5a709933'
p1245
sg8
S'xx261ae21c73348075fa6bfe145803453e'
p1246
sg10
S'xx7c11889d568b644595fc506dc352723e'
p1247
sg12
S'xx70f16fb312003f3874f7aef96c54c83f'
p1248
sg14
S'Mozilla/5.0 (Linux; Android 4.4.4; A31 Build/KTU84P) AppleWebKit/537.36 (KHTML, like Gecko) Version/4.0 Chrome/37.0.0.0 Mobile MQQBrowser/6.8 TBS/036849 Safari/537.36 MicroMessenger/6.3.27.880 NetType/WIFI Language/zh_CN'
p1249
sg16
S'd7da8665b21ec6015c4745e4e18491e2'
p1250
sa(dp1251
g2
S'34109'
p1252
sg4
S'4224'
p1253
sg6
S'269ada9eb9f889abb8b8833f5a709933'
p1254
sg8
S'xx261ae21c73348075fa6bfe145803453e'
p1255
sg10
S'xx7c11889d568b644595fc506dc352723e'
p1256
sg12
S'xx70f16fb312003f3874f7aef96c54c83f'
p1257
sg14
S'Mozilla/5.0 (Linux; Android 4.4.4; A31 Build/KTU84P) AppleWebKit/537.36 (KHTML, like Gecko) Version/4.0 Chrome/37.0.0.0 Mobile MQQBrowser/6.8 TBS/036849 Safari/537.36 MicroMessenger/6.3.27.880 NetType/WIFI Language/zh_CN'
p1258
sg16
S'd7da8665b21ec6015c4745e4e18491e2'
p1259
sa(dp1260
g2
S'34109'
p1261
sg4
S'4245'
p1262
sg6
S'269ada9eb9f889abb8b8833f5a709933'
p1263
sg8
S'xx261ae21c73348075fa6bfe145803453e'
p1264
sg10
S'xx7c11889d568b644595fc506dc352723e'
p1265
sg12
S'xx70f16fb312003f3874f7aef96c54c83f'
p1266
sg14
S'Mozilla/5.0 (Linux; Android 4.4.4; A31 Build/KTU84P) AppleWebKit/537.36 (KHTML, like Gecko) Version/4.0 Chrome/37.0.0.0 Mobile MQQBrowser/6.8 TBS/036849 Safari/537.36 MicroMessenger/6.3.27.880 NetType/WIFI Language/zh_CN'
p1267
sg16
S'd7da8665b21ec6015c4745e4e18491e2'
p1268
sa(dp1269
g2
S'7158'
p1270
sg4
S'4350'
p1271
sg6
S'69c760a9f79b5d870de29b3e41d7b99d'
p1272
sg8
S'xx261ae21c73348075fa6bfe145803453e'
p1273
sg10
S'xx7c11889d568b644595fc506dc352723e'
p1274
sg12
S'xx70f16fb312003f3874f7aef96c54c83f'
p1275
sg14
S'Mozilla/5.0 (Linux; Android 4.4.4; A31 Build/KTU84P) AppleWebKit/537.36 (KHTML, like Gecko) Version/4.0 Chrome/37.0.0.0 Mobile MQQBrowser/6.8 TBS/036849 Safari/537.36 MicroMessenger/6.3.27.880 NetType/WIFI Language/zh_CN'
p1276
sg16
S'd7da8665b21ec6015c4745e4e18491e2'
p1277
sa(dp1278
g2
S'7158'
p1279
sg4
S'4370'
p1280
sg6
S'69c760a9f79b5d870de29b3e41d7b99d'
p1281
sg8
S'xx261ae21c73348075fa6bfe145803453e'
p1282
sg10
S'xx7c11889d568b644595fc506dc352723e'
p1283
sg12
S'xx70f16fb312003f3874f7aef96c54c83f'
p1284
sg14
S'Mozilla/5.0 (Linux; Android 4.4.4; A31 Build/KTU84P) AppleWebKit/537.36 (KHTML, like Gecko) Version/4.0 Chrome/37.0.0.0 Mobile MQQBrowser/6.8 TBS/036849 Safari/537.36 MicroMessenger/6.3.27.880 NetType/WIFI Language/zh_CN'
p1285
sg16
S'd7da8665b21ec6015c4745e4e18491e2'
p1286
sa(dp1287
g2
S'7158'
p1288
sg4
S'4399'
p1289
sg6
S'69c760a9f79b5d870de29b3e41d7b99d'
p1290
sg8
S'xx261ae21c73348075fa6bfe145803453e'
p1291
sg10
S'xx7c11889d568b644595fc506dc352723e'
p1292
sg12
S'xx70f16fb312003f3874f7aef96c54c83f'
p1293
sg14
S'Mozilla/5.0 (Linux; Android 4.4.4; A31 Build/KTU84P) AppleWebKit/537.36 (KHTML, like Gecko) Version/4.0 Chrome/37.0.0.0 Mobile MQQBrowser/6.8 TBS/036849 Safari/537.36 MicroMessenger/6.3.27.880 NetType/WIFI Language/zh_CN'
p1294
sg16
S'd7da8665b21ec6015c4745e4e18491e2'
p1295
sa(dp1296
g2
S'7158'
p1297
sg4
S'4424'
p1298
sg6
S'69c760a9f79b5d870de29b3e41d7b99d'
p1299
sg8
S'xx261ae21c73348075fa6bfe145803453e'
p1300
sg10
S'xx7c11889d568b644595fc506dc352723e'
p1301
sg12
S'xx70f16fb312003f3874f7aef96c54c83f'
p1302
sg14
S'Mozilla/5.0 (Linux; Android 4.4.4; A31 Build/KTU84P) AppleWebKit/537.36 (KHTML, like Gecko) Version/4.0 Chrome/37.0.0.0 Mobile MQQBrowser/6.8 TBS/036849 Safari/537.36 MicroMessenger/6.3.27.880 NetType/WIFI Language/zh_CN'
p1303
sg16
S'd7da8665b21ec6015c4745e4e18491e2'
p1304
sa(dp1305
g2
S'7158'
p1306
sg4
S'4450'
p1307
sg6
S'69c760a9f79b5d870de29b3e41d7b99d'
p1308
sg8
S'xx261ae21c73348075fa6bfe145803453e'
p1309
sg10
S'xx7c11889d568b644595fc506dc352723e'
p1310
sg12
S'xx70f16fb312003f3874f7aef96c54c83f'
p1311
sg14
S'Mozilla/5.0 (Linux; Android 4.4.4; A31 Build/KTU84P) AppleWebKit/537.36 (KHTML, like Gecko) Version/4.0 Chrome/37.0.0.0 Mobile MQQBrowser/6.8 TBS/036849 Safari/537.36 MicroMessenger/6.3.27.880 NetType/WIFI Language/zh_CN'
p1312
sg16
S'd7da8665b21ec6015c4745e4e18491e2'
p1313
sa(dp1314
g2
S'7158'
p1315
sg4
S'4469'
p1316
sg6
S'69c760a9f79b5d870de29b3e41d7b99d'
p1317
sg8
S'xx261ae21c73348075fa6bfe145803453e'
p1318
sg10
S'xx7c11889d568b644595fc506dc352723e'
p1319
sg12
S'xx70f16fb312003f3874f7aef96c54c83f'
p1320
sg14
S'Mozilla/5.0 (Linux; Android 4.4.4; A31 Build/KTU84P) AppleWebKit/537.36 (KHTML, like Gecko) Version/4.0 Chrome/37.0.0.0 Mobile MQQBrowser/6.8 TBS/036849 Safari/537.36 MicroMessenger/6.3.27.880 NetType/WIFI Language/zh_CN'
p1321
sg16
S'd7da8665b21ec6015c4745e4e18491e2'
p1322
sa(dp1323
g2
S'7158'
p1324
sg4
S'4486'
p1325
sg6
S'69c760a9f79b5d870de29b3e41d7b99d'
p1326
sg8
S'xx261ae21c73348075fa6bfe145803453e'
p1327
sg10
S'xx7c11889d568b644595fc506dc352723e'
p1328
sg12
S'xx70f16fb312003f3874f7aef96c54c83f'
p1329
sg14
S'Mozilla/5.0 (Linux; Android 4.4.4; A31 Build/KTU84P) AppleWebKit/537.36 (KHTML, like Gecko) Version/4.0 Chrome/37.0.0.0 Mobile MQQBrowser/6.8 TBS/036849 Safari/537.36 MicroMessenger/6.3.27.880 NetType/WIFI Language/zh_CN'
p1330
sg16
S'd7da8665b21ec6015c4745e4e18491e2'
p1331
sa(dp1332
g2
S'7158'
p1333
sg4
S'4535'
p1334
sg6
S'69c760a9f79b5d870de29b3e41d7b99d'
p1335
sg8
S'xx261ae21c73348075fa6bfe145803453e'
p1336
sg10
S'xx7c11889d568b644595fc506dc352723e'
p1337
sg12
S'xx70f16fb312003f3874f7aef96c54c83f'
p1338
sg14
S'Mozilla/5.0 (Linux; Android 4.4.4; A31 Build/KTU84P) AppleWebKit/537.36 (KHTML, like Gecko) Version/4.0 Chrome/37.0.0.0 Mobile MQQBrowser/6.8 TBS/036849 Safari/537.36 MicroMessenger/6.3.27.880 NetType/WIFI Language/zh_CN'
p1339
sg16
S'd7da8665b21ec6015c4745e4e18491e2'
p1340
sa(dp1341
g2
S'7158'
p1342
sg4
S'4559'
p1343
sg6
S'69c760a9f79b5d870de29b3e41d7b99d'
p1344
sg8
S'xx261ae21c73348075fa6bfe145803453e'
p1345
sg10
S'xx7c11889d568b644595fc506dc352723e'
p1346
sg12
S'xx70f16fb312003f3874f7aef96c54c83f'
p1347
sg14
S'Mozilla/5.0 (Linux; Android 4.4.4; A31 Build/KTU84P) AppleWebKit/537.36 (KHTML, like Gecko) Version/4.0 Chrome/37.0.0.0 Mobile MQQBrowser/6.8 TBS/036849 Safari/537.36 MicroMessenger/6.3.27.880 NetType/WIFI Language/zh_CN'
p1348
sg16
S'd7da8665b21ec6015c4745e4e18491e2'
p1349
sa(dp1350
g2
S'7158'
p1351
sg4
S'4584'
p1352
sg6
S'69c760a9f79b5d870de29b3e41d7b99d'
p1353
sg8
S'xx261ae21c73348075fa6bfe145803453e'
p1354
sg10
S'xx7c11889d568b644595fc506dc352723e'
p1355
sg12
S'xx70f16fb312003f3874f7aef96c54c83f'
p1356
sg14
S'Mozilla/5.0 (Linux; Android 4.4.4; A31 Build/KTU84P) AppleWebKit/537.36 (KHTML, like Gecko) Version/4.0 Chrome/37.0.0.0 Mobile MQQBrowser/6.8 TBS/036849 Safari/537.36 MicroMessenger/6.3.27.880 NetType/WIFI Language/zh_CN'
p1357
sg16
S'd7da8665b21ec6015c4745e4e18491e2'
p1358
sa(dp1359
g2
S'7158'
p1360
sg4
S'4602'
p1361
sg6
S'69c760a9f79b5d870de29b3e41d7b99d'
p1362
sg8
S'xx261ae21c73348075fa6bfe145803453e'
p1363
sg10
S'xx7c11889d568b644595fc506dc352723e'
p1364
sg12
S'xx70f16fb312003f3874f7aef96c54c83f'
p1365
sg14
S'Mozilla/5.0 (Linux; Android 4.4.4; A31 Build/KTU84P) AppleWebKit/537.36 (KHTML, like Gecko) Version/4.0 Chrome/37.0.0.0 Mobile MQQBrowser/6.8 TBS/036849 Safari/537.36 MicroMessenger/6.3.27.880 NetType/WIFI Language/zh_CN'
p1366
sg16
S'd7da8665b21ec6015c4745e4e18491e2'
p1367
sa(dp1368
g2
S'7158'
p1369
sg4
S'4621'
p1370
sg6
S'69c760a9f79b5d870de29b3e41d7b99d'
p1371
sg8
S'xx261ae21c73348075fa6bfe145803453e'
p1372
sg10
S'xx7c11889d568b644595fc506dc352723e'
p1373
sg12
S'xx70f16fb312003f3874f7aef96c54c83f'
p1374
sg14
S'Mozilla/5.0 (Linux; Android 4.4.4; A31 Build/KTU84P) AppleWebKit/537.36 (KHTML, like Gecko) Version/4.0 Chrome/37.0.0.0 Mobile MQQBrowser/6.8 TBS/036849 Safari/537.36 MicroMessenger/6.3.27.880 NetType/WIFI Language/zh_CN'
p1375
sg16
S'd7da8665b21ec6015c4745e4e18491e2'
p1376
sa(dp1377
g2
S'7158'
p1378
sg4
S'4635'
p1379
sg6
S'69c760a9f79b5d870de29b3e41d7b99d'
p1380
sg8
S'xx261ae21c73348075fa6bfe145803453e'
p1381
sg10
S'xx7c11889d568b644595fc506dc352723e'
p1382
sg12
S'xx70f16fb312003f3874f7aef96c54c83f'
p1383
sg14
S'Mozilla/5.0 (Linux; Android 4.4.4; A31 Build/KTU84P) AppleWebKit/537.36 (KHTML, like Gecko) Version/4.0 Chrome/37.0.0.0 Mobile MQQBrowser/6.8 TBS/036849 Safari/537.36 MicroMessenger/6.3.27.880 NetType/WIFI Language/zh_CN'
p1384
sg16
S'd7da8665b21ec6015c4745e4e18491e2'
p1385
sa(dp1386
g2
S'7158'
p1387
sg4
S'4679'
p1388
sg6
S'69c760a9f79b5d870de29b3e41d7b99d'
p1389
sg8
S'xx261ae21c73348075fa6bfe145803453e'
p1390
sg10
S'xx7c11889d568b644595fc506dc352723e'
p1391
sg12
S'xx70f16fb312003f3874f7aef96c54c83f'
p1392
sg14
S'Mozilla/5.0 (Linux; Android 4.4.4; A31 Build/KTU84P) AppleWebKit/537.36 (KHTML, like Gecko) Version/4.0 Chrome/37.0.0.0 Mobile MQQBrowser/6.8 TBS/036849 Safari/537.36 MicroMessenger/6.3.27.880 NetType/WIFI Language/zh_CN'
p1393
sg16
S'd7da8665b21ec6015c4745e4e18491e2'
p1394
sa(dp1395
g2
S'7158'
p1396
sg4
S'4698'
p1397
sg6
S'69c760a9f79b5d870de29b3e41d7b99d'
p1398
sg8
S'xx261ae21c73348075fa6bfe145803453e'
p1399
sg10
S'xx7c11889d568b644595fc506dc352723e'
p1400
sg12
S'xx70f16fb312003f3874f7aef96c54c83f'
p1401
sg14
S'Mozilla/5.0 (Linux; Android 4.4.4; A31 Build/KTU84P) AppleWebKit/537.36 (KHTML, like Gecko) Version/4.0 Chrome/37.0.0.0 Mobile MQQBrowser/6.8 TBS/036849 Safari/537.36 MicroMessenger/6.3.27.880 NetType/WIFI Language/zh_CN'
p1402
sg16
S'd7da8665b21ec6015c4745e4e18491e2'
p1403
sa(dp1404
g2
S'7158'
p1405
sg4
S'4715'
p1406
sg6
S'69c760a9f79b5d870de29b3e41d7b99d'
p1407
sg8
S'xx261ae21c73348075fa6bfe145803453e'
p1408
sg10
S'xx7c11889d568b644595fc506dc352723e'
p1409
sg12
S'xx70f16fb312003f3874f7aef96c54c83f'
p1410
sg14
S'Mozilla/5.0 (Linux; Android 4.4.4; A31 Build/KTU84P) AppleWebKit/537.36 (KHTML, like Gecko) Version/4.0 Chrome/37.0.0.0 Mobile MQQBrowser/6.8 TBS/036849 Safari/537.36 MicroMessenger/6.3.27.880 NetType/WIFI Language/zh_CN'
p1411
sg16
S'd7da8665b21ec6015c4745e4e18491e2'
p1412
sa(dp1413
g2
S'7158'
p1414
sg4
S'4763'
p1415
sg6
S'69c760a9f79b5d870de29b3e41d7b99d'
p1416
sg8
S'xx261ae21c73348075fa6bfe145803453e'
p1417
sg10
S'xx7c11889d568b644595fc506dc352723e'
p1418
sg12
S'xx70f16fb312003f3874f7aef96c54c83f'
p1419
sg14
S'Mozilla/5.0 (Linux; Android 4.4.4; A31 Build/KTU84P) AppleWebKit/537.36 (KHTML, like Gecko) Version/4.0 Chrome/37.0.0.0 Mobile MQQBrowser/6.8 TBS/036849 Safari/537.36 MicroMessenger/6.3.27.880 NetType/WIFI Language/zh_CN'
p1420
sg16
S'd7da8665b21ec6015c4745e4e18491e2'
p1421
sa(dp1422
g2
S'36139'
p1423
sg4
S'4777'
p1424
sg6
S'0d6e895df1b7595abf750b57e447465f'
p1425
sg8
S'xx752e771c350b69da35c8a96c300edc5d'
p1426
sg10
S'xx7c11889d568b644595fc506dc352723e'
p1427
sg12
S'xx70f16fb312003f3874f7aef96c54c83f'
p1428
sg14
S'Mozilla/5.0 (Linux; Android 4.4.4; A31 Build/KTU84P) AppleWebKit/537.36 (KHTML, like Gecko) Version/4.0 Chrome/37.0.0.0 Mobile MQQBrowser/6.8 TBS/036849 Safari/537.36 MicroMessenger/6.3.27.880 NetType/cmnet Language/zh_CN'
p1429
sg16
S'2c4c2305c61441fecaf04532d2f67b82'
p1430
sa(dp1431
g2
S'36139'
p1432
sg4
S'4791'
p1433
sg6
S'0d6e895df1b7595abf750b57e447465f'
p1434
sg8
S'xx752e771c350b69da35c8a96c300edc5d'
p1435
sg10
S'xx7c11889d568b644595fc506dc352723e'
p1436
sg12
S'xx70f16fb312003f3874f7aef96c54c83f'
p1437
sg14
S'Mozilla/5.0 (Linux; Android 4.4.4; A31 Build/KTU84P) AppleWebKit/537.36 (KHTML, like Gecko) Version/4.0 Chrome/37.0.0.0 Mobile MQQBrowser/6.8 TBS/036849 Safari/537.36 MicroMessenger/6.3.27.880 NetType/cmnet Language/zh_CN'
p1438
sg16
S'2c4c2305c61441fecaf04532d2f67b82'
p1439
sa(dp1440
g2
S'7158'
p1441
sg4
S'4873'
p1442
sg6
S'69c760a9f79b5d870de29b3e41d7b99d'
p1443
sg8
S'xx261ae21c73348075fa6bfe145803453e'
p1444
sg10
S'xx7c11889d568b644595fc506dc352723e'
p1445
sg12
S'xx70f16fb312003f3874f7aef96c54c83f'
p1446
sg14
S'Mozilla/5.0 (Linux; Android 4.4.4; A31 Build/KTU84P) AppleWebKit/537.36 (KHTML, like Gecko) Version/4.0 Chrome/37.0.0.0 Mobile MQQBrowser/6.8 TBS/036849 Safari/537.36 MicroMessenger/6.3.27.880 NetType/WIFI Language/zh_CN'
p1447
sg16
S'd7da8665b21ec6015c4745e4e18491e2'
p1448
sa(dp1449
g2
S'7158'
p1450
sg4
S'4890'
p1451
sg6
S'69c760a9f79b5d870de29b3e41d7b99d'
p1452
sg8
S'xx261ae21c73348075fa6bfe145803453e'
p1453
sg10
S'xx7c11889d568b644595fc506dc352723e'
p1454
sg12
S'xx70f16fb312003f3874f7aef96c54c83f'
p1455
sg14
S'Mozilla/5.0 (Linux; Android 4.4.4; A31 Build/KTU84P) AppleWebKit/537.36 (KHTML, like Gecko) Version/4.0 Chrome/37.0.0.0 Mobile MQQBrowser/6.8 TBS/036849 Safari/537.36 MicroMessenger/6.3.27.880 NetType/WIFI Language/zh_CN'
p1456
sg16
S'd7da8665b21ec6015c4745e4e18491e2'
p1457
sa(dp1458
g2
S'7158'
p1459
sg4
S'4906'
p1460
sg6
S'69c760a9f79b5d870de29b3e41d7b99d'
p1461
sg8
S'xx261ae21c73348075fa6bfe145803453e'
p1462
sg10
S'xx7c11889d568b644595fc506dc352723e'
p1463
sg12
S'xx70f16fb312003f3874f7aef96c54c83f'
p1464
sg14
S'Mozilla/5.0 (Linux; Android 4.4.4; A31 Build/KTU84P) AppleWebKit/537.36 (KHTML, like Gecko) Version/4.0 Chrome/37.0.0.0 Mobile MQQBrowser/6.8 TBS/036849 Safari/537.36 MicroMessenger/6.3.27.880 NetType/WIFI Language/zh_CN'
p1465
sg16
S'd7da8665b21ec6015c4745e4e18491e2'
p1466
sa(dp1467
g2
S'7158'
p1468
sg4
S'4982'
p1469
sg6
S'69c760a9f79b5d870de29b3e41d7b99d'
p1470
sg8
S'xx261ae21c73348075fa6bfe145803453e'
p1471
sg10
S'xx7c11889d568b644595fc506dc352723e'
p1472
sg12
S'xx70f16fb312003f3874f7aef96c54c83f'
p1473
sg14
S'Mozilla/5.0 (Linux; Android 4.4.4; A31 Build/KTU84P) AppleWebKit/537.36 (KHTML, like Gecko) Version/4.0 Chrome/37.0.0.0 Mobile MQQBrowser/6.8 TBS/036849 Safari/537.36 MicroMessenger/6.3.27.880 NetType/WIFI Language/zh_CN'
p1474
sg16
S'd7da8665b21ec6015c4745e4e18491e2'
p1475
sa(dp1476
g2
S'7158'
p1477
sg4
S'4998'
p1478
sg6
S'69c760a9f79b5d870de29b3e41d7b99d'
p1479
sg8
S'xx261ae21c73348075fa6bfe145803453e'
p1480
sg10
S'xx7c11889d568b644595fc506dc352723e'
p1481
sg12
S'xx70f16fb312003f3874f7aef96c54c83f'
p1482
sg14
S'Mozilla/5.0 (Linux; Android 4.4.4; A31 Build/KTU84P) AppleWebKit/537.36 (KHTML, like Gecko) Version/4.0 Chrome/37.0.0.0 Mobile MQQBrowser/6.8 TBS/036849 Safari/537.36 MicroMessenger/6.3.27.880 NetType/WIFI Language/zh_CN'
p1483
sg16
S'd7da8665b21ec6015c4745e4e18491e2'
p1484
sa(dp1485
g2
S'7158'
p1486
sg4
S'5009'
p1487
sg6
S'69c760a9f79b5d870de29b3e41d7b99d'
p1488
sg8
S'xx261ae21c73348075fa6bfe145803453e'
p1489
sg10
S'xx7c11889d568b644595fc506dc352723e'
p1490
sg12
S'xx70f16fb312003f3874f7aef96c54c83f'
p1491
sg14
S'Mozilla/5.0 (Linux; Android 4.4.4; A31 Build/KTU84P) AppleWebKit/537.36 (KHTML, like Gecko) Version/4.0 Chrome/37.0.0.0 Mobile MQQBrowser/6.8 TBS/036849 Safari/537.36 MicroMessenger/6.3.27.880 NetType/WIFI Language/zh_CN'
p1492
sg16
S'd7da8665b21ec6015c4745e4e18491e2'
p1493
sa(dp1494
g2
S'7158'
p1495
sg4
S'5024'
p1496
sg6
S'69c760a9f79b5d870de29b3e41d7b99d'
p1497
sg8
S'xx261ae21c73348075fa6bfe145803453e'
p1498
sg10
S'xx7c11889d568b644595fc506dc352723e'
p1499
sg12
S'xx70f16fb312003f3874f7aef96c54c83f'
p1500
sg14
S'Mozilla/5.0 (Linux; Android 4.4.4; A31 Build/KTU84P) AppleWebKit/537.36 (KHTML, like Gecko) Version/4.0 Chrome/37.0.0.0 Mobile MQQBrowser/6.8 TBS/036849 Safari/537.36 MicroMessenger/6.3.27.880 NetType/WIFI Language/zh_CN'
p1501
sg16
S'd7da8665b21ec6015c4745e4e18491e2'
p1502
sa(dp1503
g2
S'7158'
p1504
sg4
S'5100'
p1505
sg6
S'69c760a9f79b5d870de29b3e41d7b99d'
p1506
sg8
S'xx261ae21c73348075fa6bfe145803453e'
p1507
sg10
S'xx7c11889d568b644595fc506dc352723e'
p1508
sg12
S'xx70f16fb312003f3874f7aef96c54c83f'
p1509
sg14
S'Mozilla/5.0 (Linux; Android 4.4.4; A31 Build/KTU84P) AppleWebKit/537.36 (KHTML, like Gecko) Version/4.0 Chrome/37.0.0.0 Mobile MQQBrowser/6.8 TBS/036849 Safari/537.36 MicroMessenger/6.3.27.880 NetType/WIFI Language/zh_CN'
p1510
sg16
S'd7da8665b21ec6015c4745e4e18491e2'
p1511
sa(dp1512
g2
S'7158'
p1513
sg4
S'5236'
p1514
sg6
S'69c760a9f79b5d870de29b3e41d7b99d'
p1515
sg8
S'xx261ae21c73348075fa6bfe145803453e'
p1516
sg10
S'xx7c11889d568b644595fc506dc352723e'
p1517
sg12
S'xx70f16fb312003f3874f7aef96c54c83f'
p1518
sg14
S'Mozilla/5.0 (Linux; Android 4.4.4; A31 Build/KTU84P) AppleWebKit/537.36 (KHTML, like Gecko) Version/4.0 Chrome/37.0.0.0 Mobile MQQBrowser/6.8 TBS/036849 Safari/537.36 MicroMessenger/6.3.27.880 NetType/WIFI Language/zh_CN'
p1519
sg16
S'd7da8665b21ec6015c4745e4e18491e2'
p1520
sa(dp1521
g2
S'7158'
p1522
sg4
S'5252'
p1523
sg6
S'69c760a9f79b5d870de29b3e41d7b99d'
p1524
sg8
S'xx261ae21c73348075fa6bfe145803453e'
p1525
sg10
S'xx7c11889d568b644595fc506dc352723e'
p1526
sg12
S'xx70f16fb312003f3874f7aef96c54c83f'
p1527
sg14
S'Mozilla/5.0 (Linux; Android 4.4.4; A31 Build/KTU84P) AppleWebKit/537.36 (KHTML, like Gecko) Version/4.0 Chrome/37.0.0.0 Mobile MQQBrowser/6.8 TBS/036849 Safari/537.36 MicroMessenger/6.3.27.880 NetType/WIFI Language/zh_CN'
p1528
sg16
S'd7da8665b21ec6015c4745e4e18491e2'
p1529
sa(dp1530
g2
S'36139'
p1531
sg4
S'5373'
p1532
sg6
S'0d6e895df1b7595abf750b57e447465f'
p1533
sg8
S'xx752e771c350b69da35c8a96c300edc5d'
p1534
sg10
S'xx7c11889d568b644595fc506dc352723e'
p1535
sg12
S'xx70f16fb312003f3874f7aef96c54c83f'
p1536
sg14
S'Mozilla/5.0 (Linux; Android 4.4.4; A31 Build/KTU84P) AppleWebKit/537.36 (KHTML, like Gecko) Version/4.0 Chrome/37.0.0.0 Mobile MQQBrowser/6.8 TBS/036849 Safari/537.36 MicroMessenger/6.3.27.880 NetType/cmnet Language/zh_CN'
p1537
sg16
S'2c4c2305c61441fecaf04532d2f67b82'
p1538
sa(dp1539
g2
S'36139'
p1540
sg4
S'5389'
p1541
sg6
S'0d6e895df1b7595abf750b57e447465f'
p1542
sg8
S'xx752e771c350b69da35c8a96c300edc5d'
p1543
sg10
S'xx7c11889d568b644595fc506dc352723e'
p1544
sg12
S'xx70f16fb312003f3874f7aef96c54c83f'
p1545
sg14
S'Mozilla/5.0 (Linux; Android 4.4.4; A31 Build/KTU84P) AppleWebKit/537.36 (KHTML, like Gecko) Version/4.0 Chrome/37.0.0.0 Mobile MQQBrowser/6.8 TBS/036849 Safari/537.36 MicroMessenger/6.3.27.880 NetType/cmnet Language/zh_CN'
p1546
sg16
S'2c4c2305c61441fecaf04532d2f67b82'
p1547
sa(dp1548
g2
S'39670'
p1549
sg4
S'5420'
p1550
sg6
S'812d9d112200b3816bebfb4966d51b33'
p1551
sg8
S'xx261ae21c73348075fa6bfe145803453e'
p1552
sg10
S'xx7c11889d568b644595fc506dc352723e'
p1553
sg12
S'xx70f16fb312003f3874f7aef96c54c83f'
p1554
sg14
S'Mozilla/5.0 (Linux; Android 4.4.4; A31 Build/KTU84P) AppleWebKit/537.36 (KHTML, like Gecko) Version/4.0 Chrome/37.0.0.0 Mobile MQQBrowser/6.8 TBS/036849 Safari/537.36 MicroMessenger/6.3.27.880 NetType/WIFI Language/zh_CN'
p1555
sg16
S'd7da8665b21ec6015c4745e4e18491e2'
p1556
sa(dp1557
g2
S'39670'
p1558
sg4
S'5431'
p1559
sg6
S'812d9d112200b3816bebfb4966d51b33'
p1560
sg8
S'xx261ae21c73348075fa6bfe145803453e'
p1561
sg10
S'xx7c11889d568b644595fc506dc352723e'
p1562
sg12
S'xx70f16fb312003f3874f7aef96c54c83f'
p1563
sg14
S'Mozilla/5.0 (Linux; Android 4.4.4; A31 Build/KTU84P) AppleWebKit/537.36 (KHTML, like Gecko) Version/4.0 Chrome/37.0.0.0 Mobile MQQBrowser/6.8 TBS/036849 Safari/537.36 MicroMessenger/6.3.27.880 NetType/WIFI Language/zh_CN'
p1564
sg16
S'd7da8665b21ec6015c4745e4e18491e2'
p1565
sa(dp1566
g2
S'7158'
p1567
sg4
S'5464'
p1568
sg6
S'69c760a9f79b5d870de29b3e41d7b99d'
p1569
sg8
S'xx261ae21c73348075fa6bfe145803453e'
p1570
sg10
S'xx7c11889d568b644595fc506dc352723e'
p1571
sg12
S'xx70f16fb312003f3874f7aef96c54c83f'
p1572
sg14
S'Mozilla/5.0 (Linux; Android 4.4.4; A31 Build/KTU84P) AppleWebKit/537.36 (KHTML, like Gecko) Version/4.0 Chrome/37.0.0.0 Mobile MQQBrowser/6.8 TBS/036849 Safari/537.36 MicroMessenger/6.3.27.880 NetType/WIFI Language/zh_CN'
p1573
sg16
S'd7da8665b21ec6015c4745e4e18491e2'
p1574
sa(dp1575
g2
S'7158'
p1576
sg4
S'5479'
p1577
sg6
S'69c760a9f79b5d870de29b3e41d7b99d'
p1578
sg8
S'xx261ae21c73348075fa6bfe145803453e'
p1579
sg10
S'xx7c11889d568b644595fc506dc352723e'
p1580
sg12
S'xx70f16fb312003f3874f7aef96c54c83f'
p1581
sg14
S'Mozilla/5.0 (Linux; Android 4.4.4; A31 Build/KTU84P) AppleWebKit/537.36 (KHTML, like Gecko) Version/4.0 Chrome/37.0.0.0 Mobile MQQBrowser/6.8 TBS/036849 Safari/537.36 MicroMessenger/6.3.27.880 NetType/WIFI Language/zh_CN'
p1582
sg16
S'd7da8665b21ec6015c4745e4e18491e2'
p1583
sa(dp1584
g2
S'7158'
p1585
sg4
S'5494'
p1586
sg6
S'69c760a9f79b5d870de29b3e41d7b99d'
p1587
sg8
S'xx261ae21c73348075fa6bfe145803453e'
p1588
sg10
S'xx7c11889d568b644595fc506dc352723e'
p1589
sg12
S'xx70f16fb312003f3874f7aef96c54c83f'
p1590
sg14
S'Mozilla/5.0 (Linux; Android 4.4.4; A31 Build/KTU84P) AppleWebKit/537.36 (KHTML, like Gecko) Version/4.0 Chrome/37.0.0.0 Mobile MQQBrowser/6.8 TBS/036849 Safari/537.36 MicroMessenger/6.3.27.880 NetType/WIFI Language/zh_CN'
p1591
sg16
S'd7da8665b21ec6015c4745e4e18491e2'
p1592
sa(dp1593
g2
S'7158'
p1594
sg4
S'5511'
p1595
sg6
S'69c760a9f79b5d870de29b3e41d7b99d'
p1596
sg8
S'xx261ae21c73348075fa6bfe145803453e'
p1597
sg10
S'xx7c11889d568b644595fc506dc352723e'
p1598
sg12
S'xx70f16fb312003f3874f7aef96c54c83f'
p1599
sg14
S'Mozilla/5.0 (Linux; Android 4.4.4; A31 Build/KTU84P) AppleWebKit/537.36 (KHTML, like Gecko) Version/4.0 Chrome/37.0.0.0 Mobile MQQBrowser/6.8 TBS/036849 Safari/537.36 MicroMessenger/6.3.27.880 NetType/WIFI Language/zh_CN'
p1600
sg16
S'd7da8665b21ec6015c4745e4e18491e2'
p1601
sa(dp1602
g2
S'7158'
p1603
sg4
S'5530'
p1604
sg6
S'69c760a9f79b5d870de29b3e41d7b99d'
p1605
sg8
S'xx261ae21c73348075fa6bfe145803453e'
p1606
sg10
S'xx7c11889d568b644595fc506dc352723e'
p1607
sg12
S'xx70f16fb312003f3874f7aef96c54c83f'
p1608
sg14
S'Mozilla/5.0 (Linux; Android 4.4.4; A31 Build/KTU84P) AppleWebKit/537.36 (KHTML, like Gecko) Version/4.0 Chrome/37.0.0.0 Mobile MQQBrowser/6.8 TBS/036849 Safari/537.36 MicroMessenger/6.3.27.880 NetType/WIFI Language/zh_CN'
p1609
sg16
S'd7da8665b21ec6015c4745e4e18491e2'
p1610
sa(dp1611
g2
S'7158'
p1612
sg4
S'5547'
p1613
sg6
S'69c760a9f79b5d870de29b3e41d7b99d'
p1614
sg8
S'xx261ae21c73348075fa6bfe145803453e'
p1615
sg10
S'xx7c11889d568b644595fc506dc352723e'
p1616
sg12
S'xx70f16fb312003f3874f7aef96c54c83f'
p1617
sg14
S'Mozilla/5.0 (Linux; Android 4.4.4; A31 Build/KTU84P) AppleWebKit/537.36 (KHTML, like Gecko) Version/4.0 Chrome/37.0.0.0 Mobile MQQBrowser/6.8 TBS/036849 Safari/537.36 MicroMessenger/6.3.27.880 NetType/WIFI Language/zh_CN'
p1618
sg16
S'd7da8665b21ec6015c4745e4e18491e2'
p1619
sa(dp1620
g2
S'7158'
p1621
sg4
S'5562'
p1622
sg6
S'69c760a9f79b5d870de29b3e41d7b99d'
p1623
sg8
S'xx261ae21c73348075fa6bfe145803453e'
p1624
sg10
S'xx7c11889d568b644595fc506dc352723e'
p1625
sg12
S'xx70f16fb312003f3874f7aef96c54c83f'
p1626
sg14
S'Mozilla/5.0 (Linux; Android 4.4.4; A31 Build/KTU84P) AppleWebKit/537.36 (KHTML, like Gecko) Version/4.0 Chrome/37.0.0.0 Mobile MQQBrowser/6.8 TBS/036849 Safari/537.36 MicroMessenger/6.3.27.880 NetType/WIFI Language/zh_CN'
p1627
sg16
S'd7da8665b21ec6015c4745e4e18491e2'
p1628
sa(dp1629
g2
S'7158'
p1630
sg4
S'5594'
p1631
sg6
S'69c760a9f79b5d870de29b3e41d7b99d'
p1632
sg8
S'xx261ae21c73348075fa6bfe145803453e'
p1633
sg10
S'xx7c11889d568b644595fc506dc352723e'
p1634
sg12
S'xx70f16fb312003f3874f7aef96c54c83f'
p1635
sg14
S'Mozilla/5.0 (Linux; Android 4.4.4; A31 Build/KTU84P) AppleWebKit/537.36 (KHTML, like Gecko) Version/4.0 Chrome/37.0.0.0 Mobile MQQBrowser/6.8 TBS/036849 Safari/537.36 MicroMessenger/6.3.27.880 NetType/WIFI Language/zh_CN'
p1636
sg16
S'd7da8665b21ec6015c4745e4e18491e2'
p1637
sa(dp1638
g2
S'7158'
p1639
sg4
S'5652'
p1640
sg6
S'69c760a9f79b5d870de29b3e41d7b99d'
p1641
sg8
S'xx261ae21c73348075fa6bfe145803453e'
p1642
sg10
S'xx7c11889d568b644595fc506dc352723e'
p1643
sg12
S'xx70f16fb312003f3874f7aef96c54c83f'
p1644
sg14
S'Mozilla/5.0 (Linux; Android 4.4.4; A31 Build/KTU84P) AppleWebKit/537.36 (KHTML, like Gecko) Version/4.0 Chrome/37.0.0.0 Mobile MQQBrowser/6.8 TBS/036849 Safari/537.36 MicroMessenger/6.3.27.880 NetType/WIFI Language/zh_CN'
p1645
sg16
S'd7da8665b21ec6015c4745e4e18491e2'
p1646
sa(dp1647
g2
S'7158'
p1648
sg4
S'5661'
p1649
sg6
S'69c760a9f79b5d870de29b3e41d7b99d'
p1650
sg8
S'xx261ae21c73348075fa6bfe145803453e'
p1651
sg10
S'xx7c11889d568b644595fc506dc352723e'
p1652
sg12
S'xx70f16fb312003f3874f7aef96c54c83f'
p1653
sg14
S'Mozilla/5.0 (Linux; Android 4.4.4; A31 Build/KTU84P) AppleWebKit/537.36 (KHTML, like Gecko) Version/4.0 Chrome/37.0.0.0 Mobile MQQBrowser/6.8 TBS/036849 Safari/537.36 MicroMessenger/6.3.27.880 NetType/WIFI Language/zh_CN'
p1654
sg16
S'd7da8665b21ec6015c4745e4e18491e2'
p1655
sa(dp1656
g2
S'7158'
p1657
sg4
S'5676'
p1658
sg6
S'69c760a9f79b5d870de29b3e41d7b99d'
p1659
sg8
S'xx261ae21c73348075fa6bfe145803453e'
p1660
sg10
S'xx7c11889d568b644595fc506dc352723e'
p1661
sg12
S'xx70f16fb312003f3874f7aef96c54c83f'
p1662
sg14
S'Mozilla/5.0 (Linux; Android 4.4.4; A31 Build/KTU84P) AppleWebKit/537.36 (KHTML, like Gecko) Version/4.0 Chrome/37.0.0.0 Mobile MQQBrowser/6.8 TBS/036849 Safari/537.36 MicroMessenger/6.3.27.880 NetType/WIFI Language/zh_CN'
p1663
sg16
S'd7da8665b21ec6015c4745e4e18491e2'
p1664
sa(dp1665
g2
S'7158'
p1666
sg4
S'5692'
p1667
sg6
S'69c760a9f79b5d870de29b3e41d7b99d'
p1668
sg8
S'xx261ae21c73348075fa6bfe145803453e'
p1669
sg10
S'xx7c11889d568b644595fc506dc352723e'
p1670
sg12
S'xx70f16fb312003f3874f7aef96c54c83f'
p1671
sg14
S'Mozilla/5.0 (Linux; Android 4.4.4; A31 Build/KTU84P) AppleWebKit/537.36 (KHTML, like Gecko) Version/4.0 Chrome/37.0.0.0 Mobile MQQBrowser/6.8 TBS/036849 Safari/537.36 MicroMessenger/6.3.27.880 NetType/WIFI Language/zh_CN'
p1672
sg16
S'd7da8665b21ec6015c4745e4e18491e2'
p1673
sa(dp1674
g2
S'7158'
p1675
sg4
S'5709'
p1676
sg6
S'69c760a9f79b5d870de29b3e41d7b99d'
p1677
sg8
S'xx261ae21c73348075fa6bfe145803453e'
p1678
sg10
S'xx7c11889d568b644595fc506dc352723e'
p1679
sg12
S'xx70f16fb312003f3874f7aef96c54c83f'
p1680
sg14
S'Mozilla/5.0 (Linux; Android 4.4.4; A31 Build/KTU84P) AppleWebKit/537.36 (KHTML, like Gecko) Version/4.0 Chrome/37.0.0.0 Mobile MQQBrowser/6.8 TBS/036849 Safari/537.36 MicroMessenger/6.3.27.880 NetType/WIFI Language/zh_CN'
p1681
sg16
S'd7da8665b21ec6015c4745e4e18491e2'
p1682
sa(dp1683
g2
S'7158'
p1684
sg4
S'5726'
p1685
sg6
S'69c760a9f79b5d870de29b3e41d7b99d'
p1686
sg8
S'xx261ae21c73348075fa6bfe145803453e'
p1687
sg10
S'xx7c11889d568b644595fc506dc352723e'
p1688
sg12
S'xx70f16fb312003f3874f7aef96c54c83f'
p1689
sg14
S'Mozilla/5.0 (Linux; Android 4.4.4; A31 Build/KTU84P) AppleWebKit/537.36 (KHTML, like Gecko) Version/4.0 Chrome/37.0.0.0 Mobile MQQBrowser/6.8 TBS/036849 Safari/537.36 MicroMessenger/6.3.27.880 NetType/WIFI Language/zh_CN'
p1690
sg16
S'd7da8665b21ec6015c4745e4e18491e2'
p1691
sa(dp1692
g2
S'7158'
p1693
sg4
S'5739'
p1694
sg6
S'69c760a9f79b5d870de29b3e41d7b99d'
p1695
sg8
S'xx261ae21c73348075fa6bfe145803453e'
p1696
sg10
S'xx7c11889d568b644595fc506dc352723e'
p1697
sg12
S'xx70f16fb312003f3874f7aef96c54c83f'
p1698
sg14
S'Mozilla/5.0 (Linux; Android 4.4.4; A31 Build/KTU84P) AppleWebKit/537.36 (KHTML, like Gecko) Version/4.0 Chrome/37.0.0.0 Mobile MQQBrowser/6.8 TBS/036849 Safari/537.36 MicroMessenger/6.3.27.880 NetType/WIFI Language/zh_CN'
p1699
sg16
S'd7da8665b21ec6015c4745e4e18491e2'
p1700
sa(dp1701
g2
S'7158'
p1702
sg4
S'5757'
p1703
sg6
S'69c760a9f79b5d870de29b3e41d7b99d'
p1704
sg8
S'xx261ae21c73348075fa6bfe145803453e'
p1705
sg10
S'xx7c11889d568b644595fc506dc352723e'
p1706
sg12
S'xx70f16fb312003f3874f7aef96c54c83f'
p1707
sg14
S'Mozilla/5.0 (Linux; Android 4.4.4; A31 Build/KTU84P) AppleWebKit/537.36 (KHTML, like Gecko) Version/4.0 Chrome/37.0.0.0 Mobile MQQBrowser/6.8 TBS/036849 Safari/537.36 MicroMessenger/6.3.27.880 NetType/WIFI Language/zh_CN'
p1708
sg16
S'd7da8665b21ec6015c4745e4e18491e2'
p1709
sa(dp1710
g2
S'7158'
p1711
sg4
S'5774'
p1712
sg6
S'69c760a9f79b5d870de29b3e41d7b99d'
p1713
sg8
S'xx261ae21c73348075fa6bfe145803453e'
p1714
sg10
S'xx7c11889d568b644595fc506dc352723e'
p1715
sg12
S'xx70f16fb312003f3874f7aef96c54c83f'
p1716
sg14
S'Mozilla/5.0 (Linux; Android 4.4.4; A31 Build/KTU84P) AppleWebKit/537.36 (KHTML, like Gecko) Version/4.0 Chrome/37.0.0.0 Mobile MQQBrowser/6.8 TBS/036849 Safari/537.36 MicroMessenger/6.3.27.880 NetType/WIFI Language/zh_CN'
p1717
sg16
S'd7da8665b21ec6015c4745e4e18491e2'
p1718
sa(dp1719
g2
S'7158'
p1720
sg4
S'5793'
p1721
sg6
S'69c760a9f79b5d870de29b3e41d7b99d'
p1722
sg8
S'xx261ae21c73348075fa6bfe145803453e'
p1723
sg10
S'xx7c11889d568b644595fc506dc352723e'
p1724
sg12
S'xx70f16fb312003f3874f7aef96c54c83f'
p1725
sg14
S'Mozilla/5.0 (Linux; Android 4.4.4; A31 Build/KTU84P) AppleWebKit/537.36 (KHTML, like Gecko) Version/4.0 Chrome/37.0.0.0 Mobile MQQBrowser/6.8 TBS/036849 Safari/537.36 MicroMessenger/6.3.27.880 NetType/WIFI Language/zh_CN'
p1726
sg16
S'd7da8665b21ec6015c4745e4e18491e2'
p1727
sa(dp1728
g2
S'7158'
p1729
sg4
S'5811'
p1730
sg6
S'69c760a9f79b5d870de29b3e41d7b99d'
p1731
sg8
S'xx261ae21c73348075fa6bfe145803453e'
p1732
sg10
S'xx7c11889d568b644595fc506dc352723e'
p1733
sg12
S'xx70f16fb312003f3874f7aef96c54c83f'
p1734
sg14
S'Mozilla/5.0 (Linux; Android 4.4.4; A31 Build/KTU84P) AppleWebKit/537.36 (KHTML, like Gecko) Version/4.0 Chrome/37.0.0.0 Mobile MQQBrowser/6.8 TBS/036849 Safari/537.36 MicroMessenger/6.3.27.880 NetType/WIFI Language/zh_CN'
p1735
sg16
S'd7da8665b21ec6015c4745e4e18491e2'
p1736
sa(dp1737
g2
S'7158'
p1738
sg4
S'5835'
p1739
sg6
S'69c760a9f79b5d870de29b3e41d7b99d'
p1740
sg8
S'xx261ae21c73348075fa6bfe145803453e'
p1741
sg10
S'xx7c11889d568b644595fc506dc352723e'
p1742
sg12
S'xx70f16fb312003f3874f7aef96c54c83f'
p1743
sg14
S'Mozilla/5.0 (Linux; Android 4.4.4; A31 Build/KTU84P) AppleWebKit/537.36 (KHTML, like Gecko) Version/4.0 Chrome/37.0.0.0 Mobile MQQBrowser/6.8 TBS/036849 Safari/537.36 MicroMessenger/6.3.27.880 NetType/WIFI Language/zh_CN'
p1744
sg16
S'd7da8665b21ec6015c4745e4e18491e2'
p1745
sa(dp1746
g2
S'7158'
p1747
sg4
S'5847'
p1748
sg6
S'69c760a9f79b5d870de29b3e41d7b99d'
p1749
sg8
S'xx261ae21c73348075fa6bfe145803453e'
p1750
sg10
S'xx7c11889d568b644595fc506dc352723e'
p1751
sg12
S'xx70f16fb312003f3874f7aef96c54c83f'
p1752
sg14
S'Mozilla/5.0 (Linux; Android 4.4.4; A31 Build/KTU84P) AppleWebKit/537.36 (KHTML, like Gecko) Version/4.0 Chrome/37.0.0.0 Mobile MQQBrowser/6.8 TBS/036849 Safari/537.36 MicroMessenger/6.3.27.880 NetType/WIFI Language/zh_CN'
p1753
sg16
S'd7da8665b21ec6015c4745e4e18491e2'
p1754
sa(dp1755
g2
S'7158'
p1756
sg4
S'5857'
p1757
sg6
S'69c760a9f79b5d870de29b3e41d7b99d'
p1758
sg8
S'xx261ae21c73348075fa6bfe145803453e'
p1759
sg10
S'xx7c11889d568b644595fc506dc352723e'
p1760
sg12
S'xx70f16fb312003f3874f7aef96c54c83f'
p1761
sg14
S'Mozilla/5.0 (Linux; Android 4.4.4; A31 Build/KTU84P) AppleWebKit/537.36 (KHTML, like Gecko) Version/4.0 Chrome/37.0.0.0 Mobile MQQBrowser/6.8 TBS/036849 Safari/537.36 MicroMessenger/6.3.27.880 NetType/WIFI Language/zh_CN'
p1762
sg16
S'd7da8665b21ec6015c4745e4e18491e2'
p1763
sa(dp1764
g2
S'7158'
p1765
sg4
S'5897'
p1766
sg6
S'69c760a9f79b5d870de29b3e41d7b99d'
p1767
sg8
S'xx261ae21c73348075fa6bfe145803453e'
p1768
sg10
S'xx7c11889d568b644595fc506dc352723e'
p1769
sg12
S'xx70f16fb312003f3874f7aef96c54c83f'
p1770
sg14
S'Mozilla/5.0 (Linux; Android 4.4.4; A31 Build/KTU84P) AppleWebKit/537.36 (KHTML, like Gecko) Version/4.0 Chrome/37.0.0.0 Mobile MQQBrowser/6.8 TBS/036849 Safari/537.36 MicroMessenger/6.3.27.880 NetType/WIFI Language/zh_CN'
p1771
sg16
S'd7da8665b21ec6015c4745e4e18491e2'
p1772
sa(dp1773
g2
S'7158'
p1774
sg4
S'5914'
p1775
sg6
S'69c760a9f79b5d870de29b3e41d7b99d'
p1776
sg8
S'xx261ae21c73348075fa6bfe145803453e'
p1777
sg10
S'xx7c11889d568b644595fc506dc352723e'
p1778
sg12
S'xx70f16fb312003f3874f7aef96c54c83f'
p1779
sg14
S'Mozilla/5.0 (Linux; Android 4.4.4; A31 Build/KTU84P) AppleWebKit/537.36 (KHTML, like Gecko) Version/4.0 Chrome/37.0.0.0 Mobile MQQBrowser/6.8 TBS/036849 Safari/537.36 MicroMessenger/6.3.27.880 NetType/WIFI Language/zh_CN'
p1780
sg16
S'd7da8665b21ec6015c4745e4e18491e2'
p1781
sa(dp1782
g2
S'7158'
p1783
sg4
S'5933'
p1784
sg6
S'69c760a9f79b5d870de29b3e41d7b99d'
p1785
sg8
S'xx261ae21c73348075fa6bfe145803453e'
p1786
sg10
S'xx7c11889d568b644595fc506dc352723e'
p1787
sg12
S'xx70f16fb312003f3874f7aef96c54c83f'
p1788
sg14
S'Mozilla/5.0 (Linux; Android 4.4.4; A31 Build/KTU84P) AppleWebKit/537.36 (KHTML, like Gecko) Version/4.0 Chrome/37.0.0.0 Mobile MQQBrowser/6.8 TBS/036849 Safari/537.36 MicroMessenger/6.3.27.880 NetType/WIFI Language/zh_CN'
p1789
sg16
S'd7da8665b21ec6015c4745e4e18491e2'
p1790
sa(dp1791
g2
S'7158'
p1792
sg4
S'5950'
p1793
sg6
S'69c760a9f79b5d870de29b3e41d7b99d'
p1794
sg8
S'xx261ae21c73348075fa6bfe145803453e'
p1795
sg10
S'xx7c11889d568b644595fc506dc352723e'
p1796
sg12
S'xx70f16fb312003f3874f7aef96c54c83f'
p1797
sg14
S'Mozilla/5.0 (Linux; Android 4.4.4; A31 Build/KTU84P) AppleWebKit/537.36 (KHTML, like Gecko) Version/4.0 Chrome/37.0.0.0 Mobile MQQBrowser/6.8 TBS/036849 Safari/537.36 MicroMessenger/6.3.27.880 NetType/WIFI Language/zh_CN'
p1798
sg16
S'd7da8665b21ec6015c4745e4e18491e2'
p1799
sa(dp1800
g2
S'36139'
p1801
sg4
S'5975'
p1802
sg6
S'0d6e895df1b7595abf750b57e447465f'
p1803
sg8
S'xx752e771c350b69da35c8a96c300edc5d'
p1804
sg10
S'xx7c11889d568b644595fc506dc352723e'
p1805
sg12
S'xx70f16fb312003f3874f7aef96c54c83f'
p1806
sg14
S'Mozilla/5.0 (Linux; Android 4.4.4; A31 Build/KTU84P) AppleWebKit/537.36 (KHTML, like Gecko) Version/4.0 Chrome/37.0.0.0 Mobile MQQBrowser/6.8 TBS/036849 Safari/537.36 MicroMessenger/6.3.27.880 NetType/cmnet Language/zh_CN'
p1807
sg16
S'2c4c2305c61441fecaf04532d2f67b82'
p1808
sa(dp1809
g2
S'36139'
p1810
sg4
S'5991'
p1811
sg6
S'0d6e895df1b7595abf750b57e447465f'
p1812
sg8
S'xx752e771c350b69da35c8a96c300edc5d'
p1813
sg10
S'xx7c11889d568b644595fc506dc352723e'
p1814
sg12
S'xx70f16fb312003f3874f7aef96c54c83f'
p1815
sg14
S'Mozilla/5.0 (Linux; Android 4.4.4; A31 Build/KTU84P) AppleWebKit/537.36 (KHTML, like Gecko) Version/4.0 Chrome/37.0.0.0 Mobile MQQBrowser/6.8 TBS/036849 Safari/537.36 MicroMessenger/6.3.27.880 NetType/cmnet Language/zh_CN'
p1816
sg16
S'2c4c2305c61441fecaf04532d2f67b82'
p1817
sa(dp1818
g2
S'7158'
p1819
sg4
S'6011'
p1820
sg6
S'69c760a9f79b5d870de29b3e41d7b99d'
p1821
sg8
S'xx261ae21c73348075fa6bfe145803453e'
p1822
sg10
S'xx7c11889d568b644595fc506dc352723e'
p1823
sg12
S'xx70f16fb312003f3874f7aef96c54c83f'
p1824
sg14
S'Mozilla/5.0 (Linux; Android 4.4.4; A31 Build/KTU84P) AppleWebKit/537.36 (KHTML, like Gecko) Version/4.0 Chrome/37.0.0.0 Mobile MQQBrowser/6.8 TBS/036849 Safari/537.36 MicroMessenger/6.3.27.880 NetType/WIFI Language/zh_CN'
p1825
sg16
S'd7da8665b21ec6015c4745e4e18491e2'
p1826
sa(dp1827
g2
S'7158'
p1828
sg4
S'6022'
p1829
sg6
S'69c760a9f79b5d870de29b3e41d7b99d'
p1830
sg8
S'xx261ae21c73348075fa6bfe145803453e'
p1831
sg10
S'xx7c11889d568b644595fc506dc352723e'
p1832
sg12
S'xx70f16fb312003f3874f7aef96c54c83f'
p1833
sg14
S'Mozilla/5.0 (Linux; Android 4.4.4; A31 Build/KTU84P) AppleWebKit/537.36 (KHTML, like Gecko) Version/4.0 Chrome/37.0.0.0 Mobile MQQBrowser/6.8 TBS/036849 Safari/537.36 MicroMessenger/6.3.27.880 NetType/WIFI Language/zh_CN'
p1834
sg16
S'd7da8665b21ec6015c4745e4e18491e2'
p1835
sa(dp1836
g2
S'7158'
p1837
sg4
S'6033'
p1838
sg6
S'69c760a9f79b5d870de29b3e41d7b99d'
p1839
sg8
S'xx261ae21c73348075fa6bfe145803453e'
p1840
sg10
S'xx7c11889d568b644595fc506dc352723e'
p1841
sg12
S'xx70f16fb312003f3874f7aef96c54c83f'
p1842
sg14
S'Mozilla/5.0 (Linux; Android 4.4.4; A31 Build/KTU84P) AppleWebKit/537.36 (KHTML, like Gecko) Version/4.0 Chrome/37.0.0.0 Mobile MQQBrowser/6.8 TBS/036849 Safari/537.36 MicroMessenger/6.3.27.880 NetType/WIFI Language/zh_CN'
p1843
sg16
S'd7da8665b21ec6015c4745e4e18491e2'
p1844
sa(dp1845
g2
S'7158'
p1846
sg4
S'6046'
p1847
sg6
S'69c760a9f79b5d870de29b3e41d7b99d'
p1848
sg8
S'xx261ae21c73348075fa6bfe145803453e'
p1849
sg10
S'xx7c11889d568b644595fc506dc352723e'
p1850
sg12
S'xx70f16fb312003f3874f7aef96c54c83f'
p1851
sg14
S'Mozilla/5.0 (Linux; Android 4.4.4; A31 Build/KTU84P) AppleWebKit/537.36 (KHTML, like Gecko) Version/4.0 Chrome/37.0.0.0 Mobile MQQBrowser/6.8 TBS/036849 Safari/537.36 MicroMessenger/6.3.27.880 NetType/WIFI Language/zh_CN'
p1852
sg16
S'd7da8665b21ec6015c4745e4e18491e2'
p1853
sa(dp1854
g2
S'7158'
p1855
sg4
S'6079'
p1856
sg6
S'69c760a9f79b5d870de29b3e41d7b99d'
p1857
sg8
S'xx261ae21c73348075fa6bfe145803453e'
p1858
sg10
S'xx7c11889d568b644595fc506dc352723e'
p1859
sg12
S'xx70f16fb312003f3874f7aef96c54c83f'
p1860
sg14
S'Mozilla/5.0 (Linux; Android 4.4.4; A31 Build/KTU84P) AppleWebKit/537.36 (KHTML, like Gecko) Version/4.0 Chrome/37.0.0.0 Mobile MQQBrowser/6.8 TBS/036849 Safari/537.36 MicroMessenger/6.3.27.880 NetType/WIFI Language/zh_CN'
p1861
sg16
S'd7da8665b21ec6015c4745e4e18491e2'
p1862
sa(dp1863
g2
S'7158'
p1864
sg4
S'6095'
p1865
sg6
S'69c760a9f79b5d870de29b3e41d7b99d'
p1866
sg8
S'xx261ae21c73348075fa6bfe145803453e'
p1867
sg10
S'xx7c11889d568b644595fc506dc352723e'
p1868
sg12
S'xx70f16fb312003f3874f7aef96c54c83f'
p1869
sg14
S'Mozilla/5.0 (Linux; Android 4.4.4; A31 Build/KTU84P) AppleWebKit/537.36 (KHTML, like Gecko) Version/4.0 Chrome/37.0.0.0 Mobile MQQBrowser/6.8 TBS/036849 Safari/537.36 MicroMessenger/6.3.27.880 NetType/WIFI Language/zh_CN'
p1870
sg16
S'd7da8665b21ec6015c4745e4e18491e2'
p1871
sa(dp1872
g2
S'30508'
p1873
sg4
S'6099'
p1874
sg6
S'6b415139e3d8c4a4ed08169940815b46'
p1875
sg8
S'xx261ae21c73348075fa6bfe145803453e'
p1876
sg10
S'xx7c11889d568b644595fc506dc352723e'
p1877
sg12
S'xx70f16fb312003f3874f7aef96c54c83f'
p1878
sg14
S'Mozilla/5.0 (Linux; Android 4.4.4; A31 Build/KTU84P) AppleWebKit/537.36 (KHTML, like Gecko) Version/4.0 Chrome/37.0.0.0 Mobile MQQBrowser/6.8 TBS/036849 Safari/537.36 MicroMessenger/6.3.27.880 NetType/WIFI Language/zh_CN'
p1879
sg16
S'd7da8665b21ec6015c4745e4e18491e2'
p1880
sa(dp1881
g2
S'7158'
p1882
sg4
S'6113'
p1883
sg6
S'69c760a9f79b5d870de29b3e41d7b99d'
p1884
sg8
S'xx261ae21c73348075fa6bfe145803453e'
p1885
sg10
S'xx7c11889d568b644595fc506dc352723e'
p1886
sg12
S'xx70f16fb312003f3874f7aef96c54c83f'
p1887
sg14
S'Mozilla/5.0 (Linux; Android 4.4.4; A31 Build/KTU84P) AppleWebKit/537.36 (KHTML, like Gecko) Version/4.0 Chrome/37.0.0.0 Mobile MQQBrowser/6.8 TBS/036849 Safari/537.36 MicroMessenger/6.3.27.880 NetType/WIFI Language/zh_CN'
p1888
sg16
S'd7da8665b21ec6015c4745e4e18491e2'
p1889
sa(dp1890
g2
S'30508'
p1891
sg4
S'6115'
p1892
sg6
S'6b415139e3d8c4a4ed08169940815b46'
p1893
sg8
S'xx261ae21c73348075fa6bfe145803453e'
p1894
sg10
S'xx7c11889d568b644595fc506dc352723e'
p1895
sg12
S'xx70f16fb312003f3874f7aef96c54c83f'
p1896
sg14
S'Mozilla/5.0 (Linux; Android 4.4.4; A31 Build/KTU84P) AppleWebKit/537.36 (KHTML, like Gecko) Version/4.0 Chrome/37.0.0.0 Mobile MQQBrowser/6.8 TBS/036849 Safari/537.36 MicroMessenger/6.3.27.880 NetType/WIFI Language/zh_CN'
p1897
sg16
S'd7da8665b21ec6015c4745e4e18491e2'
p1898
sa(dp1899
g2
S'30508'
p1900
sg4
S'6138'
p1901
sg6
S'6b415139e3d8c4a4ed08169940815b46'
p1902
sg8
S'xx261ae21c73348075fa6bfe145803453e'
p1903
sg10
S'xx7c11889d568b644595fc506dc352723e'
p1904
sg12
S'xx70f16fb312003f3874f7aef96c54c83f'
p1905
sg14
S'Mozilla/5.0 (Linux; Android 4.4.4; A31 Build/KTU84P) AppleWebKit/537.36 (KHTML, like Gecko) Version/4.0 Chrome/37.0.0.0 Mobile MQQBrowser/6.8 TBS/036849 Safari/537.36 MicroMessenger/6.3.27.880 NetType/WIFI Language/zh_CN'
p1906
sg16
S'd7da8665b21ec6015c4745e4e18491e2'
p1907
sa(dp1908
g2
S'30508'
p1909
sg4
S'6151'
p1910
sg6
S'6b415139e3d8c4a4ed08169940815b46'
p1911
sg8
S'xx261ae21c73348075fa6bfe145803453e'
p1912
sg10
S'xx7c11889d568b644595fc506dc352723e'
p1913
sg12
S'xx70f16fb312003f3874f7aef96c54c83f'
p1914
sg14
S'Mozilla/5.0 (Linux; Android 4.4.4; A31 Build/KTU84P) AppleWebKit/537.36 (KHTML, like Gecko) Version/4.0 Chrome/37.0.0.0 Mobile MQQBrowser/6.8 TBS/036849 Safari/537.36 MicroMessenger/6.3.27.880 NetType/WIFI Language/zh_CN'
p1915
sg16
S'd7da8665b21ec6015c4745e4e18491e2'
p1916
sa(dp1917
g2
S'7158'
p1918
sg4
S'6164'
p1919
sg6
S'69c760a9f79b5d870de29b3e41d7b99d'
p1920
sg8
S'xx261ae21c73348075fa6bfe145803453e'
p1921
sg10
S'xx7c11889d568b644595fc506dc352723e'
p1922
sg12
S'xx70f16fb312003f3874f7aef96c54c83f'
p1923
sg14
S'Mozilla/5.0 (Linux; Android 4.4.4; A31 Build/KTU84P) AppleWebKit/537.36 (KHTML, like Gecko) Version/4.0 Chrome/37.0.0.0 Mobile MQQBrowser/6.8 TBS/036849 Safari/537.36 MicroMessenger/6.3.27.880 NetType/WIFI Language/zh_CN'
p1924
sg16
S'd7da8665b21ec6015c4745e4e18491e2'
p1925
sa(dp1926
g2
S'7158'
p1927
sg4
S'6177'
p1928
sg6
S'69c760a9f79b5d870de29b3e41d7b99d'
p1929
sg8
S'xx261ae21c73348075fa6bfe145803453e'
p1930
sg10
S'xx7c11889d568b644595fc506dc352723e'
p1931
sg12
S'xx70f16fb312003f3874f7aef96c54c83f'
p1932
sg14
S'Mozilla/5.0 (Linux; Android 4.4.4; A31 Build/KTU84P) AppleWebKit/537.36 (KHTML, like Gecko) Version/4.0 Chrome/37.0.0.0 Mobile MQQBrowser/6.8 TBS/036849 Safari/537.36 MicroMessenger/6.3.27.880 NetType/WIFI Language/zh_CN'
p1933
sg16
S'd7da8665b21ec6015c4745e4e18491e2'
p1934
sa(dp1935
g2
S'7158'
p1936
sg4
S'6192'
p1937
sg6
S'69c760a9f79b5d870de29b3e41d7b99d'
p1938
sg8
S'xx261ae21c73348075fa6bfe145803453e'
p1939
sg10
S'xx7c11889d568b644595fc506dc352723e'
p1940
sg12
S'xx70f16fb312003f3874f7aef96c54c83f'
p1941
sg14
S'Mozilla/5.0 (Linux; Android 4.4.4; A31 Build/KTU84P) AppleWebKit/537.36 (KHTML, like Gecko) Version/4.0 Chrome/37.0.0.0 Mobile MQQBrowser/6.8 TBS/036849 Safari/537.36 MicroMessenger/6.3.27.880 NetType/WIFI Language/zh_CN'
p1942
sg16
S'd7da8665b21ec6015c4745e4e18491e2'
p1943
sa(dp1944
g2
S'7158'
p1945
sg4
S'6208'
p1946
sg6
S'69c760a9f79b5d870de29b3e41d7b99d'
p1947
sg8
S'xx261ae21c73348075fa6bfe145803453e'
p1948
sg10
S'xx7c11889d568b644595fc506dc352723e'
p1949
sg12
S'xx70f16fb312003f3874f7aef96c54c83f'
p1950
sg14
S'Mozilla/5.0 (Linux; Android 4.4.4; A31 Build/KTU84P) AppleWebKit/537.36 (KHTML, like Gecko) Version/4.0 Chrome/37.0.0.0 Mobile MQQBrowser/6.8 TBS/036849 Safari/537.36 MicroMessenger/6.3.27.880 NetType/WIFI Language/zh_CN'
p1951
sg16
S'd7da8665b21ec6015c4745e4e18491e2'
p1952
sa(dp1953
g2
S'30508'
p1954
sg4
S'6218'
p1955
sg6
S'6b415139e3d8c4a4ed08169940815b46'
p1956
sg8
S'xx261ae21c73348075fa6bfe145803453e'
p1957
sg10
S'xx7c11889d568b644595fc506dc352723e'
p1958
sg12
S'xx70f16fb312003f3874f7aef96c54c83f'
p1959
sg14
S'Mozilla/5.0 (Linux; Android 4.4.4; A31 Build/KTU84P) AppleWebKit/537.36 (KHTML, like Gecko) Version/4.0 Chrome/37.0.0.0 Mobile MQQBrowser/6.8 TBS/036849 Safari/537.36 MicroMessenger/6.3.27.880 NetType/WIFI Language/zh_CN'
p1960
sg16
S'd7da8665b21ec6015c4745e4e18491e2'
p1961
sa(dp1962
g2
S'7158'
p1963
sg4
S'6223'
p1964
sg6
S'69c760a9f79b5d870de29b3e41d7b99d'
p1965
sg8
S'xx261ae21c73348075fa6bfe145803453e'
p1966
sg10
S'xx7c11889d568b644595fc506dc352723e'
p1967
sg12
S'xx70f16fb312003f3874f7aef96c54c83f'
p1968
sg14
S'Mozilla/5.0 (Linux; Android 4.4.4; A31 Build/KTU84P) AppleWebKit/537.36 (KHTML, like Gecko) Version/4.0 Chrome/37.0.0.0 Mobile MQQBrowser/6.8 TBS/036849 Safari/537.36 MicroMessenger/6.3.27.880 NetType/WIFI Language/zh_CN'
p1969
sg16
S'd7da8665b21ec6015c4745e4e18491e2'
p1970
sa(dp1971
g2
S'30508'
p1972
sg4
S'6233'
p1973
sg6
S'6b415139e3d8c4a4ed08169940815b46'
p1974
sg8
S'xx261ae21c73348075fa6bfe145803453e'
p1975
sg10
S'xx7c11889d568b644595fc506dc352723e'
p1976
sg12
S'xx70f16fb312003f3874f7aef96c54c83f'
p1977
sg14
S'Mozilla/5.0 (Linux; Android 4.4.4; A31 Build/KTU84P) AppleWebKit/537.36 (KHTML, like Gecko) Version/4.0 Chrome/37.0.0.0 Mobile MQQBrowser/6.8 TBS/036849 Safari/537.36 MicroMessenger/6.3.27.880 NetType/WIFI Language/zh_CN'
p1978
sg16
S'd7da8665b21ec6015c4745e4e18491e2'
p1979
sa(dp1980
g2
S'30508'
p1981
sg4
S'6246'
p1982
sg6
S'6b415139e3d8c4a4ed08169940815b46'
p1983
sg8
S'xx261ae21c73348075fa6bfe145803453e'
p1984
sg10
S'xx7c11889d568b644595fc506dc352723e'
p1985
sg12
S'xx70f16fb312003f3874f7aef96c54c83f'
p1986
sg14
S'Mozilla/5.0 (Linux; Android 4.4.4; A31 Build/KTU84P) AppleWebKit/537.36 (KHTML, like Gecko) Version/4.0 Chrome/37.0.0.0 Mobile MQQBrowser/6.8 TBS/036849 Safari/537.36 MicroMessenger/6.3.27.880 NetType/WIFI Language/zh_CN'
p1987
sg16
S'd7da8665b21ec6015c4745e4e18491e2'
p1988
sa(dp1989
g2
S'30508'
p1990
sg4
S'6268'
p1991
sg6
S'6b415139e3d8c4a4ed08169940815b46'
p1992
sg8
S'xx261ae21c73348075fa6bfe145803453e'
p1993
sg10
S'xx7c11889d568b644595fc506dc352723e'
p1994
sg12
S'xx70f16fb312003f3874f7aef96c54c83f'
p1995
sg14
S'Mozilla/5.0 (Linux; Android 4.4.4; A31 Build/KTU84P) AppleWebKit/537.36 (KHTML, like Gecko) Version/4.0 Chrome/37.0.0.0 Mobile MQQBrowser/6.8 TBS/036849 Safari/537.36 MicroMessenger/6.3.27.880 NetType/WIFI Language/zh_CN'
p1996
sg16
S'd7da8665b21ec6015c4745e4e18491e2'
p1997
sa(dp1998
g2
S'30508'
p1999
sg4
S'6277'
p2000
sg6
S'6b415139e3d8c4a4ed08169940815b46'
p2001
sg8
S'xx261ae21c73348075fa6bfe145803453e'
p2002
sg10
S'xx7c11889d568b644595fc506dc352723e'
p2003
sg12
S'xx70f16fb312003f3874f7aef96c54c83f'
p2004
sg14
S'Mozilla/5.0 (Linux; Android 4.4.4; A31 Build/KTU84P) AppleWebKit/537.36 (KHTML, like Gecko) Version/4.0 Chrome/37.0.0.0 Mobile MQQBrowser/6.8 TBS/036849 Safari/537.36 MicroMessenger/6.3.27.880 NetType/WIFI Language/zh_CN'
p2005
sg16
S'd7da8665b21ec6015c4745e4e18491e2'
p2006
sa(dp2007
g2
S'7158'
p2008
sg4
S'6282'
p2009
sg6
S'69c760a9f79b5d870de29b3e41d7b99d'
p2010
sg8
S'xx261ae21c73348075fa6bfe145803453e'
p2011
sg10
S'xx7c11889d568b644595fc506dc352723e'
p2012
sg12
S'xx70f16fb312003f3874f7aef96c54c83f'
p2013
sg14
S'Mozilla/5.0 (Linux; Android 4.4.4; A31 Build/KTU84P) AppleWebKit/537.36 (KHTML, like Gecko) Version/4.0 Chrome/37.0.0.0 Mobile MQQBrowser/6.8 TBS/036849 Safari/537.36 MicroMessenger/6.3.27.880 NetType/WIFI Language/zh_CN'
p2014
sg16
S'd7da8665b21ec6015c4745e4e18491e2'
p2015
sa(dp2016
g2
S'7158'
p2017
sg4
S'6294'
p2018
sg6
S'69c760a9f79b5d870de29b3e41d7b99d'
p2019
sg8
S'xx261ae21c73348075fa6bfe145803453e'
p2020
sg10
S'xx7c11889d568b644595fc506dc352723e'
p2021
sg12
S'xx70f16fb312003f3874f7aef96c54c83f'
p2022
sg14
S'Mozilla/5.0 (Linux; Android 4.4.4; A31 Build/KTU84P) AppleWebKit/537.36 (KHTML, like Gecko) Version/4.0 Chrome/37.0.0.0 Mobile MQQBrowser/6.8 TBS/036849 Safari/537.36 MicroMessenger/6.3.27.880 NetType/WIFI Language/zh_CN'
p2023
sg16
S'd7da8665b21ec6015c4745e4e18491e2'
p2024
sa(dp2025
g2
S'30508'
p2026
sg4
S'6298'
p2027
sg6
S'6b415139e3d8c4a4ed08169940815b46'
p2028
sg8
S'xx261ae21c73348075fa6bfe145803453e'
p2029
sg10
S'xx7c11889d568b644595fc506dc352723e'
p2030
sg12
S'xx70f16fb312003f3874f7aef96c54c83f'
p2031
sg14
S'Mozilla/5.0 (Linux; Android 4.4.4; A31 Build/KTU84P) AppleWebKit/537.36 (KHTML, like Gecko) Version/4.0 Chrome/37.0.0.0 Mobile MQQBrowser/6.8 TBS/036849 Safari/537.36 MicroMessenger/6.3.27.880 NetType/WIFI Language/zh_CN'
p2032
sg16
S'd7da8665b21ec6015c4745e4e18491e2'
p2033
sa(dp2034
g2
S'30508'
p2035
sg4
S'6311'
p2036
sg6
S'6b415139e3d8c4a4ed08169940815b46'
p2037
sg8
S'xx261ae21c73348075fa6bfe145803453e'
p2038
sg10
S'xx7c11889d568b644595fc506dc352723e'
p2039
sg12
S'xx70f16fb312003f3874f7aef96c54c83f'
p2040
sg14
S'Mozilla/5.0 (Linux; Android 4.4.4; A31 Build/KTU84P) AppleWebKit/537.36 (KHTML, like Gecko) Version/4.0 Chrome/37.0.0.0 Mobile MQQBrowser/6.8 TBS/036849 Safari/537.36 MicroMessenger/6.3.27.880 NetType/WIFI Language/zh_CN'
p2041
sg16
S'd7da8665b21ec6015c4745e4e18491e2'
p2042
sa(dp2043
g2
S'30508'
p2044
sg4
S'6329'
p2045
sg6
S'6b415139e3d8c4a4ed08169940815b46'
p2046
sg8
S'xx261ae21c73348075fa6bfe145803453e'
p2047
sg10
S'xx7c11889d568b644595fc506dc352723e'
p2048
sg12
S'xx70f16fb312003f3874f7aef96c54c83f'
p2049
sg14
S'Mozilla/5.0 (Linux; Android 4.4.4; A31 Build/KTU84P) AppleWebKit/537.36 (KHTML, like Gecko) Version/4.0 Chrome/37.0.0.0 Mobile MQQBrowser/6.8 TBS/036849 Safari/537.36 MicroMessenger/6.3.27.880 NetType/WIFI Language/zh_CN'
p2050
sg16
S'd7da8665b21ec6015c4745e4e18491e2'
p2051
sa(dp2052
g2
S'7158'
p2053
sg4
S'6361'
p2054
sg6
S'69c760a9f79b5d870de29b3e41d7b99d'
p2055
sg8
S'xx261ae21c73348075fa6bfe145803453e'
p2056
sg10
S'xx7c11889d568b644595fc506dc352723e'
p2057
sg12
S'xx70f16fb312003f3874f7aef96c54c83f'
p2058
sg14
S'Mozilla/5.0 (Linux; Android 4.4.4; A31 Build/KTU84P) AppleWebKit/537.36 (KHTML, like Gecko) Version/4.0 Chrome/37.0.0.0 Mobile MQQBrowser/6.8 TBS/036849 Safari/537.36 MicroMessenger/6.3.27.880 NetType/WIFI Language/zh_CN'
p2059
sg16
S'd7da8665b21ec6015c4745e4e18491e2'
p2060
sa(dp2061
g2
S'36793'
p2062
sg4
S'6367'
p2063
sg6
S'031fa0c2a5151c69be2ddcd87198bd1f'
p2064
sg8
S'xx261ae21c73348075fa6bfe145803453e'
p2065
sg10
S'xx7c11889d568b644595fc506dc352723e'
p2066
sg12
S'xx70f16fb312003f3874f7aef96c54c83f'
p2067
sg14
S'Mozilla/5.0 (Linux; Android 4.4.4; A31 Build/KTU84P) AppleWebKit/537.36 (KHTML, like Gecko) Version/4.0 Chrome/37.0.0.0 Mobile MQQBrowser/6.8 TBS/036849 Safari/537.36 MicroMessenger/6.3.27.880 NetType/WIFI Language/zh_CN'
p2068
sg16
S'd7da8665b21ec6015c4745e4e18491e2'
p2069
sa(dp2070
g2
S'7158'
p2071
sg4
S'6375'
p2072
sg6
S'69c760a9f79b5d870de29b3e41d7b99d'
p2073
sg8
S'xx261ae21c73348075fa6bfe145803453e'
p2074
sg10
S'xx7c11889d568b644595fc506dc352723e'
p2075
sg12
S'xx70f16fb312003f3874f7aef96c54c83f'
p2076
sg14
S'Mozilla/5.0 (Linux; Android 4.4.4; A31 Build/KTU84P) AppleWebKit/537.36 (KHTML, like Gecko) Version/4.0 Chrome/37.0.0.0 Mobile MQQBrowser/6.8 TBS/036849 Safari/537.36 MicroMessenger/6.3.27.880 NetType/WIFI Language/zh_CN'
p2077
sg16
S'd7da8665b21ec6015c4745e4e18491e2'
p2078
sa(dp2079
g2
S'36793'
p2080
sg4
S'6383'
p2081
sg6
S'031fa0c2a5151c69be2ddcd87198bd1f'
p2082
sg8
S'xx261ae21c73348075fa6bfe145803453e'
p2083
sg10
S'xx7c11889d568b644595fc506dc352723e'
p2084
sg12
S'xx70f16fb312003f3874f7aef96c54c83f'
p2085
sg14
S'Mozilla/5.0 (Linux; Android 4.4.4; A31 Build/KTU84P) AppleWebKit/537.36 (KHTML, like Gecko) Version/4.0 Chrome/37.0.0.0 Mobile MQQBrowser/6.8 TBS/036849 Safari/537.36 MicroMessenger/6.3.27.880 NetType/WIFI Language/zh_CN'
p2086
sg16
S'd7da8665b21ec6015c4745e4e18491e2'
p2087
sa(dp2088
g2
S'7158'
p2089
sg4
S'6393'
p2090
sg6
S'69c760a9f79b5d870de29b3e41d7b99d'
p2091
sg8
S'xx261ae21c73348075fa6bfe145803453e'
p2092
sg10
S'xx7c11889d568b644595fc506dc352723e'
p2093
sg12
S'xx70f16fb312003f3874f7aef96c54c83f'
p2094
sg14
S'Mozilla/5.0 (Linux; Android 4.4.4; A31 Build/KTU84P) AppleWebKit/537.36 (KHTML, like Gecko) Version/4.0 Chrome/37.0.0.0 Mobile MQQBrowser/6.8 TBS/036849 Safari/537.36 MicroMessenger/6.3.27.880 NetType/WIFI Language/zh_CN'
p2095
sg16
S'd7da8665b21ec6015c4745e4e18491e2'
p2096
sa(dp2097
g2
S'36793'
p2098
sg4
S'6400'
p2099
sg6
S'031fa0c2a5151c69be2ddcd87198bd1f'
p2100
sg8
S'xx261ae21c73348075fa6bfe145803453e'
p2101
sg10
S'xx7c11889d568b644595fc506dc352723e'
p2102
sg12
S'xx70f16fb312003f3874f7aef96c54c83f'
p2103
sg14
S'Mozilla/5.0 (Linux; Android 4.4.4; A31 Build/KTU84P) AppleWebKit/537.36 (KHTML, like Gecko) Version/4.0 Chrome/37.0.0.0 Mobile MQQBrowser/6.8 TBS/036849 Safari/537.36 MicroMessenger/6.3.27.880 NetType/WIFI Language/zh_CN'
p2104
sg16
S'd7da8665b21ec6015c4745e4e18491e2'
p2105
sa(dp2106
g2
S'7158'
p2107
sg4
S'6445'
p2108
sg6
S'69c760a9f79b5d870de29b3e41d7b99d'
p2109
sg8
S'xx261ae21c73348075fa6bfe145803453e'
p2110
sg10
S'xx7c11889d568b644595fc506dc352723e'
p2111
sg12
S'xx70f16fb312003f3874f7aef96c54c83f'
p2112
sg14
S'Mozilla/5.0 (Linux; Android 4.4.4; A31 Build/KTU84P) AppleWebKit/537.36 (KHTML, like Gecko) Version/4.0 Chrome/37.0.0.0 Mobile MQQBrowser/6.8 TBS/036849 Safari/537.36 MicroMessenger/6.3.27.880 NetType/WIFI Language/zh_CN'
p2113
sg16
S'd7da8665b21ec6015c4745e4e18491e2'
p2114
sa(dp2115
g2
S'7158'
p2116
sg4
S'6476'
p2117
sg6
S'69c760a9f79b5d870de29b3e41d7b99d'
p2118
sg8
S'xx261ae21c73348075fa6bfe145803453e'
p2119
sg10
S'xx7c11889d568b644595fc506dc352723e'
p2120
sg12
S'xx70f16fb312003f3874f7aef96c54c83f'
p2121
sg14
S'Mozilla/5.0 (Linux; Android 4.4.4; A31 Build/KTU84P) AppleWebKit/537.36 (KHTML, like Gecko) Version/4.0 Chrome/37.0.0.0 Mobile MQQBrowser/6.8 TBS/036849 Safari/537.36 MicroMessenger/6.3.27.880 NetType/WIFI Language/zh_CN'
p2122
sg16
S'd7da8665b21ec6015c4745e4e18491e2'
p2123
sa(dp2124
g2
S'7158'
p2125
sg4
S'6491'
p2126
sg6
S'69c760a9f79b5d870de29b3e41d7b99d'
p2127
sg8
S'xx261ae21c73348075fa6bfe145803453e'
p2128
sg10
S'xx7c11889d568b644595fc506dc352723e'
p2129
sg12
S'xx70f16fb312003f3874f7aef96c54c83f'
p2130
sg14
S'Mozilla/5.0 (Linux; Android 4.4.4; A31 Build/KTU84P) AppleWebKit/537.36 (KHTML, like Gecko) Version/4.0 Chrome/37.0.0.0 Mobile MQQBrowser/6.8 TBS/036849 Safari/537.36 MicroMessenger/6.3.27.880 NetType/WIFI Language/zh_CN'
p2131
sg16
S'd7da8665b21ec6015c4745e4e18491e2'
p2132
sa(dp2133
g2
S'7158'
p2134
sg4
S'6507'
p2135
sg6
S'69c760a9f79b5d870de29b3e41d7b99d'
p2136
sg8
S'xx261ae21c73348075fa6bfe145803453e'
p2137
sg10
S'xx7c11889d568b644595fc506dc352723e'
p2138
sg12
S'xx70f16fb312003f3874f7aef96c54c83f'
p2139
sg14
S'Mozilla/5.0 (Linux; Android 4.4.4; A31 Build/KTU84P) AppleWebKit/537.36 (KHTML, like Gecko) Version/4.0 Chrome/37.0.0.0 Mobile MQQBrowser/6.8 TBS/036849 Safari/537.36 MicroMessenger/6.3.27.880 NetType/WIFI Language/zh_CN'
p2140
sg16
S'd7da8665b21ec6015c4745e4e18491e2'
p2141
sa(dp2142
g2
S'36139'
p2143
sg4
S'6516'
p2144
sg6
S'0d6e895df1b7595abf750b57e447465f'
p2145
sg8
S'xx752e771c350b69da35c8a96c300edc5d'
p2146
sg10
S'xx7c11889d568b644595fc506dc352723e'
p2147
sg12
S'xx70f16fb312003f3874f7aef96c54c83f'
p2148
sg14
S'Mozilla/5.0 (Linux; Android 4.4.4; A31 Build/KTU84P) AppleWebKit/537.36 (KHTML, like Gecko) Version/4.0 Chrome/37.0.0.0 Mobile MQQBrowser/6.8 TBS/036849 Safari/537.36 MicroMessenger/6.3.27.880 NetType/cmnet Language/zh_CN'
p2149
sg16
S'2c4c2305c61441fecaf04532d2f67b82'
p2150
sa(dp2151
g2
S'7158'
p2152
sg4
S'6527'
p2153
sg6
S'69c760a9f79b5d870de29b3e41d7b99d'
p2154
sg8
S'xx261ae21c73348075fa6bfe145803453e'
p2155
sg10
S'xx7c11889d568b644595fc506dc352723e'
p2156
sg12
S'xx70f16fb312003f3874f7aef96c54c83f'
p2157
sg14
S'Mozilla/5.0 (Linux; Android 4.4.4; A31 Build/KTU84P) AppleWebKit/537.36 (KHTML, like Gecko) Version/4.0 Chrome/37.0.0.0 Mobile MQQBrowser/6.8 TBS/036849 Safari/537.36 MicroMessenger/6.3.27.880 NetType/WIFI Language/zh_CN'
p2158
sg16
S'd7da8665b21ec6015c4745e4e18491e2'
p2159
sa(dp2160
g2
S'7158'
p2161
sg4
S'6548'
p2162
sg6
S'69c760a9f79b5d870de29b3e41d7b99d'
p2163
sg8
S'xx261ae21c73348075fa6bfe145803453e'
p2164
sg10
S'xx7c11889d568b644595fc506dc352723e'
p2165
sg12
S'xx70f16fb312003f3874f7aef96c54c83f'
p2166
sg14
S'Mozilla/5.0 (Linux; Android 4.4.4; A31 Build/KTU84P) AppleWebKit/537.36 (KHTML, like Gecko) Version/4.0 Chrome/37.0.0.0 Mobile MQQBrowser/6.8 TBS/036849 Safari/537.36 MicroMessenger/6.3.27.880 NetType/WIFI Language/zh_CN'
p2167
sg16
S'd7da8665b21ec6015c4745e4e18491e2'
p2168
sa(dp2169
g2
S'7158'
p2170
sg4
S'6570'
p2171
sg6
S'69c760a9f79b5d870de29b3e41d7b99d'
p2172
sg8
S'xx261ae21c73348075fa6bfe145803453e'
p2173
sg10
S'xx7c11889d568b644595fc506dc352723e'
p2174
sg12
S'xx70f16fb312003f3874f7aef96c54c83f'
p2175
sg14
S'Mozilla/5.0 (Linux; Android 4.4.4; A31 Build/KTU84P) AppleWebKit/537.36 (KHTML, like Gecko) Version/4.0 Chrome/37.0.0.0 Mobile MQQBrowser/6.8 TBS/036849 Safari/537.36 MicroMessenger/6.3.27.880 NetType/WIFI Language/zh_CN'
p2176
sg16
S'd7da8665b21ec6015c4745e4e18491e2'
p2177
sa(dp2178
g2
S'7158'
p2179
sg4
S'6584'
p2180
sg6
S'69c760a9f79b5d870de29b3e41d7b99d'
p2181
sg8
S'xx261ae21c73348075fa6bfe145803453e'
p2182
sg10
S'xx7c11889d568b644595fc506dc352723e'
p2183
sg12
S'xx70f16fb312003f3874f7aef96c54c83f'
p2184
sg14
S'Mozilla/5.0 (Linux; Android 4.4.4; A31 Build/KTU84P) AppleWebKit/537.36 (KHTML, like Gecko) Version/4.0 Chrome/37.0.0.0 Mobile MQQBrowser/6.8 TBS/036849 Safari/537.36 MicroMessenger/6.3.27.880 NetType/WIFI Language/zh_CN'
p2185
sg16
S'd7da8665b21ec6015c4745e4e18491e2'
p2186
sa(dp2187
g2
S'7158'
p2188
sg4
S'6602'
p2189
sg6
S'69c760a9f79b5d870de29b3e41d7b99d'
p2190
sg8
S'xx261ae21c73348075fa6bfe145803453e'
p2191
sg10
S'xx7c11889d568b644595fc506dc352723e'
p2192
sg12
S'xx70f16fb312003f3874f7aef96c54c83f'
p2193
sg14
S'Mozilla/5.0 (Linux; Android 4.4.4; A31 Build/KTU84P) AppleWebKit/537.36 (KHTML, like Gecko) Version/4.0 Chrome/37.0.0.0 Mobile MQQBrowser/6.8 TBS/036849 Safari/537.36 MicroMessenger/6.3.27.880 NetType/WIFI Language/zh_CN'
p2194
sg16
S'd7da8665b21ec6015c4745e4e18491e2'
p2195
sa(dp2196
g2
S'30508'
p2197
sg4
S'6605'
p2198
sg6
S'6b415139e3d8c4a4ed08169940815b46'
p2199
sg8
S'xx261ae21c73348075fa6bfe145803453e'
p2200
sg10
S'xx7c11889d568b644595fc506dc352723e'
p2201
sg12
S'xx70f16fb312003f3874f7aef96c54c83f'
p2202
sg14
S'Mozilla/5.0 (Linux; Android 4.4.4; A31 Build/KTU84P) AppleWebKit/537.36 (KHTML, like Gecko) Version/4.0 Chrome/37.0.0.0 Mobile MQQBrowser/6.8 TBS/036849 Safari/537.36 MicroMessenger/6.3.27.880 NetType/WIFI Language/zh_CN'
p2203
sg16
S'd7da8665b21ec6015c4745e4e18491e2'
p2204
sa(dp2205
g2
S'7158'
p2206
sg4
S'6616'
p2207
sg6
S'69c760a9f79b5d870de29b3e41d7b99d'
p2208
sg8
S'xx261ae21c73348075fa6bfe145803453e'
p2209
sg10
S'xx7c11889d568b644595fc506dc352723e'
p2210
sg12
S'xx70f16fb312003f3874f7aef96c54c83f'
p2211
sg14
S'Mozilla/5.0 (Linux; Android 4.4.4; A31 Build/KTU84P) AppleWebKit/537.36 (KHTML, like Gecko) Version/4.0 Chrome/37.0.0.0 Mobile MQQBrowser/6.8 TBS/036849 Safari/537.36 MicroMessenger/6.3.27.880 NetType/WIFI Language/zh_CN'
p2212
sg16
S'd7da8665b21ec6015c4745e4e18491e2'
p2213
sa(dp2214
g2
S'30508'
p2215
sg4
S'6618'
p2216
sg6
S'6b415139e3d8c4a4ed08169940815b46'
p2217
sg8
S'xx261ae21c73348075fa6bfe145803453e'
p2218
sg10
S'xx7c11889d568b644595fc506dc352723e'
p2219
sg12
S'xx70f16fb312003f3874f7aef96c54c83f'
p2220
sg14
S'Mozilla/5.0 (Linux; Android 4.4.4; A31 Build/KTU84P) AppleWebKit/537.36 (KHTML, like Gecko) Version/4.0 Chrome/37.0.0.0 Mobile MQQBrowser/6.8 TBS/036849 Safari/537.36 MicroMessenger/6.3.27.880 NetType/WIFI Language/zh_CN'
p2221
sg16
S'd7da8665b21ec6015c4745e4e18491e2'
p2222
sa(dp2223
g2
S'30508'
p2224
sg4
S'6643'
p2225
sg6
S'6b415139e3d8c4a4ed08169940815b46'
p2226
sg8
S'xx261ae21c73348075fa6bfe145803453e'
p2227
sg10
S'xx7c11889d568b644595fc506dc352723e'
p2228
sg12
S'xx70f16fb312003f3874f7aef96c54c83f'
p2229
sg14
S'Mozilla/5.0 (Linux; Android 4.4.4; A31 Build/KTU84P) AppleWebKit/537.36 (KHTML, like Gecko) Version/4.0 Chrome/37.0.0.0 Mobile MQQBrowser/6.8 TBS/036849 Safari/537.36 MicroMessenger/6.3.27.880 NetType/WIFI Language/zh_CN'
p2230
sg16
S'd7da8665b21ec6015c4745e4e18491e2'
p2231
sa(dp2232
g2
S'7158'
p2233
sg4
S'6645'
p2234
sg6
S'69c760a9f79b5d870de29b3e41d7b99d'
p2235
sg8
S'xx261ae21c73348075fa6bfe145803453e'
p2236
sg10
S'xx7c11889d568b644595fc506dc352723e'
p2237
sg12
S'xx70f16fb312003f3874f7aef96c54c83f'
p2238
sg14
S'Mozilla/5.0 (Linux; Android 4.4.4; A31 Build/KTU84P) AppleWebKit/537.36 (KHTML, like Gecko) Version/4.0 Chrome/37.0.0.0 Mobile MQQBrowser/6.8 TBS/036849 Safari/537.36 MicroMessenger/6.3.27.880 NetType/WIFI Language/zh_CN'
p2239
sg16
S'd7da8665b21ec6015c4745e4e18491e2'
p2240
sa(dp2241
g2
S'30508'
p2242
sg4
S'6663'
p2243
sg6
S'6b415139e3d8c4a4ed08169940815b46'
p2244
sg8
S'xx261ae21c73348075fa6bfe145803453e'
p2245
sg10
S'xx7c11889d568b644595fc506dc352723e'
p2246
sg12
S'xx70f16fb312003f3874f7aef96c54c83f'
p2247
sg14
S'Mozilla/5.0 (Linux; Android 4.4.4; A31 Build/KTU84P) AppleWebKit/537.36 (KHTML, like Gecko) Version/4.0 Chrome/37.0.0.0 Mobile MQQBrowser/6.8 TBS/036849 Safari/537.36 MicroMessenger/6.3.27.880 NetType/WIFI Language/zh_CN'
p2248
sg16
S'd7da8665b21ec6015c4745e4e18491e2'
p2249
sa(dp2250
g2
S'7158'
p2251
sg4
S'6666'
p2252
sg6
S'69c760a9f79b5d870de29b3e41d7b99d'
p2253
sg8
S'xx261ae21c73348075fa6bfe145803453e'
p2254
sg10
S'xx7c11889d568b644595fc506dc352723e'
p2255
sg12
S'xx70f16fb312003f3874f7aef96c54c83f'
p2256
sg14
S'Mozilla/5.0 (Linux; Android 4.4.4; A31 Build/KTU84P) AppleWebKit/537.36 (KHTML, like Gecko) Version/4.0 Chrome/37.0.0.0 Mobile MQQBrowser/6.8 TBS/036849 Safari/537.36 MicroMessenger/6.3.27.880 NetType/WIFI Language/zh_CN'
p2257
sg16
S'd7da8665b21ec6015c4745e4e18491e2'
p2258
sa(dp2259
g2
S'7158'
p2260
sg4
S'6678'
p2261
sg6
S'69c760a9f79b5d870de29b3e41d7b99d'
p2262
sg8
S'xx261ae21c73348075fa6bfe145803453e'
p2263
sg10
S'xx7c11889d568b644595fc506dc352723e'
p2264
sg12
S'xx70f16fb312003f3874f7aef96c54c83f'
p2265
sg14
S'Mozilla/5.0 (Linux; Android 4.4.4; A31 Build/KTU84P) AppleWebKit/537.36 (KHTML, like Gecko) Version/4.0 Chrome/37.0.0.0 Mobile MQQBrowser/6.8 TBS/036849 Safari/537.36 MicroMessenger/6.3.27.880 NetType/WIFI Language/zh_CN'
p2266
sg16
S'd7da8665b21ec6015c4745e4e18491e2'
p2267
sa(dp2268
g2
S'7158'
p2269
sg4
S'6697'
p2270
sg6
S'69c760a9f79b5d870de29b3e41d7b99d'
p2271
sg8
S'xx261ae21c73348075fa6bfe145803453e'
p2272
sg10
S'xx7c11889d568b644595fc506dc352723e'
p2273
sg12
S'xx70f16fb312003f3874f7aef96c54c83f'
p2274
sg14
S'Mozilla/5.0 (Linux; Android 4.4.4; A31 Build/KTU84P) AppleWebKit/537.36 (KHTML, like Gecko) Version/4.0 Chrome/37.0.0.0 Mobile MQQBrowser/6.8 TBS/036849 Safari/537.36 MicroMessenger/6.3.27.880 NetType/WIFI Language/zh_CN'
p2275
sg16
S'd7da8665b21ec6015c4745e4e18491e2'
p2276
sa(dp2277
g2
S'7158'
p2278
sg4
S'6716'
p2279
sg6
S'69c760a9f79b5d870de29b3e41d7b99d'
p2280
sg8
S'xx261ae21c73348075fa6bfe145803453e'
p2281
sg10
S'xx7c11889d568b644595fc506dc352723e'
p2282
sg12
S'xx70f16fb312003f3874f7aef96c54c83f'
p2283
sg14
S'Mozilla/5.0 (Linux; Android 4.4.4; A31 Build/KTU84P) AppleWebKit/537.36 (KHTML, like Gecko) Version/4.0 Chrome/37.0.0.0 Mobile MQQBrowser/6.8 TBS/036849 Safari/537.36 MicroMessenger/6.3.27.880 NetType/WIFI Language/zh_CN'
p2284
sg16
S'd7da8665b21ec6015c4745e4e18491e2'
p2285
sa(dp2286
g2
S'7158'
p2287
sg4
S'6732'
p2288
sg6
S'69c760a9f79b5d870de29b3e41d7b99d'
p2289
sg8
S'xx261ae21c73348075fa6bfe145803453e'
p2290
sg10
S'xx7c11889d568b644595fc506dc352723e'
p2291
sg12
S'xx70f16fb312003f3874f7aef96c54c83f'
p2292
sg14
S'Mozilla/5.0 (Linux; Android 4.4.4; A31 Build/KTU84P) AppleWebKit/537.36 (KHTML, like Gecko) Version/4.0 Chrome/37.0.0.0 Mobile MQQBrowser/6.8 TBS/036849 Safari/537.36 MicroMessenger/6.3.27.880 NetType/WIFI Language/zh_CN'
p2293
sg16
S'd7da8665b21ec6015c4745e4e18491e2'
p2294
sa(dp2295
g2
S'7158'
p2296
sg4
S'6751'
p2297
sg6
S'69c760a9f79b5d870de29b3e41d7b99d'
p2298
sg8
S'xx261ae21c73348075fa6bfe145803453e'
p2299
sg10
S'xx7c11889d568b644595fc506dc352723e'
p2300
sg12
S'xx70f16fb312003f3874f7aef96c54c83f'
p2301
sg14
S'Mozilla/5.0 (Linux; Android 4.4.4; A31 Build/KTU84P) AppleWebKit/537.36 (KHTML, like Gecko) Version/4.0 Chrome/37.0.0.0 Mobile MQQBrowser/6.8 TBS/036849 Safari/537.36 MicroMessenger/6.3.27.880 NetType/WIFI Language/zh_CN'
p2302
sg16
S'd7da8665b21ec6015c4745e4e18491e2'
p2303
sa(dp2304
g2
S'7158'
p2305
sg4
S'6766'
p2306
sg6
S'69c760a9f79b5d870de29b3e41d7b99d'
p2307
sg8
S'xx261ae21c73348075fa6bfe145803453e'
p2308
sg10
S'xx7c11889d568b644595fc506dc352723e'
p2309
sg12
S'xx70f16fb312003f3874f7aef96c54c83f'
p2310
sg14
S'Mozilla/5.0 (Linux; Android 4.4.4; A31 Build/KTU84P) AppleWebKit/537.36 (KHTML, like Gecko) Version/4.0 Chrome/37.0.0.0 Mobile MQQBrowser/6.8 TBS/036849 Safari/537.36 MicroMessenger/6.3.27.880 NetType/WIFI Language/zh_CN'
p2311
sg16
S'd7da8665b21ec6015c4745e4e18491e2'
p2312
sa(dp2313
g2
S'7158'
p2314
sg4
S'6776'
p2315
sg6
S'69c760a9f79b5d870de29b3e41d7b99d'
p2316
sg8
S'xx261ae21c73348075fa6bfe145803453e'
p2317
sg10
S'xx7c11889d568b644595fc506dc352723e'
p2318
sg12
S'xx70f16fb312003f3874f7aef96c54c83f'
p2319
sg14
S'Mozilla/5.0 (Linux; Android 4.4.4; A31 Build/KTU84P) AppleWebKit/537.36 (KHTML, like Gecko) Version/4.0 Chrome/37.0.0.0 Mobile MQQBrowser/6.8 TBS/036849 Safari/537.36 MicroMessenger/6.3.27.880 NetType/WIFI Language/zh_CN'
p2320
sg16
S'd7da8665b21ec6015c4745e4e18491e2'
p2321
sa(dp2322
g2
S'7158'
p2323
sg4
S'6793'
p2324
sg6
S'69c760a9f79b5d870de29b3e41d7b99d'
p2325
sg8
S'xx261ae21c73348075fa6bfe145803453e'
p2326
sg10
S'xx7c11889d568b644595fc506dc352723e'
p2327
sg12
S'xx70f16fb312003f3874f7aef96c54c83f'
p2328
sg14
S'Mozilla/5.0 (Linux; Android 4.4.4; A31 Build/KTU84P) AppleWebKit/537.36 (KHTML, like Gecko) Version/4.0 Chrome/37.0.0.0 Mobile MQQBrowser/6.8 TBS/036849 Safari/537.36 MicroMessenger/6.3.27.880 NetType/WIFI Language/zh_CN'
p2329
sg16
S'd7da8665b21ec6015c4745e4e18491e2'
p2330
sa(dp2331
g2
S'7158'
p2332
sg4
S'6804'
p2333
sg6
S'69c760a9f79b5d870de29b3e41d7b99d'
p2334
sg8
S'xx261ae21c73348075fa6bfe145803453e'
p2335
sg10
S'xx7c11889d568b644595fc506dc352723e'
p2336
sg12
S'xx70f16fb312003f3874f7aef96c54c83f'
p2337
sg14
S'Mozilla/5.0 (Linux; Android 4.4.4; A31 Build/KTU84P) AppleWebKit/537.36 (KHTML, like Gecko) Version/4.0 Chrome/37.0.0.0 Mobile MQQBrowser/6.8 TBS/036849 Safari/537.36 MicroMessenger/6.3.27.880 NetType/WIFI Language/zh_CN'
p2338
sg16
S'd7da8665b21ec6015c4745e4e18491e2'
p2339
sa(dp2340
g2
S'7158'
p2341
sg4
S'6823'
p2342
sg6
S'69c760a9f79b5d870de29b3e41d7b99d'
p2343
sg8
S'xx261ae21c73348075fa6bfe145803453e'
p2344
sg10
S'xx7c11889d568b644595fc506dc352723e'
p2345
sg12
S'xx70f16fb312003f3874f7aef96c54c83f'
p2346
sg14
S'Mozilla/5.0 (Linux; Android 4.4.4; A31 Build/KTU84P) AppleWebKit/537.36 (KHTML, like Gecko) Version/4.0 Chrome/37.0.0.0 Mobile MQQBrowser/6.8 TBS/036849 Safari/537.36 MicroMessenger/6.3.27.880 NetType/WIFI Language/zh_CN'
p2347
sg16
S'd7da8665b21ec6015c4745e4e18491e2'
p2348
sa(dp2349
g2
S'7158'
p2350
sg4
S'6837'
p2351
sg6
S'69c760a9f79b5d870de29b3e41d7b99d'
p2352
sg8
S'xx261ae21c73348075fa6bfe145803453e'
p2353
sg10
S'xx7c11889d568b644595fc506dc352723e'
p2354
sg12
S'xx70f16fb312003f3874f7aef96c54c83f'
p2355
sg14
S'Mozilla/5.0 (Linux; Android 4.4.4; A31 Build/KTU84P) AppleWebKit/537.36 (KHTML, like Gecko) Version/4.0 Chrome/37.0.0.0 Mobile MQQBrowser/6.8 TBS/036849 Safari/537.36 MicroMessenger/6.3.27.880 NetType/WIFI Language/zh_CN'
p2356
sg16
S'd7da8665b21ec6015c4745e4e18491e2'
p2357
sa(dp2358
g2
S'7158'
p2359
sg4
S'6856'
p2360
sg6
S'69c760a9f79b5d870de29b3e41d7b99d'
p2361
sg8
S'xx261ae21c73348075fa6bfe145803453e'
p2362
sg10
S'xx7c11889d568b644595fc506dc352723e'
p2363
sg12
S'xx70f16fb312003f3874f7aef96c54c83f'
p2364
sg14
S'Mozilla/5.0 (Linux; Android 4.4.4; A31 Build/KTU84P) AppleWebKit/537.36 (KHTML, like Gecko) Version/4.0 Chrome/37.0.0.0 Mobile MQQBrowser/6.8 TBS/036849 Safari/537.36 MicroMessenger/6.3.27.880 NetType/WIFI Language/zh_CN'
p2365
sg16
S'd7da8665b21ec6015c4745e4e18491e2'
p2366
sa(dp2367
g2
S'7158'
p2368
sg4
S'6872'
p2369
sg6
S'69c760a9f79b5d870de29b3e41d7b99d'
p2370
sg8
S'xx261ae21c73348075fa6bfe145803453e'
p2371
sg10
S'xx7c11889d568b644595fc506dc352723e'
p2372
sg12
S'xx70f16fb312003f3874f7aef96c54c83f'
p2373
sg14
S'Mozilla/5.0 (Linux; Android 4.4.4; A31 Build/KTU84P) AppleWebKit/537.36 (KHTML, like Gecko) Version/4.0 Chrome/37.0.0.0 Mobile MQQBrowser/6.8 TBS/036849 Safari/537.36 MicroMessenger/6.3.27.880 NetType/WIFI Language/zh_CN'
p2374
sg16
S'd7da8665b21ec6015c4745e4e18491e2'
p2375
sa(dp2376
g2
S'7158'
p2377
sg4
S'6887'
p2378
sg6
S'69c760a9f79b5d870de29b3e41d7b99d'
p2379
sg8
S'xx261ae21c73348075fa6bfe145803453e'
p2380
sg10
S'xx7c11889d568b644595fc506dc352723e'
p2381
sg12
S'xx70f16fb312003f3874f7aef96c54c83f'
p2382
sg14
S'Mozilla/5.0 (Linux; Android 4.4.4; A31 Build/KTU84P) AppleWebKit/537.36 (KHTML, like Gecko) Version/4.0 Chrome/37.0.0.0 Mobile MQQBrowser/6.8 TBS/036849 Safari/537.36 MicroMessenger/6.3.27.880 NetType/WIFI Language/zh_CN'
p2383
sg16
S'd7da8665b21ec6015c4745e4e18491e2'
p2384
sa(dp2385
g2
S'7158'
p2386
sg4
S'6917'
p2387
sg6
S'69c760a9f79b5d870de29b3e41d7b99d'
p2388
sg8
S'xx261ae21c73348075fa6bfe145803453e'
p2389
sg10
S'xx7c11889d568b644595fc506dc352723e'
p2390
sg12
S'xx70f16fb312003f3874f7aef96c54c83f'
p2391
sg14
S'Mozilla/5.0 (Linux; Android 4.4.4; A31 Build/KTU84P) AppleWebKit/537.36 (KHTML, like Gecko) Version/4.0 Chrome/37.0.0.0 Mobile MQQBrowser/6.8 TBS/036849 Safari/537.36 MicroMessenger/6.3.27.880 NetType/WIFI Language/zh_CN'
p2392
sg16
S'd7da8665b21ec6015c4745e4e18491e2'
p2393
sa(dp2394
g2
S'7158'
p2395
sg4
S'6950'
p2396
sg6
S'69c760a9f79b5d870de29b3e41d7b99d'
p2397
sg8
S'xx261ae21c73348075fa6bfe145803453e'
p2398
sg10
S'xx7c11889d568b644595fc506dc352723e'
p2399
sg12
S'xx70f16fb312003f3874f7aef96c54c83f'
p2400
sg14
S'Mozilla/5.0 (Linux; Android 4.4.4; A31 Build/KTU84P) AppleWebKit/537.36 (KHTML, like Gecko) Version/4.0 Chrome/37.0.0.0 Mobile MQQBrowser/6.8 TBS/036849 Safari/537.36 MicroMessenger/6.3.27.880 NetType/WIFI Language/zh_CN'
p2401
sg16
S'd7da8665b21ec6015c4745e4e18491e2'
p2402
sa(dp2403
g2
S'7158'
p2404
sg4
S'6964'
p2405
sg6
S'69c760a9f79b5d870de29b3e41d7b99d'
p2406
sg8
S'xx261ae21c73348075fa6bfe145803453e'
p2407
sg10
S'xx7c11889d568b644595fc506dc352723e'
p2408
sg12
S'xx70f16fb312003f3874f7aef96c54c83f'
p2409
sg14
S'Mozilla/5.0 (Linux; Android 4.4.4; A31 Build/KTU84P) AppleWebKit/537.36 (KHTML, like Gecko) Version/4.0 Chrome/37.0.0.0 Mobile MQQBrowser/6.8 TBS/036849 Safari/537.36 MicroMessenger/6.3.27.880 NetType/WIFI Language/zh_CN'
p2410
sg16
S'd7da8665b21ec6015c4745e4e18491e2'
p2411
sa(dp2412
g2
S'7158'
p2413
sg4
S'6978'
p2414
sg6
S'69c760a9f79b5d870de29b3e41d7b99d'
p2415
sg8
S'xx261ae21c73348075fa6bfe145803453e'
p2416
sg10
S'xx7c11889d568b644595fc506dc352723e'
p2417
sg12
S'xx70f16fb312003f3874f7aef96c54c83f'
p2418
sg14
S'Mozilla/5.0 (Linux; Android 4.4.4; A31 Build/KTU84P) AppleWebKit/537.36 (KHTML, like Gecko) Version/4.0 Chrome/37.0.0.0 Mobile MQQBrowser/6.8 TBS/036849 Safari/537.36 MicroMessenger/6.3.27.880 NetType/WIFI Language/zh_CN'
p2419
sg16
S'd7da8665b21ec6015c4745e4e18491e2'
p2420
sa(dp2421
g2
S'7158'
p2422
sg4
S'6990'
p2423
sg6
S'69c760a9f79b5d870de29b3e41d7b99d'
p2424
sg8
S'xx261ae21c73348075fa6bfe145803453e'
p2425
sg10
S'xx7c11889d568b644595fc506dc352723e'
p2426
sg12
S'xx70f16fb312003f3874f7aef96c54c83f'
p2427
sg14
S'Mozilla/5.0 (Linux; Android 4.4.4; A31 Build/KTU84P) AppleWebKit/537.36 (KHTML, like Gecko) Version/4.0 Chrome/37.0.0.0 Mobile MQQBrowser/6.8 TBS/036849 Safari/537.36 MicroMessenger/6.3.27.880 NetType/WIFI Language/zh_CN'
p2428
sg16
S'd7da8665b21ec6015c4745e4e18491e2'
p2429
sa(dp2430
g2
S'7158'
p2431
sg4
S'7004'
p2432
sg6
S'69c760a9f79b5d870de29b3e41d7b99d'
p2433
sg8
S'xx261ae21c73348075fa6bfe145803453e'
p2434
sg10
S'xx7c11889d568b644595fc506dc352723e'
p2435
sg12
S'xx70f16fb312003f3874f7aef96c54c83f'
p2436
sg14
S'Mozilla/5.0 (Linux; Android 4.4.4; A31 Build/KTU84P) AppleWebKit/537.36 (KHTML, like Gecko) Version/4.0 Chrome/37.0.0.0 Mobile MQQBrowser/6.8 TBS/036849 Safari/537.36 MicroMessenger/6.3.27.880 NetType/WIFI Language/zh_CN'
p2437
sg16
S'd7da8665b21ec6015c4745e4e18491e2'
p2438
sa(dp2439
g2
S'7158'
p2440
sg4
S'7025'
p2441
sg6
S'69c760a9f79b5d870de29b3e41d7b99d'
p2442
sg8
S'xx261ae21c73348075fa6bfe145803453e'
p2443
sg10
S'xx7c11889d568b644595fc506dc352723e'
p2444
sg12
S'xx70f16fb312003f3874f7aef96c54c83f'
p2445
sg14
S'Mozilla/5.0 (Linux; Android 4.4.4; A31 Build/KTU84P) AppleWebKit/537.36 (KHTML, like Gecko) Version/4.0 Chrome/37.0.0.0 Mobile MQQBrowser/6.8 TBS/036849 Safari/537.36 MicroMessenger/6.3.27.880 NetType/WIFI Language/zh_CN'
p2446
sg16
S'd7da8665b21ec6015c4745e4e18491e2'
p2447
sa(dp2448
g2
S'7158'
p2449
sg4
S'7041'
p2450
sg6
S'69c760a9f79b5d870de29b3e41d7b99d'
p2451
sg8
S'xx261ae21c73348075fa6bfe145803453e'
p2452
sg10
S'xx7c11889d568b644595fc506dc352723e'
p2453
sg12
S'xx70f16fb312003f3874f7aef96c54c83f'
p2454
sg14
S'Mozilla/5.0 (Linux; Android 4.4.4; A31 Build/KTU84P) AppleWebKit/537.36 (KHTML, like Gecko) Version/4.0 Chrome/37.0.0.0 Mobile MQQBrowser/6.8 TBS/036849 Safari/537.36 MicroMessenger/6.3.27.880 NetType/WIFI Language/zh_CN'
p2455
sg16
S'd7da8665b21ec6015c4745e4e18491e2'
p2456
sa(dp2457
g2
S'7158'
p2458
sg4
S'7056'
p2459
sg6
S'69c760a9f79b5d870de29b3e41d7b99d'
p2460
sg8
S'xx261ae21c73348075fa6bfe145803453e'
p2461
sg10
S'xx7c11889d568b644595fc506dc352723e'
p2462
sg12
S'xx70f16fb312003f3874f7aef96c54c83f'
p2463
sg14
S'Mozilla/5.0 (Linux; Android 4.4.4; A31 Build/KTU84P) AppleWebKit/537.36 (KHTML, like Gecko) Version/4.0 Chrome/37.0.0.0 Mobile MQQBrowser/6.8 TBS/036849 Safari/537.36 MicroMessenger/6.3.27.880 NetType/WIFI Language/zh_CN'
p2464
sg16
S'd7da8665b21ec6015c4745e4e18491e2'
p2465
sa(dp2466
g2
S'7158'
p2467
sg4
S'7068'
p2468
sg6
S'69c760a9f79b5d870de29b3e41d7b99d'
p2469
sg8
S'xx261ae21c73348075fa6bfe145803453e'
p2470
sg10
S'xx7c11889d568b644595fc506dc352723e'
p2471
sg12
S'xx70f16fb312003f3874f7aef96c54c83f'
p2472
sg14
S'Mozilla/5.0 (Linux; Android 4.4.4; A31 Build/KTU84P) AppleWebKit/537.36 (KHTML, like Gecko) Version/4.0 Chrome/37.0.0.0 Mobile MQQBrowser/6.8 TBS/036849 Safari/537.36 MicroMessenger/6.3.27.880 NetType/WIFI Language/zh_CN'
p2473
sg16
S'd7da8665b21ec6015c4745e4e18491e2'
p2474
sa(dp2475
g2
S'7158'
p2476
sg4
S'7110'
p2477
sg6
S'69c760a9f79b5d870de29b3e41d7b99d'
p2478
sg8
S'xx261ae21c73348075fa6bfe145803453e'
p2479
sg10
S'xx7c11889d568b644595fc506dc352723e'
p2480
sg12
S'xx70f16fb312003f3874f7aef96c54c83f'
p2481
sg14
S'Mozilla/5.0 (Linux; Android 4.4.4; A31 Build/KTU84P) AppleWebKit/537.36 (KHTML, like Gecko) Version/4.0 Chrome/37.0.0.0 Mobile MQQBrowser/6.8 TBS/036849 Safari/537.36 MicroMessenger/6.3.27.880 NetType/WIFI Language/zh_CN'
p2482
sg16
S'd7da8665b21ec6015c4745e4e18491e2'
p2483
sa(dp2484
g2
S'7158'
p2485
sg4
S'7193'
p2486
sg6
S'69c760a9f79b5d870de29b3e41d7b99d'
p2487
sg8
S'xx261ae21c73348075fa6bfe145803453e'
p2488
sg10
S'xx7c11889d568b644595fc506dc352723e'
p2489
sg12
S'xx70f16fb312003f3874f7aef96c54c83f'
p2490
sg14
S'Mozilla/5.0 (Linux; Android 4.4.4; A31 Build/KTU84P) AppleWebKit/537.36 (KHTML, like Gecko) Version/4.0 Chrome/37.0.0.0 Mobile MQQBrowser/6.8 TBS/036849 Safari/537.36 MicroMessenger/6.3.27.880 NetType/WIFI Language/zh_CN'
p2491
sg16
S'd7da8665b21ec6015c4745e4e18491e2'
p2492
sa(dp2493
g2
S'7158'
p2494
sg4
S'7205'
p2495
sg6
S'69c760a9f79b5d870de29b3e41d7b99d'
p2496
sg8
S'xx261ae21c73348075fa6bfe145803453e'
p2497
sg10
S'xx7c11889d568b644595fc506dc352723e'
p2498
sg12
S'xx70f16fb312003f3874f7aef96c54c83f'
p2499
sg14
S'Mozilla/5.0 (Linux; Android 4.4.4; A31 Build/KTU84P) AppleWebKit/537.36 (KHTML, like Gecko) Version/4.0 Chrome/37.0.0.0 Mobile MQQBrowser/6.8 TBS/036849 Safari/537.36 MicroMessenger/6.3.27.880 NetType/WIFI Language/zh_CN'
p2500
sg16
S'd7da8665b21ec6015c4745e4e18491e2'
p2501
sa(dp2502
g2
S'7158'
p2503
sg4
S'7220'
p2504
sg6
S'69c760a9f79b5d870de29b3e41d7b99d'
p2505
sg8
S'xx261ae21c73348075fa6bfe145803453e'
p2506
sg10
S'xx7c11889d568b644595fc506dc352723e'
p2507
sg12
S'xx70f16fb312003f3874f7aef96c54c83f'
p2508
sg14
S'Mozilla/5.0 (Linux; Android 4.4.4; A31 Build/KTU84P) AppleWebKit/537.36 (KHTML, like Gecko) Version/4.0 Chrome/37.0.0.0 Mobile MQQBrowser/6.8 TBS/036849 Safari/537.36 MicroMessenger/6.3.27.880 NetType/WIFI Language/zh_CN'
p2509
sg16
S'd7da8665b21ec6015c4745e4e18491e2'
p2510
sa(dp2511
g2
S'7158'
p2512
sg4
S'7231'
p2513
sg6
S'69c760a9f79b5d870de29b3e41d7b99d'
p2514
sg8
S'xx261ae21c73348075fa6bfe145803453e'
p2515
sg10
S'xx7c11889d568b644595fc506dc352723e'
p2516
sg12
S'xx70f16fb312003f3874f7aef96c54c83f'
p2517
sg14
S'Mozilla/5.0 (Linux; Android 4.4.4; A31 Build/KTU84P) AppleWebKit/537.36 (KHTML, like Gecko) Version/4.0 Chrome/37.0.0.0 Mobile MQQBrowser/6.8 TBS/036849 Safari/537.36 MicroMessenger/6.3.27.880 NetType/WIFI Language/zh_CN'
p2518
sg16
S'd7da8665b21ec6015c4745e4e18491e2'
p2519
sa(dp2520
g2
S'7158'
p2521
sg4
S'7254'
p2522
sg6
S'69c760a9f79b5d870de29b3e41d7b99d'
p2523
sg8
S'xx261ae21c73348075fa6bfe145803453e'
p2524
sg10
S'xx7c11889d568b644595fc506dc352723e'
p2525
sg12
S'xx70f16fb312003f3874f7aef96c54c83f'
p2526
sg14
S'Mozilla/5.0 (Linux; Android 4.4.4; A31 Build/KTU84P) AppleWebKit/537.36 (KHTML, like Gecko) Version/4.0 Chrome/37.0.0.0 Mobile MQQBrowser/6.8 TBS/036849 Safari/537.36 MicroMessenger/6.3.27.880 NetType/WIFI Language/zh_CN'
p2527
sg16
S'd7da8665b21ec6015c4745e4e18491e2'
p2528
sa(dp2529
g2
S'7158'
p2530
sg4
S'7281'
p2531
sg6
S'69c760a9f79b5d870de29b3e41d7b99d'
p2532
sg8
S'xx261ae21c73348075fa6bfe145803453e'
p2533
sg10
S'xx7c11889d568b644595fc506dc352723e'
p2534
sg12
S'xx70f16fb312003f3874f7aef96c54c83f'
p2535
sg14
S'Mozilla/5.0 (Linux; Android 4.4.4; A31 Build/KTU84P) AppleWebKit/537.36 (KHTML, like Gecko) Version/4.0 Chrome/37.0.0.0 Mobile MQQBrowser/6.8 TBS/036849 Safari/537.36 MicroMessenger/6.3.27.880 NetType/WIFI Language/zh_CN'
p2536
sg16
S'd7da8665b21ec6015c4745e4e18491e2'
p2537
sa(dp2538
g2
S'7158'
p2539
sg4
S'7300'
p2540
sg6
S'69c760a9f79b5d870de29b3e41d7b99d'
p2541
sg8
S'xx261ae21c73348075fa6bfe145803453e'
p2542
sg10
S'xx7c11889d568b644595fc506dc352723e'
p2543
sg12
S'xx70f16fb312003f3874f7aef96c54c83f'
p2544
sg14
S'Mozilla/5.0 (Linux; Android 4.4.4; A31 Build/KTU84P) AppleWebKit/537.36 (KHTML, like Gecko) Version/4.0 Chrome/37.0.0.0 Mobile MQQBrowser/6.8 TBS/036849 Safari/537.36 MicroMessenger/6.3.27.880 NetType/WIFI Language/zh_CN'
p2545
sg16
S'd7da8665b21ec6015c4745e4e18491e2'
p2546
sa(dp2547
g2
S'7158'
p2548
sg4
S'7315'
p2549
sg6
S'69c760a9f79b5d870de29b3e41d7b99d'
p2550
sg8
S'xx261ae21c73348075fa6bfe145803453e'
p2551
sg10
S'xx7c11889d568b644595fc506dc352723e'
p2552
sg12
S'xx70f16fb312003f3874f7aef96c54c83f'
p2553
sg14
S'Mozilla/5.0 (Linux; Android 4.4.4; A31 Build/KTU84P) AppleWebKit/537.36 (KHTML, like Gecko) Version/4.0 Chrome/37.0.0.0 Mobile MQQBrowser/6.8 TBS/036849 Safari/537.36 MicroMessenger/6.3.27.880 NetType/WIFI Language/zh_CN'
p2554
sg16
S'd7da8665b21ec6015c4745e4e18491e2'
p2555
sa(dp2556
g2
S'7158'
p2557
sg4
S'7332'
p2558
sg6
S'69c760a9f79b5d870de29b3e41d7b99d'
p2559
sg8
S'xx261ae21c73348075fa6bfe145803453e'
p2560
sg10
S'xx7c11889d568b644595fc506dc352723e'
p2561
sg12
S'xx70f16fb312003f3874f7aef96c54c83f'
p2562
sg14
S'Mozilla/5.0 (Linux; Android 4.4.4; A31 Build/KTU84P) AppleWebKit/537.36 (KHTML, like Gecko) Version/4.0 Chrome/37.0.0.0 Mobile MQQBrowser/6.8 TBS/036849 Safari/537.36 MicroMessenger/6.3.27.880 NetType/WIFI Language/zh_CN'
p2563
sg16
S'd7da8665b21ec6015c4745e4e18491e2'
p2564
sa(dp2565
g2
S'7158'
p2566
sg4
S'7348'
p2567
sg6
S'69c760a9f79b5d870de29b3e41d7b99d'
p2568
sg8
S'xx261ae21c73348075fa6bfe145803453e'
p2569
sg10
S'xx7c11889d568b644595fc506dc352723e'
p2570
sg12
S'xx70f16fb312003f3874f7aef96c54c83f'
p2571
sg14
S'Mozilla/5.0 (Linux; Android 4.4.4; A31 Build/KTU84P) AppleWebKit/537.36 (KHTML, like Gecko) Version/4.0 Chrome/37.0.0.0 Mobile MQQBrowser/6.8 TBS/036849 Safari/537.36 MicroMessenger/6.3.27.880 NetType/WIFI Language/zh_CN'
p2572
sg16
S'd7da8665b21ec6015c4745e4e18491e2'
p2573
sa(dp2574
g2
S'7158'
p2575
sg4
S'7360'
p2576
sg6
S'69c760a9f79b5d870de29b3e41d7b99d'
p2577
sg8
S'xx261ae21c73348075fa6bfe145803453e'
p2578
sg10
S'xx7c11889d568b644595fc506dc352723e'
p2579
sg12
S'xx70f16fb312003f3874f7aef96c54c83f'
p2580
sg14
S'Mozilla/5.0 (Linux; Android 4.4.4; A31 Build/KTU84P) AppleWebKit/537.36 (KHTML, like Gecko) Version/4.0 Chrome/37.0.0.0 Mobile MQQBrowser/6.8 TBS/036849 Safari/537.36 MicroMessenger/6.3.27.880 NetType/WIFI Language/zh_CN'
p2581
sg16
S'd7da8665b21ec6015c4745e4e18491e2'
p2582
sa(dp2583
g2
S'7158'
p2584
sg4
S'7376'
p2585
sg6
S'69c760a9f79b5d870de29b3e41d7b99d'
p2586
sg8
S'xx261ae21c73348075fa6bfe145803453e'
p2587
sg10
S'xx7c11889d568b644595fc506dc352723e'
p2588
sg12
S'xx70f16fb312003f3874f7aef96c54c83f'
p2589
sg14
S'Mozilla/5.0 (Linux; Android 4.4.4; A31 Build/KTU84P) AppleWebKit/537.36 (KHTML, like Gecko) Version/4.0 Chrome/37.0.0.0 Mobile MQQBrowser/6.8 TBS/036849 Safari/537.36 MicroMessenger/6.3.27.880 NetType/WIFI Language/zh_CN'
p2590
sg16
S'd7da8665b21ec6015c4745e4e18491e2'
p2591
sa(dp2592
g2
S'7158'
p2593
sg4
S'7391'
p2594
sg6
S'69c760a9f79b5d870de29b3e41d7b99d'
p2595
sg8
S'xx261ae21c73348075fa6bfe145803453e'
p2596
sg10
S'xx7c11889d568b644595fc506dc352723e'
p2597
sg12
S'xx70f16fb312003f3874f7aef96c54c83f'
p2598
sg14
S'Mozilla/5.0 (Linux; Android 4.4.4; A31 Build/KTU84P) AppleWebKit/537.36 (KHTML, like Gecko) Version/4.0 Chrome/37.0.0.0 Mobile MQQBrowser/6.8 TBS/036849 Safari/537.36 MicroMessenger/6.3.27.880 NetType/WIFI Language/zh_CN'
p2599
sg16
S'd7da8665b21ec6015c4745e4e18491e2'
p2600
sa(dp2601
g2
S'7158'
p2602
sg4
S'7402'
p2603
sg6
S'69c760a9f79b5d870de29b3e41d7b99d'
p2604
sg8
S'xx261ae21c73348075fa6bfe145803453e'
p2605
sg10
S'xx7c11889d568b644595fc506dc352723e'
p2606
sg12
S'xx70f16fb312003f3874f7aef96c54c83f'
p2607
sg14
S'Mozilla/5.0 (Linux; Android 4.4.4; A31 Build/KTU84P) AppleWebKit/537.36 (KHTML, like Gecko) Version/4.0 Chrome/37.0.0.0 Mobile MQQBrowser/6.8 TBS/036849 Safari/537.36 MicroMessenger/6.3.27.880 NetType/WIFI Language/zh_CN'
p2608
sg16
S'd7da8665b21ec6015c4745e4e18491e2'
p2609
sa(dp2610
g2
S'7158'
p2611
sg4
S'7422'
p2612
sg6
S'69c760a9f79b5d870de29b3e41d7b99d'
p2613
sg8
S'xx261ae21c73348075fa6bfe145803453e'
p2614
sg10
S'xx7c11889d568b644595fc506dc352723e'
p2615
sg12
S'xx70f16fb312003f3874f7aef96c54c83f'
p2616
sg14
S'Mozilla/5.0 (Linux; Android 4.4.4; A31 Build/KTU84P) AppleWebKit/537.36 (KHTML, like Gecko) Version/4.0 Chrome/37.0.0.0 Mobile MQQBrowser/6.8 TBS/036849 Safari/537.36 MicroMessenger/6.3.27.880 NetType/WIFI Language/zh_CN'
p2617
sg16
S'd7da8665b21ec6015c4745e4e18491e2'
p2618
sa(dp2619
g2
S'7158'
p2620
sg4
S'7436'
p2621
sg6
S'69c760a9f79b5d870de29b3e41d7b99d'
p2622
sg8
S'xx261ae21c73348075fa6bfe145803453e'
p2623
sg10
S'xx7c11889d568b644595fc506dc352723e'
p2624
sg12
S'xx70f16fb312003f3874f7aef96c54c83f'
p2625
sg14
S'Mozilla/5.0 (Linux; Android 4.4.4; A31 Build/KTU84P) AppleWebKit/537.36 (KHTML, like Gecko) Version/4.0 Chrome/37.0.0.0 Mobile MQQBrowser/6.8 TBS/036849 Safari/537.36 MicroMessenger/6.3.27.880 NetType/WIFI Language/zh_CN'
p2626
sg16
S'd7da8665b21ec6015c4745e4e18491e2'
p2627
sa(dp2628
g2
S'7158'
p2629
sg4
S'7451'
p2630
sg6
S'69c760a9f79b5d870de29b3e41d7b99d'
p2631
sg8
S'xx261ae21c73348075fa6bfe145803453e'
p2632
sg10
S'xx7c11889d568b644595fc506dc352723e'
p2633
sg12
S'xx70f16fb312003f3874f7aef96c54c83f'
p2634
sg14
S'Mozilla/5.0 (Linux; Android 4.4.4; A31 Build/KTU84P) AppleWebKit/537.36 (KHTML, like Gecko) Version/4.0 Chrome/37.0.0.0 Mobile MQQBrowser/6.8 TBS/036849 Safari/537.36 MicroMessenger/6.3.27.880 NetType/WIFI Language/zh_CN'
p2635
sg16
S'd7da8665b21ec6015c4745e4e18491e2'
p2636
sa(dp2637
g2
S'7158'
p2638
sg4
S'7464'
p2639
sg6
S'69c760a9f79b5d870de29b3e41d7b99d'
p2640
sg8
S'xx261ae21c73348075fa6bfe145803453e'
p2641
sg10
S'xx7c11889d568b644595fc506dc352723e'
p2642
sg12
S'xx70f16fb312003f3874f7aef96c54c83f'
p2643
sg14
S'Mozilla/5.0 (Linux; Android 4.4.4; A31 Build/KTU84P) AppleWebKit/537.36 (KHTML, like Gecko) Version/4.0 Chrome/37.0.0.0 Mobile MQQBrowser/6.8 TBS/036849 Safari/537.36 MicroMessenger/6.3.27.880 NetType/WIFI Language/zh_CN'
p2644
sg16
S'd7da8665b21ec6015c4745e4e18491e2'
p2645
sa(dp2646
g2
S'7158'
p2647
sg4
S'7485'
p2648
sg6
S'69c760a9f79b5d870de29b3e41d7b99d'
p2649
sg8
S'xx261ae21c73348075fa6bfe145803453e'
p2650
sg10
S'xx7c11889d568b644595fc506dc352723e'
p2651
sg12
S'xx70f16fb312003f3874f7aef96c54c83f'
p2652
sg14
S'Mozilla/5.0 (Linux; Android 4.4.4; A31 Build/KTU84P) AppleWebKit/537.36 (KHTML, like Gecko) Version/4.0 Chrome/37.0.0.0 Mobile MQQBrowser/6.8 TBS/036849 Safari/537.36 MicroMessenger/6.3.27.880 NetType/WIFI Language/zh_CN'
p2653
sg16
S'd7da8665b21ec6015c4745e4e18491e2'
p2654
sa(dp2655
g2
S'7158'
p2656
sg4
S'7497'
p2657
sg6
S'69c760a9f79b5d870de29b3e41d7b99d'
p2658
sg8
S'xx261ae21c73348075fa6bfe145803453e'
p2659
sg10
S'xx7c11889d568b644595fc506dc352723e'
p2660
sg12
S'xx70f16fb312003f3874f7aef96c54c83f'
p2661
sg14
S'Mozilla/5.0 (Linux; Android 4.4.4; A31 Build/KTU84P) AppleWebKit/537.36 (KHTML, like Gecko) Version/4.0 Chrome/37.0.0.0 Mobile MQQBrowser/6.8 TBS/036849 Safari/537.36 MicroMessenger/6.3.27.880 NetType/WIFI Language/zh_CN'
p2662
sg16
S'd7da8665b21ec6015c4745e4e18491e2'
p2663
sa(dp2664
g2
S'7158'
p2665
sg4
S'7509'
p2666
sg6
S'69c760a9f79b5d870de29b3e41d7b99d'
p2667
sg8
S'xx261ae21c73348075fa6bfe145803453e'
p2668
sg10
S'xx7c11889d568b644595fc506dc352723e'
p2669
sg12
S'xx70f16fb312003f3874f7aef96c54c83f'
p2670
sg14
S'Mozilla/5.0 (Linux; Android 4.4.4; A31 Build/KTU84P) AppleWebKit/537.36 (KHTML, like Gecko) Version/4.0 Chrome/37.0.0.0 Mobile MQQBrowser/6.8 TBS/036849 Safari/537.36 MicroMessenger/6.3.27.880 NetType/WIFI Language/zh_CN'
p2671
sg16
S'd7da8665b21ec6015c4745e4e18491e2'
p2672
sa(dp2673
g2
S'7158'
p2674
sg4
S'7522'
p2675
sg6
S'69c760a9f79b5d870de29b3e41d7b99d'
p2676
sg8
S'xx261ae21c73348075fa6bfe145803453e'
p2677
sg10
S'xx7c11889d568b644595fc506dc352723e'
p2678
sg12
S'xx70f16fb312003f3874f7aef96c54c83f'
p2679
sg14
S'Mozilla/5.0 (Linux; Android 4.4.4; A31 Build/KTU84P) AppleWebKit/537.36 (KHTML, like Gecko) Version/4.0 Chrome/37.0.0.0 Mobile MQQBrowser/6.8 TBS/036849 Safari/537.36 MicroMessenger/6.3.27.880 NetType/WIFI Language/zh_CN'
p2680
sg16
S'd7da8665b21ec6015c4745e4e18491e2'
p2681
sa(dp2682
g2
S'7158'
p2683
sg4
S'7535'
p2684
sg6
S'69c760a9f79b5d870de29b3e41d7b99d'
p2685
sg8
S'xx261ae21c73348075fa6bfe145803453e'
p2686
sg10
S'xx7c11889d568b644595fc506dc352723e'
p2687
sg12
S'xx70f16fb312003f3874f7aef96c54c83f'
p2688
sg14
S'Mozilla/5.0 (Linux; Android 4.4.4; A31 Build/KTU84P) AppleWebKit/537.36 (KHTML, like Gecko) Version/4.0 Chrome/37.0.0.0 Mobile MQQBrowser/6.8 TBS/036849 Safari/537.36 MicroMessenger/6.3.27.880 NetType/WIFI Language/zh_CN'
p2689
sg16
S'd7da8665b21ec6015c4745e4e18491e2'
p2690
sa(dp2691
g2
S'7158'
p2692
sg4
S'7547'
p2693
sg6
S'69c760a9f79b5d870de29b3e41d7b99d'
p2694
sg8
S'xx261ae21c73348075fa6bfe145803453e'
p2695
sg10
S'xx7c11889d568b644595fc506dc352723e'
p2696
sg12
S'xx70f16fb312003f3874f7aef96c54c83f'
p2697
sg14
S'Mozilla/5.0 (Linux; Android 4.4.4; A31 Build/KTU84P) AppleWebKit/537.36 (KHTML, like Gecko) Version/4.0 Chrome/37.0.0.0 Mobile MQQBrowser/6.8 TBS/036849 Safari/537.36 MicroMessenger/6.3.27.880 NetType/WIFI Language/zh_CN'
p2698
sg16
S'd7da8665b21ec6015c4745e4e18491e2'
p2699
sa(dp2700
g2
S'7158'
p2701
sg4
S'7557'
p2702
sg6
S'69c760a9f79b5d870de29b3e41d7b99d'
p2703
sg8
S'xx261ae21c73348075fa6bfe145803453e'
p2704
sg10
S'xx7c11889d568b644595fc506dc352723e'
p2705
sg12
S'xx70f16fb312003f3874f7aef96c54c83f'
p2706
sg14
S'Mozilla/5.0 (Linux; Android 4.4.4; A31 Build/KTU84P) AppleWebKit/537.36 (KHTML, like Gecko) Version/4.0 Chrome/37.0.0.0 Mobile MQQBrowser/6.8 TBS/036849 Safari/537.36 MicroMessenger/6.3.27.880 NetType/WIFI Language/zh_CN'
p2707
sg16
S'd7da8665b21ec6015c4745e4e18491e2'
p2708
sa(dp2709
g2
S'7158'
p2710
sg4
S'7569'
p2711
sg6
S'69c760a9f79b5d870de29b3e41d7b99d'
p2712
sg8
S'xx261ae21c73348075fa6bfe145803453e'
p2713
sg10
S'xx7c11889d568b644595fc506dc352723e'
p2714
sg12
S'xx70f16fb312003f3874f7aef96c54c83f'
p2715
sg14
S'Mozilla/5.0 (Linux; Android 4.4.4; A31 Build/KTU84P) AppleWebKit/537.36 (KHTML, like Gecko) Version/4.0 Chrome/37.0.0.0 Mobile MQQBrowser/6.8 TBS/036849 Safari/537.36 MicroMessenger/6.3.27.880 NetType/WIFI Language/zh_CN'
p2716
sg16
S'd7da8665b21ec6015c4745e4e18491e2'
p2717
sa(dp2718
g2
S'7158'
p2719
sg4
S'7584'
p2720
sg6
S'69c760a9f79b5d870de29b3e41d7b99d'
p2721
sg8
S'xx261ae21c73348075fa6bfe145803453e'
p2722
sg10
S'xx7c11889d568b644595fc506dc352723e'
p2723
sg12
S'xx70f16fb312003f3874f7aef96c54c83f'
p2724
sg14
S'Mozilla/5.0 (Linux; Android 4.4.4; A31 Build/KTU84P) AppleWebKit/537.36 (KHTML, like Gecko) Version/4.0 Chrome/37.0.0.0 Mobile MQQBrowser/6.8 TBS/036849 Safari/537.36 MicroMessenger/6.3.27.880 NetType/WIFI Language/zh_CN'
p2725
sg16
S'd7da8665b21ec6015c4745e4e18491e2'
p2726
sa(dp2727
g2
S'7158'
p2728
sg4
S'7595'
p2729
sg6
S'69c760a9f79b5d870de29b3e41d7b99d'
p2730
sg8
S'xx261ae21c73348075fa6bfe145803453e'
p2731
sg10
S'xx7c11889d568b644595fc506dc352723e'
p2732
sg12
S'xx70f16fb312003f3874f7aef96c54c83f'
p2733
sg14
S'Mozilla/5.0 (Linux; Android 4.4.4; A31 Build/KTU84P) AppleWebKit/537.36 (KHTML, like Gecko) Version/4.0 Chrome/37.0.0.0 Mobile MQQBrowser/6.8 TBS/036849 Safari/537.36 MicroMessenger/6.3.27.880 NetType/WIFI Language/zh_CN'
p2734
sg16
S'd7da8665b21ec6015c4745e4e18491e2'
p2735
sa(dp2736
g2
S'7158'
p2737
sg4
S'7601'
p2738
sg6
S'69c760a9f79b5d870de29b3e41d7b99d'
p2739
sg8
S'xx261ae21c73348075fa6bfe145803453e'
p2740
sg10
S'xx7c11889d568b644595fc506dc352723e'
p2741
sg12
S'xx70f16fb312003f3874f7aef96c54c83f'
p2742
sg14
S'Mozilla/5.0 (Linux; Android 4.4.4; A31 Build/KTU84P) AppleWebKit/537.36 (KHTML, like Gecko) Version/4.0 Chrome/37.0.0.0 Mobile MQQBrowser/6.8 TBS/036849 Safari/537.36 MicroMessenger/6.3.27.880 NetType/WIFI Language/zh_CN'
p2743
sg16
S'd7da8665b21ec6015c4745e4e18491e2'
p2744
sa(dp2745
g2
S'7158'
p2746
sg4
S'7609'
p2747
sg6
S'69c760a9f79b5d870de29b3e41d7b99d'
p2748
sg8
S'xx261ae21c73348075fa6bfe145803453e'
p2749
sg10
S'xx7c11889d568b644595fc506dc352723e'
p2750
sg12
S'xx70f16fb312003f3874f7aef96c54c83f'
p2751
sg14
S'Mozilla/5.0 (Linux; Android 4.4.4; A31 Build/KTU84P) AppleWebKit/537.36 (KHTML, like Gecko) Version/4.0 Chrome/37.0.0.0 Mobile MQQBrowser/6.8 TBS/036849 Safari/537.36 MicroMessenger/6.3.27.880 NetType/WIFI Language/zh_CN'
p2752
sg16
S'd7da8665b21ec6015c4745e4e18491e2'
p2753
sa(dp2754
g2
S'7158'
p2755
sg4
S'7624'
p2756
sg6
S'69c760a9f79b5d870de29b3e41d7b99d'
p2757
sg8
S'xx261ae21c73348075fa6bfe145803453e'
p2758
sg10
S'xx7c11889d568b644595fc506dc352723e'
p2759
sg12
S'xx70f16fb312003f3874f7aef96c54c83f'
p2760
sg14
S'Mozilla/5.0 (Linux; Android 4.4.4; A31 Build/KTU84P) AppleWebKit/537.36 (KHTML, like Gecko) Version/4.0 Chrome/37.0.0.0 Mobile MQQBrowser/6.8 TBS/036849 Safari/537.36 MicroMessenger/6.3.27.880 NetType/WIFI Language/zh_CN'
p2761
sg16
S'd7da8665b21ec6015c4745e4e18491e2'
p2762
sa(dp2763
g2
S'7158'
p2764
sg4
S'7635'
p2765
sg6
S'69c760a9f79b5d870de29b3e41d7b99d'
p2766
sg8
S'xx261ae21c73348075fa6bfe145803453e'
p2767
sg10
S'xx7c11889d568b644595fc506dc352723e'
p2768
sg12
S'xx70f16fb312003f3874f7aef96c54c83f'
p2769
sg14
S'Mozilla/5.0 (Linux; Android 4.4.4; A31 Build/KTU84P) AppleWebKit/537.36 (KHTML, like Gecko) Version/4.0 Chrome/37.0.0.0 Mobile MQQBrowser/6.8 TBS/036849 Safari/537.36 MicroMessenger/6.3.27.880 NetType/WIFI Language/zh_CN'
p2770
sg16
S'd7da8665b21ec6015c4745e4e18491e2'
p2771
sa(dp2772
g2
S'7158'
p2773
sg4
S'7646'
p2774
sg6
S'69c760a9f79b5d870de29b3e41d7b99d'
p2775
sg8
S'xx261ae21c73348075fa6bfe145803453e'
p2776
sg10
S'xx7c11889d568b644595fc506dc352723e'
p2777
sg12
S'xx70f16fb312003f3874f7aef96c54c83f'
p2778
sg14
S'Mozilla/5.0 (Linux; Android 4.4.4; A31 Build/KTU84P) AppleWebKit/537.36 (KHTML, like Gecko) Version/4.0 Chrome/37.0.0.0 Mobile MQQBrowser/6.8 TBS/036849 Safari/537.36 MicroMessenger/6.3.27.880 NetType/WIFI Language/zh_CN'
p2779
sg16
S'd7da8665b21ec6015c4745e4e18491e2'
p2780
sa(dp2781
g2
S'7158'
p2782
sg4
S'7657'
p2783
sg6
S'69c760a9f79b5d870de29b3e41d7b99d'
p2784
sg8
S'xx261ae21c73348075fa6bfe145803453e'
p2785
sg10
S'xx7c11889d568b644595fc506dc352723e'
p2786
sg12
S'xx70f16fb312003f3874f7aef96c54c83f'
p2787
sg14
S'Mozilla/5.0 (Linux; Android 4.4.4; A31 Build/KTU84P) AppleWebKit/537.36 (KHTML, like Gecko) Version/4.0 Chrome/37.0.0.0 Mobile MQQBrowser/6.8 TBS/036849 Safari/537.36 MicroMessenger/6.3.27.880 NetType/WIFI Language/zh_CN'
p2788
sg16
S'd7da8665b21ec6015c4745e4e18491e2'
p2789
sa(dp2790
g2
S'7158'
p2791
sg4
S'7665'
p2792
sg6
S'69c760a9f79b5d870de29b3e41d7b99d'
p2793
sg8
S'xx261ae21c73348075fa6bfe145803453e'
p2794
sg10
S'xx7c11889d568b644595fc506dc352723e'
p2795
sg12
S'xx70f16fb312003f3874f7aef96c54c83f'
p2796
sg14
S'Mozilla/5.0 (Linux; Android 4.4.4; A31 Build/KTU84P) AppleWebKit/537.36 (KHTML, like Gecko) Version/4.0 Chrome/37.0.0.0 Mobile MQQBrowser/6.8 TBS/036849 Safari/537.36 MicroMessenger/6.3.27.880 NetType/WIFI Language/zh_CN'
p2797
sg16
S'd7da8665b21ec6015c4745e4e18491e2'
p2798
sa(dp2799
g2
S'7158'
p2800
sg4
S'7676'
p2801
sg6
S'69c760a9f79b5d870de29b3e41d7b99d'
p2802
sg8
S'xx261ae21c73348075fa6bfe145803453e'
p2803
sg10
S'xx7c11889d568b644595fc506dc352723e'
p2804
sg12
S'xx70f16fb312003f3874f7aef96c54c83f'
p2805
sg14
S'Mozilla/5.0 (Linux; Android 4.4.4; A31 Build/KTU84P) AppleWebKit/537.36 (KHTML, like Gecko) Version/4.0 Chrome/37.0.0.0 Mobile MQQBrowser/6.8 TBS/036849 Safari/537.36 MicroMessenger/6.3.27.880 NetType/WIFI Language/zh_CN'
p2806
sg16
S'd7da8665b21ec6015c4745e4e18491e2'
p2807
sa(dp2808
g2
S'7158'
p2809
sg4
S'7685'
p2810
sg6
S'69c760a9f79b5d870de29b3e41d7b99d'
p2811
sg8
S'xx261ae21c73348075fa6bfe145803453e'
p2812
sg10
S'xx7c11889d568b644595fc506dc352723e'
p2813
sg12
S'xx70f16fb312003f3874f7aef96c54c83f'
p2814
sg14
S'Mozilla/5.0 (Linux; Android 4.4.4; A31 Build/KTU84P) AppleWebKit/537.36 (KHTML, like Gecko) Version/4.0 Chrome/37.0.0.0 Mobile MQQBrowser/6.8 TBS/036849 Safari/537.36 MicroMessenger/6.3.27.880 NetType/WIFI Language/zh_CN'
p2815
sg16
S'd7da8665b21ec6015c4745e4e18491e2'
p2816
sa(dp2817
g2
S'7158'
p2818
sg4
S'7714'
p2819
sg6
S'69c760a9f79b5d870de29b3e41d7b99d'
p2820
sg8
S'xx261ae21c73348075fa6bfe145803453e'
p2821
sg10
S'xx7c11889d568b644595fc506dc352723e'
p2822
sg12
S'xx70f16fb312003f3874f7aef96c54c83f'
p2823
sg14
S'Mozilla/5.0 (Linux; Android 4.4.4; A31 Build/KTU84P) AppleWebKit/537.36 (KHTML, like Gecko) Version/4.0 Chrome/37.0.0.0 Mobile MQQBrowser/6.8 TBS/036849 Safari/537.36 MicroMessenger/6.3.27.880 NetType/WIFI Language/zh_CN'
p2824
sg16
S'd7da8665b21ec6015c4745e4e18491e2'
p2825
sa(dp2826
g2
S'7158'
p2827
sg4
S'7744'
p2828
sg6
S'69c760a9f79b5d870de29b3e41d7b99d'
p2829
sg8
S'xx261ae21c73348075fa6bfe145803453e'
p2830
sg10
S'xx7c11889d568b644595fc506dc352723e'
p2831
sg12
S'xx70f16fb312003f3874f7aef96c54c83f'
p2832
sg14
S'Mozilla/5.0 (Linux; Android 4.4.4; A31 Build/KTU84P) AppleWebKit/537.36 (KHTML, like Gecko) Version/4.0 Chrome/37.0.0.0 Mobile MQQBrowser/6.8 TBS/036849 Safari/537.36 MicroMessenger/6.3.27.880 NetType/WIFI Language/zh_CN'
p2833
sg16
S'd7da8665b21ec6015c4745e4e18491e2'
p2834
sa(dp2835
g2
S'7158'
p2836
sg4
S'7759'
p2837
sg6
S'69c760a9f79b5d870de29b3e41d7b99d'
p2838
sg8
S'xx261ae21c73348075fa6bfe145803453e'
p2839
sg10
S'xx7c11889d568b644595fc506dc352723e'
p2840
sg12
S'xx70f16fb312003f3874f7aef96c54c83f'
p2841
sg14
S'Mozilla/5.0 (Linux; Android 4.4.4; A31 Build/KTU84P) AppleWebKit/537.36 (KHTML, like Gecko) Version/4.0 Chrome/37.0.0.0 Mobile MQQBrowser/6.8 TBS/036849 Safari/537.36 MicroMessenger/6.3.27.880 NetType/WIFI Language/zh_CN'
p2842
sg16
S'd7da8665b21ec6015c4745e4e18491e2'
p2843
sa(dp2844
g2
S'7158'
p2845
sg4
S'7773'
p2846
sg6
S'69c760a9f79b5d870de29b3e41d7b99d'
p2847
sg8
S'xx261ae21c73348075fa6bfe145803453e'
p2848
sg10
S'xx7c11889d568b644595fc506dc352723e'
p2849
sg12
S'xx70f16fb312003f3874f7aef96c54c83f'
p2850
sg14
S'Mozilla/5.0 (Linux; Android 4.4.4; A31 Build/KTU84P) AppleWebKit/537.36 (KHTML, like Gecko) Version/4.0 Chrome/37.0.0.0 Mobile MQQBrowser/6.8 TBS/036849 Safari/537.36 MicroMessenger/6.3.27.880 NetType/WIFI Language/zh_CN'
p2851
sg16
S'd7da8665b21ec6015c4745e4e18491e2'
p2852
sa(dp2853
g2
S'7158'
p2854
sg4
S'7786'
p2855
sg6
S'69c760a9f79b5d870de29b3e41d7b99d'
p2856
sg8
S'xx261ae21c73348075fa6bfe145803453e'
p2857
sg10
S'xx7c11889d568b644595fc506dc352723e'
p2858
sg12
S'xx70f16fb312003f3874f7aef96c54c83f'
p2859
sg14
S'Mozilla/5.0 (Linux; Android 4.4.4; A31 Build/KTU84P) AppleWebKit/537.36 (KHTML, like Gecko) Version/4.0 Chrome/37.0.0.0 Mobile MQQBrowser/6.8 TBS/036849 Safari/537.36 MicroMessenger/6.3.27.880 NetType/WIFI Language/zh_CN'
p2860
sg16
S'd7da8665b21ec6015c4745e4e18491e2'
p2861
sa(dp2862
g2
S'28774'
p2863
sg4
S'7806'
p2864
sg6
S'786d06683180fec2232049e18a69876a'
p2865
sg8
S'xx261ae21c73348075fa6bfe145803453e'
p2866
sg10
S'xx7c11889d568b644595fc506dc352723e'
p2867
sg12
S'xx70f16fb312003f3874f7aef96c54c83f'
p2868
sg14
S'Mozilla/5.0 (Linux; Android 4.4.4; A31 Build/KTU84P) AppleWebKit/537.36 (KHTML, like Gecko) Version/4.0 Chrome/37.0.0.0 Mobile MQQBrowser/6.8 TBS/036849 Safari/537.36 MicroMessenger/6.3.27.880 NetType/WIFI Language/zh_CN'
p2869
sg16
S'd7da8665b21ec6015c4745e4e18491e2'
p2870
sa(dp2871
g2
S'28774'
p2872
sg4
S'7814'
p2873
sg6
S'786d06683180fec2232049e18a69876a'
p2874
sg8
S'xx261ae21c73348075fa6bfe145803453e'
p2875
sg10
S'xx7c11889d568b644595fc506dc352723e'
p2876
sg12
S'xx70f16fb312003f3874f7aef96c54c83f'
p2877
sg14
S'Mozilla/5.0 (Linux; Android 4.4.4; A31 Build/KTU84P) AppleWebKit/537.36 (KHTML, like Gecko) Version/4.0 Chrome/37.0.0.0 Mobile MQQBrowser/6.8 TBS/036849 Safari/537.36 MicroMessenger/6.3.27.880 NetType/WIFI Language/zh_CN'
p2878
sg16
S'd7da8665b21ec6015c4745e4e18491e2'
p2879
sa(dp2880
g2
S'28774'
p2881
sg4
S'7831'
p2882
sg6
S'786d06683180fec2232049e18a69876a'
p2883
sg8
S'xx261ae21c73348075fa6bfe145803453e'
p2884
sg10
S'xx7c11889d568b644595fc506dc352723e'
p2885
sg12
S'xx70f16fb312003f3874f7aef96c54c83f'
p2886
sg14
S'Mozilla/5.0 (Linux; Android 4.4.4; A31 Build/KTU84P) AppleWebKit/537.36 (KHTML, like Gecko) Version/4.0 Chrome/37.0.0.0 Mobile MQQBrowser/6.8 TBS/036849 Safari/537.36 MicroMessenger/6.3.27.880 NetType/WIFI Language/zh_CN'
p2887
sg16
S'd7da8665b21ec6015c4745e4e18491e2'
p2888
sa(dp2889
g2
S'28774'
p2890
sg4
S'7955'
p2891
sg6
S'786d06683180fec2232049e18a69876a'
p2892
sg8
S'xx261ae21c73348075fa6bfe145803453e'
p2893
sg10
S'xx7c11889d568b644595fc506dc352723e'
p2894
sg12
S'xx70f16fb312003f3874f7aef96c54c83f'
p2895
sg14
S'Mozilla/5.0 (Linux; Android 4.4.4; A31 Build/KTU84P) AppleWebKit/537.36 (KHTML, like Gecko) Version/4.0 Chrome/37.0.0.0 Mobile MQQBrowser/6.8 TBS/036849 Safari/537.36 MicroMessenger/6.3.27.880 NetType/WIFI Language/zh_CN'
p2896
sg16
S'd7da8665b21ec6015c4745e4e18491e2'
p2897
sa(dp2898
g2
S'36139'
p2899
sg4
S'8005'
p2900
sg6
S'0d6e895df1b7595abf750b57e447465f'
p2901
sg8
S'xx752e771c350b69da35c8a96c300edc5d'
p2902
sg10
S'xx7c11889d568b644595fc506dc352723e'
p2903
sg12
S'xx70f16fb312003f3874f7aef96c54c83f'
p2904
sg14
S'Mozilla/5.0 (Linux; Android 4.4.4; A31 Build/KTU84P) AppleWebKit/537.36 (KHTML, like Gecko) Version/4.0 Chrome/37.0.0.0 Mobile MQQBrowser/6.8 TBS/036849 Safari/537.36 MicroMessenger/6.3.27.880 NetType/cmnet Language/zh_CN'
p2905
sg16
S'2c4c2305c61441fecaf04532d2f67b82'
p2906
sa(dp2907
g2
S'36139'
p2908
sg4
S'8024'
p2909
sg6
S'0d6e895df1b7595abf750b57e447465f'
p2910
sg8
S'xx752e771c350b69da35c8a96c300edc5d'
p2911
sg10
S'xx7c11889d568b644595fc506dc352723e'
p2912
sg12
S'xx70f16fb312003f3874f7aef96c54c83f'
p2913
sg14
S'Mozilla/5.0 (Linux; Android 4.4.4; A31 Build/KTU84P) AppleWebKit/537.36 (KHTML, like Gecko) Version/4.0 Chrome/37.0.0.0 Mobile MQQBrowser/6.8 TBS/036849 Safari/537.36 MicroMessenger/6.3.27.880 NetType/cmnet Language/zh_CN'
p2914
sg16
S'2c4c2305c61441fecaf04532d2f67b82'
p2915
sa(dp2916
g2
S'28774'
p2917
sg4
S'8149'
p2918
sg6
S'786d06683180fec2232049e18a69876a'
p2919
sg8
S'xx261ae21c73348075fa6bfe145803453e'
p2920
sg10
S'xx7c11889d568b644595fc506dc352723e'
p2921
sg12
S'xx70f16fb312003f3874f7aef96c54c83f'
p2922
sg14
S'Mozilla/5.0 (Linux; Android 4.4.4; A31 Build/KTU84P) AppleWebKit/537.36 (KHTML, like Gecko) Version/4.0 Chrome/37.0.0.0 Mobile MQQBrowser/6.8 TBS/036849 Safari/537.36 MicroMessenger/6.3.27.880 NetType/WIFI Language/zh_CN'
p2923
sg16
S'd7da8665b21ec6015c4745e4e18491e2'
p2924
sa(dp2925
g2
S'18943'
p2926
sg4
S'8172'
p2927
sg6
S'd66c95a4c1c7aa3ad1fe1162a8491ff3'
p2928
sg8
S'xx261ae21c73348075fa6bfe145803453e'
p2929
sg10
S'xx7c11889d568b644595fc506dc352723e'
p2930
sg12
S'xx70f16fb312003f3874f7aef96c54c83f'
p2931
sg14
S'Mozilla/5.0 (Linux; Android 4.4.4; A31 Build/KTU84P) AppleWebKit/537.36 (KHTML, like Gecko) Version/4.0 Chrome/37.0.0.0 Mobile MQQBrowser/6.8 TBS/036849 Safari/537.36 MicroMessenger/6.3.27.880 NetType/WIFI Language/zh_CN'
p2932
sg16
S'd7da8665b21ec6015c4745e4e18491e2'
p2933
sa(dp2934
g2
S'18943'
p2935
sg4
S'8183'
p2936
sg6
S'd66c95a4c1c7aa3ad1fe1162a8491ff3'
p2937
sg8
S'xx261ae21c73348075fa6bfe145803453e'
p2938
sg10
S'xx7c11889d568b644595fc506dc352723e'
p2939
sg12
S'xx70f16fb312003f3874f7aef96c54c83f'
p2940
sg14
S'Mozilla/5.0 (Linux; Android 4.4.4; A31 Build/KTU84P) AppleWebKit/537.36 (KHTML, like Gecko) Version/4.0 Chrome/37.0.0.0 Mobile MQQBrowser/6.8 TBS/036849 Safari/537.36 MicroMessenger/6.3.27.880 NetType/WIFI Language/zh_CN'
p2941
sg16
S'd7da8665b21ec6015c4745e4e18491e2'
p2942
sa(dp2943
g2
S'28774'
p2944
sg4
S'8336'
p2945
sg6
S'786d06683180fec2232049e18a69876a'
p2946
sg8
S'xx261ae21c73348075fa6bfe145803453e'
p2947
sg10
S'xx7c11889d568b644595fc506dc352723e'
p2948
sg12
S'xx70f16fb312003f3874f7aef96c54c83f'
p2949
sg14
S'Mozilla/5.0 (Linux; Android 4.4.4; A31 Build/KTU84P) AppleWebKit/537.36 (KHTML, like Gecko) Version/4.0 Chrome/37.0.0.0 Mobile MQQBrowser/6.8 TBS/036849 Safari/537.36 MicroMessenger/6.3.27.880 NetType/WIFI Language/zh_CN'
p2950
sg16
S'd7da8665b21ec6015c4745e4e18491e2'
p2951
sa(dp2952
g2
S'28774'
p2953
sg4
S'8347'
p2954
sg6
S'786d06683180fec2232049e18a69876a'
p2955
sg8
S'xx261ae21c73348075fa6bfe145803453e'
p2956
sg10
S'xx7c11889d568b644595fc506dc352723e'
p2957
sg12
S'xx70f16fb312003f3874f7aef96c54c83f'
p2958
sg14
S'Mozilla/5.0 (Linux; Android 4.4.4; A31 Build/KTU84P) AppleWebKit/537.36 (KHTML, like Gecko) Version/4.0 Chrome/37.0.0.0 Mobile MQQBrowser/6.8 TBS/036849 Safari/537.36 MicroMessenger/6.3.27.880 NetType/WIFI Language/zh_CN'
p2959
sg16
S'd7da8665b21ec6015c4745e4e18491e2'
p2960
sa(dp2961
g2
S'29498'
p2962
sg4
S'8505'
p2963
sg6
S'ff6a447819c973a2be563bbc0dc1b5db'
p2964
sg8
S'xx16c8df88b7c64b7d920b6e0b9f3145d7'
p2965
sg10
S'xx0fd8297ca224a3e8c8ff886c3e121685'
p2966
sg12
S'xx70f16fb312003f3874f7aef96c54c83f'
p2967
sg14
S'Mozilla/5.0 (Linux; Android 4.4.4; A31 Build/KTU84P) AppleWebKit/537.36 (KHTML, like Gecko) Version/4.0 Chrome/37.0.0.0 Mobile MQQBrowser/6.8 TBS/036849 Safari/537.36 MicroMessenger/6.3.27.880 NetType/WIFI Language/zh_CN'
p2968
sg16
S'd7da8665b21ec6015c4745e4e18491e2'
p2969
sa(dp2970
g2
S'29498'
p2971
sg4
S'8515'
p2972
sg6
S'ff6a447819c973a2be563bbc0dc1b5db'
p2973
sg8
S'xx16c8df88b7c64b7d920b6e0b9f3145d7'
p2974
sg10
S'xx0fd8297ca224a3e8c8ff886c3e121685'
p2975
sg12
S'xx70f16fb312003f3874f7aef96c54c83f'
p2976
sg14
S'Mozilla/5.0 (Linux; Android 4.4.4; A31 Build/KTU84P) AppleWebKit/537.36 (KHTML, like Gecko) Version/4.0 Chrome/37.0.0.0 Mobile MQQBrowser/6.8 TBS/036849 Safari/537.36 MicroMessenger/6.3.27.880 NetType/WIFI Language/zh_CN'
p2977
sg16
S'd7da8665b21ec6015c4745e4e18491e2'
p2978
sa(dp2979
g2
S'18943'
p2980
sg4
S'8630'
p2981
sg6
S'69c760a9f79b5d870de29b3e41d7b99d'
p2982
sg8
S'xx261ae21c73348075fa6bfe145803453e'
p2983
sg10
S'xx7c11889d568b644595fc506dc352723e'
p2984
sg12
S'xx70f16fb312003f3874f7aef96c54c83f'
p2985
sg14
S'Mozilla/5.0 (Linux; Android 4.4.4; A31 Build/KTU84P) AppleWebKit/537.36 (KHTML, like Gecko) Version/4.0 Chrome/37.0.0.0 Mobile MQQBrowser/6.8 TBS/036849 Safari/537.36 MicroMessenger/6.3.27.880 NetType/WIFI Language/zh_CN'
p2986
sg16
S'd7da8665b21ec6015c4745e4e18491e2'
p2987
sa(dp2988
g2
S'18943'
p2989
sg4
S'8647'
p2990
sg6
S'69c760a9f79b5d870de29b3e41d7b99d'
p2991
sg8
S'xx261ae21c73348075fa6bfe145803453e'
p2992
sg10
S'xx7c11889d568b644595fc506dc352723e'
p2993
sg12
S'xx70f16fb312003f3874f7aef96c54c83f'
p2994
sg14
S'Mozilla/5.0 (Linux; Android 4.4.4; A31 Build/KTU84P) AppleWebKit/537.36 (KHTML, like Gecko) Version/4.0 Chrome/37.0.0.0 Mobile MQQBrowser/6.8 TBS/036849 Safari/537.36 MicroMessenger/6.3.27.880 NetType/WIFI Language/zh_CN'
p2995
sg16
S'd7da8665b21ec6015c4745e4e18491e2'
p2996
sa(dp2997
g2
S'18943'
p2998
sg4
S'8668'
p2999
sg6
S'69c760a9f79b5d870de29b3e41d7b99d'
p3000
sg8
S'xx261ae21c73348075fa6bfe145803453e'
p3001
sg10
S'xx7c11889d568b644595fc506dc352723e'
p3002
sg12
S'xx70f16fb312003f3874f7aef96c54c83f'
p3003
sg14
S'Mozilla/5.0 (Linux; Android 4.4.4; A31 Build/KTU84P) AppleWebKit/537.36 (KHTML, like Gecko) Version/4.0 Chrome/37.0.0.0 Mobile MQQBrowser/6.8 TBS/036849 Safari/537.36 MicroMessenger/6.3.27.880 NetType/WIFI Language/zh_CN'
p3004
sg16
S'd7da8665b21ec6015c4745e4e18491e2'
p3005
sa(dp3006
g2
S'18943'
p3007
sg4
S'8687'
p3008
sg6
S'69c760a9f79b5d870de29b3e41d7b99d'
p3009
sg8
S'xx261ae21c73348075fa6bfe145803453e'
p3010
sg10
S'xx7c11889d568b644595fc506dc352723e'
p3011
sg12
S'xx70f16fb312003f3874f7aef96c54c83f'
p3012
sg14
S'Mozilla/5.0 (Linux; Android 4.4.4; A31 Build/KTU84P) AppleWebKit/537.36 (KHTML, like Gecko) Version/4.0 Chrome/37.0.0.0 Mobile MQQBrowser/6.8 TBS/036849 Safari/537.36 MicroMessenger/6.3.27.880 NetType/WIFI Language/zh_CN'
p3013
sg16
S'd7da8665b21ec6015c4745e4e18491e2'
p3014
sa(dp3015
g2
S'18943'
p3016
sg4
S'8707'
p3017
sg6
S'69c760a9f79b5d870de29b3e41d7b99d'
p3018
sg8
S'xx261ae21c73348075fa6bfe145803453e'
p3019
sg10
S'xx7c11889d568b644595fc506dc352723e'
p3020
sg12
S'xx70f16fb312003f3874f7aef96c54c83f'
p3021
sg14
S'Mozilla/5.0 (Linux; Android 4.4.4; A31 Build/KTU84P) AppleWebKit/537.36 (KHTML, like Gecko) Version/4.0 Chrome/37.0.0.0 Mobile MQQBrowser/6.8 TBS/036849 Safari/537.36 MicroMessenger/6.3.27.880 NetType/WIFI Language/zh_CN'
p3022
sg16
S'd7da8665b21ec6015c4745e4e18491e2'
p3023
sa(dp3024
g2
S'18943'
p3025
sg4
S'8739'
p3026
sg6
S'69c760a9f79b5d870de29b3e41d7b99d'
p3027
sg8
S'xx261ae21c73348075fa6bfe145803453e'
p3028
sg10
S'xx7c11889d568b644595fc506dc352723e'
p3029
sg12
S'xx70f16fb312003f3874f7aef96c54c83f'
p3030
sg14
S'Mozilla/5.0 (Linux; Android 4.4.4; A31 Build/KTU84P) AppleWebKit/537.36 (KHTML, like Gecko) Version/4.0 Chrome/37.0.0.0 Mobile MQQBrowser/6.8 TBS/036849 Safari/537.36 MicroMessenger/6.3.27.880 NetType/WIFI Language/zh_CN'
p3031
sg16
S'd7da8665b21ec6015c4745e4e18491e2'
p3032
sa(dp3033
g2
S'6563'
p3034
sg4
S'8778'
p3035
sg6
S'aaffa98c2538fa99b0da81d48e5bb2f5'
p3036
sg8
S'xx752e771c350b69da35c8a96c300edc5d'
p3037
sg10
S'xx7c11889d568b644595fc506dc352723e'
p3038
sg12
S'xx70f16fb312003f3874f7aef96c54c83f'
p3039
sg14
S'Mozilla/5.0 (Linux; Android 4.4.4; A31 Build/KTU84P) AppleWebKit/537.36 (KHTML, like Gecko) Version/4.0 Chrome/37.0.0.0 Mobile MQQBrowser/6.8 TBS/036849 Safari/537.36 MicroMessenger/6.3.27.880 NetType/cmnet Language/zh_CN'
p3040
sg16
S'2c4c2305c61441fecaf04532d2f67b82'
p3041
sa(dp3042
g2
S'6563'
p3043
sg4
S'8790'
p3044
sg6
S'aaffa98c2538fa99b0da81d48e5bb2f5'
p3045
sg8
S'xx752e771c350b69da35c8a96c300edc5d'
p3046
sg10
S'xx7c11889d568b644595fc506dc352723e'
p3047
sg12
S'xx70f16fb312003f3874f7aef96c54c83f'
p3048
sg14
S'Mozilla/5.0 (Linux; Android 4.4.4; A31 Build/KTU84P) AppleWebKit/537.36 (KHTML, like Gecko) Version/4.0 Chrome/37.0.0.0 Mobile MQQBrowser/6.8 TBS/036849 Safari/537.36 MicroMessenger/6.3.27.880 NetType/cmnet Language/zh_CN'
p3049
sg16
S'2c4c2305c61441fecaf04532d2f67b82'
p3050
sa(dp3051
g2
S'6563'
p3052
sg4
S'8802'
p3053
sg6
S'aaffa98c2538fa99b0da81d48e5bb2f5'
p3054
sg8
S'xx752e771c350b69da35c8a96c300edc5d'
p3055
sg10
S'xx7c11889d568b644595fc506dc352723e'
p3056
sg12
S'xx70f16fb312003f3874f7aef96c54c83f'
p3057
sg14
S'Mozilla/5.0 (Linux; Android 4.4.4; A31 Build/KTU84P) AppleWebKit/537.36 (KHTML, like Gecko) Version/4.0 Chrome/37.0.0.0 Mobile MQQBrowser/6.8 TBS/036849 Safari/537.36 MicroMessenger/6.3.27.880 NetType/cmnet Language/zh_CN'
p3058
sg16
S'2c4c2305c61441fecaf04532d2f67b82'
p3059
sa.