(lp0
(dp1
S'user_id'
p2
S'41441'
p3
sS'data_id'
p4
S'120'
p5
sS'ip'
p6
S'2dc6db7661242698c8fd21f0169c5ea5'
p7
sS'phone_B'
p8
S'xx1437919b7e0b17a77afafc672bafc073'
p9
sS'phone_C'
p10
S'xx5014244b2b17d2eb4f9761ddb041ebcd'
p11
sS'phone_A'
p12
S'xx707ff639dfe0f7713d03654f402196b7'
p13
sS'user_agent'
p14
S'Mozilla/5.0 (Linux; Android 5.1; OPPO R9m Build/LMY47I) AppleWebKit/537.36 (KHTML, like Gecko) Version/4.0 Chrome/37.0.0.0 Mobile MQQBrowser/6.8 TBS/036849 Safari/537.36 MicroMessenger/6.3.27.880 NetType/cmnet Language/zh_CN'
p15
sS'ua'
p16
S'519ddc31e196e1a07810952ba23fca45'
p17
sa(dp18
g2
S'41441'
p19
sg4
S'127'
p20
sg6
S'2dc6db7661242698c8fd21f0169c5ea5'
p21
sg8
S'xx1437919b7e0b17a77afafc672bafc073'
p22
sg10
S'xx5014244b2b17d2eb4f9761ddb041ebcd'
p23
sg12
S'xx707ff639dfe0f7713d03654f402196b7'
p24
sg14
S'Mozilla/5.0 (Linux; Android 5.1; OPPO R9m Build/LMY47I) AppleWebKit/537.36 (KHTML, like Gecko) Version/4.0 Chrome/37.0.0.0 Mobile MQQBrowser/6.8 TBS/036849 Safari/537.36 MicroMessenger/6.3.27.880 NetType/cmnet Language/zh_CN'
p25
sg16
S'519ddc31e196e1a07810952ba23fca45'
p26
sa(dp27
g2
S'41441'
p28
sg4
S'209'
p29
sg6
S'2dc6db7661242698c8fd21f0169c5ea5'
p30
sg8
S'xx1437919b7e0b17a77afafc672bafc073'
p31
sg10
S'xx5014244b2b17d2eb4f9761ddb041ebcd'
p32
sg12
S'xx707ff639dfe0f7713d03654f402196b7'
p33
sg14
S'Mozilla/5.0 (Linux; Android 5.1; OPPO R9m Build/LMY47I) AppleWebKit/537.36 (KHTML, like Gecko) Version/4.0 Chrome/37.0.0.0 Mobile MQQBrowser/6.8 TBS/036849 Safari/537.36 MicroMessenger/6.3.27.880 NetType/cmnet Language/zh_CN'
p34
sg16
S'519ddc31e196e1a07810952ba23fca45'
p35
sa(dp36
g2
S'37514'
p37
sg4
S'231'
p38
sg6
S'1cb1750e4c77601799def0feb967d153'
p39
sg8
S'xxe42799f346966caa12a34ac56a9a297e'
p40
sg10
S'xx5014244b2b17d2eb4f9761ddb041ebcd'
p41
sg12
S'xx707ff639dfe0f7713d03654f402196b7'
p42
sg14
S'Mozilla/5.0 (Linux; Android 5.1; OPPO R9m Build/LMY47I) AppleWebKit/537.36 (KHTML, like Gecko) Version/4.0 Chrome/37.0.0.0 Mobile MQQBrowser/6.8 TBS/036849 Safari/537.36 MicroMessenger/6.3.27.880 NetType/WIFI Language/zh_CN'
p43
sg16
S'e7901436e2b6f0729acc10a67f1215a0'
p44
sa(dp45
g2
S'37514'
p46
sg4
S'243'
p47
sg6
S'1cb1750e4c77601799def0feb967d153'
p48
sg8
S'xxe42799f346966caa12a34ac56a9a297e'
p49
sg10
S'xx5014244b2b17d2eb4f9761ddb041ebcd'
p50
sg12
S'xx707ff639dfe0f7713d03654f402196b7'
p51
sg14
S'Mozilla/5.0 (Linux; Android 5.1; OPPO R9m Build/LMY47I) AppleWebKit/537.36 (KHTML, like Gecko) Version/4.0 Chrome/37.0.0.0 Mobile MQQBrowser/6.8 TBS/036849 Safari/537.36 MicroMessenger/6.3.27.880 NetType/WIFI Language/zh_CN'
p52
sg16
S'e7901436e2b6f0729acc10a67f1215a0'
p53
sa(dp54
g2
S'20712'
p55
sg4
S'282'
p56
sg6
S'918063ef0a5eb66c7ad3a926e6de74ed'
p57
sg8
S'xxe42799f346966caa12a34ac56a9a297e'
p58
sg10
S'xx5014244b2b17d2eb4f9761ddb041ebcd'
p59
sg12
S'xx707ff639dfe0f7713d03654f402196b7'
p60
sg14
S'Mozilla/5.0 (Linux; Android 5.1; OPPO R9m Build/LMY47I) AppleWebKit/537.36 (KHTML, like Gecko) Version/4.0 Chrome/37.0.0.0 Mobile MQQBrowser/6.8 TBS/036849 Safari/537.36 MicroMessenger/6.3.27.880 NetType/WIFI Language/zh_CN'
p61
sg16
S'e7901436e2b6f0729acc10a67f1215a0'
p62
sa(dp63
g2
S'20712'
p64
sg4
S'297'
p65
sg6
S'918063ef0a5eb66c7ad3a926e6de74ed'
p66
sg8
S'xxe42799f346966caa12a34ac56a9a297e'
p67
sg10
S'xx5014244b2b17d2eb4f9761ddb041ebcd'
p68
sg12
S'xx707ff639dfe0f7713d03654f402196b7'
p69
sg14
S'Mozilla/5.0 (Linux; Android 5.1; OPPO R9m Build/LMY47I) AppleWebKit/537.36 (KHTML, like Gecko) Version/4.0 Chrome/37.0.0.0 Mobile MQQBrowser/6.8 TBS/036849 Safari/537.36 MicroMessenger/6.3.27.880 NetType/WIFI Language/zh_CN'
p70
sg16
S'e7901436e2b6f0729acc10a67f1215a0'
p71
sa(dp72
g2
S'37925'
p73
sg4
S'644'
p74
sg6
S'1cb1750e4c77601799def0feb967d153'
p75
sg8
S'xxe42799f346966caa12a34ac56a9a297e'
p76
sg10
S'xx5014244b2b17d2eb4f9761ddb041ebcd'
p77
sg12
S'xx707ff639dfe0f7713d03654f402196b7'
p78
sg14
S'Mozilla/5.0 (Linux; Android 5.1; OPPO R9m Build/LMY47I) AppleWebKit/537.36 (KHTML, like Gecko) Version/4.0 Chrome/37.0.0.0 Mobile MQQBrowser/6.8 TBS/036849 Safari/537.36 MicroMessenger/6.3.27.880 NetType/WIFI Language/zh_CN'
p79
sg16
S'e7901436e2b6f0729acc10a67f1215a0'
p80
sa(dp81
g2
S'37925'
p82
sg4
S'659'
p83
sg6
S'1cb1750e4c77601799def0feb967d153'
p84
sg8
S'xxe42799f346966caa12a34ac56a9a297e'
p85
sg10
S'xx5014244b2b17d2eb4f9761ddb041ebcd'
p86
sg12
S'xx707ff639dfe0f7713d03654f402196b7'
p87
sg14
S'Mozilla/5.0 (Linux; Android 5.1; OPPO R9m Build/LMY47I) AppleWebKit/537.36 (KHTML, like Gecko) Version/4.0 Chrome/37.0.0.0 Mobile MQQBrowser/6.8 TBS/036849 Safari/537.36 MicroMessenger/6.3.27.880 NetType/WIFI Language/zh_CN'
p88
sg16
S'e7901436e2b6f0729acc10a67f1215a0'
p89
sa(dp90
g2
S'10708'
p91
sg4
S'876'
p92
sg6
S'bb253c38f47e65ae996b4ea409b55318'
p93
sg8
S'xx1c2ddddcaa8d5ca9f8b91a45a6428484'
p94
sg10
S'xx5014244b2b17d2eb4f9761ddb041ebcd'
p95
sg12
S'xx707ff639dfe0f7713d03654f402196b7'
p96
sg14
S'Mozilla/5.0 (Linux; Android 5.1; OPPO R9m Build/LMY47I) AppleWebKit/537.36 (KHTML, like Gecko) Version/4.0 Chrome/37.0.0.0 Mobile MQQBrowser/6.8 TBS/036865 Safari/537.36 MicroMessenger/6.3.27.880 NetType/WIFI Language/zh_CN'
p97
sg16
S'92c44eea0add542a8907a633f3442e48'
p98
sa(dp99
g2
S'10708'
p100
sg4
S'896'
p101
sg6
S'bb253c38f47e65ae996b4ea409b55318'
p102
sg8
S'xx1c2ddddcaa8d5ca9f8b91a45a6428484'
p103
sg10
S'xx5014244b2b17d2eb4f9761ddb041ebcd'
p104
sg12
S'xx707ff639dfe0f7713d03654f402196b7'
p105
sg14
S'Mozilla/5.0 (Linux; Android 5.1; OPPO R9m Build/LMY47I) AppleWebKit/537.36 (KHTML, like Gecko) Version/4.0 Chrome/37.0.0.0 Mobile MQQBrowser/6.8 TBS/036865 Safari/537.36 MicroMessenger/6.3.27.880 NetType/WIFI Language/zh_CN'
p106
sg16
S'92c44eea0add542a8907a633f3442e48'
p107
sa(dp108
g2
S'10708'
p109
sg4
S'913'
p110
sg6
S'bb253c38f47e65ae996b4ea409b55318'
p111
sg8
S'xx1c2ddddcaa8d5ca9f8b91a45a6428484'
p112
sg10
S'xx5014244b2b17d2eb4f9761ddb041ebcd'
p113
sg12
S'xx707ff639dfe0f7713d03654f402196b7'
p114
sg14
S'Mozilla/5.0 (Linux; Android 5.1; OPPO R9m Build/LMY47I) AppleWebKit/537.36 (KHTML, like Gecko) Version/4.0 Chrome/37.0.0.0 Mobile MQQBrowser/6.8 TBS/036865 Safari/537.36 MicroMessenger/6.3.27.880 NetType/WIFI Language/zh_CN'
p115
sg16
S'92c44eea0add542a8907a633f3442e48'
p116
sa(dp117
g2
S'10708'
p118
sg4
S'931'
p119
sg6
S'bb253c38f47e65ae996b4ea409b55318'
p120
sg8
S'xx1c2ddddcaa8d5ca9f8b91a45a6428484'
p121
sg10
S'xx5014244b2b17d2eb4f9761ddb041ebcd'
p122
sg12
S'xx707ff639dfe0f7713d03654f402196b7'
p123
sg14
S'Mozilla/5.0 (Linux; Android 5.1; OPPO R9m Build/LMY47I) AppleWebKit/537.36 (KHTML, like Gecko) Version/4.0 Chrome/37.0.0.0 Mobile MQQBrowser/6.8 TBS/036865 Safari/537.36 MicroMessenger/6.3.27.880 NetType/WIFI Language/zh_CN'
p124
sg16
S'92c44eea0add542a8907a633f3442e48'
p125
sa(dp126
g2
S'38494'
p127
sg4
S'1041'
p128
sg6
S'1cb1750e4c77601799def0feb967d153'
p129
sg8
S'xxe42799f346966caa12a34ac56a9a297e'
p130
sg10
S'xx5014244b2b17d2eb4f9761ddb041ebcd'
p131
sg12
S'xx707ff639dfe0f7713d03654f402196b7'
p132
sg14
S'Mozilla/5.0 (Linux; Android 5.1; OPPO R9m Build/LMY47I) AppleWebKit/537.36 (KHTML, like Gecko) Version/4.0 Chrome/37.0.0.0 Mobile MQQBrowser/6.8 TBS/036849 Safari/537.36 MicroMessenger/6.3.27.880 NetType/WIFI Language/zh_CN'
p133
sg16
S'e7901436e2b6f0729acc10a67f1215a0'
p134
sa(dp135
g2
S'38494'
p136
sg4
S'1062'
p137
sg6
S'1cb1750e4c77601799def0feb967d153'
p138
sg8
S'xxe42799f346966caa12a34ac56a9a297e'
p139
sg10
S'xx5014244b2b17d2eb4f9761ddb041ebcd'
p140
sg12
S'xx707ff639dfe0f7713d03654f402196b7'
p141
sg14
S'Mozilla/5.0 (Linux; Android 5.1; OPPO R9m Build/LMY47I) AppleWebKit/537.36 (KHTML, like Gecko) Version/4.0 Chrome/37.0.0.0 Mobile MQQBrowser/6.8 TBS/036849 Safari/537.36 MicroMessenger/6.3.27.880 NetType/WIFI Language/zh_CN'
p142
sg16
S'e7901436e2b6f0729acc10a67f1215a0'
p143
sa(dp144
g2
S'33642'
p145
sg4
S'1313'
p146
sg6
S'eb5bded416b99b664743a96307973305'
p147
sg8
S'xx1437919b7e0b17a77afafc672bafc073'
p148
sg10
S'xx5014244b2b17d2eb4f9761ddb041ebcd'
p149
sg12
S'xx707ff639dfe0f7713d03654f402196b7'
p150
sg14
S'Mozilla/5.0 (Linux; Android 5.1; OPPO R9m Build/LMY47I) AppleWebKit/537.36 (KHTML, like Gecko) Version/4.0 Chrome/37.0.0.0 Mobile MQQBrowser/6.8 TBS/036849 Safari/537.36 MicroMessenger/6.3.27.880 NetType/cmnet Language/zh_CN'
p151
sg16
S'519ddc31e196e1a07810952ba23fca45'
p152
sa(dp153
g2
S'33642'
p154
sg4
S'1324'
p155
sg6
S'eb5bded416b99b664743a96307973305'
p156
sg8
S'xx1437919b7e0b17a77afafc672bafc073'
p157
sg10
S'xx5014244b2b17d2eb4f9761ddb041ebcd'
p158
sg12
S'xx707ff639dfe0f7713d03654f402196b7'
p159
sg14
S'Mozilla/5.0 (Linux; Android 5.1; OPPO R9m Build/LMY47I) AppleWebKit/537.36 (KHTML, like Gecko) Version/4.0 Chrome/37.0.0.0 Mobile MQQBrowser/6.8 TBS/036849 Safari/537.36 MicroMessenger/6.3.27.880 NetType/cmnet Language/zh_CN'
p160
sg16
S'519ddc31e196e1a07810952ba23fca45'
p161
sa(dp162
g2
S'24358'
p163
sg4
S'3609'
p164
sg6
S'ccd82a5cfaccf457a606d8c0e48ba55b'
p165
sg8
S'xxc3a08b6db860b432b35058bc07e48ecb'
p166
sg10
S'xx5014244b2b17d2eb4f9761ddb041ebcd'
p167
sg12
S'xx707ff639dfe0f7713d03654f402196b7'
p168
sg14
S'Mozilla/5.0 (Linux; Android 5.1; OPPO R9m Build/LMY47I) AppleWebKit/537.36 (KHTML, like Gecko) Version/4.0 Chrome/37.0.0.0 Mobile MQQBrowser/6.8 TBS/036869 Safari/537.36 MicroMessenger/6.3.27.880 NetType/WIFI Language/zh_CN'
p169
sg16
S'20becddc471685f94ec29ca3b891ca54'
p170
sa(dp171
g2
S'24358'
p172
sg4
S'3626'
p173
sg6
S'ccd82a5cfaccf457a606d8c0e48ba55b'
p174
sg8
S'xxc3a08b6db860b432b35058bc07e48ecb'
p175
sg10
S'xx5014244b2b17d2eb4f9761ddb041ebcd'
p176
sg12
S'xx707ff639dfe0f7713d03654f402196b7'
p177
sg14
S'Mozilla/5.0 (Linux; Android 5.1; OPPO R9m Build/LMY47I) AppleWebKit/537.36 (KHTML, like Gecko) Version/4.0 Chrome/37.0.0.0 Mobile MQQBrowser/6.8 TBS/036869 Safari/537.36 MicroMessenger/6.3.27.880 NetType/WIFI Language/zh_CN'
p178
sg16
S'20becddc471685f94ec29ca3b891ca54'
p179
sa(dp180
g2
S'24358'
p181
sg4
S'3640'
p182
sg6
S'ccd82a5cfaccf457a606d8c0e48ba55b'
p183
sg8
S'xxc3a08b6db860b432b35058bc07e48ecb'
p184
sg10
S'xx5014244b2b17d2eb4f9761ddb041ebcd'
p185
sg12
S'xx707ff639dfe0f7713d03654f402196b7'
p186
sg14
S'Mozilla/5.0 (Linux; Android 5.1; OPPO R9m Build/LMY47I) AppleWebKit/537.36 (KHTML, like Gecko) Version/4.0 Chrome/37.0.0.0 Mobile MQQBrowser/6.8 TBS/036869 Safari/537.36 MicroMessenger/6.3.27.880 NetType/WIFI Language/zh_CN'
p187
sg16
S'20becddc471685f94ec29ca3b891ca54'
p188
sa(dp189
g2
S'49785'
p190
sg4
S'4529'
p191
sg6
S'83f5d8cfcd78f29466dca6167994ebe7'
p192
sg8
S'xx8fd0168a78e9790aa79fa27c210ea217'
p193
sg10
S'xx5014244b2b17d2eb4f9761ddb041ebcd'
p194
sg12
S'xx707ff639dfe0f7713d03654f402196b7'
p195
sg14
S'Mozilla/5.0 (Linux; Android 5.1; OPPO R9m Build/LMY47I) AppleWebKit/537.36 (KHTML, like Gecko) Version/4.0 Chrome/37.0.0.0 Mobile MQQBrowser/6.8 TBS/036849 Safari/537.36 MicroMessenger/6.3.25.861 NetType/WIFI Language/zh_CN'
p196
sg16
S'6aac0ea66074f2ccb73f45c7e6723541'
p197
sa(dp198
g2
S'49785'
p199
sg4
S'4558'
p200
sg6
S'83f5d8cfcd78f29466dca6167994ebe7'
p201
sg8
S'xx8fd0168a78e9790aa79fa27c210ea217'
p202
sg10
S'xx5014244b2b17d2eb4f9761ddb041ebcd'
p203
sg12
S'xx707ff639dfe0f7713d03654f402196b7'
p204
sg14
S'Mozilla/5.0 (Linux; Android 5.1; OPPO R9m Build/LMY47I) AppleWebKit/537.36 (KHTML, like Gecko) Version/4.0 Chrome/37.0.0.0 Mobile MQQBrowser/6.8 TBS/036849 Safari/537.36 MicroMessenger/6.3.25.861 NetType/WIFI Language/zh_CN'
p205
sg16
S'6aac0ea66074f2ccb73f45c7e6723541'
p206
sa(dp207
g2
S'49785'
p208
sg4
S'4582'
p209
sg6
S'83f5d8cfcd78f29466dca6167994ebe7'
p210
sg8
S'xx8fd0168a78e9790aa79fa27c210ea217'
p211
sg10
S'xx5014244b2b17d2eb4f9761ddb041ebcd'
p212
sg12
S'xx707ff639dfe0f7713d03654f402196b7'
p213
sg14
S'Mozilla/5.0 (Linux; Android 5.1; OPPO R9m Build/LMY47I) AppleWebKit/537.36 (KHTML, like Gecko) Version/4.0 Chrome/37.0.0.0 Mobile MQQBrowser/6.8 TBS/036849 Safari/537.36 MicroMessenger/6.3.25.861 NetType/WIFI Language/zh_CN'
p214
sg16
S'6aac0ea66074f2ccb73f45c7e6723541'
p215
sa(dp216
g2
S'33642'
p217
sg4
S'4637'
p218
sg6
S'eb5bded416b99b664743a96307973305'
p219
sg8
S'xx1437919b7e0b17a77afafc672bafc073'
p220
sg10
S'xx5014244b2b17d2eb4f9761ddb041ebcd'
p221
sg12
S'xx707ff639dfe0f7713d03654f402196b7'
p222
sg14
S'Mozilla/5.0 (Linux; Android 5.1; OPPO R9m Build/LMY47I) AppleWebKit/537.36 (KHTML, like Gecko) Version/4.0 Chrome/37.0.0.0 Mobile MQQBrowser/6.8 TBS/036849 Safari/537.36 MicroMessenger/6.3.27.880 NetType/cmnet Language/zh_CN'
p223
sg16
S'519ddc31e196e1a07810952ba23fca45'
p224
sa(dp225
g2
S'41441'
p226
sg4
S'5465'
p227
sg6
S'9817071a43138a9780995d421f3e126e'
p228
sg8
S'xx1437919b7e0b17a77afafc672bafc073'
p229
sg10
S'xx5014244b2b17d2eb4f9761ddb041ebcd'
p230
sg12
S'xx707ff639dfe0f7713d03654f402196b7'
p231
sg14
S'Mozilla/5.0 (Linux; Android 5.1; OPPO R9m Build/LMY47I) AppleWebKit/537.36 (KHTML, like Gecko) Version/4.0 Chrome/37.0.0.0 Mobile MQQBrowser/6.8 TBS/036849 Safari/537.36 MicroMessenger/6.3.27.880 NetType/cmnet Language/zh_CN'
p232
sg16
S'519ddc31e196e1a07810952ba23fca45'
p233
sa(dp234
g2
S'41441'
p235
sg4
S'5480'
p236
sg6
S'9817071a43138a9780995d421f3e126e'
p237
sg8
S'xx1437919b7e0b17a77afafc672bafc073'
p238
sg10
S'xx5014244b2b17d2eb4f9761ddb041ebcd'
p239
sg12
S'xx707ff639dfe0f7713d03654f402196b7'
p240
sg14
S'Mozilla/5.0 (Linux; Android 5.1; OPPO R9m Build/LMY47I) AppleWebKit/537.36 (KHTML, like Gecko) Version/4.0 Chrome/37.0.0.0 Mobile MQQBrowser/6.8 TBS/036849 Safari/537.36 MicroMessenger/6.3.27.880 NetType/cmnet Language/zh_CN'
p241
sg16
S'519ddc31e196e1a07810952ba23fca45'
p242
sa(dp243
g2
S'41441'
p244
sg4
S'5587'
p245
sg6
S'9817071a43138a9780995d421f3e126e'
p246
sg8
S'xx1437919b7e0b17a77afafc672bafc073'
p247
sg10
S'xx5014244b2b17d2eb4f9761ddb041ebcd'
p248
sg12
S'xx707ff639dfe0f7713d03654f402196b7'
p249
sg14
S'Mozilla/5.0 (Linux; Android 5.1; OPPO R9m Build/LMY47I) AppleWebKit/537.36 (KHTML, like Gecko) Version/4.0 Chrome/37.0.0.0 Mobile MQQBrowser/6.8 TBS/036849 Safari/537.36 MicroMessenger/6.3.27.880 NetType/cmnet Language/zh_CN'
p250
sg16
S'519ddc31e196e1a07810952ba23fca45'
p251
sa(dp252
g2
S'41441'
p253
sg4
S'5635'
p254
sg6
S'9817071a43138a9780995d421f3e126e'
p255
sg8
S'xx1437919b7e0b17a77afafc672bafc073'
p256
sg10
S'xx5014244b2b17d2eb4f9761ddb041ebcd'
p257
sg12
S'xx707ff639dfe0f7713d03654f402196b7'
p258
sg14
S'Mozilla/5.0 (Linux; Android 5.1; OPPO R9m Build/LMY47I) AppleWebKit/537.36 (KHTML, like Gecko) Version/4.0 Chrome/37.0.0.0 Mobile MQQBrowser/6.8 TBS/036849 Safari/537.36 MicroMessenger/6.3.27.880 NetType/cmnet Language/zh_CN'
p259
sg16
S'519ddc31e196e1a07810952ba23fca45'
p260
sa(dp261
g2
S'20377'
p262
sg4
S'7562'
p263
sg6
S'16cf530cdd8fde8a58f7b4e5ffb6e2df'
p264
sg8
S'xxe42799f346966caa12a34ac56a9a297e'
p265
sg10
S'xx5014244b2b17d2eb4f9761ddb041ebcd'
p266
sg12
S'xx707ff639dfe0f7713d03654f402196b7'
p267
sg14
S'Mozilla/5.0 (Linux; Android 5.1; OPPO R9m Build/LMY47I) AppleWebKit/537.36 (KHTML, like Gecko) Version/4.0 Chrome/37.0.0.0 Mobile MQQBrowser/6.8 TBS/036849 Safari/537.36 MicroMessenger/6.3.27.880 NetType/WIFI Language/zh_CN'
p268
sg16
S'e7901436e2b6f0729acc10a67f1215a0'
p269
sa(dp270
g2
S'20377'
p271
sg4
S'7576'
p272
sg6
S'16cf530cdd8fde8a58f7b4e5ffb6e2df'
p273
sg8
S'xxe42799f346966caa12a34ac56a9a297e'
p274
sg10
S'xx5014244b2b17d2eb4f9761ddb041ebcd'
p275
sg12
S'xx707ff639dfe0f7713d03654f402196b7'
p276
sg14
S'Mozilla/5.0 (Linux; Android 5.1; OPPO R9m Build/LMY47I) AppleWebKit/537.36 (KHTML, like Gecko) Version/4.0 Chrome/37.0.0.0 Mobile MQQBrowser/6.8 TBS/036849 Safari/537.36 MicroMessenger/6.3.27.880 NetType/WIFI Language/zh_CN'
p277
sg16
S'e7901436e2b6f0729acc10a67f1215a0'
p278
sa(dp279
g2
S'49842'
p280
sg4
S'7815'
p281
sg6
S'4b01904083c8b7f712228ff725ff42e0'
p282
sg8
S'xx1c2ddddcaa8d5ca9f8b91a45a6428484'
p283
sg10
S'xx5014244b2b17d2eb4f9761ddb041ebcd'
p284
sg12
S'xx707ff639dfe0f7713d03654f402196b7'
p285
sg14
S'Mozilla/5.0 (Linux; Android 5.1; OPPO R9m Build/LMY47I) AppleWebKit/537.36 (KHTML, like Gecko) Version/4.0 Chrome/37.0.0.0 Mobile MQQBrowser/6.8 TBS/036865 Safari/537.36 MicroMessenger/6.3.27.880 NetType/WIFI Language/zh_CN'
p286
sg16
S'92c44eea0add542a8907a633f3442e48'
p287
sa(dp288
g2
S'49842'
p289
sg4
S'7823'
p290
sg6
S'4b01904083c8b7f712228ff725ff42e0'
p291
sg8
S'xx1c2ddddcaa8d5ca9f8b91a45a6428484'
p292
sg10
S'xx5014244b2b17d2eb4f9761ddb041ebcd'
p293
sg12
S'xx707ff639dfe0f7713d03654f402196b7'
p294
sg14
S'Mozilla/5.0 (Linux; Android 5.1; OPPO R9m Build/LMY47I) AppleWebKit/537.36 (KHTML, like Gecko) Version/4.0 Chrome/37.0.0.0 Mobile MQQBrowser/6.8 TBS/036865 Safari/537.36 MicroMessenger/6.3.27.880 NetType/WIFI Language/zh_CN'
p295
sg16
S'92c44eea0add542a8907a633f3442e48'
p296
sa(dp297
g2
S'49842'
p298
sg4
S'7830'
p299
sg6
S'4b01904083c8b7f712228ff725ff42e0'
p300
sg8
S'xx1c2ddddcaa8d5ca9f8b91a45a6428484'
p301
sg10
S'xx5014244b2b17d2eb4f9761ddb041ebcd'
p302
sg12
S'xx707ff639dfe0f7713d03654f402196b7'
p303
sg14
S'Mozilla/5.0 (Linux; Android 5.1; OPPO R9m Build/LMY47I) AppleWebKit/537.36 (KHTML, like Gecko) Version/4.0 Chrome/37.0.0.0 Mobile MQQBrowser/6.8 TBS/036865 Safari/537.36 MicroMessenger/6.3.27.880 NetType/WIFI Language/zh_CN'
p304
sg16
S'92c44eea0add542a8907a633f3442e48'
p305
sa(dp306
g2
S'46713'
p307
sg4
S'8046'
p308
sg6
S'783ec5c440b55f32ca4f1c46a5126757'
p309
sg8
S'xxe42799f346966caa12a34ac56a9a297e'
p310
sg10
S'xx5014244b2b17d2eb4f9761ddb041ebcd'
p311
sg12
S'xx707ff639dfe0f7713d03654f402196b7'
p312
sg14
S'Mozilla/5.0 (Linux; Android 5.1; OPPO R9m Build/LMY47I) AppleWebKit/537.36 (KHTML, like Gecko) Version/4.0 Chrome/37.0.0.0 Mobile MQQBrowser/6.8 TBS/036849 Safari/537.36 MicroMessenger/6.3.27.880 NetType/WIFI Language/zh_CN'
p313
sg16
S'e7901436e2b6f0729acc10a67f1215a0'
p314
sa(dp315
g2
S'46709'
p316
sg4
S'8141'
p317
sg6
S'783ec5c440b55f32ca4f1c46a5126757'
p318
sg8
S'xxe42799f346966caa12a34ac56a9a297e'
p319
sg10
S'xx5014244b2b17d2eb4f9761ddb041ebcd'
p320
sg12
S'xx707ff639dfe0f7713d03654f402196b7'
p321
sg14
S'Mozilla/5.0 (Linux; Android 5.1; OPPO R9m Build/LMY47I) AppleWebKit/537.36 (KHTML, like Gecko) Version/4.0 Chrome/37.0.0.0 Mobile MQQBrowser/6.8 TBS/036849 Safari/537.36 MicroMessenger/6.3.27.880 NetType/WIFI Language/zh_CN'
p322
sg16
S'e7901436e2b6f0729acc10a67f1215a0'
p323
sa(dp324
g2
S'46697'
p325
sg4
S'8231'
p326
sg6
S'783ec5c440b55f32ca4f1c46a5126757'
p327
sg8
S'xxe42799f346966caa12a34ac56a9a297e'
p328
sg10
S'xx5014244b2b17d2eb4f9761ddb041ebcd'
p329
sg12
S'xx707ff639dfe0f7713d03654f402196b7'
p330
sg14
S'Mozilla/5.0 (Linux; Android 5.1; OPPO R9m Build/LMY47I) AppleWebKit/537.36 (KHTML, like Gecko) Version/4.0 Chrome/37.0.0.0 Mobile MQQBrowser/6.8 TBS/036849 Safari/537.36 MicroMessenger/6.3.27.880 NetType/WIFI Language/zh_CN'
p331
sg16
S'e7901436e2b6f0729acc10a67f1215a0'
p332
sa(dp333
g2
S'46697'
p334
sg4
S'8247'
p335
sg6
S'783ec5c440b55f32ca4f1c46a5126757'
p336
sg8
S'xxe42799f346966caa12a34ac56a9a297e'
p337
sg10
S'xx5014244b2b17d2eb4f9761ddb041ebcd'
p338
sg12
S'xx707ff639dfe0f7713d03654f402196b7'
p339
sg14
S'Mozilla/5.0 (Linux; Android 5.1; OPPO R9m Build/LMY47I) AppleWebKit/537.36 (KHTML, like Gecko) Version/4.0 Chrome/37.0.0.0 Mobile MQQBrowser/6.8 TBS/036849 Safari/537.36 MicroMessenger/6.3.27.880 NetType/WIFI Language/zh_CN'
p340
sg16
S'e7901436e2b6f0729acc10a67f1215a0'
p341
sa(dp342
g2
S'33408'
p343
sg4
S'8380'
p344
sg6
S'9eba7b166778e9f1c6fc48eb5195b829'
p345
sg8
S'xx00f2e6315ba301ce304e5348954db035'
p346
sg10
S'xx5014244b2b17d2eb4f9761ddb041ebcd'
p347
sg12
S'xx707ff639dfe0f7713d03654f402196b7'
p348
sg14
S'Mozilla/5.0 (Linux; Android 5.1; OPPO R9m Build/LMY47I) AppleWebKit/537.36 (KHTML, like Gecko) Version/4.0 Chrome/37.0.0.0 Mobile MQQBrowser/6.8 TBS/036849 Safari/537.36 MicroMessenger/6.3.27.880 NetType/3gnet Language/zh_CN'
p349
sg16
S'3750ae8ba3ec97e7b836bd53cdc32b89'
p350
sa(dp351
g2
S'31394'
p352
sg4
S'8606'
p353
sg6
S'7395cfd87506b6797b58faf50d1653fa'
p354
sg8
S'xxe42799f346966caa12a34ac56a9a297e'
p355
sg10
S'xx5014244b2b17d2eb4f9761ddb041ebcd'
p356
sg12
S'xx707ff639dfe0f7713d03654f402196b7'
p357
sg14
S'Mozilla/5.0 (Linux; Android 5.1; OPPO R9m Build/LMY47I) AppleWebKit/537.36 (KHTML, like Gecko) Version/4.0 Chrome/37.0.0.0 Mobile MQQBrowser/6.8 TBS/036849 Safari/537.36 MicroMessenger/6.3.27.880 NetType/WIFI Language/zh_CN'
p358
sg16
S'e7901436e2b6f0729acc10a67f1215a0'
p359
sa(dp360
g2
S'31394'
p361
sg4
S'8627'
p362
sg6
S'7395cfd87506b6797b58faf50d1653fa'
p363
sg8
S'xxe42799f346966caa12a34ac56a9a297e'
p364
sg10
S'xx5014244b2b17d2eb4f9761ddb041ebcd'
p365
sg12
S'xx707ff639dfe0f7713d03654f402196b7'
p366
sg14
S'Mozilla/5.0 (Linux; Android 5.1; OPPO R9m Build/LMY47I) AppleWebKit/537.36 (KHTML, like Gecko) Version/4.0 Chrome/37.0.0.0 Mobile MQQBrowser/6.8 TBS/036849 Safari/537.36 MicroMessenger/6.3.27.880 NetType/WIFI Language/zh_CN'
p367
sg16
S'e7901436e2b6f0729acc10a67f1215a0'
p368
sa(dp369
g2
S'31394'
p370
sg4
S'8738'
p371
sg6
S'7395cfd87506b6797b58faf50d1653fa'
p372
sg8
S'xxe42799f346966caa12a34ac56a9a297e'
p373
sg10
S'xx5014244b2b17d2eb4f9761ddb041ebcd'
p374
sg12
S'xx707ff639dfe0f7713d03654f402196b7'
p375
sg14
S'Mozilla/5.0 (Linux; Android 5.1; OPPO R9m Build/LMY47I) AppleWebKit/537.36 (KHTML, like Gecko) Version/4.0 Chrome/37.0.0.0 Mobile MQQBrowser/6.8 TBS/036849 Safari/537.36 MicroMessenger/6.3.27.880 NetType/WIFI Language/zh_CN'
p376
sg16
S'e7901436e2b6f0729acc10a67f1215a0'
p377
sa(dp378
g2
S'31394'
p379
sg4
S'8754'
p380
sg6
S'7395cfd87506b6797b58faf50d1653fa'
p381
sg8
S'xxe42799f346966caa12a34ac56a9a297e'
p382
sg10
S'xx5014244b2b17d2eb4f9761ddb041ebcd'
p383
sg12
S'xx707ff639dfe0f7713d03654f402196b7'
p384
sg14
S'Mozilla/5.0 (Linux; Android 5.1; OPPO R9m Build/LMY47I) AppleWebKit/537.36 (KHTML, like Gecko) Version/4.0 Chrome/37.0.0.0 Mobile MQQBrowser/6.8 TBS/036849 Safari/537.36 MicroMessenger/6.3.27.880 NetType/WIFI Language/zh_CN'
p385
sg16
S'e7901436e2b6f0729acc10a67f1215a0'
p386
sa(dp387
g2
S'31394'
p388
sg4
S'8771'
p389
sg6
S'7395cfd87506b6797b58faf50d1653fa'
p390
sg8
S'xxe42799f346966caa12a34ac56a9a297e'
p391
sg10
S'xx5014244b2b17d2eb4f9761ddb041ebcd'
p392
sg12
S'xx707ff639dfe0f7713d03654f402196b7'
p393
sg14
S'Mozilla/5.0 (Linux; Android 5.1; OPPO R9m Build/LMY47I) AppleWebKit/537.36 (KHTML, like Gecko) Version/4.0 Chrome/37.0.0.0 Mobile MQQBrowser/6.8 TBS/036849 Safari/537.36 MicroMessenger/6.3.27.880 NetType/WIFI Language/zh_CN'
p394
sg16
S'e7901436e2b6f0729acc10a67f1215a0'
p395
sa(dp396
g2
S'31394'
p397
sg4
S'8783'
p398
sg6
S'7395cfd87506b6797b58faf50d1653fa'
p399
sg8
S'xxe42799f346966caa12a34ac56a9a297e'
p400
sg10
S'xx5014244b2b17d2eb4f9761ddb041ebcd'
p401
sg12
S'xx707ff639dfe0f7713d03654f402196b7'
p402
sg14
S'Mozilla/5.0 (Linux; Android 5.1; OPPO R9m Build/LMY47I) AppleWebKit/537.36 (KHTML, like Gecko) Version/4.0 Chrome/37.0.0.0 Mobile MQQBrowser/6.8 TBS/036849 Safari/537.36 MicroMessenger/6.3.27.880 NetType/WIFI Language/zh_CN'
p403
sg16
S'e7901436e2b6f0729acc10a67f1215a0'
p404
sa.