(lp0
(dp1
S'user_id'
p2
S'38048'
p3
sS'data_id'
p4
S'2077'
p5
sS'ip'
p6
S'219b2b48b3631f43e1b51043080e5914'
p7
sS'phone_B'
p8
S'xxa8ef4b3516856fa492345cc8e0d35505'
p9
sS'phone_C'
p10
S'xx6c0472f0f0aba6ab7cf6dcdd4645c73d'
p11
sS'phone_A'
p12
S'xx7014c7bd1e2a4f715dc154a6a02cc2ca'
p13
sS'user_agent'
p14
S'Mozilla/5.0 (Linux; Android 4.4.2; H60-L01 Build/HDH60-L01) AppleWebKit/537.36 (KHTML, like Gecko) Version/4.0 Chrome/37.0.0.0 Mobile MQQBrowser/6.8 TBS/036849 Safari/537.36 MicroMessenger/6.3.27.880 NetType/cmnet Language/zh_CN'
p15
sS'ua'
p16
S'07a8d52a34198db60144b6763bb6d55d'
p17
sa(dp18
g2
S'44244'
p19
sg4
S'2181'
p20
sg6
S'd66c95a4c1c7aa3ad1fe1162a8491ff3'
p21
sg8
S'xx310d1ab4a4f40e144a3c6eb5d306fec5'
p22
sg10
S'xx0c81605298799701020b68b51cdb644f'
p23
sg12
S'xx7014c7bd1e2a4f715dc154a6a02cc2ca'
p24
sg14
S'Mozilla/5.0 (Linux; Android 4.4.2; H60-L01 Build/HDH60-L01) AppleWebKit/537.36 (KHTML, like Gecko) Version/4.0 Chrome/37.0.0.0 Mobile MQQBrowser/6.8 TBS/036869 Safari/537.36 MicroMessenger/6.3.27.880 NetType/WIFI Language/zh_CN'
p25
sg16
S'a734d91dc9d1905dfc66a6ebf36fe939'
p26
sa(dp27
g2
S'44244'
p28
sg4
S'2199'
p29
sg6
S'd66c95a4c1c7aa3ad1fe1162a8491ff3'
p30
sg8
S'xx310d1ab4a4f40e144a3c6eb5d306fec5'
p31
sg10
S'xx0c81605298799701020b68b51cdb644f'
p32
sg12
S'xx7014c7bd1e2a4f715dc154a6a02cc2ca'
p33
sg14
S'Mozilla/5.0 (Linux; Android 4.4.2; H60-L01 Build/HDH60-L01) AppleWebKit/537.36 (KHTML, like Gecko) Version/4.0 Chrome/37.0.0.0 Mobile MQQBrowser/6.8 TBS/036869 Safari/537.36 MicroMessenger/6.3.27.880 NetType/WIFI Language/zh_CN'
p34
sg16
S'a734d91dc9d1905dfc66a6ebf36fe939'
p35
sa(dp36
g2
S'44244'
p37
sg4
S'2218'
p38
sg6
S'd66c95a4c1c7aa3ad1fe1162a8491ff3'
p39
sg8
S'xx310d1ab4a4f40e144a3c6eb5d306fec5'
p40
sg10
S'xx0c81605298799701020b68b51cdb644f'
p41
sg12
S'xx7014c7bd1e2a4f715dc154a6a02cc2ca'
p42
sg14
S'Mozilla/5.0 (Linux; Android 4.4.2; H60-L01 Build/HDH60-L01) AppleWebKit/537.36 (KHTML, like Gecko) Version/4.0 Chrome/37.0.0.0 Mobile MQQBrowser/6.8 TBS/036869 Safari/537.36 MicroMessenger/6.3.27.880 NetType/WIFI Language/zh_CN'
p43
sg16
S'a734d91dc9d1905dfc66a6ebf36fe939'
p44
sa(dp45
g2
S'38048'
p46
sg4
S'2235'
p47
sg6
S'219b2b48b3631f43e1b51043080e5914'
p48
sg8
S'xxa8ef4b3516856fa492345cc8e0d35505'
p49
sg10
S'xx6c0472f0f0aba6ab7cf6dcdd4645c73d'
p50
sg12
S'xx7014c7bd1e2a4f715dc154a6a02cc2ca'
p51
sg14
S'Mozilla/5.0 (Linux; Android 4.4.2; H60-L01 Build/HDH60-L01) AppleWebKit/537.36 (KHTML, like Gecko) Version/4.0 Chrome/37.0.0.0 Mobile MQQBrowser/6.8 TBS/036849 Safari/537.36 MicroMessenger/6.3.27.880 NetType/cmnet Language/zh_CN'
p52
sg16
S'07a8d52a34198db60144b6763bb6d55d'
p53
sa(dp54
g2
S'44244'
p55
sg4
S'2239'
p56
sg6
S'd66c95a4c1c7aa3ad1fe1162a8491ff3'
p57
sg8
S'xx310d1ab4a4f40e144a3c6eb5d306fec5'
p58
sg10
S'xx0c81605298799701020b68b51cdb644f'
p59
sg12
S'xx7014c7bd1e2a4f715dc154a6a02cc2ca'
p60
sg14
S'Mozilla/5.0 (Linux; Android 4.4.2; H60-L01 Build/HDH60-L01) AppleWebKit/537.36 (KHTML, like Gecko) Version/4.0 Chrome/37.0.0.0 Mobile MQQBrowser/6.8 TBS/036869 Safari/537.36 MicroMessenger/6.3.27.880 NetType/WIFI Language/zh_CN'
p61
sg16
S'a734d91dc9d1905dfc66a6ebf36fe939'
p62
sa(dp63
g2
S'44244'
p64
sg4
S'2257'
p65
sg6
S'd66c95a4c1c7aa3ad1fe1162a8491ff3'
p66
sg8
S'xx310d1ab4a4f40e144a3c6eb5d306fec5'
p67
sg10
S'xx0c81605298799701020b68b51cdb644f'
p68
sg12
S'xx7014c7bd1e2a4f715dc154a6a02cc2ca'
p69
sg14
S'Mozilla/5.0 (Linux; Android 4.4.2; H60-L01 Build/HDH60-L01) AppleWebKit/537.36 (KHTML, like Gecko) Version/4.0 Chrome/37.0.0.0 Mobile MQQBrowser/6.8 TBS/036869 Safari/537.36 MicroMessenger/6.3.27.880 NetType/WIFI Language/zh_CN'
p70
sg16
S'a734d91dc9d1905dfc66a6ebf36fe939'
p71
sa(dp72
g2
S'44244'
p73
sg4
S'2272'
p74
sg6
S'd66c95a4c1c7aa3ad1fe1162a8491ff3'
p75
sg8
S'xx310d1ab4a4f40e144a3c6eb5d306fec5'
p76
sg10
S'xx0c81605298799701020b68b51cdb644f'
p77
sg12
S'xx7014c7bd1e2a4f715dc154a6a02cc2ca'
p78
sg14
S'Mozilla/5.0 (Linux; Android 4.4.2; H60-L01 Build/HDH60-L01) AppleWebKit/537.36 (KHTML, like Gecko) Version/4.0 Chrome/37.0.0.0 Mobile MQQBrowser/6.8 TBS/036869 Safari/537.36 MicroMessenger/6.3.27.880 NetType/WIFI Language/zh_CN'
p79
sg16
S'a734d91dc9d1905dfc66a6ebf36fe939'
p80
sa(dp81
g2
S'44244'
p82
sg4
S'2284'
p83
sg6
S'd66c95a4c1c7aa3ad1fe1162a8491ff3'
p84
sg8
S'xx310d1ab4a4f40e144a3c6eb5d306fec5'
p85
sg10
S'xx0c81605298799701020b68b51cdb644f'
p86
sg12
S'xx7014c7bd1e2a4f715dc154a6a02cc2ca'
p87
sg14
S'Mozilla/5.0 (Linux; Android 4.4.2; H60-L01 Build/HDH60-L01) AppleWebKit/537.36 (KHTML, like Gecko) Version/4.0 Chrome/37.0.0.0 Mobile MQQBrowser/6.8 TBS/036869 Safari/537.36 MicroMessenger/6.3.27.880 NetType/WIFI Language/zh_CN'
p88
sg16
S'a734d91dc9d1905dfc66a6ebf36fe939'
p89
sa(dp90
g2
S'44244'
p91
sg4
S'2296'
p92
sg6
S'd66c95a4c1c7aa3ad1fe1162a8491ff3'
p93
sg8
S'xx310d1ab4a4f40e144a3c6eb5d306fec5'
p94
sg10
S'xx0c81605298799701020b68b51cdb644f'
p95
sg12
S'xx7014c7bd1e2a4f715dc154a6a02cc2ca'
p96
sg14
S'Mozilla/5.0 (Linux; Android 4.4.2; H60-L01 Build/HDH60-L01) AppleWebKit/537.36 (KHTML, like Gecko) Version/4.0 Chrome/37.0.0.0 Mobile MQQBrowser/6.8 TBS/036869 Safari/537.36 MicroMessenger/6.3.27.880 NetType/WIFI Language/zh_CN'
p97
sg16
S'a734d91dc9d1905dfc66a6ebf36fe939'
p98
sa(dp99
g2
S'44244'
p100
sg4
S'2312'
p101
sg6
S'd66c95a4c1c7aa3ad1fe1162a8491ff3'
p102
sg8
S'xx310d1ab4a4f40e144a3c6eb5d306fec5'
p103
sg10
S'xx0c81605298799701020b68b51cdb644f'
p104
sg12
S'xx7014c7bd1e2a4f715dc154a6a02cc2ca'
p105
sg14
S'Mozilla/5.0 (Linux; Android 4.4.2; H60-L01 Build/HDH60-L01) AppleWebKit/537.36 (KHTML, like Gecko) Version/4.0 Chrome/37.0.0.0 Mobile MQQBrowser/6.8 TBS/036869 Safari/537.36 MicroMessenger/6.3.27.880 NetType/WIFI Language/zh_CN'
p106
sg16
S'a734d91dc9d1905dfc66a6ebf36fe939'
p107
sa(dp108
g2
S'44244'
p109
sg4
S'2326'
p110
sg6
S'd66c95a4c1c7aa3ad1fe1162a8491ff3'
p111
sg8
S'xx310d1ab4a4f40e144a3c6eb5d306fec5'
p112
sg10
S'xx0c81605298799701020b68b51cdb644f'
p113
sg12
S'xx7014c7bd1e2a4f715dc154a6a02cc2ca'
p114
sg14
S'Mozilla/5.0 (Linux; Android 4.4.2; H60-L01 Build/HDH60-L01) AppleWebKit/537.36 (KHTML, like Gecko) Version/4.0 Chrome/37.0.0.0 Mobile MQQBrowser/6.8 TBS/036869 Safari/537.36 MicroMessenger/6.3.27.880 NetType/WIFI Language/zh_CN'
p115
sg16
S'a734d91dc9d1905dfc66a6ebf36fe939'
p116
sa(dp117
g2
S'44244'
p118
sg4
S'2337'
p119
sg6
S'd66c95a4c1c7aa3ad1fe1162a8491ff3'
p120
sg8
S'xx310d1ab4a4f40e144a3c6eb5d306fec5'
p121
sg10
S'xx0c81605298799701020b68b51cdb644f'
p122
sg12
S'xx7014c7bd1e2a4f715dc154a6a02cc2ca'
p123
sg14
S'Mozilla/5.0 (Linux; Android 4.4.2; H60-L01 Build/HDH60-L01) AppleWebKit/537.36 (KHTML, like Gecko) Version/4.0 Chrome/37.0.0.0 Mobile MQQBrowser/6.8 TBS/036869 Safari/537.36 MicroMessenger/6.3.27.880 NetType/WIFI Language/zh_CN'
p124
sg16
S'a734d91dc9d1905dfc66a6ebf36fe939'
p125
sa(dp126
g2
S'44244'
p127
sg4
S'2353'
p128
sg6
S'd66c95a4c1c7aa3ad1fe1162a8491ff3'
p129
sg8
S'xx310d1ab4a4f40e144a3c6eb5d306fec5'
p130
sg10
S'xx0c81605298799701020b68b51cdb644f'
p131
sg12
S'xx7014c7bd1e2a4f715dc154a6a02cc2ca'
p132
sg14
S'Mozilla/5.0 (Linux; Android 4.4.2; H60-L01 Build/HDH60-L01) AppleWebKit/537.36 (KHTML, like Gecko) Version/4.0 Chrome/37.0.0.0 Mobile MQQBrowser/6.8 TBS/036869 Safari/537.36 MicroMessenger/6.3.27.880 NetType/WIFI Language/zh_CN'
p133
sg16
S'a734d91dc9d1905dfc66a6ebf36fe939'
p134
sa(dp135
g2
S'44244'
p136
sg4
S'2374'
p137
sg6
S'd66c95a4c1c7aa3ad1fe1162a8491ff3'
p138
sg8
S'xx310d1ab4a4f40e144a3c6eb5d306fec5'
p139
sg10
S'xx0c81605298799701020b68b51cdb644f'
p140
sg12
S'xx7014c7bd1e2a4f715dc154a6a02cc2ca'
p141
sg14
S'Mozilla/5.0 (Linux; Android 4.4.2; H60-L01 Build/HDH60-L01) AppleWebKit/537.36 (KHTML, like Gecko) Version/4.0 Chrome/37.0.0.0 Mobile MQQBrowser/6.8 TBS/036869 Safari/537.36 MicroMessenger/6.3.27.880 NetType/WIFI Language/zh_CN'
p142
sg16
S'a734d91dc9d1905dfc66a6ebf36fe939'
p143
sa(dp144
g2
S'44244'
p145
sg4
S'2390'
p146
sg6
S'd66c95a4c1c7aa3ad1fe1162a8491ff3'
p147
sg8
S'xx310d1ab4a4f40e144a3c6eb5d306fec5'
p148
sg10
S'xx0c81605298799701020b68b51cdb644f'
p149
sg12
S'xx7014c7bd1e2a4f715dc154a6a02cc2ca'
p150
sg14
S'Mozilla/5.0 (Linux; Android 4.4.2; H60-L01 Build/HDH60-L01) AppleWebKit/537.36 (KHTML, like Gecko) Version/4.0 Chrome/37.0.0.0 Mobile MQQBrowser/6.8 TBS/036869 Safari/537.36 MicroMessenger/6.3.27.880 NetType/WIFI Language/zh_CN'
p151
sg16
S'a734d91dc9d1905dfc66a6ebf36fe939'
p152
sa(dp153
g2
S'44244'
p154
sg4
S'2406'
p155
sg6
S'd66c95a4c1c7aa3ad1fe1162a8491ff3'
p156
sg8
S'xx310d1ab4a4f40e144a3c6eb5d306fec5'
p157
sg10
S'xx0c81605298799701020b68b51cdb644f'
p158
sg12
S'xx7014c7bd1e2a4f715dc154a6a02cc2ca'
p159
sg14
S'Mozilla/5.0 (Linux; Android 4.4.2; H60-L01 Build/HDH60-L01) AppleWebKit/537.36 (KHTML, like Gecko) Version/4.0 Chrome/37.0.0.0 Mobile MQQBrowser/6.8 TBS/036869 Safari/537.36 MicroMessenger/6.3.27.880 NetType/WIFI Language/zh_CN'
p160
sg16
S'a734d91dc9d1905dfc66a6ebf36fe939'
p161
sa(dp162
g2
S'44244'
p163
sg4
S'2427'
p164
sg6
S'd66c95a4c1c7aa3ad1fe1162a8491ff3'
p165
sg8
S'xx310d1ab4a4f40e144a3c6eb5d306fec5'
p166
sg10
S'xx0c81605298799701020b68b51cdb644f'
p167
sg12
S'xx7014c7bd1e2a4f715dc154a6a02cc2ca'
p168
sg14
S'Mozilla/5.0 (Linux; Android 4.4.2; H60-L01 Build/HDH60-L01) AppleWebKit/537.36 (KHTML, like Gecko) Version/4.0 Chrome/37.0.0.0 Mobile MQQBrowser/6.8 TBS/036869 Safari/537.36 MicroMessenger/6.3.27.880 NetType/WIFI Language/zh_CN'
p169
sg16
S'a734d91dc9d1905dfc66a6ebf36fe939'
p170
sa(dp171
g2
S'44244'
p172
sg4
S'2447'
p173
sg6
S'd66c95a4c1c7aa3ad1fe1162a8491ff3'
p174
sg8
S'xx310d1ab4a4f40e144a3c6eb5d306fec5'
p175
sg10
S'xx0c81605298799701020b68b51cdb644f'
p176
sg12
S'xx7014c7bd1e2a4f715dc154a6a02cc2ca'
p177
sg14
S'Mozilla/5.0 (Linux; Android 4.4.2; H60-L01 Build/HDH60-L01) AppleWebKit/537.36 (KHTML, like Gecko) Version/4.0 Chrome/37.0.0.0 Mobile MQQBrowser/6.8 TBS/036869 Safari/537.36 MicroMessenger/6.3.27.880 NetType/WIFI Language/zh_CN'
p178
sg16
S'a734d91dc9d1905dfc66a6ebf36fe939'
p179
sa(dp180
g2
S'44244'
p181
sg4
S'2464'
p182
sg6
S'd66c95a4c1c7aa3ad1fe1162a8491ff3'
p183
sg8
S'xx310d1ab4a4f40e144a3c6eb5d306fec5'
p184
sg10
S'xx0c81605298799701020b68b51cdb644f'
p185
sg12
S'xx7014c7bd1e2a4f715dc154a6a02cc2ca'
p186
sg14
S'Mozilla/5.0 (Linux; Android 4.4.2; H60-L01 Build/HDH60-L01) AppleWebKit/537.36 (KHTML, like Gecko) Version/4.0 Chrome/37.0.0.0 Mobile MQQBrowser/6.8 TBS/036869 Safari/537.36 MicroMessenger/6.3.27.880 NetType/WIFI Language/zh_CN'
p187
sg16
S'a734d91dc9d1905dfc66a6ebf36fe939'
p188
sa(dp189
g2
S'44244'
p190
sg4
S'2485'
p191
sg6
S'd66c95a4c1c7aa3ad1fe1162a8491ff3'
p192
sg8
S'xx310d1ab4a4f40e144a3c6eb5d306fec5'
p193
sg10
S'xx0c81605298799701020b68b51cdb644f'
p194
sg12
S'xx7014c7bd1e2a4f715dc154a6a02cc2ca'
p195
sg14
S'Mozilla/5.0 (Linux; Android 4.4.2; H60-L01 Build/HDH60-L01) AppleWebKit/537.36 (KHTML, like Gecko) Version/4.0 Chrome/37.0.0.0 Mobile MQQBrowser/6.8 TBS/036869 Safari/537.36 MicroMessenger/6.3.27.880 NetType/WIFI Language/zh_CN'
p196
sg16
S'a734d91dc9d1905dfc66a6ebf36fe939'
p197
sa(dp198
g2
S'44244'
p199
sg4
S'2507'
p200
sg6
S'd66c95a4c1c7aa3ad1fe1162a8491ff3'
p201
sg8
S'xx310d1ab4a4f40e144a3c6eb5d306fec5'
p202
sg10
S'xx0c81605298799701020b68b51cdb644f'
p203
sg12
S'xx7014c7bd1e2a4f715dc154a6a02cc2ca'
p204
sg14
S'Mozilla/5.0 (Linux; Android 4.4.2; H60-L01 Build/HDH60-L01) AppleWebKit/537.36 (KHTML, like Gecko) Version/4.0 Chrome/37.0.0.0 Mobile MQQBrowser/6.8 TBS/036869 Safari/537.36 MicroMessenger/6.3.27.880 NetType/WIFI Language/zh_CN'
p205
sg16
S'a734d91dc9d1905dfc66a6ebf36fe939'
p206
sa(dp207
g2
S'44244'
p208
sg4
S'2530'
p209
sg6
S'd66c95a4c1c7aa3ad1fe1162a8491ff3'
p210
sg8
S'xx310d1ab4a4f40e144a3c6eb5d306fec5'
p211
sg10
S'xx0c81605298799701020b68b51cdb644f'
p212
sg12
S'xx7014c7bd1e2a4f715dc154a6a02cc2ca'
p213
sg14
S'Mozilla/5.0 (Linux; Android 4.4.2; H60-L01 Build/HDH60-L01) AppleWebKit/537.36 (KHTML, like Gecko) Version/4.0 Chrome/37.0.0.0 Mobile MQQBrowser/6.8 TBS/036869 Safari/537.36 MicroMessenger/6.3.27.880 NetType/WIFI Language/zh_CN'
p214
sg16
S'a734d91dc9d1905dfc66a6ebf36fe939'
p215
sa(dp216
g2
S'44244'
p217
sg4
S'2555'
p218
sg6
S'd66c95a4c1c7aa3ad1fe1162a8491ff3'
p219
sg8
S'xx310d1ab4a4f40e144a3c6eb5d306fec5'
p220
sg10
S'xx0c81605298799701020b68b51cdb644f'
p221
sg12
S'xx7014c7bd1e2a4f715dc154a6a02cc2ca'
p222
sg14
S'Mozilla/5.0 (Linux; Android 4.4.2; H60-L01 Build/HDH60-L01) AppleWebKit/537.36 (KHTML, like Gecko) Version/4.0 Chrome/37.0.0.0 Mobile MQQBrowser/6.8 TBS/036869 Safari/537.36 MicroMessenger/6.3.27.880 NetType/WIFI Language/zh_CN'
p223
sg16
S'a734d91dc9d1905dfc66a6ebf36fe939'
p224
sa(dp225
g2
S'44244'
p226
sg4
S'2574'
p227
sg6
S'd66c95a4c1c7aa3ad1fe1162a8491ff3'
p228
sg8
S'xx310d1ab4a4f40e144a3c6eb5d306fec5'
p229
sg10
S'xx0c81605298799701020b68b51cdb644f'
p230
sg12
S'xx7014c7bd1e2a4f715dc154a6a02cc2ca'
p231
sg14
S'Mozilla/5.0 (Linux; Android 4.4.2; H60-L01 Build/HDH60-L01) AppleWebKit/537.36 (KHTML, like Gecko) Version/4.0 Chrome/37.0.0.0 Mobile MQQBrowser/6.8 TBS/036869 Safari/537.36 MicroMessenger/6.3.27.880 NetType/WIFI Language/zh_CN'
p232
sg16
S'a734d91dc9d1905dfc66a6ebf36fe939'
p233
sa(dp234
g2
S'44244'
p235
sg4
S'2592'
p236
sg6
S'd66c95a4c1c7aa3ad1fe1162a8491ff3'
p237
sg8
S'xx310d1ab4a4f40e144a3c6eb5d306fec5'
p238
sg10
S'xx0c81605298799701020b68b51cdb644f'
p239
sg12
S'xx7014c7bd1e2a4f715dc154a6a02cc2ca'
p240
sg14
S'Mozilla/5.0 (Linux; Android 4.4.2; H60-L01 Build/HDH60-L01) AppleWebKit/537.36 (KHTML, like Gecko) Version/4.0 Chrome/37.0.0.0 Mobile MQQBrowser/6.8 TBS/036869 Safari/537.36 MicroMessenger/6.3.27.880 NetType/WIFI Language/zh_CN'
p241
sg16
S'a734d91dc9d1905dfc66a6ebf36fe939'
p242
sa(dp243
g2
S'44244'
p244
sg4
S'2608'
p245
sg6
S'd66c95a4c1c7aa3ad1fe1162a8491ff3'
p246
sg8
S'xx310d1ab4a4f40e144a3c6eb5d306fec5'
p247
sg10
S'xx0c81605298799701020b68b51cdb644f'
p248
sg12
S'xx7014c7bd1e2a4f715dc154a6a02cc2ca'
p249
sg14
S'Mozilla/5.0 (Linux; Android 4.4.2; H60-L01 Build/HDH60-L01) AppleWebKit/537.36 (KHTML, like Gecko) Version/4.0 Chrome/37.0.0.0 Mobile MQQBrowser/6.8 TBS/036869 Safari/537.36 MicroMessenger/6.3.27.880 NetType/WIFI Language/zh_CN'
p250
sg16
S'a734d91dc9d1905dfc66a6ebf36fe939'
p251
sa(dp252
g2
S'44244'
p253
sg4
S'2621'
p254
sg6
S'd66c95a4c1c7aa3ad1fe1162a8491ff3'
p255
sg8
S'xx310d1ab4a4f40e144a3c6eb5d306fec5'
p256
sg10
S'xx0c81605298799701020b68b51cdb644f'
p257
sg12
S'xx7014c7bd1e2a4f715dc154a6a02cc2ca'
p258
sg14
S'Mozilla/5.0 (Linux; Android 4.4.2; H60-L01 Build/HDH60-L01) AppleWebKit/537.36 (KHTML, like Gecko) Version/4.0 Chrome/37.0.0.0 Mobile MQQBrowser/6.8 TBS/036869 Safari/537.36 MicroMessenger/6.3.27.880 NetType/WIFI Language/zh_CN'
p259
sg16
S'a734d91dc9d1905dfc66a6ebf36fe939'
p260
sa(dp261
g2
S'44244'
p262
sg4
S'2638'
p263
sg6
S'd66c95a4c1c7aa3ad1fe1162a8491ff3'
p264
sg8
S'xx310d1ab4a4f40e144a3c6eb5d306fec5'
p265
sg10
S'xx0c81605298799701020b68b51cdb644f'
p266
sg12
S'xx7014c7bd1e2a4f715dc154a6a02cc2ca'
p267
sg14
S'Mozilla/5.0 (Linux; Android 4.4.2; H60-L01 Build/HDH60-L01) AppleWebKit/537.36 (KHTML, like Gecko) Version/4.0 Chrome/37.0.0.0 Mobile MQQBrowser/6.8 TBS/036869 Safari/537.36 MicroMessenger/6.3.27.880 NetType/WIFI Language/zh_CN'
p268
sg16
S'a734d91dc9d1905dfc66a6ebf36fe939'
p269
sa(dp270
g2
S'44244'
p271
sg4
S'2659'
p272
sg6
S'd66c95a4c1c7aa3ad1fe1162a8491ff3'
p273
sg8
S'xx310d1ab4a4f40e144a3c6eb5d306fec5'
p274
sg10
S'xx0c81605298799701020b68b51cdb644f'
p275
sg12
S'xx7014c7bd1e2a4f715dc154a6a02cc2ca'
p276
sg14
S'Mozilla/5.0 (Linux; Android 4.4.2; H60-L01 Build/HDH60-L01) AppleWebKit/537.36 (KHTML, like Gecko) Version/4.0 Chrome/37.0.0.0 Mobile MQQBrowser/6.8 TBS/036869 Safari/537.36 MicroMessenger/6.3.27.880 NetType/WIFI Language/zh_CN'
p277
sg16
S'a734d91dc9d1905dfc66a6ebf36fe939'
p278
sa(dp279
g2
S'44244'
p280
sg4
S'2681'
p281
sg6
S'd66c95a4c1c7aa3ad1fe1162a8491ff3'
p282
sg8
S'xx310d1ab4a4f40e144a3c6eb5d306fec5'
p283
sg10
S'xx0c81605298799701020b68b51cdb644f'
p284
sg12
S'xx7014c7bd1e2a4f715dc154a6a02cc2ca'
p285
sg14
S'Mozilla/5.0 (Linux; Android 4.4.2; H60-L01 Build/HDH60-L01) AppleWebKit/537.36 (KHTML, like Gecko) Version/4.0 Chrome/37.0.0.0 Mobile MQQBrowser/6.8 TBS/036869 Safari/537.36 MicroMessenger/6.3.27.880 NetType/WIFI Language/zh_CN'
p286
sg16
S'a734d91dc9d1905dfc66a6ebf36fe939'
p287
sa(dp288
g2
S'44244'
p289
sg4
S'2701'
p290
sg6
S'd66c95a4c1c7aa3ad1fe1162a8491ff3'
p291
sg8
S'xx310d1ab4a4f40e144a3c6eb5d306fec5'
p292
sg10
S'xx0c81605298799701020b68b51cdb644f'
p293
sg12
S'xx7014c7bd1e2a4f715dc154a6a02cc2ca'
p294
sg14
S'Mozilla/5.0 (Linux; Android 4.4.2; H60-L01 Build/HDH60-L01) AppleWebKit/537.36 (KHTML, like Gecko) Version/4.0 Chrome/37.0.0.0 Mobile MQQBrowser/6.8 TBS/036869 Safari/537.36 MicroMessenger/6.3.27.880 NetType/WIFI Language/zh_CN'
p295
sg16
S'a734d91dc9d1905dfc66a6ebf36fe939'
p296
sa(dp297
g2
S'44244'
p298
sg4
S'2720'
p299
sg6
S'd66c95a4c1c7aa3ad1fe1162a8491ff3'
p300
sg8
S'xx310d1ab4a4f40e144a3c6eb5d306fec5'
p301
sg10
S'xx0c81605298799701020b68b51cdb644f'
p302
sg12
S'xx7014c7bd1e2a4f715dc154a6a02cc2ca'
p303
sg14
S'Mozilla/5.0 (Linux; Android 4.4.2; H60-L01 Build/HDH60-L01) AppleWebKit/537.36 (KHTML, like Gecko) Version/4.0 Chrome/37.0.0.0 Mobile MQQBrowser/6.8 TBS/036869 Safari/537.36 MicroMessenger/6.3.27.880 NetType/WIFI Language/zh_CN'
p304
sg16
S'a734d91dc9d1905dfc66a6ebf36fe939'
p305
sa(dp306
g2
S'31442'
p307
sg4
S'3045'
p308
sg6
S'a6a0c39c971a749b6d4487d1579e7045'
p309
sg8
S'xx17600de441e42c4f7b00145e543b39b6'
p310
sg10
S'xx6c0472f0f0aba6ab7cf6dcdd4645c73d'
p311
sg12
S'xx7014c7bd1e2a4f715dc154a6a02cc2ca'
p312
sg14
S'Mozilla/5.0 (Linux; Android 4.4.2; H60-L01 Build/HDH60-L01) AppleWebKit/537.36 (KHTML, like Gecko) Version/4.0 Chrome/37.0.0.0 Mobile MQQBrowser/6.8 TBS/036849 Safari/537.36 MicroMessenger/6.3.27.880 NetType/WIFI Language/zh_CN'
p313
sg16
S'4d4342d6aa0df546cc9127c560a87b59'
p314
sa(dp315
g2
S'31442'
p316
sg4
S'3064'
p317
sg6
S'a6a0c39c971a749b6d4487d1579e7045'
p318
sg8
S'xx17600de441e42c4f7b00145e543b39b6'
p319
sg10
S'xx6c0472f0f0aba6ab7cf6dcdd4645c73d'
p320
sg12
S'xx7014c7bd1e2a4f715dc154a6a02cc2ca'
p321
sg14
S'Mozilla/5.0 (Linux; Android 4.4.2; H60-L01 Build/HDH60-L01) AppleWebKit/537.36 (KHTML, like Gecko) Version/4.0 Chrome/37.0.0.0 Mobile MQQBrowser/6.8 TBS/036849 Safari/537.36 MicroMessenger/6.3.27.880 NetType/WIFI Language/zh_CN'
p322
sg16
S'4d4342d6aa0df546cc9127c560a87b59'
p323
sa(dp324
g2
S'31442'
p325
sg4
S'3084'
p326
sg6
S'a6a0c39c971a749b6d4487d1579e7045'
p327
sg8
S'xx17600de441e42c4f7b00145e543b39b6'
p328
sg10
S'xx6c0472f0f0aba6ab7cf6dcdd4645c73d'
p329
sg12
S'xx7014c7bd1e2a4f715dc154a6a02cc2ca'
p330
sg14
S'Mozilla/5.0 (Linux; Android 4.4.2; H60-L01 Build/HDH60-L01) AppleWebKit/537.36 (KHTML, like Gecko) Version/4.0 Chrome/37.0.0.0 Mobile MQQBrowser/6.8 TBS/036849 Safari/537.36 MicroMessenger/6.3.27.880 NetType/WIFI Language/zh_CN'
p331
sg16
S'4d4342d6aa0df546cc9127c560a87b59'
p332
sa.