(lp0
(dp1
S'user_id'
p2
S'24034'
p3
sS'data_id'
p4
S'4474'
p5
sS'ip'
p6
S'f49ecac507923d704291669ff507011e'
p7
sS'phone_B'
p8
S'xxaef798327907644f03d486d2cc265dc4'
p9
sS'phone_C'
p10
S'xx9aae67933c73a5ef2f0fa1dfb08afdd9'
p11
sS'phone_A'
p12
S'xx712ce2710d09158352fa29d1b3166879'
p13
sS'user_agent'
p14
S'Mozilla/5.0 (Linux; Android 4.4.4; Coolpad Y76 Build/KTU84P) AppleWebKit/537.36 (KHTML, like Gecko) Version/4.0 Chrome/37.0.0.0 Mobile MQQBrowser/6.8 TBS/036824 Safari/537.36 MicroMessenger/6.3.27.880 NetType/WIFI Language/zh_CN'
p15
sS'ua'
p16
S'904a9b4802db3e06a40e594b5ae4b717'
p17
sa(dp18
g2
S'24034'
p19
sg4
S'4495'
p20
sg6
S'f49ecac507923d704291669ff507011e'
p21
sg8
S'xxaef798327907644f03d486d2cc265dc4'
p22
sg10
S'xx9aae67933c73a5ef2f0fa1dfb08afdd9'
p23
sg12
S'xx712ce2710d09158352fa29d1b3166879'
p24
sg14
S'Mozilla/5.0 (Linux; Android 4.4.4; Coolpad Y76 Build/KTU84P) AppleWebKit/537.36 (KHTML, like Gecko) Version/4.0 Chrome/37.0.0.0 Mobile MQQBrowser/6.8 TBS/036824 Safari/537.36 MicroMessenger/6.3.27.880 NetType/WIFI Language/zh_CN'
p25
sg16
S'904a9b4802db3e06a40e594b5ae4b717'
p26
sa(dp27
g2
S'24034'
p28
sg4
S'4512'
p29
sg6
S'f49ecac507923d704291669ff507011e'
p30
sg8
S'xxaef798327907644f03d486d2cc265dc4'
p31
sg10
S'xx9aae67933c73a5ef2f0fa1dfb08afdd9'
p32
sg12
S'xx712ce2710d09158352fa29d1b3166879'
p33
sg14
S'Mozilla/5.0 (Linux; Android 4.4.4; Coolpad Y76 Build/KTU84P) AppleWebKit/537.36 (KHTML, like Gecko) Version/4.0 Chrome/37.0.0.0 Mobile MQQBrowser/6.8 TBS/036824 Safari/537.36 MicroMessenger/6.3.27.880 NetType/WIFI Language/zh_CN'
p34
sg16
S'904a9b4802db3e06a40e594b5ae4b717'
p35
sa(dp36
g2
S'24034'
p37
sg4
S'4537'
p38
sg6
S'f49ecac507923d704291669ff507011e'
p39
sg8
S'xxaef798327907644f03d486d2cc265dc4'
p40
sg10
S'xx9aae67933c73a5ef2f0fa1dfb08afdd9'
p41
sg12
S'xx712ce2710d09158352fa29d1b3166879'
p42
sg14
S'Mozilla/5.0 (Linux; Android 4.4.4; Coolpad Y76 Build/KTU84P) AppleWebKit/537.36 (KHTML, like Gecko) Version/4.0 Chrome/37.0.0.0 Mobile MQQBrowser/6.8 TBS/036824 Safari/537.36 MicroMessenger/6.3.27.880 NetType/WIFI Language/zh_CN'
p43
sg16
S'904a9b4802db3e06a40e594b5ae4b717'
p44
sa.