(lp0
(dp1
S'user_id'
p2
S'49778'
p3
sS'data_id'
p4
S'3929'
p5
sS'ip'
p6
S'4b1c0d81ea06c9fcca60e16baebe4a50'
p7
sS'phone_B'
p8
S'xxf8171b10a1dab78748e9a0d692a00927'
p9
sS'phone_C'
p10
S'xx2fd16b5dc65be115aca348aa729f4294'
p11
sS'phone_A'
p12
S'xx731ee7f81ede6b5d37cfecc9c89fd9c5'
p13
sS'user_agent'
p14
S'Mozilla/5.0 (Linux; Android 4.4.4; vivo Y29L Build/KTU84P) AppleWebKit/537.36 (KHTML, like Gecko) Version/4.0 Chrome/37.0.0.0 Mobile MQQBrowser/6.8 TBS/036849 Safari/537.36 MicroMessenger/6.3.27.880 NetType/cmnet Language/zh_CN'
p15
sS'ua'
p16
S'33faf1a9f2d1f2036d27846fe63db893'
p17
sa(dp18
g2
S'49778'
p19
sg4
S'4008'
p20
sg6
S'4b1c0d81ea06c9fcca60e16baebe4a50'
p21
sg8
S'xxf8171b10a1dab78748e9a0d692a00927'
p22
sg10
S'xx2fd16b5dc65be115aca348aa729f4294'
p23
sg12
S'xx731ee7f81ede6b5d37cfecc9c89fd9c5'
p24
sg14
S'Mozilla/5.0 (Linux; Android 4.4.4; vivo Y29L Build/KTU84P) AppleWebKit/537.36 (KHTML, like Gecko) Version/4.0 Chrome/37.0.0.0 Mobile MQQBrowser/6.8 TBS/036849 Safari/537.36 MicroMessenger/6.3.27.880 NetType/cmnet Language/zh_CN'
p25
sg16
S'33faf1a9f2d1f2036d27846fe63db893'
p26
sa(dp27
g2
S'49778'
p28
sg4
S'4029'
p29
sg6
S'4b1c0d81ea06c9fcca60e16baebe4a50'
p30
sg8
S'xxf8171b10a1dab78748e9a0d692a00927'
p31
sg10
S'xx2fd16b5dc65be115aca348aa729f4294'
p32
sg12
S'xx731ee7f81ede6b5d37cfecc9c89fd9c5'
p33
sg14
S'Mozilla/5.0 (Linux; Android 4.4.4; vivo Y29L Build/KTU84P) AppleWebKit/537.36 (KHTML, like Gecko) Version/4.0 Chrome/37.0.0.0 Mobile MQQBrowser/6.8 TBS/036849 Safari/537.36 MicroMessenger/6.3.27.880 NetType/cmnet Language/zh_CN'
p34
sg16
S'33faf1a9f2d1f2036d27846fe63db893'
p35
sa(dp36
g2
S'49778'
p37
sg4
S'4050'
p38
sg6
S'4b1c0d81ea06c9fcca60e16baebe4a50'
p39
sg8
S'xxf8171b10a1dab78748e9a0d692a00927'
p40
sg10
S'xx2fd16b5dc65be115aca348aa729f4294'
p41
sg12
S'xx731ee7f81ede6b5d37cfecc9c89fd9c5'
p42
sg14
S'Mozilla/5.0 (Linux; Android 4.4.4; vivo Y29L Build/KTU84P) AppleWebKit/537.36 (KHTML, like Gecko) Version/4.0 Chrome/37.0.0.0 Mobile MQQBrowser/6.8 TBS/036849 Safari/537.36 MicroMessenger/6.3.27.880 NetType/cmnet Language/zh_CN'
p43
sg16
S'33faf1a9f2d1f2036d27846fe63db893'
p44
sa(dp45
g2
S'49778'
p46
sg4
S'4073'
p47
sg6
S'4b1c0d81ea06c9fcca60e16baebe4a50'
p48
sg8
S'xxf8171b10a1dab78748e9a0d692a00927'
p49
sg10
S'xx2fd16b5dc65be115aca348aa729f4294'
p50
sg12
S'xx731ee7f81ede6b5d37cfecc9c89fd9c5'
p51
sg14
S'Mozilla/5.0 (Linux; Android 4.4.4; vivo Y29L Build/KTU84P) AppleWebKit/537.36 (KHTML, like Gecko) Version/4.0 Chrome/37.0.0.0 Mobile MQQBrowser/6.8 TBS/036849 Safari/537.36 MicroMessenger/6.3.27.880 NetType/cmnet Language/zh_CN'
p52
sg16
S'33faf1a9f2d1f2036d27846fe63db893'
p53
sa(dp54
g2
S'42796'
p55
sg4
S'4084'
p56
sg6
S'64b88a14e1f5a8e1387a22da41d0f564'
p57
sg8
S'xxbba6902bf2ed321d45860a139a7202e9'
p58
sg10
S'xx2fd16b5dc65be115aca348aa729f4294'
p59
sg12
S'xx731ee7f81ede6b5d37cfecc9c89fd9c5'
p60
sg14
S'Mozilla/5.0 (Linux; Android 4.4.4; vivo Y29L Build/KTU84P) AppleWebKit/537.36 (KHTML, like Gecko) Version/4.0 Chrome/37.0.0.0 Mobile MQQBrowser/6.8 TBS/036849 Safari/537.36 MicroMessenger/6.3.27.880 NetType/WIFI Language/zh_CN'
p61
sg16
S'129fd8c2e36b5c80f77adf10d0c4a670'
p62
sa(dp63
g2
S'49778'
p64
sg4
S'4100'
p65
sg6
S'4b1c0d81ea06c9fcca60e16baebe4a50'
p66
sg8
S'xxf8171b10a1dab78748e9a0d692a00927'
p67
sg10
S'xx2fd16b5dc65be115aca348aa729f4294'
p68
sg12
S'xx731ee7f81ede6b5d37cfecc9c89fd9c5'
p69
sg14
S'Mozilla/5.0 (Linux; Android 4.4.4; vivo Y29L Build/KTU84P) AppleWebKit/537.36 (KHTML, like Gecko) Version/4.0 Chrome/37.0.0.0 Mobile MQQBrowser/6.8 TBS/036849 Safari/537.36 MicroMessenger/6.3.27.880 NetType/cmnet Language/zh_CN'
p70
sg16
S'33faf1a9f2d1f2036d27846fe63db893'
p71
sa(dp72
g2
S'42796'
p73
sg4
S'4114'
p74
sg6
S'64b88a14e1f5a8e1387a22da41d0f564'
p75
sg8
S'xxbba6902bf2ed321d45860a139a7202e9'
p76
sg10
S'xx2fd16b5dc65be115aca348aa729f4294'
p77
sg12
S'xx731ee7f81ede6b5d37cfecc9c89fd9c5'
p78
sg14
S'Mozilla/5.0 (Linux; Android 4.4.4; vivo Y29L Build/KTU84P) AppleWebKit/537.36 (KHTML, like Gecko) Version/4.0 Chrome/37.0.0.0 Mobile MQQBrowser/6.8 TBS/036849 Safari/537.36 MicroMessenger/6.3.27.880 NetType/WIFI Language/zh_CN'
p79
sg16
S'129fd8c2e36b5c80f77adf10d0c4a670'
p80
sa(dp81
g2
S'49778'
p82
sg4
S'4139'
p83
sg6
S'4b1c0d81ea06c9fcca60e16baebe4a50'
p84
sg8
S'xxf8171b10a1dab78748e9a0d692a00927'
p85
sg10
S'xx2fd16b5dc65be115aca348aa729f4294'
p86
sg12
S'xx731ee7f81ede6b5d37cfecc9c89fd9c5'
p87
sg14
S'Mozilla/5.0 (Linux; Android 4.4.4; vivo Y29L Build/KTU84P) AppleWebKit/537.36 (KHTML, like Gecko) Version/4.0 Chrome/37.0.0.0 Mobile MQQBrowser/6.8 TBS/036849 Safari/537.36 MicroMessenger/6.3.27.880 NetType/cmnet Language/zh_CN'
p88
sg16
S'33faf1a9f2d1f2036d27846fe63db893'
p89
sa(dp90
g2
S'49778'
p91
sg4
S'4207'
p92
sg6
S'4b1c0d81ea06c9fcca60e16baebe4a50'
p93
sg8
S'xxf8171b10a1dab78748e9a0d692a00927'
p94
sg10
S'xx2fd16b5dc65be115aca348aa729f4294'
p95
sg12
S'xx731ee7f81ede6b5d37cfecc9c89fd9c5'
p96
sg14
S'Mozilla/5.0 (Linux; Android 4.4.4; vivo Y29L Build/KTU84P) AppleWebKit/537.36 (KHTML, like Gecko) Version/4.0 Chrome/37.0.0.0 Mobile MQQBrowser/6.8 TBS/036849 Safari/537.36 MicroMessenger/6.3.27.880 NetType/cmnet Language/zh_CN'
p97
sg16
S'33faf1a9f2d1f2036d27846fe63db893'
p98
sa(dp99
g2
S'49778'
p100
sg4
S'4235'
p101
sg6
S'4b1c0d81ea06c9fcca60e16baebe4a50'
p102
sg8
S'xxf8171b10a1dab78748e9a0d692a00927'
p103
sg10
S'xx2fd16b5dc65be115aca348aa729f4294'
p104
sg12
S'xx731ee7f81ede6b5d37cfecc9c89fd9c5'
p105
sg14
S'Mozilla/5.0 (Linux; Android 4.4.4; vivo Y29L Build/KTU84P) AppleWebKit/537.36 (KHTML, like Gecko) Version/4.0 Chrome/37.0.0.0 Mobile MQQBrowser/6.8 TBS/036849 Safari/537.36 MicroMessenger/6.3.27.880 NetType/cmnet Language/zh_CN'
p106
sg16
S'33faf1a9f2d1f2036d27846fe63db893'
p107
sa.