(lp0
(dp1
S'user_id'
p2
S'24608'
p3
sS'data_id'
p4
S'8118'
p5
sS'ip'
p6
S'9ea3d98b242f7f9dd995fbd51f735a43'
p7
sS'phone_B'
p8
S'xxb54b65fd98886e4b4e92153d0756bf34'
p9
sS'phone_C'
p10
S'xx56173981ee3abe7f88e74c71a7a2ce7f'
p11
sS'phone_A'
p12
S'xx74161d6bbb50639c6ee43f3387fb5779'
p13
sS'user_agent'
p14
S'Mozilla/5.0 (Linux; Android 6.0; PE-CL00 Build/HuaweiPE-CL00) AppleWebKit/537.36 (KHTML, like Gecko) Version/4.0 Chrome/37.0.0.0 Mobile MQQBrowser/6.8 TBS/036849 Safari/537.36 MicroMessenger/6.3.27.880 NetType/ctnet Language/zh_CN'
p15
sS'ua'
p16
S'996c454871f9692646ed5dcf2ca42090'
p17
sa(dp18
g2
S'24608'
p19
sg4
S'8128'
p20
sg6
S'9ea3d98b242f7f9dd995fbd51f735a43'
p21
sg8
S'xxb54b65fd98886e4b4e92153d0756bf34'
p22
sg10
S'xx56173981ee3abe7f88e74c71a7a2ce7f'
p23
sg12
S'xx74161d6bbb50639c6ee43f3387fb5779'
p24
sg14
S'Mozilla/5.0 (Linux; Android 6.0; PE-CL00 Build/HuaweiPE-CL00) AppleWebKit/537.36 (KHTML, like Gecko) Version/4.0 Chrome/37.0.0.0 Mobile MQQBrowser/6.8 TBS/036849 Safari/537.36 MicroMessenger/6.3.27.880 NetType/ctnet Language/zh_CN'
p25
sg16
S'996c454871f9692646ed5dcf2ca42090'
p26
sa.