(lp0
(dp1
S'user_id'
p2
S'26342'
p3
sS'data_id'
p4
S'866'
p5
sS'ip'
p6
S'a5b44b593f8f8dbc9d4ef18a119f70cf'
p7
sS'phone_B'
p8
S'xx076c784f6c31bae259731c0273039b9a'
p9
sS'phone_C'
p10
S'xx28a807eca3f2b7174e4a290f4d241170'
p11
sS'phone_A'
p12
S'xx744350cf81c307a4f595d289fcb8d793'
p13
sS'user_agent'
p14
S'Mozilla/5.0 (Linux; Android 5.1.1; OPPO R9 Plustm A Build/LMY47V) AppleWebKit/537.36 (KHTML, like Gecko) Version/4.0 Chrome/37.0.0.0 Mobile MQQBrowser/6.8 TBS/036849 Safari/537.36 MicroMessenger/6.3.27.880 NetType/WIFI Language/zh_CN'
p15
sS'ua'
p16
S'b731b7e9cc27a3fb4c0bdcb0321acc94'
p17
sa(dp18
g2
S'26342'
p19
sg4
S'891'
p20
sg6
S'a5b44b593f8f8dbc9d4ef18a119f70cf'
p21
sg8
S'xx076c784f6c31bae259731c0273039b9a'
p22
sg10
S'xx28a807eca3f2b7174e4a290f4d241170'
p23
sg12
S'xx744350cf81c307a4f595d289fcb8d793'
p24
sg14
S'Mozilla/5.0 (Linux; Android 5.1.1; OPPO R9 Plustm A Build/LMY47V) AppleWebKit/537.36 (KHTML, like Gecko) Version/4.0 Chrome/37.0.0.0 Mobile MQQBrowser/6.8 TBS/036849 Safari/537.36 MicroMessenger/6.3.27.880 NetType/WIFI Language/zh_CN'
p25
sg16
S'b731b7e9cc27a3fb4c0bdcb0321acc94'
p26
sa(dp27
g2
S'26342'
p28
sg4
S'915'
p29
sg6
S'a5b44b593f8f8dbc9d4ef18a119f70cf'
p30
sg8
S'xx076c784f6c31bae259731c0273039b9a'
p31
sg10
S'xx28a807eca3f2b7174e4a290f4d241170'
p32
sg12
S'xx744350cf81c307a4f595d289fcb8d793'
p33
sg14
S'Mozilla/5.0 (Linux; Android 5.1.1; OPPO R9 Plustm A Build/LMY47V) AppleWebKit/537.36 (KHTML, like Gecko) Version/4.0 Chrome/37.0.0.0 Mobile MQQBrowser/6.8 TBS/036849 Safari/537.36 MicroMessenger/6.3.27.880 NetType/WIFI Language/zh_CN'
p34
sg16
S'b731b7e9cc27a3fb4c0bdcb0321acc94'
p35
sa(dp36
g2
S'26342'
p37
sg4
S'2411'
p38
sg6
S'a5b44b593f8f8dbc9d4ef18a119f70cf'
p39
sg8
S'xx076c784f6c31bae259731c0273039b9a'
p40
sg10
S'xx28a807eca3f2b7174e4a290f4d241170'
p41
sg12
S'xx744350cf81c307a4f595d289fcb8d793'
p42
sg14
S'Mozilla/5.0 (Linux; Android 5.1.1; OPPO R9 Plustm A Build/LMY47V) AppleWebKit/537.36 (KHTML, like Gecko) Version/4.0 Chrome/37.0.0.0 Mobile MQQBrowser/6.8 TBS/036849 Safari/537.36 MicroMessenger/6.3.27.880 NetType/WIFI Language/zh_CN'
p43
sg16
S'b731b7e9cc27a3fb4c0bdcb0321acc94'
p44
sa(dp45
g2
S'26342'
p46
sg4
S'2434'
p47
sg6
S'a5b44b593f8f8dbc9d4ef18a119f70cf'
p48
sg8
S'xx076c784f6c31bae259731c0273039b9a'
p49
sg10
S'xx28a807eca3f2b7174e4a290f4d241170'
p50
sg12
S'xx744350cf81c307a4f595d289fcb8d793'
p51
sg14
S'Mozilla/5.0 (Linux; Android 5.1.1; OPPO R9 Plustm A Build/LMY47V) AppleWebKit/537.36 (KHTML, like Gecko) Version/4.0 Chrome/37.0.0.0 Mobile MQQBrowser/6.8 TBS/036849 Safari/537.36 MicroMessenger/6.3.27.880 NetType/WIFI Language/zh_CN'
p52
sg16
S'b731b7e9cc27a3fb4c0bdcb0321acc94'
p53
sa(dp54
g2
S'26342'
p55
sg4
S'2475'
p56
sg6
S'a5b44b593f8f8dbc9d4ef18a119f70cf'
p57
sg8
S'xx076c784f6c31bae259731c0273039b9a'
p58
sg10
S'xx28a807eca3f2b7174e4a290f4d241170'
p59
sg12
S'xx744350cf81c307a4f595d289fcb8d793'
p60
sg14
S'Mozilla/5.0 (Linux; Android 5.1.1; OPPO R9 Plustm A Build/LMY47V) AppleWebKit/537.36 (KHTML, like Gecko) Version/4.0 Chrome/37.0.0.0 Mobile MQQBrowser/6.8 TBS/036849 Safari/537.36 MicroMessenger/6.3.27.880 NetType/WIFI Language/zh_CN'
p61
sg16
S'b731b7e9cc27a3fb4c0bdcb0321acc94'
p62
sa(dp63
g2
S'26342'
p64
sg4
S'2493'
p65
sg6
S'a5b44b593f8f8dbc9d4ef18a119f70cf'
p66
sg8
S'xx076c784f6c31bae259731c0273039b9a'
p67
sg10
S'xx28a807eca3f2b7174e4a290f4d241170'
p68
sg12
S'xx744350cf81c307a4f595d289fcb8d793'
p69
sg14
S'Mozilla/5.0 (Linux; Android 5.1.1; OPPO R9 Plustm A Build/LMY47V) AppleWebKit/537.36 (KHTML, like Gecko) Version/4.0 Chrome/37.0.0.0 Mobile MQQBrowser/6.8 TBS/036849 Safari/537.36 MicroMessenger/6.3.27.880 NetType/WIFI Language/zh_CN'
p70
sg16
S'b731b7e9cc27a3fb4c0bdcb0321acc94'
p71
sa(dp72
g2
S'26342'
p73
sg4
S'2619'
p74
sg6
S'a5b44b593f8f8dbc9d4ef18a119f70cf'
p75
sg8
S'xx076c784f6c31bae259731c0273039b9a'
p76
sg10
S'xx28a807eca3f2b7174e4a290f4d241170'
p77
sg12
S'xx744350cf81c307a4f595d289fcb8d793'
p78
sg14
S'Mozilla/5.0 (Linux; Android 5.1.1; OPPO R9 Plustm A Build/LMY47V) AppleWebKit/537.36 (KHTML, like Gecko) Version/4.0 Chrome/37.0.0.0 Mobile MQQBrowser/6.8 TBS/036849 Safari/537.36 MicroMessenger/6.3.27.880 NetType/WIFI Language/zh_CN'
p79
sg16
S'b731b7e9cc27a3fb4c0bdcb0321acc94'
p80
sa(dp81
g2
S'26342'
p82
sg4
S'2832'
p83
sg6
S'a5b44b593f8f8dbc9d4ef18a119f70cf'
p84
sg8
S'xx076c784f6c31bae259731c0273039b9a'
p85
sg10
S'xx28a807eca3f2b7174e4a290f4d241170'
p86
sg12
S'xx744350cf81c307a4f595d289fcb8d793'
p87
sg14
S'Mozilla/5.0 (Linux; Android 5.1.1; OPPO R9 Plustm A Build/LMY47V) AppleWebKit/537.36 (KHTML, like Gecko) Version/4.0 Chrome/37.0.0.0 Mobile MQQBrowser/6.8 TBS/036849 Safari/537.36 MicroMessenger/6.3.27.880 NetType/WIFI Language/zh_CN'
p88
sg16
S'b731b7e9cc27a3fb4c0bdcb0321acc94'
p89
sa(dp90
g2
S'26342'
p91
sg4
S'2862'
p92
sg6
S'a5b44b593f8f8dbc9d4ef18a119f70cf'
p93
sg8
S'xx076c784f6c31bae259731c0273039b9a'
p94
sg10
S'xx28a807eca3f2b7174e4a290f4d241170'
p95
sg12
S'xx744350cf81c307a4f595d289fcb8d793'
p96
sg14
S'Mozilla/5.0 (Linux; Android 5.1.1; OPPO R9 Plustm A Build/LMY47V) AppleWebKit/537.36 (KHTML, like Gecko) Version/4.0 Chrome/37.0.0.0 Mobile MQQBrowser/6.8 TBS/036849 Safari/537.36 MicroMessenger/6.3.27.880 NetType/WIFI Language/zh_CN'
p97
sg16
S'b731b7e9cc27a3fb4c0bdcb0321acc94'
p98
sa(dp99
g2
S'26342'
p100
sg4
S'3318'
p101
sg6
S'a5b44b593f8f8dbc9d4ef18a119f70cf'
p102
sg8
S'xx076c784f6c31bae259731c0273039b9a'
p103
sg10
S'xx28a807eca3f2b7174e4a290f4d241170'
p104
sg12
S'xx744350cf81c307a4f595d289fcb8d793'
p105
sg14
S'Mozilla/5.0 (Linux; Android 5.1.1; OPPO R9 Plustm A Build/LMY47V) AppleWebKit/537.36 (KHTML, like Gecko) Version/4.0 Chrome/37.0.0.0 Mobile MQQBrowser/6.8 TBS/036849 Safari/537.36 MicroMessenger/6.3.27.880 NetType/WIFI Language/zh_CN'
p106
sg16
S'b731b7e9cc27a3fb4c0bdcb0321acc94'
p107
sa(dp108
g2
S'26342'
p109
sg4
S'3488'
p110
sg6
S'a5b44b593f8f8dbc9d4ef18a119f70cf'
p111
sg8
S'xx076c784f6c31bae259731c0273039b9a'
p112
sg10
S'xx28a807eca3f2b7174e4a290f4d241170'
p113
sg12
S'xx744350cf81c307a4f595d289fcb8d793'
p114
sg14
S'Mozilla/5.0 (Linux; Android 5.1.1; OPPO R9 Plustm A Build/LMY47V) AppleWebKit/537.36 (KHTML, like Gecko) Version/4.0 Chrome/37.0.0.0 Mobile MQQBrowser/6.8 TBS/036849 Safari/537.36 MicroMessenger/6.3.27.880 NetType/WIFI Language/zh_CN'
p115
sg16
S'b731b7e9cc27a3fb4c0bdcb0321acc94'
p116
sa(dp117
g2
S'26342'
p118
sg4
S'3512'
p119
sg6
S'a5b44b593f8f8dbc9d4ef18a119f70cf'
p120
sg8
S'xx076c784f6c31bae259731c0273039b9a'
p121
sg10
S'xx28a807eca3f2b7174e4a290f4d241170'
p122
sg12
S'xx744350cf81c307a4f595d289fcb8d793'
p123
sg14
S'Mozilla/5.0 (Linux; Android 5.1.1; OPPO R9 Plustm A Build/LMY47V) AppleWebKit/537.36 (KHTML, like Gecko) Version/4.0 Chrome/37.0.0.0 Mobile MQQBrowser/6.8 TBS/036849 Safari/537.36 MicroMessenger/6.3.27.880 NetType/WIFI Language/zh_CN'
p124
sg16
S'b731b7e9cc27a3fb4c0bdcb0321acc94'
p125
sa(dp126
g2
S'26342'
p127
sg4
S'3524'
p128
sg6
S'a5b44b593f8f8dbc9d4ef18a119f70cf'
p129
sg8
S'xx076c784f6c31bae259731c0273039b9a'
p130
sg10
S'xx28a807eca3f2b7174e4a290f4d241170'
p131
sg12
S'xx744350cf81c307a4f595d289fcb8d793'
p132
sg14
S'Mozilla/5.0 (Linux; Android 5.1.1; OPPO R9 Plustm A Build/LMY47V) AppleWebKit/537.36 (KHTML, like Gecko) Version/4.0 Chrome/37.0.0.0 Mobile MQQBrowser/6.8 TBS/036849 Safari/537.36 MicroMessenger/6.3.27.880 NetType/WIFI Language/zh_CN'
p133
sg16
S'b731b7e9cc27a3fb4c0bdcb0321acc94'
p134
sa(dp135
g2
S'26342'
p136
sg4
S'3559'
p137
sg6
S'a5b44b593f8f8dbc9d4ef18a119f70cf'
p138
sg8
S'xx076c784f6c31bae259731c0273039b9a'
p139
sg10
S'xx28a807eca3f2b7174e4a290f4d241170'
p140
sg12
S'xx744350cf81c307a4f595d289fcb8d793'
p141
sg14
S'Mozilla/5.0 (Linux; Android 5.1.1; OPPO R9 Plustm A Build/LMY47V) AppleWebKit/537.36 (KHTML, like Gecko) Version/4.0 Chrome/37.0.0.0 Mobile MQQBrowser/6.8 TBS/036849 Safari/537.36 MicroMessenger/6.3.27.880 NetType/WIFI Language/zh_CN'
p142
sg16
S'b731b7e9cc27a3fb4c0bdcb0321acc94'
p143
sa(dp144
g2
S'26342'
p145
sg4
S'3573'
p146
sg6
S'a5b44b593f8f8dbc9d4ef18a119f70cf'
p147
sg8
S'xx076c784f6c31bae259731c0273039b9a'
p148
sg10
S'xx28a807eca3f2b7174e4a290f4d241170'
p149
sg12
S'xx744350cf81c307a4f595d289fcb8d793'
p150
sg14
S'Mozilla/5.0 (Linux; Android 5.1.1; OPPO R9 Plustm A Build/LMY47V) AppleWebKit/537.36 (KHTML, like Gecko) Version/4.0 Chrome/37.0.0.0 Mobile MQQBrowser/6.8 TBS/036849 Safari/537.36 MicroMessenger/6.3.27.880 NetType/WIFI Language/zh_CN'
p151
sg16
S'b731b7e9cc27a3fb4c0bdcb0321acc94'
p152
sa(dp153
g2
S'26342'
p154
sg4
S'3676'
p155
sg6
S'a5b44b593f8f8dbc9d4ef18a119f70cf'
p156
sg8
S'xx076c784f6c31bae259731c0273039b9a'
p157
sg10
S'xx28a807eca3f2b7174e4a290f4d241170'
p158
sg12
S'xx744350cf81c307a4f595d289fcb8d793'
p159
sg14
S'Mozilla/5.0 (Linux; Android 5.1.1; OPPO R9 Plustm A Build/LMY47V) AppleWebKit/537.36 (KHTML, like Gecko) Version/4.0 Chrome/37.0.0.0 Mobile MQQBrowser/6.8 TBS/036849 Safari/537.36 MicroMessenger/6.3.27.880 NetType/WIFI Language/zh_CN'
p160
sg16
S'b731b7e9cc27a3fb4c0bdcb0321acc94'
p161
sa(dp162
g2
S'31308'
p163
sg4
S'4852'
p164
sg6
S'37adcabb4bd30f1f2144e826fd42738a'
p165
sg8
S'xx076c784f6c31bae259731c0273039b9a'
p166
sg10
S'xx28a807eca3f2b7174e4a290f4d241170'
p167
sg12
S'xx744350cf81c307a4f595d289fcb8d793'
p168
sg14
S'Mozilla/5.0 (Linux; Android 5.1.1; OPPO R9 Plustm A Build/LMY47V) AppleWebKit/537.36 (KHTML, like Gecko) Version/4.0 Chrome/37.0.0.0 Mobile MQQBrowser/6.8 TBS/036849 Safari/537.36 MicroMessenger/6.3.27.880 NetType/WIFI Language/zh_CN'
p169
sg16
S'b731b7e9cc27a3fb4c0bdcb0321acc94'
p170
sa(dp171
g2
S'31308'
p172
sg4
S'4867'
p173
sg6
S'37adcabb4bd30f1f2144e826fd42738a'
p174
sg8
S'xx076c784f6c31bae259731c0273039b9a'
p175
sg10
S'xx28a807eca3f2b7174e4a290f4d241170'
p176
sg12
S'xx744350cf81c307a4f595d289fcb8d793'
p177
sg14
S'Mozilla/5.0 (Linux; Android 5.1.1; OPPO R9 Plustm A Build/LMY47V) AppleWebKit/537.36 (KHTML, like Gecko) Version/4.0 Chrome/37.0.0.0 Mobile MQQBrowser/6.8 TBS/036849 Safari/537.36 MicroMessenger/6.3.27.880 NetType/WIFI Language/zh_CN'
p178
sg16
S'b731b7e9cc27a3fb4c0bdcb0321acc94'
p179
sa(dp180
g2
S'26342'
p181
sg4
S'5246'
p182
sg6
S'a5b44b593f8f8dbc9d4ef18a119f70cf'
p183
sg8
S'xx076c784f6c31bae259731c0273039b9a'
p184
sg10
S'xx28a807eca3f2b7174e4a290f4d241170'
p185
sg12
S'xx744350cf81c307a4f595d289fcb8d793'
p186
sg14
S'Mozilla/5.0 (Linux; Android 5.1.1; OPPO R9 Plustm A Build/LMY47V) AppleWebKit/537.36 (KHTML, like Gecko) Version/4.0 Chrome/37.0.0.0 Mobile MQQBrowser/6.8 TBS/036849 Safari/537.36 MicroMessenger/6.3.27.880 NetType/WIFI Language/zh_CN'
p187
sg16
S'b731b7e9cc27a3fb4c0bdcb0321acc94'
p188
sa.