(lp0
(dp1
S'user_id'
p2
S'35633'
p3
sS'data_id'
p4
S'246'
p5
sS'ip'
p6
S'59c77e87d8295ba4bb23a85022c8369e'
p7
sS'phone_B'
p8
S'xx973310f0a159232e3556165c3aed2842'
p9
sS'phone_C'
p10
S'xx5b896e7332cd15a0a1e7ec85569e20e9'
p11
sS'phone_A'
p12
S'xx7587eb8cfc17383dd27659c25384320d'
p13
sS'user_agent'
p14
S'Mozilla/5.0 (Linux; Android 5.1; WP-S Build/LMY47D) AppleWebKit/537.36 (KHTML, like Gecko) Version/4.0 Chrome/37.0.0.0 Mobile MQQBrowser/6.8 TBS/036824 Safari/537.36 MicroMessenger/6.3.27.880 NetType/WIFI Language/zh_CN'
p15
sS'ua'
p16
S'345d1bdd8fa5e50038bb5e9c84817351'
p17
sa(dp18
g2
S'35633'
p19
sg4
S'259'
p20
sg6
S'59c77e87d8295ba4bb23a85022c8369e'
p21
sg8
S'xx973310f0a159232e3556165c3aed2842'
p22
sg10
S'xx5b896e7332cd15a0a1e7ec85569e20e9'
p23
sg12
S'xx7587eb8cfc17383dd27659c25384320d'
p24
sg14
S'Mozilla/5.0 (Linux; Android 5.1; WP-S Build/LMY47D) AppleWebKit/537.36 (KHTML, like Gecko) Version/4.0 Chrome/37.0.0.0 Mobile MQQBrowser/6.8 TBS/036824 Safari/537.36 MicroMessenger/6.3.27.880 NetType/WIFI Language/zh_CN'
p25
sg16
S'345d1bdd8fa5e50038bb5e9c84817351'
p26
sa(dp27
g2
S'35633'
p28
sg4
S'272'
p29
sg6
S'59c77e87d8295ba4bb23a85022c8369e'
p30
sg8
S'xx973310f0a159232e3556165c3aed2842'
p31
sg10
S'xx5b896e7332cd15a0a1e7ec85569e20e9'
p32
sg12
S'xx7587eb8cfc17383dd27659c25384320d'
p33
sg14
S'Mozilla/5.0 (Linux; Android 5.1; WP-S Build/LMY47D) AppleWebKit/537.36 (KHTML, like Gecko) Version/4.0 Chrome/37.0.0.0 Mobile MQQBrowser/6.8 TBS/036824 Safari/537.36 MicroMessenger/6.3.27.880 NetType/WIFI Language/zh_CN'
p34
sg16
S'345d1bdd8fa5e50038bb5e9c84817351'
p35
sa(dp36
g2
S'35633'
p37
sg4
S'277'
p38
sg6
S'59c77e87d8295ba4bb23a85022c8369e'
p39
sg8
S'xx973310f0a159232e3556165c3aed2842'
p40
sg10
S'xx5b896e7332cd15a0a1e7ec85569e20e9'
p41
sg12
S'xx7587eb8cfc17383dd27659c25384320d'
p42
sg14
S'Mozilla/5.0 (Linux; Android 5.1; WP-S Build/LMY47D) AppleWebKit/537.36 (KHTML, like Gecko) Version/4.0 Chrome/37.0.0.0 Mobile MQQBrowser/6.8 TBS/036824 Safari/537.36 MicroMessenger/6.3.27.880 NetType/WIFI Language/zh_CN'
p43
sg16
S'345d1bdd8fa5e50038bb5e9c84817351'
p44
sa(dp45
g2
S'35633'
p46
sg4
S'287'
p47
sg6
S'59c77e87d8295ba4bb23a85022c8369e'
p48
sg8
S'xx973310f0a159232e3556165c3aed2842'
p49
sg10
S'xx5b896e7332cd15a0a1e7ec85569e20e9'
p50
sg12
S'xx7587eb8cfc17383dd27659c25384320d'
p51
sg14
S'Mozilla/5.0 (Linux; Android 5.1; WP-S Build/LMY47D) AppleWebKit/537.36 (KHTML, like Gecko) Version/4.0 Chrome/37.0.0.0 Mobile MQQBrowser/6.8 TBS/036824 Safari/537.36 MicroMessenger/6.3.27.880 NetType/WIFI Language/zh_CN'
p52
sg16
S'345d1bdd8fa5e50038bb5e9c84817351'
p53
sa(dp54
g2
S'35633'
p55
sg4
S'301'
p56
sg6
S'59c77e87d8295ba4bb23a85022c8369e'
p57
sg8
S'xx973310f0a159232e3556165c3aed2842'
p58
sg10
S'xx5b896e7332cd15a0a1e7ec85569e20e9'
p59
sg12
S'xx7587eb8cfc17383dd27659c25384320d'
p60
sg14
S'Mozilla/5.0 (Linux; Android 5.1; WP-S Build/LMY47D) AppleWebKit/537.36 (KHTML, like Gecko) Version/4.0 Chrome/37.0.0.0 Mobile MQQBrowser/6.8 TBS/036824 Safari/537.36 MicroMessenger/6.3.27.880 NetType/WIFI Language/zh_CN'
p61
sg16
S'345d1bdd8fa5e50038bb5e9c84817351'
p62
sa(dp63
g2
S'35633'
p64
sg4
S'332'
p65
sg6
S'59c77e87d8295ba4bb23a85022c8369e'
p66
sg8
S'xx973310f0a159232e3556165c3aed2842'
p67
sg10
S'xx5b896e7332cd15a0a1e7ec85569e20e9'
p68
sg12
S'xx7587eb8cfc17383dd27659c25384320d'
p69
sg14
S'Mozilla/5.0 (Linux; Android 5.1; WP-S Build/LMY47D) AppleWebKit/537.36 (KHTML, like Gecko) Version/4.0 Chrome/37.0.0.0 Mobile MQQBrowser/6.8 TBS/036824 Safari/537.36 MicroMessenger/6.3.27.880 NetType/WIFI Language/zh_CN'
p70
sg16
S'345d1bdd8fa5e50038bb5e9c84817351'
p71
sa(dp72
g2
S'35633'
p73
sg4
S'350'
p74
sg6
S'59c77e87d8295ba4bb23a85022c8369e'
p75
sg8
S'xx973310f0a159232e3556165c3aed2842'
p76
sg10
S'xx5b896e7332cd15a0a1e7ec85569e20e9'
p77
sg12
S'xx7587eb8cfc17383dd27659c25384320d'
p78
sg14
S'Mozilla/5.0 (Linux; Android 5.1; WP-S Build/LMY47D) AppleWebKit/537.36 (KHTML, like Gecko) Version/4.0 Chrome/37.0.0.0 Mobile MQQBrowser/6.8 TBS/036824 Safari/537.36 MicroMessenger/6.3.27.880 NetType/WIFI Language/zh_CN'
p79
sg16
S'345d1bdd8fa5e50038bb5e9c84817351'
p80
sa(dp81
g2
S'35633'
p82
sg4
S'375'
p83
sg6
S'59c77e87d8295ba4bb23a85022c8369e'
p84
sg8
S'xx973310f0a159232e3556165c3aed2842'
p85
sg10
S'xx5b896e7332cd15a0a1e7ec85569e20e9'
p86
sg12
S'xx7587eb8cfc17383dd27659c25384320d'
p87
sg14
S'Mozilla/5.0 (Linux; Android 5.1; WP-S Build/LMY47D) AppleWebKit/537.36 (KHTML, like Gecko) Version/4.0 Chrome/37.0.0.0 Mobile MQQBrowser/6.8 TBS/036824 Safari/537.36 MicroMessenger/6.3.27.880 NetType/WIFI Language/zh_CN'
p88
sg16
S'345d1bdd8fa5e50038bb5e9c84817351'
p89
sa(dp90
g2
S'35633'
p91
sg4
S'383'
p92
sg6
S'59c77e87d8295ba4bb23a85022c8369e'
p93
sg8
S'xx973310f0a159232e3556165c3aed2842'
p94
sg10
S'xx5b896e7332cd15a0a1e7ec85569e20e9'
p95
sg12
S'xx7587eb8cfc17383dd27659c25384320d'
p96
sg14
S'Mozilla/5.0 (Linux; Android 5.1; WP-S Build/LMY47D) AppleWebKit/537.36 (KHTML, like Gecko) Version/4.0 Chrome/37.0.0.0 Mobile MQQBrowser/6.8 TBS/036824 Safari/537.36 MicroMessenger/6.3.27.880 NetType/WIFI Language/zh_CN'
p97
sg16
S'345d1bdd8fa5e50038bb5e9c84817351'
p98
sa(dp99
g2
S'35633'
p100
sg4
S'393'
p101
sg6
S'59c77e87d8295ba4bb23a85022c8369e'
p102
sg8
S'xx973310f0a159232e3556165c3aed2842'
p103
sg10
S'xx5b896e7332cd15a0a1e7ec85569e20e9'
p104
sg12
S'xx7587eb8cfc17383dd27659c25384320d'
p105
sg14
S'Mozilla/5.0 (Linux; Android 5.1; WP-S Build/LMY47D) AppleWebKit/537.36 (KHTML, like Gecko) Version/4.0 Chrome/37.0.0.0 Mobile MQQBrowser/6.8 TBS/036824 Safari/537.36 MicroMessenger/6.3.27.880 NetType/WIFI Language/zh_CN'
p106
sg16
S'345d1bdd8fa5e50038bb5e9c84817351'
p107
sa(dp108
g2
S'35633'
p109
sg4
S'408'
p110
sg6
S'59c77e87d8295ba4bb23a85022c8369e'
p111
sg8
S'xx973310f0a159232e3556165c3aed2842'
p112
sg10
S'xx5b896e7332cd15a0a1e7ec85569e20e9'
p113
sg12
S'xx7587eb8cfc17383dd27659c25384320d'
p114
sg14
S'Mozilla/5.0 (Linux; Android 5.1; WP-S Build/LMY47D) AppleWebKit/537.36 (KHTML, like Gecko) Version/4.0 Chrome/37.0.0.0 Mobile MQQBrowser/6.8 TBS/036824 Safari/537.36 MicroMessenger/6.3.27.880 NetType/WIFI Language/zh_CN'
p115
sg16
S'345d1bdd8fa5e50038bb5e9c84817351'
p116
sa(dp117
g2
S'35633'
p118
sg4
S'422'
p119
sg6
S'59c77e87d8295ba4bb23a85022c8369e'
p120
sg8
S'xx973310f0a159232e3556165c3aed2842'
p121
sg10
S'xx5b896e7332cd15a0a1e7ec85569e20e9'
p122
sg12
S'xx7587eb8cfc17383dd27659c25384320d'
p123
sg14
S'Mozilla/5.0 (Linux; Android 5.1; WP-S Build/LMY47D) AppleWebKit/537.36 (KHTML, like Gecko) Version/4.0 Chrome/37.0.0.0 Mobile MQQBrowser/6.8 TBS/036824 Safari/537.36 MicroMessenger/6.3.27.880 NetType/WIFI Language/zh_CN'
p124
sg16
S'345d1bdd8fa5e50038bb5e9c84817351'
p125
sa(dp126
g2
S'35633'
p127
sg4
S'446'
p128
sg6
S'59c77e87d8295ba4bb23a85022c8369e'
p129
sg8
S'xx973310f0a159232e3556165c3aed2842'
p130
sg10
S'xx5b896e7332cd15a0a1e7ec85569e20e9'
p131
sg12
S'xx7587eb8cfc17383dd27659c25384320d'
p132
sg14
S'Mozilla/5.0 (Linux; Android 5.1; WP-S Build/LMY47D) AppleWebKit/537.36 (KHTML, like Gecko) Version/4.0 Chrome/37.0.0.0 Mobile MQQBrowser/6.8 TBS/036824 Safari/537.36 MicroMessenger/6.3.27.880 NetType/WIFI Language/zh_CN'
p133
sg16
S'345d1bdd8fa5e50038bb5e9c84817351'
p134
sa(dp135
g2
S'35633'
p136
sg4
S'476'
p137
sg6
S'59c77e87d8295ba4bb23a85022c8369e'
p138
sg8
S'xx973310f0a159232e3556165c3aed2842'
p139
sg10
S'xx5b896e7332cd15a0a1e7ec85569e20e9'
p140
sg12
S'xx7587eb8cfc17383dd27659c25384320d'
p141
sg14
S'Mozilla/5.0 (Linux; Android 5.1; WP-S Build/LMY47D) AppleWebKit/537.36 (KHTML, like Gecko) Version/4.0 Chrome/37.0.0.0 Mobile MQQBrowser/6.8 TBS/036824 Safari/537.36 MicroMessenger/6.3.27.880 NetType/WIFI Language/zh_CN'
p142
sg16
S'345d1bdd8fa5e50038bb5e9c84817351'
p143
sa(dp144
g2
S'35633'
p145
sg4
S'512'
p146
sg6
S'59c77e87d8295ba4bb23a85022c8369e'
p147
sg8
S'xx973310f0a159232e3556165c3aed2842'
p148
sg10
S'xx5b896e7332cd15a0a1e7ec85569e20e9'
p149
sg12
S'xx7587eb8cfc17383dd27659c25384320d'
p150
sg14
S'Mozilla/5.0 (Linux; Android 5.1; WP-S Build/LMY47D) AppleWebKit/537.36 (KHTML, like Gecko) Version/4.0 Chrome/37.0.0.0 Mobile MQQBrowser/6.8 TBS/036824 Safari/537.36 MicroMessenger/6.3.27.880 NetType/WIFI Language/zh_CN'
p151
sg16
S'345d1bdd8fa5e50038bb5e9c84817351'
p152
sa(dp153
g2
S'35633'
p154
sg4
S'572'
p155
sg6
S'59c77e87d8295ba4bb23a85022c8369e'
p156
sg8
S'xx973310f0a159232e3556165c3aed2842'
p157
sg10
S'xx5b896e7332cd15a0a1e7ec85569e20e9'
p158
sg12
S'xx7587eb8cfc17383dd27659c25384320d'
p159
sg14
S'Mozilla/5.0 (Linux; Android 5.1; WP-S Build/LMY47D) AppleWebKit/537.36 (KHTML, like Gecko) Version/4.0 Chrome/37.0.0.0 Mobile MQQBrowser/6.8 TBS/036824 Safari/537.36 MicroMessenger/6.3.27.880 NetType/WIFI Language/zh_CN'
p160
sg16
S'345d1bdd8fa5e50038bb5e9c84817351'
p161
sa(dp162
g2
S'35633'
p163
sg4
S'590'
p164
sg6
S'59c77e87d8295ba4bb23a85022c8369e'
p165
sg8
S'xx973310f0a159232e3556165c3aed2842'
p166
sg10
S'xx5b896e7332cd15a0a1e7ec85569e20e9'
p167
sg12
S'xx7587eb8cfc17383dd27659c25384320d'
p168
sg14
S'Mozilla/5.0 (Linux; Android 5.1; WP-S Build/LMY47D) AppleWebKit/537.36 (KHTML, like Gecko) Version/4.0 Chrome/37.0.0.0 Mobile MQQBrowser/6.8 TBS/036824 Safari/537.36 MicroMessenger/6.3.27.880 NetType/WIFI Language/zh_CN'
p169
sg16
S'345d1bdd8fa5e50038bb5e9c84817351'
p170
sa(dp171
g2
S'35633'
p172
sg4
S'607'
p173
sg6
S'59c77e87d8295ba4bb23a85022c8369e'
p174
sg8
S'xx973310f0a159232e3556165c3aed2842'
p175
sg10
S'xx5b896e7332cd15a0a1e7ec85569e20e9'
p176
sg12
S'xx7587eb8cfc17383dd27659c25384320d'
p177
sg14
S'Mozilla/5.0 (Linux; Android 5.1; WP-S Build/LMY47D) AppleWebKit/537.36 (KHTML, like Gecko) Version/4.0 Chrome/37.0.0.0 Mobile MQQBrowser/6.8 TBS/036824 Safari/537.36 MicroMessenger/6.3.27.880 NetType/WIFI Language/zh_CN'
p178
sg16
S'345d1bdd8fa5e50038bb5e9c84817351'
p179
sa(dp180
g2
S'35633'
p181
sg4
S'622'
p182
sg6
S'59c77e87d8295ba4bb23a85022c8369e'
p183
sg8
S'xx973310f0a159232e3556165c3aed2842'
p184
sg10
S'xx5b896e7332cd15a0a1e7ec85569e20e9'
p185
sg12
S'xx7587eb8cfc17383dd27659c25384320d'
p186
sg14
S'Mozilla/5.0 (Linux; Android 5.1; WP-S Build/LMY47D) AppleWebKit/537.36 (KHTML, like Gecko) Version/4.0 Chrome/37.0.0.0 Mobile MQQBrowser/6.8 TBS/036824 Safari/537.36 MicroMessenger/6.3.27.880 NetType/WIFI Language/zh_CN'
p187
sg16
S'345d1bdd8fa5e50038bb5e9c84817351'
p188
sa(dp189
g2
S'35633'
p190
sg4
S'639'
p191
sg6
S'59c77e87d8295ba4bb23a85022c8369e'
p192
sg8
S'xx973310f0a159232e3556165c3aed2842'
p193
sg10
S'xx5b896e7332cd15a0a1e7ec85569e20e9'
p194
sg12
S'xx7587eb8cfc17383dd27659c25384320d'
p195
sg14
S'Mozilla/5.0 (Linux; Android 5.1; WP-S Build/LMY47D) AppleWebKit/537.36 (KHTML, like Gecko) Version/4.0 Chrome/37.0.0.0 Mobile MQQBrowser/6.8 TBS/036824 Safari/537.36 MicroMessenger/6.3.27.880 NetType/WIFI Language/zh_CN'
p196
sg16
S'345d1bdd8fa5e50038bb5e9c84817351'
p197
sa(dp198
g2
S'35633'
p199
sg4
S'679'
p200
sg6
S'59c77e87d8295ba4bb23a85022c8369e'
p201
sg8
S'xx973310f0a159232e3556165c3aed2842'
p202
sg10
S'xx5b896e7332cd15a0a1e7ec85569e20e9'
p203
sg12
S'xx7587eb8cfc17383dd27659c25384320d'
p204
sg14
S'Mozilla/5.0 (Linux; Android 5.1; WP-S Build/LMY47D) AppleWebKit/537.36 (KHTML, like Gecko) Version/4.0 Chrome/37.0.0.0 Mobile MQQBrowser/6.8 TBS/036824 Safari/537.36 MicroMessenger/6.3.27.880 NetType/WIFI Language/zh_CN'
p205
sg16
S'345d1bdd8fa5e50038bb5e9c84817351'
p206
sa(dp207
g2
S'35633'
p208
sg4
S'729'
p209
sg6
S'59c77e87d8295ba4bb23a85022c8369e'
p210
sg8
S'xx973310f0a159232e3556165c3aed2842'
p211
sg10
S'xx5b896e7332cd15a0a1e7ec85569e20e9'
p212
sg12
S'xx7587eb8cfc17383dd27659c25384320d'
p213
sg14
S'Mozilla/5.0 (Linux; Android 5.1; WP-S Build/LMY47D) AppleWebKit/537.36 (KHTML, like Gecko) Version/4.0 Chrome/37.0.0.0 Mobile MQQBrowser/6.8 TBS/036824 Safari/537.36 MicroMessenger/6.3.27.880 NetType/WIFI Language/zh_CN'
p214
sg16
S'345d1bdd8fa5e50038bb5e9c84817351'
p215
sa(dp216
g2
S'35633'
p217
sg4
S'919'
p218
sg6
S'59c77e87d8295ba4bb23a85022c8369e'
p219
sg8
S'xx973310f0a159232e3556165c3aed2842'
p220
sg10
S'xx5b896e7332cd15a0a1e7ec85569e20e9'
p221
sg12
S'xx7587eb8cfc17383dd27659c25384320d'
p222
sg14
S'Mozilla/5.0 (Linux; Android 5.1; WP-S Build/LMY47D) AppleWebKit/537.36 (KHTML, like Gecko) Version/4.0 Chrome/37.0.0.0 Mobile MQQBrowser/6.8 TBS/036824 Safari/537.36 MicroMessenger/6.3.27.880 NetType/WIFI Language/zh_CN'
p223
sg16
S'345d1bdd8fa5e50038bb5e9c84817351'
p224
sa(dp225
g2
S'35633'
p226
sg4
S'954'
p227
sg6
S'59c77e87d8295ba4bb23a85022c8369e'
p228
sg8
S'xx973310f0a159232e3556165c3aed2842'
p229
sg10
S'xx5b896e7332cd15a0a1e7ec85569e20e9'
p230
sg12
S'xx7587eb8cfc17383dd27659c25384320d'
p231
sg14
S'Mozilla/5.0 (Linux; Android 5.1; WP-S Build/LMY47D) AppleWebKit/537.36 (KHTML, like Gecko) Version/4.0 Chrome/37.0.0.0 Mobile MQQBrowser/6.8 TBS/036824 Safari/537.36 MicroMessenger/6.3.27.880 NetType/WIFI Language/zh_CN'
p232
sg16
S'345d1bdd8fa5e50038bb5e9c84817351'
p233
sa(dp234
g2
S'35633'
p235
sg4
S'1077'
p236
sg6
S'59c77e87d8295ba4bb23a85022c8369e'
p237
sg8
S'xx973310f0a159232e3556165c3aed2842'
p238
sg10
S'xx5b896e7332cd15a0a1e7ec85569e20e9'
p239
sg12
S'xx7587eb8cfc17383dd27659c25384320d'
p240
sg14
S'Mozilla/5.0 (Linux; Android 5.1; WP-S Build/LMY47D) AppleWebKit/537.36 (KHTML, like Gecko) Version/4.0 Chrome/37.0.0.0 Mobile MQQBrowser/6.8 TBS/036824 Safari/537.36 MicroMessenger/6.3.27.880 NetType/WIFI Language/zh_CN'
p241
sg16
S'345d1bdd8fa5e50038bb5e9c84817351'
p242
sa(dp243
g2
S'35633'
p244
sg4
S'1136'
p245
sg6
S'59c77e87d8295ba4bb23a85022c8369e'
p246
sg8
S'xx973310f0a159232e3556165c3aed2842'
p247
sg10
S'xx5b896e7332cd15a0a1e7ec85569e20e9'
p248
sg12
S'xx7587eb8cfc17383dd27659c25384320d'
p249
sg14
S'Mozilla/5.0 (Linux; Android 5.1; WP-S Build/LMY47D) AppleWebKit/537.36 (KHTML, like Gecko) Version/4.0 Chrome/37.0.0.0 Mobile MQQBrowser/6.8 TBS/036824 Safari/537.36 MicroMessenger/6.3.27.880 NetType/WIFI Language/zh_CN'
p250
sg16
S'345d1bdd8fa5e50038bb5e9c84817351'
p251
sa(dp252
g2
S'35633'
p253
sg4
S'1156'
p254
sg6
S'59c77e87d8295ba4bb23a85022c8369e'
p255
sg8
S'xx973310f0a159232e3556165c3aed2842'
p256
sg10
S'xx5b896e7332cd15a0a1e7ec85569e20e9'
p257
sg12
S'xx7587eb8cfc17383dd27659c25384320d'
p258
sg14
S'Mozilla/5.0 (Linux; Android 5.1; WP-S Build/LMY47D) AppleWebKit/537.36 (KHTML, like Gecko) Version/4.0 Chrome/37.0.0.0 Mobile MQQBrowser/6.8 TBS/036824 Safari/537.36 MicroMessenger/6.3.27.880 NetType/WIFI Language/zh_CN'
p259
sg16
S'345d1bdd8fa5e50038bb5e9c84817351'
p260
sa(dp261
g2
S'35633'
p262
sg4
S'1174'
p263
sg6
S'59c77e87d8295ba4bb23a85022c8369e'
p264
sg8
S'xx973310f0a159232e3556165c3aed2842'
p265
sg10
S'xx5b896e7332cd15a0a1e7ec85569e20e9'
p266
sg12
S'xx7587eb8cfc17383dd27659c25384320d'
p267
sg14
S'Mozilla/5.0 (Linux; Android 5.1; WP-S Build/LMY47D) AppleWebKit/537.36 (KHTML, like Gecko) Version/4.0 Chrome/37.0.0.0 Mobile MQQBrowser/6.8 TBS/036824 Safari/537.36 MicroMessenger/6.3.27.880 NetType/WIFI Language/zh_CN'
p268
sg16
S'345d1bdd8fa5e50038bb5e9c84817351'
p269
sa(dp270
g2
S'35633'
p271
sg4
S'1232'
p272
sg6
S'59c77e87d8295ba4bb23a85022c8369e'
p273
sg8
S'xx973310f0a159232e3556165c3aed2842'
p274
sg10
S'xx5b896e7332cd15a0a1e7ec85569e20e9'
p275
sg12
S'xx7587eb8cfc17383dd27659c25384320d'
p276
sg14
S'Mozilla/5.0 (Linux; Android 5.1; WP-S Build/LMY47D) AppleWebKit/537.36 (KHTML, like Gecko) Version/4.0 Chrome/37.0.0.0 Mobile MQQBrowser/6.8 TBS/036824 Safari/537.36 MicroMessenger/6.3.27.880 NetType/WIFI Language/zh_CN'
p277
sg16
S'345d1bdd8fa5e50038bb5e9c84817351'
p278
sa(dp279
g2
S'35633'
p280
sg4
S'1271'
p281
sg6
S'59c77e87d8295ba4bb23a85022c8369e'
p282
sg8
S'xx973310f0a159232e3556165c3aed2842'
p283
sg10
S'xx5b896e7332cd15a0a1e7ec85569e20e9'
p284
sg12
S'xx7587eb8cfc17383dd27659c25384320d'
p285
sg14
S'Mozilla/5.0 (Linux; Android 5.1; WP-S Build/LMY47D) AppleWebKit/537.36 (KHTML, like Gecko) Version/4.0 Chrome/37.0.0.0 Mobile MQQBrowser/6.8 TBS/036824 Safari/537.36 MicroMessenger/6.3.27.880 NetType/WIFI Language/zh_CN'
p286
sg16
S'345d1bdd8fa5e50038bb5e9c84817351'
p287
sa(dp288
g2
S'35633'
p289
sg4
S'1322'
p290
sg6
S'59c77e87d8295ba4bb23a85022c8369e'
p291
sg8
S'xx973310f0a159232e3556165c3aed2842'
p292
sg10
S'xx5b896e7332cd15a0a1e7ec85569e20e9'
p293
sg12
S'xx7587eb8cfc17383dd27659c25384320d'
p294
sg14
S'Mozilla/5.0 (Linux; Android 5.1; WP-S Build/LMY47D) AppleWebKit/537.36 (KHTML, like Gecko) Version/4.0 Chrome/37.0.0.0 Mobile MQQBrowser/6.8 TBS/036824 Safari/537.36 MicroMessenger/6.3.27.880 NetType/WIFI Language/zh_CN'
p295
sg16
S'345d1bdd8fa5e50038bb5e9c84817351'
p296
sa(dp297
g2
S'35633'
p298
sg4
S'1403'
p299
sg6
S'59c77e87d8295ba4bb23a85022c8369e'
p300
sg8
S'xx973310f0a159232e3556165c3aed2842'
p301
sg10
S'xx5b896e7332cd15a0a1e7ec85569e20e9'
p302
sg12
S'xx7587eb8cfc17383dd27659c25384320d'
p303
sg14
S'Mozilla/5.0 (Linux; Android 5.1; WP-S Build/LMY47D) AppleWebKit/537.36 (KHTML, like Gecko) Version/4.0 Chrome/37.0.0.0 Mobile MQQBrowser/6.8 TBS/036824 Safari/537.36 MicroMessenger/6.3.27.880 NetType/WIFI Language/zh_CN'
p304
sg16
S'345d1bdd8fa5e50038bb5e9c84817351'
p305
sa(dp306
g2
S'35633'
p307
sg4
S'1521'
p308
sg6
S'59c77e87d8295ba4bb23a85022c8369e'
p309
sg8
S'xx973310f0a159232e3556165c3aed2842'
p310
sg10
S'xx5b896e7332cd15a0a1e7ec85569e20e9'
p311
sg12
S'xx7587eb8cfc17383dd27659c25384320d'
p312
sg14
S'Mozilla/5.0 (Linux; Android 5.1; WP-S Build/LMY47D) AppleWebKit/537.36 (KHTML, like Gecko) Version/4.0 Chrome/37.0.0.0 Mobile MQQBrowser/6.8 TBS/036824 Safari/537.36 MicroMessenger/6.3.27.880 NetType/WIFI Language/zh_CN'
p313
sg16
S'345d1bdd8fa5e50038bb5e9c84817351'
p314
sa(dp315
g2
S'35633'
p316
sg4
S'1527'
p317
sg6
S'59c77e87d8295ba4bb23a85022c8369e'
p318
sg8
S'xx973310f0a159232e3556165c3aed2842'
p319
sg10
S'xx5b896e7332cd15a0a1e7ec85569e20e9'
p320
sg12
S'xx7587eb8cfc17383dd27659c25384320d'
p321
sg14
S'Mozilla/5.0 (Linux; Android 5.1; WP-S Build/LMY47D) AppleWebKit/537.36 (KHTML, like Gecko) Version/4.0 Chrome/37.0.0.0 Mobile MQQBrowser/6.8 TBS/036824 Safari/537.36 MicroMessenger/6.3.27.880 NetType/WIFI Language/zh_CN'
p322
sg16
S'345d1bdd8fa5e50038bb5e9c84817351'
p323
sa(dp324
g2
S'35633'
p325
sg4
S'1556'
p326
sg6
S'59c77e87d8295ba4bb23a85022c8369e'
p327
sg8
S'xx2882f17e42af9459a07384bc6ea5c59f'
p328
sg10
S'xx5b896e7332cd15a0a1e7ec85569e20e9'
p329
sg12
S'xx7587eb8cfc17383dd27659c25384320d'
p330
sg14
S'Mozilla/5.0 (Linux; Android 5.1; WP-S Build/LMY47D) AppleWebKit/537.36 (KHTML, like Gecko) Version/4.0 Chrome/37.0.0.0 Mobile MQQBrowser/6.8 TBS/036869 Safari/537.36 MicroMessenger/6.3.27.880 NetType/WIFI Language/zh_CN'
p331
sg16
S'4184e45afe922f326c432dcf23ba576f'
p332
sa(dp333
g2
S'35633'
p334
sg4
S'1574'
p335
sg6
S'59c77e87d8295ba4bb23a85022c8369e'
p336
sg8
S'xx2882f17e42af9459a07384bc6ea5c59f'
p337
sg10
S'xx5b896e7332cd15a0a1e7ec85569e20e9'
p338
sg12
S'xx7587eb8cfc17383dd27659c25384320d'
p339
sg14
S'Mozilla/5.0 (Linux; Android 5.1; WP-S Build/LMY47D) AppleWebKit/537.36 (KHTML, like Gecko) Version/4.0 Chrome/37.0.0.0 Mobile MQQBrowser/6.8 TBS/036869 Safari/537.36 MicroMessenger/6.3.27.880 NetType/WIFI Language/zh_CN'
p340
sg16
S'4184e45afe922f326c432dcf23ba576f'
p341
sa(dp342
g2
S'35633'
p343
sg4
S'1588'
p344
sg6
S'59c77e87d8295ba4bb23a85022c8369e'
p345
sg8
S'xx2882f17e42af9459a07384bc6ea5c59f'
p346
sg10
S'xx5b896e7332cd15a0a1e7ec85569e20e9'
p347
sg12
S'xx7587eb8cfc17383dd27659c25384320d'
p348
sg14
S'Mozilla/5.0 (Linux; Android 5.1; WP-S Build/LMY47D) AppleWebKit/537.36 (KHTML, like Gecko) Version/4.0 Chrome/37.0.0.0 Mobile MQQBrowser/6.8 TBS/036869 Safari/537.36 MicroMessenger/6.3.27.880 NetType/WIFI Language/zh_CN'
p349
sg16
S'4184e45afe922f326c432dcf23ba576f'
p350
sa.