(lp0
(dp1
S'user_id'
p2
S'30798'
p3
sS'data_id'
p4
S'3582'
p5
sS'ip'
p6
S'842ea3075d8b981191eb68aca1b060a9'
p7
sS'phone_B'
p8
S'xx1aa4314e9b72d1df4838db2d56163134'
p9
sS'phone_C'
p10
S'xxc917ffb5ac6e4ff022887d32d104fbb9'
p11
sS'phone_A'
p12
S'xx78f434f7a1fb4de6758074d9aa10eebb'
p13
sS'user_agent'
p14
S'Mozilla/5.0 (Linux; Android 4.4.4; CHM-CL00 Build/CHM-CL00) AppleWebKit/537.36 (KHTML, like Gecko) Version/4.0 Chrome/37.0.0.0 Mobile MQQBrowser/6.8 TBS/036865 Safari/537.36 MicroMessenger/6.3.27.880 NetType/ctlte Language/zh_CN'
p15
sS'ua'
p16
S'fe1ec167324d714e353d99fe44f3b731'
p17
sa(dp18
g2
S'30798'
p19
sg4
S'3594'
p20
sg6
S'842ea3075d8b981191eb68aca1b060a9'
p21
sg8
S'xx1aa4314e9b72d1df4838db2d56163134'
p22
sg10
S'xxc917ffb5ac6e4ff022887d32d104fbb9'
p23
sg12
S'xx78f434f7a1fb4de6758074d9aa10eebb'
p24
sg14
S'Mozilla/5.0 (Linux; Android 4.4.4; CHM-CL00 Build/CHM-CL00) AppleWebKit/537.36 (KHTML, like Gecko) Version/4.0 Chrome/37.0.0.0 Mobile MQQBrowser/6.8 TBS/036865 Safari/537.36 MicroMessenger/6.3.27.880 NetType/ctlte Language/zh_CN'
p25
sg16
S'fe1ec167324d714e353d99fe44f3b731'
p26
sa(dp27
g2
S'30798'
p28
sg4
S'3608'
p29
sg6
S'842ea3075d8b981191eb68aca1b060a9'
p30
sg8
S'xx1aa4314e9b72d1df4838db2d56163134'
p31
sg10
S'xxc917ffb5ac6e4ff022887d32d104fbb9'
p32
sg12
S'xx78f434f7a1fb4de6758074d9aa10eebb'
p33
sg14
S'Mozilla/5.0 (Linux; Android 4.4.4; CHM-CL00 Build/CHM-CL00) AppleWebKit/537.36 (KHTML, like Gecko) Version/4.0 Chrome/37.0.0.0 Mobile MQQBrowser/6.8 TBS/036865 Safari/537.36 MicroMessenger/6.3.27.880 NetType/ctlte Language/zh_CN'
p34
sg16
S'fe1ec167324d714e353d99fe44f3b731'
p35
sa.