(lp0
(dp1
S'user_id'
p2
S'45646'
p3
sS'data_id'
p4
S'6436'
p5
sS'ip'
p6
S'96d5b16fa5fa6f4d3dc0533f45e09007'
p7
sS'phone_B'
p8
S'xx133587efa45d023bbc0df8575dc9a03b'
p9
sS'phone_C'
p10
S'xxaa154c40a54c1be787943a3afe1b43e0'
p11
sS'phone_A'
p12
S'xx787c997a3b1d542ff2d00a89ae4741f3'
p13
sS'user_agent'
p14
S'Mozilla/5.0 (Linux; Android 6.0.1; ZTE A2015 Build/MMB29M) AppleWebKit/537.36 (KHTML, like Gecko) Version/4.0 Chrome/37.0.0.0 Mobile MQQBrowser/6.8 TBS/036849 Safari/537.36 MicroMessenger/6.3.27.880 NetType/3gnet Language/zh_CN'
p15
sS'ua'
p16
S'74c7271c55f1997272238c01bd6fef01'
p17
sa(dp18
g2
S'45646'
p19
sg4
S'6452'
p20
sg6
S'96d5b16fa5fa6f4d3dc0533f45e09007'
p21
sg8
S'xx133587efa45d023bbc0df8575dc9a03b'
p22
sg10
S'xxaa154c40a54c1be787943a3afe1b43e0'
p23
sg12
S'xx787c997a3b1d542ff2d00a89ae4741f3'
p24
sg14
S'Mozilla/5.0 (Linux; Android 6.0.1; ZTE A2015 Build/MMB29M) AppleWebKit/537.36 (KHTML, like Gecko) Version/4.0 Chrome/37.0.0.0 Mobile MQQBrowser/6.8 TBS/036849 Safari/537.36 MicroMessenger/6.3.27.880 NetType/3gnet Language/zh_CN'
p25
sg16
S'74c7271c55f1997272238c01bd6fef01'
p26
sa(dp27
g2
S'45646'
p28
sg4
S'6468'
p29
sg6
S'96d5b16fa5fa6f4d3dc0533f45e09007'
p30
sg8
S'xx133587efa45d023bbc0df8575dc9a03b'
p31
sg10
S'xxaa154c40a54c1be787943a3afe1b43e0'
p32
sg12
S'xx787c997a3b1d542ff2d00a89ae4741f3'
p33
sg14
S'Mozilla/5.0 (Linux; Android 6.0.1; ZTE A2015 Build/MMB29M) AppleWebKit/537.36 (KHTML, like Gecko) Version/4.0 Chrome/37.0.0.0 Mobile MQQBrowser/6.8 TBS/036849 Safari/537.36 MicroMessenger/6.3.27.880 NetType/3gnet Language/zh_CN'
p34
sg16
S'74c7271c55f1997272238c01bd6fef01'
p35
sa(dp36
g2
S'45646'
p37
sg4
S'6482'
p38
sg6
S'96d5b16fa5fa6f4d3dc0533f45e09007'
p39
sg8
S'xx133587efa45d023bbc0df8575dc9a03b'
p40
sg10
S'xxaa154c40a54c1be787943a3afe1b43e0'
p41
sg12
S'xx787c997a3b1d542ff2d00a89ae4741f3'
p42
sg14
S'Mozilla/5.0 (Linux; Android 6.0.1; ZTE A2015 Build/MMB29M) AppleWebKit/537.36 (KHTML, like Gecko) Version/4.0 Chrome/37.0.0.0 Mobile MQQBrowser/6.8 TBS/036849 Safari/537.36 MicroMessenger/6.3.27.880 NetType/3gnet Language/zh_CN'
p43
sg16
S'74c7271c55f1997272238c01bd6fef01'
p44
sa(dp45
g2
S'45646'
p46
sg4
S'6494'
p47
sg6
S'96d5b16fa5fa6f4d3dc0533f45e09007'
p48
sg8
S'xx133587efa45d023bbc0df8575dc9a03b'
p49
sg10
S'xxaa154c40a54c1be787943a3afe1b43e0'
p50
sg12
S'xx787c997a3b1d542ff2d00a89ae4741f3'
p51
sg14
S'Mozilla/5.0 (Linux; Android 6.0.1; ZTE A2015 Build/MMB29M) AppleWebKit/537.36 (KHTML, like Gecko) Version/4.0 Chrome/37.0.0.0 Mobile MQQBrowser/6.8 TBS/036849 Safari/537.36 MicroMessenger/6.3.27.880 NetType/3gnet Language/zh_CN'
p52
sg16
S'74c7271c55f1997272238c01bd6fef01'
p53
sa.