(lp0
(dp1
S'user_id'
p2
S'49754'
p3
sS'data_id'
p4
S'1650'
p5
sS'ip'
p6
S'fac86e03fb23a5dfa6ff30e821ebd4fd'
p7
sS'phone_B'
p8
S'xxb80ab6cec793a53c673759e01f1dc9c2'
p9
sS'phone_C'
p10
S'xxc92b030bf87f6cfcadb4139eda2373d7'
p11
sS'phone_A'
p12
S'xx78a293883fa910b8dff4d7dd70188fbd'
p13
sS'user_agent'
p14
S'Mozilla/5.0 (Linux; Android 5.0.2; vivo Y51A Build/LRX22G) AppleWebKit/537.36 (KHTML, like Gecko) Version/4.0 Chrome/37.0.0.0 Mobile MQQBrowser/6.8 TBS/036849 Safari/537.36 MicroMessenger/6.3.27.880 NetType/WIFI Language/zh_CN'
p15
sS'ua'
p16
S'e416abb360d10fbcfde2c45cf3971bc7'
p17
sa(dp18
g2
S'49754'
p19
sg4
S'1665'
p20
sg6
S'fac86e03fb23a5dfa6ff30e821ebd4fd'
p21
sg8
S'xxb80ab6cec793a53c673759e01f1dc9c2'
p22
sg10
S'xxc92b030bf87f6cfcadb4139eda2373d7'
p23
sg12
S'xx78a293883fa910b8dff4d7dd70188fbd'
p24
sg14
S'Mozilla/5.0 (Linux; Android 5.0.2; vivo Y51A Build/LRX22G) AppleWebKit/537.36 (KHTML, like Gecko) Version/4.0 Chrome/37.0.0.0 Mobile MQQBrowser/6.8 TBS/036849 Safari/537.36 MicroMessenger/6.3.27.880 NetType/WIFI Language/zh_CN'
p25
sg16
S'e416abb360d10fbcfde2c45cf3971bc7'
p26
sa(dp27
g2
S'49754'
p28
sg4
S'1681'
p29
sg6
S'fac86e03fb23a5dfa6ff30e821ebd4fd'
p30
sg8
S'xxb80ab6cec793a53c673759e01f1dc9c2'
p31
sg10
S'xxc92b030bf87f6cfcadb4139eda2373d7'
p32
sg12
S'xx78a293883fa910b8dff4d7dd70188fbd'
p33
sg14
S'Mozilla/5.0 (Linux; Android 5.0.2; vivo Y51A Build/LRX22G) AppleWebKit/537.36 (KHTML, like Gecko) Version/4.0 Chrome/37.0.0.0 Mobile MQQBrowser/6.8 TBS/036849 Safari/537.36 MicroMessenger/6.3.27.880 NetType/WIFI Language/zh_CN'
p34
sg16
S'e416abb360d10fbcfde2c45cf3971bc7'
p35
sa(dp36
g2
S'31438'
p37
sg4
S'3105'
p38
sg6
S'008f05ac96bad95da1f6d2e57dda5583'
p39
sg8
S'xxb80ab6cec793a53c673759e01f1dc9c2'
p40
sg10
S'xxc92b030bf87f6cfcadb4139eda2373d7'
p41
sg12
S'xx78a293883fa910b8dff4d7dd70188fbd'
p42
sg14
S'Mozilla/5.0 (Linux; Android 5.0.2; vivo Y51A Build/LRX22G) AppleWebKit/537.36 (KHTML, like Gecko) Version/4.0 Chrome/37.0.0.0 Mobile MQQBrowser/6.8 TBS/036849 Safari/537.36 MicroMessenger/6.3.27.880 NetType/WIFI Language/zh_CN'
p43
sg16
S'e416abb360d10fbcfde2c45cf3971bc7'
p44
sa(dp45
g2
S'31247'
p46
sg4
S'7378'
p47
sg6
S'269ada9eb9f889abb8b8833f5a709933'
p48
sg8
S'xx7b9d61c5ff0e0c516b688e93f496e7e3'
p49
sg10
S'xxc92b030bf87f6cfcadb4139eda2373d7'
p50
sg12
S'xx78a293883fa910b8dff4d7dd70188fbd'
p51
sg14
S'Mozilla/5.0 (Linux; Android 5.0.2; vivo Y51A Build/LRX22G) AppleWebKit/537.36 (KHTML, like Gecko) Version/4.0 Chrome/37.0.0.0 Mobile MQQBrowser/6.8 TBS/036824 Safari/537.36 MicroMessenger/6.3.27.880 NetType/NON_NETWORK Language/zh_CN'
p52
sg16
S'0c1c2799ff4378d42322d92c6dd91434'
p53
sa.