(lp0
(dp1
S'user_id'
p2
S'33359'
p3
sS'data_id'
p4
S'7137'
p5
sS'ip'
p6
S'00ef6d205714a8e18f771e98914369a4'
p7
sS'phone_B'
p8
S'xx81dc924936c155f6348c544d40b39ef9'
p9
sS'phone_C'
p10
S'xxf42497b0852b7a2c5a066bd6aa05903f'
p11
sS'phone_A'
p12
S'xx7950e3e5ddad2911199b5ab5a8bd062a'
p13
sS'user_agent'
p14
S'Mozilla/5.0 (Linux; Android 5.1.1; SM-N920V Build/LMY47X) AppleWebKit/537.36 (KHTML, like Gecko) Version/4.0 Chrome/37.0.0.0 Mobile MQQBrowser/6.8 TBS/036849 Safari/537.36 MicroMessenger/6.3.27.880 NetType/3gnet Language/zh_CN'
p15
sS'ua'
p16
S'024bc9511b1fade48dc333e6acb4d3a2'
p17
sa.