(lp0
(dp1
S'user_id'
p2
S'47508'
p3
sS'data_id'
p4
S'426'
p5
sS'ip'
p6
S'f70139743a8dd57020b2f4ae44100c77'
p7
sS'phone_B'
p8
S'xxe66a79e4abf0ee0c26819cc1c80930c5'
p9
sS'phone_C'
p10
S'xx5fd173af4f48478e3845007936497554'
p11
sS'phone_A'
p12
S'xx7a21f23fcff34b4c46bc339b8edfd2de'
p13
sS'user_agent'
p14
S'Mozilla/5.0 (Linux; Android 5.1.1; MX4 Pro Build/LMY48W) AppleWebKit/537.36 (KHTML, like Gecko) Version/4.0 Chrome/37.0.0.0 Mobile MQQBrowser/6.8 TBS/036849 Safari/537.36 MicroMessenger/6.3.27.880 NetType/WIFI Language/zh_CN'
p15
sS'ua'
p16
S'f5a90813b2c103c605c3361a924d6413'
p17
sa(dp18
g2
S'47508'
p19
sg4
S'434'
p20
sg6
S'f70139743a8dd57020b2f4ae44100c77'
p21
sg8
S'xxe66a79e4abf0ee0c26819cc1c80930c5'
p22
sg10
S'xx5fd173af4f48478e3845007936497554'
p23
sg12
S'xx7a21f23fcff34b4c46bc339b8edfd2de'
p24
sg14
S'Mozilla/5.0 (Linux; Android 5.1.1; MX4 Pro Build/LMY48W) AppleWebKit/537.36 (KHTML, like Gecko) Version/4.0 Chrome/37.0.0.0 Mobile MQQBrowser/6.8 TBS/036849 Safari/537.36 MicroMessenger/6.3.27.880 NetType/WIFI Language/zh_CN'
p25
sg16
S'f5a90813b2c103c605c3361a924d6413'
p26
sa(dp27
g2
S'47508'
p28
sg4
S'1273'
p29
sg6
S'f70139743a8dd57020b2f4ae44100c77'
p30
sg8
S'xxe66a79e4abf0ee0c26819cc1c80930c5'
p31
sg10
S'xx5fd173af4f48478e3845007936497554'
p32
sg12
S'xx7a21f23fcff34b4c46bc339b8edfd2de'
p33
sg14
S'Mozilla/5.0 (Linux; Android 5.1.1; MX4 Pro Build/LMY48W) AppleWebKit/537.36 (KHTML, like Gecko) Version/4.0 Chrome/37.0.0.0 Mobile MQQBrowser/6.8 TBS/036849 Safari/537.36 MicroMessenger/6.3.27.880 NetType/WIFI Language/zh_CN'
p34
sg16
S'f5a90813b2c103c605c3361a924d6413'
p35
sa(dp36
g2
S'47508'
p37
sg4
S'1288'
p38
sg6
S'f70139743a8dd57020b2f4ae44100c77'
p39
sg8
S'xxe66a79e4abf0ee0c26819cc1c80930c5'
p40
sg10
S'xx5fd173af4f48478e3845007936497554'
p41
sg12
S'xx7a21f23fcff34b4c46bc339b8edfd2de'
p42
sg14
S'Mozilla/5.0 (Linux; Android 5.1.1; MX4 Pro Build/LMY48W) AppleWebKit/537.36 (KHTML, like Gecko) Version/4.0 Chrome/37.0.0.0 Mobile MQQBrowser/6.8 TBS/036849 Safari/537.36 MicroMessenger/6.3.27.880 NetType/WIFI Language/zh_CN'
p43
sg16
S'f5a90813b2c103c605c3361a924d6413'
p44
sa(dp45
g2
S'47508'
p46
sg4
S'1866'
p47
sg6
S'f70139743a8dd57020b2f4ae44100c77'
p48
sg8
S'xxe66a79e4abf0ee0c26819cc1c80930c5'
p49
sg10
S'xx5fd173af4f48478e3845007936497554'
p50
sg12
S'xx7a21f23fcff34b4c46bc339b8edfd2de'
p51
sg14
S'Mozilla/5.0 (Linux; Android 5.1.1; MX4 Pro Build/LMY48W) AppleWebKit/537.36 (KHTML, like Gecko) Version/4.0 Chrome/37.0.0.0 Mobile MQQBrowser/6.8 TBS/036849 Safari/537.36 MicroMessenger/6.3.27.880 NetType/WIFI Language/zh_CN'
p52
sg16
S'f5a90813b2c103c605c3361a924d6413'
p53
sa(dp54
g2
S'47508'
p55
sg4
S'1881'
p56
sg6
S'f70139743a8dd57020b2f4ae44100c77'
p57
sg8
S'xxe66a79e4abf0ee0c26819cc1c80930c5'
p58
sg10
S'xx5fd173af4f48478e3845007936497554'
p59
sg12
S'xx7a21f23fcff34b4c46bc339b8edfd2de'
p60
sg14
S'Mozilla/5.0 (Linux; Android 5.1.1; MX4 Pro Build/LMY48W) AppleWebKit/537.36 (KHTML, like Gecko) Version/4.0 Chrome/37.0.0.0 Mobile MQQBrowser/6.8 TBS/036849 Safari/537.36 MicroMessenger/6.3.27.880 NetType/WIFI Language/zh_CN'
p61
sg16
S'f5a90813b2c103c605c3361a924d6413'
p62
sa(dp63
g2
S'47508'
p64
sg4
S'2539'
p65
sg6
S'f70139743a8dd57020b2f4ae44100c77'
p66
sg8
S'xxe66a79e4abf0ee0c26819cc1c80930c5'
p67
sg10
S'xx5fd173af4f48478e3845007936497554'
p68
sg12
S'xx7a21f23fcff34b4c46bc339b8edfd2de'
p69
sg14
S'Mozilla/5.0 (Linux; Android 5.1.1; MX4 Pro Build/LMY48W) AppleWebKit/537.36 (KHTML, like Gecko) Version/4.0 Chrome/37.0.0.0 Mobile MQQBrowser/6.8 TBS/036849 Safari/537.36 MicroMessenger/6.3.27.880 NetType/WIFI Language/zh_CN'
p70
sg16
S'f5a90813b2c103c605c3361a924d6413'
p71
sa(dp72
g2
S'47508'
p73
sg4
S'2565'
p74
sg6
S'f70139743a8dd57020b2f4ae44100c77'
p75
sg8
S'xxe66a79e4abf0ee0c26819cc1c80930c5'
p76
sg10
S'xx5fd173af4f48478e3845007936497554'
p77
sg12
S'xx7a21f23fcff34b4c46bc339b8edfd2de'
p78
sg14
S'Mozilla/5.0 (Linux; Android 5.1.1; MX4 Pro Build/LMY48W) AppleWebKit/537.36 (KHTML, like Gecko) Version/4.0 Chrome/37.0.0.0 Mobile MQQBrowser/6.8 TBS/036849 Safari/537.36 MicroMessenger/6.3.27.880 NetType/WIFI Language/zh_CN'
p79
sg16
S'f5a90813b2c103c605c3361a924d6413'
p80
sa(dp81
g2
S'47508'
p82
sg4
S'2931'
p83
sg6
S'f70139743a8dd57020b2f4ae44100c77'
p84
sg8
S'xxe66a79e4abf0ee0c26819cc1c80930c5'
p85
sg10
S'xx5fd173af4f48478e3845007936497554'
p86
sg12
S'xx7a21f23fcff34b4c46bc339b8edfd2de'
p87
sg14
S'Mozilla/5.0 (Linux; Android 5.1.1; MX4 Pro Build/LMY48W) AppleWebKit/537.36 (KHTML, like Gecko) Version/4.0 Chrome/37.0.0.0 Mobile MQQBrowser/6.8 TBS/036849 Safari/537.36 MicroMessenger/6.3.27.880 NetType/WIFI Language/zh_CN'
p88
sg16
S'f5a90813b2c103c605c3361a924d6413'
p89
sa(dp90
g2
S'19537'
p91
sg4
S'3807'
p92
sg6
S'684961b71f8a8a80bb5330882cff1536'
p93
sg8
S'xxebe50f1fdbdbc231d056b98c3ec095e5'
p94
sg10
S'xx5fd173af4f48478e3845007936497554'
p95
sg12
S'xx7a21f23fcff34b4c46bc339b8edfd2de'
p96
sg14
S'Mozilla/5.0 (Linux; Android 5.1.1; MX4 Pro Build/LMY48W) AppleWebKit/537.36 (KHTML, like Gecko) Version/4.0 Chrome/37.0.0.0 Mobile MQQBrowser/6.8 TBS/036849 Safari/537.36 MicroMessenger/6.3.27.880 NetType/cmnet Language/zh_CN'
p97
sg16
S'3529585978a45a56f1fe03a92600dcdd'
p98
sa(dp99
g2
S'19537'
p100
sg4
S'3825'
p101
sg6
S'684961b71f8a8a80bb5330882cff1536'
p102
sg8
S'xxebe50f1fdbdbc231d056b98c3ec095e5'
p103
sg10
S'xx5fd173af4f48478e3845007936497554'
p104
sg12
S'xx7a21f23fcff34b4c46bc339b8edfd2de'
p105
sg14
S'Mozilla/5.0 (Linux; Android 5.1.1; MX4 Pro Build/LMY48W) AppleWebKit/537.36 (KHTML, like Gecko) Version/4.0 Chrome/37.0.0.0 Mobile MQQBrowser/6.8 TBS/036849 Safari/537.36 MicroMessenger/6.3.27.880 NetType/cmnet Language/zh_CN'
p106
sg16
S'3529585978a45a56f1fe03a92600dcdd'
p107
sa(dp108
g2
S'19537'
p109
sg4
S'3848'
p110
sg6
S'684961b71f8a8a80bb5330882cff1536'
p111
sg8
S'xxebe50f1fdbdbc231d056b98c3ec095e5'
p112
sg10
S'xx5fd173af4f48478e3845007936497554'
p113
sg12
S'xx7a21f23fcff34b4c46bc339b8edfd2de'
p114
sg14
S'Mozilla/5.0 (Linux; Android 5.1.1; MX4 Pro Build/LMY48W) AppleWebKit/537.36 (KHTML, like Gecko) Version/4.0 Chrome/37.0.0.0 Mobile MQQBrowser/6.8 TBS/036849 Safari/537.36 MicroMessenger/6.3.27.880 NetType/cmnet Language/zh_CN'
p115
sg16
S'3529585978a45a56f1fe03a92600dcdd'
p116
sa(dp117
g2
S'19537'
p118
sg4
S'3881'
p119
sg6
S'684961b71f8a8a80bb5330882cff1536'
p120
sg8
S'xxebe50f1fdbdbc231d056b98c3ec095e5'
p121
sg10
S'xx5fd173af4f48478e3845007936497554'
p122
sg12
S'xx7a21f23fcff34b4c46bc339b8edfd2de'
p123
sg14
S'Mozilla/5.0 (Linux; Android 5.1.1; MX4 Pro Build/LMY48W) AppleWebKit/537.36 (KHTML, like Gecko) Version/4.0 Chrome/37.0.0.0 Mobile MQQBrowser/6.8 TBS/036849 Safari/537.36 MicroMessenger/6.3.27.880 NetType/cmnet Language/zh_CN'
p124
sg16
S'3529585978a45a56f1fe03a92600dcdd'
p125
sa(dp126
g2
S'19537'
p127
sg4
S'3905'
p128
sg6
S'684961b71f8a8a80bb5330882cff1536'
p129
sg8
S'xxebe50f1fdbdbc231d056b98c3ec095e5'
p130
sg10
S'xx5fd173af4f48478e3845007936497554'
p131
sg12
S'xx7a21f23fcff34b4c46bc339b8edfd2de'
p132
sg14
S'Mozilla/5.0 (Linux; Android 5.1.1; MX4 Pro Build/LMY48W) AppleWebKit/537.36 (KHTML, like Gecko) Version/4.0 Chrome/37.0.0.0 Mobile MQQBrowser/6.8 TBS/036849 Safari/537.36 MicroMessenger/6.3.27.880 NetType/cmnet Language/zh_CN'
p133
sg16
S'3529585978a45a56f1fe03a92600dcdd'
p134
sa(dp135
g2
S'19537'
p136
sg4
S'3925'
p137
sg6
S'684961b71f8a8a80bb5330882cff1536'
p138
sg8
S'xxebe50f1fdbdbc231d056b98c3ec095e5'
p139
sg10
S'xx5fd173af4f48478e3845007936497554'
p140
sg12
S'xx7a21f23fcff34b4c46bc339b8edfd2de'
p141
sg14
S'Mozilla/5.0 (Linux; Android 5.1.1; MX4 Pro Build/LMY48W) AppleWebKit/537.36 (KHTML, like Gecko) Version/4.0 Chrome/37.0.0.0 Mobile MQQBrowser/6.8 TBS/036849 Safari/537.36 MicroMessenger/6.3.27.880 NetType/cmnet Language/zh_CN'
p142
sg16
S'3529585978a45a56f1fe03a92600dcdd'
p143
sa(dp144
g2
S'19537'
p145
sg4
S'3943'
p146
sg6
S'684961b71f8a8a80bb5330882cff1536'
p147
sg8
S'xxebe50f1fdbdbc231d056b98c3ec095e5'
p148
sg10
S'xx5fd173af4f48478e3845007936497554'
p149
sg12
S'xx7a21f23fcff34b4c46bc339b8edfd2de'
p150
sg14
S'Mozilla/5.0 (Linux; Android 5.1.1; MX4 Pro Build/LMY48W) AppleWebKit/537.36 (KHTML, like Gecko) Version/4.0 Chrome/37.0.0.0 Mobile MQQBrowser/6.8 TBS/036849 Safari/537.36 MicroMessenger/6.3.27.880 NetType/cmnet Language/zh_CN'
p151
sg16
S'3529585978a45a56f1fe03a92600dcdd'
p152
sa(dp153
g2
S'19537'
p154
sg4
S'3964'
p155
sg6
S'684961b71f8a8a80bb5330882cff1536'
p156
sg8
S'xxebe50f1fdbdbc231d056b98c3ec095e5'
p157
sg10
S'xx5fd173af4f48478e3845007936497554'
p158
sg12
S'xx7a21f23fcff34b4c46bc339b8edfd2de'
p159
sg14
S'Mozilla/5.0 (Linux; Android 5.1.1; MX4 Pro Build/LMY48W) AppleWebKit/537.36 (KHTML, like Gecko) Version/4.0 Chrome/37.0.0.0 Mobile MQQBrowser/6.8 TBS/036849 Safari/537.36 MicroMessenger/6.3.27.880 NetType/cmnet Language/zh_CN'
p160
sg16
S'3529585978a45a56f1fe03a92600dcdd'
p161
sa(dp162
g2
S'19537'
p163
sg4
S'3984'
p164
sg6
S'02282188ddf12b499b6a2e17c244996a'
p165
sg8
S'xxebe50f1fdbdbc231d056b98c3ec095e5'
p166
sg10
S'xx5fd173af4f48478e3845007936497554'
p167
sg12
S'xx7a21f23fcff34b4c46bc339b8edfd2de'
p168
sg14
S'Mozilla/5.0 (Linux; Android 5.1.1; MX4 Pro Build/LMY48W) AppleWebKit/537.36 (KHTML, like Gecko) Version/4.0 Chrome/37.0.0.0 Mobile MQQBrowser/6.8 TBS/036849 Safari/537.36 MicroMessenger/6.3.27.880 NetType/cmnet Language/zh_CN'
p169
sg16
S'3529585978a45a56f1fe03a92600dcdd'
p170
sa(dp171
g2
S'19537'
p172
sg4
S'4000'
p173
sg6
S'02282188ddf12b499b6a2e17c244996a'
p174
sg8
S'xxebe50f1fdbdbc231d056b98c3ec095e5'
p175
sg10
S'xx5fd173af4f48478e3845007936497554'
p176
sg12
S'xx7a21f23fcff34b4c46bc339b8edfd2de'
p177
sg14
S'Mozilla/5.0 (Linux; Android 5.1.1; MX4 Pro Build/LMY48W) AppleWebKit/537.36 (KHTML, like Gecko) Version/4.0 Chrome/37.0.0.0 Mobile MQQBrowser/6.8 TBS/036849 Safari/537.36 MicroMessenger/6.3.27.880 NetType/cmnet Language/zh_CN'
p178
sg16
S'3529585978a45a56f1fe03a92600dcdd'
p179
sa(dp180
g2
S'19537'
p181
sg4
S'4018'
p182
sg6
S'02282188ddf12b499b6a2e17c244996a'
p183
sg8
S'xxebe50f1fdbdbc231d056b98c3ec095e5'
p184
sg10
S'xx5fd173af4f48478e3845007936497554'
p185
sg12
S'xx7a21f23fcff34b4c46bc339b8edfd2de'
p186
sg14
S'Mozilla/5.0 (Linux; Android 5.1.1; MX4 Pro Build/LMY48W) AppleWebKit/537.36 (KHTML, like Gecko) Version/4.0 Chrome/37.0.0.0 Mobile MQQBrowser/6.8 TBS/036849 Safari/537.36 MicroMessenger/6.3.27.880 NetType/cmnet Language/zh_CN'
p187
sg16
S'3529585978a45a56f1fe03a92600dcdd'
p188
sa(dp189
g2
S'19537'
p190
sg4
S'4034'
p191
sg6
S'02282188ddf12b499b6a2e17c244996a'
p192
sg8
S'xxebe50f1fdbdbc231d056b98c3ec095e5'
p193
sg10
S'xx5fd173af4f48478e3845007936497554'
p194
sg12
S'xx7a21f23fcff34b4c46bc339b8edfd2de'
p195
sg14
S'Mozilla/5.0 (Linux; Android 5.1.1; MX4 Pro Build/LMY48W) AppleWebKit/537.36 (KHTML, like Gecko) Version/4.0 Chrome/37.0.0.0 Mobile MQQBrowser/6.8 TBS/036849 Safari/537.36 MicroMessenger/6.3.27.880 NetType/cmnet Language/zh_CN'
p196
sg16
S'3529585978a45a56f1fe03a92600dcdd'
p197
sa(dp198
g2
S'19537'
p199
sg4
S'4051'
p200
sg6
S'02282188ddf12b499b6a2e17c244996a'
p201
sg8
S'xxebe50f1fdbdbc231d056b98c3ec095e5'
p202
sg10
S'xx5fd173af4f48478e3845007936497554'
p203
sg12
S'xx7a21f23fcff34b4c46bc339b8edfd2de'
p204
sg14
S'Mozilla/5.0 (Linux; Android 5.1.1; MX4 Pro Build/LMY48W) AppleWebKit/537.36 (KHTML, like Gecko) Version/4.0 Chrome/37.0.0.0 Mobile MQQBrowser/6.8 TBS/036849 Safari/537.36 MicroMessenger/6.3.27.880 NetType/cmnet Language/zh_CN'
p205
sg16
S'3529585978a45a56f1fe03a92600dcdd'
p206
sa(dp207
g2
S'47508'
p208
sg4
S'4056'
p209
sg6
S'f70139743a8dd57020b2f4ae44100c77'
p210
sg8
S'xxe66a79e4abf0ee0c26819cc1c80930c5'
p211
sg10
S'xx5fd173af4f48478e3845007936497554'
p212
sg12
S'xx7a21f23fcff34b4c46bc339b8edfd2de'
p213
sg14
S'Mozilla/5.0 (Linux; Android 5.1.1; MX4 Pro Build/LMY48W) AppleWebKit/537.36 (KHTML, like Gecko) Version/4.0 Chrome/37.0.0.0 Mobile MQQBrowser/6.8 TBS/036849 Safari/537.36 MicroMessenger/6.3.27.880 NetType/WIFI Language/zh_CN'
p214
sg16
S'f5a90813b2c103c605c3361a924d6413'
p215
sa(dp216
g2
S'19537'
p217
sg4
S'4078'
p218
sg6
S'02282188ddf12b499b6a2e17c244996a'
p219
sg8
S'xxebe50f1fdbdbc231d056b98c3ec095e5'
p220
sg10
S'xx5fd173af4f48478e3845007936497554'
p221
sg12
S'xx7a21f23fcff34b4c46bc339b8edfd2de'
p222
sg14
S'Mozilla/5.0 (Linux; Android 5.1.1; MX4 Pro Build/LMY48W) AppleWebKit/537.36 (KHTML, like Gecko) Version/4.0 Chrome/37.0.0.0 Mobile MQQBrowser/6.8 TBS/036849 Safari/537.36 MicroMessenger/6.3.27.880 NetType/cmnet Language/zh_CN'
p223
sg16
S'3529585978a45a56f1fe03a92600dcdd'
p224
sa(dp225
g2
S'47508'
p226
sg4
S'4083'
p227
sg6
S'f70139743a8dd57020b2f4ae44100c77'
p228
sg8
S'xxe66a79e4abf0ee0c26819cc1c80930c5'
p229
sg10
S'xx5fd173af4f48478e3845007936497554'
p230
sg12
S'xx7a21f23fcff34b4c46bc339b8edfd2de'
p231
sg14
S'Mozilla/5.0 (Linux; Android 5.1.1; MX4 Pro Build/LMY48W) AppleWebKit/537.36 (KHTML, like Gecko) Version/4.0 Chrome/37.0.0.0 Mobile MQQBrowser/6.8 TBS/036849 Safari/537.36 MicroMessenger/6.3.27.880 NetType/WIFI Language/zh_CN'
p232
sg16
S'f5a90813b2c103c605c3361a924d6413'
p233
sa(dp234
g2
S'19537'
p235
sg4
S'4105'
p236
sg6
S'02282188ddf12b499b6a2e17c244996a'
p237
sg8
S'xxebe50f1fdbdbc231d056b98c3ec095e5'
p238
sg10
S'xx5fd173af4f48478e3845007936497554'
p239
sg12
S'xx7a21f23fcff34b4c46bc339b8edfd2de'
p240
sg14
S'Mozilla/5.0 (Linux; Android 5.1.1; MX4 Pro Build/LMY48W) AppleWebKit/537.36 (KHTML, like Gecko) Version/4.0 Chrome/37.0.0.0 Mobile MQQBrowser/6.8 TBS/036849 Safari/537.36 MicroMessenger/6.3.27.880 NetType/cmnet Language/zh_CN'
p241
sg16
S'3529585978a45a56f1fe03a92600dcdd'
p242
sa(dp243
g2
S'19537'
p244
sg4
S'4135'
p245
sg6
S'02282188ddf12b499b6a2e17c244996a'
p246
sg8
S'xxebe50f1fdbdbc231d056b98c3ec095e5'
p247
sg10
S'xx5fd173af4f48478e3845007936497554'
p248
sg12
S'xx7a21f23fcff34b4c46bc339b8edfd2de'
p249
sg14
S'Mozilla/5.0 (Linux; Android 5.1.1; MX4 Pro Build/LMY48W) AppleWebKit/537.36 (KHTML, like Gecko) Version/4.0 Chrome/37.0.0.0 Mobile MQQBrowser/6.8 TBS/036849 Safari/537.36 MicroMessenger/6.3.27.880 NetType/cmnet Language/zh_CN'
p250
sg16
S'3529585978a45a56f1fe03a92600dcdd'
p251
sa(dp252
g2
S'19537'
p253
sg4
S'4160'
p254
sg6
S'02282188ddf12b499b6a2e17c244996a'
p255
sg8
S'xxebe50f1fdbdbc231d056b98c3ec095e5'
p256
sg10
S'xx5fd173af4f48478e3845007936497554'
p257
sg12
S'xx7a21f23fcff34b4c46bc339b8edfd2de'
p258
sg14
S'Mozilla/5.0 (Linux; Android 5.1.1; MX4 Pro Build/LMY48W) AppleWebKit/537.36 (KHTML, like Gecko) Version/4.0 Chrome/37.0.0.0 Mobile MQQBrowser/6.8 TBS/036849 Safari/537.36 MicroMessenger/6.3.27.880 NetType/cmnet Language/zh_CN'
p259
sg16
S'3529585978a45a56f1fe03a92600dcdd'
p260
sa(dp261
g2
S'19537'
p262
sg4
S'4177'
p263
sg6
S'02282188ddf12b499b6a2e17c244996a'
p264
sg8
S'xxebe50f1fdbdbc231d056b98c3ec095e5'
p265
sg10
S'xx5fd173af4f48478e3845007936497554'
p266
sg12
S'xx7a21f23fcff34b4c46bc339b8edfd2de'
p267
sg14
S'Mozilla/5.0 (Linux; Android 5.1.1; MX4 Pro Build/LMY48W) AppleWebKit/537.36 (KHTML, like Gecko) Version/4.0 Chrome/37.0.0.0 Mobile MQQBrowser/6.8 TBS/036849 Safari/537.36 MicroMessenger/6.3.27.880 NetType/cmnet Language/zh_CN'
p268
sg16
S'3529585978a45a56f1fe03a92600dcdd'
p269
sa(dp270
g2
S'19537'
p271
sg4
S'4195'
p272
sg6
S'02282188ddf12b499b6a2e17c244996a'
p273
sg8
S'xxebe50f1fdbdbc231d056b98c3ec095e5'
p274
sg10
S'xx5fd173af4f48478e3845007936497554'
p275
sg12
S'xx7a21f23fcff34b4c46bc339b8edfd2de'
p276
sg14
S'Mozilla/5.0 (Linux; Android 5.1.1; MX4 Pro Build/LMY48W) AppleWebKit/537.36 (KHTML, like Gecko) Version/4.0 Chrome/37.0.0.0 Mobile MQQBrowser/6.8 TBS/036849 Safari/537.36 MicroMessenger/6.3.27.880 NetType/cmnet Language/zh_CN'
p277
sg16
S'3529585978a45a56f1fe03a92600dcdd'
p278
sa(dp279
g2
S'19537'
p280
sg4
S'4218'
p281
sg6
S'02282188ddf12b499b6a2e17c244996a'
p282
sg8
S'xxebe50f1fdbdbc231d056b98c3ec095e5'
p283
sg10
S'xx5fd173af4f48478e3845007936497554'
p284
sg12
S'xx7a21f23fcff34b4c46bc339b8edfd2de'
p285
sg14
S'Mozilla/5.0 (Linux; Android 5.1.1; MX4 Pro Build/LMY48W) AppleWebKit/537.36 (KHTML, like Gecko) Version/4.0 Chrome/37.0.0.0 Mobile MQQBrowser/6.8 TBS/036849 Safari/537.36 MicroMessenger/6.3.27.880 NetType/cmnet Language/zh_CN'
p286
sg16
S'3529585978a45a56f1fe03a92600dcdd'
p287
sa(dp288
g2
S'19537'
p289
sg4
S'4232'
p290
sg6
S'02282188ddf12b499b6a2e17c244996a'
p291
sg8
S'xxebe50f1fdbdbc231d056b98c3ec095e5'
p292
sg10
S'xx5fd173af4f48478e3845007936497554'
p293
sg12
S'xx7a21f23fcff34b4c46bc339b8edfd2de'
p294
sg14
S'Mozilla/5.0 (Linux; Android 5.1.1; MX4 Pro Build/LMY48W) AppleWebKit/537.36 (KHTML, like Gecko) Version/4.0 Chrome/37.0.0.0 Mobile MQQBrowser/6.8 TBS/036849 Safari/537.36 MicroMessenger/6.3.27.880 NetType/cmnet Language/zh_CN'
p295
sg16
S'3529585978a45a56f1fe03a92600dcdd'
p296
sa(dp297
g2
S'19537'
p298
sg4
S'4260'
p299
sg6
S'02282188ddf12b499b6a2e17c244996a'
p300
sg8
S'xxebe50f1fdbdbc231d056b98c3ec095e5'
p301
sg10
S'xx5fd173af4f48478e3845007936497554'
p302
sg12
S'xx7a21f23fcff34b4c46bc339b8edfd2de'
p303
sg14
S'Mozilla/5.0 (Linux; Android 5.1.1; MX4 Pro Build/LMY48W) AppleWebKit/537.36 (KHTML, like Gecko) Version/4.0 Chrome/37.0.0.0 Mobile MQQBrowser/6.8 TBS/036849 Safari/537.36 MicroMessenger/6.3.27.880 NetType/cmnet Language/zh_CN'
p304
sg16
S'3529585978a45a56f1fe03a92600dcdd'
p305
sa(dp306
g2
S'19537'
p307
sg4
S'4280'
p308
sg6
S'02282188ddf12b499b6a2e17c244996a'
p309
sg8
S'xxebe50f1fdbdbc231d056b98c3ec095e5'
p310
sg10
S'xx5fd173af4f48478e3845007936497554'
p311
sg12
S'xx7a21f23fcff34b4c46bc339b8edfd2de'
p312
sg14
S'Mozilla/5.0 (Linux; Android 5.1.1; MX4 Pro Build/LMY48W) AppleWebKit/537.36 (KHTML, like Gecko) Version/4.0 Chrome/37.0.0.0 Mobile MQQBrowser/6.8 TBS/036849 Safari/537.36 MicroMessenger/6.3.27.880 NetType/cmnet Language/zh_CN'
p313
sg16
S'3529585978a45a56f1fe03a92600dcdd'
p314
sa(dp315
g2
S'19537'
p316
sg4
S'4298'
p317
sg6
S'02282188ddf12b499b6a2e17c244996a'
p318
sg8
S'xxebe50f1fdbdbc231d056b98c3ec095e5'
p319
sg10
S'xx5fd173af4f48478e3845007936497554'
p320
sg12
S'xx7a21f23fcff34b4c46bc339b8edfd2de'
p321
sg14
S'Mozilla/5.0 (Linux; Android 5.1.1; MX4 Pro Build/LMY48W) AppleWebKit/537.36 (KHTML, like Gecko) Version/4.0 Chrome/37.0.0.0 Mobile MQQBrowser/6.8 TBS/036849 Safari/537.36 MicroMessenger/6.3.27.880 NetType/cmnet Language/zh_CN'
p322
sg16
S'3529585978a45a56f1fe03a92600dcdd'
p323
sa(dp324
g2
S'19537'
p325
sg4
S'4312'
p326
sg6
S'02282188ddf12b499b6a2e17c244996a'
p327
sg8
S'xxebe50f1fdbdbc231d056b98c3ec095e5'
p328
sg10
S'xx5fd173af4f48478e3845007936497554'
p329
sg12
S'xx7a21f23fcff34b4c46bc339b8edfd2de'
p330
sg14
S'Mozilla/5.0 (Linux; Android 5.1.1; MX4 Pro Build/LMY48W) AppleWebKit/537.36 (KHTML, like Gecko) Version/4.0 Chrome/37.0.0.0 Mobile MQQBrowser/6.8 TBS/036849 Safari/537.36 MicroMessenger/6.3.27.880 NetType/cmnet Language/zh_CN'
p331
sg16
S'3529585978a45a56f1fe03a92600dcdd'
p332
sa(dp333
g2
S'19537'
p334
sg4
S'4325'
p335
sg6
S'02282188ddf12b499b6a2e17c244996a'
p336
sg8
S'xxebe50f1fdbdbc231d056b98c3ec095e5'
p337
sg10
S'xx5fd173af4f48478e3845007936497554'
p338
sg12
S'xx7a21f23fcff34b4c46bc339b8edfd2de'
p339
sg14
S'Mozilla/5.0 (Linux; Android 5.1.1; MX4 Pro Build/LMY48W) AppleWebKit/537.36 (KHTML, like Gecko) Version/4.0 Chrome/37.0.0.0 Mobile MQQBrowser/6.8 TBS/036849 Safari/537.36 MicroMessenger/6.3.27.880 NetType/cmnet Language/zh_CN'
p340
sg16
S'3529585978a45a56f1fe03a92600dcdd'
p341
sa(dp342
g2
S'19537'
p343
sg4
S'4346'
p344
sg6
S'02282188ddf12b499b6a2e17c244996a'
p345
sg8
S'xxebe50f1fdbdbc231d056b98c3ec095e5'
p346
sg10
S'xx5fd173af4f48478e3845007936497554'
p347
sg12
S'xx7a21f23fcff34b4c46bc339b8edfd2de'
p348
sg14
S'Mozilla/5.0 (Linux; Android 5.1.1; MX4 Pro Build/LMY48W) AppleWebKit/537.36 (KHTML, like Gecko) Version/4.0 Chrome/37.0.0.0 Mobile MQQBrowser/6.8 TBS/036849 Safari/537.36 MicroMessenger/6.3.27.880 NetType/cmnet Language/zh_CN'
p349
sg16
S'3529585978a45a56f1fe03a92600dcdd'
p350
sa(dp351
g2
S'19537'
p352
sg4
S'4379'
p353
sg6
S'02282188ddf12b499b6a2e17c244996a'
p354
sg8
S'xxebe50f1fdbdbc231d056b98c3ec095e5'
p355
sg10
S'xx5fd173af4f48478e3845007936497554'
p356
sg12
S'xx7a21f23fcff34b4c46bc339b8edfd2de'
p357
sg14
S'Mozilla/5.0 (Linux; Android 5.1.1; MX4 Pro Build/LMY48W) AppleWebKit/537.36 (KHTML, like Gecko) Version/4.0 Chrome/37.0.0.0 Mobile MQQBrowser/6.8 TBS/036849 Safari/537.36 MicroMessenger/6.3.27.880 NetType/cmnet Language/zh_CN'
p358
sg16
S'3529585978a45a56f1fe03a92600dcdd'
p359
sa(dp360
g2
S'19537'
p361
sg4
S'4407'
p362
sg6
S'02282188ddf12b499b6a2e17c244996a'
p363
sg8
S'xxebe50f1fdbdbc231d056b98c3ec095e5'
p364
sg10
S'xx5fd173af4f48478e3845007936497554'
p365
sg12
S'xx7a21f23fcff34b4c46bc339b8edfd2de'
p366
sg14
S'Mozilla/5.0 (Linux; Android 5.1.1; MX4 Pro Build/LMY48W) AppleWebKit/537.36 (KHTML, like Gecko) Version/4.0 Chrome/37.0.0.0 Mobile MQQBrowser/6.8 TBS/036849 Safari/537.36 MicroMessenger/6.3.27.880 NetType/cmnet Language/zh_CN'
p367
sg16
S'3529585978a45a56f1fe03a92600dcdd'
p368
sa(dp369
g2
S'19537'
p370
sg4
S'4427'
p371
sg6
S'02282188ddf12b499b6a2e17c244996a'
p372
sg8
S'xxebe50f1fdbdbc231d056b98c3ec095e5'
p373
sg10
S'xx5fd173af4f48478e3845007936497554'
p374
sg12
S'xx7a21f23fcff34b4c46bc339b8edfd2de'
p375
sg14
S'Mozilla/5.0 (Linux; Android 5.1.1; MX4 Pro Build/LMY48W) AppleWebKit/537.36 (KHTML, like Gecko) Version/4.0 Chrome/37.0.0.0 Mobile MQQBrowser/6.8 TBS/036849 Safari/537.36 MicroMessenger/6.3.27.880 NetType/cmnet Language/zh_CN'
p376
sg16
S'3529585978a45a56f1fe03a92600dcdd'
p377
sa(dp378
g2
S'19537'
p379
sg4
S'4445'
p380
sg6
S'02282188ddf12b499b6a2e17c244996a'
p381
sg8
S'xxebe50f1fdbdbc231d056b98c3ec095e5'
p382
sg10
S'xx5fd173af4f48478e3845007936497554'
p383
sg12
S'xx7a21f23fcff34b4c46bc339b8edfd2de'
p384
sg14
S'Mozilla/5.0 (Linux; Android 5.1.1; MX4 Pro Build/LMY48W) AppleWebKit/537.36 (KHTML, like Gecko) Version/4.0 Chrome/37.0.0.0 Mobile MQQBrowser/6.8 TBS/036849 Safari/537.36 MicroMessenger/6.3.27.880 NetType/cmnet Language/zh_CN'
p385
sg16
S'3529585978a45a56f1fe03a92600dcdd'
p386
sa(dp387
g2
S'19537'
p388
sg4
S'4466'
p389
sg6
S'02282188ddf12b499b6a2e17c244996a'
p390
sg8
S'xxebe50f1fdbdbc231d056b98c3ec095e5'
p391
sg10
S'xx5fd173af4f48478e3845007936497554'
p392
sg12
S'xx7a21f23fcff34b4c46bc339b8edfd2de'
p393
sg14
S'Mozilla/5.0 (Linux; Android 5.1.1; MX4 Pro Build/LMY48W) AppleWebKit/537.36 (KHTML, like Gecko) Version/4.0 Chrome/37.0.0.0 Mobile MQQBrowser/6.8 TBS/036849 Safari/537.36 MicroMessenger/6.3.27.880 NetType/cmnet Language/zh_CN'
p394
sg16
S'3529585978a45a56f1fe03a92600dcdd'
p395
sa(dp396
g2
S'19537'
p397
sg4
S'4488'
p398
sg6
S'02282188ddf12b499b6a2e17c244996a'
p399
sg8
S'xxebe50f1fdbdbc231d056b98c3ec095e5'
p400
sg10
S'xx5fd173af4f48478e3845007936497554'
p401
sg12
S'xx7a21f23fcff34b4c46bc339b8edfd2de'
p402
sg14
S'Mozilla/5.0 (Linux; Android 5.1.1; MX4 Pro Build/LMY48W) AppleWebKit/537.36 (KHTML, like Gecko) Version/4.0 Chrome/37.0.0.0 Mobile MQQBrowser/6.8 TBS/036849 Safari/537.36 MicroMessenger/6.3.27.880 NetType/cmnet Language/zh_CN'
p403
sg16
S'3529585978a45a56f1fe03a92600dcdd'
p404
sa(dp405
g2
S'19537'
p406
sg4
S'4503'
p407
sg6
S'02282188ddf12b499b6a2e17c244996a'
p408
sg8
S'xxebe50f1fdbdbc231d056b98c3ec095e5'
p409
sg10
S'xx5fd173af4f48478e3845007936497554'
p410
sg12
S'xx7a21f23fcff34b4c46bc339b8edfd2de'
p411
sg14
S'Mozilla/5.0 (Linux; Android 5.1.1; MX4 Pro Build/LMY48W) AppleWebKit/537.36 (KHTML, like Gecko) Version/4.0 Chrome/37.0.0.0 Mobile MQQBrowser/6.8 TBS/036849 Safari/537.36 MicroMessenger/6.3.27.880 NetType/cmnet Language/zh_CN'
p412
sg16
S'3529585978a45a56f1fe03a92600dcdd'
p413
sa(dp414
g2
S'19537'
p415
sg4
S'4531'
p416
sg6
S'02282188ddf12b499b6a2e17c244996a'
p417
sg8
S'xxebe50f1fdbdbc231d056b98c3ec095e5'
p418
sg10
S'xx5fd173af4f48478e3845007936497554'
p419
sg12
S'xx7a21f23fcff34b4c46bc339b8edfd2de'
p420
sg14
S'Mozilla/5.0 (Linux; Android 5.1.1; MX4 Pro Build/LMY48W) AppleWebKit/537.36 (KHTML, like Gecko) Version/4.0 Chrome/37.0.0.0 Mobile MQQBrowser/6.8 TBS/036849 Safari/537.36 MicroMessenger/6.3.27.880 NetType/cmnet Language/zh_CN'
p421
sg16
S'3529585978a45a56f1fe03a92600dcdd'
p422
sa(dp423
g2
S'19537'
p424
sg4
S'4569'
p425
sg6
S'02282188ddf12b499b6a2e17c244996a'
p426
sg8
S'xxebe50f1fdbdbc231d056b98c3ec095e5'
p427
sg10
S'xx5fd173af4f48478e3845007936497554'
p428
sg12
S'xx7a21f23fcff34b4c46bc339b8edfd2de'
p429
sg14
S'Mozilla/5.0 (Linux; Android 5.1.1; MX4 Pro Build/LMY48W) AppleWebKit/537.36 (KHTML, like Gecko) Version/4.0 Chrome/37.0.0.0 Mobile MQQBrowser/6.8 TBS/036849 Safari/537.36 MicroMessenger/6.3.27.880 NetType/cmnet Language/zh_CN'
p430
sg16
S'3529585978a45a56f1fe03a92600dcdd'
p431
sa(dp432
g2
S'19537'
p433
sg4
S'4592'
p434
sg6
S'02282188ddf12b499b6a2e17c244996a'
p435
sg8
S'xxebe50f1fdbdbc231d056b98c3ec095e5'
p436
sg10
S'xx5fd173af4f48478e3845007936497554'
p437
sg12
S'xx7a21f23fcff34b4c46bc339b8edfd2de'
p438
sg14
S'Mozilla/5.0 (Linux; Android 5.1.1; MX4 Pro Build/LMY48W) AppleWebKit/537.36 (KHTML, like Gecko) Version/4.0 Chrome/37.0.0.0 Mobile MQQBrowser/6.8 TBS/036849 Safari/537.36 MicroMessenger/6.3.27.880 NetType/cmnet Language/zh_CN'
p439
sg16
S'3529585978a45a56f1fe03a92600dcdd'
p440
sa(dp441
g2
S'19537'
p442
sg4
S'4612'
p443
sg6
S'02282188ddf12b499b6a2e17c244996a'
p444
sg8
S'xxebe50f1fdbdbc231d056b98c3ec095e5'
p445
sg10
S'xx5fd173af4f48478e3845007936497554'
p446
sg12
S'xx7a21f23fcff34b4c46bc339b8edfd2de'
p447
sg14
S'Mozilla/5.0 (Linux; Android 5.1.1; MX4 Pro Build/LMY48W) AppleWebKit/537.36 (KHTML, like Gecko) Version/4.0 Chrome/37.0.0.0 Mobile MQQBrowser/6.8 TBS/036849 Safari/537.36 MicroMessenger/6.3.27.880 NetType/cmnet Language/zh_CN'
p448
sg16
S'3529585978a45a56f1fe03a92600dcdd'
p449
sa(dp450
g2
S'19537'
p451
sg4
S'4625'
p452
sg6
S'02282188ddf12b499b6a2e17c244996a'
p453
sg8
S'xxebe50f1fdbdbc231d056b98c3ec095e5'
p454
sg10
S'xx5fd173af4f48478e3845007936497554'
p455
sg12
S'xx7a21f23fcff34b4c46bc339b8edfd2de'
p456
sg14
S'Mozilla/5.0 (Linux; Android 5.1.1; MX4 Pro Build/LMY48W) AppleWebKit/537.36 (KHTML, like Gecko) Version/4.0 Chrome/37.0.0.0 Mobile MQQBrowser/6.8 TBS/036849 Safari/537.36 MicroMessenger/6.3.27.880 NetType/cmnet Language/zh_CN'
p457
sg16
S'3529585978a45a56f1fe03a92600dcdd'
p458
sa(dp459
g2
S'19537'
p460
sg4
S'4641'
p461
sg6
S'02282188ddf12b499b6a2e17c244996a'
p462
sg8
S'xxebe50f1fdbdbc231d056b98c3ec095e5'
p463
sg10
S'xx5fd173af4f48478e3845007936497554'
p464
sg12
S'xx7a21f23fcff34b4c46bc339b8edfd2de'
p465
sg14
S'Mozilla/5.0 (Linux; Android 5.1.1; MX4 Pro Build/LMY48W) AppleWebKit/537.36 (KHTML, like Gecko) Version/4.0 Chrome/37.0.0.0 Mobile MQQBrowser/6.8 TBS/036849 Safari/537.36 MicroMessenger/6.3.27.880 NetType/cmnet Language/zh_CN'
p466
sg16
S'3529585978a45a56f1fe03a92600dcdd'
p467
sa(dp468
g2
S'19537'
p469
sg4
S'4659'
p470
sg6
S'02282188ddf12b499b6a2e17c244996a'
p471
sg8
S'xxebe50f1fdbdbc231d056b98c3ec095e5'
p472
sg10
S'xx5fd173af4f48478e3845007936497554'
p473
sg12
S'xx7a21f23fcff34b4c46bc339b8edfd2de'
p474
sg14
S'Mozilla/5.0 (Linux; Android 5.1.1; MX4 Pro Build/LMY48W) AppleWebKit/537.36 (KHTML, like Gecko) Version/4.0 Chrome/37.0.0.0 Mobile MQQBrowser/6.8 TBS/036849 Safari/537.36 MicroMessenger/6.3.27.880 NetType/cmnet Language/zh_CN'
p475
sg16
S'3529585978a45a56f1fe03a92600dcdd'
p476
sa(dp477
g2
S'19537'
p478
sg4
S'4677'
p479
sg6
S'02282188ddf12b499b6a2e17c244996a'
p480
sg8
S'xxebe50f1fdbdbc231d056b98c3ec095e5'
p481
sg10
S'xx5fd173af4f48478e3845007936497554'
p482
sg12
S'xx7a21f23fcff34b4c46bc339b8edfd2de'
p483
sg14
S'Mozilla/5.0 (Linux; Android 5.1.1; MX4 Pro Build/LMY48W) AppleWebKit/537.36 (KHTML, like Gecko) Version/4.0 Chrome/37.0.0.0 Mobile MQQBrowser/6.8 TBS/036849 Safari/537.36 MicroMessenger/6.3.27.880 NetType/cmnet Language/zh_CN'
p484
sg16
S'3529585978a45a56f1fe03a92600dcdd'
p485
sa(dp486
g2
S'19537'
p487
sg4
S'4697'
p488
sg6
S'02282188ddf12b499b6a2e17c244996a'
p489
sg8
S'xxebe50f1fdbdbc231d056b98c3ec095e5'
p490
sg10
S'xx5fd173af4f48478e3845007936497554'
p491
sg12
S'xx7a21f23fcff34b4c46bc339b8edfd2de'
p492
sg14
S'Mozilla/5.0 (Linux; Android 5.1.1; MX4 Pro Build/LMY48W) AppleWebKit/537.36 (KHTML, like Gecko) Version/4.0 Chrome/37.0.0.0 Mobile MQQBrowser/6.8 TBS/036849 Safari/537.36 MicroMessenger/6.3.27.880 NetType/cmnet Language/zh_CN'
p493
sg16
S'3529585978a45a56f1fe03a92600dcdd'
p494
sa(dp495
g2
S'19537'
p496
sg4
S'4717'
p497
sg6
S'02282188ddf12b499b6a2e17c244996a'
p498
sg8
S'xxebe50f1fdbdbc231d056b98c3ec095e5'
p499
sg10
S'xx5fd173af4f48478e3845007936497554'
p500
sg12
S'xx7a21f23fcff34b4c46bc339b8edfd2de'
p501
sg14
S'Mozilla/5.0 (Linux; Android 5.1.1; MX4 Pro Build/LMY48W) AppleWebKit/537.36 (KHTML, like Gecko) Version/4.0 Chrome/37.0.0.0 Mobile MQQBrowser/6.8 TBS/036849 Safari/537.36 MicroMessenger/6.3.27.880 NetType/cmnet Language/zh_CN'
p502
sg16
S'3529585978a45a56f1fe03a92600dcdd'
p503
sa(dp504
g2
S'19537'
p505
sg4
S'4744'
p506
sg6
S'02282188ddf12b499b6a2e17c244996a'
p507
sg8
S'xxebe50f1fdbdbc231d056b98c3ec095e5'
p508
sg10
S'xx5fd173af4f48478e3845007936497554'
p509
sg12
S'xx7a21f23fcff34b4c46bc339b8edfd2de'
p510
sg14
S'Mozilla/5.0 (Linux; Android 5.1.1; MX4 Pro Build/LMY48W) AppleWebKit/537.36 (KHTML, like Gecko) Version/4.0 Chrome/37.0.0.0 Mobile MQQBrowser/6.8 TBS/036849 Safari/537.36 MicroMessenger/6.3.27.880 NetType/cmnet Language/zh_CN'
p511
sg16
S'3529585978a45a56f1fe03a92600dcdd'
p512
sa(dp513
g2
S'19537'
p514
sg4
S'4758'
p515
sg6
S'02282188ddf12b499b6a2e17c244996a'
p516
sg8
S'xxebe50f1fdbdbc231d056b98c3ec095e5'
p517
sg10
S'xx5fd173af4f48478e3845007936497554'
p518
sg12
S'xx7a21f23fcff34b4c46bc339b8edfd2de'
p519
sg14
S'Mozilla/5.0 (Linux; Android 5.1.1; MX4 Pro Build/LMY48W) AppleWebKit/537.36 (KHTML, like Gecko) Version/4.0 Chrome/37.0.0.0 Mobile MQQBrowser/6.8 TBS/036849 Safari/537.36 MicroMessenger/6.3.27.880 NetType/cmnet Language/zh_CN'
p520
sg16
S'3529585978a45a56f1fe03a92600dcdd'
p521
sa(dp522
g2
S'19537'
p523
sg4
S'4773'
p524
sg6
S'02282188ddf12b499b6a2e17c244996a'
p525
sg8
S'xxebe50f1fdbdbc231d056b98c3ec095e5'
p526
sg10
S'xx5fd173af4f48478e3845007936497554'
p527
sg12
S'xx7a21f23fcff34b4c46bc339b8edfd2de'
p528
sg14
S'Mozilla/5.0 (Linux; Android 5.1.1; MX4 Pro Build/LMY48W) AppleWebKit/537.36 (KHTML, like Gecko) Version/4.0 Chrome/37.0.0.0 Mobile MQQBrowser/6.8 TBS/036849 Safari/537.36 MicroMessenger/6.3.27.880 NetType/cmnet Language/zh_CN'
p529
sg16
S'3529585978a45a56f1fe03a92600dcdd'
p530
sa(dp531
g2
S'19537'
p532
sg4
S'4788'
p533
sg6
S'02282188ddf12b499b6a2e17c244996a'
p534
sg8
S'xxebe50f1fdbdbc231d056b98c3ec095e5'
p535
sg10
S'xx5fd173af4f48478e3845007936497554'
p536
sg12
S'xx7a21f23fcff34b4c46bc339b8edfd2de'
p537
sg14
S'Mozilla/5.0 (Linux; Android 5.1.1; MX4 Pro Build/LMY48W) AppleWebKit/537.36 (KHTML, like Gecko) Version/4.0 Chrome/37.0.0.0 Mobile MQQBrowser/6.8 TBS/036849 Safari/537.36 MicroMessenger/6.3.27.880 NetType/cmnet Language/zh_CN'
p538
sg16
S'3529585978a45a56f1fe03a92600dcdd'
p539
sa(dp540
g2
S'19537'
p541
sg4
S'4809'
p542
sg6
S'02282188ddf12b499b6a2e17c244996a'
p543
sg8
S'xxebe50f1fdbdbc231d056b98c3ec095e5'
p544
sg10
S'xx5fd173af4f48478e3845007936497554'
p545
sg12
S'xx7a21f23fcff34b4c46bc339b8edfd2de'
p546
sg14
S'Mozilla/5.0 (Linux; Android 5.1.1; MX4 Pro Build/LMY48W) AppleWebKit/537.36 (KHTML, like Gecko) Version/4.0 Chrome/37.0.0.0 Mobile MQQBrowser/6.8 TBS/036849 Safari/537.36 MicroMessenger/6.3.27.880 NetType/cmnet Language/zh_CN'
p547
sg16
S'3529585978a45a56f1fe03a92600dcdd'
p548
sa(dp549
g2
S'19537'
p550
sg4
S'4820'
p551
sg6
S'02282188ddf12b499b6a2e17c244996a'
p552
sg8
S'xxebe50f1fdbdbc231d056b98c3ec095e5'
p553
sg10
S'xx5fd173af4f48478e3845007936497554'
p554
sg12
S'xx7a21f23fcff34b4c46bc339b8edfd2de'
p555
sg14
S'Mozilla/5.0 (Linux; Android 5.1.1; MX4 Pro Build/LMY48W) AppleWebKit/537.36 (KHTML, like Gecko) Version/4.0 Chrome/37.0.0.0 Mobile MQQBrowser/6.8 TBS/036849 Safari/537.36 MicroMessenger/6.3.27.880 NetType/cmnet Language/zh_CN'
p556
sg16
S'3529585978a45a56f1fe03a92600dcdd'
p557
sa(dp558
g2
S'19537'
p559
sg4
S'4836'
p560
sg6
S'02282188ddf12b499b6a2e17c244996a'
p561
sg8
S'xxebe50f1fdbdbc231d056b98c3ec095e5'
p562
sg10
S'xx5fd173af4f48478e3845007936497554'
p563
sg12
S'xx7a21f23fcff34b4c46bc339b8edfd2de'
p564
sg14
S'Mozilla/5.0 (Linux; Android 5.1.1; MX4 Pro Build/LMY48W) AppleWebKit/537.36 (KHTML, like Gecko) Version/4.0 Chrome/37.0.0.0 Mobile MQQBrowser/6.8 TBS/036849 Safari/537.36 MicroMessenger/6.3.27.880 NetType/cmnet Language/zh_CN'
p565
sg16
S'3529585978a45a56f1fe03a92600dcdd'
p566
sa(dp567
g2
S'19537'
p568
sg4
S'4855'
p569
sg6
S'02282188ddf12b499b6a2e17c244996a'
p570
sg8
S'xxebe50f1fdbdbc231d056b98c3ec095e5'
p571
sg10
S'xx5fd173af4f48478e3845007936497554'
p572
sg12
S'xx7a21f23fcff34b4c46bc339b8edfd2de'
p573
sg14
S'Mozilla/5.0 (Linux; Android 5.1.1; MX4 Pro Build/LMY48W) AppleWebKit/537.36 (KHTML, like Gecko) Version/4.0 Chrome/37.0.0.0 Mobile MQQBrowser/6.8 TBS/036849 Safari/537.36 MicroMessenger/6.3.27.880 NetType/cmnet Language/zh_CN'
p574
sg16
S'3529585978a45a56f1fe03a92600dcdd'
p575
sa(dp576
g2
S'19537'
p577
sg4
S'4872'
p578
sg6
S'02282188ddf12b499b6a2e17c244996a'
p579
sg8
S'xxebe50f1fdbdbc231d056b98c3ec095e5'
p580
sg10
S'xx5fd173af4f48478e3845007936497554'
p581
sg12
S'xx7a21f23fcff34b4c46bc339b8edfd2de'
p582
sg14
S'Mozilla/5.0 (Linux; Android 5.1.1; MX4 Pro Build/LMY48W) AppleWebKit/537.36 (KHTML, like Gecko) Version/4.0 Chrome/37.0.0.0 Mobile MQQBrowser/6.8 TBS/036849 Safari/537.36 MicroMessenger/6.3.27.880 NetType/cmnet Language/zh_CN'
p583
sg16
S'3529585978a45a56f1fe03a92600dcdd'
p584
sa(dp585
g2
S'19537'
p586
sg4
S'4889'
p587
sg6
S'02282188ddf12b499b6a2e17c244996a'
p588
sg8
S'xxebe50f1fdbdbc231d056b98c3ec095e5'
p589
sg10
S'xx5fd173af4f48478e3845007936497554'
p590
sg12
S'xx7a21f23fcff34b4c46bc339b8edfd2de'
p591
sg14
S'Mozilla/5.0 (Linux; Android 5.1.1; MX4 Pro Build/LMY48W) AppleWebKit/537.36 (KHTML, like Gecko) Version/4.0 Chrome/37.0.0.0 Mobile MQQBrowser/6.8 TBS/036849 Safari/537.36 MicroMessenger/6.3.27.880 NetType/cmnet Language/zh_CN'
p592
sg16
S'3529585978a45a56f1fe03a92600dcdd'
p593
sa(dp594
g2
S'19537'
p595
sg4
S'4905'
p596
sg6
S'02282188ddf12b499b6a2e17c244996a'
p597
sg8
S'xxebe50f1fdbdbc231d056b98c3ec095e5'
p598
sg10
S'xx5fd173af4f48478e3845007936497554'
p599
sg12
S'xx7a21f23fcff34b4c46bc339b8edfd2de'
p600
sg14
S'Mozilla/5.0 (Linux; Android 5.1.1; MX4 Pro Build/LMY48W) AppleWebKit/537.36 (KHTML, like Gecko) Version/4.0 Chrome/37.0.0.0 Mobile MQQBrowser/6.8 TBS/036849 Safari/537.36 MicroMessenger/6.3.27.880 NetType/cmnet Language/zh_CN'
p601
sg16
S'3529585978a45a56f1fe03a92600dcdd'
p602
sa(dp603
g2
S'19537'
p604
sg4
S'4923'
p605
sg6
S'02282188ddf12b499b6a2e17c244996a'
p606
sg8
S'xxe66a79e4abf0ee0c26819cc1c80930c5'
p607
sg10
S'xx5fd173af4f48478e3845007936497554'
p608
sg12
S'xx7a21f23fcff34b4c46bc339b8edfd2de'
p609
sg14
S'Mozilla/5.0 (Linux; Android 5.1.1; MX4 Pro Build/LMY48W) AppleWebKit/537.36 (KHTML, like Gecko) Version/4.0 Chrome/37.0.0.0 Mobile MQQBrowser/6.8 TBS/036849 Safari/537.36 MicroMessenger/6.3.27.880 NetType/WIFI Language/zh_CN'
p610
sg16
S'f5a90813b2c103c605c3361a924d6413'
p611
sa(dp612
g2
S'19537'
p613
sg4
S'4933'
p614
sg6
S'02282188ddf12b499b6a2e17c244996a'
p615
sg8
S'xxe66a79e4abf0ee0c26819cc1c80930c5'
p616
sg10
S'xx5fd173af4f48478e3845007936497554'
p617
sg12
S'xx7a21f23fcff34b4c46bc339b8edfd2de'
p618
sg14
S'Mozilla/5.0 (Linux; Android 5.1.1; MX4 Pro Build/LMY48W) AppleWebKit/537.36 (KHTML, like Gecko) Version/4.0 Chrome/37.0.0.0 Mobile MQQBrowser/6.8 TBS/036849 Safari/537.36 MicroMessenger/6.3.27.880 NetType/WIFI Language/zh_CN'
p619
sg16
S'f5a90813b2c103c605c3361a924d6413'
p620
sa(dp621
g2
S'34698'
p622
sg4
S'6290'
p623
sg6
S'a05b02fbc4467edabb7257b801298b74'
p624
sg8
S'xxebe50f1fdbdbc231d056b98c3ec095e5'
p625
sg10
S'xx5fd173af4f48478e3845007936497554'
p626
sg12
S'xx7a21f23fcff34b4c46bc339b8edfd2de'
p627
sg14
S'Mozilla/5.0 (Linux; Android 5.1.1; MX4 Pro Build/LMY48W) AppleWebKit/537.36 (KHTML, like Gecko) Version/4.0 Chrome/37.0.0.0 Mobile MQQBrowser/6.8 TBS/036849 Safari/537.36 MicroMessenger/6.3.27.880 NetType/cmnet Language/zh_CN'
p628
sg16
S'3529585978a45a56f1fe03a92600dcdd'
p629
sa(dp630
g2
S'34698'
p631
sg4
S'6306'
p632
sg6
S'a05b02fbc4467edabb7257b801298b74'
p633
sg8
S'xxebe50f1fdbdbc231d056b98c3ec095e5'
p634
sg10
S'xx5fd173af4f48478e3845007936497554'
p635
sg12
S'xx7a21f23fcff34b4c46bc339b8edfd2de'
p636
sg14
S'Mozilla/5.0 (Linux; Android 5.1.1; MX4 Pro Build/LMY48W) AppleWebKit/537.36 (KHTML, like Gecko) Version/4.0 Chrome/37.0.0.0 Mobile MQQBrowser/6.8 TBS/036849 Safari/537.36 MicroMessenger/6.3.27.880 NetType/cmnet Language/zh_CN'
p637
sg16
S'3529585978a45a56f1fe03a92600dcdd'
p638
sa(dp639
g2
S'34698'
p640
sg4
S'6320'
p641
sg6
S'a05b02fbc4467edabb7257b801298b74'
p642
sg8
S'xxebe50f1fdbdbc231d056b98c3ec095e5'
p643
sg10
S'xx5fd173af4f48478e3845007936497554'
p644
sg12
S'xx7a21f23fcff34b4c46bc339b8edfd2de'
p645
sg14
S'Mozilla/5.0 (Linux; Android 5.1.1; MX4 Pro Build/LMY48W) AppleWebKit/537.36 (KHTML, like Gecko) Version/4.0 Chrome/37.0.0.0 Mobile MQQBrowser/6.8 TBS/036849 Safari/537.36 MicroMessenger/6.3.27.880 NetType/cmnet Language/zh_CN'
p646
sg16
S'3529585978a45a56f1fe03a92600dcdd'
p647
sa(dp648
g2
S'34698'
p649
sg4
S'6336'
p650
sg6
S'a05b02fbc4467edabb7257b801298b74'
p651
sg8
S'xxebe50f1fdbdbc231d056b98c3ec095e5'
p652
sg10
S'xx5fd173af4f48478e3845007936497554'
p653
sg12
S'xx7a21f23fcff34b4c46bc339b8edfd2de'
p654
sg14
S'Mozilla/5.0 (Linux; Android 5.1.1; MX4 Pro Build/LMY48W) AppleWebKit/537.36 (KHTML, like Gecko) Version/4.0 Chrome/37.0.0.0 Mobile MQQBrowser/6.8 TBS/036849 Safari/537.36 MicroMessenger/6.3.27.880 NetType/cmnet Language/zh_CN'
p655
sg16
S'3529585978a45a56f1fe03a92600dcdd'
p656
sa(dp657
g2
S'34698'
p658
sg4
S'6349'
p659
sg6
S'a05b02fbc4467edabb7257b801298b74'
p660
sg8
S'xxebe50f1fdbdbc231d056b98c3ec095e5'
p661
sg10
S'xx5fd173af4f48478e3845007936497554'
p662
sg12
S'xx7a21f23fcff34b4c46bc339b8edfd2de'
p663
sg14
S'Mozilla/5.0 (Linux; Android 5.1.1; MX4 Pro Build/LMY48W) AppleWebKit/537.36 (KHTML, like Gecko) Version/4.0 Chrome/37.0.0.0 Mobile MQQBrowser/6.8 TBS/036849 Safari/537.36 MicroMessenger/6.3.27.880 NetType/cmnet Language/zh_CN'
p664
sg16
S'3529585978a45a56f1fe03a92600dcdd'
p665
sa(dp666
g2
S'34698'
p667
sg4
S'6364'
p668
sg6
S'a05b02fbc4467edabb7257b801298b74'
p669
sg8
S'xxebe50f1fdbdbc231d056b98c3ec095e5'
p670
sg10
S'xx5fd173af4f48478e3845007936497554'
p671
sg12
S'xx7a21f23fcff34b4c46bc339b8edfd2de'
p672
sg14
S'Mozilla/5.0 (Linux; Android 5.1.1; MX4 Pro Build/LMY48W) AppleWebKit/537.36 (KHTML, like Gecko) Version/4.0 Chrome/37.0.0.0 Mobile MQQBrowser/6.8 TBS/036849 Safari/537.36 MicroMessenger/6.3.27.880 NetType/cmnet Language/zh_CN'
p673
sg16
S'3529585978a45a56f1fe03a92600dcdd'
p674
sa(dp675
g2
S'19537'
p676
sg4
S'6439'
p677
sg6
S'02282188ddf12b499b6a2e17c244996a'
p678
sg8
S'xxe66a79e4abf0ee0c26819cc1c80930c5'
p679
sg10
S'xx5fd173af4f48478e3845007936497554'
p680
sg12
S'xx7a21f23fcff34b4c46bc339b8edfd2de'
p681
sg14
S'Mozilla/5.0 (Linux; Android 5.1.1; MX4 Pro Build/LMY48W) AppleWebKit/537.36 (KHTML, like Gecko) Version/4.0 Chrome/37.0.0.0 Mobile MQQBrowser/6.8 TBS/036849 Safari/537.36 MicroMessenger/6.3.27.880 NetType/WIFI Language/zh_CN'
p682
sg16
S'f5a90813b2c103c605c3361a924d6413'
p683
sa(dp684
g2
S'19537'
p685
sg4
S'6457'
p686
sg6
S'02282188ddf12b499b6a2e17c244996a'
p687
sg8
S'xxe66a79e4abf0ee0c26819cc1c80930c5'
p688
sg10
S'xx5fd173af4f48478e3845007936497554'
p689
sg12
S'xx7a21f23fcff34b4c46bc339b8edfd2de'
p690
sg14
S'Mozilla/5.0 (Linux; Android 5.1.1; MX4 Pro Build/LMY48W) AppleWebKit/537.36 (KHTML, like Gecko) Version/4.0 Chrome/37.0.0.0 Mobile MQQBrowser/6.8 TBS/036849 Safari/537.36 MicroMessenger/6.3.27.880 NetType/WIFI Language/zh_CN'
p691
sg16
S'f5a90813b2c103c605c3361a924d6413'
p692
sa(dp693
g2
S'19537'
p694
sg4
S'6473'
p695
sg6
S'02282188ddf12b499b6a2e17c244996a'
p696
sg8
S'xxe66a79e4abf0ee0c26819cc1c80930c5'
p697
sg10
S'xx5fd173af4f48478e3845007936497554'
p698
sg12
S'xx7a21f23fcff34b4c46bc339b8edfd2de'
p699
sg14
S'Mozilla/5.0 (Linux; Android 5.1.1; MX4 Pro Build/LMY48W) AppleWebKit/537.36 (KHTML, like Gecko) Version/4.0 Chrome/37.0.0.0 Mobile MQQBrowser/6.8 TBS/036849 Safari/537.36 MicroMessenger/6.3.27.880 NetType/WIFI Language/zh_CN'
p700
sg16
S'f5a90813b2c103c605c3361a924d6413'
p701
sa(dp702
g2
S'19537'
p703
sg4
S'6487'
p704
sg6
S'02282188ddf12b499b6a2e17c244996a'
p705
sg8
S'xxe66a79e4abf0ee0c26819cc1c80930c5'
p706
sg10
S'xx5fd173af4f48478e3845007936497554'
p707
sg12
S'xx7a21f23fcff34b4c46bc339b8edfd2de'
p708
sg14
S'Mozilla/5.0 (Linux; Android 5.1.1; MX4 Pro Build/LMY48W) AppleWebKit/537.36 (KHTML, like Gecko) Version/4.0 Chrome/37.0.0.0 Mobile MQQBrowser/6.8 TBS/036849 Safari/537.36 MicroMessenger/6.3.27.880 NetType/WIFI Language/zh_CN'
p709
sg16
S'f5a90813b2c103c605c3361a924d6413'
p710
sa(dp711
g2
S'19537'
p712
sg4
S'6501'
p713
sg6
S'02282188ddf12b499b6a2e17c244996a'
p714
sg8
S'xxe66a79e4abf0ee0c26819cc1c80930c5'
p715
sg10
S'xx5fd173af4f48478e3845007936497554'
p716
sg12
S'xx7a21f23fcff34b4c46bc339b8edfd2de'
p717
sg14
S'Mozilla/5.0 (Linux; Android 5.1.1; MX4 Pro Build/LMY48W) AppleWebKit/537.36 (KHTML, like Gecko) Version/4.0 Chrome/37.0.0.0 Mobile MQQBrowser/6.8 TBS/036849 Safari/537.36 MicroMessenger/6.3.27.880 NetType/WIFI Language/zh_CN'
p718
sg16
S'f5a90813b2c103c605c3361a924d6413'
p719
sa(dp720
g2
S'19537'
p721
sg4
S'6519'
p722
sg6
S'02282188ddf12b499b6a2e17c244996a'
p723
sg8
S'xxe66a79e4abf0ee0c26819cc1c80930c5'
p724
sg10
S'xx5fd173af4f48478e3845007936497554'
p725
sg12
S'xx7a21f23fcff34b4c46bc339b8edfd2de'
p726
sg14
S'Mozilla/5.0 (Linux; Android 5.1.1; MX4 Pro Build/LMY48W) AppleWebKit/537.36 (KHTML, like Gecko) Version/4.0 Chrome/37.0.0.0 Mobile MQQBrowser/6.8 TBS/036849 Safari/537.36 MicroMessenger/6.3.27.880 NetType/WIFI Language/zh_CN'
p727
sg16
S'f5a90813b2c103c605c3361a924d6413'
p728
sa(dp729
g2
S'19537'
p730
sg4
S'6539'
p731
sg6
S'02282188ddf12b499b6a2e17c244996a'
p732
sg8
S'xxe66a79e4abf0ee0c26819cc1c80930c5'
p733
sg10
S'xx5fd173af4f48478e3845007936497554'
p734
sg12
S'xx7a21f23fcff34b4c46bc339b8edfd2de'
p735
sg14
S'Mozilla/5.0 (Linux; Android 5.1.1; MX4 Pro Build/LMY48W) AppleWebKit/537.36 (KHTML, like Gecko) Version/4.0 Chrome/37.0.0.0 Mobile MQQBrowser/6.8 TBS/036849 Safari/537.36 MicroMessenger/6.3.27.880 NetType/WIFI Language/zh_CN'
p736
sg16
S'f5a90813b2c103c605c3361a924d6413'
p737
sa(dp738
g2
S'19537'
p739
sg4
S'6559'
p740
sg6
S'02282188ddf12b499b6a2e17c244996a'
p741
sg8
S'xxe66a79e4abf0ee0c26819cc1c80930c5'
p742
sg10
S'xx5fd173af4f48478e3845007936497554'
p743
sg12
S'xx7a21f23fcff34b4c46bc339b8edfd2de'
p744
sg14
S'Mozilla/5.0 (Linux; Android 5.1.1; MX4 Pro Build/LMY48W) AppleWebKit/537.36 (KHTML, like Gecko) Version/4.0 Chrome/37.0.0.0 Mobile MQQBrowser/6.8 TBS/036849 Safari/537.36 MicroMessenger/6.3.27.880 NetType/WIFI Language/zh_CN'
p745
sg16
S'f5a90813b2c103c605c3361a924d6413'
p746
sa(dp747
g2
S'19537'
p748
sg4
S'6574'
p749
sg6
S'02282188ddf12b499b6a2e17c244996a'
p750
sg8
S'xxe66a79e4abf0ee0c26819cc1c80930c5'
p751
sg10
S'xx5fd173af4f48478e3845007936497554'
p752
sg12
S'xx7a21f23fcff34b4c46bc339b8edfd2de'
p753
sg14
S'Mozilla/5.0 (Linux; Android 5.1.1; MX4 Pro Build/LMY48W) AppleWebKit/537.36 (KHTML, like Gecko) Version/4.0 Chrome/37.0.0.0 Mobile MQQBrowser/6.8 TBS/036849 Safari/537.36 MicroMessenger/6.3.27.880 NetType/WIFI Language/zh_CN'
p754
sg16
S'f5a90813b2c103c605c3361a924d6413'
p755
sa(dp756
g2
S'19537'
p757
sg4
S'6642'
p758
sg6
S'02282188ddf12b499b6a2e17c244996a'
p759
sg8
S'xxe66a79e4abf0ee0c26819cc1c80930c5'
p760
sg10
S'xx5fd173af4f48478e3845007936497554'
p761
sg12
S'xx7a21f23fcff34b4c46bc339b8edfd2de'
p762
sg14
S'Mozilla/5.0 (Linux; Android 5.1.1; MX4 Pro Build/LMY48W) AppleWebKit/537.36 (KHTML, like Gecko) Version/4.0 Chrome/37.0.0.0 Mobile MQQBrowser/6.8 TBS/036849 Safari/537.36 MicroMessenger/6.3.27.880 NetType/WIFI Language/zh_CN'
p763
sg16
S'f5a90813b2c103c605c3361a924d6413'
p764
sa(dp765
g2
S'19537'
p766
sg4
S'6662'
p767
sg6
S'02282188ddf12b499b6a2e17c244996a'
p768
sg8
S'xxe66a79e4abf0ee0c26819cc1c80930c5'
p769
sg10
S'xx5fd173af4f48478e3845007936497554'
p770
sg12
S'xx7a21f23fcff34b4c46bc339b8edfd2de'
p771
sg14
S'Mozilla/5.0 (Linux; Android 5.1.1; MX4 Pro Build/LMY48W) AppleWebKit/537.36 (KHTML, like Gecko) Version/4.0 Chrome/37.0.0.0 Mobile MQQBrowser/6.8 TBS/036849 Safari/537.36 MicroMessenger/6.3.27.880 NetType/WIFI Language/zh_CN'
p772
sg16
S'f5a90813b2c103c605c3361a924d6413'
p773
sa(dp774
g2
S'19537'
p775
sg4
S'6683'
p776
sg6
S'02282188ddf12b499b6a2e17c244996a'
p777
sg8
S'xxe66a79e4abf0ee0c26819cc1c80930c5'
p778
sg10
S'xx5fd173af4f48478e3845007936497554'
p779
sg12
S'xx7a21f23fcff34b4c46bc339b8edfd2de'
p780
sg14
S'Mozilla/5.0 (Linux; Android 5.1.1; MX4 Pro Build/LMY48W) AppleWebKit/537.36 (KHTML, like Gecko) Version/4.0 Chrome/37.0.0.0 Mobile MQQBrowser/6.8 TBS/036849 Safari/537.36 MicroMessenger/6.3.27.880 NetType/WIFI Language/zh_CN'
p781
sg16
S'f5a90813b2c103c605c3361a924d6413'
p782
sa(dp783
g2
S'19537'
p784
sg4
S'6706'
p785
sg6
S'02282188ddf12b499b6a2e17c244996a'
p786
sg8
S'xxe66a79e4abf0ee0c26819cc1c80930c5'
p787
sg10
S'xx5fd173af4f48478e3845007936497554'
p788
sg12
S'xx7a21f23fcff34b4c46bc339b8edfd2de'
p789
sg14
S'Mozilla/5.0 (Linux; Android 5.1.1; MX4 Pro Build/LMY48W) AppleWebKit/537.36 (KHTML, like Gecko) Version/4.0 Chrome/37.0.0.0 Mobile MQQBrowser/6.8 TBS/036849 Safari/537.36 MicroMessenger/6.3.27.880 NetType/WIFI Language/zh_CN'
p790
sg16
S'f5a90813b2c103c605c3361a924d6413'
p791
sa(dp792
g2
S'19537'
p793
sg4
S'6726'
p794
sg6
S'02282188ddf12b499b6a2e17c244996a'
p795
sg8
S'xxe66a79e4abf0ee0c26819cc1c80930c5'
p796
sg10
S'xx5fd173af4f48478e3845007936497554'
p797
sg12
S'xx7a21f23fcff34b4c46bc339b8edfd2de'
p798
sg14
S'Mozilla/5.0 (Linux; Android 5.1.1; MX4 Pro Build/LMY48W) AppleWebKit/537.36 (KHTML, like Gecko) Version/4.0 Chrome/37.0.0.0 Mobile MQQBrowser/6.8 TBS/036849 Safari/537.36 MicroMessenger/6.3.27.880 NetType/WIFI Language/zh_CN'
p799
sg16
S'f5a90813b2c103c605c3361a924d6413'
p800
sa(dp801
g2
S'19537'
p802
sg4
S'6745'
p803
sg6
S'02282188ddf12b499b6a2e17c244996a'
p804
sg8
S'xxe66a79e4abf0ee0c26819cc1c80930c5'
p805
sg10
S'xx5fd173af4f48478e3845007936497554'
p806
sg12
S'xx7a21f23fcff34b4c46bc339b8edfd2de'
p807
sg14
S'Mozilla/5.0 (Linux; Android 5.1.1; MX4 Pro Build/LMY48W) AppleWebKit/537.36 (KHTML, like Gecko) Version/4.0 Chrome/37.0.0.0 Mobile MQQBrowser/6.8 TBS/036849 Safari/537.36 MicroMessenger/6.3.27.880 NetType/WIFI Language/zh_CN'
p808
sg16
S'f5a90813b2c103c605c3361a924d6413'
p809
sa(dp810
g2
S'19537'
p811
sg4
S'6814'
p812
sg6
S'02282188ddf12b499b6a2e17c244996a'
p813
sg8
S'xxe66a79e4abf0ee0c26819cc1c80930c5'
p814
sg10
S'xx5fd173af4f48478e3845007936497554'
p815
sg12
S'xx7a21f23fcff34b4c46bc339b8edfd2de'
p816
sg14
S'Mozilla/5.0 (Linux; Android 5.1.1; MX4 Pro Build/LMY48W) AppleWebKit/537.36 (KHTML, like Gecko) Version/4.0 Chrome/37.0.0.0 Mobile MQQBrowser/6.8 TBS/036849 Safari/537.36 MicroMessenger/6.3.27.880 NetType/WIFI Language/zh_CN'
p817
sg16
S'f5a90813b2c103c605c3361a924d6413'
p818
sa(dp819
g2
S'19537'
p820
sg4
S'6827'
p821
sg6
S'02282188ddf12b499b6a2e17c244996a'
p822
sg8
S'xxe66a79e4abf0ee0c26819cc1c80930c5'
p823
sg10
S'xx5fd173af4f48478e3845007936497554'
p824
sg12
S'xx7a21f23fcff34b4c46bc339b8edfd2de'
p825
sg14
S'Mozilla/5.0 (Linux; Android 5.1.1; MX4 Pro Build/LMY48W) AppleWebKit/537.36 (KHTML, like Gecko) Version/4.0 Chrome/37.0.0.0 Mobile MQQBrowser/6.8 TBS/036849 Safari/537.36 MicroMessenger/6.3.27.880 NetType/WIFI Language/zh_CN'
p826
sg16
S'f5a90813b2c103c605c3361a924d6413'
p827
sa(dp828
g2
S'19537'
p829
sg4
S'6842'
p830
sg6
S'02282188ddf12b499b6a2e17c244996a'
p831
sg8
S'xxe66a79e4abf0ee0c26819cc1c80930c5'
p832
sg10
S'xx5fd173af4f48478e3845007936497554'
p833
sg12
S'xx7a21f23fcff34b4c46bc339b8edfd2de'
p834
sg14
S'Mozilla/5.0 (Linux; Android 5.1.1; MX4 Pro Build/LMY48W) AppleWebKit/537.36 (KHTML, like Gecko) Version/4.0 Chrome/37.0.0.0 Mobile MQQBrowser/6.8 TBS/036849 Safari/537.36 MicroMessenger/6.3.27.880 NetType/WIFI Language/zh_CN'
p835
sg16
S'f5a90813b2c103c605c3361a924d6413'
p836
sa(dp837
g2
S'19537'
p838
sg4
S'6855'
p839
sg6
S'02282188ddf12b499b6a2e17c244996a'
p840
sg8
S'xxe66a79e4abf0ee0c26819cc1c80930c5'
p841
sg10
S'xx5fd173af4f48478e3845007936497554'
p842
sg12
S'xx7a21f23fcff34b4c46bc339b8edfd2de'
p843
sg14
S'Mozilla/5.0 (Linux; Android 5.1.1; MX4 Pro Build/LMY48W) AppleWebKit/537.36 (KHTML, like Gecko) Version/4.0 Chrome/37.0.0.0 Mobile MQQBrowser/6.8 TBS/036849 Safari/537.36 MicroMessenger/6.3.27.880 NetType/WIFI Language/zh_CN'
p844
sg16
S'f5a90813b2c103c605c3361a924d6413'
p845
sa(dp846
g2
S'19537'
p847
sg4
S'6873'
p848
sg6
S'02282188ddf12b499b6a2e17c244996a'
p849
sg8
S'xxe66a79e4abf0ee0c26819cc1c80930c5'
p850
sg10
S'xx5fd173af4f48478e3845007936497554'
p851
sg12
S'xx7a21f23fcff34b4c46bc339b8edfd2de'
p852
sg14
S'Mozilla/5.0 (Linux; Android 5.1.1; MX4 Pro Build/LMY48W) AppleWebKit/537.36 (KHTML, like Gecko) Version/4.0 Chrome/37.0.0.0 Mobile MQQBrowser/6.8 TBS/036849 Safari/537.36 MicroMessenger/6.3.27.880 NetType/WIFI Language/zh_CN'
p853
sg16
S'f5a90813b2c103c605c3361a924d6413'
p854
sa(dp855
g2
S'19537'
p856
sg4
S'6890'
p857
sg6
S'02282188ddf12b499b6a2e17c244996a'
p858
sg8
S'xxe66a79e4abf0ee0c26819cc1c80930c5'
p859
sg10
S'xx5fd173af4f48478e3845007936497554'
p860
sg12
S'xx7a21f23fcff34b4c46bc339b8edfd2de'
p861
sg14
S'Mozilla/5.0 (Linux; Android 5.1.1; MX4 Pro Build/LMY48W) AppleWebKit/537.36 (KHTML, like Gecko) Version/4.0 Chrome/37.0.0.0 Mobile MQQBrowser/6.8 TBS/036849 Safari/537.36 MicroMessenger/6.3.27.880 NetType/WIFI Language/zh_CN'
p862
sg16
S'f5a90813b2c103c605c3361a924d6413'
p863
sa(dp864
g2
S'19537'
p865
sg4
S'7002'
p866
sg6
S'02282188ddf12b499b6a2e17c244996a'
p867
sg8
S'xxe66a79e4abf0ee0c26819cc1c80930c5'
p868
sg10
S'xx5fd173af4f48478e3845007936497554'
p869
sg12
S'xx7a21f23fcff34b4c46bc339b8edfd2de'
p870
sg14
S'Mozilla/5.0 (Linux; Android 5.1.1; MX4 Pro Build/LMY48W) AppleWebKit/537.36 (KHTML, like Gecko) Version/4.0 Chrome/37.0.0.0 Mobile MQQBrowser/6.8 TBS/036849 Safari/537.36 MicroMessenger/6.3.27.880 NetType/WIFI Language/zh_CN'
p871
sg16
S'f5a90813b2c103c605c3361a924d6413'
p872
sa(dp873
g2
S'19537'
p874
sg4
S'7019'
p875
sg6
S'02282188ddf12b499b6a2e17c244996a'
p876
sg8
S'xxe66a79e4abf0ee0c26819cc1c80930c5'
p877
sg10
S'xx5fd173af4f48478e3845007936497554'
p878
sg12
S'xx7a21f23fcff34b4c46bc339b8edfd2de'
p879
sg14
S'Mozilla/5.0 (Linux; Android 5.1.1; MX4 Pro Build/LMY48W) AppleWebKit/537.36 (KHTML, like Gecko) Version/4.0 Chrome/37.0.0.0 Mobile MQQBrowser/6.8 TBS/036849 Safari/537.36 MicroMessenger/6.3.27.880 NetType/WIFI Language/zh_CN'
p880
sg16
S'f5a90813b2c103c605c3361a924d6413'
p881
sa(dp882
g2
S'19537'
p883
sg4
S'7038'
p884
sg6
S'02282188ddf12b499b6a2e17c244996a'
p885
sg8
S'xxe66a79e4abf0ee0c26819cc1c80930c5'
p886
sg10
S'xx5fd173af4f48478e3845007936497554'
p887
sg12
S'xx7a21f23fcff34b4c46bc339b8edfd2de'
p888
sg14
S'Mozilla/5.0 (Linux; Android 5.1.1; MX4 Pro Build/LMY48W) AppleWebKit/537.36 (KHTML, like Gecko) Version/4.0 Chrome/37.0.0.0 Mobile MQQBrowser/6.8 TBS/036849 Safari/537.36 MicroMessenger/6.3.27.880 NetType/WIFI Language/zh_CN'
p889
sg16
S'f5a90813b2c103c605c3361a924d6413'
p890
sa(dp891
g2
S'19537'
p892
sg4
S'7053'
p893
sg6
S'02282188ddf12b499b6a2e17c244996a'
p894
sg8
S'xxe66a79e4abf0ee0c26819cc1c80930c5'
p895
sg10
S'xx5fd173af4f48478e3845007936497554'
p896
sg12
S'xx7a21f23fcff34b4c46bc339b8edfd2de'
p897
sg14
S'Mozilla/5.0 (Linux; Android 5.1.1; MX4 Pro Build/LMY48W) AppleWebKit/537.36 (KHTML, like Gecko) Version/4.0 Chrome/37.0.0.0 Mobile MQQBrowser/6.8 TBS/036849 Safari/537.36 MicroMessenger/6.3.27.880 NetType/WIFI Language/zh_CN'
p898
sg16
S'f5a90813b2c103c605c3361a924d6413'
p899
sa(dp900
g2
S'19537'
p901
sg4
S'7100'
p902
sg6
S'02282188ddf12b499b6a2e17c244996a'
p903
sg8
S'xxe66a79e4abf0ee0c26819cc1c80930c5'
p904
sg10
S'xx5fd173af4f48478e3845007936497554'
p905
sg12
S'xx7a21f23fcff34b4c46bc339b8edfd2de'
p906
sg14
S'Mozilla/5.0 (Linux; Android 5.1.1; MX4 Pro Build/LMY48W) AppleWebKit/537.36 (KHTML, like Gecko) Version/4.0 Chrome/37.0.0.0 Mobile MQQBrowser/6.8 TBS/036849 Safari/537.36 MicroMessenger/6.3.27.880 NetType/WIFI Language/zh_CN'
p907
sg16
S'f5a90813b2c103c605c3361a924d6413'
p908
sa(dp909
g2
S'19537'
p910
sg4
S'7118'
p911
sg6
S'02282188ddf12b499b6a2e17c244996a'
p912
sg8
S'xxe66a79e4abf0ee0c26819cc1c80930c5'
p913
sg10
S'xx5fd173af4f48478e3845007936497554'
p914
sg12
S'xx7a21f23fcff34b4c46bc339b8edfd2de'
p915
sg14
S'Mozilla/5.0 (Linux; Android 5.1.1; MX4 Pro Build/LMY48W) AppleWebKit/537.36 (KHTML, like Gecko) Version/4.0 Chrome/37.0.0.0 Mobile MQQBrowser/6.8 TBS/036849 Safari/537.36 MicroMessenger/6.3.27.880 NetType/WIFI Language/zh_CN'
p916
sg16
S'f5a90813b2c103c605c3361a924d6413'
p917
sa(dp918
g2
S'19537'
p919
sg4
S'7130'
p920
sg6
S'02282188ddf12b499b6a2e17c244996a'
p921
sg8
S'xxe66a79e4abf0ee0c26819cc1c80930c5'
p922
sg10
S'xx5fd173af4f48478e3845007936497554'
p923
sg12
S'xx7a21f23fcff34b4c46bc339b8edfd2de'
p924
sg14
S'Mozilla/5.0 (Linux; Android 5.1.1; MX4 Pro Build/LMY48W) AppleWebKit/537.36 (KHTML, like Gecko) Version/4.0 Chrome/37.0.0.0 Mobile MQQBrowser/6.8 TBS/036849 Safari/537.36 MicroMessenger/6.3.27.880 NetType/WIFI Language/zh_CN'
p925
sg16
S'f5a90813b2c103c605c3361a924d6413'
p926
sa(dp927
g2
S'19537'
p928
sg4
S'7153'
p929
sg6
S'02282188ddf12b499b6a2e17c244996a'
p930
sg8
S'xxe66a79e4abf0ee0c26819cc1c80930c5'
p931
sg10
S'xx5fd173af4f48478e3845007936497554'
p932
sg12
S'xx7a21f23fcff34b4c46bc339b8edfd2de'
p933
sg14
S'Mozilla/5.0 (Linux; Android 5.1.1; MX4 Pro Build/LMY48W) AppleWebKit/537.36 (KHTML, like Gecko) Version/4.0 Chrome/37.0.0.0 Mobile MQQBrowser/6.8 TBS/036849 Safari/537.36 MicroMessenger/6.3.27.880 NetType/WIFI Language/zh_CN'
p934
sg16
S'f5a90813b2c103c605c3361a924d6413'
p935
sa(dp936
g2
S'19537'
p937
sg4
S'7172'
p938
sg6
S'02282188ddf12b499b6a2e17c244996a'
p939
sg8
S'xxe66a79e4abf0ee0c26819cc1c80930c5'
p940
sg10
S'xx5fd173af4f48478e3845007936497554'
p941
sg12
S'xx7a21f23fcff34b4c46bc339b8edfd2de'
p942
sg14
S'Mozilla/5.0 (Linux; Android 5.1.1; MX4 Pro Build/LMY48W) AppleWebKit/537.36 (KHTML, like Gecko) Version/4.0 Chrome/37.0.0.0 Mobile MQQBrowser/6.8 TBS/036849 Safari/537.36 MicroMessenger/6.3.27.880 NetType/WIFI Language/zh_CN'
p943
sg16
S'f5a90813b2c103c605c3361a924d6413'
p944
sa(dp945
g2
S'19537'
p946
sg4
S'7187'
p947
sg6
S'02282188ddf12b499b6a2e17c244996a'
p948
sg8
S'xxe66a79e4abf0ee0c26819cc1c80930c5'
p949
sg10
S'xx5fd173af4f48478e3845007936497554'
p950
sg12
S'xx7a21f23fcff34b4c46bc339b8edfd2de'
p951
sg14
S'Mozilla/5.0 (Linux; Android 5.1.1; MX4 Pro Build/LMY48W) AppleWebKit/537.36 (KHTML, like Gecko) Version/4.0 Chrome/37.0.0.0 Mobile MQQBrowser/6.8 TBS/036849 Safari/537.36 MicroMessenger/6.3.27.880 NetType/WIFI Language/zh_CN'
p952
sg16
S'f5a90813b2c103c605c3361a924d6413'
p953
sa(dp954
g2
S'19537'
p955
sg4
S'7291'
p956
sg6
S'02282188ddf12b499b6a2e17c244996a'
p957
sg8
S'xxe66a79e4abf0ee0c26819cc1c80930c5'
p958
sg10
S'xx5fd173af4f48478e3845007936497554'
p959
sg12
S'xx7a21f23fcff34b4c46bc339b8edfd2de'
p960
sg14
S'Mozilla/5.0 (Linux; Android 5.1.1; MX4 Pro Build/LMY48W) AppleWebKit/537.36 (KHTML, like Gecko) Version/4.0 Chrome/37.0.0.0 Mobile MQQBrowser/6.8 TBS/036849 Safari/537.36 MicroMessenger/6.3.27.880 NetType/WIFI Language/zh_CN'
p961
sg16
S'f5a90813b2c103c605c3361a924d6413'
p962
sa(dp963
g2
S'19537'
p964
sg4
S'7308'
p965
sg6
S'02282188ddf12b499b6a2e17c244996a'
p966
sg8
S'xxe66a79e4abf0ee0c26819cc1c80930c5'
p967
sg10
S'xx5fd173af4f48478e3845007936497554'
p968
sg12
S'xx7a21f23fcff34b4c46bc339b8edfd2de'
p969
sg14
S'Mozilla/5.0 (Linux; Android 5.1.1; MX4 Pro Build/LMY48W) AppleWebKit/537.36 (KHTML, like Gecko) Version/4.0 Chrome/37.0.0.0 Mobile MQQBrowser/6.8 TBS/036849 Safari/537.36 MicroMessenger/6.3.27.880 NetType/WIFI Language/zh_CN'
p970
sg16
S'f5a90813b2c103c605c3361a924d6413'
p971
sa(dp972
g2
S'19537'
p973
sg4
S'7386'
p974
sg6
S'02282188ddf12b499b6a2e17c244996a'
p975
sg8
S'xxe66a79e4abf0ee0c26819cc1c80930c5'
p976
sg10
S'xx5fd173af4f48478e3845007936497554'
p977
sg12
S'xx7a21f23fcff34b4c46bc339b8edfd2de'
p978
sg14
S'Mozilla/5.0 (Linux; Android 5.1.1; MX4 Pro Build/LMY48W) AppleWebKit/537.36 (KHTML, like Gecko) Version/4.0 Chrome/37.0.0.0 Mobile MQQBrowser/6.8 TBS/036849 Safari/537.36 MicroMessenger/6.3.27.880 NetType/WIFI Language/zh_CN'
p979
sg16
S'f5a90813b2c103c605c3361a924d6413'
p980
sa(dp981
g2
S'19537'
p982
sg4
S'7414'
p983
sg6
S'02282188ddf12b499b6a2e17c244996a'
p984
sg8
S'xxe66a79e4abf0ee0c26819cc1c80930c5'
p985
sg10
S'xx5fd173af4f48478e3845007936497554'
p986
sg12
S'xx7a21f23fcff34b4c46bc339b8edfd2de'
p987
sg14
S'Mozilla/5.0 (Linux; Android 5.1.1; MX4 Pro Build/LMY48W) AppleWebKit/537.36 (KHTML, like Gecko) Version/4.0 Chrome/37.0.0.0 Mobile MQQBrowser/6.8 TBS/036849 Safari/537.36 MicroMessenger/6.3.27.880 NetType/WIFI Language/zh_CN'
p988
sg16
S'f5a90813b2c103c605c3361a924d6413'
p989
sa(dp990
g2
S'19537'
p991
sg4
S'7441'
p992
sg6
S'02282188ddf12b499b6a2e17c244996a'
p993
sg8
S'xxe66a79e4abf0ee0c26819cc1c80930c5'
p994
sg10
S'xx5fd173af4f48478e3845007936497554'
p995
sg12
S'xx7a21f23fcff34b4c46bc339b8edfd2de'
p996
sg14
S'Mozilla/5.0 (Linux; Android 5.1.1; MX4 Pro Build/LMY48W) AppleWebKit/537.36 (KHTML, like Gecko) Version/4.0 Chrome/37.0.0.0 Mobile MQQBrowser/6.8 TBS/036849 Safari/537.36 MicroMessenger/6.3.27.880 NetType/WIFI Language/zh_CN'
p997
sg16
S'f5a90813b2c103c605c3361a924d6413'
p998
sa(dp999
g2
S'19537'
p1000
sg4
S'7499'
p1001
sg6
S'02282188ddf12b499b6a2e17c244996a'
p1002
sg8
S'xxe66a79e4abf0ee0c26819cc1c80930c5'
p1003
sg10
S'xx5fd173af4f48478e3845007936497554'
p1004
sg12
S'xx7a21f23fcff34b4c46bc339b8edfd2de'
p1005
sg14
S'Mozilla/5.0 (Linux; Android 5.1.1; MX4 Pro Build/LMY48W) AppleWebKit/537.36 (KHTML, like Gecko) Version/4.0 Chrome/37.0.0.0 Mobile MQQBrowser/6.8 TBS/036849 Safari/537.36 MicroMessenger/6.3.27.880 NetType/WIFI Language/zh_CN'
p1006
sg16
S'f5a90813b2c103c605c3361a924d6413'
p1007
sa(dp1008
g2
S'19537'
p1009
sg4
S'7538'
p1010
sg6
S'02282188ddf12b499b6a2e17c244996a'
p1011
sg8
S'xxe66a79e4abf0ee0c26819cc1c80930c5'
p1012
sg10
S'xx5fd173af4f48478e3845007936497554'
p1013
sg12
S'xx7a21f23fcff34b4c46bc339b8edfd2de'
p1014
sg14
S'Mozilla/5.0 (Linux; Android 5.1.1; MX4 Pro Build/LMY48W) AppleWebKit/537.36 (KHTML, like Gecko) Version/4.0 Chrome/37.0.0.0 Mobile MQQBrowser/6.8 TBS/036849 Safari/537.36 MicroMessenger/6.3.27.880 NetType/WIFI Language/zh_CN'
p1015
sg16
S'f5a90813b2c103c605c3361a924d6413'
p1016
sa(dp1017
g2
S'19537'
p1018
sg4
S'7549'
p1019
sg6
S'02282188ddf12b499b6a2e17c244996a'
p1020
sg8
S'xxe66a79e4abf0ee0c26819cc1c80930c5'
p1021
sg10
S'xx5fd173af4f48478e3845007936497554'
p1022
sg12
S'xx7a21f23fcff34b4c46bc339b8edfd2de'
p1023
sg14
S'Mozilla/5.0 (Linux; Android 5.1.1; MX4 Pro Build/LMY48W) AppleWebKit/537.36 (KHTML, like Gecko) Version/4.0 Chrome/37.0.0.0 Mobile MQQBrowser/6.8 TBS/036849 Safari/537.36 MicroMessenger/6.3.27.880 NetType/WIFI Language/zh_CN'
p1024
sg16
S'f5a90813b2c103c605c3361a924d6413'
p1025
sa(dp1026
g2
S'19537'
p1027
sg4
S'7563'
p1028
sg6
S'02282188ddf12b499b6a2e17c244996a'
p1029
sg8
S'xxe66a79e4abf0ee0c26819cc1c80930c5'
p1030
sg10
S'xx5fd173af4f48478e3845007936497554'
p1031
sg12
S'xx7a21f23fcff34b4c46bc339b8edfd2de'
p1032
sg14
S'Mozilla/5.0 (Linux; Android 5.1.1; MX4 Pro Build/LMY48W) AppleWebKit/537.36 (KHTML, like Gecko) Version/4.0 Chrome/37.0.0.0 Mobile MQQBrowser/6.8 TBS/036849 Safari/537.36 MicroMessenger/6.3.27.880 NetType/WIFI Language/zh_CN'
p1033
sg16
S'f5a90813b2c103c605c3361a924d6413'
p1034
sa(dp1035
g2
S'19537'
p1036
sg4
S'7577'
p1037
sg6
S'02282188ddf12b499b6a2e17c244996a'
p1038
sg8
S'xxe66a79e4abf0ee0c26819cc1c80930c5'
p1039
sg10
S'xx5fd173af4f48478e3845007936497554'
p1040
sg12
S'xx7a21f23fcff34b4c46bc339b8edfd2de'
p1041
sg14
S'Mozilla/5.0 (Linux; Android 5.1.1; MX4 Pro Build/LMY48W) AppleWebKit/537.36 (KHTML, like Gecko) Version/4.0 Chrome/37.0.0.0 Mobile MQQBrowser/6.8 TBS/036849 Safari/537.36 MicroMessenger/6.3.27.880 NetType/WIFI Language/zh_CN'
p1042
sg16
S'f5a90813b2c103c605c3361a924d6413'
p1043
sa(dp1044
g2
S'19537'
p1045
sg4
S'7589'
p1046
sg6
S'02282188ddf12b499b6a2e17c244996a'
p1047
sg8
S'xxe66a79e4abf0ee0c26819cc1c80930c5'
p1048
sg10
S'xx5fd173af4f48478e3845007936497554'
p1049
sg12
S'xx7a21f23fcff34b4c46bc339b8edfd2de'
p1050
sg14
S'Mozilla/5.0 (Linux; Android 5.1.1; MX4 Pro Build/LMY48W) AppleWebKit/537.36 (KHTML, like Gecko) Version/4.0 Chrome/37.0.0.0 Mobile MQQBrowser/6.8 TBS/036849 Safari/537.36 MicroMessenger/6.3.27.880 NetType/WIFI Language/zh_CN'
p1051
sg16
S'f5a90813b2c103c605c3361a924d6413'
p1052
sa(dp1053
g2
S'19537'
p1054
sg4
S'7598'
p1055
sg6
S'02282188ddf12b499b6a2e17c244996a'
p1056
sg8
S'xxe66a79e4abf0ee0c26819cc1c80930c5'
p1057
sg10
S'xx5fd173af4f48478e3845007936497554'
p1058
sg12
S'xx7a21f23fcff34b4c46bc339b8edfd2de'
p1059
sg14
S'Mozilla/5.0 (Linux; Android 5.1.1; MX4 Pro Build/LMY48W) AppleWebKit/537.36 (KHTML, like Gecko) Version/4.0 Chrome/37.0.0.0 Mobile MQQBrowser/6.8 TBS/036849 Safari/537.36 MicroMessenger/6.3.27.880 NetType/WIFI Language/zh_CN'
p1060
sg16
S'f5a90813b2c103c605c3361a924d6413'
p1061
sa(dp1062
g2
S'19537'
p1063
sg4
S'7608'
p1064
sg6
S'02282188ddf12b499b6a2e17c244996a'
p1065
sg8
S'xxe66a79e4abf0ee0c26819cc1c80930c5'
p1066
sg10
S'xx5fd173af4f48478e3845007936497554'
p1067
sg12
S'xx7a21f23fcff34b4c46bc339b8edfd2de'
p1068
sg14
S'Mozilla/5.0 (Linux; Android 5.1.1; MX4 Pro Build/LMY48W) AppleWebKit/537.36 (KHTML, like Gecko) Version/4.0 Chrome/37.0.0.0 Mobile MQQBrowser/6.8 TBS/036849 Safari/537.36 MicroMessenger/6.3.27.880 NetType/WIFI Language/zh_CN'
p1069
sg16
S'f5a90813b2c103c605c3361a924d6413'
p1070
sa(dp1071
g2
S'19537'
p1072
sg4
S'7621'
p1073
sg6
S'02282188ddf12b499b6a2e17c244996a'
p1074
sg8
S'xxe66a79e4abf0ee0c26819cc1c80930c5'
p1075
sg10
S'xx5fd173af4f48478e3845007936497554'
p1076
sg12
S'xx7a21f23fcff34b4c46bc339b8edfd2de'
p1077
sg14
S'Mozilla/5.0 (Linux; Android 5.1.1; MX4 Pro Build/LMY48W) AppleWebKit/537.36 (KHTML, like Gecko) Version/4.0 Chrome/37.0.0.0 Mobile MQQBrowser/6.8 TBS/036849 Safari/537.36 MicroMessenger/6.3.27.880 NetType/WIFI Language/zh_CN'
p1078
sg16
S'f5a90813b2c103c605c3361a924d6413'
p1079
sa(dp1080
g2
S'19537'
p1081
sg4
S'7642'
p1082
sg6
S'02282188ddf12b499b6a2e17c244996a'
p1083
sg8
S'xxe66a79e4abf0ee0c26819cc1c80930c5'
p1084
sg10
S'xx5fd173af4f48478e3845007936497554'
p1085
sg12
S'xx7a21f23fcff34b4c46bc339b8edfd2de'
p1086
sg14
S'Mozilla/5.0 (Linux; Android 5.1.1; MX4 Pro Build/LMY48W) AppleWebKit/537.36 (KHTML, like Gecko) Version/4.0 Chrome/37.0.0.0 Mobile MQQBrowser/6.8 TBS/036849 Safari/537.36 MicroMessenger/6.3.27.880 NetType/WIFI Language/zh_CN'
p1087
sg16
S'f5a90813b2c103c605c3361a924d6413'
p1088
sa(dp1089
g2
S'19537'
p1090
sg4
S'7655'
p1091
sg6
S'02282188ddf12b499b6a2e17c244996a'
p1092
sg8
S'xxe66a79e4abf0ee0c26819cc1c80930c5'
p1093
sg10
S'xx5fd173af4f48478e3845007936497554'
p1094
sg12
S'xx7a21f23fcff34b4c46bc339b8edfd2de'
p1095
sg14
S'Mozilla/5.0 (Linux; Android 5.1.1; MX4 Pro Build/LMY48W) AppleWebKit/537.36 (KHTML, like Gecko) Version/4.0 Chrome/37.0.0.0 Mobile MQQBrowser/6.8 TBS/036849 Safari/537.36 MicroMessenger/6.3.27.880 NetType/WIFI Language/zh_CN'
p1096
sg16
S'f5a90813b2c103c605c3361a924d6413'
p1097
sa(dp1098
g2
S'19537'
p1099
sg4
S'7669'
p1100
sg6
S'02282188ddf12b499b6a2e17c244996a'
p1101
sg8
S'xxe66a79e4abf0ee0c26819cc1c80930c5'
p1102
sg10
S'xx5fd173af4f48478e3845007936497554'
p1103
sg12
S'xx7a21f23fcff34b4c46bc339b8edfd2de'
p1104
sg14
S'Mozilla/5.0 (Linux; Android 5.1.1; MX4 Pro Build/LMY48W) AppleWebKit/537.36 (KHTML, like Gecko) Version/4.0 Chrome/37.0.0.0 Mobile MQQBrowser/6.8 TBS/036849 Safari/537.36 MicroMessenger/6.3.27.880 NetType/WIFI Language/zh_CN'
p1105
sg16
S'f5a90813b2c103c605c3361a924d6413'
p1106
sa.