(lp0
(dp1
S'user_id'
p2
S'44643'
p3
sS'data_id'
p4
S'6857'
p5
sS'ip'
p6
S'a9178732a905478fe713174dc3bc2579'
p7
sS'phone_B'
p8
S'xxb321e2e27bc5ce81cab1907561a97e8b'
p9
sS'phone_C'
p10
S'xxa6d6c8e9e0447e2601cc502360739b8e'
p11
sS'phone_A'
p12
S'xx7b0e59bfacd8926349da119d4d7f1216'
p13
sS'user_agent'
p14
S'Mozilla/5.0 (Linux; Android 5.1.1; HUAWEI TIT-CL00 Build/HUAWEITIT-CL00) AppleWebKit/537.36 (KHTML, like Gecko) Version/4.0 Chrome/37.0.0.0 Mobile MQQBrowser/6.8 TBS/036849 Safari/537.36 MicroMessenger/6.3.25.860 NetType/WIFI Language/zh_CN'
p15
sS'ua'
p16
S'0c4f489dfe1147965efb3b5e6acaeedb'
p17
sa(dp18
g2
S'44643'
p19
sg4
S'6874'
p20
sg6
S'a9178732a905478fe713174dc3bc2579'
p21
sg8
S'xxb321e2e27bc5ce81cab1907561a97e8b'
p22
sg10
S'xxa6d6c8e9e0447e2601cc502360739b8e'
p23
sg12
S'xx7b0e59bfacd8926349da119d4d7f1216'
p24
sg14
S'Mozilla/5.0 (Linux; Android 5.1.1; HUAWEI TIT-CL00 Build/HUAWEITIT-CL00) AppleWebKit/537.36 (KHTML, like Gecko) Version/4.0 Chrome/37.0.0.0 Mobile MQQBrowser/6.8 TBS/036849 Safari/537.36 MicroMessenger/6.3.25.860 NetType/WIFI Language/zh_CN'
p25
sg16
S'0c4f489dfe1147965efb3b5e6acaeedb'
p26
sa.