(lp0
(dp1
S'user_id'
p2
S'4902'
p3
sS'data_id'
p4
S'6509'
p5
sS'ip'
p6
S'70650d592bfe20862c4f96a4a9fe77d6'
p7
sS'phone_B'
p8
S'xxd82e5e611f5c998347d4e0cb9c085a35'
p9
sS'phone_C'
p10
S'xx56173981ee3abe7f88e74c71a7a2ce7f'
p11
sS'phone_A'
p12
S'xx7fad21cd5bc22c360de8d3d5abacf1b2'
p13
sS'user_agent'
p14
S'Mozilla/5.0 (Linux; Android 6.0; HUAWEI CRR-CL00 Build/HUAWEICRR-CL00) AppleWebKit/537.36 (KHTML, like Gecko) Version/4.0 Chrome/37.0.0.0 Mobile MQQBrowser/6.8 TBS/036849 Safari/537.36 MicroMessenger/6.3.27.880 NetType/WIFI Language/zh_CN'
p15
sS'ua'
p16
S'cb1fc24045af32470535c8c20c808ae0'
p17
sa(dp18
g2
S'4902'
p19
sg4
S'6532'
p20
sg6
S'70650d592bfe20862c4f96a4a9fe77d6'
p21
sg8
S'xxd82e5e611f5c998347d4e0cb9c085a35'
p22
sg10
S'xx56173981ee3abe7f88e74c71a7a2ce7f'
p23
sg12
S'xx7fad21cd5bc22c360de8d3d5abacf1b2'
p24
sg14
S'Mozilla/5.0 (Linux; Android 6.0; HUAWEI CRR-CL00 Build/HUAWEICRR-CL00) AppleWebKit/537.36 (KHTML, like Gecko) Version/4.0 Chrome/37.0.0.0 Mobile MQQBrowser/6.8 TBS/036849 Safari/537.36 MicroMessenger/6.3.27.880 NetType/WIFI Language/zh_CN'
p25
sg16
S'cb1fc24045af32470535c8c20c808ae0'
p26
sa(dp27
g2
S'4902'
p28
sg4
S'8261'
p29
sg6
S'f0aa28bb06217d46f9d47740dc5cab6c'
p30
sg8
S'xxd82e5e611f5c998347d4e0cb9c085a35'
p31
sg10
S'xx56173981ee3abe7f88e74c71a7a2ce7f'
p32
sg12
S'xx7fad21cd5bc22c360de8d3d5abacf1b2'
p33
sg14
S'Mozilla/5.0 (Linux; Android 6.0; HUAWEI CRR-CL00 Build/HUAWEICRR-CL00) AppleWebKit/537.36 (KHTML, like Gecko) Version/4.0 Chrome/37.0.0.0 Mobile MQQBrowser/6.8 TBS/036849 Safari/537.36 MicroMessenger/6.3.27.880 NetType/WIFI Language/zh_CN'
p34
sg16
S'cb1fc24045af32470535c8c20c808ae0'
p35
sa(dp36
g2
S'4902'
p37
sg4
S'8275'
p38
sg6
S'f0aa28bb06217d46f9d47740dc5cab6c'
p39
sg8
S'xxd82e5e611f5c998347d4e0cb9c085a35'
p40
sg10
S'xx56173981ee3abe7f88e74c71a7a2ce7f'
p41
sg12
S'xx7fad21cd5bc22c360de8d3d5abacf1b2'
p42
sg14
S'Mozilla/5.0 (Linux; Android 6.0; HUAWEI CRR-CL00 Build/HUAWEICRR-CL00) AppleWebKit/537.36 (KHTML, like Gecko) Version/4.0 Chrome/37.0.0.0 Mobile MQQBrowser/6.8 TBS/036849 Safari/537.36 MicroMessenger/6.3.27.880 NetType/WIFI Language/zh_CN'
p43
sg16
S'cb1fc24045af32470535c8c20c808ae0'
p44
sa.