(lp0
(dp1
S'user_id'
p2
S'48431'
p3
sS'data_id'
p4
S'1410'
p5
sS'ip'
p6
S'21678c5c2cb28f9427d740d238454637'
p7
sS'phone_B'
p8
S'xxcaf0cbb2dc256b7ad1e20259a1264ca9'
p9
sS'phone_C'
p10
S'xx40feee7018cd510b89697d144cbc2e47'
p11
sS'phone_A'
p12
S'xx7ff4953c85d7212e987bb59f9140addc'
p13
sS'user_agent'
p14
S'Mozilla/5.0 (Linux; Android 5.1.1; vivo V3 Build/LMY47V) AppleWebKit/537.36 (KHTML, like Gecko) Version/4.0 Chrome/37.0.0.0 Mobile MQQBrowser/6.8 TBS/036849 Safari/537.36 MicroMessenger/6.3.27.880 NetType/WIFI Language/zh_CN'
p15
sS'ua'
p16
S'1c4c036063ced5b65e8b63d29afc114b'
p17
sa(dp18
g2
S'48431'
p19
sg4
S'1430'
p20
sg6
S'21678c5c2cb28f9427d740d238454637'
p21
sg8
S'xxcaf0cbb2dc256b7ad1e20259a1264ca9'
p22
sg10
S'xx40feee7018cd510b89697d144cbc2e47'
p23
sg12
S'xx7ff4953c85d7212e987bb59f9140addc'
p24
sg14
S'Mozilla/5.0 (Linux; Android 5.1.1; vivo V3 Build/LMY47V) AppleWebKit/537.36 (KHTML, like Gecko) Version/4.0 Chrome/37.0.0.0 Mobile MQQBrowser/6.8 TBS/036849 Safari/537.36 MicroMessenger/6.3.27.880 NetType/WIFI Language/zh_CN'
p25
sg16
S'1c4c036063ced5b65e8b63d29afc114b'
p26
sa(dp27
g2
S'48431'
p28
sg4
S'1448'
p29
sg6
S'21678c5c2cb28f9427d740d238454637'
p30
sg8
S'xxcaf0cbb2dc256b7ad1e20259a1264ca9'
p31
sg10
S'xx40feee7018cd510b89697d144cbc2e47'
p32
sg12
S'xx7ff4953c85d7212e987bb59f9140addc'
p33
sg14
S'Mozilla/5.0 (Linux; Android 5.1.1; vivo V3 Build/LMY47V) AppleWebKit/537.36 (KHTML, like Gecko) Version/4.0 Chrome/37.0.0.0 Mobile MQQBrowser/6.8 TBS/036849 Safari/537.36 MicroMessenger/6.3.27.880 NetType/WIFI Language/zh_CN'
p34
sg16
S'1c4c036063ced5b65e8b63d29afc114b'
p35
sa(dp36
g2
S'42348'
p37
sg4
S'6529'
p38
sg6
S'21678c5c2cb28f9427d740d238454637'
p39
sg8
S'xx3acb5a51bec789aed33b98c6ace21a51'
p40
sg10
S'xx46e4fb83f5880bd7bc20ade1f2b7de4d'
p41
sg12
S'xx7ff4953c85d7212e987bb59f9140addc'
p42
sg14
S'Mozilla/5.0 (Linux; Android 5.1.1; vivo V3 Build/LMY47V) AppleWebKit/537.36 (KHTML, like Gecko) Version/4.0 Chrome/37.0.0.0 Mobile MQQBrowser/6.8 TBS/036849 Safari/537.36 MicroMessenger/6.3.27.880 NetType/WIFI Language/zh_CN'
p43
sg16
S'1c4c036063ced5b65e8b63d29afc114b'
p44
sa(dp45
g2
S'42348'
p46
sg4
S'6553'
p47
sg6
S'21678c5c2cb28f9427d740d238454637'
p48
sg8
S'xx3acb5a51bec789aed33b98c6ace21a51'
p49
sg10
S'xx46e4fb83f5880bd7bc20ade1f2b7de4d'
p50
sg12
S'xx7ff4953c85d7212e987bb59f9140addc'
p51
sg14
S'Mozilla/5.0 (Linux; Android 5.1.1; vivo V3 Build/LMY47V) AppleWebKit/537.36 (KHTML, like Gecko) Version/4.0 Chrome/37.0.0.0 Mobile MQQBrowser/6.8 TBS/036849 Safari/537.36 MicroMessenger/6.3.27.880 NetType/WIFI Language/zh_CN'
p52
sg16
S'1c4c036063ced5b65e8b63d29afc114b'
p53
sa(dp54
g2
S'42348'
p55
sg4
S'6568'
p56
sg6
S'21678c5c2cb28f9427d740d238454637'
p57
sg8
S'xx3acb5a51bec789aed33b98c6ace21a51'
p58
sg10
S'xx46e4fb83f5880bd7bc20ade1f2b7de4d'
p59
sg12
S'xx7ff4953c85d7212e987bb59f9140addc'
p60
sg14
S'Mozilla/5.0 (Linux; Android 5.1.1; vivo V3 Build/LMY47V) AppleWebKit/537.36 (KHTML, like Gecko) Version/4.0 Chrome/37.0.0.0 Mobile MQQBrowser/6.8 TBS/036849 Safari/537.36 MicroMessenger/6.3.27.880 NetType/WIFI Language/zh_CN'
p61
sg16
S'1c4c036063ced5b65e8b63d29afc114b'
p62
sa(dp63
g2
S'42348'
p64
sg4
S'6587'
p65
sg6
S'21678c5c2cb28f9427d740d238454637'
p66
sg8
S'xx3acb5a51bec789aed33b98c6ace21a51'
p67
sg10
S'xx46e4fb83f5880bd7bc20ade1f2b7de4d'
p68
sg12
S'xx7ff4953c85d7212e987bb59f9140addc'
p69
sg14
S'Mozilla/5.0 (Linux; Android 5.1.1; vivo V3 Build/LMY47V) AppleWebKit/537.36 (KHTML, like Gecko) Version/4.0 Chrome/37.0.0.0 Mobile MQQBrowser/6.8 TBS/036849 Safari/537.36 MicroMessenger/6.3.27.880 NetType/WIFI Language/zh_CN'
p70
sg16
S'1c4c036063ced5b65e8b63d29afc114b'
p71
sa(dp72
g2
S'42348'
p73
sg4
S'6603'
p74
sg6
S'21678c5c2cb28f9427d740d238454637'
p75
sg8
S'xx3acb5a51bec789aed33b98c6ace21a51'
p76
sg10
S'xx46e4fb83f5880bd7bc20ade1f2b7de4d'
p77
sg12
S'xx7ff4953c85d7212e987bb59f9140addc'
p78
sg14
S'Mozilla/5.0 (Linux; Android 5.1.1; vivo V3 Build/LMY47V) AppleWebKit/537.36 (KHTML, like Gecko) Version/4.0 Chrome/37.0.0.0 Mobile MQQBrowser/6.8 TBS/036849 Safari/537.36 MicroMessenger/6.3.27.880 NetType/WIFI Language/zh_CN'
p79
sg16
S'1c4c036063ced5b65e8b63d29afc114b'
p80
sa.