(lp0
(dp1
S'user_id'
p2
S'31547'
p3
sS'data_id'
p4
S'8842'
p5
sS'ip'
p6
S'5faf64e62724dc419683ce2a10013026'
p7
sS'phone_B'
p8
S'xx10c6538f02ea404a37600da336134bf6'
p9
sS'phone_C'
p10
S'xxe7c81fd998a3cba8cd08008e22d09fe8'
p11
sS'phone_A'
p12
S'xx7fa8f64e4ff22d5ea83eca57643d1f3f'
p13
sS'user_agent'
p14
S'Mozilla/5.0 (Linux; Android 5.1.1; 2014813 Build/LMY47V) AppleWebKit/537.36 (KHTML, like Gecko) Version/4.0 Chrome/37.0.0.0 Mobile MQQBrowser/6.8 TBS/036849 Safari/537.36 MicroMessenger/6.3.27.880 NetType/cmnet Language/zh_CN'
p15
sS'ua'
p16
S'9643d9224f1337e8a3026e2daeaddd67'
p17
sa.