(lp0
(dp1
S'user_id'
p2
S'9979'
p3
sS'data_id'
p4
S'1267'
p5
sS'ip'
p6
S'67631ab5cabe0c4eb1eac9f721b20428'
p7
sS'phone_B'
p8
S'xxc88c0f9657b9d59074e9f55bc45f786a'
p9
sS'phone_C'
p10
S'xx7da43778d6f9f922961425de9175718d'
p11
sS'phone_A'
p12
S'xx802c80f50f22a411191703eb2b6d7d65'
p13
sS'user_agent'
p14
S'Mozilla/5.0 (Linux; Android 5.1; m1 note Build/LMY47D) AppleWebKit/537.36 (KHTML, like Gecko) Version/4.0 Chrome/37.0.0.0 Mobile MQQBrowser/6.8 TBS/036824 Safari/537.36 MicroMessenger/6.3.27.880 NetType/WIFI Language/zh_CN'
p15
sS'ua'
p16
S'ba1218d160fa5ddfa668407bc8ac8ec6'
p17
sa(dp18
g2
S'9979'
p19
sg4
S'1280'
p20
sg6
S'67631ab5cabe0c4eb1eac9f721b20428'
p21
sg8
S'xxc88c0f9657b9d59074e9f55bc45f786a'
p22
sg10
S'xx7da43778d6f9f922961425de9175718d'
p23
sg12
S'xx802c80f50f22a411191703eb2b6d7d65'
p24
sg14
S'Mozilla/5.0 (Linux; Android 5.1; m1 note Build/LMY47D) AppleWebKit/537.36 (KHTML, like Gecko) Version/4.0 Chrome/37.0.0.0 Mobile MQQBrowser/6.8 TBS/036824 Safari/537.36 MicroMessenger/6.3.27.880 NetType/WIFI Language/zh_CN'
p25
sg16
S'ba1218d160fa5ddfa668407bc8ac8ec6'
p26
sa(dp27
g2
S'9979'
p28
sg4
S'1293'
p29
sg6
S'67631ab5cabe0c4eb1eac9f721b20428'
p30
sg8
S'xxc88c0f9657b9d59074e9f55bc45f786a'
p31
sg10
S'xx7da43778d6f9f922961425de9175718d'
p32
sg12
S'xx802c80f50f22a411191703eb2b6d7d65'
p33
sg14
S'Mozilla/5.0 (Linux; Android 5.1; m1 note Build/LMY47D) AppleWebKit/537.36 (KHTML, like Gecko) Version/4.0 Chrome/37.0.0.0 Mobile MQQBrowser/6.8 TBS/036824 Safari/537.36 MicroMessenger/6.3.27.880 NetType/WIFI Language/zh_CN'
p34
sg16
S'ba1218d160fa5ddfa668407bc8ac8ec6'
p35
sa(dp36
g2
S'9979'
p37
sg4
S'1470'
p38
sg6
S'67631ab5cabe0c4eb1eac9f721b20428'
p39
sg8
S'xxc88c0f9657b9d59074e9f55bc45f786a'
p40
sg10
S'xx7da43778d6f9f922961425de9175718d'
p41
sg12
S'xx802c80f50f22a411191703eb2b6d7d65'
p42
sg14
S'Mozilla/5.0 (Linux; Android 5.1; m1 note Build/LMY47D) AppleWebKit/537.36 (KHTML, like Gecko) Version/4.0 Chrome/37.0.0.0 Mobile MQQBrowser/6.8 TBS/036824 Safari/537.36 MicroMessenger/6.3.27.880 NetType/WIFI Language/zh_CN'
p43
sg16
S'ba1218d160fa5ddfa668407bc8ac8ec6'
p44
sa(dp45
g2
S'47623'
p46
sg4
S'2237'
p47
sg6
S'0fe4470bcb3e653374fa227d70ff6431'
p48
sg8
S'xx6427617932017b5657cae91ce81817ca'
p49
sg10
S'xx7da43778d6f9f922961425de9175718d'
p50
sg12
S'xx802c80f50f22a411191703eb2b6d7d65'
p51
sg14
S'Mozilla/5.0 (Linux; Android 5.1; m1 note Build/LMY47D) AppleWebKit/537.36 (KHTML, like Gecko) Version/4.0 Chrome/37.0.0.0 Mobile MQQBrowser/6.8 TBS/036849 Safari/537.36 MicroMessenger/6.3.27.880 NetType/cmnet Language/zh_CN'
p52
sg16
S'19702a207c1e8cdea26d431fdf13fd72'
p53
sa(dp54
g2
S'47623'
p55
sg4
S'2254'
p56
sg6
S'0fe4470bcb3e653374fa227d70ff6431'
p57
sg8
S'xx6427617932017b5657cae91ce81817ca'
p58
sg10
S'xx7da43778d6f9f922961425de9175718d'
p59
sg12
S'xx802c80f50f22a411191703eb2b6d7d65'
p60
sg14
S'Mozilla/5.0 (Linux; Android 5.1; m1 note Build/LMY47D) AppleWebKit/537.36 (KHTML, like Gecko) Version/4.0 Chrome/37.0.0.0 Mobile MQQBrowser/6.8 TBS/036849 Safari/537.36 MicroMessenger/6.3.27.880 NetType/cmnet Language/zh_CN'
p61
sg16
S'19702a207c1e8cdea26d431fdf13fd72'
p62
sa.