(lp0
(dp1
S'user_id'
p2
S'22347'
p3
sS'data_id'
p4
S'3590'
p5
sS'ip'
p6
S'c053915e38aa9f35ab188f266fa74b8a'
p7
sS'phone_B'
p8
S'xx90f99dc9e2f025fa4d029dacda90a148'
p9
sS'phone_C'
p10
S'xxf0ce69602a68e5d82c03993c78018e89'
p11
sS'phone_A'
p12
S'xx80059c06c951195863e853fc2c4ea58d'
p13
sS'user_agent'
p14
S'Mozilla/5.0 (Linux; Android 4.4.2; Hisense E602M Build/KOT49H) AppleWebKit/537.36 (KHTML, like Gecko) Version/4.0 Chrome/37.0.0.0 Mobile MQQBrowser/6.8 TBS/036824 Safari/537.36 MicroMessenger/6.3.27.880 NetType/WIFI Language/zh_CN'
p15
sS'ua'
p16
S'df8632087dcb0f179ee41a459f3d4d39'
p17
sa(dp18
g2
S'22347'
p19
sg4
S'3602'
p20
sg6
S'c053915e38aa9f35ab188f266fa74b8a'
p21
sg8
S'xx90f99dc9e2f025fa4d029dacda90a148'
p22
sg10
S'xxf0ce69602a68e5d82c03993c78018e89'
p23
sg12
S'xx80059c06c951195863e853fc2c4ea58d'
p24
sg14
S'Mozilla/5.0 (Linux; Android 4.4.2; Hisense E602M Build/KOT49H) AppleWebKit/537.36 (KHTML, like Gecko) Version/4.0 Chrome/37.0.0.0 Mobile MQQBrowser/6.8 TBS/036824 Safari/537.36 MicroMessenger/6.3.27.880 NetType/WIFI Language/zh_CN'
p25
sg16
S'df8632087dcb0f179ee41a459f3d4d39'
p26
sa(dp27
g2
S'22347'
p28
sg4
S'3643'
p29
sg6
S'c053915e38aa9f35ab188f266fa74b8a'
p30
sg8
S'xx90f99dc9e2f025fa4d029dacda90a148'
p31
sg10
S'xxf0ce69602a68e5d82c03993c78018e89'
p32
sg12
S'xx80059c06c951195863e853fc2c4ea58d'
p33
sg14
S'Mozilla/5.0 (Linux; Android 4.4.2; Hisense E602M Build/KOT49H) AppleWebKit/537.36 (KHTML, like Gecko) Version/4.0 Chrome/37.0.0.0 Mobile MQQBrowser/6.8 TBS/036824 Safari/537.36 MicroMessenger/6.3.27.880 NetType/WIFI Language/zh_CN'
p34
sg16
S'df8632087dcb0f179ee41a459f3d4d39'
p35
sa(dp36
g2
S'22347'
p37
sg4
S'3803'
p38
sg6
S'c053915e38aa9f35ab188f266fa74b8a'
p39
sg8
S'xx90f99dc9e2f025fa4d029dacda90a148'
p40
sg10
S'xxf0ce69602a68e5d82c03993c78018e89'
p41
sg12
S'xx80059c06c951195863e853fc2c4ea58d'
p42
sg14
S'Mozilla/5.0 (Linux; Android 4.4.2; Hisense E602M Build/KOT49H) AppleWebKit/537.36 (KHTML, like Gecko) Version/4.0 Chrome/37.0.0.0 Mobile MQQBrowser/6.8 TBS/036824 Safari/537.36 MicroMessenger/6.3.27.880 NetType/WIFI Language/zh_CN'
p43
sg16
S'df8632087dcb0f179ee41a459f3d4d39'
p44
sa(dp45
g2
S'22347'
p46
sg4
S'3817'
p47
sg6
S'c053915e38aa9f35ab188f266fa74b8a'
p48
sg8
S'xx90f99dc9e2f025fa4d029dacda90a148'
p49
sg10
S'xxf0ce69602a68e5d82c03993c78018e89'
p50
sg12
S'xx80059c06c951195863e853fc2c4ea58d'
p51
sg14
S'Mozilla/5.0 (Linux; Android 4.4.2; Hisense E602M Build/KOT49H) AppleWebKit/537.36 (KHTML, like Gecko) Version/4.0 Chrome/37.0.0.0 Mobile MQQBrowser/6.8 TBS/036824 Safari/537.36 MicroMessenger/6.3.27.880 NetType/WIFI Language/zh_CN'
p52
sg16
S'df8632087dcb0f179ee41a459f3d4d39'
p53
sa(dp54
g2
S'22347'
p55
sg4
S'4653'
p56
sg6
S'c053915e38aa9f35ab188f266fa74b8a'
p57
sg8
S'xx90f99dc9e2f025fa4d029dacda90a148'
p58
sg10
S'xxf0ce69602a68e5d82c03993c78018e89'
p59
sg12
S'xx80059c06c951195863e853fc2c4ea58d'
p60
sg14
S'Mozilla/5.0 (Linux; Android 4.4.2; Hisense E602M Build/KOT49H) AppleWebKit/537.36 (KHTML, like Gecko) Version/4.0 Chrome/37.0.0.0 Mobile MQQBrowser/6.8 TBS/036824 Safari/537.36 MicroMessenger/6.3.27.880 NetType/WIFI Language/zh_CN'
p61
sg16
S'df8632087dcb0f179ee41a459f3d4d39'
p62
sa(dp63
g2
S'22347'
p64
sg4
S'4669'
p65
sg6
S'c053915e38aa9f35ab188f266fa74b8a'
p66
sg8
S'xx90f99dc9e2f025fa4d029dacda90a148'
p67
sg10
S'xxf0ce69602a68e5d82c03993c78018e89'
p68
sg12
S'xx80059c06c951195863e853fc2c4ea58d'
p69
sg14
S'Mozilla/5.0 (Linux; Android 4.4.2; Hisense E602M Build/KOT49H) AppleWebKit/537.36 (KHTML, like Gecko) Version/4.0 Chrome/37.0.0.0 Mobile MQQBrowser/6.8 TBS/036824 Safari/537.36 MicroMessenger/6.3.27.880 NetType/WIFI Language/zh_CN'
p70
sg16
S'df8632087dcb0f179ee41a459f3d4d39'
p71
sa(dp72
g2
S'22347'
p73
sg4
S'4685'
p74
sg6
S'c053915e38aa9f35ab188f266fa74b8a'
p75
sg8
S'xx90f99dc9e2f025fa4d029dacda90a148'
p76
sg10
S'xxf0ce69602a68e5d82c03993c78018e89'
p77
sg12
S'xx80059c06c951195863e853fc2c4ea58d'
p78
sg14
S'Mozilla/5.0 (Linux; Android 4.4.2; Hisense E602M Build/KOT49H) AppleWebKit/537.36 (KHTML, like Gecko) Version/4.0 Chrome/37.0.0.0 Mobile MQQBrowser/6.8 TBS/036824 Safari/537.36 MicroMessenger/6.3.27.880 NetType/WIFI Language/zh_CN'
p79
sg16
S'df8632087dcb0f179ee41a459f3d4d39'
p80
sa(dp81
g2
S'22347'
p82
sg4
S'5513'
p83
sg6
S'7232b7885490fb23a266c5b90872da66'
p84
sg8
S'xx90f99dc9e2f025fa4d029dacda90a148'
p85
sg10
S'xxf0ce69602a68e5d82c03993c78018e89'
p86
sg12
S'xx80059c06c951195863e853fc2c4ea58d'
p87
sg14
S'Mozilla/5.0 (Linux; Android 4.4.2; Hisense E602M Build/KOT49H) AppleWebKit/537.36 (KHTML, like Gecko) Version/4.0 Chrome/37.0.0.0 Mobile MQQBrowser/6.8 TBS/036824 Safari/537.36 MicroMessenger/6.3.27.880 NetType/WIFI Language/zh_CN'
p88
sg16
S'df8632087dcb0f179ee41a459f3d4d39'
p89
sa(dp90
g2
S'22347'
p91
sg4
S'5532'
p92
sg6
S'7232b7885490fb23a266c5b90872da66'
p93
sg8
S'xx90f99dc9e2f025fa4d029dacda90a148'
p94
sg10
S'xxf0ce69602a68e5d82c03993c78018e89'
p95
sg12
S'xx80059c06c951195863e853fc2c4ea58d'
p96
sg14
S'Mozilla/5.0 (Linux; Android 4.4.2; Hisense E602M Build/KOT49H) AppleWebKit/537.36 (KHTML, like Gecko) Version/4.0 Chrome/37.0.0.0 Mobile MQQBrowser/6.8 TBS/036824 Safari/537.36 MicroMessenger/6.3.27.880 NetType/WIFI Language/zh_CN'
p97
sg16
S'df8632087dcb0f179ee41a459f3d4d39'
p98
sa(dp99
g2
S'22347'
p100
sg4
S'5548'
p101
sg6
S'7232b7885490fb23a266c5b90872da66'
p102
sg8
S'xx90f99dc9e2f025fa4d029dacda90a148'
p103
sg10
S'xxf0ce69602a68e5d82c03993c78018e89'
p104
sg12
S'xx80059c06c951195863e853fc2c4ea58d'
p105
sg14
S'Mozilla/5.0 (Linux; Android 4.4.2; Hisense E602M Build/KOT49H) AppleWebKit/537.36 (KHTML, like Gecko) Version/4.0 Chrome/37.0.0.0 Mobile MQQBrowser/6.8 TBS/036824 Safari/537.36 MicroMessenger/6.3.27.880 NetType/WIFI Language/zh_CN'
p106
sg16
S'df8632087dcb0f179ee41a459f3d4d39'
p107
sa(dp108
g2
S'22347'
p109
sg4
S'5564'
p110
sg6
S'7232b7885490fb23a266c5b90872da66'
p111
sg8
S'xx90f99dc9e2f025fa4d029dacda90a148'
p112
sg10
S'xxf0ce69602a68e5d82c03993c78018e89'
p113
sg12
S'xx80059c06c951195863e853fc2c4ea58d'
p114
sg14
S'Mozilla/5.0 (Linux; Android 4.4.2; Hisense E602M Build/KOT49H) AppleWebKit/537.36 (KHTML, like Gecko) Version/4.0 Chrome/37.0.0.0 Mobile MQQBrowser/6.8 TBS/036824 Safari/537.36 MicroMessenger/6.3.27.880 NetType/WIFI Language/zh_CN'
p115
sg16
S'df8632087dcb0f179ee41a459f3d4d39'
p116
sa(dp117
g2
S'22347'
p118
sg4
S'5578'
p119
sg6
S'7232b7885490fb23a266c5b90872da66'
p120
sg8
S'xx90f99dc9e2f025fa4d029dacda90a148'
p121
sg10
S'xxf0ce69602a68e5d82c03993c78018e89'
p122
sg12
S'xx80059c06c951195863e853fc2c4ea58d'
p123
sg14
S'Mozilla/5.0 (Linux; Android 4.4.2; Hisense E602M Build/KOT49H) AppleWebKit/537.36 (KHTML, like Gecko) Version/4.0 Chrome/37.0.0.0 Mobile MQQBrowser/6.8 TBS/036824 Safari/537.36 MicroMessenger/6.3.27.880 NetType/WIFI Language/zh_CN'
p124
sg16
S'df8632087dcb0f179ee41a459f3d4d39'
p125
sa(dp126
g2
S'22347'
p127
sg4
S'5599'
p128
sg6
S'7232b7885490fb23a266c5b90872da66'
p129
sg8
S'xx90f99dc9e2f025fa4d029dacda90a148'
p130
sg10
S'xxf0ce69602a68e5d82c03993c78018e89'
p131
sg12
S'xx80059c06c951195863e853fc2c4ea58d'
p132
sg14
S'Mozilla/5.0 (Linux; Android 4.4.2; Hisense E602M Build/KOT49H) AppleWebKit/537.36 (KHTML, like Gecko) Version/4.0 Chrome/37.0.0.0 Mobile MQQBrowser/6.8 TBS/036824 Safari/537.36 MicroMessenger/6.3.27.880 NetType/WIFI Language/zh_CN'
p133
sg16
S'df8632087dcb0f179ee41a459f3d4d39'
p134
sa(dp135
g2
S'22347'
p136
sg4
S'6506'
p137
sg6
S'7232b7885490fb23a266c5b90872da66'
p138
sg8
S'xx90f99dc9e2f025fa4d029dacda90a148'
p139
sg10
S'xxf0ce69602a68e5d82c03993c78018e89'
p140
sg12
S'xx80059c06c951195863e853fc2c4ea58d'
p141
sg14
S'Mozilla/5.0 (Linux; Android 4.4.2; Hisense E602M Build/KOT49H) AppleWebKit/537.36 (KHTML, like Gecko) Version/4.0 Chrome/37.0.0.0 Mobile MQQBrowser/6.8 TBS/036824 Safari/537.36 MicroMessenger/6.3.27.880 NetType/WIFI Language/zh_CN'
p142
sg16
S'df8632087dcb0f179ee41a459f3d4d39'
p143
sa(dp144
g2
S'22347'
p145
sg4
S'6525'
p146
sg6
S'7232b7885490fb23a266c5b90872da66'
p147
sg8
S'xx90f99dc9e2f025fa4d029dacda90a148'
p148
sg10
S'xxf0ce69602a68e5d82c03993c78018e89'
p149
sg12
S'xx80059c06c951195863e853fc2c4ea58d'
p150
sg14
S'Mozilla/5.0 (Linux; Android 4.4.2; Hisense E602M Build/KOT49H) AppleWebKit/537.36 (KHTML, like Gecko) Version/4.0 Chrome/37.0.0.0 Mobile MQQBrowser/6.8 TBS/036824 Safari/537.36 MicroMessenger/6.3.27.880 NetType/WIFI Language/zh_CN'
p151
sg16
S'df8632087dcb0f179ee41a459f3d4d39'
p152
sa(dp153
g2
S'22347'
p154
sg4
S'6542'
p155
sg6
S'7232b7885490fb23a266c5b90872da66'
p156
sg8
S'xx90f99dc9e2f025fa4d029dacda90a148'
p157
sg10
S'xxf0ce69602a68e5d82c03993c78018e89'
p158
sg12
S'xx80059c06c951195863e853fc2c4ea58d'
p159
sg14
S'Mozilla/5.0 (Linux; Android 4.4.2; Hisense E602M Build/KOT49H) AppleWebKit/537.36 (KHTML, like Gecko) Version/4.0 Chrome/37.0.0.0 Mobile MQQBrowser/6.8 TBS/036824 Safari/537.36 MicroMessenger/6.3.27.880 NetType/WIFI Language/zh_CN'
p160
sg16
S'df8632087dcb0f179ee41a459f3d4d39'
p161
sa(dp162
g2
S'22347'
p163
sg4
S'7459'
p164
sg6
S'7232b7885490fb23a266c5b90872da66'
p165
sg8
S'xx90f99dc9e2f025fa4d029dacda90a148'
p166
sg10
S'xxf0ce69602a68e5d82c03993c78018e89'
p167
sg12
S'xx80059c06c951195863e853fc2c4ea58d'
p168
sg14
S'Mozilla/5.0 (Linux; Android 4.4.2; Hisense E602M Build/KOT49H) AppleWebKit/537.36 (KHTML, like Gecko) Version/4.0 Chrome/37.0.0.0 Mobile MQQBrowser/6.8 TBS/036824 Safari/537.36 MicroMessenger/6.3.27.880 NetType/WIFI Language/zh_CN'
p169
sg16
S'df8632087dcb0f179ee41a459f3d4d39'
p170
sa(dp171
g2
S'22347'
p172
sg4
S'7472'
p173
sg6
S'7232b7885490fb23a266c5b90872da66'
p174
sg8
S'xx90f99dc9e2f025fa4d029dacda90a148'
p175
sg10
S'xxf0ce69602a68e5d82c03993c78018e89'
p176
sg12
S'xx80059c06c951195863e853fc2c4ea58d'
p177
sg14
S'Mozilla/5.0 (Linux; Android 4.4.2; Hisense E602M Build/KOT49H) AppleWebKit/537.36 (KHTML, like Gecko) Version/4.0 Chrome/37.0.0.0 Mobile MQQBrowser/6.8 TBS/036824 Safari/537.36 MicroMessenger/6.3.27.880 NetType/WIFI Language/zh_CN'
p178
sg16
S'df8632087dcb0f179ee41a459f3d4d39'
p179
sa(dp180
g2
S'22347'
p181
sg4
S'7488'
p182
sg6
S'7232b7885490fb23a266c5b90872da66'
p183
sg8
S'xx90f99dc9e2f025fa4d029dacda90a148'
p184
sg10
S'xxf0ce69602a68e5d82c03993c78018e89'
p185
sg12
S'xx80059c06c951195863e853fc2c4ea58d'
p186
sg14
S'Mozilla/5.0 (Linux; Android 4.4.2; Hisense E602M Build/KOT49H) AppleWebKit/537.36 (KHTML, like Gecko) Version/4.0 Chrome/37.0.0.0 Mobile MQQBrowser/6.8 TBS/036824 Safari/537.36 MicroMessenger/6.3.27.880 NetType/WIFI Language/zh_CN'
p187
sg16
S'df8632087dcb0f179ee41a459f3d4d39'
p188
sa.