(lp0
(dp1
S'user_id'
p2
S'9033'
p3
sS'data_id'
p4
S'7'
p5
sS'ip'
p6
S'03058ff25b1b7f26625c3e6dad07f9c3'
p7
sS'phone_B'
p8
S'xx85f78130c6e0222986a938d6f004ecef'
p9
sS'phone_C'
p10
S'xxcd85b4318bef77c2a37bcc4bdb88fb4f'
p11
sS'phone_A'
p12
S'xx8253ffd37b6e5742470a920da1f3e2e9'
p13
sS'user_agent'
p14
S'Mozilla/5.0 (Linux; Android 5.1; OPPO A37m Build/LMY47I) AppleWebKit/537.36 (KHTML, like Gecko) Version/4.0 Chrome/37.0.0.0 Mobile MQQBrowser/6.8 TBS/036849 Safari/537.36 MicroMessenger/6.3.27.880 NetType/WIFI Language/zh_CN'
p15
sS'ua'
p16
S'0ea24b415bec732831d2caeff51e84db'
p17
sa(dp18
g2
S'9033'
p19
sg4
S'20'
p20
sg6
S'03058ff25b1b7f26625c3e6dad07f9c3'
p21
sg8
S'xx85f78130c6e0222986a938d6f004ecef'
p22
sg10
S'xxcd85b4318bef77c2a37bcc4bdb88fb4f'
p23
sg12
S'xx8253ffd37b6e5742470a920da1f3e2e9'
p24
sg14
S'Mozilla/5.0 (Linux; Android 5.1; OPPO A37m Build/LMY47I) AppleWebKit/537.36 (KHTML, like Gecko) Version/4.0 Chrome/37.0.0.0 Mobile MQQBrowser/6.8 TBS/036849 Safari/537.36 MicroMessenger/6.3.27.880 NetType/WIFI Language/zh_CN'
p25
sg16
S'0ea24b415bec732831d2caeff51e84db'
p26
sa(dp27
g2
S'9033'
p28
sg4
S'33'
p29
sg6
S'03058ff25b1b7f26625c3e6dad07f9c3'
p30
sg8
S'xx85f78130c6e0222986a938d6f004ecef'
p31
sg10
S'xxcd85b4318bef77c2a37bcc4bdb88fb4f'
p32
sg12
S'xx8253ffd37b6e5742470a920da1f3e2e9'
p33
sg14
S'Mozilla/5.0 (Linux; Android 5.1; OPPO A37m Build/LMY47I) AppleWebKit/537.36 (KHTML, like Gecko) Version/4.0 Chrome/37.0.0.0 Mobile MQQBrowser/6.8 TBS/036849 Safari/537.36 MicroMessenger/6.3.27.880 NetType/WIFI Language/zh_CN'
p34
sg16
S'0ea24b415bec732831d2caeff51e84db'
p35
sa(dp36
g2
S'38745'
p37
sg4
S'94'
p38
sg6
S'03058ff25b1b7f26625c3e6dad07f9c3'
p39
sg8
S'xx85f78130c6e0222986a938d6f004ecef'
p40
sg10
S'xxcd85b4318bef77c2a37bcc4bdb88fb4f'
p41
sg12
S'xx8253ffd37b6e5742470a920da1f3e2e9'
p42
sg14
S'Mozilla/5.0 (Linux; Android 5.1; OPPO A37m Build/LMY47I) AppleWebKit/537.36 (KHTML, like Gecko) Version/4.0 Chrome/37.0.0.0 Mobile MQQBrowser/6.8 TBS/036849 Safari/537.36 MicroMessenger/6.3.27.880 NetType/WIFI Language/zh_CN'
p43
sg16
S'0ea24b415bec732831d2caeff51e84db'
p44
sa(dp45
g2
S'38745'
p46
sg4
S'100'
p47
sg6
S'03058ff25b1b7f26625c3e6dad07f9c3'
p48
sg8
S'xx85f78130c6e0222986a938d6f004ecef'
p49
sg10
S'xxcd85b4318bef77c2a37bcc4bdb88fb4f'
p50
sg12
S'xx8253ffd37b6e5742470a920da1f3e2e9'
p51
sg14
S'Mozilla/5.0 (Linux; Android 5.1; OPPO A37m Build/LMY47I) AppleWebKit/537.36 (KHTML, like Gecko) Version/4.0 Chrome/37.0.0.0 Mobile MQQBrowser/6.8 TBS/036849 Safari/537.36 MicroMessenger/6.3.27.880 NetType/WIFI Language/zh_CN'
p52
sg16
S'0ea24b415bec732831d2caeff51e84db'
p53
sa(dp54
g2
S'18124'
p55
sg4
S'211'
p56
sg6
S'03058ff25b1b7f26625c3e6dad07f9c3'
p57
sg8
S'xx85f78130c6e0222986a938d6f004ecef'
p58
sg10
S'xxcd85b4318bef77c2a37bcc4bdb88fb4f'
p59
sg12
S'xx8253ffd37b6e5742470a920da1f3e2e9'
p60
sg14
S'Mozilla/5.0 (Linux; Android 5.1; OPPO A37m Build/LMY47I) AppleWebKit/537.36 (KHTML, like Gecko) Version/4.0 Chrome/37.0.0.0 Mobile MQQBrowser/6.8 TBS/036849 Safari/537.36 MicroMessenger/6.3.27.880 NetType/WIFI Language/zh_CN'
p61
sg16
S'0ea24b415bec732831d2caeff51e84db'
p62
sa(dp63
g2
S'18124'
p64
sg4
S'221'
p65
sg6
S'03058ff25b1b7f26625c3e6dad07f9c3'
p66
sg8
S'xx85f78130c6e0222986a938d6f004ecef'
p67
sg10
S'xxcd85b4318bef77c2a37bcc4bdb88fb4f'
p68
sg12
S'xx8253ffd37b6e5742470a920da1f3e2e9'
p69
sg14
S'Mozilla/5.0 (Linux; Android 5.1; OPPO A37m Build/LMY47I) AppleWebKit/537.36 (KHTML, like Gecko) Version/4.0 Chrome/37.0.0.0 Mobile MQQBrowser/6.8 TBS/036849 Safari/537.36 MicroMessenger/6.3.27.880 NetType/WIFI Language/zh_CN'
p70
sg16
S'0ea24b415bec732831d2caeff51e84db'
p71
sa(dp72
g2
S'38060'
p73
sg4
S'307'
p74
sg6
S'03058ff25b1b7f26625c3e6dad07f9c3'
p75
sg8
S'xx85f78130c6e0222986a938d6f004ecef'
p76
sg10
S'xxcd85b4318bef77c2a37bcc4bdb88fb4f'
p77
sg12
S'xx8253ffd37b6e5742470a920da1f3e2e9'
p78
sg14
S'Mozilla/5.0 (Linux; Android 5.1; OPPO A37m Build/LMY47I) AppleWebKit/537.36 (KHTML, like Gecko) Version/4.0 Chrome/37.0.0.0 Mobile MQQBrowser/6.8 TBS/036849 Safari/537.36 MicroMessenger/6.3.27.880 NetType/WIFI Language/zh_CN'
p79
sg16
S'0ea24b415bec732831d2caeff51e84db'
p80
sa(dp81
g2
S'38060'
p82
sg4
S'325'
p83
sg6
S'03058ff25b1b7f26625c3e6dad07f9c3'
p84
sg8
S'xx85f78130c6e0222986a938d6f004ecef'
p85
sg10
S'xxcd85b4318bef77c2a37bcc4bdb88fb4f'
p86
sg12
S'xx8253ffd37b6e5742470a920da1f3e2e9'
p87
sg14
S'Mozilla/5.0 (Linux; Android 5.1; OPPO A37m Build/LMY47I) AppleWebKit/537.36 (KHTML, like Gecko) Version/4.0 Chrome/37.0.0.0 Mobile MQQBrowser/6.8 TBS/036849 Safari/537.36 MicroMessenger/6.3.27.880 NetType/WIFI Language/zh_CN'
p88
sg16
S'0ea24b415bec732831d2caeff51e84db'
p89
sa(dp90
g2
S'9033'
p91
sg4
S'608'
p92
sg6
S'03058ff25b1b7f26625c3e6dad07f9c3'
p93
sg8
S'xx85f78130c6e0222986a938d6f004ecef'
p94
sg10
S'xxcd85b4318bef77c2a37bcc4bdb88fb4f'
p95
sg12
S'xx8253ffd37b6e5742470a920da1f3e2e9'
p96
sg14
S'Mozilla/5.0 (Linux; Android 5.1; OPPO A37m Build/LMY47I) AppleWebKit/537.36 (KHTML, like Gecko) Version/4.0 Chrome/37.0.0.0 Mobile MQQBrowser/6.8 TBS/036849 Safari/537.36 MicroMessenger/6.3.27.880 NetType/WIFI Language/zh_CN'
p97
sg16
S'0ea24b415bec732831d2caeff51e84db'
p98
sa(dp99
g2
S'9033'
p100
sg4
S'624'
p101
sg6
S'03058ff25b1b7f26625c3e6dad07f9c3'
p102
sg8
S'xx85f78130c6e0222986a938d6f004ecef'
p103
sg10
S'xxcd85b4318bef77c2a37bcc4bdb88fb4f'
p104
sg12
S'xx8253ffd37b6e5742470a920da1f3e2e9'
p105
sg14
S'Mozilla/5.0 (Linux; Android 5.1; OPPO A37m Build/LMY47I) AppleWebKit/537.36 (KHTML, like Gecko) Version/4.0 Chrome/37.0.0.0 Mobile MQQBrowser/6.8 TBS/036849 Safari/537.36 MicroMessenger/6.3.27.880 NetType/WIFI Language/zh_CN'
p106
sg16
S'0ea24b415bec732831d2caeff51e84db'
p107
sa(dp108
g2
S'18124'
p109
sg4
S'975'
p110
sg6
S'03058ff25b1b7f26625c3e6dad07f9c3'
p111
sg8
S'xx85f78130c6e0222986a938d6f004ecef'
p112
sg10
S'xxcd85b4318bef77c2a37bcc4bdb88fb4f'
p113
sg12
S'xx8253ffd37b6e5742470a920da1f3e2e9'
p114
sg14
S'Mozilla/5.0 (Linux; Android 5.1; OPPO A37m Build/LMY47I) AppleWebKit/537.36 (KHTML, like Gecko) Version/4.0 Chrome/37.0.0.0 Mobile MQQBrowser/6.8 TBS/036849 Safari/537.36 MicroMessenger/6.3.27.880 NetType/WIFI Language/zh_CN'
p115
sg16
S'0ea24b415bec732831d2caeff51e84db'
p116
sa(dp117
g2
S'18124'
p118
sg4
S'991'
p119
sg6
S'03058ff25b1b7f26625c3e6dad07f9c3'
p120
sg8
S'xx85f78130c6e0222986a938d6f004ecef'
p121
sg10
S'xxcd85b4318bef77c2a37bcc4bdb88fb4f'
p122
sg12
S'xx8253ffd37b6e5742470a920da1f3e2e9'
p123
sg14
S'Mozilla/5.0 (Linux; Android 5.1; OPPO A37m Build/LMY47I) AppleWebKit/537.36 (KHTML, like Gecko) Version/4.0 Chrome/37.0.0.0 Mobile MQQBrowser/6.8 TBS/036849 Safari/537.36 MicroMessenger/6.3.27.880 NetType/WIFI Language/zh_CN'
p124
sg16
S'0ea24b415bec732831d2caeff51e84db'
p125
sa(dp126
g2
S'31337'
p127
sg4
S'1003'
p128
sg6
S'd66158796d5c9dab1579e3eddfe99576'
p129
sg8
S'xxf2c456a8cb97daf70085d692c4693030'
p130
sg10
S'xxcd85b4318bef77c2a37bcc4bdb88fb4f'
p131
sg12
S'xx8253ffd37b6e5742470a920da1f3e2e9'
p132
sg14
S'Mozilla/5.0 (Linux; Android 5.1; OPPO A37m Build/LMY47I) AppleWebKit/537.36 (KHTML, like Gecko) Version/4.0 Chrome/37.0.0.0 Mobile MQQBrowser/6.8 TBS/036849 Safari/537.36 MicroMessenger/6.3.27.880 NetType/cmnet Language/zh_CN'
p133
sg16
S'048fe0fc18e60580ecd7a80c8565481c'
p134
sa(dp135
g2
S'31337'
p136
sg4
S'1017'
p137
sg6
S'd66158796d5c9dab1579e3eddfe99576'
p138
sg8
S'xxf2c456a8cb97daf70085d692c4693030'
p139
sg10
S'xxcd85b4318bef77c2a37bcc4bdb88fb4f'
p140
sg12
S'xx8253ffd37b6e5742470a920da1f3e2e9'
p141
sg14
S'Mozilla/5.0 (Linux; Android 5.1; OPPO A37m Build/LMY47I) AppleWebKit/537.36 (KHTML, like Gecko) Version/4.0 Chrome/37.0.0.0 Mobile MQQBrowser/6.8 TBS/036849 Safari/537.36 MicroMessenger/6.3.27.880 NetType/cmnet Language/zh_CN'
p142
sg16
S'048fe0fc18e60580ecd7a80c8565481c'
p143
sa(dp144
g2
S'31337'
p145
sg4
S'1031'
p146
sg6
S'd66158796d5c9dab1579e3eddfe99576'
p147
sg8
S'xxf2c456a8cb97daf70085d692c4693030'
p148
sg10
S'xxcd85b4318bef77c2a37bcc4bdb88fb4f'
p149
sg12
S'xx8253ffd37b6e5742470a920da1f3e2e9'
p150
sg14
S'Mozilla/5.0 (Linux; Android 5.1; OPPO A37m Build/LMY47I) AppleWebKit/537.36 (KHTML, like Gecko) Version/4.0 Chrome/37.0.0.0 Mobile MQQBrowser/6.8 TBS/036849 Safari/537.36 MicroMessenger/6.3.27.880 NetType/cmnet Language/zh_CN'
p151
sg16
S'048fe0fc18e60580ecd7a80c8565481c'
p152
sa(dp153
g2
S'38745'
p154
sg4
S'1142'
p155
sg6
S'03058ff25b1b7f26625c3e6dad07f9c3'
p156
sg8
S'xx85f78130c6e0222986a938d6f004ecef'
p157
sg10
S'xxcd85b4318bef77c2a37bcc4bdb88fb4f'
p158
sg12
S'xx8253ffd37b6e5742470a920da1f3e2e9'
p159
sg14
S'Mozilla/5.0 (Linux; Android 5.1; OPPO A37m Build/LMY47I) AppleWebKit/537.36 (KHTML, like Gecko) Version/4.0 Chrome/37.0.0.0 Mobile MQQBrowser/6.8 TBS/036849 Safari/537.36 MicroMessenger/6.3.27.880 NetType/WIFI Language/zh_CN'
p160
sg16
S'0ea24b415bec732831d2caeff51e84db'
p161
sa(dp162
g2
S'38745'
p163
sg4
S'1162'
p164
sg6
S'03058ff25b1b7f26625c3e6dad07f9c3'
p165
sg8
S'xx85f78130c6e0222986a938d6f004ecef'
p166
sg10
S'xxcd85b4318bef77c2a37bcc4bdb88fb4f'
p167
sg12
S'xx8253ffd37b6e5742470a920da1f3e2e9'
p168
sg14
S'Mozilla/5.0 (Linux; Android 5.1; OPPO A37m Build/LMY47I) AppleWebKit/537.36 (KHTML, like Gecko) Version/4.0 Chrome/37.0.0.0 Mobile MQQBrowser/6.8 TBS/036849 Safari/537.36 MicroMessenger/6.3.27.880 NetType/WIFI Language/zh_CN'
p169
sg16
S'0ea24b415bec732831d2caeff51e84db'
p170
sa(dp171
g2
S'38060'
p172
sg4
S'1257'
p173
sg6
S'03058ff25b1b7f26625c3e6dad07f9c3'
p174
sg8
S'xx85f78130c6e0222986a938d6f004ecef'
p175
sg10
S'xxcd85b4318bef77c2a37bcc4bdb88fb4f'
p176
sg12
S'xx8253ffd37b6e5742470a920da1f3e2e9'
p177
sg14
S'Mozilla/5.0 (Linux; Android 5.1; OPPO A37m Build/LMY47I) AppleWebKit/537.36 (KHTML, like Gecko) Version/4.0 Chrome/37.0.0.0 Mobile MQQBrowser/6.8 TBS/036849 Safari/537.36 MicroMessenger/6.3.27.880 NetType/WIFI Language/zh_CN'
p178
sg16
S'0ea24b415bec732831d2caeff51e84db'
p179
sa(dp180
g2
S'38060'
p181
sg4
S'1270'
p182
sg6
S'03058ff25b1b7f26625c3e6dad07f9c3'
p183
sg8
S'xx85f78130c6e0222986a938d6f004ecef'
p184
sg10
S'xxcd85b4318bef77c2a37bcc4bdb88fb4f'
p185
sg12
S'xx8253ffd37b6e5742470a920da1f3e2e9'
p186
sg14
S'Mozilla/5.0 (Linux; Android 5.1; OPPO A37m Build/LMY47I) AppleWebKit/537.36 (KHTML, like Gecko) Version/4.0 Chrome/37.0.0.0 Mobile MQQBrowser/6.8 TBS/036849 Safari/537.36 MicroMessenger/6.3.27.880 NetType/WIFI Language/zh_CN'
p187
sg16
S'0ea24b415bec732831d2caeff51e84db'
p188
sa(dp189
g2
S'9033'
p190
sg4
S'1488'
p191
sg6
S'03058ff25b1b7f26625c3e6dad07f9c3'
p192
sg8
S'xx85f78130c6e0222986a938d6f004ecef'
p193
sg10
S'xxcd85b4318bef77c2a37bcc4bdb88fb4f'
p194
sg12
S'xx8253ffd37b6e5742470a920da1f3e2e9'
p195
sg14
S'Mozilla/5.0 (Linux; Android 5.1; OPPO A37m Build/LMY47I) AppleWebKit/537.36 (KHTML, like Gecko) Version/4.0 Chrome/37.0.0.0 Mobile MQQBrowser/6.8 TBS/036849 Safari/537.36 MicroMessenger/6.3.27.880 NetType/WIFI Language/zh_CN'
p196
sg16
S'0ea24b415bec732831d2caeff51e84db'
p197
sa(dp198
g2
S'9033'
p199
sg4
S'1508'
p200
sg6
S'03058ff25b1b7f26625c3e6dad07f9c3'
p201
sg8
S'xx85f78130c6e0222986a938d6f004ecef'
p202
sg10
S'xxcd85b4318bef77c2a37bcc4bdb88fb4f'
p203
sg12
S'xx8253ffd37b6e5742470a920da1f3e2e9'
p204
sg14
S'Mozilla/5.0 (Linux; Android 5.1; OPPO A37m Build/LMY47I) AppleWebKit/537.36 (KHTML, like Gecko) Version/4.0 Chrome/37.0.0.0 Mobile MQQBrowser/6.8 TBS/036849 Safari/537.36 MicroMessenger/6.3.27.880 NetType/WIFI Language/zh_CN'
p205
sg16
S'0ea24b415bec732831d2caeff51e84db'
p206
sa(dp207
g2
S'18124'
p208
sg4
S'1602'
p209
sg6
S'03058ff25b1b7f26625c3e6dad07f9c3'
p210
sg8
S'xx85f78130c6e0222986a938d6f004ecef'
p211
sg10
S'xxcd85b4318bef77c2a37bcc4bdb88fb4f'
p212
sg12
S'xx8253ffd37b6e5742470a920da1f3e2e9'
p213
sg14
S'Mozilla/5.0 (Linux; Android 5.1; OPPO A37m Build/LMY47I) AppleWebKit/537.36 (KHTML, like Gecko) Version/4.0 Chrome/37.0.0.0 Mobile MQQBrowser/6.8 TBS/036849 Safari/537.36 MicroMessenger/6.3.27.880 NetType/WIFI Language/zh_CN'
p214
sg16
S'0ea24b415bec732831d2caeff51e84db'
p215
sa(dp216
g2
S'18124'
p217
sg4
S'1622'
p218
sg6
S'03058ff25b1b7f26625c3e6dad07f9c3'
p219
sg8
S'xx85f78130c6e0222986a938d6f004ecef'
p220
sg10
S'xxcd85b4318bef77c2a37bcc4bdb88fb4f'
p221
sg12
S'xx8253ffd37b6e5742470a920da1f3e2e9'
p222
sg14
S'Mozilla/5.0 (Linux; Android 5.1; OPPO A37m Build/LMY47I) AppleWebKit/537.36 (KHTML, like Gecko) Version/4.0 Chrome/37.0.0.0 Mobile MQQBrowser/6.8 TBS/036849 Safari/537.36 MicroMessenger/6.3.27.880 NetType/WIFI Language/zh_CN'
p223
sg16
S'0ea24b415bec732831d2caeff51e84db'
p224
sa(dp225
g2
S'42845'
p226
sg4
S'1678'
p227
sg6
S'7424a490a049e5ce539b9db9fea35724'
p228
sg8
S'xx9942c5caa6a2b86d41881eea7130b29b'
p229
sg10
S'xxcd85b4318bef77c2a37bcc4bdb88fb4f'
p230
sg12
S'xx8253ffd37b6e5742470a920da1f3e2e9'
p231
sg14
S'Mozilla/5.0 (Linux; Android 5.1; OPPO A37m Build/LMY47I) AppleWebKit/537.36 (KHTML, like Gecko) Version/4.0 Chrome/37.0.0.0 Mobile MQQBrowser/6.8 TBS/036849 Safari/537.36 MicroMessenger/6.3.25.861 NetType/WIFI Language/zh_CN'
p232
sg16
S'0fc31012a6ec8bfa2e77578ae85119f7'
p233
sa(dp234
g2
S'42845'
p235
sg4
S'1694'
p236
sg6
S'7424a490a049e5ce539b9db9fea35724'
p237
sg8
S'xx9942c5caa6a2b86d41881eea7130b29b'
p238
sg10
S'xxcd85b4318bef77c2a37bcc4bdb88fb4f'
p239
sg12
S'xx8253ffd37b6e5742470a920da1f3e2e9'
p240
sg14
S'Mozilla/5.0 (Linux; Android 5.1; OPPO A37m Build/LMY47I) AppleWebKit/537.36 (KHTML, like Gecko) Version/4.0 Chrome/37.0.0.0 Mobile MQQBrowser/6.8 TBS/036849 Safari/537.36 MicroMessenger/6.3.25.861 NetType/WIFI Language/zh_CN'
p241
sg16
S'0fc31012a6ec8bfa2e77578ae85119f7'
p242
sa(dp243
g2
S'42845'
p244
sg4
S'1713'
p245
sg6
S'7424a490a049e5ce539b9db9fea35724'
p246
sg8
S'xx9942c5caa6a2b86d41881eea7130b29b'
p247
sg10
S'xxcd85b4318bef77c2a37bcc4bdb88fb4f'
p248
sg12
S'xx8253ffd37b6e5742470a920da1f3e2e9'
p249
sg14
S'Mozilla/5.0 (Linux; Android 5.1; OPPO A37m Build/LMY47I) AppleWebKit/537.36 (KHTML, like Gecko) Version/4.0 Chrome/37.0.0.0 Mobile MQQBrowser/6.8 TBS/036849 Safari/537.36 MicroMessenger/6.3.25.861 NetType/WIFI Language/zh_CN'
p250
sg16
S'0fc31012a6ec8bfa2e77578ae85119f7'
p251
sa(dp252
g2
S'42845'
p253
sg4
S'1728'
p254
sg6
S'7424a490a049e5ce539b9db9fea35724'
p255
sg8
S'xx9942c5caa6a2b86d41881eea7130b29b'
p256
sg10
S'xxcd85b4318bef77c2a37bcc4bdb88fb4f'
p257
sg12
S'xx8253ffd37b6e5742470a920da1f3e2e9'
p258
sg14
S'Mozilla/5.0 (Linux; Android 5.1; OPPO A37m Build/LMY47I) AppleWebKit/537.36 (KHTML, like Gecko) Version/4.0 Chrome/37.0.0.0 Mobile MQQBrowser/6.8 TBS/036849 Safari/537.36 MicroMessenger/6.3.25.861 NetType/WIFI Language/zh_CN'
p259
sg16
S'0fc31012a6ec8bfa2e77578ae85119f7'
p260
sa(dp261
g2
S'42845'
p262
sg4
S'1735'
p263
sg6
S'7424a490a049e5ce539b9db9fea35724'
p264
sg8
S'xx9942c5caa6a2b86d41881eea7130b29b'
p265
sg10
S'xxcd85b4318bef77c2a37bcc4bdb88fb4f'
p266
sg12
S'xx8253ffd37b6e5742470a920da1f3e2e9'
p267
sg14
S'Mozilla/5.0 (Linux; Android 5.1; OPPO A37m Build/LMY47I) AppleWebKit/537.36 (KHTML, like Gecko) Version/4.0 Chrome/37.0.0.0 Mobile MQQBrowser/6.8 TBS/036849 Safari/537.36 MicroMessenger/6.3.25.861 NetType/WIFI Language/zh_CN'
p268
sg16
S'0fc31012a6ec8bfa2e77578ae85119f7'
p269
sa(dp270
g2
S'38745'
p271
sg4
S'1748'
p272
sg6
S'03058ff25b1b7f26625c3e6dad07f9c3'
p273
sg8
S'xx85f78130c6e0222986a938d6f004ecef'
p274
sg10
S'xxcd85b4318bef77c2a37bcc4bdb88fb4f'
p275
sg12
S'xx8253ffd37b6e5742470a920da1f3e2e9'
p276
sg14
S'Mozilla/5.0 (Linux; Android 5.1; OPPO A37m Build/LMY47I) AppleWebKit/537.36 (KHTML, like Gecko) Version/4.0 Chrome/37.0.0.0 Mobile MQQBrowser/6.8 TBS/036849 Safari/537.36 MicroMessenger/6.3.27.880 NetType/WIFI Language/zh_CN'
p277
sg16
S'0ea24b415bec732831d2caeff51e84db'
p278
sa(dp279
g2
S'42845'
p280
sg4
S'1750'
p281
sg6
S'7424a490a049e5ce539b9db9fea35724'
p282
sg8
S'xx9942c5caa6a2b86d41881eea7130b29b'
p283
sg10
S'xxcd85b4318bef77c2a37bcc4bdb88fb4f'
p284
sg12
S'xx8253ffd37b6e5742470a920da1f3e2e9'
p285
sg14
S'Mozilla/5.0 (Linux; Android 5.1; OPPO A37m Build/LMY47I) AppleWebKit/537.36 (KHTML, like Gecko) Version/4.0 Chrome/37.0.0.0 Mobile MQQBrowser/6.8 TBS/036849 Safari/537.36 MicroMessenger/6.3.25.861 NetType/WIFI Language/zh_CN'
p286
sg16
S'0fc31012a6ec8bfa2e77578ae85119f7'
p287
sa(dp288
g2
S'38745'
p289
sg4
S'1764'
p290
sg6
S'03058ff25b1b7f26625c3e6dad07f9c3'
p291
sg8
S'xx85f78130c6e0222986a938d6f004ecef'
p292
sg10
S'xxcd85b4318bef77c2a37bcc4bdb88fb4f'
p293
sg12
S'xx8253ffd37b6e5742470a920da1f3e2e9'
p294
sg14
S'Mozilla/5.0 (Linux; Android 5.1; OPPO A37m Build/LMY47I) AppleWebKit/537.36 (KHTML, like Gecko) Version/4.0 Chrome/37.0.0.0 Mobile MQQBrowser/6.8 TBS/036849 Safari/537.36 MicroMessenger/6.3.27.880 NetType/WIFI Language/zh_CN'
p295
sg16
S'0ea24b415bec732831d2caeff51e84db'
p296
sa(dp297
g2
S'42845'
p298
sg4
S'1767'
p299
sg6
S'7424a490a049e5ce539b9db9fea35724'
p300
sg8
S'xx9942c5caa6a2b86d41881eea7130b29b'
p301
sg10
S'xxcd85b4318bef77c2a37bcc4bdb88fb4f'
p302
sg12
S'xx8253ffd37b6e5742470a920da1f3e2e9'
p303
sg14
S'Mozilla/5.0 (Linux; Android 5.1; OPPO A37m Build/LMY47I) AppleWebKit/537.36 (KHTML, like Gecko) Version/4.0 Chrome/37.0.0.0 Mobile MQQBrowser/6.8 TBS/036849 Safari/537.36 MicroMessenger/6.3.25.861 NetType/WIFI Language/zh_CN'
p304
sg16
S'0fc31012a6ec8bfa2e77578ae85119f7'
p305
sa(dp306
g2
S'42845'
p307
sg4
S'1783'
p308
sg6
S'7424a490a049e5ce539b9db9fea35724'
p309
sg8
S'xx9942c5caa6a2b86d41881eea7130b29b'
p310
sg10
S'xxcd85b4318bef77c2a37bcc4bdb88fb4f'
p311
sg12
S'xx8253ffd37b6e5742470a920da1f3e2e9'
p312
sg14
S'Mozilla/5.0 (Linux; Android 5.1; OPPO A37m Build/LMY47I) AppleWebKit/537.36 (KHTML, like Gecko) Version/4.0 Chrome/37.0.0.0 Mobile MQQBrowser/6.8 TBS/036849 Safari/537.36 MicroMessenger/6.3.25.861 NetType/WIFI Language/zh_CN'
p313
sg16
S'0fc31012a6ec8bfa2e77578ae85119f7'
p314
sa(dp315
g2
S'42845'
p316
sg4
S'1796'
p317
sg6
S'7424a490a049e5ce539b9db9fea35724'
p318
sg8
S'xx9942c5caa6a2b86d41881eea7130b29b'
p319
sg10
S'xxcd85b4318bef77c2a37bcc4bdb88fb4f'
p320
sg12
S'xx8253ffd37b6e5742470a920da1f3e2e9'
p321
sg14
S'Mozilla/5.0 (Linux; Android 5.1; OPPO A37m Build/LMY47I) AppleWebKit/537.36 (KHTML, like Gecko) Version/4.0 Chrome/37.0.0.0 Mobile MQQBrowser/6.8 TBS/036849 Safari/537.36 MicroMessenger/6.3.25.861 NetType/WIFI Language/zh_CN'
p322
sg16
S'0fc31012a6ec8bfa2e77578ae85119f7'
p323
sa(dp324
g2
S'42845'
p325
sg4
S'1811'
p326
sg6
S'7424a490a049e5ce539b9db9fea35724'
p327
sg8
S'xx9942c5caa6a2b86d41881eea7130b29b'
p328
sg10
S'xxcd85b4318bef77c2a37bcc4bdb88fb4f'
p329
sg12
S'xx8253ffd37b6e5742470a920da1f3e2e9'
p330
sg14
S'Mozilla/5.0 (Linux; Android 5.1; OPPO A37m Build/LMY47I) AppleWebKit/537.36 (KHTML, like Gecko) Version/4.0 Chrome/37.0.0.0 Mobile MQQBrowser/6.8 TBS/036849 Safari/537.36 MicroMessenger/6.3.25.861 NetType/WIFI Language/zh_CN'
p331
sg16
S'0fc31012a6ec8bfa2e77578ae85119f7'
p332
sa(dp333
g2
S'38060'
p334
sg4
S'1885'
p335
sg6
S'03058ff25b1b7f26625c3e6dad07f9c3'
p336
sg8
S'xx85f78130c6e0222986a938d6f004ecef'
p337
sg10
S'xxcd85b4318bef77c2a37bcc4bdb88fb4f'
p338
sg12
S'xx8253ffd37b6e5742470a920da1f3e2e9'
p339
sg14
S'Mozilla/5.0 (Linux; Android 5.1; OPPO A37m Build/LMY47I) AppleWebKit/537.36 (KHTML, like Gecko) Version/4.0 Chrome/37.0.0.0 Mobile MQQBrowser/6.8 TBS/036849 Safari/537.36 MicroMessenger/6.3.27.880 NetType/WIFI Language/zh_CN'
p340
sg16
S'0ea24b415bec732831d2caeff51e84db'
p341
sa(dp342
g2
S'38060'
p343
sg4
S'1898'
p344
sg6
S'03058ff25b1b7f26625c3e6dad07f9c3'
p345
sg8
S'xx85f78130c6e0222986a938d6f004ecef'
p346
sg10
S'xxcd85b4318bef77c2a37bcc4bdb88fb4f'
p347
sg12
S'xx8253ffd37b6e5742470a920da1f3e2e9'
p348
sg14
S'Mozilla/5.0 (Linux; Android 5.1; OPPO A37m Build/LMY47I) AppleWebKit/537.36 (KHTML, like Gecko) Version/4.0 Chrome/37.0.0.0 Mobile MQQBrowser/6.8 TBS/036849 Safari/537.36 MicroMessenger/6.3.27.880 NetType/WIFI Language/zh_CN'
p349
sg16
S'0ea24b415bec732831d2caeff51e84db'
p350
sa(dp351
g2
S'30432'
p352
sg4
S'2844'
p353
sg6
S'10d6e9ba5a7f89e5422202990b7f2ea2'
p354
sg8
S'xx85f78130c6e0222986a938d6f004ecef'
p355
sg10
S'xxcd85b4318bef77c2a37bcc4bdb88fb4f'
p356
sg12
S'xx8253ffd37b6e5742470a920da1f3e2e9'
p357
sg14
S'Mozilla/5.0 (Linux; Android 5.1; OPPO A37m Build/LMY47I) AppleWebKit/537.36 (KHTML, like Gecko) Version/4.0 Chrome/37.0.0.0 Mobile MQQBrowser/6.8 TBS/036849 Safari/537.36 MicroMessenger/6.3.27.880 NetType/WIFI Language/zh_CN'
p358
sg16
S'0ea24b415bec732831d2caeff51e84db'
p359
sa(dp360
g2
S'30432'
p361
sg4
S'2864'
p362
sg6
S'10d6e9ba5a7f89e5422202990b7f2ea2'
p363
sg8
S'xx85f78130c6e0222986a938d6f004ecef'
p364
sg10
S'xxcd85b4318bef77c2a37bcc4bdb88fb4f'
p365
sg12
S'xx8253ffd37b6e5742470a920da1f3e2e9'
p366
sg14
S'Mozilla/5.0 (Linux; Android 5.1; OPPO A37m Build/LMY47I) AppleWebKit/537.36 (KHTML, like Gecko) Version/4.0 Chrome/37.0.0.0 Mobile MQQBrowser/6.8 TBS/036849 Safari/537.36 MicroMessenger/6.3.27.880 NetType/WIFI Language/zh_CN'
p367
sg16
S'0ea24b415bec732831d2caeff51e84db'
p368
sa(dp369
g2
S'30432'
p370
sg4
S'2885'
p371
sg6
S'10d6e9ba5a7f89e5422202990b7f2ea2'
p372
sg8
S'xx85f78130c6e0222986a938d6f004ecef'
p373
sg10
S'xxcd85b4318bef77c2a37bcc4bdb88fb4f'
p374
sg12
S'xx8253ffd37b6e5742470a920da1f3e2e9'
p375
sg14
S'Mozilla/5.0 (Linux; Android 5.1; OPPO A37m Build/LMY47I) AppleWebKit/537.36 (KHTML, like Gecko) Version/4.0 Chrome/37.0.0.0 Mobile MQQBrowser/6.8 TBS/036849 Safari/537.36 MicroMessenger/6.3.27.880 NetType/WIFI Language/zh_CN'
p376
sg16
S'0ea24b415bec732831d2caeff51e84db'
p377
sa(dp378
g2
S'35195'
p379
sg4
S'2972'
p380
sg6
S'18442ec0086b976fa089707fd59d9e06'
p381
sg8
S'xx16c44d75f18e12e3aa57012f9f2ca47e'
p382
sg10
S'xxcd85b4318bef77c2a37bcc4bdb88fb4f'
p383
sg12
S'xx8253ffd37b6e5742470a920da1f3e2e9'
p384
sg14
S'Mozilla/5.0 (Linux; Android 5.1; OPPO A37m Build/LMY47I) AppleWebKit/537.36 (KHTML, like Gecko) Version/4.0 Chrome/37.0.0.0 Mobile MQQBrowser/6.8 TBS/036869 Safari/537.36 MicroMessenger/6.3.27.880 NetType/3gnet Language/zh_CN'
p385
sg16
S'cdc18173f5b75ed7b9be5b0620f724ea'
p386
sa(dp387
g2
S'35195'
p388
sg4
S'2990'
p389
sg6
S'18442ec0086b976fa089707fd59d9e06'
p390
sg8
S'xx16c44d75f18e12e3aa57012f9f2ca47e'
p391
sg10
S'xxcd85b4318bef77c2a37bcc4bdb88fb4f'
p392
sg12
S'xx8253ffd37b6e5742470a920da1f3e2e9'
p393
sg14
S'Mozilla/5.0 (Linux; Android 5.1; OPPO A37m Build/LMY47I) AppleWebKit/537.36 (KHTML, like Gecko) Version/4.0 Chrome/37.0.0.0 Mobile MQQBrowser/6.8 TBS/036869 Safari/537.36 MicroMessenger/6.3.27.880 NetType/3gnet Language/zh_CN'
p394
sg16
S'cdc18173f5b75ed7b9be5b0620f724ea'
p395
sa(dp396
g2
S'35195'
p397
sg4
S'3004'
p398
sg6
S'18442ec0086b976fa089707fd59d9e06'
p399
sg8
S'xx16c44d75f18e12e3aa57012f9f2ca47e'
p400
sg10
S'xxcd85b4318bef77c2a37bcc4bdb88fb4f'
p401
sg12
S'xx8253ffd37b6e5742470a920da1f3e2e9'
p402
sg14
S'Mozilla/5.0 (Linux; Android 5.1; OPPO A37m Build/LMY47I) AppleWebKit/537.36 (KHTML, like Gecko) Version/4.0 Chrome/37.0.0.0 Mobile MQQBrowser/6.8 TBS/036869 Safari/537.36 MicroMessenger/6.3.27.880 NetType/3gnet Language/zh_CN'
p403
sg16
S'cdc18173f5b75ed7b9be5b0620f724ea'
p404
sa(dp405
g2
S'38060'
p406
sg4
S'4321'
p407
sg6
S'03058ff25b1b7f26625c3e6dad07f9c3'
p408
sg8
S'xx85f78130c6e0222986a938d6f004ecef'
p409
sg10
S'xxcd85b4318bef77c2a37bcc4bdb88fb4f'
p410
sg12
S'xx8253ffd37b6e5742470a920da1f3e2e9'
p411
sg14
S'Mozilla/5.0 (Linux; Android 5.1; OPPO A37m Build/LMY47I) AppleWebKit/537.36 (KHTML, like Gecko) Version/4.0 Chrome/37.0.0.0 Mobile MQQBrowser/6.8 TBS/036849 Safari/537.36 MicroMessenger/6.3.27.880 NetType/WIFI Language/zh_CN'
p412
sg16
S'0ea24b415bec732831d2caeff51e84db'
p413
sa(dp414
g2
S'38060'
p415
sg4
S'4342'
p416
sg6
S'03058ff25b1b7f26625c3e6dad07f9c3'
p417
sg8
S'xx85f78130c6e0222986a938d6f004ecef'
p418
sg10
S'xxcd85b4318bef77c2a37bcc4bdb88fb4f'
p419
sg12
S'xx8253ffd37b6e5742470a920da1f3e2e9'
p420
sg14
S'Mozilla/5.0 (Linux; Android 5.1; OPPO A37m Build/LMY47I) AppleWebKit/537.36 (KHTML, like Gecko) Version/4.0 Chrome/37.0.0.0 Mobile MQQBrowser/6.8 TBS/036849 Safari/537.36 MicroMessenger/6.3.27.880 NetType/WIFI Language/zh_CN'
p421
sg16
S'0ea24b415bec732831d2caeff51e84db'
p422
sa(dp423
g2
S'18124'
p424
sg4
S'4593'
p425
sg6
S'03058ff25b1b7f26625c3e6dad07f9c3'
p426
sg8
S'xx85f78130c6e0222986a938d6f004ecef'
p427
sg10
S'xxcd85b4318bef77c2a37bcc4bdb88fb4f'
p428
sg12
S'xx8253ffd37b6e5742470a920da1f3e2e9'
p429
sg14
S'Mozilla/5.0 (Linux; Android 5.1; OPPO A37m Build/LMY47I) AppleWebKit/537.36 (KHTML, like Gecko) Version/4.0 Chrome/37.0.0.0 Mobile MQQBrowser/6.8 TBS/036849 Safari/537.36 MicroMessenger/6.3.27.880 NetType/WIFI Language/zh_CN'
p430
sg16
S'0ea24b415bec732831d2caeff51e84db'
p431
sa(dp432
g2
S'18124'
p433
sg4
S'4609'
p434
sg6
S'03058ff25b1b7f26625c3e6dad07f9c3'
p435
sg8
S'xx85f78130c6e0222986a938d6f004ecef'
p436
sg10
S'xxcd85b4318bef77c2a37bcc4bdb88fb4f'
p437
sg12
S'xx8253ffd37b6e5742470a920da1f3e2e9'
p438
sg14
S'Mozilla/5.0 (Linux; Android 5.1; OPPO A37m Build/LMY47I) AppleWebKit/537.36 (KHTML, like Gecko) Version/4.0 Chrome/37.0.0.0 Mobile MQQBrowser/6.8 TBS/036849 Safari/537.36 MicroMessenger/6.3.27.880 NetType/WIFI Language/zh_CN'
p439
sg16
S'0ea24b415bec732831d2caeff51e84db'
p440
sa(dp441
g2
S'38745'
p442
sg4
S'4741'
p443
sg6
S'03058ff25b1b7f26625c3e6dad07f9c3'
p444
sg8
S'xx85f78130c6e0222986a938d6f004ecef'
p445
sg10
S'xxcd85b4318bef77c2a37bcc4bdb88fb4f'
p446
sg12
S'xx8253ffd37b6e5742470a920da1f3e2e9'
p447
sg14
S'Mozilla/5.0 (Linux; Android 5.1; OPPO A37m Build/LMY47I) AppleWebKit/537.36 (KHTML, like Gecko) Version/4.0 Chrome/37.0.0.0 Mobile MQQBrowser/6.8 TBS/036849 Safari/537.36 MicroMessenger/6.3.27.880 NetType/WIFI Language/zh_CN'
p448
sg16
S'0ea24b415bec732831d2caeff51e84db'
p449
sa(dp450
g2
S'38745'
p451
sg4
S'4754'
p452
sg6
S'03058ff25b1b7f26625c3e6dad07f9c3'
p453
sg8
S'xx85f78130c6e0222986a938d6f004ecef'
p454
sg10
S'xxcd85b4318bef77c2a37bcc4bdb88fb4f'
p455
sg12
S'xx8253ffd37b6e5742470a920da1f3e2e9'
p456
sg14
S'Mozilla/5.0 (Linux; Android 5.1; OPPO A37m Build/LMY47I) AppleWebKit/537.36 (KHTML, like Gecko) Version/4.0 Chrome/37.0.0.0 Mobile MQQBrowser/6.8 TBS/036849 Safari/537.36 MicroMessenger/6.3.27.880 NetType/WIFI Language/zh_CN'
p457
sg16
S'0ea24b415bec732831d2caeff51e84db'
p458
sa(dp459
g2
S'9033'
p460
sg4
S'4919'
p461
sg6
S'03058ff25b1b7f26625c3e6dad07f9c3'
p462
sg8
S'xx85f78130c6e0222986a938d6f004ecef'
p463
sg10
S'xxcd85b4318bef77c2a37bcc4bdb88fb4f'
p464
sg12
S'xx8253ffd37b6e5742470a920da1f3e2e9'
p465
sg14
S'Mozilla/5.0 (Linux; Android 5.1; OPPO A37m Build/LMY47I) AppleWebKit/537.36 (KHTML, like Gecko) Version/4.0 Chrome/37.0.0.0 Mobile MQQBrowser/6.8 TBS/036849 Safari/537.36 MicroMessenger/6.3.27.880 NetType/WIFI Language/zh_CN'
p466
sg16
S'0ea24b415bec732831d2caeff51e84db'
p467
sa(dp468
g2
S'9033'
p469
sg4
S'4930'
p470
sg6
S'03058ff25b1b7f26625c3e6dad07f9c3'
p471
sg8
S'xx85f78130c6e0222986a938d6f004ecef'
p472
sg10
S'xxcd85b4318bef77c2a37bcc4bdb88fb4f'
p473
sg12
S'xx8253ffd37b6e5742470a920da1f3e2e9'
p474
sg14
S'Mozilla/5.0 (Linux; Android 5.1; OPPO A37m Build/LMY47I) AppleWebKit/537.36 (KHTML, like Gecko) Version/4.0 Chrome/37.0.0.0 Mobile MQQBrowser/6.8 TBS/036849 Safari/537.36 MicroMessenger/6.3.27.880 NetType/WIFI Language/zh_CN'
p475
sg16
S'0ea24b415bec732831d2caeff51e84db'
p476
sa(dp477
g2
S'47628'
p478
sg4
S'5137'
p479
sg6
S'1c8cb4e5c3acfa7834c09f8a7622eb2a'
p480
sg8
S'xx02651f7174b978884b62f8cdc60f888a'
p481
sg10
S'xxcd85b4318bef77c2a37bcc4bdb88fb4f'
p482
sg12
S'xx8253ffd37b6e5742470a920da1f3e2e9'
p483
sg14
S'Mozilla/5.0 (Linux; Android 5.1; OPPO A37m Build/LMY47I) AppleWebKit/537.36 (KHTML, like Gecko) Version/4.0 Chrome/37.0.0.0 Mobile MQQBrowser/6.8 TBS/036862 Safari/537.36 MicroMessenger/6.3.28.880 NetType/WIFI Language/zh_CN'
p484
sg16
S'c9e51c2774bbf3262bd79879adabd01a'
p485
sa(dp486
g2
S'47628'
p487
sg4
S'5150'
p488
sg6
S'1c8cb4e5c3acfa7834c09f8a7622eb2a'
p489
sg8
S'xx02651f7174b978884b62f8cdc60f888a'
p490
sg10
S'xxcd85b4318bef77c2a37bcc4bdb88fb4f'
p491
sg12
S'xx8253ffd37b6e5742470a920da1f3e2e9'
p492
sg14
S'Mozilla/5.0 (Linux; Android 5.1; OPPO A37m Build/LMY47I) AppleWebKit/537.36 (KHTML, like Gecko) Version/4.0 Chrome/37.0.0.0 Mobile MQQBrowser/6.8 TBS/036862 Safari/537.36 MicroMessenger/6.3.28.880 NetType/WIFI Language/zh_CN'
p493
sg16
S'c9e51c2774bbf3262bd79879adabd01a'
p494
sa(dp495
g2
S'47628'
p496
sg4
S'5167'
p497
sg6
S'1c8cb4e5c3acfa7834c09f8a7622eb2a'
p498
sg8
S'xx02651f7174b978884b62f8cdc60f888a'
p499
sg10
S'xxcd85b4318bef77c2a37bcc4bdb88fb4f'
p500
sg12
S'xx8253ffd37b6e5742470a920da1f3e2e9'
p501
sg14
S'Mozilla/5.0 (Linux; Android 5.1; OPPO A37m Build/LMY47I) AppleWebKit/537.36 (KHTML, like Gecko) Version/4.0 Chrome/37.0.0.0 Mobile MQQBrowser/6.8 TBS/036862 Safari/537.36 MicroMessenger/6.3.28.880 NetType/WIFI Language/zh_CN'
p502
sg16
S'c9e51c2774bbf3262bd79879adabd01a'
p503
sa(dp504
g2
S'42694'
p505
sg4
S'5350'
p506
sg6
S'03f52a4f7e66c7ccc384ce91e7bd50e9'
p507
sg8
S'xx85f78130c6e0222986a938d6f004ecef'
p508
sg10
S'xxcd85b4318bef77c2a37bcc4bdb88fb4f'
p509
sg12
S'xx8253ffd37b6e5742470a920da1f3e2e9'
p510
sg14
S'Mozilla/5.0 (Linux; Android 5.1; OPPO A37m Build/LMY47I) AppleWebKit/537.36 (KHTML, like Gecko) Version/4.0 Chrome/37.0.0.0 Mobile MQQBrowser/6.8 TBS/036849 Safari/537.36 MicroMessenger/6.3.27.880 NetType/WIFI Language/zh_CN'
p511
sg16
S'0ea24b415bec732831d2caeff51e84db'
p512
sa(dp513
g2
S'42694'
p514
sg4
S'5367'
p515
sg6
S'03f52a4f7e66c7ccc384ce91e7bd50e9'
p516
sg8
S'xx85f78130c6e0222986a938d6f004ecef'
p517
sg10
S'xxcd85b4318bef77c2a37bcc4bdb88fb4f'
p518
sg12
S'xx8253ffd37b6e5742470a920da1f3e2e9'
p519
sg14
S'Mozilla/5.0 (Linux; Android 5.1; OPPO A37m Build/LMY47I) AppleWebKit/537.36 (KHTML, like Gecko) Version/4.0 Chrome/37.0.0.0 Mobile MQQBrowser/6.8 TBS/036849 Safari/537.36 MicroMessenger/6.3.27.880 NetType/WIFI Language/zh_CN'
p520
sg16
S'0ea24b415bec732831d2caeff51e84db'
p521
sa(dp522
g2
S'42694'
p523
sg4
S'5378'
p524
sg6
S'03f52a4f7e66c7ccc384ce91e7bd50e9'
p525
sg8
S'xx85f78130c6e0222986a938d6f004ecef'
p526
sg10
S'xxcd85b4318bef77c2a37bcc4bdb88fb4f'
p527
sg12
S'xx8253ffd37b6e5742470a920da1f3e2e9'
p528
sg14
S'Mozilla/5.0 (Linux; Android 5.1; OPPO A37m Build/LMY47I) AppleWebKit/537.36 (KHTML, like Gecko) Version/4.0 Chrome/37.0.0.0 Mobile MQQBrowser/6.8 TBS/036849 Safari/537.36 MicroMessenger/6.3.27.880 NetType/WIFI Language/zh_CN'
p529
sg16
S'0ea24b415bec732831d2caeff51e84db'
p530
sa(dp531
g2
S'42694'
p532
sg4
S'5840'
p533
sg6
S'03f52a4f7e66c7ccc384ce91e7bd50e9'
p534
sg8
S'xx85f78130c6e0222986a938d6f004ecef'
p535
sg10
S'xxcd85b4318bef77c2a37bcc4bdb88fb4f'
p536
sg12
S'xx8253ffd37b6e5742470a920da1f3e2e9'
p537
sg14
S'Mozilla/5.0 (Linux; Android 5.1; OPPO A37m Build/LMY47I) AppleWebKit/537.36 (KHTML, like Gecko) Version/4.0 Chrome/37.0.0.0 Mobile MQQBrowser/6.8 TBS/036849 Safari/537.36 MicroMessenger/6.3.27.880 NetType/WIFI Language/zh_CN'
p538
sg16
S'0ea24b415bec732831d2caeff51e84db'
p539
sa(dp540
g2
S'42694'
p541
sg4
S'5943'
p542
sg6
S'03f52a4f7e66c7ccc384ce91e7bd50e9'
p543
sg8
S'xx85f78130c6e0222986a938d6f004ecef'
p544
sg10
S'xxcd85b4318bef77c2a37bcc4bdb88fb4f'
p545
sg12
S'xx8253ffd37b6e5742470a920da1f3e2e9'
p546
sg14
S'Mozilla/5.0 (Linux; Android 5.1; OPPO A37m Build/LMY47I) AppleWebKit/537.36 (KHTML, like Gecko) Version/4.0 Chrome/37.0.0.0 Mobile MQQBrowser/6.8 TBS/036849 Safari/537.36 MicroMessenger/6.3.27.880 NetType/WIFI Language/zh_CN'
p547
sg16
S'0ea24b415bec732831d2caeff51e84db'
p548
sa(dp549
g2
S'42694'
p550
sg4
S'5958'
p551
sg6
S'03f52a4f7e66c7ccc384ce91e7bd50e9'
p552
sg8
S'xx85f78130c6e0222986a938d6f004ecef'
p553
sg10
S'xxcd85b4318bef77c2a37bcc4bdb88fb4f'
p554
sg12
S'xx8253ffd37b6e5742470a920da1f3e2e9'
p555
sg14
S'Mozilla/5.0 (Linux; Android 5.1; OPPO A37m Build/LMY47I) AppleWebKit/537.36 (KHTML, like Gecko) Version/4.0 Chrome/37.0.0.0 Mobile MQQBrowser/6.8 TBS/036849 Safari/537.36 MicroMessenger/6.3.27.880 NetType/WIFI Language/zh_CN'
p556
sg16
S'0ea24b415bec732831d2caeff51e84db'
p557
sa(dp558
g2
S'42694'
p559
sg4
S'5970'
p560
sg6
S'03f52a4f7e66c7ccc384ce91e7bd50e9'
p561
sg8
S'xx85f78130c6e0222986a938d6f004ecef'
p562
sg10
S'xxcd85b4318bef77c2a37bcc4bdb88fb4f'
p563
sg12
S'xx8253ffd37b6e5742470a920da1f3e2e9'
p564
sg14
S'Mozilla/5.0 (Linux; Android 5.1; OPPO A37m Build/LMY47I) AppleWebKit/537.36 (KHTML, like Gecko) Version/4.0 Chrome/37.0.0.0 Mobile MQQBrowser/6.8 TBS/036849 Safari/537.36 MicroMessenger/6.3.27.880 NetType/WIFI Language/zh_CN'
p565
sg16
S'0ea24b415bec732831d2caeff51e84db'
p566
sa(dp567
g2
S'42694'
p568
sg4
S'6370'
p569
sg6
S'03f52a4f7e66c7ccc384ce91e7bd50e9'
p570
sg8
S'xx85f78130c6e0222986a938d6f004ecef'
p571
sg10
S'xxcd85b4318bef77c2a37bcc4bdb88fb4f'
p572
sg12
S'xx8253ffd37b6e5742470a920da1f3e2e9'
p573
sg14
S'Mozilla/5.0 (Linux; Android 5.1; OPPO A37m Build/LMY47I) AppleWebKit/537.36 (KHTML, like Gecko) Version/4.0 Chrome/37.0.0.0 Mobile MQQBrowser/6.8 TBS/036849 Safari/537.36 MicroMessenger/6.3.27.880 NetType/WIFI Language/zh_CN'
p574
sg16
S'0ea24b415bec732831d2caeff51e84db'
p575
sa(dp576
g2
S'42694'
p577
sg4
S'6392'
p578
sg6
S'03f52a4f7e66c7ccc384ce91e7bd50e9'
p579
sg8
S'xx85f78130c6e0222986a938d6f004ecef'
p580
sg10
S'xxcd85b4318bef77c2a37bcc4bdb88fb4f'
p581
sg12
S'xx8253ffd37b6e5742470a920da1f3e2e9'
p582
sg14
S'Mozilla/5.0 (Linux; Android 5.1; OPPO A37m Build/LMY47I) AppleWebKit/537.36 (KHTML, like Gecko) Version/4.0 Chrome/37.0.0.0 Mobile MQQBrowser/6.8 TBS/036849 Safari/537.36 MicroMessenger/6.3.27.880 NetType/WIFI Language/zh_CN'
p583
sg16
S'0ea24b415bec732831d2caeff51e84db'
p584
sa(dp585
g2
S'42694'
p586
sg4
S'6411'
p587
sg6
S'03f52a4f7e66c7ccc384ce91e7bd50e9'
p588
sg8
S'xx85f78130c6e0222986a938d6f004ecef'
p589
sg10
S'xxcd85b4318bef77c2a37bcc4bdb88fb4f'
p590
sg12
S'xx8253ffd37b6e5742470a920da1f3e2e9'
p591
sg14
S'Mozilla/5.0 (Linux; Android 5.1; OPPO A37m Build/LMY47I) AppleWebKit/537.36 (KHTML, like Gecko) Version/4.0 Chrome/37.0.0.0 Mobile MQQBrowser/6.8 TBS/036849 Safari/537.36 MicroMessenger/6.3.27.880 NetType/WIFI Language/zh_CN'
p592
sg16
S'0ea24b415bec732831d2caeff51e84db'
p593
sa(dp594
g2
S'42694'
p595
sg4
S'6423'
p596
sg6
S'03f52a4f7e66c7ccc384ce91e7bd50e9'
p597
sg8
S'xx85f78130c6e0222986a938d6f004ecef'
p598
sg10
S'xxcd85b4318bef77c2a37bcc4bdb88fb4f'
p599
sg12
S'xx8253ffd37b6e5742470a920da1f3e2e9'
p600
sg14
S'Mozilla/5.0 (Linux; Android 5.1; OPPO A37m Build/LMY47I) AppleWebKit/537.36 (KHTML, like Gecko) Version/4.0 Chrome/37.0.0.0 Mobile MQQBrowser/6.8 TBS/036849 Safari/537.36 MicroMessenger/6.3.27.880 NetType/WIFI Language/zh_CN'
p601
sg16
S'0ea24b415bec732831d2caeff51e84db'
p602
sa(dp603
g2
S'42694'
p604
sg4
S'6440'
p605
sg6
S'03f52a4f7e66c7ccc384ce91e7bd50e9'
p606
sg8
S'xx85f78130c6e0222986a938d6f004ecef'
p607
sg10
S'xxcd85b4318bef77c2a37bcc4bdb88fb4f'
p608
sg12
S'xx8253ffd37b6e5742470a920da1f3e2e9'
p609
sg14
S'Mozilla/5.0 (Linux; Android 5.1; OPPO A37m Build/LMY47I) AppleWebKit/537.36 (KHTML, like Gecko) Version/4.0 Chrome/37.0.0.0 Mobile MQQBrowser/6.8 TBS/036849 Safari/537.36 MicroMessenger/6.3.27.880 NetType/WIFI Language/zh_CN'
p610
sg16
S'0ea24b415bec732831d2caeff51e84db'
p611
sa(dp612
g2
S'42694'
p613
sg4
S'6486'
p614
sg6
S'03f52a4f7e66c7ccc384ce91e7bd50e9'
p615
sg8
S'xx85f78130c6e0222986a938d6f004ecef'
p616
sg10
S'xxcd85b4318bef77c2a37bcc4bdb88fb4f'
p617
sg12
S'xx8253ffd37b6e5742470a920da1f3e2e9'
p618
sg14
S'Mozilla/5.0 (Linux; Android 5.1; OPPO A37m Build/LMY47I) AppleWebKit/537.36 (KHTML, like Gecko) Version/4.0 Chrome/37.0.0.0 Mobile MQQBrowser/6.8 TBS/036849 Safari/537.36 MicroMessenger/6.3.27.880 NetType/WIFI Language/zh_CN'
p619
sg16
S'0ea24b415bec732831d2caeff51e84db'
p620
sa(dp621
g2
S'38985'
p622
sg4
S'6895'
p623
sg6
S'1cb1750e4c77601799def0feb967d153'
p624
sg8
S'xx85f78130c6e0222986a938d6f004ecef'
p625
sg10
S'xxcd85b4318bef77c2a37bcc4bdb88fb4f'
p626
sg12
S'xx8253ffd37b6e5742470a920da1f3e2e9'
p627
sg14
S'Mozilla/5.0 (Linux; Android 5.1; OPPO A37m Build/LMY47I) AppleWebKit/537.36 (KHTML, like Gecko) Version/4.0 Chrome/37.0.0.0 Mobile MQQBrowser/6.8 TBS/036849 Safari/537.36 MicroMessenger/6.3.27.880 NetType/WIFI Language/zh_CN'
p628
sg16
S'0ea24b415bec732831d2caeff51e84db'
p629
sa(dp630
g2
S'38985'
p631
sg4
S'6915'
p632
sg6
S'1cb1750e4c77601799def0feb967d153'
p633
sg8
S'xx85f78130c6e0222986a938d6f004ecef'
p634
sg10
S'xxcd85b4318bef77c2a37bcc4bdb88fb4f'
p635
sg12
S'xx8253ffd37b6e5742470a920da1f3e2e9'
p636
sg14
S'Mozilla/5.0 (Linux; Android 5.1; OPPO A37m Build/LMY47I) AppleWebKit/537.36 (KHTML, like Gecko) Version/4.0 Chrome/37.0.0.0 Mobile MQQBrowser/6.8 TBS/036849 Safari/537.36 MicroMessenger/6.3.27.880 NetType/WIFI Language/zh_CN'
p637
sg16
S'0ea24b415bec732831d2caeff51e84db'
p638
sa(dp639
g2
S'42694'
p640
sg4
S'7477'
p641
sg6
S'03f52a4f7e66c7ccc384ce91e7bd50e9'
p642
sg8
S'xx85f78130c6e0222986a938d6f004ecef'
p643
sg10
S'xxcd85b4318bef77c2a37bcc4bdb88fb4f'
p644
sg12
S'xx8253ffd37b6e5742470a920da1f3e2e9'
p645
sg14
S'Mozilla/5.0 (Linux; Android 5.1; OPPO A37m Build/LMY47I) AppleWebKit/537.36 (KHTML, like Gecko) Version/4.0 Chrome/37.0.0.0 Mobile MQQBrowser/6.8 TBS/036849 Safari/537.36 MicroMessenger/6.3.27.880 NetType/WIFI Language/zh_CN'
p646
sg16
S'0ea24b415bec732831d2caeff51e84db'
p647
sa(dp648
g2
S'42694'
p649
sg4
S'7492'
p650
sg6
S'03f52a4f7e66c7ccc384ce91e7bd50e9'
p651
sg8
S'xx85f78130c6e0222986a938d6f004ecef'
p652
sg10
S'xxcd85b4318bef77c2a37bcc4bdb88fb4f'
p653
sg12
S'xx8253ffd37b6e5742470a920da1f3e2e9'
p654
sg14
S'Mozilla/5.0 (Linux; Android 5.1; OPPO A37m Build/LMY47I) AppleWebKit/537.36 (KHTML, like Gecko) Version/4.0 Chrome/37.0.0.0 Mobile MQQBrowser/6.8 TBS/036849 Safari/537.36 MicroMessenger/6.3.27.880 NetType/WIFI Language/zh_CN'
p655
sg16
S'0ea24b415bec732831d2caeff51e84db'
p656
sa(dp657
g2
S'42694'
p658
sg4
S'8357'
p659
sg6
S'03f52a4f7e66c7ccc384ce91e7bd50e9'
p660
sg8
S'xx85f78130c6e0222986a938d6f004ecef'
p661
sg10
S'xxcd85b4318bef77c2a37bcc4bdb88fb4f'
p662
sg12
S'xx8253ffd37b6e5742470a920da1f3e2e9'
p663
sg14
S'Mozilla/5.0 (Linux; Android 5.1; OPPO A37m Build/LMY47I) AppleWebKit/537.36 (KHTML, like Gecko) Version/4.0 Chrome/37.0.0.0 Mobile MQQBrowser/6.8 TBS/036849 Safari/537.36 MicroMessenger/6.3.27.880 NetType/WIFI Language/zh_CN'
p664
sg16
S'0ea24b415bec732831d2caeff51e84db'
p665
sa(dp666
g2
S'42694'
p667
sg4
S'8370'
p668
sg6
S'03f52a4f7e66c7ccc384ce91e7bd50e9'
p669
sg8
S'xx85f78130c6e0222986a938d6f004ecef'
p670
sg10
S'xxcd85b4318bef77c2a37bcc4bdb88fb4f'
p671
sg12
S'xx8253ffd37b6e5742470a920da1f3e2e9'
p672
sg14
S'Mozilla/5.0 (Linux; Android 5.1; OPPO A37m Build/LMY47I) AppleWebKit/537.36 (KHTML, like Gecko) Version/4.0 Chrome/37.0.0.0 Mobile MQQBrowser/6.8 TBS/036849 Safari/537.36 MicroMessenger/6.3.27.880 NetType/WIFI Language/zh_CN'
p673
sg16
S'0ea24b415bec732831d2caeff51e84db'
p674
sa(dp675
g2
S'29563'
p676
sg4
S'8391'
p677
sg6
S'cfb17fbc28c2dd50823277fab4d3864d'
p678
sg8
S'xx85f78130c6e0222986a938d6f004ecef'
p679
sg10
S'xxcd85b4318bef77c2a37bcc4bdb88fb4f'
p680
sg12
S'xx8253ffd37b6e5742470a920da1f3e2e9'
p681
sg14
S'Mozilla/5.0 (Linux; Android 5.1; OPPO A37m Build/LMY47I) AppleWebKit/537.36 (KHTML, like Gecko) Version/4.0 Chrome/37.0.0.0 Mobile MQQBrowser/6.8 TBS/036849 Safari/537.36 MicroMessenger/6.3.27.880 NetType/WIFI Language/zh_CN'
p682
sg16
S'0ea24b415bec732831d2caeff51e84db'
p683
sa(dp684
g2
S'17219'
p685
sg4
S'8399'
p686
sg6
S'7470be4cdd895a5288c45b70e34cddc6'
p687
sg8
S'xx98dea13aaf2b1742197e5c3dc907e66e'
p688
sg10
S'xxcd85b4318bef77c2a37bcc4bdb88fb4f'
p689
sg12
S'xx8253ffd37b6e5742470a920da1f3e2e9'
p690
sg14
S'Mozilla/5.0 (Linux; Android 5.1; OPPO A37m Build/LMY47I) AppleWebKit/537.36 (KHTML, like Gecko) Version/4.0 Chrome/37.0.0.0 Mobile MQQBrowser/6.8 TBS/036860 Safari/537.36 MicroMessenger/6.3.27.880 NetType/WIFI Language/zh_CN'
p691
sg16
S'b6ac487f729b64f7c8c4ee1074fd47a4'
p692
sa(dp693
g2
S'17219'
p694
sg4
S'8412'
p695
sg6
S'7470be4cdd895a5288c45b70e34cddc6'
p696
sg8
S'xx98dea13aaf2b1742197e5c3dc907e66e'
p697
sg10
S'xxcd85b4318bef77c2a37bcc4bdb88fb4f'
p698
sg12
S'xx8253ffd37b6e5742470a920da1f3e2e9'
p699
sg14
S'Mozilla/5.0 (Linux; Android 5.1; OPPO A37m Build/LMY47I) AppleWebKit/537.36 (KHTML, like Gecko) Version/4.0 Chrome/37.0.0.0 Mobile MQQBrowser/6.8 TBS/036860 Safari/537.36 MicroMessenger/6.3.27.880 NetType/WIFI Language/zh_CN'
p700
sg16
S'b6ac487f729b64f7c8c4ee1074fd47a4'
p701
sa(dp702
g2
S'29565'
p703
sg4
S'8724'
p704
sg6
S'cfb17fbc28c2dd50823277fab4d3864d'
p705
sg8
S'xx85f78130c6e0222986a938d6f004ecef'
p706
sg10
S'xxcd85b4318bef77c2a37bcc4bdb88fb4f'
p707
sg12
S'xx8253ffd37b6e5742470a920da1f3e2e9'
p708
sg14
S'Mozilla/5.0 (Linux; Android 5.1; OPPO A37m Build/LMY47I) AppleWebKit/537.36 (KHTML, like Gecko) Version/4.0 Chrome/37.0.0.0 Mobile MQQBrowser/6.8 TBS/036849 Safari/537.36 MicroMessenger/6.3.27.880 NetType/WIFI Language/zh_CN'
p709
sg16
S'0ea24b415bec732831d2caeff51e84db'
p710
sa(dp711
g2
S'29565'
p712
sg4
S'8741'
p713
sg6
S'cfb17fbc28c2dd50823277fab4d3864d'
p714
sg8
S'xx85f78130c6e0222986a938d6f004ecef'
p715
sg10
S'xxcd85b4318bef77c2a37bcc4bdb88fb4f'
p716
sg12
S'xx8253ffd37b6e5742470a920da1f3e2e9'
p717
sg14
S'Mozilla/5.0 (Linux; Android 5.1; OPPO A37m Build/LMY47I) AppleWebKit/537.36 (KHTML, like Gecko) Version/4.0 Chrome/37.0.0.0 Mobile MQQBrowser/6.8 TBS/036849 Safari/537.36 MicroMessenger/6.3.27.880 NetType/WIFI Language/zh_CN'
p718
sg16
S'0ea24b415bec732831d2caeff51e84db'
p719
sa(dp720
g2
S'17219'
p721
sg4
S'8775'
p722
sg6
S'7470be4cdd895a5288c45b70e34cddc6'
p723
sg8
S'xx98dea13aaf2b1742197e5c3dc907e66e'
p724
sg10
S'xxcd85b4318bef77c2a37bcc4bdb88fb4f'
p725
sg12
S'xx8253ffd37b6e5742470a920da1f3e2e9'
p726
sg14
S'Mozilla/5.0 (Linux; Android 5.1; OPPO A37m Build/LMY47I) AppleWebKit/537.36 (KHTML, like Gecko) Version/4.0 Chrome/37.0.0.0 Mobile MQQBrowser/6.8 TBS/036860 Safari/537.36 MicroMessenger/6.3.27.880 NetType/WIFI Language/zh_CN'
p727
sg16
S'b6ac487f729b64f7c8c4ee1074fd47a4'
p728
sa(dp729
g2
S'42694'
p730
sg4
S'8814'
p731
sg6
S'03f52a4f7e66c7ccc384ce91e7bd50e9'
p732
sg8
S'xx85f78130c6e0222986a938d6f004ecef'
p733
sg10
S'xxcd85b4318bef77c2a37bcc4bdb88fb4f'
p734
sg12
S'xx8253ffd37b6e5742470a920da1f3e2e9'
p735
sg14
S'Mozilla/5.0 (Linux; Android 5.1; OPPO A37m Build/LMY47I) AppleWebKit/537.36 (KHTML, like Gecko) Version/4.0 Chrome/37.0.0.0 Mobile MQQBrowser/6.8 TBS/036849 Safari/537.36 MicroMessenger/6.3.27.880 NetType/WIFI Language/zh_CN'
p736
sg16
S'0ea24b415bec732831d2caeff51e84db'
p737
sa(dp738
g2
S'42694'
p739
sg4
S'8824'
p740
sg6
S'03f52a4f7e66c7ccc384ce91e7bd50e9'
p741
sg8
S'xx85f78130c6e0222986a938d6f004ecef'
p742
sg10
S'xxcd85b4318bef77c2a37bcc4bdb88fb4f'
p743
sg12
S'xx8253ffd37b6e5742470a920da1f3e2e9'
p744
sg14
S'Mozilla/5.0 (Linux; Android 5.1; OPPO A37m Build/LMY47I) AppleWebKit/537.36 (KHTML, like Gecko) Version/4.0 Chrome/37.0.0.0 Mobile MQQBrowser/6.8 TBS/036849 Safari/537.36 MicroMessenger/6.3.27.880 NetType/WIFI Language/zh_CN'
p745
sg16
S'0ea24b415bec732831d2caeff51e84db'
p746
sa(dp747
g2
S'42694'
p748
sg4
S'8836'
p749
sg6
S'03f52a4f7e66c7ccc384ce91e7bd50e9'
p750
sg8
S'xx85f78130c6e0222986a938d6f004ecef'
p751
sg10
S'xxcd85b4318bef77c2a37bcc4bdb88fb4f'
p752
sg12
S'xx8253ffd37b6e5742470a920da1f3e2e9'
p753
sg14
S'Mozilla/5.0 (Linux; Android 5.1; OPPO A37m Build/LMY47I) AppleWebKit/537.36 (KHTML, like Gecko) Version/4.0 Chrome/37.0.0.0 Mobile MQQBrowser/6.8 TBS/036849 Safari/537.36 MicroMessenger/6.3.27.880 NetType/WIFI Language/zh_CN'
p754
sg16
S'0ea24b415bec732831d2caeff51e84db'
p755
sa(dp756
g2
S'17219'
p757
sg4
S'8841'
p758
sg6
S'7470be4cdd895a5288c45b70e34cddc6'
p759
sg8
S'xx98dea13aaf2b1742197e5c3dc907e66e'
p760
sg10
S'xxcd85b4318bef77c2a37bcc4bdb88fb4f'
p761
sg12
S'xx8253ffd37b6e5742470a920da1f3e2e9'
p762
sg14
S'Mozilla/5.0 (Linux; Android 5.1; OPPO A37m Build/LMY47I) AppleWebKit/537.36 (KHTML, like Gecko) Version/4.0 Chrome/37.0.0.0 Mobile MQQBrowser/6.8 TBS/036860 Safari/537.36 MicroMessenger/6.3.27.880 NetType/WIFI Language/zh_CN'
p763
sg16
S'b6ac487f729b64f7c8c4ee1074fd47a4'
p764
sa.