(lp0
(dp1
S'user_id'
p2
S'46399'
p3
sS'data_id'
p4
S'5179'
p5
sS'ip'
p6
S'8f02dac343f587b9e634f36b72f42e3e'
p7
sS'phone_B'
p8
S'xx5f0dfc740502cd2e683399c59df3d616'
p9
sS'phone_C'
p10
S'xx0ac789b5f09f9b040d56994e80cc3625'
p11
sS'phone_A'
p12
S'xx83b880596c7f4a7ffa22668b999f01b6'
p13
sS'user_agent'
p14
S'Mozilla/5.0 (Linux; Android 6.0; MX6 Build/MRA58K) AppleWebKit/537.36 (KHTML, like Gecko) Version/4.0 Chrome/37.0.0.0 Mobile MQQBrowser/6.8 TBS/036849 Safari/537.36 MicroMessenger/6.3.27.880 NetType/cmnet Language/zh_CN'
p15
sS'ua'
p16
S'4c90a059f341cf40207e26b13b51855c'
p17
sa(dp18
g2
S'46399'
p19
sg4
S'5222'
p20
sg6
S'8f02dac343f587b9e634f36b72f42e3e'
p21
sg8
S'xx5f0dfc740502cd2e683399c59df3d616'
p22
sg10
S'xx0ac789b5f09f9b040d56994e80cc3625'
p23
sg12
S'xx83b880596c7f4a7ffa22668b999f01b6'
p24
sg14
S'Mozilla/5.0 (Linux; Android 6.0; MX6 Build/MRA58K) AppleWebKit/537.36 (KHTML, like Gecko) Version/4.0 Chrome/37.0.0.0 Mobile MQQBrowser/6.8 TBS/036849 Safari/537.36 MicroMessenger/6.3.27.880 NetType/cmnet Language/zh_CN'
p25
sg16
S'4c90a059f341cf40207e26b13b51855c'
p26
sa(dp27
g2
S'46399'
p28
sg4
S'5383'
p29
sg6
S'8f02dac343f587b9e634f36b72f42e3e'
p30
sg8
S'xx5f0dfc740502cd2e683399c59df3d616'
p31
sg10
S'xx0ac789b5f09f9b040d56994e80cc3625'
p32
sg12
S'xx83b880596c7f4a7ffa22668b999f01b6'
p33
sg14
S'Mozilla/5.0 (Linux; Android 6.0; MX6 Build/MRA58K) AppleWebKit/537.36 (KHTML, like Gecko) Version/4.0 Chrome/37.0.0.0 Mobile MQQBrowser/6.8 TBS/036849 Safari/537.36 MicroMessenger/6.3.27.880 NetType/cmnet Language/zh_CN'
p34
sg16
S'4c90a059f341cf40207e26b13b51855c'
p35
sa(dp36
g2
S'46399'
p37
sg4
S'5400'
p38
sg6
S'8f02dac343f587b9e634f36b72f42e3e'
p39
sg8
S'xx5f0dfc740502cd2e683399c59df3d616'
p40
sg10
S'xx0ac789b5f09f9b040d56994e80cc3625'
p41
sg12
S'xx83b880596c7f4a7ffa22668b999f01b6'
p42
sg14
S'Mozilla/5.0 (Linux; Android 6.0; MX6 Build/MRA58K) AppleWebKit/537.36 (KHTML, like Gecko) Version/4.0 Chrome/37.0.0.0 Mobile MQQBrowser/6.8 TBS/036849 Safari/537.36 MicroMessenger/6.3.27.880 NetType/cmnet Language/zh_CN'
p43
sg16
S'4c90a059f341cf40207e26b13b51855c'
p44
sa(dp45
g2
S'46399'
p46
sg4
S'5429'
p47
sg6
S'8f02dac343f587b9e634f36b72f42e3e'
p48
sg8
S'xx5f0dfc740502cd2e683399c59df3d616'
p49
sg10
S'xx0ac789b5f09f9b040d56994e80cc3625'
p50
sg12
S'xx83b880596c7f4a7ffa22668b999f01b6'
p51
sg14
S'Mozilla/5.0 (Linux; Android 6.0; MX6 Build/MRA58K) AppleWebKit/537.36 (KHTML, like Gecko) Version/4.0 Chrome/37.0.0.0 Mobile MQQBrowser/6.8 TBS/036849 Safari/537.36 MicroMessenger/6.3.27.880 NetType/cmnet Language/zh_CN'
p52
sg16
S'4c90a059f341cf40207e26b13b51855c'
p53
sa(dp54
g2
S'46399'
p55
sg4
S'5454'
p56
sg6
S'8f02dac343f587b9e634f36b72f42e3e'
p57
sg8
S'xx5f0dfc740502cd2e683399c59df3d616'
p58
sg10
S'xx0ac789b5f09f9b040d56994e80cc3625'
p59
sg12
S'xx83b880596c7f4a7ffa22668b999f01b6'
p60
sg14
S'Mozilla/5.0 (Linux; Android 6.0; MX6 Build/MRA58K) AppleWebKit/537.36 (KHTML, like Gecko) Version/4.0 Chrome/37.0.0.0 Mobile MQQBrowser/6.8 TBS/036849 Safari/537.36 MicroMessenger/6.3.27.880 NetType/cmnet Language/zh_CN'
p61
sg16
S'4c90a059f341cf40207e26b13b51855c'
p62
sa(dp63
g2
S'46399'
p64
sg4
S'5510'
p65
sg6
S'8f02dac343f587b9e634f36b72f42e3e'
p66
sg8
S'xx5f0dfc740502cd2e683399c59df3d616'
p67
sg10
S'xx0ac789b5f09f9b040d56994e80cc3625'
p68
sg12
S'xx83b880596c7f4a7ffa22668b999f01b6'
p69
sg14
S'Mozilla/5.0 (Linux; Android 6.0; MX6 Build/MRA58K) AppleWebKit/537.36 (KHTML, like Gecko) Version/4.0 Chrome/37.0.0.0 Mobile MQQBrowser/6.8 TBS/036849 Safari/537.36 MicroMessenger/6.3.27.880 NetType/cmnet Language/zh_CN'
p70
sg16
S'4c90a059f341cf40207e26b13b51855c'
p71
sa(dp72
g2
S'46399'
p73
sg4
S'5524'
p74
sg6
S'8f02dac343f587b9e634f36b72f42e3e'
p75
sg8
S'xx5f0dfc740502cd2e683399c59df3d616'
p76
sg10
S'xx0ac789b5f09f9b040d56994e80cc3625'
p77
sg12
S'xx83b880596c7f4a7ffa22668b999f01b6'
p78
sg14
S'Mozilla/5.0 (Linux; Android 6.0; MX6 Build/MRA58K) AppleWebKit/537.36 (KHTML, like Gecko) Version/4.0 Chrome/37.0.0.0 Mobile MQQBrowser/6.8 TBS/036849 Safari/537.36 MicroMessenger/6.3.27.880 NetType/cmnet Language/zh_CN'
p79
sg16
S'4c90a059f341cf40207e26b13b51855c'
p80
sa(dp81
g2
S'46399'
p82
sg4
S'5539'
p83
sg6
S'8f02dac343f587b9e634f36b72f42e3e'
p84
sg8
S'xx5f0dfc740502cd2e683399c59df3d616'
p85
sg10
S'xx0ac789b5f09f9b040d56994e80cc3625'
p86
sg12
S'xx83b880596c7f4a7ffa22668b999f01b6'
p87
sg14
S'Mozilla/5.0 (Linux; Android 6.0; MX6 Build/MRA58K) AppleWebKit/537.36 (KHTML, like Gecko) Version/4.0 Chrome/37.0.0.0 Mobile MQQBrowser/6.8 TBS/036849 Safari/537.36 MicroMessenger/6.3.27.880 NetType/cmnet Language/zh_CN'
p88
sg16
S'4c90a059f341cf40207e26b13b51855c'
p89
sa.