(lp0
(dp1
S'user_id'
p2
S'35882'
p3
sS'data_id'
p4
S'5487'
p5
sS'ip'
p6
S'2782b53d4fdf93d79c0d2a9c1edde799'
p7
sS'phone_B'
p8
S'xxa8dbbc0c35d2947cc8a655e7e893ee29'
p9
sS'phone_C'
p10
S'xxed19db7f2ca0843ce3b9d52f915b613f'
p11
sS'phone_A'
p12
S'xx8537feb99af0eae69eebdbccc4d2e8af'
p13
sS'user_agent'
p14
S'Mozilla/5.0 (Linux; Android 6.0; EDI-AL10 Build/HUAWEIEDISON-AL10) AppleWebKit/537.36 (KHTML, like Gecko) Version/4.0 Chrome/37.0.0.0 Mobile MQQBrowser/6.8 TBS/036849 Safari/537.36 MicroMessenger/6.3.27.880 NetType/3gnet Language/zh_CN'
p15
sS'ua'
p16
S'79ed6bded6c98cba4514f9724de0e228'
p17
sa(dp18
g2
S'35882'
p19
sg4
S'5506'
p20
sg6
S'2782b53d4fdf93d79c0d2a9c1edde799'
p21
sg8
S'xxa8dbbc0c35d2947cc8a655e7e893ee29'
p22
sg10
S'xxed19db7f2ca0843ce3b9d52f915b613f'
p23
sg12
S'xx8537feb99af0eae69eebdbccc4d2e8af'
p24
sg14
S'Mozilla/5.0 (Linux; Android 6.0; EDI-AL10 Build/HUAWEIEDISON-AL10) AppleWebKit/537.36 (KHTML, like Gecko) Version/4.0 Chrome/37.0.0.0 Mobile MQQBrowser/6.8 TBS/036849 Safari/537.36 MicroMessenger/6.3.27.880 NetType/3gnet Language/zh_CN'
p25
sg16
S'79ed6bded6c98cba4514f9724de0e228'
p26
sa(dp27
g2
S'35882'
p28
sg4
S'5749'
p29
sg6
S'2782b53d4fdf93d79c0d2a9c1edde799'
p30
sg8
S'xxa8dbbc0c35d2947cc8a655e7e893ee29'
p31
sg10
S'xxed19db7f2ca0843ce3b9d52f915b613f'
p32
sg12
S'xx8537feb99af0eae69eebdbccc4d2e8af'
p33
sg14
S'Mozilla/5.0 (Linux; Android 6.0; EDI-AL10 Build/HUAWEIEDISON-AL10) AppleWebKit/537.36 (KHTML, like Gecko) Version/4.0 Chrome/37.0.0.0 Mobile MQQBrowser/6.8 TBS/036849 Safari/537.36 MicroMessenger/6.3.27.880 NetType/3gnet Language/zh_CN'
p34
sg16
S'79ed6bded6c98cba4514f9724de0e228'
p35
sa(dp36
g2
S'35882'
p37
sg4
S'5766'
p38
sg6
S'2782b53d4fdf93d79c0d2a9c1edde799'
p39
sg8
S'xxa8dbbc0c35d2947cc8a655e7e893ee29'
p40
sg10
S'xxed19db7f2ca0843ce3b9d52f915b613f'
p41
sg12
S'xx8537feb99af0eae69eebdbccc4d2e8af'
p42
sg14
S'Mozilla/5.0 (Linux; Android 6.0; EDI-AL10 Build/HUAWEIEDISON-AL10) AppleWebKit/537.36 (KHTML, like Gecko) Version/4.0 Chrome/37.0.0.0 Mobile MQQBrowser/6.8 TBS/036849 Safari/537.36 MicroMessenger/6.3.27.880 NetType/3gnet Language/zh_CN'
p43
sg16
S'79ed6bded6c98cba4514f9724de0e228'
p44
sa(dp45
g2
S'35882'
p46
sg4
S'5789'
p47
sg6
S'2782b53d4fdf93d79c0d2a9c1edde799'
p48
sg8
S'xxa8dbbc0c35d2947cc8a655e7e893ee29'
p49
sg10
S'xxed19db7f2ca0843ce3b9d52f915b613f'
p50
sg12
S'xx8537feb99af0eae69eebdbccc4d2e8af'
p51
sg14
S'Mozilla/5.0 (Linux; Android 6.0; EDI-AL10 Build/HUAWEIEDISON-AL10) AppleWebKit/537.36 (KHTML, like Gecko) Version/4.0 Chrome/37.0.0.0 Mobile MQQBrowser/6.8 TBS/036849 Safari/537.36 MicroMessenger/6.3.27.880 NetType/3gnet Language/zh_CN'
p52
sg16
S'79ed6bded6c98cba4514f9724de0e228'
p53
sa(dp54
g2
S'35882'
p55
sg4
S'5809'
p56
sg6
S'2782b53d4fdf93d79c0d2a9c1edde799'
p57
sg8
S'xxa8dbbc0c35d2947cc8a655e7e893ee29'
p58
sg10
S'xxed19db7f2ca0843ce3b9d52f915b613f'
p59
sg12
S'xx8537feb99af0eae69eebdbccc4d2e8af'
p60
sg14
S'Mozilla/5.0 (Linux; Android 6.0; EDI-AL10 Build/HUAWEIEDISON-AL10) AppleWebKit/537.36 (KHTML, like Gecko) Version/4.0 Chrome/37.0.0.0 Mobile MQQBrowser/6.8 TBS/036849 Safari/537.36 MicroMessenger/6.3.27.880 NetType/3gnet Language/zh_CN'
p61
sg16
S'79ed6bded6c98cba4514f9724de0e228'
p62
sa(dp63
g2
S'35882'
p64
sg4
S'5881'
p65
sg6
S'2782b53d4fdf93d79c0d2a9c1edde799'
p66
sg8
S'xxa8dbbc0c35d2947cc8a655e7e893ee29'
p67
sg10
S'xxed19db7f2ca0843ce3b9d52f915b613f'
p68
sg12
S'xx8537feb99af0eae69eebdbccc4d2e8af'
p69
sg14
S'Mozilla/5.0 (Linux; Android 6.0; EDI-AL10 Build/HUAWEIEDISON-AL10) AppleWebKit/537.36 (KHTML, like Gecko) Version/4.0 Chrome/37.0.0.0 Mobile MQQBrowser/6.8 TBS/036849 Safari/537.36 MicroMessenger/6.3.27.880 NetType/3gnet Language/zh_CN'
p70
sg16
S'79ed6bded6c98cba4514f9724de0e228'
p71
sa(dp72
g2
S'35882'
p73
sg4
S'5988'
p74
sg6
S'2782b53d4fdf93d79c0d2a9c1edde799'
p75
sg8
S'xxa8dbbc0c35d2947cc8a655e7e893ee29'
p76
sg10
S'xxed19db7f2ca0843ce3b9d52f915b613f'
p77
sg12
S'xx8537feb99af0eae69eebdbccc4d2e8af'
p78
sg14
S'Mozilla/5.0 (Linux; Android 6.0; EDI-AL10 Build/HUAWEIEDISON-AL10) AppleWebKit/537.36 (KHTML, like Gecko) Version/4.0 Chrome/37.0.0.0 Mobile MQQBrowser/6.8 TBS/036849 Safari/537.36 MicroMessenger/6.3.27.880 NetType/3gnet Language/zh_CN'
p79
sg16
S'79ed6bded6c98cba4514f9724de0e228'
p80
sa.