(lp0
(dp1
S'user_id'
p2
S'32963'
p3
sS'data_id'
p4
S'5117'
p5
sS'ip'
p6
S'a98aab59597712650d8be027c4e8ed09'
p7
sS'phone_B'
p8
S'xx6d4699dbc490d70c2f2b55093170ffb1'
p9
sS'phone_C'
p10
S'xx50bcda2a310b2b098528fbba39bad9f0'
p11
sS'phone_A'
p12
S'xx86b02ebc8c0d77652185882f91d39adb'
p13
sS'user_agent'
p14
S'Mozilla/5.0 (Linux; Android 6.0; koobee S9Q Build/MRA58K) AppleWebKit/537.36 (KHTML, like Gecko) Version/4.0 Chrome/37.0.0.0 Mobile MQQBrowser/6.8 TBS/036849 Safari/537.36 MicroMessenger/6.3.27.880 NetType/ctnet Language/zh_CN'
p15
sS'ua'
p16
S'592b12db7c1272bbad8e8284e278410b'
p17
sa(dp18
g2
S'32963'
p19
sg4
S'5134'
p20
sg6
S'a98aab59597712650d8be027c4e8ed09'
p21
sg8
S'xx6d4699dbc490d70c2f2b55093170ffb1'
p22
sg10
S'xx50bcda2a310b2b098528fbba39bad9f0'
p23
sg12
S'xx86b02ebc8c0d77652185882f91d39adb'
p24
sg14
S'Mozilla/5.0 (Linux; Android 6.0; koobee S9Q Build/MRA58K) AppleWebKit/537.36 (KHTML, like Gecko) Version/4.0 Chrome/37.0.0.0 Mobile MQQBrowser/6.8 TBS/036849 Safari/537.36 MicroMessenger/6.3.27.880 NetType/ctnet Language/zh_CN'
p25
sg16
S'592b12db7c1272bbad8e8284e278410b'
p26
sa.