(lp0
(dp1
S'user_id'
p2
S'30048'
p3
sS'data_id'
p4
S'385'
p5
sS'ip'
p6
S'cdb386f091b22274c8a5bfbefc5c4113'
p7
sS'phone_B'
p8
S'xx7c3ca8407ee974ebf55ec2327adba54b'
p9
sS'phone_C'
p10
S'xxcd85b4318bef77c2a37bcc4bdb88fb4f'
p11
sS'phone_A'
p12
S'xx862cfd9d800df9be3c318e8bb605fdc5'
p13
sS'user_agent'
p14
S'Mozilla/5.0 (Linux; Android 5.1; OPPO A59m Build/LMY47I) AppleWebKit/537.36 (KHTML, like Gecko) Version/4.0 Chrome/37.0.0.0 Mobile MQQBrowser/6.8 TBS/036849 Safari/537.36 MicroMessenger/6.3.27.880 NetType/cmnet Language/zh_CN'
p15
sS'ua'
p16
S'9f5eb8e3bf8a48117b3fb0656ce8e8b7'
p17
sa(dp18
g2
S'30048'
p19
sg4
S'398'
p20
sg6
S'cdb386f091b22274c8a5bfbefc5c4113'
p21
sg8
S'xx7c3ca8407ee974ebf55ec2327adba54b'
p22
sg10
S'xxcd85b4318bef77c2a37bcc4bdb88fb4f'
p23
sg12
S'xx862cfd9d800df9be3c318e8bb605fdc5'
p24
sg14
S'Mozilla/5.0 (Linux; Android 5.1; OPPO A59m Build/LMY47I) AppleWebKit/537.36 (KHTML, like Gecko) Version/4.0 Chrome/37.0.0.0 Mobile MQQBrowser/6.8 TBS/036849 Safari/537.36 MicroMessenger/6.3.27.880 NetType/cmnet Language/zh_CN'
p25
sg16
S'9f5eb8e3bf8a48117b3fb0656ce8e8b7'
p26
sa(dp27
g2
S'30048'
p28
sg4
S'440'
p29
sg6
S'cdb386f091b22274c8a5bfbefc5c4113'
p30
sg8
S'xx7c3ca8407ee974ebf55ec2327adba54b'
p31
sg10
S'xxcd85b4318bef77c2a37bcc4bdb88fb4f'
p32
sg12
S'xx862cfd9d800df9be3c318e8bb605fdc5'
p33
sg14
S'Mozilla/5.0 (Linux; Android 5.1; OPPO A59m Build/LMY47I) AppleWebKit/537.36 (KHTML, like Gecko) Version/4.0 Chrome/37.0.0.0 Mobile MQQBrowser/6.8 TBS/036849 Safari/537.36 MicroMessenger/6.3.27.880 NetType/cmnet Language/zh_CN'
p34
sg16
S'9f5eb8e3bf8a48117b3fb0656ce8e8b7'
p35
sa(dp36
g2
S'30048'
p37
sg4
S'455'
p38
sg6
S'cdb386f091b22274c8a5bfbefc5c4113'
p39
sg8
S'xx7c3ca8407ee974ebf55ec2327adba54b'
p40
sg10
S'xxcd85b4318bef77c2a37bcc4bdb88fb4f'
p41
sg12
S'xx862cfd9d800df9be3c318e8bb605fdc5'
p42
sg14
S'Mozilla/5.0 (Linux; Android 5.1; OPPO A59m Build/LMY47I) AppleWebKit/537.36 (KHTML, like Gecko) Version/4.0 Chrome/37.0.0.0 Mobile MQQBrowser/6.8 TBS/036849 Safari/537.36 MicroMessenger/6.3.27.880 NetType/cmnet Language/zh_CN'
p43
sg16
S'9f5eb8e3bf8a48117b3fb0656ce8e8b7'
p44
sa(dp45
g2
S'30048'
p46
sg4
S'463'
p47
sg6
S'cdb386f091b22274c8a5bfbefc5c4113'
p48
sg8
S'xx7c3ca8407ee974ebf55ec2327adba54b'
p49
sg10
S'xxcd85b4318bef77c2a37bcc4bdb88fb4f'
p50
sg12
S'xx862cfd9d800df9be3c318e8bb605fdc5'
p51
sg14
S'Mozilla/5.0 (Linux; Android 5.1; OPPO A59m Build/LMY47I) AppleWebKit/537.36 (KHTML, like Gecko) Version/4.0 Chrome/37.0.0.0 Mobile MQQBrowser/6.8 TBS/036849 Safari/537.36 MicroMessenger/6.3.27.880 NetType/cmnet Language/zh_CN'
p52
sg16
S'9f5eb8e3bf8a48117b3fb0656ce8e8b7'
p53
sa(dp54
g2
S'30048'
p55
sg4
S'469'
p56
sg6
S'cdb386f091b22274c8a5bfbefc5c4113'
p57
sg8
S'xx7c3ca8407ee974ebf55ec2327adba54b'
p58
sg10
S'xxcd85b4318bef77c2a37bcc4bdb88fb4f'
p59
sg12
S'xx862cfd9d800df9be3c318e8bb605fdc5'
p60
sg14
S'Mozilla/5.0 (Linux; Android 5.1; OPPO A59m Build/LMY47I) AppleWebKit/537.36 (KHTML, like Gecko) Version/4.0 Chrome/37.0.0.0 Mobile MQQBrowser/6.8 TBS/036849 Safari/537.36 MicroMessenger/6.3.27.880 NetType/cmnet Language/zh_CN'
p61
sg16
S'9f5eb8e3bf8a48117b3fb0656ce8e8b7'
p62
sa(dp63
g2
S'30048'
p64
sg4
S'480'
p65
sg6
S'cdb386f091b22274c8a5bfbefc5c4113'
p66
sg8
S'xx7c3ca8407ee974ebf55ec2327adba54b'
p67
sg10
S'xxcd85b4318bef77c2a37bcc4bdb88fb4f'
p68
sg12
S'xx862cfd9d800df9be3c318e8bb605fdc5'
p69
sg14
S'Mozilla/5.0 (Linux; Android 5.1; OPPO A59m Build/LMY47I) AppleWebKit/537.36 (KHTML, like Gecko) Version/4.0 Chrome/37.0.0.0 Mobile MQQBrowser/6.8 TBS/036849 Safari/537.36 MicroMessenger/6.3.27.880 NetType/cmnet Language/zh_CN'
p70
sg16
S'9f5eb8e3bf8a48117b3fb0656ce8e8b7'
p71
sa(dp72
g2
S'37924'
p73
sg4
S'3427'
p74
sg6
S'43b33e1872e767a46ba2578c0d38fc18'
p75
sg8
S'xx8e19824f0a625665c3b1b7c8be3bca53'
p76
sg10
S'xxcd85b4318bef77c2a37bcc4bdb88fb4f'
p77
sg12
S'xx862cfd9d800df9be3c318e8bb605fdc5'
p78
sg14
S'Mozilla/5.0 (Linux; Android 5.1; OPPO A59m Build/LMY47I) AppleWebKit/537.36 (KHTML, like Gecko) Version/4.0 Chrome/37.0.0.0 Mobile MQQBrowser/6.8 TBS/036861 Safari/537.36 MicroMessenger/6.3.27.880 NetType/WIFI Language/zh_CN'
p79
sg16
S'dfddc30bb0a185b184f5f23f289e5f38'
p80
sa(dp81
g2
S'37924'
p82
sg4
S'3444'
p83
sg6
S'43b33e1872e767a46ba2578c0d38fc18'
p84
sg8
S'xx8e19824f0a625665c3b1b7c8be3bca53'
p85
sg10
S'xxcd85b4318bef77c2a37bcc4bdb88fb4f'
p86
sg12
S'xx862cfd9d800df9be3c318e8bb605fdc5'
p87
sg14
S'Mozilla/5.0 (Linux; Android 5.1; OPPO A59m Build/LMY47I) AppleWebKit/537.36 (KHTML, like Gecko) Version/4.0 Chrome/37.0.0.0 Mobile MQQBrowser/6.8 TBS/036861 Safari/537.36 MicroMessenger/6.3.27.880 NetType/WIFI Language/zh_CN'
p88
sg16
S'dfddc30bb0a185b184f5f23f289e5f38'
p89
sa(dp90
g2
S'30048'
p91
sg4
S'3462'
p92
sg6
S'cdb386f091b22274c8a5bfbefc5c4113'
p93
sg8
S'xx7c3ca8407ee974ebf55ec2327adba54b'
p94
sg10
S'xxcd85b4318bef77c2a37bcc4bdb88fb4f'
p95
sg12
S'xx862cfd9d800df9be3c318e8bb605fdc5'
p96
sg14
S'Mozilla/5.0 (Linux; Android 5.1; OPPO A59m Build/LMY47I) AppleWebKit/537.36 (KHTML, like Gecko) Version/4.0 Chrome/37.0.0.0 Mobile MQQBrowser/6.8 TBS/036849 Safari/537.36 MicroMessenger/6.3.27.880 NetType/cmnet Language/zh_CN'
p97
sg16
S'9f5eb8e3bf8a48117b3fb0656ce8e8b7'
p98
sa(dp99
g2
S'30048'
p100
sg4
S'3479'
p101
sg6
S'cdb386f091b22274c8a5bfbefc5c4113'
p102
sg8
S'xx7c3ca8407ee974ebf55ec2327adba54b'
p103
sg10
S'xxcd85b4318bef77c2a37bcc4bdb88fb4f'
p104
sg12
S'xx862cfd9d800df9be3c318e8bb605fdc5'
p105
sg14
S'Mozilla/5.0 (Linux; Android 5.1; OPPO A59m Build/LMY47I) AppleWebKit/537.36 (KHTML, like Gecko) Version/4.0 Chrome/37.0.0.0 Mobile MQQBrowser/6.8 TBS/036849 Safari/537.36 MicroMessenger/6.3.27.880 NetType/cmnet Language/zh_CN'
p106
sg16
S'9f5eb8e3bf8a48117b3fb0656ce8e8b7'
p107
sa(dp108
g2
S'26707'
p109
sg4
S'3904'
p110
sg6
S'a5b44b593f8f8dbc9d4ef18a119f70cf'
p111
sg8
S'xxf2131f78f2ca063332f5f63a7463fe0c'
p112
sg10
S'xxcd85b4318bef77c2a37bcc4bdb88fb4f'
p113
sg12
S'xx862cfd9d800df9be3c318e8bb605fdc5'
p114
sg14
S'Mozilla/5.0 (Linux; Android 5.1; OPPO A59m Build/LMY47I) AppleWebKit/537.36 (KHTML, like Gecko) Version/4.0 Chrome/37.0.0.0 Mobile MQQBrowser/6.8 TBS/036849 Safari/537.36 MicroMessenger/6.3.27.880 NetType/WIFI Language/zh_CN'
p115
sg16
S'bc9f63df844110963c4fe4036376dab2'
p116
sa(dp117
g2
S'26707'
p118
sg4
S'3924'
p119
sg6
S'a5b44b593f8f8dbc9d4ef18a119f70cf'
p120
sg8
S'xxf2131f78f2ca063332f5f63a7463fe0c'
p121
sg10
S'xxcd85b4318bef77c2a37bcc4bdb88fb4f'
p122
sg12
S'xx862cfd9d800df9be3c318e8bb605fdc5'
p123
sg14
S'Mozilla/5.0 (Linux; Android 5.1; OPPO A59m Build/LMY47I) AppleWebKit/537.36 (KHTML, like Gecko) Version/4.0 Chrome/37.0.0.0 Mobile MQQBrowser/6.8 TBS/036849 Safari/537.36 MicroMessenger/6.3.27.880 NetType/WIFI Language/zh_CN'
p124
sg16
S'bc9f63df844110963c4fe4036376dab2'
p125
sa(dp126
g2
S'26707'
p127
sg4
S'3959'
p128
sg6
S'a5b44b593f8f8dbc9d4ef18a119f70cf'
p129
sg8
S'xxf2131f78f2ca063332f5f63a7463fe0c'
p130
sg10
S'xxcd85b4318bef77c2a37bcc4bdb88fb4f'
p131
sg12
S'xx862cfd9d800df9be3c318e8bb605fdc5'
p132
sg14
S'Mozilla/5.0 (Linux; Android 5.1; OPPO A59m Build/LMY47I) AppleWebKit/537.36 (KHTML, like Gecko) Version/4.0 Chrome/37.0.0.0 Mobile MQQBrowser/6.8 TBS/036849 Safari/537.36 MicroMessenger/6.3.27.880 NetType/WIFI Language/zh_CN'
p133
sg16
S'bc9f63df844110963c4fe4036376dab2'
p134
sa(dp135
g2
S'49789'
p136
sg4
S'4821'
p137
sg6
S'9ca30f1e8dd1d7ea945b61c8cb5f8ec9'
p138
sg8
S'xxf2131f78f2ca063332f5f63a7463fe0c'
p139
sg10
S'xxcd85b4318bef77c2a37bcc4bdb88fb4f'
p140
sg12
S'xx862cfd9d800df9be3c318e8bb605fdc5'
p141
sg14
S'Mozilla/5.0 (Linux; Android 5.1; OPPO A59m Build/LMY47I) AppleWebKit/537.36 (KHTML, like Gecko) Version/4.0 Chrome/37.0.0.0 Mobile MQQBrowser/6.8 TBS/036849 Safari/537.36 MicroMessenger/6.3.27.880 NetType/WIFI Language/zh_CN'
p142
sg16
S'bc9f63df844110963c4fe4036376dab2'
p143
sa(dp144
g2
S'49789'
p145
sg4
S'4837'
p146
sg6
S'9ca30f1e8dd1d7ea945b61c8cb5f8ec9'
p147
sg8
S'xxf2131f78f2ca063332f5f63a7463fe0c'
p148
sg10
S'xxcd85b4318bef77c2a37bcc4bdb88fb4f'
p149
sg12
S'xx862cfd9d800df9be3c318e8bb605fdc5'
p150
sg14
S'Mozilla/5.0 (Linux; Android 5.1; OPPO A59m Build/LMY47I) AppleWebKit/537.36 (KHTML, like Gecko) Version/4.0 Chrome/37.0.0.0 Mobile MQQBrowser/6.8 TBS/036849 Safari/537.36 MicroMessenger/6.3.27.880 NetType/WIFI Language/zh_CN'
p151
sg16
S'bc9f63df844110963c4fe4036376dab2'
p152
sa(dp153
g2
S'47738'
p154
sg4
S'5135'
p155
sg6
S'50eaccbab87ef98eaf79ea688bc155f6'
p156
sg8
S'xx1114942473f86d0a212995e77dce0a0e'
p157
sg10
S'xxcd85b4318bef77c2a37bcc4bdb88fb4f'
p158
sg12
S'xx862cfd9d800df9be3c318e8bb605fdc5'
p159
sg14
S'Mozilla/5.0 (Linux; Android 5.1; OPPO A59m Build/LMY47I) AppleWebKit/537.36 (KHTML, like Gecko) Version/4.0 Chrome/37.0.0.0 Mobile MQQBrowser/6.8 TBS/036865 Safari/537.36 MicroMessenger/6.3.27.880 NetType/WIFI Language/zh_CN'
p160
sg16
S'540ea0d337cb21bd4a19dab41f23fcf3'
p161
sa(dp162
g2
S'47738'
p163
sg4
S'5146'
p164
sg6
S'50eaccbab87ef98eaf79ea688bc155f6'
p165
sg8
S'xx1114942473f86d0a212995e77dce0a0e'
p166
sg10
S'xxcd85b4318bef77c2a37bcc4bdb88fb4f'
p167
sg12
S'xx862cfd9d800df9be3c318e8bb605fdc5'
p168
sg14
S'Mozilla/5.0 (Linux; Android 5.1; OPPO A59m Build/LMY47I) AppleWebKit/537.36 (KHTML, like Gecko) Version/4.0 Chrome/37.0.0.0 Mobile MQQBrowser/6.8 TBS/036865 Safari/537.36 MicroMessenger/6.3.27.880 NetType/WIFI Language/zh_CN'
p169
sg16
S'540ea0d337cb21bd4a19dab41f23fcf3'
p170
sa(dp171
g2
S'47738'
p172
sg4
S'5163'
p173
sg6
S'50eaccbab87ef98eaf79ea688bc155f6'
p174
sg8
S'xx1114942473f86d0a212995e77dce0a0e'
p175
sg10
S'xxcd85b4318bef77c2a37bcc4bdb88fb4f'
p176
sg12
S'xx862cfd9d800df9be3c318e8bb605fdc5'
p177
sg14
S'Mozilla/5.0 (Linux; Android 5.1; OPPO A59m Build/LMY47I) AppleWebKit/537.36 (KHTML, like Gecko) Version/4.0 Chrome/37.0.0.0 Mobile MQQBrowser/6.8 TBS/036865 Safari/537.36 MicroMessenger/6.3.27.880 NetType/WIFI Language/zh_CN'
p178
sg16
S'540ea0d337cb21bd4a19dab41f23fcf3'
p179
sa(dp180
g2
S'49799'
p181
sg4
S'5329'
p182
sg6
S'a2cc057e70d667a9b68a39d6cb3938e2'
p183
sg8
S'xx0639a51692a9f9853c24223b61afb458'
p184
sg10
S'xxcd85b4318bef77c2a37bcc4bdb88fb4f'
p185
sg12
S'xx862cfd9d800df9be3c318e8bb605fdc5'
p186
sg14
S'Mozilla/5.0 (Linux; Android 5.1; OPPO A59m Build/LMY47I) AppleWebKit/537.36 (KHTML, like Gecko) Version/4.0 Chrome/37.0.0.0 Mobile MQQBrowser/6.8 TBS/036865 Safari/537.36 MicroMessenger/6.3.25.861 NetType/WIFI Language/zh_CN'
p187
sg16
S'3a2514ac7f42d3d71475cacb5f9589d1'
p188
sa(dp189
g2
S'49799'
p190
sg4
S'5342'
p191
sg6
S'a2cc057e70d667a9b68a39d6cb3938e2'
p192
sg8
S'xx0639a51692a9f9853c24223b61afb458'
p193
sg10
S'xxcd85b4318bef77c2a37bcc4bdb88fb4f'
p194
sg12
S'xx862cfd9d800df9be3c318e8bb605fdc5'
p195
sg14
S'Mozilla/5.0 (Linux; Android 5.1; OPPO A59m Build/LMY47I) AppleWebKit/537.36 (KHTML, like Gecko) Version/4.0 Chrome/37.0.0.0 Mobile MQQBrowser/6.8 TBS/036865 Safari/537.36 MicroMessenger/6.3.25.861 NetType/WIFI Language/zh_CN'
p196
sg16
S'3a2514ac7f42d3d71475cacb5f9589d1'
p197
sa(dp198
g2
S'45536'
p199
sg4
S'5362'
p200
sg6
S'269ada9eb9f889abb8b8833f5a709933'
p201
sg8
S'xxf2131f78f2ca063332f5f63a7463fe0c'
p202
sg10
S'xxcd85b4318bef77c2a37bcc4bdb88fb4f'
p203
sg12
S'xx862cfd9d800df9be3c318e8bb605fdc5'
p204
sg14
S'Mozilla/5.0 (Linux; Android 5.1; OPPO A59m Build/LMY47I) AppleWebKit/537.36 (KHTML, like Gecko) Version/4.0 Chrome/37.0.0.0 Mobile MQQBrowser/6.8 TBS/036849 Safari/537.36 MicroMessenger/6.3.27.880 NetType/WIFI Language/zh_CN'
p205
sg16
S'bc9f63df844110963c4fe4036376dab2'
p206
sa(dp207
g2
S'45536'
p208
sg4
S'5377'
p209
sg6
S'269ada9eb9f889abb8b8833f5a709933'
p210
sg8
S'xxf2131f78f2ca063332f5f63a7463fe0c'
p211
sg10
S'xxcd85b4318bef77c2a37bcc4bdb88fb4f'
p212
sg12
S'xx862cfd9d800df9be3c318e8bb605fdc5'
p213
sg14
S'Mozilla/5.0 (Linux; Android 5.1; OPPO A59m Build/LMY47I) AppleWebKit/537.36 (KHTML, like Gecko) Version/4.0 Chrome/37.0.0.0 Mobile MQQBrowser/6.8 TBS/036849 Safari/537.36 MicroMessenger/6.3.27.880 NetType/WIFI Language/zh_CN'
p214
sg16
S'bc9f63df844110963c4fe4036376dab2'
p215
sa(dp216
g2
S'45536'
p217
sg4
S'5392'
p218
sg6
S'269ada9eb9f889abb8b8833f5a709933'
p219
sg8
S'xxf2131f78f2ca063332f5f63a7463fe0c'
p220
sg10
S'xxcd85b4318bef77c2a37bcc4bdb88fb4f'
p221
sg12
S'xx862cfd9d800df9be3c318e8bb605fdc5'
p222
sg14
S'Mozilla/5.0 (Linux; Android 5.1; OPPO A59m Build/LMY47I) AppleWebKit/537.36 (KHTML, like Gecko) Version/4.0 Chrome/37.0.0.0 Mobile MQQBrowser/6.8 TBS/036849 Safari/537.36 MicroMessenger/6.3.27.880 NetType/WIFI Language/zh_CN'
p223
sg16
S'bc9f63df844110963c4fe4036376dab2'
p224
sa(dp225
g2
S'30219'
p226
sg4
S'6316'
p227
sg6
S'49ddc679ac42446fdd849e81c0bdfdcf'
p228
sg8
S'xx7c3ca8407ee974ebf55ec2327adba54b'
p229
sg10
S'xxcd85b4318bef77c2a37bcc4bdb88fb4f'
p230
sg12
S'xx862cfd9d800df9be3c318e8bb605fdc5'
p231
sg14
S'Mozilla/5.0 (Linux; Android 5.1; OPPO A59m Build/LMY47I) AppleWebKit/537.36 (KHTML, like Gecko) Version/4.0 Chrome/37.0.0.0 Mobile MQQBrowser/6.8 TBS/036849 Safari/537.36 MicroMessenger/6.3.27.880 NetType/cmnet Language/zh_CN'
p232
sg16
S'9f5eb8e3bf8a48117b3fb0656ce8e8b7'
p233
sa(dp234
g2
S'30219'
p235
sg4
S'6334'
p236
sg6
S'49ddc679ac42446fdd849e81c0bdfdcf'
p237
sg8
S'xx7c3ca8407ee974ebf55ec2327adba54b'
p238
sg10
S'xxcd85b4318bef77c2a37bcc4bdb88fb4f'
p239
sg12
S'xx862cfd9d800df9be3c318e8bb605fdc5'
p240
sg14
S'Mozilla/5.0 (Linux; Android 5.1; OPPO A59m Build/LMY47I) AppleWebKit/537.36 (KHTML, like Gecko) Version/4.0 Chrome/37.0.0.0 Mobile MQQBrowser/6.8 TBS/036849 Safari/537.36 MicroMessenger/6.3.27.880 NetType/cmnet Language/zh_CN'
p241
sg16
S'9f5eb8e3bf8a48117b3fb0656ce8e8b7'
p242
sa(dp243
g2
S'43525'
p244
sg4
S'7592'
p245
sg6
S'269ada9eb9f889abb8b8833f5a709933'
p246
sg8
S'xxf2131f78f2ca063332f5f63a7463fe0c'
p247
sg10
S'xxcd85b4318bef77c2a37bcc4bdb88fb4f'
p248
sg12
S'xx862cfd9d800df9be3c318e8bb605fdc5'
p249
sg14
S'Mozilla/5.0 (Linux; Android 5.1; OPPO A59m Build/LMY47I) AppleWebKit/537.36 (KHTML, like Gecko) Version/4.0 Chrome/37.0.0.0 Mobile MQQBrowser/6.8 TBS/036849 Safari/537.36 MicroMessenger/6.3.27.880 NetType/WIFI Language/zh_CN'
p250
sg16
S'bc9f63df844110963c4fe4036376dab2'
p251
sa(dp252
g2
S'43525'
p253
sg4
S'7600'
p254
sg6
S'269ada9eb9f889abb8b8833f5a709933'
p255
sg8
S'xxf2131f78f2ca063332f5f63a7463fe0c'
p256
sg10
S'xxcd85b4318bef77c2a37bcc4bdb88fb4f'
p257
sg12
S'xx862cfd9d800df9be3c318e8bb605fdc5'
p258
sg14
S'Mozilla/5.0 (Linux; Android 5.1; OPPO A59m Build/LMY47I) AppleWebKit/537.36 (KHTML, like Gecko) Version/4.0 Chrome/37.0.0.0 Mobile MQQBrowser/6.8 TBS/036849 Safari/537.36 MicroMessenger/6.3.27.880 NetType/WIFI Language/zh_CN'
p259
sg16
S'bc9f63df844110963c4fe4036376dab2'
p260
sa(dp261
g2
S'49852'
p262
sg4
S'8447'
p263
sg6
S'18de35e6e256f43dd7a9885b3484a2e4'
p264
sg8
S'xx7c3ca8407ee974ebf55ec2327adba54b'
p265
sg10
S'xxcd85b4318bef77c2a37bcc4bdb88fb4f'
p266
sg12
S'xx862cfd9d800df9be3c318e8bb605fdc5'
p267
sg14
S'Mozilla/5.0 (Linux; Android 5.1; OPPO A59m Build/LMY47I) AppleWebKit/537.36 (KHTML, like Gecko) Version/4.0 Chrome/37.0.0.0 Mobile MQQBrowser/6.8 TBS/036849 Safari/537.36 MicroMessenger/6.3.27.880 NetType/cmnet Language/zh_CN'
p268
sg16
S'9f5eb8e3bf8a48117b3fb0656ce8e8b7'
p269
sa(dp270
g2
S'49852'
p271
sg4
S'8460'
p272
sg6
S'18de35e6e256f43dd7a9885b3484a2e4'
p273
sg8
S'xx7c3ca8407ee974ebf55ec2327adba54b'
p274
sg10
S'xxcd85b4318bef77c2a37bcc4bdb88fb4f'
p275
sg12
S'xx862cfd9d800df9be3c318e8bb605fdc5'
p276
sg14
S'Mozilla/5.0 (Linux; Android 5.1; OPPO A59m Build/LMY47I) AppleWebKit/537.36 (KHTML, like Gecko) Version/4.0 Chrome/37.0.0.0 Mobile MQQBrowser/6.8 TBS/036849 Safari/537.36 MicroMessenger/6.3.27.880 NetType/cmnet Language/zh_CN'
p277
sg16
S'9f5eb8e3bf8a48117b3fb0656ce8e8b7'
p278
sa.