(lp0
(dp1
S'user_id'
p2
S'7399'
p3
sS'data_id'
p4
S'3245'
p5
sS'ip'
p6
S'03058ff25b1b7f26625c3e6dad07f9c3'
p7
sS'phone_B'
p8
S'xx20ff69a5c7ae517059f97e520943c78f'
p9
sS'phone_C'
p10
S'xx74afc448a18f3259942dc10e23848c7d'
p11
sS'phone_A'
p12
S'xx86a872dc9be239d58afd7602c85750a9'
p13
sS'user_agent'
p14
S'Mozilla/5.0 (Linux; Android 5.0.2; Letv X501 Build/DAXCNCU5501304131S) AppleWebKit/537.36 (KHTML, like Gecko) Version/4.0 Chrome/37.0.0.0 Mobile MQQBrowser/6.8 TBS/036824 Safari/537.36 MicroMessenger/6.3.25.861 NetType/WIFI Language/zh_CN'
p15
sS'ua'
p16
S'5a3815be15475577e3ebf4f28379329b'
p17
sa(dp18
g2
S'7399'
p19
sg4
S'3260'
p20
sg6
S'03058ff25b1b7f26625c3e6dad07f9c3'
p21
sg8
S'xx20ff69a5c7ae517059f97e520943c78f'
p22
sg10
S'xx74afc448a18f3259942dc10e23848c7d'
p23
sg12
S'xx86a872dc9be239d58afd7602c85750a9'
p24
sg14
S'Mozilla/5.0 (Linux; Android 5.0.2; Letv X501 Build/DAXCNCU5501304131S) AppleWebKit/537.36 (KHTML, like Gecko) Version/4.0 Chrome/37.0.0.0 Mobile MQQBrowser/6.8 TBS/036824 Safari/537.36 MicroMessenger/6.3.25.861 NetType/WIFI Language/zh_CN'
p25
sg16
S'5a3815be15475577e3ebf4f28379329b'
p26
sa(dp27
g2
S'46627'
p28
sg4
S'3429'
p29
sg6
S'03058ff25b1b7f26625c3e6dad07f9c3'
p30
sg8
S'xxc230961aa49b513ff69512d8f1487cda'
p31
sg10
S'xx34977a3fe3081bdff11c942eb316a46f'
p32
sg12
S'xx86a872dc9be239d58afd7602c85750a9'
p33
sg14
S'Mozilla/5.0 (Linux; Android 5.0.2; Letv X501 Build/DAXCNCU5501304131S) AppleWebKit/537.36 (KHTML, like Gecko) Version/4.0 Chrome/37.0.0.0 Mobile MQQBrowser/6.8 TBS/036824 Safari/537.36 MicroMessenger/6.3.25.861 NetType/WIFI Language/zh_CN'
p34
sg16
S'5a3815be15475577e3ebf4f28379329b'
p35
sa(dp36
g2
S'46627'
p37
sg4
S'3445'
p38
sg6
S'03058ff25b1b7f26625c3e6dad07f9c3'
p39
sg8
S'xxc230961aa49b513ff69512d8f1487cda'
p40
sg10
S'xx34977a3fe3081bdff11c942eb316a46f'
p41
sg12
S'xx86a872dc9be239d58afd7602c85750a9'
p42
sg14
S'Mozilla/5.0 (Linux; Android 5.0.2; Letv X501 Build/DAXCNCU5501304131S) AppleWebKit/537.36 (KHTML, like Gecko) Version/4.0 Chrome/37.0.0.0 Mobile MQQBrowser/6.8 TBS/036824 Safari/537.36 MicroMessenger/6.3.25.861 NetType/WIFI Language/zh_CN'
p43
sg16
S'5a3815be15475577e3ebf4f28379329b'
p44
sa(dp45
g2
S'46627'
p46
sg4
S'3650'
p47
sg6
S'03058ff25b1b7f26625c3e6dad07f9c3'
p48
sg8
S'xxc230961aa49b513ff69512d8f1487cda'
p49
sg10
S'xx34977a3fe3081bdff11c942eb316a46f'
p50
sg12
S'xx86a872dc9be239d58afd7602c85750a9'
p51
sg14
S'Mozilla/5.0 (Linux; Android 5.0.2; Letv X501 Build/DAXCNCU5501304131S) AppleWebKit/537.36 (KHTML, like Gecko) Version/4.0 Chrome/37.0.0.0 Mobile MQQBrowser/6.8 TBS/036824 Safari/537.36 MicroMessenger/6.3.25.861 NetType/WIFI Language/zh_CN'
p52
sg16
S'5a3815be15475577e3ebf4f28379329b'
p53
sa(dp54
g2
S'7399'
p55
sg4
S'3768'
p56
sg6
S'03058ff25b1b7f26625c3e6dad07f9c3'
p57
sg8
S'xx20ff69a5c7ae517059f97e520943c78f'
p58
sg10
S'xx74afc448a18f3259942dc10e23848c7d'
p59
sg12
S'xx86a872dc9be239d58afd7602c85750a9'
p60
sg14
S'Mozilla/5.0 (Linux; Android 5.0.2; Letv X501 Build/DAXCNCU5501304131S) AppleWebKit/537.36 (KHTML, like Gecko) Version/4.0 Chrome/37.0.0.0 Mobile MQQBrowser/6.8 TBS/036824 Safari/537.36 MicroMessenger/6.3.25.861 NetType/WIFI Language/zh_CN'
p61
sg16
S'5a3815be15475577e3ebf4f28379329b'
p62
sa(dp63
g2
S'7399'
p64
sg4
S'3783'
p65
sg6
S'03058ff25b1b7f26625c3e6dad07f9c3'
p66
sg8
S'xx20ff69a5c7ae517059f97e520943c78f'
p67
sg10
S'xx74afc448a18f3259942dc10e23848c7d'
p68
sg12
S'xx86a872dc9be239d58afd7602c85750a9'
p69
sg14
S'Mozilla/5.0 (Linux; Android 5.0.2; Letv X501 Build/DAXCNCU5501304131S) AppleWebKit/537.36 (KHTML, like Gecko) Version/4.0 Chrome/37.0.0.0 Mobile MQQBrowser/6.8 TBS/036824 Safari/537.36 MicroMessenger/6.3.25.861 NetType/WIFI Language/zh_CN'
p70
sg16
S'5a3815be15475577e3ebf4f28379329b'
p71
sa(dp72
g2
S'7399'
p73
sg4
S'4075'
p74
sg6
S'03058ff25b1b7f26625c3e6dad07f9c3'
p75
sg8
S'xx20ff69a5c7ae517059f97e520943c78f'
p76
sg10
S'xx74afc448a18f3259942dc10e23848c7d'
p77
sg12
S'xx86a872dc9be239d58afd7602c85750a9'
p78
sg14
S'Mozilla/5.0 (Linux; Android 5.0.2; Letv X501 Build/DAXCNCU5501304131S) AppleWebKit/537.36 (KHTML, like Gecko) Version/4.0 Chrome/37.0.0.0 Mobile MQQBrowser/6.8 TBS/036824 Safari/537.36 MicroMessenger/6.3.25.861 NetType/WIFI Language/zh_CN'
p79
sg16
S'5a3815be15475577e3ebf4f28379329b'
p80
sa(dp81
g2
S'7399'
p82
sg4
S'4103'
p83
sg6
S'03058ff25b1b7f26625c3e6dad07f9c3'
p84
sg8
S'xx20ff69a5c7ae517059f97e520943c78f'
p85
sg10
S'xx74afc448a18f3259942dc10e23848c7d'
p86
sg12
S'xx86a872dc9be239d58afd7602c85750a9'
p87
sg14
S'Mozilla/5.0 (Linux; Android 5.0.2; Letv X501 Build/DAXCNCU5501304131S) AppleWebKit/537.36 (KHTML, like Gecko) Version/4.0 Chrome/37.0.0.0 Mobile MQQBrowser/6.8 TBS/036824 Safari/537.36 MicroMessenger/6.3.25.861 NetType/WIFI Language/zh_CN'
p88
sg16
S'5a3815be15475577e3ebf4f28379329b'
p89
sa(dp90
g2
S'7399'
p91
sg4
S'4134'
p92
sg6
S'03058ff25b1b7f26625c3e6dad07f9c3'
p93
sg8
S'xx20ff69a5c7ae517059f97e520943c78f'
p94
sg10
S'xx74afc448a18f3259942dc10e23848c7d'
p95
sg12
S'xx86a872dc9be239d58afd7602c85750a9'
p96
sg14
S'Mozilla/5.0 (Linux; Android 5.0.2; Letv X501 Build/DAXCNCU5501304131S) AppleWebKit/537.36 (KHTML, like Gecko) Version/4.0 Chrome/37.0.0.0 Mobile MQQBrowser/6.8 TBS/036824 Safari/537.36 MicroMessenger/6.3.25.861 NetType/WIFI Language/zh_CN'
p97
sg16
S'5a3815be15475577e3ebf4f28379329b'
p98
sa(dp99
g2
S'7399'
p100
sg4
S'4159'
p101
sg6
S'03058ff25b1b7f26625c3e6dad07f9c3'
p102
sg8
S'xx20ff69a5c7ae517059f97e520943c78f'
p103
sg10
S'xx74afc448a18f3259942dc10e23848c7d'
p104
sg12
S'xx86a872dc9be239d58afd7602c85750a9'
p105
sg14
S'Mozilla/5.0 (Linux; Android 5.0.2; Letv X501 Build/DAXCNCU5501304131S) AppleWebKit/537.36 (KHTML, like Gecko) Version/4.0 Chrome/37.0.0.0 Mobile MQQBrowser/6.8 TBS/036824 Safari/537.36 MicroMessenger/6.3.25.861 NetType/WIFI Language/zh_CN'
p106
sg16
S'5a3815be15475577e3ebf4f28379329b'
p107
sa(dp108
g2
S'7399'
p109
sg4
S'4176'
p110
sg6
S'03058ff25b1b7f26625c3e6dad07f9c3'
p111
sg8
S'xx20ff69a5c7ae517059f97e520943c78f'
p112
sg10
S'xx74afc448a18f3259942dc10e23848c7d'
p113
sg12
S'xx86a872dc9be239d58afd7602c85750a9'
p114
sg14
S'Mozilla/5.0 (Linux; Android 5.0.2; Letv X501 Build/DAXCNCU5501304131S) AppleWebKit/537.36 (KHTML, like Gecko) Version/4.0 Chrome/37.0.0.0 Mobile MQQBrowser/6.8 TBS/036824 Safari/537.36 MicroMessenger/6.3.25.861 NetType/WIFI Language/zh_CN'
p115
sg16
S'5a3815be15475577e3ebf4f28379329b'
p116
sa(dp117
g2
S'7399'
p118
sg4
S'4191'
p119
sg6
S'03058ff25b1b7f26625c3e6dad07f9c3'
p120
sg8
S'xx20ff69a5c7ae517059f97e520943c78f'
p121
sg10
S'xx74afc448a18f3259942dc10e23848c7d'
p122
sg12
S'xx86a872dc9be239d58afd7602c85750a9'
p123
sg14
S'Mozilla/5.0 (Linux; Android 5.0.2; Letv X501 Build/DAXCNCU5501304131S) AppleWebKit/537.36 (KHTML, like Gecko) Version/4.0 Chrome/37.0.0.0 Mobile MQQBrowser/6.8 TBS/036824 Safari/537.36 MicroMessenger/6.3.25.861 NetType/WIFI Language/zh_CN'
p124
sg16
S'5a3815be15475577e3ebf4f28379329b'
p125
sa(dp126
g2
S'7399'
p127
sg4
S'4203'
p128
sg6
S'03058ff25b1b7f26625c3e6dad07f9c3'
p129
sg8
S'xx20ff69a5c7ae517059f97e520943c78f'
p130
sg10
S'xx74afc448a18f3259942dc10e23848c7d'
p131
sg12
S'xx86a872dc9be239d58afd7602c85750a9'
p132
sg14
S'Mozilla/5.0 (Linux; Android 5.0.2; Letv X501 Build/DAXCNCU5501304131S) AppleWebKit/537.36 (KHTML, like Gecko) Version/4.0 Chrome/37.0.0.0 Mobile MQQBrowser/6.8 TBS/036824 Safari/537.36 MicroMessenger/6.3.25.861 NetType/WIFI Language/zh_CN'
p133
sg16
S'5a3815be15475577e3ebf4f28379329b'
p134
sa(dp135
g2
S'7399'
p136
sg4
S'4222'
p137
sg6
S'03058ff25b1b7f26625c3e6dad07f9c3'
p138
sg8
S'xx20ff69a5c7ae517059f97e520943c78f'
p139
sg10
S'xx74afc448a18f3259942dc10e23848c7d'
p140
sg12
S'xx86a872dc9be239d58afd7602c85750a9'
p141
sg14
S'Mozilla/5.0 (Linux; Android 5.0.2; Letv X501 Build/DAXCNCU5501304131S) AppleWebKit/537.36 (KHTML, like Gecko) Version/4.0 Chrome/37.0.0.0 Mobile MQQBrowser/6.8 TBS/036824 Safari/537.36 MicroMessenger/6.3.25.861 NetType/WIFI Language/zh_CN'
p142
sg16
S'5a3815be15475577e3ebf4f28379329b'
p143
sa(dp144
g2
S'7399'
p145
sg4
S'4242'
p146
sg6
S'03058ff25b1b7f26625c3e6dad07f9c3'
p147
sg8
S'xx20ff69a5c7ae517059f97e520943c78f'
p148
sg10
S'xx74afc448a18f3259942dc10e23848c7d'
p149
sg12
S'xx86a872dc9be239d58afd7602c85750a9'
p150
sg14
S'Mozilla/5.0 (Linux; Android 5.0.2; Letv X501 Build/DAXCNCU5501304131S) AppleWebKit/537.36 (KHTML, like Gecko) Version/4.0 Chrome/37.0.0.0 Mobile MQQBrowser/6.8 TBS/036824 Safari/537.36 MicroMessenger/6.3.25.861 NetType/WIFI Language/zh_CN'
p151
sg16
S'5a3815be15475577e3ebf4f28379329b'
p152
sa(dp153
g2
S'7399'
p154
sg4
S'4274'
p155
sg6
S'03058ff25b1b7f26625c3e6dad07f9c3'
p156
sg8
S'xx20ff69a5c7ae517059f97e520943c78f'
p157
sg10
S'xx74afc448a18f3259942dc10e23848c7d'
p158
sg12
S'xx86a872dc9be239d58afd7602c85750a9'
p159
sg14
S'Mozilla/5.0 (Linux; Android 5.0.2; Letv X501 Build/DAXCNCU5501304131S) AppleWebKit/537.36 (KHTML, like Gecko) Version/4.0 Chrome/37.0.0.0 Mobile MQQBrowser/6.8 TBS/036824 Safari/537.36 MicroMessenger/6.3.25.861 NetType/WIFI Language/zh_CN'
p160
sg16
S'5a3815be15475577e3ebf4f28379329b'
p161
sa(dp162
g2
S'7399'
p163
sg4
S'4302'
p164
sg6
S'03058ff25b1b7f26625c3e6dad07f9c3'
p165
sg8
S'xx20ff69a5c7ae517059f97e520943c78f'
p166
sg10
S'xx74afc448a18f3259942dc10e23848c7d'
p167
sg12
S'xx86a872dc9be239d58afd7602c85750a9'
p168
sg14
S'Mozilla/5.0 (Linux; Android 5.0.2; Letv X501 Build/DAXCNCU5501304131S) AppleWebKit/537.36 (KHTML, like Gecko) Version/4.0 Chrome/37.0.0.0 Mobile MQQBrowser/6.8 TBS/036824 Safari/537.36 MicroMessenger/6.3.25.861 NetType/WIFI Language/zh_CN'
p169
sg16
S'5a3815be15475577e3ebf4f28379329b'
p170
sa(dp171
g2
S'7399'
p172
sg4
S'4320'
p173
sg6
S'03058ff25b1b7f26625c3e6dad07f9c3'
p174
sg8
S'xx20ff69a5c7ae517059f97e520943c78f'
p175
sg10
S'xx74afc448a18f3259942dc10e23848c7d'
p176
sg12
S'xx86a872dc9be239d58afd7602c85750a9'
p177
sg14
S'Mozilla/5.0 (Linux; Android 5.0.2; Letv X501 Build/DAXCNCU5501304131S) AppleWebKit/537.36 (KHTML, like Gecko) Version/4.0 Chrome/37.0.0.0 Mobile MQQBrowser/6.8 TBS/036824 Safari/537.36 MicroMessenger/6.3.25.861 NetType/WIFI Language/zh_CN'
p178
sg16
S'5a3815be15475577e3ebf4f28379329b'
p179
sa(dp180
g2
S'7399'
p181
sg4
S'4415'
p182
sg6
S'03058ff25b1b7f26625c3e6dad07f9c3'
p183
sg8
S'xx20ff69a5c7ae517059f97e520943c78f'
p184
sg10
S'xx74afc448a18f3259942dc10e23848c7d'
p185
sg12
S'xx86a872dc9be239d58afd7602c85750a9'
p186
sg14
S'Mozilla/5.0 (Linux; Android 5.0.2; Letv X501 Build/DAXCNCU5501304131S) AppleWebKit/537.36 (KHTML, like Gecko) Version/4.0 Chrome/37.0.0.0 Mobile MQQBrowser/6.8 TBS/036824 Safari/537.36 MicroMessenger/6.3.25.861 NetType/WIFI Language/zh_CN'
p187
sg16
S'5a3815be15475577e3ebf4f28379329b'
p188
sa(dp189
g2
S'7399'
p190
sg4
S'4561'
p191
sg6
S'03058ff25b1b7f26625c3e6dad07f9c3'
p192
sg8
S'xx20ff69a5c7ae517059f97e520943c78f'
p193
sg10
S'xx74afc448a18f3259942dc10e23848c7d'
p194
sg12
S'xx86a872dc9be239d58afd7602c85750a9'
p195
sg14
S'Mozilla/5.0 (Linux; Android 5.0.2; Letv X501 Build/DAXCNCU5501304131S) AppleWebKit/537.36 (KHTML, like Gecko) Version/4.0 Chrome/37.0.0.0 Mobile MQQBrowser/6.8 TBS/036824 Safari/537.36 MicroMessenger/6.3.25.861 NetType/WIFI Language/zh_CN'
p196
sg16
S'5a3815be15475577e3ebf4f28379329b'
p197
sa(dp198
g2
S'7399'
p199
sg4
S'4585'
p200
sg6
S'03058ff25b1b7f26625c3e6dad07f9c3'
p201
sg8
S'xx20ff69a5c7ae517059f97e520943c78f'
p202
sg10
S'xx74afc448a18f3259942dc10e23848c7d'
p203
sg12
S'xx86a872dc9be239d58afd7602c85750a9'
p204
sg14
S'Mozilla/5.0 (Linux; Android 5.0.2; Letv X501 Build/DAXCNCU5501304131S) AppleWebKit/537.36 (KHTML, like Gecko) Version/4.0 Chrome/37.0.0.0 Mobile MQQBrowser/6.8 TBS/036824 Safari/537.36 MicroMessenger/6.3.25.861 NetType/WIFI Language/zh_CN'
p205
sg16
S'5a3815be15475577e3ebf4f28379329b'
p206
sa(dp207
g2
S'7399'
p208
sg4
S'4603'
p209
sg6
S'03058ff25b1b7f26625c3e6dad07f9c3'
p210
sg8
S'xx20ff69a5c7ae517059f97e520943c78f'
p211
sg10
S'xx74afc448a18f3259942dc10e23848c7d'
p212
sg12
S'xx86a872dc9be239d58afd7602c85750a9'
p213
sg14
S'Mozilla/5.0 (Linux; Android 5.0.2; Letv X501 Build/DAXCNCU5501304131S) AppleWebKit/537.36 (KHTML, like Gecko) Version/4.0 Chrome/37.0.0.0 Mobile MQQBrowser/6.8 TBS/036824 Safari/537.36 MicroMessenger/6.3.25.861 NetType/WIFI Language/zh_CN'
p214
sg16
S'5a3815be15475577e3ebf4f28379329b'
p215
sa(dp216
g2
S'43541'
p217
sg4
S'7203'
p218
sg6
S'6857f71e4441648634da0f203af8440b'
p219
sg8
S'xx55b4d33e426b882930f68e5744c169bc'
p220
sg10
S'xx5fd3585ef8c913354fa75cd550f7132e'
p221
sg12
S'xx86a872dc9be239d58afd7602c85750a9'
p222
sg14
S'Mozilla/5.0 (Linux; Android 5.0.2; Letv X501 Build/DAXCNCU5501304131S) AppleWebKit/537.36 (KHTML, like Gecko) Version/4.0 Chrome/37.0.0.0 Mobile MQQBrowser/6.8 TBS/036849 Safari/537.36 MicroMessenger/6.3.27.880 NetType/WIFI Language/zh_CN'
p223
sg16
S'382d81ac50aaa13240a0f6034b1fda24'
p224
sa(dp225
g2
S'43541'
p226
sg4
S'7215'
p227
sg6
S'6857f71e4441648634da0f203af8440b'
p228
sg8
S'xx55b4d33e426b882930f68e5744c169bc'
p229
sg10
S'xx5fd3585ef8c913354fa75cd550f7132e'
p230
sg12
S'xx86a872dc9be239d58afd7602c85750a9'
p231
sg14
S'Mozilla/5.0 (Linux; Android 5.0.2; Letv X501 Build/DAXCNCU5501304131S) AppleWebKit/537.36 (KHTML, like Gecko) Version/4.0 Chrome/37.0.0.0 Mobile MQQBrowser/6.8 TBS/036849 Safari/537.36 MicroMessenger/6.3.27.880 NetType/WIFI Language/zh_CN'
p232
sg16
S'382d81ac50aaa13240a0f6034b1fda24'
p233
sa(dp234
g2
S'49851'
p235
sg4
S'8374'
p236
sg6
S'ea4aad2a4464d8ebef097a1b699b4277'
p237
sg8
S'xx8a41f3ee2ef12e47b8c297984b1e9b9b'
p238
sg10
S'xx34977a3fe3081bdff11c942eb316a46f'
p239
sg12
S'xx86a872dc9be239d58afd7602c85750a9'
p240
sg14
S'Mozilla/5.0 (Linux; Android 5.0.2; Letv X501 Build/DAXCNCU5501304131S) AppleWebKit/537.36 (KHTML, like Gecko) Version/4.0 Chrome/37.0.0.0 Mobile MQQBrowser/6.8 TBS/036849 Safari/537.36 MicroMessenger/6.3.27.880 NetType/3gnet Language/zh_CN'
p241
sg16
S'60738c929e0bfce59f61afb6b05ff5d0'
p242
sa(dp243
g2
S'49851'
p244
sg4
S'8389'
p245
sg6
S'ea4aad2a4464d8ebef097a1b699b4277'
p246
sg8
S'xx8a41f3ee2ef12e47b8c297984b1e9b9b'
p247
sg10
S'xx34977a3fe3081bdff11c942eb316a46f'
p248
sg12
S'xx86a872dc9be239d58afd7602c85750a9'
p249
sg14
S'Mozilla/5.0 (Linux; Android 5.0.2; Letv X501 Build/DAXCNCU5501304131S) AppleWebKit/537.36 (KHTML, like Gecko) Version/4.0 Chrome/37.0.0.0 Mobile MQQBrowser/6.8 TBS/036849 Safari/537.36 MicroMessenger/6.3.27.880 NetType/3gnet Language/zh_CN'
p250
sg16
S'60738c929e0bfce59f61afb6b05ff5d0'
p251
sa(dp252
g2
S'49851'
p253
sg4
S'8489'
p254
sg6
S'ea4aad2a4464d8ebef097a1b699b4277'
p255
sg8
S'xx8a41f3ee2ef12e47b8c297984b1e9b9b'
p256
sg10
S'xx34977a3fe3081bdff11c942eb316a46f'
p257
sg12
S'xx86a872dc9be239d58afd7602c85750a9'
p258
sg14
S'Mozilla/5.0 (Linux; Android 5.0.2; Letv X501 Build/DAXCNCU5501304131S) AppleWebKit/537.36 (KHTML, like Gecko) Version/4.0 Chrome/37.0.0.0 Mobile MQQBrowser/6.8 TBS/036849 Safari/537.36 MicroMessenger/6.3.27.880 NetType/3gnet Language/zh_CN'
p259
sg16
S'60738c929e0bfce59f61afb6b05ff5d0'
p260
sa(dp261
g2
S'49851'
p262
sg4
S'8525'
p263
sg6
S'ea4aad2a4464d8ebef097a1b699b4277'
p264
sg8
S'xx8a41f3ee2ef12e47b8c297984b1e9b9b'
p265
sg10
S'xx34977a3fe3081bdff11c942eb316a46f'
p266
sg12
S'xx86a872dc9be239d58afd7602c85750a9'
p267
sg14
S'Mozilla/5.0 (Linux; Android 5.0.2; Letv X501 Build/DAXCNCU5501304131S) AppleWebKit/537.36 (KHTML, like Gecko) Version/4.0 Chrome/37.0.0.0 Mobile MQQBrowser/6.8 TBS/036849 Safari/537.36 MicroMessenger/6.3.27.880 NetType/3gnet Language/zh_CN'
p268
sg16
S'60738c929e0bfce59f61afb6b05ff5d0'
p269
sa.