(lp0
(dp1
S'user_id'
p2
S'19939'
p3
sS'data_id'
p4
S'347'
p5
sS'ip'
p6
S'd66c95a4c1c7aa3ad1fe1162a8491ff3'
p7
sS'phone_B'
p8
S'xxbb369c4ddd8719fb9ac0abc0f256f0b2'
p9
sS'phone_C'
p10
S'xx03be2750ef1431c9ff6bd97440bdc3f9'
p11
sS'phone_A'
p12
S'xx89cbc501879bb45be58d481207e8119d'
p13
sS'user_agent'
p14
S'Mozilla/5.0 (Linux; Android 4.4.4; vivo Y13iL Build/KTU84P) AppleWebKit/537.36 (KHTML, like Gecko) Version/4.0 Chrome/37.0.0.0 Mobile MQQBrowser/6.8 TBS/036849 Safari/537.36 MicroMessenger/6.3.27.880 NetType/WIFI Language/zh_CN'
p15
sS'ua'
p16
S'ab134044f2629c8286207d30d0c70ade'
p17
sa(dp18
g2
S'19939'
p19
sg4
S'363'
p20
sg6
S'd66c95a4c1c7aa3ad1fe1162a8491ff3'
p21
sg8
S'xxbb369c4ddd8719fb9ac0abc0f256f0b2'
p22
sg10
S'xx03be2750ef1431c9ff6bd97440bdc3f9'
p23
sg12
S'xx89cbc501879bb45be58d481207e8119d'
p24
sg14
S'Mozilla/5.0 (Linux; Android 4.4.4; vivo Y13iL Build/KTU84P) AppleWebKit/537.36 (KHTML, like Gecko) Version/4.0 Chrome/37.0.0.0 Mobile MQQBrowser/6.8 TBS/036849 Safari/537.36 MicroMessenger/6.3.27.880 NetType/WIFI Language/zh_CN'
p25
sg16
S'ab134044f2629c8286207d30d0c70ade'
p26
sa(dp27
g2
S'19939'
p28
sg4
S'449'
p29
sg6
S'd66c95a4c1c7aa3ad1fe1162a8491ff3'
p30
sg8
S'xxbb369c4ddd8719fb9ac0abc0f256f0b2'
p31
sg10
S'xx03be2750ef1431c9ff6bd97440bdc3f9'
p32
sg12
S'xx89cbc501879bb45be58d481207e8119d'
p33
sg14
S'Mozilla/5.0 (Linux; Android 4.4.4; vivo Y13iL Build/KTU84P) AppleWebKit/537.36 (KHTML, like Gecko) Version/4.0 Chrome/37.0.0.0 Mobile MQQBrowser/6.8 TBS/036849 Safari/537.36 MicroMessenger/6.3.27.880 NetType/WIFI Language/zh_CN'
p34
sg16
S'ab134044f2629c8286207d30d0c70ade'
p35
sa(dp36
g2
S'19939'
p37
sg4
S'594'
p38
sg6
S'd66c95a4c1c7aa3ad1fe1162a8491ff3'
p39
sg8
S'xxbb369c4ddd8719fb9ac0abc0f256f0b2'
p40
sg10
S'xx03be2750ef1431c9ff6bd97440bdc3f9'
p41
sg12
S'xx89cbc501879bb45be58d481207e8119d'
p42
sg14
S'Mozilla/5.0 (Linux; Android 4.4.4; vivo Y13iL Build/KTU84P) AppleWebKit/537.36 (KHTML, like Gecko) Version/4.0 Chrome/37.0.0.0 Mobile MQQBrowser/6.8 TBS/036849 Safari/537.36 MicroMessenger/6.3.27.880 NetType/WIFI Language/zh_CN'
p43
sg16
S'ab134044f2629c8286207d30d0c70ade'
p44
sa(dp45
g2
S'19939'
p46
sg4
S'609'
p47
sg6
S'd66c95a4c1c7aa3ad1fe1162a8491ff3'
p48
sg8
S'xxbb369c4ddd8719fb9ac0abc0f256f0b2'
p49
sg10
S'xx03be2750ef1431c9ff6bd97440bdc3f9'
p50
sg12
S'xx89cbc501879bb45be58d481207e8119d'
p51
sg14
S'Mozilla/5.0 (Linux; Android 4.4.4; vivo Y13iL Build/KTU84P) AppleWebKit/537.36 (KHTML, like Gecko) Version/4.0 Chrome/37.0.0.0 Mobile MQQBrowser/6.8 TBS/036849 Safari/537.36 MicroMessenger/6.3.27.880 NetType/WIFI Language/zh_CN'
p52
sg16
S'ab134044f2629c8286207d30d0c70ade'
p53
sa(dp54
g2
S'19939'
p55
sg4
S'629'
p56
sg6
S'd66c95a4c1c7aa3ad1fe1162a8491ff3'
p57
sg8
S'xxbb369c4ddd8719fb9ac0abc0f256f0b2'
p58
sg10
S'xx03be2750ef1431c9ff6bd97440bdc3f9'
p59
sg12
S'xx89cbc501879bb45be58d481207e8119d'
p60
sg14
S'Mozilla/5.0 (Linux; Android 4.4.4; vivo Y13iL Build/KTU84P) AppleWebKit/537.36 (KHTML, like Gecko) Version/4.0 Chrome/37.0.0.0 Mobile MQQBrowser/6.8 TBS/036849 Safari/537.36 MicroMessenger/6.3.27.880 NetType/WIFI Language/zh_CN'
p61
sg16
S'ab134044f2629c8286207d30d0c70ade'
p62
sa(dp63
g2
S'19939'
p64
sg4
S'656'
p65
sg6
S'd66c95a4c1c7aa3ad1fe1162a8491ff3'
p66
sg8
S'xxbb369c4ddd8719fb9ac0abc0f256f0b2'
p67
sg10
S'xx03be2750ef1431c9ff6bd97440bdc3f9'
p68
sg12
S'xx89cbc501879bb45be58d481207e8119d'
p69
sg14
S'Mozilla/5.0 (Linux; Android 4.4.4; vivo Y13iL Build/KTU84P) AppleWebKit/537.36 (KHTML, like Gecko) Version/4.0 Chrome/37.0.0.0 Mobile MQQBrowser/6.8 TBS/036849 Safari/537.36 MicroMessenger/6.3.27.880 NetType/WIFI Language/zh_CN'
p70
sg16
S'ab134044f2629c8286207d30d0c70ade'
p71
sa(dp72
g2
S'19939'
p73
sg4
S'684'
p74
sg6
S'd66c95a4c1c7aa3ad1fe1162a8491ff3'
p75
sg8
S'xxbb369c4ddd8719fb9ac0abc0f256f0b2'
p76
sg10
S'xx03be2750ef1431c9ff6bd97440bdc3f9'
p77
sg12
S'xx89cbc501879bb45be58d481207e8119d'
p78
sg14
S'Mozilla/5.0 (Linux; Android 4.4.4; vivo Y13iL Build/KTU84P) AppleWebKit/537.36 (KHTML, like Gecko) Version/4.0 Chrome/37.0.0.0 Mobile MQQBrowser/6.8 TBS/036849 Safari/537.36 MicroMessenger/6.3.27.880 NetType/WIFI Language/zh_CN'
p79
sg16
S'ab134044f2629c8286207d30d0c70ade'
p80
sa(dp81
g2
S'19939'
p82
sg4
S'695'
p83
sg6
S'd66c95a4c1c7aa3ad1fe1162a8491ff3'
p84
sg8
S'xxbb369c4ddd8719fb9ac0abc0f256f0b2'
p85
sg10
S'xx03be2750ef1431c9ff6bd97440bdc3f9'
p86
sg12
S'xx89cbc501879bb45be58d481207e8119d'
p87
sg14
S'Mozilla/5.0 (Linux; Android 4.4.4; vivo Y13iL Build/KTU84P) AppleWebKit/537.36 (KHTML, like Gecko) Version/4.0 Chrome/37.0.0.0 Mobile MQQBrowser/6.8 TBS/036849 Safari/537.36 MicroMessenger/6.3.27.880 NetType/WIFI Language/zh_CN'
p88
sg16
S'ab134044f2629c8286207d30d0c70ade'
p89
sa(dp90
g2
S'19939'
p91
sg4
S'719'
p92
sg6
S'd66c95a4c1c7aa3ad1fe1162a8491ff3'
p93
sg8
S'xxbb369c4ddd8719fb9ac0abc0f256f0b2'
p94
sg10
S'xx03be2750ef1431c9ff6bd97440bdc3f9'
p95
sg12
S'xx89cbc501879bb45be58d481207e8119d'
p96
sg14
S'Mozilla/5.0 (Linux; Android 4.4.4; vivo Y13iL Build/KTU84P) AppleWebKit/537.36 (KHTML, like Gecko) Version/4.0 Chrome/37.0.0.0 Mobile MQQBrowser/6.8 TBS/036849 Safari/537.36 MicroMessenger/6.3.27.880 NetType/WIFI Language/zh_CN'
p97
sg16
S'ab134044f2629c8286207d30d0c70ade'
p98
sa(dp99
g2
S'19939'
p100
sg4
S'732'
p101
sg6
S'd66c95a4c1c7aa3ad1fe1162a8491ff3'
p102
sg8
S'xxbb369c4ddd8719fb9ac0abc0f256f0b2'
p103
sg10
S'xx03be2750ef1431c9ff6bd97440bdc3f9'
p104
sg12
S'xx89cbc501879bb45be58d481207e8119d'
p105
sg14
S'Mozilla/5.0 (Linux; Android 4.4.4; vivo Y13iL Build/KTU84P) AppleWebKit/537.36 (KHTML, like Gecko) Version/4.0 Chrome/37.0.0.0 Mobile MQQBrowser/6.8 TBS/036849 Safari/537.36 MicroMessenger/6.3.27.880 NetType/WIFI Language/zh_CN'
p106
sg16
S'ab134044f2629c8286207d30d0c70ade'
p107
sa(dp108
g2
S'19939'
p109
sg4
S'749'
p110
sg6
S'd66c95a4c1c7aa3ad1fe1162a8491ff3'
p111
sg8
S'xxbb369c4ddd8719fb9ac0abc0f256f0b2'
p112
sg10
S'xx03be2750ef1431c9ff6bd97440bdc3f9'
p113
sg12
S'xx89cbc501879bb45be58d481207e8119d'
p114
sg14
S'Mozilla/5.0 (Linux; Android 4.4.4; vivo Y13iL Build/KTU84P) AppleWebKit/537.36 (KHTML, like Gecko) Version/4.0 Chrome/37.0.0.0 Mobile MQQBrowser/6.8 TBS/036849 Safari/537.36 MicroMessenger/6.3.27.880 NetType/WIFI Language/zh_CN'
p115
sg16
S'ab134044f2629c8286207d30d0c70ade'
p116
sa(dp117
g2
S'19939'
p118
sg4
S'772'
p119
sg6
S'd66c95a4c1c7aa3ad1fe1162a8491ff3'
p120
sg8
S'xxbb369c4ddd8719fb9ac0abc0f256f0b2'
p121
sg10
S'xx03be2750ef1431c9ff6bd97440bdc3f9'
p122
sg12
S'xx89cbc501879bb45be58d481207e8119d'
p123
sg14
S'Mozilla/5.0 (Linux; Android 4.4.4; vivo Y13iL Build/KTU84P) AppleWebKit/537.36 (KHTML, like Gecko) Version/4.0 Chrome/37.0.0.0 Mobile MQQBrowser/6.8 TBS/036849 Safari/537.36 MicroMessenger/6.3.27.880 NetType/WIFI Language/zh_CN'
p124
sg16
S'ab134044f2629c8286207d30d0c70ade'
p125
sa(dp126
g2
S'19939'
p127
sg4
S'791'
p128
sg6
S'd66c95a4c1c7aa3ad1fe1162a8491ff3'
p129
sg8
S'xxbb369c4ddd8719fb9ac0abc0f256f0b2'
p130
sg10
S'xx03be2750ef1431c9ff6bd97440bdc3f9'
p131
sg12
S'xx89cbc501879bb45be58d481207e8119d'
p132
sg14
S'Mozilla/5.0 (Linux; Android 4.4.4; vivo Y13iL Build/KTU84P) AppleWebKit/537.36 (KHTML, like Gecko) Version/4.0 Chrome/37.0.0.0 Mobile MQQBrowser/6.8 TBS/036849 Safari/537.36 MicroMessenger/6.3.27.880 NetType/WIFI Language/zh_CN'
p133
sg16
S'ab134044f2629c8286207d30d0c70ade'
p134
sa(dp135
g2
S'19939'
p136
sg4
S'810'
p137
sg6
S'd66c95a4c1c7aa3ad1fe1162a8491ff3'
p138
sg8
S'xxbb369c4ddd8719fb9ac0abc0f256f0b2'
p139
sg10
S'xx03be2750ef1431c9ff6bd97440bdc3f9'
p140
sg12
S'xx89cbc501879bb45be58d481207e8119d'
p141
sg14
S'Mozilla/5.0 (Linux; Android 4.4.4; vivo Y13iL Build/KTU84P) AppleWebKit/537.36 (KHTML, like Gecko) Version/4.0 Chrome/37.0.0.0 Mobile MQQBrowser/6.8 TBS/036849 Safari/537.36 MicroMessenger/6.3.27.880 NetType/WIFI Language/zh_CN'
p142
sg16
S'ab134044f2629c8286207d30d0c70ade'
p143
sa(dp144
g2
S'19939'
p145
sg4
S'828'
p146
sg6
S'd66c95a4c1c7aa3ad1fe1162a8491ff3'
p147
sg8
S'xxbb369c4ddd8719fb9ac0abc0f256f0b2'
p148
sg10
S'xx03be2750ef1431c9ff6bd97440bdc3f9'
p149
sg12
S'xx89cbc501879bb45be58d481207e8119d'
p150
sg14
S'Mozilla/5.0 (Linux; Android 4.4.4; vivo Y13iL Build/KTU84P) AppleWebKit/537.36 (KHTML, like Gecko) Version/4.0 Chrome/37.0.0.0 Mobile MQQBrowser/6.8 TBS/036849 Safari/537.36 MicroMessenger/6.3.27.880 NetType/WIFI Language/zh_CN'
p151
sg16
S'ab134044f2629c8286207d30d0c70ade'
p152
sa(dp153
g2
S'19939'
p154
sg4
S'857'
p155
sg6
S'd66c95a4c1c7aa3ad1fe1162a8491ff3'
p156
sg8
S'xxbb369c4ddd8719fb9ac0abc0f256f0b2'
p157
sg10
S'xx03be2750ef1431c9ff6bd97440bdc3f9'
p158
sg12
S'xx89cbc501879bb45be58d481207e8119d'
p159
sg14
S'Mozilla/5.0 (Linux; Android 4.4.4; vivo Y13iL Build/KTU84P) AppleWebKit/537.36 (KHTML, like Gecko) Version/4.0 Chrome/37.0.0.0 Mobile MQQBrowser/6.8 TBS/036849 Safari/537.36 MicroMessenger/6.3.27.880 NetType/WIFI Language/zh_CN'
p160
sg16
S'ab134044f2629c8286207d30d0c70ade'
p161
sa(dp162
g2
S'19939'
p163
sg4
S'966'
p164
sg6
S'd66c95a4c1c7aa3ad1fe1162a8491ff3'
p165
sg8
S'xxbb369c4ddd8719fb9ac0abc0f256f0b2'
p166
sg10
S'xx03be2750ef1431c9ff6bd97440bdc3f9'
p167
sg12
S'xx89cbc501879bb45be58d481207e8119d'
p168
sg14
S'Mozilla/5.0 (Linux; Android 4.4.4; vivo Y13iL Build/KTU84P) AppleWebKit/537.36 (KHTML, like Gecko) Version/4.0 Chrome/37.0.0.0 Mobile MQQBrowser/6.8 TBS/036849 Safari/537.36 MicroMessenger/6.3.27.880 NetType/WIFI Language/zh_CN'
p169
sg16
S'ab134044f2629c8286207d30d0c70ade'
p170
sa(dp171
g2
S'19939'
p172
sg4
S'984'
p173
sg6
S'd66c95a4c1c7aa3ad1fe1162a8491ff3'
p174
sg8
S'xxbb369c4ddd8719fb9ac0abc0f256f0b2'
p175
sg10
S'xx03be2750ef1431c9ff6bd97440bdc3f9'
p176
sg12
S'xx89cbc501879bb45be58d481207e8119d'
p177
sg14
S'Mozilla/5.0 (Linux; Android 4.4.4; vivo Y13iL Build/KTU84P) AppleWebKit/537.36 (KHTML, like Gecko) Version/4.0 Chrome/37.0.0.0 Mobile MQQBrowser/6.8 TBS/036849 Safari/537.36 MicroMessenger/6.3.27.880 NetType/WIFI Language/zh_CN'
p178
sg16
S'ab134044f2629c8286207d30d0c70ade'
p179
sa(dp180
g2
S'19939'
p181
sg4
S'1005'
p182
sg6
S'd66c95a4c1c7aa3ad1fe1162a8491ff3'
p183
sg8
S'xxbb369c4ddd8719fb9ac0abc0f256f0b2'
p184
sg10
S'xx03be2750ef1431c9ff6bd97440bdc3f9'
p185
sg12
S'xx89cbc501879bb45be58d481207e8119d'
p186
sg14
S'Mozilla/5.0 (Linux; Android 4.4.4; vivo Y13iL Build/KTU84P) AppleWebKit/537.36 (KHTML, like Gecko) Version/4.0 Chrome/37.0.0.0 Mobile MQQBrowser/6.8 TBS/036849 Safari/537.36 MicroMessenger/6.3.27.880 NetType/WIFI Language/zh_CN'
p187
sg16
S'ab134044f2629c8286207d30d0c70ade'
p188
sa(dp189
g2
S'19939'
p190
sg4
S'1019'
p191
sg6
S'd66c95a4c1c7aa3ad1fe1162a8491ff3'
p192
sg8
S'xxbb369c4ddd8719fb9ac0abc0f256f0b2'
p193
sg10
S'xx03be2750ef1431c9ff6bd97440bdc3f9'
p194
sg12
S'xx89cbc501879bb45be58d481207e8119d'
p195
sg14
S'Mozilla/5.0 (Linux; Android 4.4.4; vivo Y13iL Build/KTU84P) AppleWebKit/537.36 (KHTML, like Gecko) Version/4.0 Chrome/37.0.0.0 Mobile MQQBrowser/6.8 TBS/036849 Safari/537.36 MicroMessenger/6.3.27.880 NetType/WIFI Language/zh_CN'
p196
sg16
S'ab134044f2629c8286207d30d0c70ade'
p197
sa(dp198
g2
S'19939'
p199
sg4
S'1035'
p200
sg6
S'd66c95a4c1c7aa3ad1fe1162a8491ff3'
p201
sg8
S'xxbb369c4ddd8719fb9ac0abc0f256f0b2'
p202
sg10
S'xx03be2750ef1431c9ff6bd97440bdc3f9'
p203
sg12
S'xx89cbc501879bb45be58d481207e8119d'
p204
sg14
S'Mozilla/5.0 (Linux; Android 4.4.4; vivo Y13iL Build/KTU84P) AppleWebKit/537.36 (KHTML, like Gecko) Version/4.0 Chrome/37.0.0.0 Mobile MQQBrowser/6.8 TBS/036849 Safari/537.36 MicroMessenger/6.3.27.880 NetType/WIFI Language/zh_CN'
p205
sg16
S'ab134044f2629c8286207d30d0c70ade'
p206
sa(dp207
g2
S'19939'
p208
sg4
S'1053'
p209
sg6
S'd66c95a4c1c7aa3ad1fe1162a8491ff3'
p210
sg8
S'xxbb369c4ddd8719fb9ac0abc0f256f0b2'
p211
sg10
S'xx03be2750ef1431c9ff6bd97440bdc3f9'
p212
sg12
S'xx89cbc501879bb45be58d481207e8119d'
p213
sg14
S'Mozilla/5.0 (Linux; Android 4.4.4; vivo Y13iL Build/KTU84P) AppleWebKit/537.36 (KHTML, like Gecko) Version/4.0 Chrome/37.0.0.0 Mobile MQQBrowser/6.8 TBS/036849 Safari/537.36 MicroMessenger/6.3.27.880 NetType/WIFI Language/zh_CN'
p214
sg16
S'ab134044f2629c8286207d30d0c70ade'
p215
sa(dp216
g2
S'19939'
p217
sg4
S'1065'
p218
sg6
S'd66c95a4c1c7aa3ad1fe1162a8491ff3'
p219
sg8
S'xxbb369c4ddd8719fb9ac0abc0f256f0b2'
p220
sg10
S'xx03be2750ef1431c9ff6bd97440bdc3f9'
p221
sg12
S'xx89cbc501879bb45be58d481207e8119d'
p222
sg14
S'Mozilla/5.0 (Linux; Android 4.4.4; vivo Y13iL Build/KTU84P) AppleWebKit/537.36 (KHTML, like Gecko) Version/4.0 Chrome/37.0.0.0 Mobile MQQBrowser/6.8 TBS/036849 Safari/537.36 MicroMessenger/6.3.27.880 NetType/WIFI Language/zh_CN'
p223
sg16
S'ab134044f2629c8286207d30d0c70ade'
p224
sa(dp225
g2
S'19939'
p226
sg4
S'1099'
p227
sg6
S'd66c95a4c1c7aa3ad1fe1162a8491ff3'
p228
sg8
S'xxbb369c4ddd8719fb9ac0abc0f256f0b2'
p229
sg10
S'xx03be2750ef1431c9ff6bd97440bdc3f9'
p230
sg12
S'xx89cbc501879bb45be58d481207e8119d'
p231
sg14
S'Mozilla/5.0 (Linux; Android 4.4.4; vivo Y13iL Build/KTU84P) AppleWebKit/537.36 (KHTML, like Gecko) Version/4.0 Chrome/37.0.0.0 Mobile MQQBrowser/6.8 TBS/036849 Safari/537.36 MicroMessenger/6.3.27.880 NetType/WIFI Language/zh_CN'
p232
sg16
S'ab134044f2629c8286207d30d0c70ade'
p233
sa(dp234
g2
S'19939'
p235
sg4
S'1145'
p236
sg6
S'd66c95a4c1c7aa3ad1fe1162a8491ff3'
p237
sg8
S'xxbb369c4ddd8719fb9ac0abc0f256f0b2'
p238
sg10
S'xx03be2750ef1431c9ff6bd97440bdc3f9'
p239
sg12
S'xx89cbc501879bb45be58d481207e8119d'
p240
sg14
S'Mozilla/5.0 (Linux; Android 4.4.4; vivo Y13iL Build/KTU84P) AppleWebKit/537.36 (KHTML, like Gecko) Version/4.0 Chrome/37.0.0.0 Mobile MQQBrowser/6.8 TBS/036849 Safari/537.36 MicroMessenger/6.3.27.880 NetType/WIFI Language/zh_CN'
p241
sg16
S'ab134044f2629c8286207d30d0c70ade'
p242
sa(dp243
g2
S'19939'
p244
sg4
S'1186'
p245
sg6
S'd66c95a4c1c7aa3ad1fe1162a8491ff3'
p246
sg8
S'xxbb369c4ddd8719fb9ac0abc0f256f0b2'
p247
sg10
S'xx03be2750ef1431c9ff6bd97440bdc3f9'
p248
sg12
S'xx89cbc501879bb45be58d481207e8119d'
p249
sg14
S'Mozilla/5.0 (Linux; Android 4.4.4; vivo Y13iL Build/KTU84P) AppleWebKit/537.36 (KHTML, like Gecko) Version/4.0 Chrome/37.0.0.0 Mobile MQQBrowser/6.8 TBS/036849 Safari/537.36 MicroMessenger/6.3.27.880 NetType/WIFI Language/zh_CN'
p250
sg16
S'ab134044f2629c8286207d30d0c70ade'
p251
sa(dp252
g2
S'19939'
p253
sg4
S'1195'
p254
sg6
S'd66c95a4c1c7aa3ad1fe1162a8491ff3'
p255
sg8
S'xxbb369c4ddd8719fb9ac0abc0f256f0b2'
p256
sg10
S'xx03be2750ef1431c9ff6bd97440bdc3f9'
p257
sg12
S'xx89cbc501879bb45be58d481207e8119d'
p258
sg14
S'Mozilla/5.0 (Linux; Android 4.4.4; vivo Y13iL Build/KTU84P) AppleWebKit/537.36 (KHTML, like Gecko) Version/4.0 Chrome/37.0.0.0 Mobile MQQBrowser/6.8 TBS/036849 Safari/537.36 MicroMessenger/6.3.27.880 NetType/WIFI Language/zh_CN'
p259
sg16
S'ab134044f2629c8286207d30d0c70ade'
p260
sa(dp261
g2
S'19939'
p262
sg4
S'1207'
p263
sg6
S'd66c95a4c1c7aa3ad1fe1162a8491ff3'
p264
sg8
S'xxbb369c4ddd8719fb9ac0abc0f256f0b2'
p265
sg10
S'xx03be2750ef1431c9ff6bd97440bdc3f9'
p266
sg12
S'xx89cbc501879bb45be58d481207e8119d'
p267
sg14
S'Mozilla/5.0 (Linux; Android 4.4.4; vivo Y13iL Build/KTU84P) AppleWebKit/537.36 (KHTML, like Gecko) Version/4.0 Chrome/37.0.0.0 Mobile MQQBrowser/6.8 TBS/036849 Safari/537.36 MicroMessenger/6.3.27.880 NetType/WIFI Language/zh_CN'
p268
sg16
S'ab134044f2629c8286207d30d0c70ade'
p269
sa(dp270
g2
S'19939'
p271
sg4
S'1259'
p272
sg6
S'd66c95a4c1c7aa3ad1fe1162a8491ff3'
p273
sg8
S'xxbb369c4ddd8719fb9ac0abc0f256f0b2'
p274
sg10
S'xx03be2750ef1431c9ff6bd97440bdc3f9'
p275
sg12
S'xx89cbc501879bb45be58d481207e8119d'
p276
sg14
S'Mozilla/5.0 (Linux; Android 4.4.4; vivo Y13iL Build/KTU84P) AppleWebKit/537.36 (KHTML, like Gecko) Version/4.0 Chrome/37.0.0.0 Mobile MQQBrowser/6.8 TBS/036849 Safari/537.36 MicroMessenger/6.3.27.880 NetType/WIFI Language/zh_CN'
p277
sg16
S'ab134044f2629c8286207d30d0c70ade'
p278
sa(dp279
g2
S'19939'
p280
sg4
S'1287'
p281
sg6
S'd66c95a4c1c7aa3ad1fe1162a8491ff3'
p282
sg8
S'xxbb369c4ddd8719fb9ac0abc0f256f0b2'
p283
sg10
S'xx03be2750ef1431c9ff6bd97440bdc3f9'
p284
sg12
S'xx89cbc501879bb45be58d481207e8119d'
p285
sg14
S'Mozilla/5.0 (Linux; Android 4.4.4; vivo Y13iL Build/KTU84P) AppleWebKit/537.36 (KHTML, like Gecko) Version/4.0 Chrome/37.0.0.0 Mobile MQQBrowser/6.8 TBS/036849 Safari/537.36 MicroMessenger/6.3.27.880 NetType/WIFI Language/zh_CN'
p286
sg16
S'ab134044f2629c8286207d30d0c70ade'
p287
sa(dp288
g2
S'19939'
p289
sg4
S'1305'
p290
sg6
S'd66c95a4c1c7aa3ad1fe1162a8491ff3'
p291
sg8
S'xxbb369c4ddd8719fb9ac0abc0f256f0b2'
p292
sg10
S'xx03be2750ef1431c9ff6bd97440bdc3f9'
p293
sg12
S'xx89cbc501879bb45be58d481207e8119d'
p294
sg14
S'Mozilla/5.0 (Linux; Android 4.4.4; vivo Y13iL Build/KTU84P) AppleWebKit/537.36 (KHTML, like Gecko) Version/4.0 Chrome/37.0.0.0 Mobile MQQBrowser/6.8 TBS/036849 Safari/537.36 MicroMessenger/6.3.27.880 NetType/WIFI Language/zh_CN'
p295
sg16
S'ab134044f2629c8286207d30d0c70ade'
p296
sa(dp297
g2
S'19939'
p298
sg4
S'1318'
p299
sg6
S'd66c95a4c1c7aa3ad1fe1162a8491ff3'
p300
sg8
S'xxbb369c4ddd8719fb9ac0abc0f256f0b2'
p301
sg10
S'xx03be2750ef1431c9ff6bd97440bdc3f9'
p302
sg12
S'xx89cbc501879bb45be58d481207e8119d'
p303
sg14
S'Mozilla/5.0 (Linux; Android 4.4.4; vivo Y13iL Build/KTU84P) AppleWebKit/537.36 (KHTML, like Gecko) Version/4.0 Chrome/37.0.0.0 Mobile MQQBrowser/6.8 TBS/036849 Safari/537.36 MicroMessenger/6.3.27.880 NetType/WIFI Language/zh_CN'
p304
sg16
S'ab134044f2629c8286207d30d0c70ade'
p305
sa(dp306
g2
S'19939'
p307
sg4
S'1517'
p308
sg6
S'd66c95a4c1c7aa3ad1fe1162a8491ff3'
p309
sg8
S'xxbb369c4ddd8719fb9ac0abc0f256f0b2'
p310
sg10
S'xx03be2750ef1431c9ff6bd97440bdc3f9'
p311
sg12
S'xx89cbc501879bb45be58d481207e8119d'
p312
sg14
S'Mozilla/5.0 (Linux; Android 4.4.4; vivo Y13iL Build/KTU84P) AppleWebKit/537.36 (KHTML, like Gecko) Version/4.0 Chrome/37.0.0.0 Mobile MQQBrowser/6.8 TBS/036849 Safari/537.36 MicroMessenger/6.3.27.880 NetType/WIFI Language/zh_CN'
p313
sg16
S'ab134044f2629c8286207d30d0c70ade'
p314
sa(dp315
g2
S'19939'
p316
sg4
S'1586'
p317
sg6
S'd66c95a4c1c7aa3ad1fe1162a8491ff3'
p318
sg8
S'xxbb369c4ddd8719fb9ac0abc0f256f0b2'
p319
sg10
S'xx03be2750ef1431c9ff6bd97440bdc3f9'
p320
sg12
S'xx89cbc501879bb45be58d481207e8119d'
p321
sg14
S'Mozilla/5.0 (Linux; Android 4.4.4; vivo Y13iL Build/KTU84P) AppleWebKit/537.36 (KHTML, like Gecko) Version/4.0 Chrome/37.0.0.0 Mobile MQQBrowser/6.8 TBS/036849 Safari/537.36 MicroMessenger/6.3.27.880 NetType/WIFI Language/zh_CN'
p322
sg16
S'ab134044f2629c8286207d30d0c70ade'
p323
sa(dp324
g2
S'19939'
p325
sg4
S'1608'
p326
sg6
S'd66c95a4c1c7aa3ad1fe1162a8491ff3'
p327
sg8
S'xxbb369c4ddd8719fb9ac0abc0f256f0b2'
p328
sg10
S'xx03be2750ef1431c9ff6bd97440bdc3f9'
p329
sg12
S'xx89cbc501879bb45be58d481207e8119d'
p330
sg14
S'Mozilla/5.0 (Linux; Android 4.4.4; vivo Y13iL Build/KTU84P) AppleWebKit/537.36 (KHTML, like Gecko) Version/4.0 Chrome/37.0.0.0 Mobile MQQBrowser/6.8 TBS/036849 Safari/537.36 MicroMessenger/6.3.27.880 NetType/WIFI Language/zh_CN'
p331
sg16
S'ab134044f2629c8286207d30d0c70ade'
p332
sa(dp333
g2
S'19939'
p334
sg4
S'1619'
p335
sg6
S'd66c95a4c1c7aa3ad1fe1162a8491ff3'
p336
sg8
S'xxbb369c4ddd8719fb9ac0abc0f256f0b2'
p337
sg10
S'xx03be2750ef1431c9ff6bd97440bdc3f9'
p338
sg12
S'xx89cbc501879bb45be58d481207e8119d'
p339
sg14
S'Mozilla/5.0 (Linux; Android 4.4.4; vivo Y13iL Build/KTU84P) AppleWebKit/537.36 (KHTML, like Gecko) Version/4.0 Chrome/37.0.0.0 Mobile MQQBrowser/6.8 TBS/036849 Safari/537.36 MicroMessenger/6.3.27.880 NetType/WIFI Language/zh_CN'
p340
sg16
S'ab134044f2629c8286207d30d0c70ade'
p341
sa(dp342
g2
S'19939'
p343
sg4
S'1629'
p344
sg6
S'd66c95a4c1c7aa3ad1fe1162a8491ff3'
p345
sg8
S'xxbb369c4ddd8719fb9ac0abc0f256f0b2'
p346
sg10
S'xx03be2750ef1431c9ff6bd97440bdc3f9'
p347
sg12
S'xx89cbc501879bb45be58d481207e8119d'
p348
sg14
S'Mozilla/5.0 (Linux; Android 4.4.4; vivo Y13iL Build/KTU84P) AppleWebKit/537.36 (KHTML, like Gecko) Version/4.0 Chrome/37.0.0.0 Mobile MQQBrowser/6.8 TBS/036849 Safari/537.36 MicroMessenger/6.3.27.880 NetType/WIFI Language/zh_CN'
p349
sg16
S'ab134044f2629c8286207d30d0c70ade'
p350
sa(dp351
g2
S'19939'
p352
sg4
S'1691'
p353
sg6
S'd66c95a4c1c7aa3ad1fe1162a8491ff3'
p354
sg8
S'xxbb369c4ddd8719fb9ac0abc0f256f0b2'
p355
sg10
S'xx03be2750ef1431c9ff6bd97440bdc3f9'
p356
sg12
S'xx89cbc501879bb45be58d481207e8119d'
p357
sg14
S'Mozilla/5.0 (Linux; Android 4.4.4; vivo Y13iL Build/KTU84P) AppleWebKit/537.36 (KHTML, like Gecko) Version/4.0 Chrome/37.0.0.0 Mobile MQQBrowser/6.8 TBS/036849 Safari/537.36 MicroMessenger/6.3.27.880 NetType/WIFI Language/zh_CN'
p358
sg16
S'ab134044f2629c8286207d30d0c70ade'
p359
sa(dp360
g2
S'19939'
p361
sg4
S'1705'
p362
sg6
S'd66c95a4c1c7aa3ad1fe1162a8491ff3'
p363
sg8
S'xxbb369c4ddd8719fb9ac0abc0f256f0b2'
p364
sg10
S'xx03be2750ef1431c9ff6bd97440bdc3f9'
p365
sg12
S'xx89cbc501879bb45be58d481207e8119d'
p366
sg14
S'Mozilla/5.0 (Linux; Android 4.4.4; vivo Y13iL Build/KTU84P) AppleWebKit/537.36 (KHTML, like Gecko) Version/4.0 Chrome/37.0.0.0 Mobile MQQBrowser/6.8 TBS/036849 Safari/537.36 MicroMessenger/6.3.27.880 NetType/WIFI Language/zh_CN'
p367
sg16
S'ab134044f2629c8286207d30d0c70ade'
p368
sa(dp369
g2
S'19939'
p370
sg4
S'1716'
p371
sg6
S'd66c95a4c1c7aa3ad1fe1162a8491ff3'
p372
sg8
S'xxbb369c4ddd8719fb9ac0abc0f256f0b2'
p373
sg10
S'xx03be2750ef1431c9ff6bd97440bdc3f9'
p374
sg12
S'xx89cbc501879bb45be58d481207e8119d'
p375
sg14
S'Mozilla/5.0 (Linux; Android 4.4.4; vivo Y13iL Build/KTU84P) AppleWebKit/537.36 (KHTML, like Gecko) Version/4.0 Chrome/37.0.0.0 Mobile MQQBrowser/6.8 TBS/036849 Safari/537.36 MicroMessenger/6.3.27.880 NetType/WIFI Language/zh_CN'
p376
sg16
S'ab134044f2629c8286207d30d0c70ade'
p377
sa(dp378
g2
S'19939'
p379
sg4
S'1733'
p380
sg6
S'd66c95a4c1c7aa3ad1fe1162a8491ff3'
p381
sg8
S'xxbb369c4ddd8719fb9ac0abc0f256f0b2'
p382
sg10
S'xx03be2750ef1431c9ff6bd97440bdc3f9'
p383
sg12
S'xx89cbc501879bb45be58d481207e8119d'
p384
sg14
S'Mozilla/5.0 (Linux; Android 4.4.4; vivo Y13iL Build/KTU84P) AppleWebKit/537.36 (KHTML, like Gecko) Version/4.0 Chrome/37.0.0.0 Mobile MQQBrowser/6.8 TBS/036849 Safari/537.36 MicroMessenger/6.3.27.880 NetType/WIFI Language/zh_CN'
p385
sg16
S'ab134044f2629c8286207d30d0c70ade'
p386
sa(dp387
g2
S'19939'
p388
sg4
S'1756'
p389
sg6
S'd66c95a4c1c7aa3ad1fe1162a8491ff3'
p390
sg8
S'xxbb369c4ddd8719fb9ac0abc0f256f0b2'
p391
sg10
S'xx03be2750ef1431c9ff6bd97440bdc3f9'
p392
sg12
S'xx89cbc501879bb45be58d481207e8119d'
p393
sg14
S'Mozilla/5.0 (Linux; Android 4.4.4; vivo Y13iL Build/KTU84P) AppleWebKit/537.36 (KHTML, like Gecko) Version/4.0 Chrome/37.0.0.0 Mobile MQQBrowser/6.8 TBS/036849 Safari/537.36 MicroMessenger/6.3.27.880 NetType/WIFI Language/zh_CN'
p394
sg16
S'ab134044f2629c8286207d30d0c70ade'
p395
sa(dp396
g2
S'19939'
p397
sg4
S'1772'
p398
sg6
S'd66c95a4c1c7aa3ad1fe1162a8491ff3'
p399
sg8
S'xxbb369c4ddd8719fb9ac0abc0f256f0b2'
p400
sg10
S'xx03be2750ef1431c9ff6bd97440bdc3f9'
p401
sg12
S'xx89cbc501879bb45be58d481207e8119d'
p402
sg14
S'Mozilla/5.0 (Linux; Android 4.4.4; vivo Y13iL Build/KTU84P) AppleWebKit/537.36 (KHTML, like Gecko) Version/4.0 Chrome/37.0.0.0 Mobile MQQBrowser/6.8 TBS/036849 Safari/537.36 MicroMessenger/6.3.27.880 NetType/WIFI Language/zh_CN'
p403
sg16
S'ab134044f2629c8286207d30d0c70ade'
p404
sa(dp405
g2
S'19939'
p406
sg4
S'1793'
p407
sg6
S'd66c95a4c1c7aa3ad1fe1162a8491ff3'
p408
sg8
S'xxbb369c4ddd8719fb9ac0abc0f256f0b2'
p409
sg10
S'xx03be2750ef1431c9ff6bd97440bdc3f9'
p410
sg12
S'xx89cbc501879bb45be58d481207e8119d'
p411
sg14
S'Mozilla/5.0 (Linux; Android 4.4.4; vivo Y13iL Build/KTU84P) AppleWebKit/537.36 (KHTML, like Gecko) Version/4.0 Chrome/37.0.0.0 Mobile MQQBrowser/6.8 TBS/036849 Safari/537.36 MicroMessenger/6.3.27.880 NetType/WIFI Language/zh_CN'
p412
sg16
S'ab134044f2629c8286207d30d0c70ade'
p413
sa(dp414
g2
S'19939'
p415
sg4
S'1816'
p416
sg6
S'd66c95a4c1c7aa3ad1fe1162a8491ff3'
p417
sg8
S'xxbb369c4ddd8719fb9ac0abc0f256f0b2'
p418
sg10
S'xx03be2750ef1431c9ff6bd97440bdc3f9'
p419
sg12
S'xx89cbc501879bb45be58d481207e8119d'
p420
sg14
S'Mozilla/5.0 (Linux; Android 4.4.4; vivo Y13iL Build/KTU84P) AppleWebKit/537.36 (KHTML, like Gecko) Version/4.0 Chrome/37.0.0.0 Mobile MQQBrowser/6.8 TBS/036849 Safari/537.36 MicroMessenger/6.3.27.880 NetType/WIFI Language/zh_CN'
p421
sg16
S'ab134044f2629c8286207d30d0c70ade'
p422
sa(dp423
g2
S'19939'
p424
sg4
S'1824'
p425
sg6
S'd66c95a4c1c7aa3ad1fe1162a8491ff3'
p426
sg8
S'xxbb369c4ddd8719fb9ac0abc0f256f0b2'
p427
sg10
S'xx03be2750ef1431c9ff6bd97440bdc3f9'
p428
sg12
S'xx89cbc501879bb45be58d481207e8119d'
p429
sg14
S'Mozilla/5.0 (Linux; Android 4.4.4; vivo Y13iL Build/KTU84P) AppleWebKit/537.36 (KHTML, like Gecko) Version/4.0 Chrome/37.0.0.0 Mobile MQQBrowser/6.8 TBS/036849 Safari/537.36 MicroMessenger/6.3.27.880 NetType/WIFI Language/zh_CN'
p430
sg16
S'ab134044f2629c8286207d30d0c70ade'
p431
sa(dp432
g2
S'6277'
p433
sg4
S'2226'
p434
sg6
S'd66c95a4c1c7aa3ad1fe1162a8491ff3'
p435
sg8
S'xxbb369c4ddd8719fb9ac0abc0f256f0b2'
p436
sg10
S'xx03be2750ef1431c9ff6bd97440bdc3f9'
p437
sg12
S'xx89cbc501879bb45be58d481207e8119d'
p438
sg14
S'Mozilla/5.0 (Linux; Android 4.4.4; vivo Y13iL Build/KTU84P) AppleWebKit/537.36 (KHTML, like Gecko) Version/4.0 Chrome/37.0.0.0 Mobile MQQBrowser/6.8 TBS/036849 Safari/537.36 MicroMessenger/6.3.27.880 NetType/WIFI Language/zh_CN'
p439
sg16
S'ab134044f2629c8286207d30d0c70ade'
p440
sa(dp441
g2
S'6277'
p442
sg4
S'2246'
p443
sg6
S'd66c95a4c1c7aa3ad1fe1162a8491ff3'
p444
sg8
S'xxbb369c4ddd8719fb9ac0abc0f256f0b2'
p445
sg10
S'xx03be2750ef1431c9ff6bd97440bdc3f9'
p446
sg12
S'xx89cbc501879bb45be58d481207e8119d'
p447
sg14
S'Mozilla/5.0 (Linux; Android 4.4.4; vivo Y13iL Build/KTU84P) AppleWebKit/537.36 (KHTML, like Gecko) Version/4.0 Chrome/37.0.0.0 Mobile MQQBrowser/6.8 TBS/036849 Safari/537.36 MicroMessenger/6.3.27.880 NetType/WIFI Language/zh_CN'
p448
sg16
S'ab134044f2629c8286207d30d0c70ade'
p449
sa(dp450
g2
S'6277'
p451
sg4
S'2771'
p452
sg6
S'd66c95a4c1c7aa3ad1fe1162a8491ff3'
p453
sg8
S'xxbb369c4ddd8719fb9ac0abc0f256f0b2'
p454
sg10
S'xx03be2750ef1431c9ff6bd97440bdc3f9'
p455
sg12
S'xx89cbc501879bb45be58d481207e8119d'
p456
sg14
S'Mozilla/5.0 (Linux; Android 4.4.4; vivo Y13iL Build/KTU84P) AppleWebKit/537.36 (KHTML, like Gecko) Version/4.0 Chrome/37.0.0.0 Mobile MQQBrowser/6.8 TBS/036849 Safari/537.36 MicroMessenger/6.3.27.880 NetType/WIFI Language/zh_CN'
p457
sg16
S'ab134044f2629c8286207d30d0c70ade'
p458
sa(dp459
g2
S'6277'
p460
sg4
S'2821'
p461
sg6
S'd66c95a4c1c7aa3ad1fe1162a8491ff3'
p462
sg8
S'xxbb369c4ddd8719fb9ac0abc0f256f0b2'
p463
sg10
S'xx03be2750ef1431c9ff6bd97440bdc3f9'
p464
sg12
S'xx89cbc501879bb45be58d481207e8119d'
p465
sg14
S'Mozilla/5.0 (Linux; Android 4.4.4; vivo Y13iL Build/KTU84P) AppleWebKit/537.36 (KHTML, like Gecko) Version/4.0 Chrome/37.0.0.0 Mobile MQQBrowser/6.8 TBS/036849 Safari/537.36 MicroMessenger/6.3.27.880 NetType/WIFI Language/zh_CN'
p466
sg16
S'ab134044f2629c8286207d30d0c70ade'
p467
sa(dp468
g2
S'6277'
p469
sg4
S'2842'
p470
sg6
S'd66c95a4c1c7aa3ad1fe1162a8491ff3'
p471
sg8
S'xxbb369c4ddd8719fb9ac0abc0f256f0b2'
p472
sg10
S'xx03be2750ef1431c9ff6bd97440bdc3f9'
p473
sg12
S'xx89cbc501879bb45be58d481207e8119d'
p474
sg14
S'Mozilla/5.0 (Linux; Android 4.4.4; vivo Y13iL Build/KTU84P) AppleWebKit/537.36 (KHTML, like Gecko) Version/4.0 Chrome/37.0.0.0 Mobile MQQBrowser/6.8 TBS/036849 Safari/537.36 MicroMessenger/6.3.27.880 NetType/WIFI Language/zh_CN'
p475
sg16
S'ab134044f2629c8286207d30d0c70ade'
p476
sa(dp477
g2
S'6277'
p478
sg4
S'3297'
p479
sg6
S'd66c95a4c1c7aa3ad1fe1162a8491ff3'
p480
sg8
S'xxbb369c4ddd8719fb9ac0abc0f256f0b2'
p481
sg10
S'xx03be2750ef1431c9ff6bd97440bdc3f9'
p482
sg12
S'xx89cbc501879bb45be58d481207e8119d'
p483
sg14
S'Mozilla/5.0 (Linux; Android 4.4.4; vivo Y13iL Build/KTU84P) AppleWebKit/537.36 (KHTML, like Gecko) Version/4.0 Chrome/37.0.0.0 Mobile MQQBrowser/6.8 TBS/036849 Safari/537.36 MicroMessenger/6.3.27.880 NetType/WIFI Language/zh_CN'
p484
sg16
S'ab134044f2629c8286207d30d0c70ade'
p485
sa(dp486
g2
S'6277'
p487
sg4
S'3334'
p488
sg6
S'd66c95a4c1c7aa3ad1fe1162a8491ff3'
p489
sg8
S'xxbb369c4ddd8719fb9ac0abc0f256f0b2'
p490
sg10
S'xx03be2750ef1431c9ff6bd97440bdc3f9'
p491
sg12
S'xx89cbc501879bb45be58d481207e8119d'
p492
sg14
S'Mozilla/5.0 (Linux; Android 4.4.4; vivo Y13iL Build/KTU84P) AppleWebKit/537.36 (KHTML, like Gecko) Version/4.0 Chrome/37.0.0.0 Mobile MQQBrowser/6.8 TBS/036849 Safari/537.36 MicroMessenger/6.3.27.880 NetType/WIFI Language/zh_CN'
p493
sg16
S'ab134044f2629c8286207d30d0c70ade'
p494
sa(dp495
g2
S'6277'
p496
sg4
S'3345'
p497
sg6
S'd66c95a4c1c7aa3ad1fe1162a8491ff3'
p498
sg8
S'xxbb369c4ddd8719fb9ac0abc0f256f0b2'
p499
sg10
S'xx03be2750ef1431c9ff6bd97440bdc3f9'
p500
sg12
S'xx89cbc501879bb45be58d481207e8119d'
p501
sg14
S'Mozilla/5.0 (Linux; Android 4.4.4; vivo Y13iL Build/KTU84P) AppleWebKit/537.36 (KHTML, like Gecko) Version/4.0 Chrome/37.0.0.0 Mobile MQQBrowser/6.8 TBS/036849 Safari/537.36 MicroMessenger/6.3.27.880 NetType/WIFI Language/zh_CN'
p502
sg16
S'ab134044f2629c8286207d30d0c70ade'
p503
sa(dp504
g2
S'6277'
p505
sg4
S'3392'
p506
sg6
S'd66c95a4c1c7aa3ad1fe1162a8491ff3'
p507
sg8
S'xxbb369c4ddd8719fb9ac0abc0f256f0b2'
p508
sg10
S'xx03be2750ef1431c9ff6bd97440bdc3f9'
p509
sg12
S'xx89cbc501879bb45be58d481207e8119d'
p510
sg14
S'Mozilla/5.0 (Linux; Android 4.4.4; vivo Y13iL Build/KTU84P) AppleWebKit/537.36 (KHTML, like Gecko) Version/4.0 Chrome/37.0.0.0 Mobile MQQBrowser/6.8 TBS/036849 Safari/537.36 MicroMessenger/6.3.27.880 NetType/WIFI Language/zh_CN'
p511
sg16
S'ab134044f2629c8286207d30d0c70ade'
p512
sa(dp513
g2
S'6277'
p514
sg4
S'3408'
p515
sg6
S'd66c95a4c1c7aa3ad1fe1162a8491ff3'
p516
sg8
S'xxbb369c4ddd8719fb9ac0abc0f256f0b2'
p517
sg10
S'xx03be2750ef1431c9ff6bd97440bdc3f9'
p518
sg12
S'xx89cbc501879bb45be58d481207e8119d'
p519
sg14
S'Mozilla/5.0 (Linux; Android 4.4.4; vivo Y13iL Build/KTU84P) AppleWebKit/537.36 (KHTML, like Gecko) Version/4.0 Chrome/37.0.0.0 Mobile MQQBrowser/6.8 TBS/036849 Safari/537.36 MicroMessenger/6.3.27.880 NetType/WIFI Language/zh_CN'
p520
sg16
S'ab134044f2629c8286207d30d0c70ade'
p521
sa(dp522
g2
S'6277'
p523
sg4
S'3912'
p524
sg6
S'cdbdb79d2acb95a14a0ce4debe0b4332'
p525
sg8
S'xxbb369c4ddd8719fb9ac0abc0f256f0b2'
p526
sg10
S'xx03be2750ef1431c9ff6bd97440bdc3f9'
p527
sg12
S'xx89cbc501879bb45be58d481207e8119d'
p528
sg14
S'Mozilla/5.0 (Linux; Android 4.4.4; vivo Y13iL Build/KTU84P) AppleWebKit/537.36 (KHTML, like Gecko) Version/4.0 Chrome/37.0.0.0 Mobile MQQBrowser/6.8 TBS/036849 Safari/537.36 MicroMessenger/6.3.27.880 NetType/WIFI Language/zh_CN'
p529
sg16
S'ab134044f2629c8286207d30d0c70ade'
p530
sa(dp531
g2
S'6277'
p532
sg4
S'3934'
p533
sg6
S'cdbdb79d2acb95a14a0ce4debe0b4332'
p534
sg8
S'xxbb369c4ddd8719fb9ac0abc0f256f0b2'
p535
sg10
S'xx03be2750ef1431c9ff6bd97440bdc3f9'
p536
sg12
S'xx89cbc501879bb45be58d481207e8119d'
p537
sg14
S'Mozilla/5.0 (Linux; Android 4.4.4; vivo Y13iL Build/KTU84P) AppleWebKit/537.36 (KHTML, like Gecko) Version/4.0 Chrome/37.0.0.0 Mobile MQQBrowser/6.8 TBS/036849 Safari/537.36 MicroMessenger/6.3.27.880 NetType/WIFI Language/zh_CN'
p538
sg16
S'ab134044f2629c8286207d30d0c70ade'
p539
sa(dp540
g2
S'6277'
p541
sg4
S'3957'
p542
sg6
S'cdbdb79d2acb95a14a0ce4debe0b4332'
p543
sg8
S'xxbb369c4ddd8719fb9ac0abc0f256f0b2'
p544
sg10
S'xx03be2750ef1431c9ff6bd97440bdc3f9'
p545
sg12
S'xx89cbc501879bb45be58d481207e8119d'
p546
sg14
S'Mozilla/5.0 (Linux; Android 4.4.4; vivo Y13iL Build/KTU84P) AppleWebKit/537.36 (KHTML, like Gecko) Version/4.0 Chrome/37.0.0.0 Mobile MQQBrowser/6.8 TBS/036849 Safari/537.36 MicroMessenger/6.3.27.880 NetType/WIFI Language/zh_CN'
p547
sg16
S'ab134044f2629c8286207d30d0c70ade'
p548
sa(dp549
g2
S'6277'
p550
sg4
S'4052'
p551
sg6
S'cdbdb79d2acb95a14a0ce4debe0b4332'
p552
sg8
S'xxbb369c4ddd8719fb9ac0abc0f256f0b2'
p553
sg10
S'xx03be2750ef1431c9ff6bd97440bdc3f9'
p554
sg12
S'xx89cbc501879bb45be58d481207e8119d'
p555
sg14
S'Mozilla/5.0 (Linux; Android 4.4.4; vivo Y13iL Build/KTU84P) AppleWebKit/537.36 (KHTML, like Gecko) Version/4.0 Chrome/37.0.0.0 Mobile MQQBrowser/6.8 TBS/036849 Safari/537.36 MicroMessenger/6.3.27.880 NetType/WIFI Language/zh_CN'
p556
sg16
S'ab134044f2629c8286207d30d0c70ade'
p557
sa(dp558
g2
S'6277'
p559
sg4
S'4076'
p560
sg6
S'cdbdb79d2acb95a14a0ce4debe0b4332'
p561
sg8
S'xxbb369c4ddd8719fb9ac0abc0f256f0b2'
p562
sg10
S'xx03be2750ef1431c9ff6bd97440bdc3f9'
p563
sg12
S'xx89cbc501879bb45be58d481207e8119d'
p564
sg14
S'Mozilla/5.0 (Linux; Android 4.4.4; vivo Y13iL Build/KTU84P) AppleWebKit/537.36 (KHTML, like Gecko) Version/4.0 Chrome/37.0.0.0 Mobile MQQBrowser/6.8 TBS/036849 Safari/537.36 MicroMessenger/6.3.27.880 NetType/WIFI Language/zh_CN'
p565
sg16
S'ab134044f2629c8286207d30d0c70ade'
p566
sa(dp567
g2
S'6277'
p568
sg4
S'4615'
p569
sg6
S'cdbdb79d2acb95a14a0ce4debe0b4332'
p570
sg8
S'xxbb369c4ddd8719fb9ac0abc0f256f0b2'
p571
sg10
S'xx03be2750ef1431c9ff6bd97440bdc3f9'
p572
sg12
S'xx89cbc501879bb45be58d481207e8119d'
p573
sg14
S'Mozilla/5.0 (Linux; Android 4.4.4; vivo Y13iL Build/KTU84P) AppleWebKit/537.36 (KHTML, like Gecko) Version/4.0 Chrome/37.0.0.0 Mobile MQQBrowser/6.8 TBS/036849 Safari/537.36 MicroMessenger/6.3.27.880 NetType/WIFI Language/zh_CN'
p574
sg16
S'ab134044f2629c8286207d30d0c70ade'
p575
sa(dp576
g2
S'6277'
p577
sg4
S'4638'
p578
sg6
S'cdbdb79d2acb95a14a0ce4debe0b4332'
p579
sg8
S'xxbb369c4ddd8719fb9ac0abc0f256f0b2'
p580
sg10
S'xx03be2750ef1431c9ff6bd97440bdc3f9'
p581
sg12
S'xx89cbc501879bb45be58d481207e8119d'
p582
sg14
S'Mozilla/5.0 (Linux; Android 4.4.4; vivo Y13iL Build/KTU84P) AppleWebKit/537.36 (KHTML, like Gecko) Version/4.0 Chrome/37.0.0.0 Mobile MQQBrowser/6.8 TBS/036849 Safari/537.36 MicroMessenger/6.3.27.880 NetType/WIFI Language/zh_CN'
p583
sg16
S'ab134044f2629c8286207d30d0c70ade'
p584
sa(dp585
g2
S'6277'
p586
sg4
S'4661'
p587
sg6
S'cdbdb79d2acb95a14a0ce4debe0b4332'
p588
sg8
S'xxbb369c4ddd8719fb9ac0abc0f256f0b2'
p589
sg10
S'xx03be2750ef1431c9ff6bd97440bdc3f9'
p590
sg12
S'xx89cbc501879bb45be58d481207e8119d'
p591
sg14
S'Mozilla/5.0 (Linux; Android 4.4.4; vivo Y13iL Build/KTU84P) AppleWebKit/537.36 (KHTML, like Gecko) Version/4.0 Chrome/37.0.0.0 Mobile MQQBrowser/6.8 TBS/036849 Safari/537.36 MicroMessenger/6.3.27.880 NetType/WIFI Language/zh_CN'
p592
sg16
S'ab134044f2629c8286207d30d0c70ade'
p593
sa(dp594
g2
S'6277'
p595
sg4
S'4682'
p596
sg6
S'cdbdb79d2acb95a14a0ce4debe0b4332'
p597
sg8
S'xxbb369c4ddd8719fb9ac0abc0f256f0b2'
p598
sg10
S'xx03be2750ef1431c9ff6bd97440bdc3f9'
p599
sg12
S'xx89cbc501879bb45be58d481207e8119d'
p600
sg14
S'Mozilla/5.0 (Linux; Android 4.4.4; vivo Y13iL Build/KTU84P) AppleWebKit/537.36 (KHTML, like Gecko) Version/4.0 Chrome/37.0.0.0 Mobile MQQBrowser/6.8 TBS/036849 Safari/537.36 MicroMessenger/6.3.27.880 NetType/WIFI Language/zh_CN'
p601
sg16
S'ab134044f2629c8286207d30d0c70ade'
p602
sa(dp603
g2
S'6277'
p604
sg4
S'4719'
p605
sg6
S'cdbdb79d2acb95a14a0ce4debe0b4332'
p606
sg8
S'xxbb369c4ddd8719fb9ac0abc0f256f0b2'
p607
sg10
S'xx03be2750ef1431c9ff6bd97440bdc3f9'
p608
sg12
S'xx89cbc501879bb45be58d481207e8119d'
p609
sg14
S'Mozilla/5.0 (Linux; Android 4.4.4; vivo Y13iL Build/KTU84P) AppleWebKit/537.36 (KHTML, like Gecko) Version/4.0 Chrome/37.0.0.0 Mobile MQQBrowser/6.8 TBS/036849 Safari/537.36 MicroMessenger/6.3.27.880 NetType/WIFI Language/zh_CN'
p610
sg16
S'ab134044f2629c8286207d30d0c70ade'
p611
sa(dp612
g2
S'6277'
p613
sg4
S'4734'
p614
sg6
S'cdbdb79d2acb95a14a0ce4debe0b4332'
p615
sg8
S'xxbb369c4ddd8719fb9ac0abc0f256f0b2'
p616
sg10
S'xx03be2750ef1431c9ff6bd97440bdc3f9'
p617
sg12
S'xx89cbc501879bb45be58d481207e8119d'
p618
sg14
S'Mozilla/5.0 (Linux; Android 4.4.4; vivo Y13iL Build/KTU84P) AppleWebKit/537.36 (KHTML, like Gecko) Version/4.0 Chrome/37.0.0.0 Mobile MQQBrowser/6.8 TBS/036849 Safari/537.36 MicroMessenger/6.3.27.880 NetType/WIFI Language/zh_CN'
p619
sg16
S'ab134044f2629c8286207d30d0c70ade'
p620
sa(dp621
g2
S'6277'
p622
sg4
S'4750'
p623
sg6
S'cdbdb79d2acb95a14a0ce4debe0b4332'
p624
sg8
S'xxbb369c4ddd8719fb9ac0abc0f256f0b2'
p625
sg10
S'xx03be2750ef1431c9ff6bd97440bdc3f9'
p626
sg12
S'xx89cbc501879bb45be58d481207e8119d'
p627
sg14
S'Mozilla/5.0 (Linux; Android 4.4.4; vivo Y13iL Build/KTU84P) AppleWebKit/537.36 (KHTML, like Gecko) Version/4.0 Chrome/37.0.0.0 Mobile MQQBrowser/6.8 TBS/036849 Safari/537.36 MicroMessenger/6.3.27.880 NetType/WIFI Language/zh_CN'
p628
sg16
S'ab134044f2629c8286207d30d0c70ade'
p629
sa(dp630
g2
S'6277'
p631
sg4
S'4764'
p632
sg6
S'cdbdb79d2acb95a14a0ce4debe0b4332'
p633
sg8
S'xxbb369c4ddd8719fb9ac0abc0f256f0b2'
p634
sg10
S'xx03be2750ef1431c9ff6bd97440bdc3f9'
p635
sg12
S'xx89cbc501879bb45be58d481207e8119d'
p636
sg14
S'Mozilla/5.0 (Linux; Android 4.4.4; vivo Y13iL Build/KTU84P) AppleWebKit/537.36 (KHTML, like Gecko) Version/4.0 Chrome/37.0.0.0 Mobile MQQBrowser/6.8 TBS/036849 Safari/537.36 MicroMessenger/6.3.27.880 NetType/WIFI Language/zh_CN'
p637
sg16
S'ab134044f2629c8286207d30d0c70ade'
p638
sa(dp639
g2
S'6277'
p640
sg4
S'4782'
p641
sg6
S'cdbdb79d2acb95a14a0ce4debe0b4332'
p642
sg8
S'xxbb369c4ddd8719fb9ac0abc0f256f0b2'
p643
sg10
S'xx03be2750ef1431c9ff6bd97440bdc3f9'
p644
sg12
S'xx89cbc501879bb45be58d481207e8119d'
p645
sg14
S'Mozilla/5.0 (Linux; Android 4.4.4; vivo Y13iL Build/KTU84P) AppleWebKit/537.36 (KHTML, like Gecko) Version/4.0 Chrome/37.0.0.0 Mobile MQQBrowser/6.8 TBS/036849 Safari/537.36 MicroMessenger/6.3.27.880 NetType/WIFI Language/zh_CN'
p646
sg16
S'ab134044f2629c8286207d30d0c70ade'
p647
sa(dp648
g2
S'6277'
p649
sg4
S'4794'
p650
sg6
S'cdbdb79d2acb95a14a0ce4debe0b4332'
p651
sg8
S'xxbb369c4ddd8719fb9ac0abc0f256f0b2'
p652
sg10
S'xx03be2750ef1431c9ff6bd97440bdc3f9'
p653
sg12
S'xx89cbc501879bb45be58d481207e8119d'
p654
sg14
S'Mozilla/5.0 (Linux; Android 4.4.4; vivo Y13iL Build/KTU84P) AppleWebKit/537.36 (KHTML, like Gecko) Version/4.0 Chrome/37.0.0.0 Mobile MQQBrowser/6.8 TBS/036849 Safari/537.36 MicroMessenger/6.3.27.880 NetType/WIFI Language/zh_CN'
p655
sg16
S'ab134044f2629c8286207d30d0c70ade'
p656
sa(dp657
g2
S'6277'
p658
sg4
S'4811'
p659
sg6
S'cdbdb79d2acb95a14a0ce4debe0b4332'
p660
sg8
S'xxbb369c4ddd8719fb9ac0abc0f256f0b2'
p661
sg10
S'xx03be2750ef1431c9ff6bd97440bdc3f9'
p662
sg12
S'xx89cbc501879bb45be58d481207e8119d'
p663
sg14
S'Mozilla/5.0 (Linux; Android 4.4.4; vivo Y13iL Build/KTU84P) AppleWebKit/537.36 (KHTML, like Gecko) Version/4.0 Chrome/37.0.0.0 Mobile MQQBrowser/6.8 TBS/036849 Safari/537.36 MicroMessenger/6.3.27.880 NetType/WIFI Language/zh_CN'
p664
sg16
S'ab134044f2629c8286207d30d0c70ade'
p665
sa(dp666
g2
S'6277'
p667
sg4
S'4825'
p668
sg6
S'cdbdb79d2acb95a14a0ce4debe0b4332'
p669
sg8
S'xxbb369c4ddd8719fb9ac0abc0f256f0b2'
p670
sg10
S'xx03be2750ef1431c9ff6bd97440bdc3f9'
p671
sg12
S'xx89cbc501879bb45be58d481207e8119d'
p672
sg14
S'Mozilla/5.0 (Linux; Android 4.4.4; vivo Y13iL Build/KTU84P) AppleWebKit/537.36 (KHTML, like Gecko) Version/4.0 Chrome/37.0.0.0 Mobile MQQBrowser/6.8 TBS/036849 Safari/537.36 MicroMessenger/6.3.27.880 NetType/WIFI Language/zh_CN'
p673
sg16
S'ab134044f2629c8286207d30d0c70ade'
p674
sa(dp675
g2
S'6277'
p676
sg4
S'4840'
p677
sg6
S'cdbdb79d2acb95a14a0ce4debe0b4332'
p678
sg8
S'xxbb369c4ddd8719fb9ac0abc0f256f0b2'
p679
sg10
S'xx03be2750ef1431c9ff6bd97440bdc3f9'
p680
sg12
S'xx89cbc501879bb45be58d481207e8119d'
p681
sg14
S'Mozilla/5.0 (Linux; Android 4.4.4; vivo Y13iL Build/KTU84P) AppleWebKit/537.36 (KHTML, like Gecko) Version/4.0 Chrome/37.0.0.0 Mobile MQQBrowser/6.8 TBS/036849 Safari/537.36 MicroMessenger/6.3.27.880 NetType/WIFI Language/zh_CN'
p682
sg16
S'ab134044f2629c8286207d30d0c70ade'
p683
sa(dp684
g2
S'6277'
p685
sg4
S'4859'
p686
sg6
S'cdbdb79d2acb95a14a0ce4debe0b4332'
p687
sg8
S'xxbb369c4ddd8719fb9ac0abc0f256f0b2'
p688
sg10
S'xx03be2750ef1431c9ff6bd97440bdc3f9'
p689
sg12
S'xx89cbc501879bb45be58d481207e8119d'
p690
sg14
S'Mozilla/5.0 (Linux; Android 4.4.4; vivo Y13iL Build/KTU84P) AppleWebKit/537.36 (KHTML, like Gecko) Version/4.0 Chrome/37.0.0.0 Mobile MQQBrowser/6.8 TBS/036849 Safari/537.36 MicroMessenger/6.3.27.880 NetType/WIFI Language/zh_CN'
p691
sg16
S'ab134044f2629c8286207d30d0c70ade'
p692
sa(dp693
g2
S'6277'
p694
sg4
S'4880'
p695
sg6
S'cdbdb79d2acb95a14a0ce4debe0b4332'
p696
sg8
S'xxbb369c4ddd8719fb9ac0abc0f256f0b2'
p697
sg10
S'xx03be2750ef1431c9ff6bd97440bdc3f9'
p698
sg12
S'xx89cbc501879bb45be58d481207e8119d'
p699
sg14
S'Mozilla/5.0 (Linux; Android 4.4.4; vivo Y13iL Build/KTU84P) AppleWebKit/537.36 (KHTML, like Gecko) Version/4.0 Chrome/37.0.0.0 Mobile MQQBrowser/6.8 TBS/036849 Safari/537.36 MicroMessenger/6.3.27.880 NetType/WIFI Language/zh_CN'
p700
sg16
S'ab134044f2629c8286207d30d0c70ade'
p701
sa(dp702
g2
S'6277'
p703
sg4
S'4899'
p704
sg6
S'cdbdb79d2acb95a14a0ce4debe0b4332'
p705
sg8
S'xxbb369c4ddd8719fb9ac0abc0f256f0b2'
p706
sg10
S'xx03be2750ef1431c9ff6bd97440bdc3f9'
p707
sg12
S'xx89cbc501879bb45be58d481207e8119d'
p708
sg14
S'Mozilla/5.0 (Linux; Android 4.4.4; vivo Y13iL Build/KTU84P) AppleWebKit/537.36 (KHTML, like Gecko) Version/4.0 Chrome/37.0.0.0 Mobile MQQBrowser/6.8 TBS/036849 Safari/537.36 MicroMessenger/6.3.27.880 NetType/WIFI Language/zh_CN'
p709
sg16
S'ab134044f2629c8286207d30d0c70ade'
p710
sa(dp711
g2
S'6277'
p712
sg4
S'4917'
p713
sg6
S'cdbdb79d2acb95a14a0ce4debe0b4332'
p714
sg8
S'xxbb369c4ddd8719fb9ac0abc0f256f0b2'
p715
sg10
S'xx03be2750ef1431c9ff6bd97440bdc3f9'
p716
sg12
S'xx89cbc501879bb45be58d481207e8119d'
p717
sg14
S'Mozilla/5.0 (Linux; Android 4.4.4; vivo Y13iL Build/KTU84P) AppleWebKit/537.36 (KHTML, like Gecko) Version/4.0 Chrome/37.0.0.0 Mobile MQQBrowser/6.8 TBS/036849 Safari/537.36 MicroMessenger/6.3.27.880 NetType/WIFI Language/zh_CN'
p718
sg16
S'ab134044f2629c8286207d30d0c70ade'
p719
sa(dp720
g2
S'6277'
p721
sg4
S'5442'
p722
sg6
S'cdbdb79d2acb95a14a0ce4debe0b4332'
p723
sg8
S'xxbb369c4ddd8719fb9ac0abc0f256f0b2'
p724
sg10
S'xx03be2750ef1431c9ff6bd97440bdc3f9'
p725
sg12
S'xx89cbc501879bb45be58d481207e8119d'
p726
sg14
S'Mozilla/5.0 (Linux; Android 4.4.4; vivo Y13iL Build/KTU84P) AppleWebKit/537.36 (KHTML, like Gecko) Version/4.0 Chrome/37.0.0.0 Mobile MQQBrowser/6.8 TBS/036849 Safari/537.36 MicroMessenger/6.3.27.880 NetType/WIFI Language/zh_CN'
p727
sg16
S'ab134044f2629c8286207d30d0c70ade'
p728
sa(dp729
g2
S'6277'
p730
sg4
S'5449'
p731
sg6
S'cdbdb79d2acb95a14a0ce4debe0b4332'
p732
sg8
S'xxbb369c4ddd8719fb9ac0abc0f256f0b2'
p733
sg10
S'xx03be2750ef1431c9ff6bd97440bdc3f9'
p734
sg12
S'xx89cbc501879bb45be58d481207e8119d'
p735
sg14
S'Mozilla/5.0 (Linux; Android 4.4.4; vivo Y13iL Build/KTU84P) AppleWebKit/537.36 (KHTML, like Gecko) Version/4.0 Chrome/37.0.0.0 Mobile MQQBrowser/6.8 TBS/036849 Safari/537.36 MicroMessenger/6.3.27.880 NetType/WIFI Language/zh_CN'
p736
sg16
S'ab134044f2629c8286207d30d0c70ade'
p737
sa(dp738
g2
S'6277'
p739
sg4
S'6078'
p740
sg6
S'cdbdb79d2acb95a14a0ce4debe0b4332'
p741
sg8
S'xxbb369c4ddd8719fb9ac0abc0f256f0b2'
p742
sg10
S'xx03be2750ef1431c9ff6bd97440bdc3f9'
p743
sg12
S'xx89cbc501879bb45be58d481207e8119d'
p744
sg14
S'Mozilla/5.0 (Linux; Android 4.4.4; vivo Y13iL Build/KTU84P) AppleWebKit/537.36 (KHTML, like Gecko) Version/4.0 Chrome/37.0.0.0 Mobile MQQBrowser/6.8 TBS/036849 Safari/537.36 MicroMessenger/6.3.27.880 NetType/WIFI Language/zh_CN'
p745
sg16
S'ab134044f2629c8286207d30d0c70ade'
p746
sa(dp747
g2
S'6277'
p748
sg4
S'6802'
p749
sg6
S'cdbdb79d2acb95a14a0ce4debe0b4332'
p750
sg8
S'xxbb369c4ddd8719fb9ac0abc0f256f0b2'
p751
sg10
S'xx03be2750ef1431c9ff6bd97440bdc3f9'
p752
sg12
S'xx89cbc501879bb45be58d481207e8119d'
p753
sg14
S'Mozilla/5.0 (Linux; Android 4.4.4; vivo Y13iL Build/KTU84P) AppleWebKit/537.36 (KHTML, like Gecko) Version/4.0 Chrome/37.0.0.0 Mobile MQQBrowser/6.8 TBS/036849 Safari/537.36 MicroMessenger/6.3.27.880 NetType/WIFI Language/zh_CN'
p754
sg16
S'ab134044f2629c8286207d30d0c70ade'
p755
sa(dp756
g2
S'6277'
p757
sg4
S'6812'
p758
sg6
S'cdbdb79d2acb95a14a0ce4debe0b4332'
p759
sg8
S'xxbb369c4ddd8719fb9ac0abc0f256f0b2'
p760
sg10
S'xx03be2750ef1431c9ff6bd97440bdc3f9'
p761
sg12
S'xx89cbc501879bb45be58d481207e8119d'
p762
sg14
S'Mozilla/5.0 (Linux; Android 4.4.4; vivo Y13iL Build/KTU84P) AppleWebKit/537.36 (KHTML, like Gecko) Version/4.0 Chrome/37.0.0.0 Mobile MQQBrowser/6.8 TBS/036849 Safari/537.36 MicroMessenger/6.3.27.880 NetType/WIFI Language/zh_CN'
p763
sg16
S'ab134044f2629c8286207d30d0c70ade'
p764
sa(dp765
g2
S'28587'
p766
sg4
S'6972'
p767
sg6
S'8cf4467423fca9f0e4d1ff915a5e7466'
p768
sg8
S'xxb54ab33787a05cddc36f581e2562b440'
p769
sg10
S'xxd779d117bc8fc13ca362992653410547'
p770
sg12
S'xx89cbc501879bb45be58d481207e8119d'
p771
sg14
S'Mozilla/5.0 (Linux; Android 4.4.4; vivo Y13iL Build/KTU84P) AppleWebKit/537.36 (KHTML, like Gecko) Version/4.0 Chrome/37.0.0.0 Mobile MQQBrowser/6.8 TBS/036849 Safari/537.36 MicroMessenger/6.3.27.880 NetType/WIFI Language/zh_CN'
p772
sg16
S'ab134044f2629c8286207d30d0c70ade'
p773
sa(dp774
g2
S'28587'
p775
sg4
S'6986'
p776
sg6
S'8cf4467423fca9f0e4d1ff915a5e7466'
p777
sg8
S'xxb54ab33787a05cddc36f581e2562b440'
p778
sg10
S'xxd779d117bc8fc13ca362992653410547'
p779
sg12
S'xx89cbc501879bb45be58d481207e8119d'
p780
sg14
S'Mozilla/5.0 (Linux; Android 4.4.4; vivo Y13iL Build/KTU84P) AppleWebKit/537.36 (KHTML, like Gecko) Version/4.0 Chrome/37.0.0.0 Mobile MQQBrowser/6.8 TBS/036849 Safari/537.36 MicroMessenger/6.3.27.880 NetType/WIFI Language/zh_CN'
p781
sg16
S'ab134044f2629c8286207d30d0c70ade'
p782
sa(dp783
g2
S'49836'
p784
sg4
S'7503'
p785
sg6
S'a2cc057e70d667a9b68a39d6cb3938e2'
p786
sg8
S'xxf8f511adfed3688b9d04f605d9ad872c'
p787
sg10
S'xx1ddb63a7c2fa0bf686d9d11447694627'
p788
sg12
S'xx89cbc501879bb45be58d481207e8119d'
p789
sg14
S'Mozilla/5.0 (Linux; Android 4.4.4; vivo Y13iL Build/KTU84P) AppleWebKit/537.36 (KHTML, like Gecko) Version/4.0 Chrome/37.0.0.0 Mobile MQQBrowser/6.8 TBS/036849 Safari/537.36 MicroMessenger/6.3.27.880 NetType/WIFI Language/zh_CN'
p790
sg16
S'ab134044f2629c8286207d30d0c70ade'
p791
sa(dp792
g2
S'49836'
p793
sg4
S'7519'
p794
sg6
S'a2cc057e70d667a9b68a39d6cb3938e2'
p795
sg8
S'xxf8f511adfed3688b9d04f605d9ad872c'
p796
sg10
S'xx1ddb63a7c2fa0bf686d9d11447694627'
p797
sg12
S'xx89cbc501879bb45be58d481207e8119d'
p798
sg14
S'Mozilla/5.0 (Linux; Android 4.4.4; vivo Y13iL Build/KTU84P) AppleWebKit/537.36 (KHTML, like Gecko) Version/4.0 Chrome/37.0.0.0 Mobile MQQBrowser/6.8 TBS/036849 Safari/537.36 MicroMessenger/6.3.27.880 NetType/WIFI Language/zh_CN'
p799
sg16
S'ab134044f2629c8286207d30d0c70ade'
p800
sa(dp801
g2
S'49836'
p802
sg4
S'7531'
p803
sg6
S'a2cc057e70d667a9b68a39d6cb3938e2'
p804
sg8
S'xxf8f511adfed3688b9d04f605d9ad872c'
p805
sg10
S'xx1ddb63a7c2fa0bf686d9d11447694627'
p806
sg12
S'xx89cbc501879bb45be58d481207e8119d'
p807
sg14
S'Mozilla/5.0 (Linux; Android 4.4.4; vivo Y13iL Build/KTU84P) AppleWebKit/537.36 (KHTML, like Gecko) Version/4.0 Chrome/37.0.0.0 Mobile MQQBrowser/6.8 TBS/036849 Safari/537.36 MicroMessenger/6.3.27.880 NetType/WIFI Language/zh_CN'
p808
sg16
S'ab134044f2629c8286207d30d0c70ade'
p809
sa(dp810
g2
S'49836'
p811
sg4
S'7551'
p812
sg6
S'a2cc057e70d667a9b68a39d6cb3938e2'
p813
sg8
S'xxf8f511adfed3688b9d04f605d9ad872c'
p814
sg10
S'xx1ddb63a7c2fa0bf686d9d11447694627'
p815
sg12
S'xx89cbc501879bb45be58d481207e8119d'
p816
sg14
S'Mozilla/5.0 (Linux; Android 4.4.4; vivo Y13iL Build/KTU84P) AppleWebKit/537.36 (KHTML, like Gecko) Version/4.0 Chrome/37.0.0.0 Mobile MQQBrowser/6.8 TBS/036849 Safari/537.36 MicroMessenger/6.3.27.880 NetType/WIFI Language/zh_CN'
p817
sg16
S'ab134044f2629c8286207d30d0c70ade'
p818
sa(dp819
g2
S'6277'
p820
sg4
S'7554'
p821
sg6
S'cdbdb79d2acb95a14a0ce4debe0b4332'
p822
sg8
S'xxbb369c4ddd8719fb9ac0abc0f256f0b2'
p823
sg10
S'xx03be2750ef1431c9ff6bd97440bdc3f9'
p824
sg12
S'xx89cbc501879bb45be58d481207e8119d'
p825
sg14
S'Mozilla/5.0 (Linux; Android 4.4.4; vivo Y13iL Build/KTU84P) AppleWebKit/537.36 (KHTML, like Gecko) Version/4.0 Chrome/37.0.0.0 Mobile MQQBrowser/6.8 TBS/036849 Safari/537.36 MicroMessenger/6.3.27.880 NetType/WIFI Language/zh_CN'
p826
sg16
S'ab134044f2629c8286207d30d0c70ade'
p827
sa(dp828
g2
S'6277'
p829
sg4
S'7564'
p830
sg6
S'cdbdb79d2acb95a14a0ce4debe0b4332'
p831
sg8
S'xxbb369c4ddd8719fb9ac0abc0f256f0b2'
p832
sg10
S'xx03be2750ef1431c9ff6bd97440bdc3f9'
p833
sg12
S'xx89cbc501879bb45be58d481207e8119d'
p834
sg14
S'Mozilla/5.0 (Linux; Android 4.4.4; vivo Y13iL Build/KTU84P) AppleWebKit/537.36 (KHTML, like Gecko) Version/4.0 Chrome/37.0.0.0 Mobile MQQBrowser/6.8 TBS/036849 Safari/537.36 MicroMessenger/6.3.27.880 NetType/WIFI Language/zh_CN'
p835
sg16
S'ab134044f2629c8286207d30d0c70ade'
p836
sa(dp837
g2
S'33647'
p838
sg4
S'7793'
p839
sg6
S'84c6fea1a0efc618b52a026523e50a51'
p840
sg8
S'xx1b635225032bf6f19c993a80c8c161f4'
p841
sg10
S'xx1ddb63a7c2fa0bf686d9d11447694627'
p842
sg12
S'xx89cbc501879bb45be58d481207e8119d'
p843
sg14
S'Mozilla/5.0 (Linux; Android 4.4.4; vivo Y13iL Build/KTU84P) AppleWebKit/537.36 (KHTML, like Gecko) Version/4.0 Chrome/37.0.0.0 Mobile MQQBrowser/6.8 TBS/036869 Safari/537.36 MicroMessenger/6.3.27.880 NetType/WIFI Language/zh_CN'
p844
sg16
S'848f8bd496b6d5e978e0dd8cd8348267'
p845
sa(dp846
g2
S'33647'
p847
sg4
S'7797'
p848
sg6
S'84c6fea1a0efc618b52a026523e50a51'
p849
sg8
S'xx1b635225032bf6f19c993a80c8c161f4'
p850
sg10
S'xx1ddb63a7c2fa0bf686d9d11447694627'
p851
sg12
S'xx89cbc501879bb45be58d481207e8119d'
p852
sg14
S'Mozilla/5.0 (Linux; Android 4.4.4; vivo Y13iL Build/KTU84P) AppleWebKit/537.36 (KHTML, like Gecko) Version/4.0 Chrome/37.0.0.0 Mobile MQQBrowser/6.8 TBS/036869 Safari/537.36 MicroMessenger/6.3.27.880 NetType/WIFI Language/zh_CN'
p853
sg16
S'848f8bd496b6d5e978e0dd8cd8348267'
p854
sa(dp855
g2
S'33647'
p856
sg4
S'7808'
p857
sg6
S'84c6fea1a0efc618b52a026523e50a51'
p858
sg8
S'xx1b635225032bf6f19c993a80c8c161f4'
p859
sg10
S'xx1ddb63a7c2fa0bf686d9d11447694627'
p860
sg12
S'xx89cbc501879bb45be58d481207e8119d'
p861
sg14
S'Mozilla/5.0 (Linux; Android 4.4.4; vivo Y13iL Build/KTU84P) AppleWebKit/537.36 (KHTML, like Gecko) Version/4.0 Chrome/37.0.0.0 Mobile MQQBrowser/6.8 TBS/036869 Safari/537.36 MicroMessenger/6.3.27.880 NetType/WIFI Language/zh_CN'
p862
sg16
S'848f8bd496b6d5e978e0dd8cd8348267'
p863
sa(dp864
g2
S'31430'
p865
sg4
S'7938'
p866
sg6
S'f7de61920d27c07b3c2562f2a7224151'
p867
sg8
S'xx1b635225032bf6f19c993a80c8c161f4'
p868
sg10
S'xx1ddb63a7c2fa0bf686d9d11447694627'
p869
sg12
S'xx89cbc501879bb45be58d481207e8119d'
p870
sg14
S'Mozilla/5.0 (Linux; Android 4.4.4; vivo Y13iL Build/KTU84P) AppleWebKit/537.36 (KHTML, like Gecko) Version/4.0 Chrome/37.0.0.0 Mobile MQQBrowser/6.8 TBS/036869 Safari/537.36 MicroMessenger/6.3.27.880 NetType/WIFI Language/zh_CN'
p871
sg16
S'848f8bd496b6d5e978e0dd8cd8348267'
p872
sa(dp873
g2
S'31430'
p874
sg4
S'7953'
p875
sg6
S'f7de61920d27c07b3c2562f2a7224151'
p876
sg8
S'xx1b635225032bf6f19c993a80c8c161f4'
p877
sg10
S'xx1ddb63a7c2fa0bf686d9d11447694627'
p878
sg12
S'xx89cbc501879bb45be58d481207e8119d'
p879
sg14
S'Mozilla/5.0 (Linux; Android 4.4.4; vivo Y13iL Build/KTU84P) AppleWebKit/537.36 (KHTML, like Gecko) Version/4.0 Chrome/37.0.0.0 Mobile MQQBrowser/6.8 TBS/036869 Safari/537.36 MicroMessenger/6.3.27.880 NetType/WIFI Language/zh_CN'
p880
sg16
S'848f8bd496b6d5e978e0dd8cd8348267'
p881
sa(dp882
g2
S'47089'
p883
sg4
S'8831'
p884
sg6
S'e29483f5d48909ce7997109bb3c0c935'
p885
sg8
S'xxbb369c4ddd8719fb9ac0abc0f256f0b2'
p886
sg10
S'xx03be2750ef1431c9ff6bd97440bdc3f9'
p887
sg12
S'xx89cbc501879bb45be58d481207e8119d'
p888
sg14
S'Mozilla/5.0 (Linux; Android 4.4.4; vivo Y13iL Build/KTU84P) AppleWebKit/537.36 (KHTML, like Gecko) Version/4.0 Chrome/37.0.0.0 Mobile MQQBrowser/6.8 TBS/036849 Safari/537.36 MicroMessenger/6.3.27.880 NetType/WIFI Language/zh_CN'
p889
sg16
S'ab134044f2629c8286207d30d0c70ade'
p890
sa.