(lp0
(dp1
S'user_id'
p2
S'49835'
p3
sS'data_id'
p4
S'7420'
p5
sS'ip'
p6
S'51066b7987d635c03f646e425a1653ee'
p7
sS'phone_B'
p8
S'xxf1dd48205590cbe82c40986cf3902544'
p9
sS'phone_C'
p10
S'xxda419851033273d199bbe592c0970f7f'
p11
sS'phone_A'
p12
S'xx894b67fe5eb66a4f1fcf3571626ef843'
p13
sS'user_agent'
p14
S'Mozilla/5.0 (Linux; Android 6.0.1; SM-G9208 Build/MMB29K) AppleWebKit/537.36 (KHTML, like Gecko) Version/4.0 Chrome/37.0.0.0 Mobile MQQBrowser/6.8 TBS/036849 Safari/537.36 MicroMessenger/6.3.27.880 NetType/cmnet Language/zh_CN'
p15
sS'ua'
p16
S'35c473703ab1a15ebae36c135778b28d'
p17
sa(dp18
g2
S'49835'
p19
sg4
S'7437'
p20
sg6
S'51066b7987d635c03f646e425a1653ee'
p21
sg8
S'xxf1dd48205590cbe82c40986cf3902544'
p22
sg10
S'xxda419851033273d199bbe592c0970f7f'
p23
sg12
S'xx894b67fe5eb66a4f1fcf3571626ef843'
p24
sg14
S'Mozilla/5.0 (Linux; Android 6.0.1; SM-G9208 Build/MMB29K) AppleWebKit/537.36 (KHTML, like Gecko) Version/4.0 Chrome/37.0.0.0 Mobile MQQBrowser/6.8 TBS/036849 Safari/537.36 MicroMessenger/6.3.27.880 NetType/cmnet Language/zh_CN'
p25
sg16
S'35c473703ab1a15ebae36c135778b28d'
p26
sa(dp27
g2
S'49835'
p28
sg4
S'7454'
p29
sg6
S'51066b7987d635c03f646e425a1653ee'
p30
sg8
S'xxf1dd48205590cbe82c40986cf3902544'
p31
sg10
S'xxda419851033273d199bbe592c0970f7f'
p32
sg12
S'xx894b67fe5eb66a4f1fcf3571626ef843'
p33
sg14
S'Mozilla/5.0 (Linux; Android 6.0.1; SM-G9208 Build/MMB29K) AppleWebKit/537.36 (KHTML, like Gecko) Version/4.0 Chrome/37.0.0.0 Mobile MQQBrowser/6.8 TBS/036849 Safari/537.36 MicroMessenger/6.3.27.880 NetType/cmnet Language/zh_CN'
p34
sg16
S'35c473703ab1a15ebae36c135778b28d'
p35
sa.