(lp0
(dp1
S'user_id'
p2
S'49749'
p3
sS'data_id'
p4
S'1090'
p5
sS'ip'
p6
S'e472478d9c40c956bd3ba6c4ffc4e3e4'
p7
sS'phone_B'
p8
S'xxd1f4cf40e5061b0acc8490e78ffd9d33'
p9
sS'phone_C'
p10
S'xx4f49959eb88fc759b72ce677a5e5de05'
p11
sS'phone_A'
p12
S'xx893eaec31792bd59e5fc73e0c554d341'
p13
sS'user_agent'
p14
S'Mozilla/5.0 (Linux; Android 6.0.1; SM-C5000 Build/MMB29M) AppleWebKit/537.36 (KHTML, like Gecko) Version/4.0 Chrome/37.0.0.0 Mobile MQQBrowser/6.8 TBS/036869 Safari/537.36 MicroMessenger/6.3.27.880 NetType/WIFI Language/zh_CN'
p15
sS'ua'
p16
S'8931376807fbf67ee78bbe00ee5adacb'
p17
sa(dp18
g2
S'49749'
p19
sg4
S'1105'
p20
sg6
S'e472478d9c40c956bd3ba6c4ffc4e3e4'
p21
sg8
S'xxd1f4cf40e5061b0acc8490e78ffd9d33'
p22
sg10
S'xx4f49959eb88fc759b72ce677a5e5de05'
p23
sg12
S'xx893eaec31792bd59e5fc73e0c554d341'
p24
sg14
S'Mozilla/5.0 (Linux; Android 6.0.1; SM-C5000 Build/MMB29M) AppleWebKit/537.36 (KHTML, like Gecko) Version/4.0 Chrome/37.0.0.0 Mobile MQQBrowser/6.8 TBS/036869 Safari/537.36 MicroMessenger/6.3.27.880 NetType/WIFI Language/zh_CN'
p25
sg16
S'8931376807fbf67ee78bbe00ee5adacb'
p26
sa(dp27
g2
S'49749'
p28
sg4
S'1123'
p29
sg6
S'e472478d9c40c956bd3ba6c4ffc4e3e4'
p30
sg8
S'xxd1f4cf40e5061b0acc8490e78ffd9d33'
p31
sg10
S'xx4f49959eb88fc759b72ce677a5e5de05'
p32
sg12
S'xx893eaec31792bd59e5fc73e0c554d341'
p33
sg14
S'Mozilla/5.0 (Linux; Android 6.0.1; SM-C5000 Build/MMB29M) AppleWebKit/537.36 (KHTML, like Gecko) Version/4.0 Chrome/37.0.0.0 Mobile MQQBrowser/6.8 TBS/036869 Safari/537.36 MicroMessenger/6.3.27.880 NetType/WIFI Language/zh_CN'
p34
sg16
S'8931376807fbf67ee78bbe00ee5adacb'
p35
sa(dp36
g2
S'49749'
p37
sg4
S'1141'
p38
sg6
S'e472478d9c40c956bd3ba6c4ffc4e3e4'
p39
sg8
S'xxd1f4cf40e5061b0acc8490e78ffd9d33'
p40
sg10
S'xx4f49959eb88fc759b72ce677a5e5de05'
p41
sg12
S'xx893eaec31792bd59e5fc73e0c554d341'
p42
sg14
S'Mozilla/5.0 (Linux; Android 6.0.1; SM-C5000 Build/MMB29M) AppleWebKit/537.36 (KHTML, like Gecko) Version/4.0 Chrome/37.0.0.0 Mobile MQQBrowser/6.8 TBS/036869 Safari/537.36 MicroMessenger/6.3.27.880 NetType/WIFI Language/zh_CN'
p43
sg16
S'8931376807fbf67ee78bbe00ee5adacb'
p44
sa(dp45
g2
S'41409'
p46
sg4
S'7534'
p47
sg6
S'6a865733605202a3be5216097b8f71db'
p48
sg8
S'xx46c8a28890dc7453956c8266cefd3f7e'
p49
sg10
S'xx4f49959eb88fc759b72ce677a5e5de05'
p50
sg12
S'xx893eaec31792bd59e5fc73e0c554d341'
p51
sg14
S'Mozilla/5.0 (Linux; Android 6.0.1; SM-C5000 Build/MMB29M) AppleWebKit/537.36 (KHTML, like Gecko) Version/4.0 Chrome/37.0.0.0 Mobile MQQBrowser/6.8 TBS/036869 Safari/537.36 MicroMessenger/6.3.27.880 NetType/ctnet Language/zh_CN'
p52
sg16
S'cd337ed7dbe80ba601a0a6f69a454290'
p53
sa(dp54
g2
S'41409'
p55
sg4
S'7546'
p56
sg6
S'6a865733605202a3be5216097b8f71db'
p57
sg8
S'xx46c8a28890dc7453956c8266cefd3f7e'
p58
sg10
S'xx4f49959eb88fc759b72ce677a5e5de05'
p59
sg12
S'xx893eaec31792bd59e5fc73e0c554d341'
p60
sg14
S'Mozilla/5.0 (Linux; Android 6.0.1; SM-C5000 Build/MMB29M) AppleWebKit/537.36 (KHTML, like Gecko) Version/4.0 Chrome/37.0.0.0 Mobile MQQBrowser/6.8 TBS/036869 Safari/537.36 MicroMessenger/6.3.27.880 NetType/ctnet Language/zh_CN'
p61
sg16
S'cd337ed7dbe80ba601a0a6f69a454290'
p62
sa.