(lp0
(dp1
S'user_id'
p2
S'32329'
p3
sS'data_id'
p4
S'2440'
p5
sS'ip'
p6
S'1537e900b1b6ba3d5ce5c92ff8a89779'
p7
sS'phone_B'
p8
S'xx7db969ee1d06ba31c65a0ccf036675a3'
p9
sS'phone_C'
p10
S'xxcecd068be0523402d5f6be39db9ad14c'
p11
sS'phone_A'
p12
S'xx8a0b68cb8bb8f392c78d91207ecb727e'
p13
sS'user_agent'
p14
S'Mozilla/5.0 (Linux; Android 5.0.2; vivo Y37 Build/LRX22G) AppleWebKit/537.36 (KHTML, like Gecko) Version/4.0 Chrome/37.0.0.0 Mobile MQQBrowser/6.8 TBS/036849 Safari/537.36 MicroMessenger/6.3.27.880 NetType/WIFI Language/zh_CN'
p15
sS'ua'
p16
S'199a2d112523ccd878f7417775f4cde9'
p17
sa(dp18
g2
S'32329'
p19
sg4
S'2455'
p20
sg6
S'1537e900b1b6ba3d5ce5c92ff8a89779'
p21
sg8
S'xx7db969ee1d06ba31c65a0ccf036675a3'
p22
sg10
S'xxcecd068be0523402d5f6be39db9ad14c'
p23
sg12
S'xx8a0b68cb8bb8f392c78d91207ecb727e'
p24
sg14
S'Mozilla/5.0 (Linux; Android 5.0.2; vivo Y37 Build/LRX22G) AppleWebKit/537.36 (KHTML, like Gecko) Version/4.0 Chrome/37.0.0.0 Mobile MQQBrowser/6.8 TBS/036849 Safari/537.36 MicroMessenger/6.3.27.880 NetType/WIFI Language/zh_CN'
p25
sg16
S'199a2d112523ccd878f7417775f4cde9'
p26
sa(dp27
g2
S'32329'
p28
sg4
S'2476'
p29
sg6
S'1537e900b1b6ba3d5ce5c92ff8a89779'
p30
sg8
S'xx7db969ee1d06ba31c65a0ccf036675a3'
p31
sg10
S'xxcecd068be0523402d5f6be39db9ad14c'
p32
sg12
S'xx8a0b68cb8bb8f392c78d91207ecb727e'
p33
sg14
S'Mozilla/5.0 (Linux; Android 5.0.2; vivo Y37 Build/LRX22G) AppleWebKit/537.36 (KHTML, like Gecko) Version/4.0 Chrome/37.0.0.0 Mobile MQQBrowser/6.8 TBS/036849 Safari/537.36 MicroMessenger/6.3.27.880 NetType/WIFI Language/zh_CN'
p34
sg16
S'199a2d112523ccd878f7417775f4cde9'
p35
sa(dp36
g2
S'32329'
p37
sg4
S'2496'
p38
sg6
S'1537e900b1b6ba3d5ce5c92ff8a89779'
p39
sg8
S'xx7db969ee1d06ba31c65a0ccf036675a3'
p40
sg10
S'xxcecd068be0523402d5f6be39db9ad14c'
p41
sg12
S'xx8a0b68cb8bb8f392c78d91207ecb727e'
p42
sg14
S'Mozilla/5.0 (Linux; Android 5.0.2; vivo Y37 Build/LRX22G) AppleWebKit/537.36 (KHTML, like Gecko) Version/4.0 Chrome/37.0.0.0 Mobile MQQBrowser/6.8 TBS/036849 Safari/537.36 MicroMessenger/6.3.27.880 NetType/WIFI Language/zh_CN'
p43
sg16
S'199a2d112523ccd878f7417775f4cde9'
p44
sa(dp45
g2
S'32329'
p46
sg4
S'2520'
p47
sg6
S'1537e900b1b6ba3d5ce5c92ff8a89779'
p48
sg8
S'xx7db969ee1d06ba31c65a0ccf036675a3'
p49
sg10
S'xxcecd068be0523402d5f6be39db9ad14c'
p50
sg12
S'xx8a0b68cb8bb8f392c78d91207ecb727e'
p51
sg14
S'Mozilla/5.0 (Linux; Android 5.0.2; vivo Y37 Build/LRX22G) AppleWebKit/537.36 (KHTML, like Gecko) Version/4.0 Chrome/37.0.0.0 Mobile MQQBrowser/6.8 TBS/036849 Safari/537.36 MicroMessenger/6.3.27.880 NetType/WIFI Language/zh_CN'
p52
sg16
S'199a2d112523ccd878f7417775f4cde9'
p53
sa(dp54
g2
S'32329'
p55
sg4
S'2545'
p56
sg6
S'1537e900b1b6ba3d5ce5c92ff8a89779'
p57
sg8
S'xx7db969ee1d06ba31c65a0ccf036675a3'
p58
sg10
S'xxcecd068be0523402d5f6be39db9ad14c'
p59
sg12
S'xx8a0b68cb8bb8f392c78d91207ecb727e'
p60
sg14
S'Mozilla/5.0 (Linux; Android 5.0.2; vivo Y37 Build/LRX22G) AppleWebKit/537.36 (KHTML, like Gecko) Version/4.0 Chrome/37.0.0.0 Mobile MQQBrowser/6.8 TBS/036849 Safari/537.36 MicroMessenger/6.3.27.880 NetType/WIFI Language/zh_CN'
p61
sg16
S'199a2d112523ccd878f7417775f4cde9'
p62
sa(dp63
g2
S'32329'
p64
sg4
S'2569'
p65
sg6
S'1537e900b1b6ba3d5ce5c92ff8a89779'
p66
sg8
S'xx7db969ee1d06ba31c65a0ccf036675a3'
p67
sg10
S'xxcecd068be0523402d5f6be39db9ad14c'
p68
sg12
S'xx8a0b68cb8bb8f392c78d91207ecb727e'
p69
sg14
S'Mozilla/5.0 (Linux; Android 5.0.2; vivo Y37 Build/LRX22G) AppleWebKit/537.36 (KHTML, like Gecko) Version/4.0 Chrome/37.0.0.0 Mobile MQQBrowser/6.8 TBS/036849 Safari/537.36 MicroMessenger/6.3.27.880 NetType/WIFI Language/zh_CN'
p70
sg16
S'199a2d112523ccd878f7417775f4cde9'
p71
sa.