(lp0
(dp1
S'user_id'
p2
S'47465'
p3
sS'data_id'
p4
S'122'
p5
sS'ip'
p6
S'c79aaf8cd2dd549616d334c1307c2091'
p7
sS'phone_B'
p8
S'xxaed5167fea152a28da3f48abf7205fc5'
p9
sS'phone_C'
p10
S'xx75eb04d49442c6583b07d86e7db074ab'
p11
sS'phone_A'
p12
S'xx8b4e04a1663ced8bb6940fcba647029e'
p13
sS'user_agent'
p14
S'Mozilla/5.0 (Linux; Android 5.1.1; vivo V3Max A Build/LMY47V) AppleWebKit/537.36 (KHTML, like Gecko) Version/4.0 Chrome/37.0.0.0 Mobile MQQBrowser/6.8 TBS/036869 Safari/537.36 MicroMessenger/6.3.27.880 NetType/WIFI Language/zh_CN'
p15
sS'ua'
p16
S'586c66c309997aa98f0c463bc7a487ff'
p17
sa(dp18
g2
S'47465'
p19
sg4
S'130'
p20
sg6
S'c79aaf8cd2dd549616d334c1307c2091'
p21
sg8
S'xxaed5167fea152a28da3f48abf7205fc5'
p22
sg10
S'xx75eb04d49442c6583b07d86e7db074ab'
p23
sg12
S'xx8b4e04a1663ced8bb6940fcba647029e'
p24
sg14
S'Mozilla/5.0 (Linux; Android 5.1.1; vivo V3Max A Build/LMY47V) AppleWebKit/537.36 (KHTML, like Gecko) Version/4.0 Chrome/37.0.0.0 Mobile MQQBrowser/6.8 TBS/036869 Safari/537.36 MicroMessenger/6.3.27.880 NetType/WIFI Language/zh_CN'
p25
sg16
S'586c66c309997aa98f0c463bc7a487ff'
p26
sa(dp27
g2
S'47465'
p28
sg4
S'143'
p29
sg6
S'c79aaf8cd2dd549616d334c1307c2091'
p30
sg8
S'xxaed5167fea152a28da3f48abf7205fc5'
p31
sg10
S'xx75eb04d49442c6583b07d86e7db074ab'
p32
sg12
S'xx8b4e04a1663ced8bb6940fcba647029e'
p33
sg14
S'Mozilla/5.0 (Linux; Android 5.1.1; vivo V3Max A Build/LMY47V) AppleWebKit/537.36 (KHTML, like Gecko) Version/4.0 Chrome/37.0.0.0 Mobile MQQBrowser/6.8 TBS/036869 Safari/537.36 MicroMessenger/6.3.27.880 NetType/WIFI Language/zh_CN'
p34
sg16
S'586c66c309997aa98f0c463bc7a487ff'
p35
sa(dp36
g2
S'22297'
p37
sg4
S'2324'
p38
sg6
S'79b2b9904f23a9b5f103957129608106'
p39
sg8
S'xxfe284231fe5b40e0c027973c28cdcf61'
p40
sg10
S'xx75eb04d49442c6583b07d86e7db074ab'
p41
sg12
S'xx8b4e04a1663ced8bb6940fcba647029e'
p42
sg14
S'Mozilla/5.0 (Linux; Android 5.1.1; vivo V3Max A Build/LMY47V) AppleWebKit/537.36 (KHTML, like Gecko) Version/4.0 Chrome/37.0.0.0 Mobile MQQBrowser/6.8 TBS/036849 Safari/537.36 MicroMessenger/6.3.27.880 NetType/WIFI Language/zh_CN'
p43
sg16
S'ce7949b2e862f74e76a24aeb96e3994c'
p44
sa(dp45
g2
S'22297'
p46
sg4
S'2335'
p47
sg6
S'79b2b9904f23a9b5f103957129608106'
p48
sg8
S'xxfe284231fe5b40e0c027973c28cdcf61'
p49
sg10
S'xx75eb04d49442c6583b07d86e7db074ab'
p50
sg12
S'xx8b4e04a1663ced8bb6940fcba647029e'
p51
sg14
S'Mozilla/5.0 (Linux; Android 5.1.1; vivo V3Max A Build/LMY47V) AppleWebKit/537.36 (KHTML, like Gecko) Version/4.0 Chrome/37.0.0.0 Mobile MQQBrowser/6.8 TBS/036849 Safari/537.36 MicroMessenger/6.3.27.880 NetType/WIFI Language/zh_CN'
p52
sg16
S'ce7949b2e862f74e76a24aeb96e3994c'
p53
sa(dp54
g2
S'22297'
p55
sg4
S'2350'
p56
sg6
S'79b2b9904f23a9b5f103957129608106'
p57
sg8
S'xxfe284231fe5b40e0c027973c28cdcf61'
p58
sg10
S'xx75eb04d49442c6583b07d86e7db074ab'
p59
sg12
S'xx8b4e04a1663ced8bb6940fcba647029e'
p60
sg14
S'Mozilla/5.0 (Linux; Android 5.1.1; vivo V3Max A Build/LMY47V) AppleWebKit/537.36 (KHTML, like Gecko) Version/4.0 Chrome/37.0.0.0 Mobile MQQBrowser/6.8 TBS/036849 Safari/537.36 MicroMessenger/6.3.27.880 NetType/WIFI Language/zh_CN'
p61
sg16
S'ce7949b2e862f74e76a24aeb96e3994c'
p62
sa(dp63
g2
S'22297'
p64
sg4
S'2367'
p65
sg6
S'79b2b9904f23a9b5f103957129608106'
p66
sg8
S'xxfe284231fe5b40e0c027973c28cdcf61'
p67
sg10
S'xx75eb04d49442c6583b07d86e7db074ab'
p68
sg12
S'xx8b4e04a1663ced8bb6940fcba647029e'
p69
sg14
S'Mozilla/5.0 (Linux; Android 5.1.1; vivo V3Max A Build/LMY47V) AppleWebKit/537.36 (KHTML, like Gecko) Version/4.0 Chrome/37.0.0.0 Mobile MQQBrowser/6.8 TBS/036849 Safari/537.36 MicroMessenger/6.3.27.880 NetType/WIFI Language/zh_CN'
p70
sg16
S'ce7949b2e862f74e76a24aeb96e3994c'
p71
sa(dp72
g2
S'22297'
p73
sg4
S'2395'
p74
sg6
S'79b2b9904f23a9b5f103957129608106'
p75
sg8
S'xxfe284231fe5b40e0c027973c28cdcf61'
p76
sg10
S'xx75eb04d49442c6583b07d86e7db074ab'
p77
sg12
S'xx8b4e04a1663ced8bb6940fcba647029e'
p78
sg14
S'Mozilla/5.0 (Linux; Android 5.1.1; vivo V3Max A Build/LMY47V) AppleWebKit/537.36 (KHTML, like Gecko) Version/4.0 Chrome/37.0.0.0 Mobile MQQBrowser/6.8 TBS/036849 Safari/537.36 MicroMessenger/6.3.27.880 NetType/WIFI Language/zh_CN'
p79
sg16
S'ce7949b2e862f74e76a24aeb96e3994c'
p80
sa(dp81
g2
S'22297'
p82
sg4
S'2414'
p83
sg6
S'79b2b9904f23a9b5f103957129608106'
p84
sg8
S'xxfe284231fe5b40e0c027973c28cdcf61'
p85
sg10
S'xx75eb04d49442c6583b07d86e7db074ab'
p86
sg12
S'xx8b4e04a1663ced8bb6940fcba647029e'
p87
sg14
S'Mozilla/5.0 (Linux; Android 5.1.1; vivo V3Max A Build/LMY47V) AppleWebKit/537.36 (KHTML, like Gecko) Version/4.0 Chrome/37.0.0.0 Mobile MQQBrowser/6.8 TBS/036849 Safari/537.36 MicroMessenger/6.3.27.880 NetType/WIFI Language/zh_CN'
p88
sg16
S'ce7949b2e862f74e76a24aeb96e3994c'
p89
sa(dp90
g2
S'7875'
p91
sg4
S'2459'
p92
sg6
S'03058ff25b1b7f26625c3e6dad07f9c3'
p93
sg8
S'xxe30d1447a6b355e4eaae85b63ce7ba55'
p94
sg10
S'xx75eb04d49442c6583b07d86e7db074ab'
p95
sg12
S'xx8b4e04a1663ced8bb6940fcba647029e'
p96
sg14
S'Mozilla/5.0 (Linux; Android 5.1.1; vivo V3Max A Build/LMY47V) AppleWebKit/537.36 (KHTML, like Gecko) Version/4.0 Chrome/37.0.0.0 Mobile MQQBrowser/6.8 TBS/036860 Safari/537.36 MicroMessenger/6.3.27.880 NetType/WIFI Language/zh_CN'
p97
sg16
S'1f56a07d7f91a1441d7af1facbaeb813'
p98
sa(dp99
g2
S'7875'
p100
sg4
S'2483'
p101
sg6
S'03058ff25b1b7f26625c3e6dad07f9c3'
p102
sg8
S'xxe30d1447a6b355e4eaae85b63ce7ba55'
p103
sg10
S'xx75eb04d49442c6583b07d86e7db074ab'
p104
sg12
S'xx8b4e04a1663ced8bb6940fcba647029e'
p105
sg14
S'Mozilla/5.0 (Linux; Android 5.1.1; vivo V3Max A Build/LMY47V) AppleWebKit/537.36 (KHTML, like Gecko) Version/4.0 Chrome/37.0.0.0 Mobile MQQBrowser/6.8 TBS/036860 Safari/537.36 MicroMessenger/6.3.27.880 NetType/WIFI Language/zh_CN'
p106
sg16
S'1f56a07d7f91a1441d7af1facbaeb813'
p107
sa(dp108
g2
S'7875'
p109
sg4
S'2998'
p110
sg6
S'03058ff25b1b7f26625c3e6dad07f9c3'
p111
sg8
S'xxe30d1447a6b355e4eaae85b63ce7ba55'
p112
sg10
S'xx75eb04d49442c6583b07d86e7db074ab'
p113
sg12
S'xx8b4e04a1663ced8bb6940fcba647029e'
p114
sg14
S'Mozilla/5.0 (Linux; Android 5.1.1; vivo V3Max A Build/LMY47V) AppleWebKit/537.36 (KHTML, like Gecko) Version/4.0 Chrome/37.0.0.0 Mobile MQQBrowser/6.8 TBS/036860 Safari/537.36 MicroMessenger/6.3.27.880 NetType/WIFI Language/zh_CN'
p115
sg16
S'1f56a07d7f91a1441d7af1facbaeb813'
p116
sa(dp117
g2
S'7875'
p118
sg4
S'3012'
p119
sg6
S'03058ff25b1b7f26625c3e6dad07f9c3'
p120
sg8
S'xxe30d1447a6b355e4eaae85b63ce7ba55'
p121
sg10
S'xx75eb04d49442c6583b07d86e7db074ab'
p122
sg12
S'xx8b4e04a1663ced8bb6940fcba647029e'
p123
sg14
S'Mozilla/5.0 (Linux; Android 5.1.1; vivo V3Max A Build/LMY47V) AppleWebKit/537.36 (KHTML, like Gecko) Version/4.0 Chrome/37.0.0.0 Mobile MQQBrowser/6.8 TBS/036860 Safari/537.36 MicroMessenger/6.3.27.880 NetType/WIFI Language/zh_CN'
p124
sg16
S'1f56a07d7f91a1441d7af1facbaeb813'
p125
sa(dp126
g2
S'7875'
p127
sg4
S'3046'
p128
sg6
S'03058ff25b1b7f26625c3e6dad07f9c3'
p129
sg8
S'xxe30d1447a6b355e4eaae85b63ce7ba55'
p130
sg10
S'xx75eb04d49442c6583b07d86e7db074ab'
p131
sg12
S'xx8b4e04a1663ced8bb6940fcba647029e'
p132
sg14
S'Mozilla/5.0 (Linux; Android 5.1.1; vivo V3Max A Build/LMY47V) AppleWebKit/537.36 (KHTML, like Gecko) Version/4.0 Chrome/37.0.0.0 Mobile MQQBrowser/6.8 TBS/036860 Safari/537.36 MicroMessenger/6.3.27.880 NetType/WIFI Language/zh_CN'
p133
sg16
S'1f56a07d7f91a1441d7af1facbaeb813'
p134
sa(dp135
g2
S'7875'
p136
sg4
S'3066'
p137
sg6
S'03058ff25b1b7f26625c3e6dad07f9c3'
p138
sg8
S'xxe30d1447a6b355e4eaae85b63ce7ba55'
p139
sg10
S'xx75eb04d49442c6583b07d86e7db074ab'
p140
sg12
S'xx8b4e04a1663ced8bb6940fcba647029e'
p141
sg14
S'Mozilla/5.0 (Linux; Android 5.1.1; vivo V3Max A Build/LMY47V) AppleWebKit/537.36 (KHTML, like Gecko) Version/4.0 Chrome/37.0.0.0 Mobile MQQBrowser/6.8 TBS/036860 Safari/537.36 MicroMessenger/6.3.27.880 NetType/WIFI Language/zh_CN'
p142
sg16
S'1f56a07d7f91a1441d7af1facbaeb813'
p143
sa(dp144
g2
S'22297'
p145
sg4
S'3073'
p146
sg6
S'89ebbefd23c37f28464dcaaefac18b25'
p147
sg8
S'xxfe284231fe5b40e0c027973c28cdcf61'
p148
sg10
S'xx75eb04d49442c6583b07d86e7db074ab'
p149
sg12
S'xx8b4e04a1663ced8bb6940fcba647029e'
p150
sg14
S'Mozilla/5.0 (Linux; Android 5.1.1; vivo V3Max A Build/LMY47V) AppleWebKit/537.36 (KHTML, like Gecko) Version/4.0 Chrome/37.0.0.0 Mobile MQQBrowser/6.8 TBS/036849 Safari/537.36 MicroMessenger/6.3.27.880 NetType/WIFI Language/zh_CN'
p151
sg16
S'ce7949b2e862f74e76a24aeb96e3994c'
p152
sa(dp153
g2
S'22297'
p154
sg4
S'3090'
p155
sg6
S'89ebbefd23c37f28464dcaaefac18b25'
p156
sg8
S'xxfe284231fe5b40e0c027973c28cdcf61'
p157
sg10
S'xx75eb04d49442c6583b07d86e7db074ab'
p158
sg12
S'xx8b4e04a1663ced8bb6940fcba647029e'
p159
sg14
S'Mozilla/5.0 (Linux; Android 5.1.1; vivo V3Max A Build/LMY47V) AppleWebKit/537.36 (KHTML, like Gecko) Version/4.0 Chrome/37.0.0.0 Mobile MQQBrowser/6.8 TBS/036849 Safari/537.36 MicroMessenger/6.3.27.880 NetType/WIFI Language/zh_CN'
p160
sg16
S'ce7949b2e862f74e76a24aeb96e3994c'
p161
sa(dp162
g2
S'22297'
p163
sg4
S'3106'
p164
sg6
S'89ebbefd23c37f28464dcaaefac18b25'
p165
sg8
S'xxfe284231fe5b40e0c027973c28cdcf61'
p166
sg10
S'xx75eb04d49442c6583b07d86e7db074ab'
p167
sg12
S'xx8b4e04a1663ced8bb6940fcba647029e'
p168
sg14
S'Mozilla/5.0 (Linux; Android 5.1.1; vivo V3Max A Build/LMY47V) AppleWebKit/537.36 (KHTML, like Gecko) Version/4.0 Chrome/37.0.0.0 Mobile MQQBrowser/6.8 TBS/036849 Safari/537.36 MicroMessenger/6.3.27.880 NetType/WIFI Language/zh_CN'
p169
sg16
S'ce7949b2e862f74e76a24aeb96e3994c'
p170
sa(dp171
g2
S'7875'
p172
sg4
S'3119'
p173
sg6
S'03058ff25b1b7f26625c3e6dad07f9c3'
p174
sg8
S'xxe30d1447a6b355e4eaae85b63ce7ba55'
p175
sg10
S'xx75eb04d49442c6583b07d86e7db074ab'
p176
sg12
S'xx8b4e04a1663ced8bb6940fcba647029e'
p177
sg14
S'Mozilla/5.0 (Linux; Android 5.1.1; vivo V3Max A Build/LMY47V) AppleWebKit/537.36 (KHTML, like Gecko) Version/4.0 Chrome/37.0.0.0 Mobile MQQBrowser/6.8 TBS/036860 Safari/537.36 MicroMessenger/6.3.27.880 NetType/WIFI Language/zh_CN'
p178
sg16
S'1f56a07d7f91a1441d7af1facbaeb813'
p179
sa(dp180
g2
S'7875'
p181
sg4
S'3137'
p182
sg6
S'03058ff25b1b7f26625c3e6dad07f9c3'
p183
sg8
S'xxe30d1447a6b355e4eaae85b63ce7ba55'
p184
sg10
S'xx75eb04d49442c6583b07d86e7db074ab'
p185
sg12
S'xx8b4e04a1663ced8bb6940fcba647029e'
p186
sg14
S'Mozilla/5.0 (Linux; Android 5.1.1; vivo V3Max A Build/LMY47V) AppleWebKit/537.36 (KHTML, like Gecko) Version/4.0 Chrome/37.0.0.0 Mobile MQQBrowser/6.8 TBS/036860 Safari/537.36 MicroMessenger/6.3.27.880 NetType/WIFI Language/zh_CN'
p187
sg16
S'1f56a07d7f91a1441d7af1facbaeb813'
p188
sa(dp189
g2
S'22297'
p190
sg4
S'3519'
p191
sg6
S'89ebbefd23c37f28464dcaaefac18b25'
p192
sg8
S'xxfe284231fe5b40e0c027973c28cdcf61'
p193
sg10
S'xx75eb04d49442c6583b07d86e7db074ab'
p194
sg12
S'xx8b4e04a1663ced8bb6940fcba647029e'
p195
sg14
S'Mozilla/5.0 (Linux; Android 5.1.1; vivo V3Max A Build/LMY47V) AppleWebKit/537.36 (KHTML, like Gecko) Version/4.0 Chrome/37.0.0.0 Mobile MQQBrowser/6.8 TBS/036849 Safari/537.36 MicroMessenger/6.3.27.880 NetType/WIFI Language/zh_CN'
p196
sg16
S'ce7949b2e862f74e76a24aeb96e3994c'
p197
sa(dp198
g2
S'22297'
p199
sg4
S'3529'
p200
sg6
S'89ebbefd23c37f28464dcaaefac18b25'
p201
sg8
S'xxfe284231fe5b40e0c027973c28cdcf61'
p202
sg10
S'xx75eb04d49442c6583b07d86e7db074ab'
p203
sg12
S'xx8b4e04a1663ced8bb6940fcba647029e'
p204
sg14
S'Mozilla/5.0 (Linux; Android 5.1.1; vivo V3Max A Build/LMY47V) AppleWebKit/537.36 (KHTML, like Gecko) Version/4.0 Chrome/37.0.0.0 Mobile MQQBrowser/6.8 TBS/036849 Safari/537.36 MicroMessenger/6.3.27.880 NetType/WIFI Language/zh_CN'
p205
sg16
S'ce7949b2e862f74e76a24aeb96e3994c'
p206
sa(dp207
g2
S'22297'
p208
sg4
S'3539'
p209
sg6
S'89ebbefd23c37f28464dcaaefac18b25'
p210
sg8
S'xxfe284231fe5b40e0c027973c28cdcf61'
p211
sg10
S'xx75eb04d49442c6583b07d86e7db074ab'
p212
sg12
S'xx8b4e04a1663ced8bb6940fcba647029e'
p213
sg14
S'Mozilla/5.0 (Linux; Android 5.1.1; vivo V3Max A Build/LMY47V) AppleWebKit/537.36 (KHTML, like Gecko) Version/4.0 Chrome/37.0.0.0 Mobile MQQBrowser/6.8 TBS/036849 Safari/537.36 MicroMessenger/6.3.27.880 NetType/WIFI Language/zh_CN'
p214
sg16
S'ce7949b2e862f74e76a24aeb96e3994c'
p215
sa(dp216
g2
S'22297'
p217
sg4
S'3549'
p218
sg6
S'89ebbefd23c37f28464dcaaefac18b25'
p219
sg8
S'xxfe284231fe5b40e0c027973c28cdcf61'
p220
sg10
S'xx75eb04d49442c6583b07d86e7db074ab'
p221
sg12
S'xx8b4e04a1663ced8bb6940fcba647029e'
p222
sg14
S'Mozilla/5.0 (Linux; Android 5.1.1; vivo V3Max A Build/LMY47V) AppleWebKit/537.36 (KHTML, like Gecko) Version/4.0 Chrome/37.0.0.0 Mobile MQQBrowser/6.8 TBS/036849 Safari/537.36 MicroMessenger/6.3.27.880 NetType/WIFI Language/zh_CN'
p223
sg16
S'ce7949b2e862f74e76a24aeb96e3994c'
p224
sa(dp225
g2
S'22297'
p226
sg4
S'3614'
p227
sg6
S'89ebbefd23c37f28464dcaaefac18b25'
p228
sg8
S'xxfe284231fe5b40e0c027973c28cdcf61'
p229
sg10
S'xx75eb04d49442c6583b07d86e7db074ab'
p230
sg12
S'xx8b4e04a1663ced8bb6940fcba647029e'
p231
sg14
S'Mozilla/5.0 (Linux; Android 5.1.1; vivo V3Max A Build/LMY47V) AppleWebKit/537.36 (KHTML, like Gecko) Version/4.0 Chrome/37.0.0.0 Mobile MQQBrowser/6.8 TBS/036849 Safari/537.36 MicroMessenger/6.3.27.880 NetType/WIFI Language/zh_CN'
p232
sg16
S'ce7949b2e862f74e76a24aeb96e3994c'
p233
sa(dp234
g2
S'22297'
p235
sg4
S'3630'
p236
sg6
S'89ebbefd23c37f28464dcaaefac18b25'
p237
sg8
S'xxfe284231fe5b40e0c027973c28cdcf61'
p238
sg10
S'xx75eb04d49442c6583b07d86e7db074ab'
p239
sg12
S'xx8b4e04a1663ced8bb6940fcba647029e'
p240
sg14
S'Mozilla/5.0 (Linux; Android 5.1.1; vivo V3Max A Build/LMY47V) AppleWebKit/537.36 (KHTML, like Gecko) Version/4.0 Chrome/37.0.0.0 Mobile MQQBrowser/6.8 TBS/036849 Safari/537.36 MicroMessenger/6.3.27.880 NetType/WIFI Language/zh_CN'
p241
sg16
S'ce7949b2e862f74e76a24aeb96e3994c'
p242
sa(dp243
g2
S'7875'
p244
sg4
S'3761'
p245
sg6
S'b64d15794d0f4c5248a4506e1f89b036'
p246
sg8
S'xx5effbd67852964c1a603dd73064a63e1'
p247
sg10
S'xx75eb04d49442c6583b07d86e7db074ab'
p248
sg12
S'xx8b4e04a1663ced8bb6940fcba647029e'
p249
sg14
S'Mozilla/5.0 (Linux; Android 5.1.1; vivo V3Max A Build/LMY47V) AppleWebKit/537.36 (KHTML, like Gecko) Version/4.0 Chrome/37.0.0.0 Mobile MQQBrowser/6.8 TBS/036860 Safari/537.36 MicroMessenger/6.3.27.880 NetType/NON_NETWORK Language/zh_CN'
p250
sg16
S'c07ede84e1c34400dad662bec7d9c70f'
p251
sa(dp252
g2
S'7875'
p253
sg4
S'3780'
p254
sg6
S'b64d15794d0f4c5248a4506e1f89b036'
p255
sg8
S'xx5effbd67852964c1a603dd73064a63e1'
p256
sg10
S'xx75eb04d49442c6583b07d86e7db074ab'
p257
sg12
S'xx8b4e04a1663ced8bb6940fcba647029e'
p258
sg14
S'Mozilla/5.0 (Linux; Android 5.1.1; vivo V3Max A Build/LMY47V) AppleWebKit/537.36 (KHTML, like Gecko) Version/4.0 Chrome/37.0.0.0 Mobile MQQBrowser/6.8 TBS/036860 Safari/537.36 MicroMessenger/6.3.27.880 NetType/NON_NETWORK Language/zh_CN'
p259
sg16
S'c07ede84e1c34400dad662bec7d9c70f'
p260
sa(dp261
g2
S'9906'
p262
sg4
S'4200'
p263
sg6
S'd9a129aae9d3ca40799d8d74ec17ce48'
p264
sg8
S'xxfe284231fe5b40e0c027973c28cdcf61'
p265
sg10
S'xx75eb04d49442c6583b07d86e7db074ab'
p266
sg12
S'xx8b4e04a1663ced8bb6940fcba647029e'
p267
sg14
S'Mozilla/5.0 (Linux; Android 5.1.1; vivo V3Max A Build/LMY47V) AppleWebKit/537.36 (KHTML, like Gecko) Version/4.0 Chrome/37.0.0.0 Mobile MQQBrowser/6.8 TBS/036849 Safari/537.36 MicroMessenger/6.3.27.880 NetType/WIFI Language/zh_CN'
p268
sg16
S'ce7949b2e862f74e76a24aeb96e3994c'
p269
sa(dp270
g2
S'22297'
p271
sg4
S'4211'
p272
sg6
S'89ebbefd23c37f28464dcaaefac18b25'
p273
sg8
S'xxfe284231fe5b40e0c027973c28cdcf61'
p274
sg10
S'xx75eb04d49442c6583b07d86e7db074ab'
p275
sg12
S'xx8b4e04a1663ced8bb6940fcba647029e'
p276
sg14
S'Mozilla/5.0 (Linux; Android 5.1.1; vivo V3Max A Build/LMY47V) AppleWebKit/537.36 (KHTML, like Gecko) Version/4.0 Chrome/37.0.0.0 Mobile MQQBrowser/6.8 TBS/036849 Safari/537.36 MicroMessenger/6.3.27.880 NetType/WIFI Language/zh_CN'
p277
sg16
S'ce7949b2e862f74e76a24aeb96e3994c'
p278
sa(dp279
g2
S'9906'
p280
sg4
S'4221'
p281
sg6
S'd9a129aae9d3ca40799d8d74ec17ce48'
p282
sg8
S'xxfe284231fe5b40e0c027973c28cdcf61'
p283
sg10
S'xx75eb04d49442c6583b07d86e7db074ab'
p284
sg12
S'xx8b4e04a1663ced8bb6940fcba647029e'
p285
sg14
S'Mozilla/5.0 (Linux; Android 5.1.1; vivo V3Max A Build/LMY47V) AppleWebKit/537.36 (KHTML, like Gecko) Version/4.0 Chrome/37.0.0.0 Mobile MQQBrowser/6.8 TBS/036849 Safari/537.36 MicroMessenger/6.3.27.880 NetType/WIFI Language/zh_CN'
p286
sg16
S'ce7949b2e862f74e76a24aeb96e3994c'
p287
sa(dp288
g2
S'22297'
p289
sg4
S'4229'
p290
sg6
S'89ebbefd23c37f28464dcaaefac18b25'
p291
sg8
S'xxfe284231fe5b40e0c027973c28cdcf61'
p292
sg10
S'xx75eb04d49442c6583b07d86e7db074ab'
p293
sg12
S'xx8b4e04a1663ced8bb6940fcba647029e'
p294
sg14
S'Mozilla/5.0 (Linux; Android 5.1.1; vivo V3Max A Build/LMY47V) AppleWebKit/537.36 (KHTML, like Gecko) Version/4.0 Chrome/37.0.0.0 Mobile MQQBrowser/6.8 TBS/036849 Safari/537.36 MicroMessenger/6.3.27.880 NetType/WIFI Language/zh_CN'
p295
sg16
S'ce7949b2e862f74e76a24aeb96e3994c'
p296
sa(dp297
g2
S'22297'
p298
sg4
S'4252'
p299
sg6
S'89ebbefd23c37f28464dcaaefac18b25'
p300
sg8
S'xxfe284231fe5b40e0c027973c28cdcf61'
p301
sg10
S'xx75eb04d49442c6583b07d86e7db074ab'
p302
sg12
S'xx8b4e04a1663ced8bb6940fcba647029e'
p303
sg14
S'Mozilla/5.0 (Linux; Android 5.1.1; vivo V3Max A Build/LMY47V) AppleWebKit/537.36 (KHTML, like Gecko) Version/4.0 Chrome/37.0.0.0 Mobile MQQBrowser/6.8 TBS/036849 Safari/537.36 MicroMessenger/6.3.27.880 NetType/WIFI Language/zh_CN'
p304
sg16
S'ce7949b2e862f74e76a24aeb96e3994c'
p305
sa(dp306
g2
S'9906'
p307
sg4
S'4270'
p308
sg6
S'd9a129aae9d3ca40799d8d74ec17ce48'
p309
sg8
S'xxfe284231fe5b40e0c027973c28cdcf61'
p310
sg10
S'xx75eb04d49442c6583b07d86e7db074ab'
p311
sg12
S'xx8b4e04a1663ced8bb6940fcba647029e'
p312
sg14
S'Mozilla/5.0 (Linux; Android 5.1.1; vivo V3Max A Build/LMY47V) AppleWebKit/537.36 (KHTML, like Gecko) Version/4.0 Chrome/37.0.0.0 Mobile MQQBrowser/6.8 TBS/036849 Safari/537.36 MicroMessenger/6.3.27.880 NetType/WIFI Language/zh_CN'
p313
sg16
S'ce7949b2e862f74e76a24aeb96e3994c'
p314
sa(dp315
g2
S'22297'
p316
sg4
S'4276'
p317
sg6
S'89ebbefd23c37f28464dcaaefac18b25'
p318
sg8
S'xxfe284231fe5b40e0c027973c28cdcf61'
p319
sg10
S'xx75eb04d49442c6583b07d86e7db074ab'
p320
sg12
S'xx8b4e04a1663ced8bb6940fcba647029e'
p321
sg14
S'Mozilla/5.0 (Linux; Android 5.1.1; vivo V3Max A Build/LMY47V) AppleWebKit/537.36 (KHTML, like Gecko) Version/4.0 Chrome/37.0.0.0 Mobile MQQBrowser/6.8 TBS/036849 Safari/537.36 MicroMessenger/6.3.27.880 NetType/WIFI Language/zh_CN'
p322
sg16
S'ce7949b2e862f74e76a24aeb96e3994c'
p323
sa(dp324
g2
S'9906'
p325
sg4
S'4291'
p326
sg6
S'd9a129aae9d3ca40799d8d74ec17ce48'
p327
sg8
S'xxfe284231fe5b40e0c027973c28cdcf61'
p328
sg10
S'xx75eb04d49442c6583b07d86e7db074ab'
p329
sg12
S'xx8b4e04a1663ced8bb6940fcba647029e'
p330
sg14
S'Mozilla/5.0 (Linux; Android 5.1.1; vivo V3Max A Build/LMY47V) AppleWebKit/537.36 (KHTML, like Gecko) Version/4.0 Chrome/37.0.0.0 Mobile MQQBrowser/6.8 TBS/036849 Safari/537.36 MicroMessenger/6.3.27.880 NetType/WIFI Language/zh_CN'
p331
sg16
S'ce7949b2e862f74e76a24aeb96e3994c'
p332
sa(dp333
g2
S'22297'
p334
sg4
S'4296'
p335
sg6
S'89ebbefd23c37f28464dcaaefac18b25'
p336
sg8
S'xxfe284231fe5b40e0c027973c28cdcf61'
p337
sg10
S'xx75eb04d49442c6583b07d86e7db074ab'
p338
sg12
S'xx8b4e04a1663ced8bb6940fcba647029e'
p339
sg14
S'Mozilla/5.0 (Linux; Android 5.1.1; vivo V3Max A Build/LMY47V) AppleWebKit/537.36 (KHTML, like Gecko) Version/4.0 Chrome/37.0.0.0 Mobile MQQBrowser/6.8 TBS/036849 Safari/537.36 MicroMessenger/6.3.27.880 NetType/WIFI Language/zh_CN'
p340
sg16
S'ce7949b2e862f74e76a24aeb96e3994c'
p341
sa(dp342
g2
S'22297'
p343
sg4
S'4310'
p344
sg6
S'89ebbefd23c37f28464dcaaefac18b25'
p345
sg8
S'xxfe284231fe5b40e0c027973c28cdcf61'
p346
sg10
S'xx75eb04d49442c6583b07d86e7db074ab'
p347
sg12
S'xx8b4e04a1663ced8bb6940fcba647029e'
p348
sg14
S'Mozilla/5.0 (Linux; Android 5.1.1; vivo V3Max A Build/LMY47V) AppleWebKit/537.36 (KHTML, like Gecko) Version/4.0 Chrome/37.0.0.0 Mobile MQQBrowser/6.8 TBS/036849 Safari/537.36 MicroMessenger/6.3.27.880 NetType/WIFI Language/zh_CN'
p349
sg16
S'ce7949b2e862f74e76a24aeb96e3994c'
p350
sa(dp351
g2
S'22297'
p352
sg4
S'4323'
p353
sg6
S'89ebbefd23c37f28464dcaaefac18b25'
p354
sg8
S'xxfe284231fe5b40e0c027973c28cdcf61'
p355
sg10
S'xx75eb04d49442c6583b07d86e7db074ab'
p356
sg12
S'xx8b4e04a1663ced8bb6940fcba647029e'
p357
sg14
S'Mozilla/5.0 (Linux; Android 5.1.1; vivo V3Max A Build/LMY47V) AppleWebKit/537.36 (KHTML, like Gecko) Version/4.0 Chrome/37.0.0.0 Mobile MQQBrowser/6.8 TBS/036849 Safari/537.36 MicroMessenger/6.3.27.880 NetType/WIFI Language/zh_CN'
p358
sg16
S'ce7949b2e862f74e76a24aeb96e3994c'
p359
sa(dp360
g2
S'9906'
p361
sg4
S'4345'
p362
sg6
S'd9a129aae9d3ca40799d8d74ec17ce48'
p363
sg8
S'xxfe284231fe5b40e0c027973c28cdcf61'
p364
sg10
S'xx75eb04d49442c6583b07d86e7db074ab'
p365
sg12
S'xx8b4e04a1663ced8bb6940fcba647029e'
p366
sg14
S'Mozilla/5.0 (Linux; Android 5.1.1; vivo V3Max A Build/LMY47V) AppleWebKit/537.36 (KHTML, like Gecko) Version/4.0 Chrome/37.0.0.0 Mobile MQQBrowser/6.8 TBS/036849 Safari/537.36 MicroMessenger/6.3.27.880 NetType/WIFI Language/zh_CN'
p367
sg16
S'ce7949b2e862f74e76a24aeb96e3994c'
p368
sa(dp369
g2
S'22297'
p370
sg4
S'6001'
p371
sg6
S'89ebbefd23c37f28464dcaaefac18b25'
p372
sg8
S'xxfe284231fe5b40e0c027973c28cdcf61'
p373
sg10
S'xx75eb04d49442c6583b07d86e7db074ab'
p374
sg12
S'xx8b4e04a1663ced8bb6940fcba647029e'
p375
sg14
S'Mozilla/5.0 (Linux; Android 5.1.1; vivo V3Max A Build/LMY47V) AppleWebKit/537.36 (KHTML, like Gecko) Version/4.0 Chrome/37.0.0.0 Mobile MQQBrowser/6.8 TBS/036849 Safari/537.36 MicroMessenger/6.3.27.880 NetType/WIFI Language/zh_CN'
p376
sg16
S'ce7949b2e862f74e76a24aeb96e3994c'
p377
sa(dp378
g2
S'22297'
p379
sg4
S'6014'
p380
sg6
S'89ebbefd23c37f28464dcaaefac18b25'
p381
sg8
S'xxfe284231fe5b40e0c027973c28cdcf61'
p382
sg10
S'xx75eb04d49442c6583b07d86e7db074ab'
p383
sg12
S'xx8b4e04a1663ced8bb6940fcba647029e'
p384
sg14
S'Mozilla/5.0 (Linux; Android 5.1.1; vivo V3Max A Build/LMY47V) AppleWebKit/537.36 (KHTML, like Gecko) Version/4.0 Chrome/37.0.0.0 Mobile MQQBrowser/6.8 TBS/036849 Safari/537.36 MicroMessenger/6.3.27.880 NetType/WIFI Language/zh_CN'
p385
sg16
S'ce7949b2e862f74e76a24aeb96e3994c'
p386
sa(dp387
g2
S'22297'
p388
sg4
S'6883'
p389
sg6
S'89ebbefd23c37f28464dcaaefac18b25'
p390
sg8
S'xxfe284231fe5b40e0c027973c28cdcf61'
p391
sg10
S'xx75eb04d49442c6583b07d86e7db074ab'
p392
sg12
S'xx8b4e04a1663ced8bb6940fcba647029e'
p393
sg14
S'Mozilla/5.0 (Linux; Android 5.1.1; vivo V3Max A Build/LMY47V) AppleWebKit/537.36 (KHTML, like Gecko) Version/4.0 Chrome/37.0.0.0 Mobile MQQBrowser/6.8 TBS/036849 Safari/537.36 MicroMessenger/6.3.27.880 NetType/WIFI Language/zh_CN'
p394
sg16
S'ce7949b2e862f74e76a24aeb96e3994c'
p395
sa(dp396
g2
S'22297'
p397
sg4
S'6898'
p398
sg6
S'89ebbefd23c37f28464dcaaefac18b25'
p399
sg8
S'xxfe284231fe5b40e0c027973c28cdcf61'
p400
sg10
S'xx75eb04d49442c6583b07d86e7db074ab'
p401
sg12
S'xx8b4e04a1663ced8bb6940fcba647029e'
p402
sg14
S'Mozilla/5.0 (Linux; Android 5.1.1; vivo V3Max A Build/LMY47V) AppleWebKit/537.36 (KHTML, like Gecko) Version/4.0 Chrome/37.0.0.0 Mobile MQQBrowser/6.8 TBS/036849 Safari/537.36 MicroMessenger/6.3.27.880 NetType/WIFI Language/zh_CN'
p403
sg16
S'ce7949b2e862f74e76a24aeb96e3994c'
p404
sa(dp405
g2
S'40364'
p406
sg4
S'6908'
p407
sg6
S'b4aec7ad67f4a7ec2753f6d557a9e9fe'
p408
sg8
S'xx14a1c4469666cf5f791dca8f8e1a3817'
p409
sg10
S'xx75eb04d49442c6583b07d86e7db074ab'
p410
sg12
S'xx8b4e04a1663ced8bb6940fcba647029e'
p411
sg14
S'Mozilla/5.0 (Linux; Android 5.1.1; vivo V3Max A Build/LMY47V) AppleWebKit/537.36 (KHTML, like Gecko) Version/4.0 Chrome/37.0.0.0 Mobile MQQBrowser/6.8 TBS/036849 Safari/537.36 MicroMessenger/6.3.27.880 NetType/cmnet Language/zh_CN'
p412
sg16
S'78e3fd4b68a9f540b7d27857083b0d9b'
p413
sa(dp414
g2
S'40364'
p415
sg4
S'6924'
p416
sg6
S'b4aec7ad67f4a7ec2753f6d557a9e9fe'
p417
sg8
S'xx14a1c4469666cf5f791dca8f8e1a3817'
p418
sg10
S'xx75eb04d49442c6583b07d86e7db074ab'
p419
sg12
S'xx8b4e04a1663ced8bb6940fcba647029e'
p420
sg14
S'Mozilla/5.0 (Linux; Android 5.1.1; vivo V3Max A Build/LMY47V) AppleWebKit/537.36 (KHTML, like Gecko) Version/4.0 Chrome/37.0.0.0 Mobile MQQBrowser/6.8 TBS/036849 Safari/537.36 MicroMessenger/6.3.27.880 NetType/cmnet Language/zh_CN'
p421
sg16
S'78e3fd4b68a9f540b7d27857083b0d9b'
p422
sa(dp423
g2
S'49838'
p424
sg4
S'7610'
p425
sg6
S'cdf02256edfac43f2cb62279c64d3465'
p426
sg8
S'xxe456fbb509f0505cb8295440f4b6e341'
p427
sg10
S'xx3d80f66db1f321a9fad7042b895304ef'
p428
sg12
S'xx8b4e04a1663ced8bb6940fcba647029e'
p429
sg14
S'Mozilla/5.0 (Linux; Android 5.1.1; vivo V3Max A Build/LMY47V) AppleWebKit/537.36 (KHTML, like Gecko) Version/4.0 Chrome/37.0.0.0 Mobile MQQBrowser/6.8 TBS/036849 Safari/537.36 MicroMessenger/6.3.27.880 NetType/cmnet Language/zh_CN'
p430
sg16
S'78e3fd4b68a9f540b7d27857083b0d9b'
p431
sa(dp432
g2
S'49838'
p433
sg4
S'7625'
p434
sg6
S'cdf02256edfac43f2cb62279c64d3465'
p435
sg8
S'xxe456fbb509f0505cb8295440f4b6e341'
p436
sg10
S'xx3d80f66db1f321a9fad7042b895304ef'
p437
sg12
S'xx8b4e04a1663ced8bb6940fcba647029e'
p438
sg14
S'Mozilla/5.0 (Linux; Android 5.1.1; vivo V3Max A Build/LMY47V) AppleWebKit/537.36 (KHTML, like Gecko) Version/4.0 Chrome/37.0.0.0 Mobile MQQBrowser/6.8 TBS/036849 Safari/537.36 MicroMessenger/6.3.27.880 NetType/cmnet Language/zh_CN'
p439
sg16
S'78e3fd4b68a9f540b7d27857083b0d9b'
p440
sa(dp441
g2
S'49838'
p442
sg4
S'7636'
p443
sg6
S'cdf02256edfac43f2cb62279c64d3465'
p444
sg8
S'xxe456fbb509f0505cb8295440f4b6e341'
p445
sg10
S'xx3d80f66db1f321a9fad7042b895304ef'
p446
sg12
S'xx8b4e04a1663ced8bb6940fcba647029e'
p447
sg14
S'Mozilla/5.0 (Linux; Android 5.1.1; vivo V3Max A Build/LMY47V) AppleWebKit/537.36 (KHTML, like Gecko) Version/4.0 Chrome/37.0.0.0 Mobile MQQBrowser/6.8 TBS/036849 Safari/537.36 MicroMessenger/6.3.27.880 NetType/cmnet Language/zh_CN'
p448
sg16
S'78e3fd4b68a9f540b7d27857083b0d9b'
p449
sa(dp450
g2
S'22297'
p451
sg4
S'7760'
p452
sg6
S'89ebbefd23c37f28464dcaaefac18b25'
p453
sg8
S'xxfe284231fe5b40e0c027973c28cdcf61'
p454
sg10
S'xx75eb04d49442c6583b07d86e7db074ab'
p455
sg12
S'xx8b4e04a1663ced8bb6940fcba647029e'
p456
sg14
S'Mozilla/5.0 (Linux; Android 5.1.1; vivo V3Max A Build/LMY47V) AppleWebKit/537.36 (KHTML, like Gecko) Version/4.0 Chrome/37.0.0.0 Mobile MQQBrowser/6.8 TBS/036849 Safari/537.36 MicroMessenger/6.3.27.880 NetType/WIFI Language/zh_CN'
p457
sg16
S'ce7949b2e862f74e76a24aeb96e3994c'
p458
sa(dp459
g2
S'22297'
p460
sg4
S'7774'
p461
sg6
S'89ebbefd23c37f28464dcaaefac18b25'
p462
sg8
S'xxfe284231fe5b40e0c027973c28cdcf61'
p463
sg10
S'xx75eb04d49442c6583b07d86e7db074ab'
p464
sg12
S'xx8b4e04a1663ced8bb6940fcba647029e'
p465
sg14
S'Mozilla/5.0 (Linux; Android 5.1.1; vivo V3Max A Build/LMY47V) AppleWebKit/537.36 (KHTML, like Gecko) Version/4.0 Chrome/37.0.0.0 Mobile MQQBrowser/6.8 TBS/036849 Safari/537.36 MicroMessenger/6.3.27.880 NetType/WIFI Language/zh_CN'
p466
sg16
S'ce7949b2e862f74e76a24aeb96e3994c'
p467
sa(dp468
g2
S'22297'
p469
sg4
S'8384'
p470
sg6
S'89ebbefd23c37f28464dcaaefac18b25'
p471
sg8
S'xxfe284231fe5b40e0c027973c28cdcf61'
p472
sg10
S'xx75eb04d49442c6583b07d86e7db074ab'
p473
sg12
S'xx8b4e04a1663ced8bb6940fcba647029e'
p474
sg14
S'Mozilla/5.0 (Linux; Android 5.1.1; vivo V3Max A Build/LMY47V) AppleWebKit/537.36 (KHTML, like Gecko) Version/4.0 Chrome/37.0.0.0 Mobile MQQBrowser/6.8 TBS/036849 Safari/537.36 MicroMessenger/6.3.27.880 NetType/WIFI Language/zh_CN'
p475
sg16
S'ce7949b2e862f74e76a24aeb96e3994c'
p476
sa(dp477
g2
S'22297'
p478
sg4
S'8402'
p479
sg6
S'89ebbefd23c37f28464dcaaefac18b25'
p480
sg8
S'xxfe284231fe5b40e0c027973c28cdcf61'
p481
sg10
S'xx75eb04d49442c6583b07d86e7db074ab'
p482
sg12
S'xx8b4e04a1663ced8bb6940fcba647029e'
p483
sg14
S'Mozilla/5.0 (Linux; Android 5.1.1; vivo V3Max A Build/LMY47V) AppleWebKit/537.36 (KHTML, like Gecko) Version/4.0 Chrome/37.0.0.0 Mobile MQQBrowser/6.8 TBS/036849 Safari/537.36 MicroMessenger/6.3.27.880 NetType/WIFI Language/zh_CN'
p484
sg16
S'ce7949b2e862f74e76a24aeb96e3994c'
p485
sa.