(lp0
(dp1
S'user_id'
p2
S'22591'
p3
sS'data_id'
p4
S'2238'
p5
sS'ip'
p6
S'de161ba68845e1b1001b9bc4f8e67269'
p7
sS'phone_B'
p8
S'xxbabeb16cb8bff377a0b7096ebf9e8201'
p9
sS'phone_C'
p10
S'xx47c34ff307c90a22bbdc3a4dbe3d8d1f'
p11
sS'phone_A'
p12
S'xx8b9a3715c35492b06c56d919a5e1d098'
p13
sS'user_agent'
p14
S'Mozilla/5.0 (Linux; Android 4.4.4; F8909 Build/KTU84P) AppleWebKit/537.36 (KHTML, like Gecko) Version/4.0 Chrome/37.0.0.0 Mobile MQQBrowser/6.8 TBS/036849 Safari/537.36 MicroMessenger/6.3.27.880 NetType/ctlte Language/zh_CN'
p15
sS'ua'
p16
S'7054c9705c27c5629b95d1520406858d'
p17
sa(dp18
g2
S'22591'
p19
sg4
S'2255'
p20
sg6
S'de161ba68845e1b1001b9bc4f8e67269'
p21
sg8
S'xxbabeb16cb8bff377a0b7096ebf9e8201'
p22
sg10
S'xx47c34ff307c90a22bbdc3a4dbe3d8d1f'
p23
sg12
S'xx8b9a3715c35492b06c56d919a5e1d098'
p24
sg14
S'Mozilla/5.0 (Linux; Android 4.4.4; F8909 Build/KTU84P) AppleWebKit/537.36 (KHTML, like Gecko) Version/4.0 Chrome/37.0.0.0 Mobile MQQBrowser/6.8 TBS/036849 Safari/537.36 MicroMessenger/6.3.27.880 NetType/ctlte Language/zh_CN'
p25
sg16
S'7054c9705c27c5629b95d1520406858d'
p26
sa(dp27
g2
S'22591'
p28
sg4
S'2268'
p29
sg6
S'de161ba68845e1b1001b9bc4f8e67269'
p30
sg8
S'xxbabeb16cb8bff377a0b7096ebf9e8201'
p31
sg10
S'xx47c34ff307c90a22bbdc3a4dbe3d8d1f'
p32
sg12
S'xx8b9a3715c35492b06c56d919a5e1d098'
p33
sg14
S'Mozilla/5.0 (Linux; Android 4.4.4; F8909 Build/KTU84P) AppleWebKit/537.36 (KHTML, like Gecko) Version/4.0 Chrome/37.0.0.0 Mobile MQQBrowser/6.8 TBS/036849 Safari/537.36 MicroMessenger/6.3.27.880 NetType/ctlte Language/zh_CN'
p34
sg16
S'7054c9705c27c5629b95d1520406858d'
p35
sa(dp36
g2
S'22591'
p37
sg4
S'3660'
p38
sg6
S'b4f2d17203fa0268931c1f0856940a89'
p39
sg8
S'xxbabeb16cb8bff377a0b7096ebf9e8201'
p40
sg10
S'xx47c34ff307c90a22bbdc3a4dbe3d8d1f'
p41
sg12
S'xx8b9a3715c35492b06c56d919a5e1d098'
p42
sg14
S'Mozilla/5.0 (Linux; Android 4.4.4; F8909 Build/KTU84P) AppleWebKit/537.36 (KHTML, like Gecko) Version/4.0 Chrome/37.0.0.0 Mobile MQQBrowser/6.8 TBS/036849 Safari/537.36 MicroMessenger/6.3.27.880 NetType/ctlte Language/zh_CN'
p43
sg16
S'7054c9705c27c5629b95d1520406858d'
p44
sa(dp45
g2
S'22591'
p46
sg4
S'3670'
p47
sg6
S'b4f2d17203fa0268931c1f0856940a89'
p48
sg8
S'xxbabeb16cb8bff377a0b7096ebf9e8201'
p49
sg10
S'xx47c34ff307c90a22bbdc3a4dbe3d8d1f'
p50
sg12
S'xx8b9a3715c35492b06c56d919a5e1d098'
p51
sg14
S'Mozilla/5.0 (Linux; Android 4.4.4; F8909 Build/KTU84P) AppleWebKit/537.36 (KHTML, like Gecko) Version/4.0 Chrome/37.0.0.0 Mobile MQQBrowser/6.8 TBS/036849 Safari/537.36 MicroMessenger/6.3.27.880 NetType/ctlte Language/zh_CN'
p52
sg16
S'7054c9705c27c5629b95d1520406858d'
p53
sa(dp54
g2
S'22606'
p55
sg4
S'4234'
p56
sg6
S'b4f2d17203fa0268931c1f0856940a89'
p57
sg8
S'xxbabeb16cb8bff377a0b7096ebf9e8201'
p58
sg10
S'xx47c34ff307c90a22bbdc3a4dbe3d8d1f'
p59
sg12
S'xx8b9a3715c35492b06c56d919a5e1d098'
p60
sg14
S'Mozilla/5.0 (Linux; Android 4.4.4; F8909 Build/KTU84P) AppleWebKit/537.36 (KHTML, like Gecko) Version/4.0 Chrome/37.0.0.0 Mobile MQQBrowser/6.8 TBS/036849 Safari/537.36 MicroMessenger/6.3.27.880 NetType/ctlte Language/zh_CN'
p61
sg16
S'7054c9705c27c5629b95d1520406858d'
p62
sa(dp63
g2
S'22606'
p64
sg4
S'4257'
p65
sg6
S'b4f2d17203fa0268931c1f0856940a89'
p66
sg8
S'xxbabeb16cb8bff377a0b7096ebf9e8201'
p67
sg10
S'xx47c34ff307c90a22bbdc3a4dbe3d8d1f'
p68
sg12
S'xx8b9a3715c35492b06c56d919a5e1d098'
p69
sg14
S'Mozilla/5.0 (Linux; Android 4.4.4; F8909 Build/KTU84P) AppleWebKit/537.36 (KHTML, like Gecko) Version/4.0 Chrome/37.0.0.0 Mobile MQQBrowser/6.8 TBS/036849 Safari/537.36 MicroMessenger/6.3.27.880 NetType/ctlte Language/zh_CN'
p70
sg16
S'7054c9705c27c5629b95d1520406858d'
p71
sa(dp72
g2
S'22606'
p73
sg4
S'4287'
p74
sg6
S'b4f2d17203fa0268931c1f0856940a89'
p75
sg8
S'xxbabeb16cb8bff377a0b7096ebf9e8201'
p76
sg10
S'xx47c34ff307c90a22bbdc3a4dbe3d8d1f'
p77
sg12
S'xx8b9a3715c35492b06c56d919a5e1d098'
p78
sg14
S'Mozilla/5.0 (Linux; Android 4.4.4; F8909 Build/KTU84P) AppleWebKit/537.36 (KHTML, like Gecko) Version/4.0 Chrome/37.0.0.0 Mobile MQQBrowser/6.8 TBS/036849 Safari/537.36 MicroMessenger/6.3.27.880 NetType/ctlte Language/zh_CN'
p79
sg16
S'7054c9705c27c5629b95d1520406858d'
p80
sa(dp81
g2
S'22606'
p82
sg4
S'5059'
p83
sg6
S'd70329825f37e9784884aa1bf070f2dd'
p84
sg8
S'xxbabeb16cb8bff377a0b7096ebf9e8201'
p85
sg10
S'xx47c34ff307c90a22bbdc3a4dbe3d8d1f'
p86
sg12
S'xx8b9a3715c35492b06c56d919a5e1d098'
p87
sg14
S'Mozilla/5.0 (Linux; Android 4.4.4; F8909 Build/KTU84P) AppleWebKit/537.36 (KHTML, like Gecko) Version/4.0 Chrome/37.0.0.0 Mobile MQQBrowser/6.8 TBS/036849 Safari/537.36 MicroMessenger/6.3.27.880 NetType/ctlte Language/zh_CN'
p88
sg16
S'7054c9705c27c5629b95d1520406858d'
p89
sa(dp90
g2
S'22606'
p91
sg4
S'5074'
p92
sg6
S'd70329825f37e9784884aa1bf070f2dd'
p93
sg8
S'xxbabeb16cb8bff377a0b7096ebf9e8201'
p94
sg10
S'xx47c34ff307c90a22bbdc3a4dbe3d8d1f'
p95
sg12
S'xx8b9a3715c35492b06c56d919a5e1d098'
p96
sg14
S'Mozilla/5.0 (Linux; Android 4.4.4; F8909 Build/KTU84P) AppleWebKit/537.36 (KHTML, like Gecko) Version/4.0 Chrome/37.0.0.0 Mobile MQQBrowser/6.8 TBS/036849 Safari/537.36 MicroMessenger/6.3.27.880 NetType/ctlte Language/zh_CN'
p97
sg16
S'7054c9705c27c5629b95d1520406858d'
p98
sa(dp99
g2
S'22606'
p100
sg4
S'5116'
p101
sg6
S'd70329825f37e9784884aa1bf070f2dd'
p102
sg8
S'xxbabeb16cb8bff377a0b7096ebf9e8201'
p103
sg10
S'xx47c34ff307c90a22bbdc3a4dbe3d8d1f'
p104
sg12
S'xx8b9a3715c35492b06c56d919a5e1d098'
p105
sg14
S'Mozilla/5.0 (Linux; Android 4.4.4; F8909 Build/KTU84P) AppleWebKit/537.36 (KHTML, like Gecko) Version/4.0 Chrome/37.0.0.0 Mobile MQQBrowser/6.8 TBS/036849 Safari/537.36 MicroMessenger/6.3.27.880 NetType/ctlte Language/zh_CN'
p106
sg16
S'7054c9705c27c5629b95d1520406858d'
p107
sa(dp108
g2
S'22606'
p109
sg4
S'5742'
p110
sg6
S'd70329825f37e9784884aa1bf070f2dd'
p111
sg8
S'xxbabeb16cb8bff377a0b7096ebf9e8201'
p112
sg10
S'xx47c34ff307c90a22bbdc3a4dbe3d8d1f'
p113
sg12
S'xx8b9a3715c35492b06c56d919a5e1d098'
p114
sg14
S'Mozilla/5.0 (Linux; Android 4.4.4; F8909 Build/KTU84P) AppleWebKit/537.36 (KHTML, like Gecko) Version/4.0 Chrome/37.0.0.0 Mobile MQQBrowser/6.8 TBS/036849 Safari/537.36 MicroMessenger/6.3.27.880 NetType/ctlte Language/zh_CN'
p115
sg16
S'7054c9705c27c5629b95d1520406858d'
p116
sa(dp117
g2
S'22606'
p118
sg4
S'5761'
p119
sg6
S'd70329825f37e9784884aa1bf070f2dd'
p120
sg8
S'xxbabeb16cb8bff377a0b7096ebf9e8201'
p121
sg10
S'xx47c34ff307c90a22bbdc3a4dbe3d8d1f'
p122
sg12
S'xx8b9a3715c35492b06c56d919a5e1d098'
p123
sg14
S'Mozilla/5.0 (Linux; Android 4.4.4; F8909 Build/KTU84P) AppleWebKit/537.36 (KHTML, like Gecko) Version/4.0 Chrome/37.0.0.0 Mobile MQQBrowser/6.8 TBS/036849 Safari/537.36 MicroMessenger/6.3.27.880 NetType/ctlte Language/zh_CN'
p124
sg16
S'7054c9705c27c5629b95d1520406858d'
p125
sa(dp126
g2
S'22606'
p127
sg4
S'5788'
p128
sg6
S'd70329825f37e9784884aa1bf070f2dd'
p129
sg8
S'xxbabeb16cb8bff377a0b7096ebf9e8201'
p130
sg10
S'xx47c34ff307c90a22bbdc3a4dbe3d8d1f'
p131
sg12
S'xx8b9a3715c35492b06c56d919a5e1d098'
p132
sg14
S'Mozilla/5.0 (Linux; Android 4.4.4; F8909 Build/KTU84P) AppleWebKit/537.36 (KHTML, like Gecko) Version/4.0 Chrome/37.0.0.0 Mobile MQQBrowser/6.8 TBS/036849 Safari/537.36 MicroMessenger/6.3.27.880 NetType/ctlte Language/zh_CN'
p133
sg16
S'7054c9705c27c5629b95d1520406858d'
p134
sa.