(lp0
(dp1
S'user_id'
p2
S'49766'
p3
sS'data_id'
p4
S'2843'
p5
sS'ip'
p6
S'678a38af6fe266519e206db2a83f446b'
p7
sS'phone_B'
p8
S'xx9ac89884ba777a012b0eb288462f44b1'
p9
sS'phone_C'
p10
S'xx52151d64d779d05003cb50bd155cc58b'
p11
sS'phone_A'
p12
S'xx8b1e7650532973ff7bc6728b6d247e5e'
p13
sS'user_agent'
p14
S'Mozilla/5.0 (Linux; Android 4.3; R8000 Build/JLS36C) AppleWebKit/537.36 (KHTML, like Gecko) Version/4.0 Chrome/37.0.0.0 Mobile MQQBrowser/6.8 TBS/036849 Safari/537.36 MicroMessenger/6.3.27.880 NetType/WIFI Language/zh_CN'
p15
sS'ua'
p16
S'fb302014255cdc35ffd5ccadcc2da446'
p17
sa(dp18
g2
S'49766'
p19
sg4
S'2861'
p20
sg6
S'678a38af6fe266519e206db2a83f446b'
p21
sg8
S'xx9ac89884ba777a012b0eb288462f44b1'
p22
sg10
S'xx52151d64d779d05003cb50bd155cc58b'
p23
sg12
S'xx8b1e7650532973ff7bc6728b6d247e5e'
p24
sg14
S'Mozilla/5.0 (Linux; Android 4.3; R8000 Build/JLS36C) AppleWebKit/537.36 (KHTML, like Gecko) Version/4.0 Chrome/37.0.0.0 Mobile MQQBrowser/6.8 TBS/036849 Safari/537.36 MicroMessenger/6.3.27.880 NetType/WIFI Language/zh_CN'
p25
sg16
S'fb302014255cdc35ffd5ccadcc2da446'
p26
sa(dp27
g2
S'49766'
p28
sg4
S'2883'
p29
sg6
S'678a38af6fe266519e206db2a83f446b'
p30
sg8
S'xx9ac89884ba777a012b0eb288462f44b1'
p31
sg10
S'xx52151d64d779d05003cb50bd155cc58b'
p32
sg12
S'xx8b1e7650532973ff7bc6728b6d247e5e'
p33
sg14
S'Mozilla/5.0 (Linux; Android 4.3; R8000 Build/JLS36C) AppleWebKit/537.36 (KHTML, like Gecko) Version/4.0 Chrome/37.0.0.0 Mobile MQQBrowser/6.8 TBS/036849 Safari/537.36 MicroMessenger/6.3.27.880 NetType/WIFI Language/zh_CN'
p34
sg16
S'fb302014255cdc35ffd5ccadcc2da446'
p35
sa(dp36
g2
S'49766'
p37
sg4
S'2905'
p38
sg6
S'678a38af6fe266519e206db2a83f446b'
p39
sg8
S'xx9ac89884ba777a012b0eb288462f44b1'
p40
sg10
S'xx52151d64d779d05003cb50bd155cc58b'
p41
sg12
S'xx8b1e7650532973ff7bc6728b6d247e5e'
p42
sg14
S'Mozilla/5.0 (Linux; Android 4.3; R8000 Build/JLS36C) AppleWebKit/537.36 (KHTML, like Gecko) Version/4.0 Chrome/37.0.0.0 Mobile MQQBrowser/6.8 TBS/036849 Safari/537.36 MicroMessenger/6.3.27.880 NetType/WIFI Language/zh_CN'
p43
sg16
S'fb302014255cdc35ffd5ccadcc2da446'
p44
sa.