(lp0
(dp1
S'user_id'
p2
S'34208'
p3
sS'data_id'
p4
S'5910'
p5
sS'ip'
p6
S'01c991c4545f042d95bfd867b0880594'
p7
sS'phone_B'
p8
S'xxda9142c6e039b9d0df9874512f9979aa'
p9
sS'phone_C'
p10
S'xxa0a897545828b819c57b43fd483e4c66'
p11
sS'phone_A'
p12
S'xx8b3f4ffc71ea3f2fa5ee0097877fea03'
p13
sS'user_agent'
p14
S'Mozilla/5.0 (Linux; Android 5.1; HUAWEI TIT-AL00 Build/HUAWEITIT-AL00) AppleWebKit/537.36 (KHTML, like Gecko) Version/4.0 Chrome/37.0.0.0 Mobile MQQBrowser/6.8 TBS/036849 Safari/537.36 MicroMessenger/6.3.27.880 NetType/ctlte Language/zh_CN'
p15
sS'ua'
p16
S'1a1ea6f75b7a04996c048b51019dc23c'
p17
sa(dp18
g2
S'34208'
p19
sg4
S'5930'
p20
sg6
S'01c991c4545f042d95bfd867b0880594'
p21
sg8
S'xxda9142c6e039b9d0df9874512f9979aa'
p22
sg10
S'xxa0a897545828b819c57b43fd483e4c66'
p23
sg12
S'xx8b3f4ffc71ea3f2fa5ee0097877fea03'
p24
sg14
S'Mozilla/5.0 (Linux; Android 5.1; HUAWEI TIT-AL00 Build/HUAWEITIT-AL00) AppleWebKit/537.36 (KHTML, like Gecko) Version/4.0 Chrome/37.0.0.0 Mobile MQQBrowser/6.8 TBS/036849 Safari/537.36 MicroMessenger/6.3.27.880 NetType/ctlte Language/zh_CN'
p25
sg16
S'1a1ea6f75b7a04996c048b51019dc23c'
p26
sa(dp27
g2
S'29567'
p28
sg4
S'7174'
p29
sg6
S'cbb5213867fd345f0c9e699b16abb6cb'
p30
sg8
S'xx149632b955487b3870e5a0d5871b404d'
p31
sg10
S'xxd6b2f471c05b84a9c5d7e32b76ee9adc'
p32
sg12
S'xx8b3f4ffc71ea3f2fa5ee0097877fea03'
p33
sg14
S'Mozilla/5.0 (Linux; Android 5.1; HUAWEI TIT-AL00 Build/HUAWEITIT-AL00) AppleWebKit/537.36 (KHTML, like Gecko) Version/4.0 Chrome/37.0.0.0 Mobile MQQBrowser/6.8 TBS/036849 Safari/537.36 MicroMessenger/6.3.27.880 NetType/ctlte Language/zh_CN'
p34
sg16
S'1a1ea6f75b7a04996c048b51019dc23c'
p35
sa(dp36
g2
S'29567'
p37
sg4
S'7188'
p38
sg6
S'cbb5213867fd345f0c9e699b16abb6cb'
p39
sg8
S'xx149632b955487b3870e5a0d5871b404d'
p40
sg10
S'xxd6b2f471c05b84a9c5d7e32b76ee9adc'
p41
sg12
S'xx8b3f4ffc71ea3f2fa5ee0097877fea03'
p42
sg14
S'Mozilla/5.0 (Linux; Android 5.1; HUAWEI TIT-AL00 Build/HUAWEITIT-AL00) AppleWebKit/537.36 (KHTML, like Gecko) Version/4.0 Chrome/37.0.0.0 Mobile MQQBrowser/6.8 TBS/036849 Safari/537.36 MicroMessenger/6.3.27.880 NetType/ctlte Language/zh_CN'
p43
sg16
S'1a1ea6f75b7a04996c048b51019dc23c'
p44
sa.