(lp0
(dp1
S'user_id'
p2
S'47713'
p3
sS'data_id'
p4
S'3006'
p5
sS'ip'
p6
S'1c8cb4e5c3acfa7834c09f8a7622eb2a'
p7
sS'phone_B'
p8
S'xxc3f944459dd4d80d4b5cff4bb6f1ea94'
p9
sS'phone_C'
p10
S'xxa6d6c8e9e0447e2601cc502360739b8e'
p11
sS'phone_A'
p12
S'xx8c5800f522cd7da738cccc2a833a9acf'
p13
sS'user_agent'
p14
S'Mozilla/5.0 (Linux; Android 5.1.1; M631 Build/LMY47V) AppleWebKit/537.36 (KHTML, like Gecko) Version/4.0 Chrome/37.0.0.0 Mobile MQQBrowser/6.8 TBS/036849 Safari/537.36 MicroMessenger/6.3.27.880 NetType/WIFI Language/zh_CN'
p15
sS'ua'
p16
S'574873185899441bcf3091b261eb9c71'
p17
sa(dp18
g2
S'47713'
p19
sg4
S'3021'
p20
sg6
S'1c8cb4e5c3acfa7834c09f8a7622eb2a'
p21
sg8
S'xxc3f944459dd4d80d4b5cff4bb6f1ea94'
p22
sg10
S'xxa6d6c8e9e0447e2601cc502360739b8e'
p23
sg12
S'xx8c5800f522cd7da738cccc2a833a9acf'
p24
sg14
S'Mozilla/5.0 (Linux; Android 5.1.1; M631 Build/LMY47V) AppleWebKit/537.36 (KHTML, like Gecko) Version/4.0 Chrome/37.0.0.0 Mobile MQQBrowser/6.8 TBS/036849 Safari/537.36 MicroMessenger/6.3.27.880 NetType/WIFI Language/zh_CN'
p25
sg16
S'574873185899441bcf3091b261eb9c71'
p26
sa(dp27
g2
S'47713'
p28
sg4
S'3035'
p29
sg6
S'1c8cb4e5c3acfa7834c09f8a7622eb2a'
p30
sg8
S'xxc3f944459dd4d80d4b5cff4bb6f1ea94'
p31
sg10
S'xxa6d6c8e9e0447e2601cc502360739b8e'
p32
sg12
S'xx8c5800f522cd7da738cccc2a833a9acf'
p33
sg14
S'Mozilla/5.0 (Linux; Android 5.1.1; M631 Build/LMY47V) AppleWebKit/537.36 (KHTML, like Gecko) Version/4.0 Chrome/37.0.0.0 Mobile MQQBrowser/6.8 TBS/036849 Safari/537.36 MicroMessenger/6.3.27.880 NetType/WIFI Language/zh_CN'
p34
sg16
S'574873185899441bcf3091b261eb9c71'
p35
sa(dp36
g2
S'47713'
p37
sg4
S'3056'
p38
sg6
S'1c8cb4e5c3acfa7834c09f8a7622eb2a'
p39
sg8
S'xxc3f944459dd4d80d4b5cff4bb6f1ea94'
p40
sg10
S'xxa6d6c8e9e0447e2601cc502360739b8e'
p41
sg12
S'xx8c5800f522cd7da738cccc2a833a9acf'
p42
sg14
S'Mozilla/5.0 (Linux; Android 5.1.1; M631 Build/LMY47V) AppleWebKit/537.36 (KHTML, like Gecko) Version/4.0 Chrome/37.0.0.0 Mobile MQQBrowser/6.8 TBS/036849 Safari/537.36 MicroMessenger/6.3.27.880 NetType/WIFI Language/zh_CN'
p43
sg16
S'574873185899441bcf3091b261eb9c71'
p44
sa(dp45
g2
S'47713'
p46
sg4
S'3076'
p47
sg6
S'1c8cb4e5c3acfa7834c09f8a7622eb2a'
p48
sg8
S'xxc3f944459dd4d80d4b5cff4bb6f1ea94'
p49
sg10
S'xxa6d6c8e9e0447e2601cc502360739b8e'
p50
sg12
S'xx8c5800f522cd7da738cccc2a833a9acf'
p51
sg14
S'Mozilla/5.0 (Linux; Android 5.1.1; M631 Build/LMY47V) AppleWebKit/537.36 (KHTML, like Gecko) Version/4.0 Chrome/37.0.0.0 Mobile MQQBrowser/6.8 TBS/036849 Safari/537.36 MicroMessenger/6.3.27.880 NetType/WIFI Language/zh_CN'
p52
sg16
S'574873185899441bcf3091b261eb9c71'
p53
sa.