(lp0
(dp1
S'user_id'
p2
S'28860'
p3
sS'data_id'
p4
S'4317'
p5
sS'ip'
p6
S'5362a3ad03126dbd5ec4835f64a352a3'
p7
sS'phone_B'
p8
S'xx30ba31f7574ec24fca374c23ed6c95d4'
p9
sS'phone_C'
p10
S'xxa1eddb067d69156b5a420a68e90e67cd'
p11
sS'phone_A'
p12
S'xx8c6273fd4b713e167c27a9f69588268d'
p13
sS'user_agent'
p14
S'Mozilla/5.0 (Linux; Android 4.4.2; HM NOTE 1W Build/KOT49H) AppleWebKit/537.36 (KHTML, like Gecko) Version/4.0 Chrome/37.0.0.0 Mobile MQQBrowser/6.8 TBS/036849 Safari/537.36 MicroMessenger/6.3.27.880 NetType/WIFI Language/zh_CN'
p15
sS'ua'
p16
S'fd323157848ff4275fddd32eb8a05912'
p17
sa(dp18
g2
S'28860'
p19
sg4
S'4339'
p20
sg6
S'5362a3ad03126dbd5ec4835f64a352a3'
p21
sg8
S'xx30ba31f7574ec24fca374c23ed6c95d4'
p22
sg10
S'xxa1eddb067d69156b5a420a68e90e67cd'
p23
sg12
S'xx8c6273fd4b713e167c27a9f69588268d'
p24
sg14
S'Mozilla/5.0 (Linux; Android 4.4.2; HM NOTE 1W Build/KOT49H) AppleWebKit/537.36 (KHTML, like Gecko) Version/4.0 Chrome/37.0.0.0 Mobile MQQBrowser/6.8 TBS/036849 Safari/537.36 MicroMessenger/6.3.27.880 NetType/WIFI Language/zh_CN'
p25
sg16
S'fd323157848ff4275fddd32eb8a05912'
p26
sa(dp27
g2
S'28860'
p28
sg4
S'4361'
p29
sg6
S'5362a3ad03126dbd5ec4835f64a352a3'
p30
sg8
S'xx30ba31f7574ec24fca374c23ed6c95d4'
p31
sg10
S'xxa1eddb067d69156b5a420a68e90e67cd'
p32
sg12
S'xx8c6273fd4b713e167c27a9f69588268d'
p33
sg14
S'Mozilla/5.0 (Linux; Android 4.4.2; HM NOTE 1W Build/KOT49H) AppleWebKit/537.36 (KHTML, like Gecko) Version/4.0 Chrome/37.0.0.0 Mobile MQQBrowser/6.8 TBS/036849 Safari/537.36 MicroMessenger/6.3.27.880 NetType/WIFI Language/zh_CN'
p34
sg16
S'fd323157848ff4275fddd32eb8a05912'
p35
sa.