(lp0
(dp1
S'user_id'
p2
S'24142'
p3
sS'data_id'
p4
S'294'
p5
sS'ip'
p6
S'03058ff25b1b7f26625c3e6dad07f9c3'
p7
sS'phone_B'
p8
S'xxd173d9948b060fc206b9dc01b39a35ab'
p9
sS'phone_C'
p10
S'xx09c8d5b1b4d1f173c693be7067262bfa'
p11
sS'phone_A'
p12
S'xx8d0ae2529923de72aa5cf5a703298fd9'
p13
sS'user_agent'
p14
S'Mozilla/5.0 (Linux; Android 5.1; Bird L7Plus Build/LMY47D) AppleWebKit/537.36 (KHTML, like Gecko) Version/4.0 Chrome/37.0.0.0 Mobile MQQBrowser/6.8 TBS/036824 Safari/537.36 MicroMessenger/6.3.25.861 NetType/WIFI Language/zh_CN'
p15
sS'ua'
p16
S'bc16ce6f8fb491d9b0fd20406342dc78'
p17
sa(dp18
g2
S'24142'
p19
sg4
S'314'
p20
sg6
S'03058ff25b1b7f26625c3e6dad07f9c3'
p21
sg8
S'xxd173d9948b060fc206b9dc01b39a35ab'
p22
sg10
S'xx09c8d5b1b4d1f173c693be7067262bfa'
p23
sg12
S'xx8d0ae2529923de72aa5cf5a703298fd9'
p24
sg14
S'Mozilla/5.0 (Linux; Android 5.1; Bird L7Plus Build/LMY47D) AppleWebKit/537.36 (KHTML, like Gecko) Version/4.0 Chrome/37.0.0.0 Mobile MQQBrowser/6.8 TBS/036824 Safari/537.36 MicroMessenger/6.3.25.861 NetType/WIFI Language/zh_CN'
p25
sg16
S'bc16ce6f8fb491d9b0fd20406342dc78'
p26
sa(dp27
g2
S'24142'
p28
sg4
S'381'
p29
sg6
S'03058ff25b1b7f26625c3e6dad07f9c3'
p30
sg8
S'xxd173d9948b060fc206b9dc01b39a35ab'
p31
sg10
S'xx09c8d5b1b4d1f173c693be7067262bfa'
p32
sg12
S'xx8d0ae2529923de72aa5cf5a703298fd9'
p33
sg14
S'Mozilla/5.0 (Linux; Android 5.1; Bird L7Plus Build/LMY47D) AppleWebKit/537.36 (KHTML, like Gecko) Version/4.0 Chrome/37.0.0.0 Mobile MQQBrowser/6.8 TBS/036824 Safari/537.36 MicroMessenger/6.3.25.861 NetType/WIFI Language/zh_CN'
p34
sg16
S'bc16ce6f8fb491d9b0fd20406342dc78'
p35
sa(dp36
g2
S'24142'
p37
sg4
S'400'
p38
sg6
S'03058ff25b1b7f26625c3e6dad07f9c3'
p39
sg8
S'xxd173d9948b060fc206b9dc01b39a35ab'
p40
sg10
S'xx09c8d5b1b4d1f173c693be7067262bfa'
p41
sg12
S'xx8d0ae2529923de72aa5cf5a703298fd9'
p42
sg14
S'Mozilla/5.0 (Linux; Android 5.1; Bird L7Plus Build/LMY47D) AppleWebKit/537.36 (KHTML, like Gecko) Version/4.0 Chrome/37.0.0.0 Mobile MQQBrowser/6.8 TBS/036824 Safari/537.36 MicroMessenger/6.3.25.861 NetType/WIFI Language/zh_CN'
p43
sg16
S'bc16ce6f8fb491d9b0fd20406342dc78'
p44
sa(dp45
g2
S'24142'
p46
sg4
S'1533'
p47
sg6
S'03058ff25b1b7f26625c3e6dad07f9c3'
p48
sg8
S'xxd173d9948b060fc206b9dc01b39a35ab'
p49
sg10
S'xx09c8d5b1b4d1f173c693be7067262bfa'
p50
sg12
S'xx8d0ae2529923de72aa5cf5a703298fd9'
p51
sg14
S'Mozilla/5.0 (Linux; Android 5.1; Bird L7Plus Build/LMY47D) AppleWebKit/537.36 (KHTML, like Gecko) Version/4.0 Chrome/37.0.0.0 Mobile MQQBrowser/6.8 TBS/036824 Safari/537.36 MicroMessenger/6.3.25.861 NetType/WIFI Language/zh_CN'
p52
sg16
S'bc16ce6f8fb491d9b0fd20406342dc78'
p53
sa(dp54
g2
S'24142'
p55
sg4
S'1546'
p56
sg6
S'03058ff25b1b7f26625c3e6dad07f9c3'
p57
sg8
S'xxd173d9948b060fc206b9dc01b39a35ab'
p58
sg10
S'xx09c8d5b1b4d1f173c693be7067262bfa'
p59
sg12
S'xx8d0ae2529923de72aa5cf5a703298fd9'
p60
sg14
S'Mozilla/5.0 (Linux; Android 5.1; Bird L7Plus Build/LMY47D) AppleWebKit/537.36 (KHTML, like Gecko) Version/4.0 Chrome/37.0.0.0 Mobile MQQBrowser/6.8 TBS/036824 Safari/537.36 MicroMessenger/6.3.25.861 NetType/WIFI Language/zh_CN'
p61
sg16
S'bc16ce6f8fb491d9b0fd20406342dc78'
p62
sa.