(lp0
(dp1
S'user_id'
p2
S'46695'
p3
sS'data_id'
p4
S'1137'
p5
sS'ip'
p6
S'4e73a1ce448548b891abc9c40d80dbaa'
p7
sS'phone_B'
p8
S'xxdf9000ff5abcb4f22a21eed3ebe4747d'
p9
sS'phone_C'
p10
S'xx75eb04d49442c6583b07d86e7db074ab'
p11
sS'phone_A'
p12
S'xx8ddcde0d5f9a66746557de2b51a6d05e'
p13
sS'user_agent'
p14
S'Mozilla/5.0 (Linux; Android 5.1.1; vivo V3Max Build/LMY47V) AppleWebKit/537.36 (KHTML, like Gecko) Version/4.0 Chrome/37.0.0.0 Mobile MQQBrowser/6.8 TBS/036849 Safari/537.36 MicroMessenger/6.3.27.880 NetType/cmnet Language/zh_CN'
p15
sS'ua'
p16
S'cf32635b064d89a64c7d251410e79e37'
p17
sa(dp18
g2
S'46695'
p19
sg4
S'1157'
p20
sg6
S'4e73a1ce448548b891abc9c40d80dbaa'
p21
sg8
S'xxdf9000ff5abcb4f22a21eed3ebe4747d'
p22
sg10
S'xx75eb04d49442c6583b07d86e7db074ab'
p23
sg12
S'xx8ddcde0d5f9a66746557de2b51a6d05e'
p24
sg14
S'Mozilla/5.0 (Linux; Android 5.1.1; vivo V3Max Build/LMY47V) AppleWebKit/537.36 (KHTML, like Gecko) Version/4.0 Chrome/37.0.0.0 Mobile MQQBrowser/6.8 TBS/036849 Safari/537.36 MicroMessenger/6.3.27.880 NetType/cmnet Language/zh_CN'
p25
sg16
S'cf32635b064d89a64c7d251410e79e37'
p26
sa(dp27
g2
S'46695'
p28
sg4
S'1173'
p29
sg6
S'4e73a1ce448548b891abc9c40d80dbaa'
p30
sg8
S'xxdf9000ff5abcb4f22a21eed3ebe4747d'
p31
sg10
S'xx75eb04d49442c6583b07d86e7db074ab'
p32
sg12
S'xx8ddcde0d5f9a66746557de2b51a6d05e'
p33
sg14
S'Mozilla/5.0 (Linux; Android 5.1.1; vivo V3Max Build/LMY47V) AppleWebKit/537.36 (KHTML, like Gecko) Version/4.0 Chrome/37.0.0.0 Mobile MQQBrowser/6.8 TBS/036849 Safari/537.36 MicroMessenger/6.3.27.880 NetType/cmnet Language/zh_CN'
p34
sg16
S'cf32635b064d89a64c7d251410e79e37'
p35
sa.