(lp0
(dp1
S'user_id'
p2
S'16862'
p3
sS'data_id'
p4
S'49'
p5
sS'ip'
p6
S'ae742da49de9afd92380af93a2697d43'
p7
sS'phone_B'
p8
S'xxd7bc254949fb03a4e06f3aeecd593ab2'
p9
sS'phone_C'
p10
S'xx3824d12c3a363e666b2c40c843aa9d91'
p11
sS'phone_A'
p12
S'xx8e4133eb6524eaf73428fdef30f0912c'
p13
sS'user_agent'
p14
S'Mozilla/5.0 (Linux; Android 4.4.4; YQ601 Build/KTU84P) AppleWebKit/537.36 (KHTML, like Gecko) Version/4.0 Chrome/37.0.0.0 Mobile MQQBrowser/6.8 TBS/036849 Safari/537.36 MicroMessenger/6.3.27.880 NetType/WIFI Language/zh_CN'
p15
sS'ua'
p16
S'5add19d8ffbd2480407f4c659ed9c199'
p17
sa(dp18
g2
S'16862'
p19
sg4
S'54'
p20
sg6
S'ae742da49de9afd92380af93a2697d43'
p21
sg8
S'xxd7bc254949fb03a4e06f3aeecd593ab2'
p22
sg10
S'xx3824d12c3a363e666b2c40c843aa9d91'
p23
sg12
S'xx8e4133eb6524eaf73428fdef30f0912c'
p24
sg14
S'Mozilla/5.0 (Linux; Android 4.4.4; YQ601 Build/KTU84P) AppleWebKit/537.36 (KHTML, like Gecko) Version/4.0 Chrome/37.0.0.0 Mobile MQQBrowser/6.8 TBS/036849 Safari/537.36 MicroMessenger/6.3.27.880 NetType/WIFI Language/zh_CN'
p25
sg16
S'5add19d8ffbd2480407f4c659ed9c199'
p26
sa(dp27
g2
S'16862'
p28
sg4
S'196'
p29
sg6
S'ae742da49de9afd92380af93a2697d43'
p30
sg8
S'xxd7bc254949fb03a4e06f3aeecd593ab2'
p31
sg10
S'xx3824d12c3a363e666b2c40c843aa9d91'
p32
sg12
S'xx8e4133eb6524eaf73428fdef30f0912c'
p33
sg14
S'Mozilla/5.0 (Linux; Android 4.4.4; YQ601 Build/KTU84P) AppleWebKit/537.36 (KHTML, like Gecko) Version/4.0 Chrome/37.0.0.0 Mobile MQQBrowser/6.8 TBS/036849 Safari/537.36 MicroMessenger/6.3.27.880 NetType/WIFI Language/zh_CN'
p34
sg16
S'5add19d8ffbd2480407f4c659ed9c199'
p35
sa(dp36
g2
S'9969'
p37
sg4
S'295'
p38
sg6
S'ae742da49de9afd92380af93a2697d43'
p39
sg8
S'xxd7bc254949fb03a4e06f3aeecd593ab2'
p40
sg10
S'xx3824d12c3a363e666b2c40c843aa9d91'
p41
sg12
S'xx8e4133eb6524eaf73428fdef30f0912c'
p42
sg14
S'Mozilla/5.0 (Linux; Android 4.4.4; YQ601 Build/KTU84P) AppleWebKit/537.36 (KHTML, like Gecko) Version/4.0 Chrome/37.0.0.0 Mobile MQQBrowser/6.8 TBS/036849 Safari/537.36 MicroMessenger/6.3.27.880 NetType/WIFI Language/zh_CN'
p43
sg16
S'5add19d8ffbd2480407f4c659ed9c199'
p44
sa(dp45
g2
S'9969'
p46
sg4
S'312'
p47
sg6
S'ae742da49de9afd92380af93a2697d43'
p48
sg8
S'xxd7bc254949fb03a4e06f3aeecd593ab2'
p49
sg10
S'xx3824d12c3a363e666b2c40c843aa9d91'
p50
sg12
S'xx8e4133eb6524eaf73428fdef30f0912c'
p51
sg14
S'Mozilla/5.0 (Linux; Android 4.4.4; YQ601 Build/KTU84P) AppleWebKit/537.36 (KHTML, like Gecko) Version/4.0 Chrome/37.0.0.0 Mobile MQQBrowser/6.8 TBS/036849 Safari/537.36 MicroMessenger/6.3.27.880 NetType/WIFI Language/zh_CN'
p52
sg16
S'5add19d8ffbd2480407f4c659ed9c199'
p53
sa(dp54
g2
S'32183'
p55
sg4
S'2869'
p56
sg6
S'8c32a6ac0454e92387ee93aa7070cfa9'
p57
sg8
S'xxea882e167f6e32672f219088a55ee5fa'
p58
sg10
S'xx3824d12c3a363e666b2c40c843aa9d91'
p59
sg12
S'xx8e4133eb6524eaf73428fdef30f0912c'
p60
sg14
S'Mozilla/5.0 (Linux; Android 4.4.4; YQ601 Build/KTU84P) AppleWebKit/537.36 (KHTML, like Gecko) Version/4.0 Chrome/37.0.0.0 Mobile MQQBrowser/6.8 TBS/036849 Safari/537.36 MicroMessenger/6.3.27.880 NetType/cmnet Language/zh_CN'
p61
sg16
S'6436289eac354eeae493038527975e5f'
p62
sa(dp63
g2
S'32183'
p64
sg4
S'2892'
p65
sg6
S'8c32a6ac0454e92387ee93aa7070cfa9'
p66
sg8
S'xxea882e167f6e32672f219088a55ee5fa'
p67
sg10
S'xx3824d12c3a363e666b2c40c843aa9d91'
p68
sg12
S'xx8e4133eb6524eaf73428fdef30f0912c'
p69
sg14
S'Mozilla/5.0 (Linux; Android 4.4.4; YQ601 Build/KTU84P) AppleWebKit/537.36 (KHTML, like Gecko) Version/4.0 Chrome/37.0.0.0 Mobile MQQBrowser/6.8 TBS/036849 Safari/537.36 MicroMessenger/6.3.27.880 NetType/cmnet Language/zh_CN'
p70
sg16
S'6436289eac354eeae493038527975e5f'
p71
sa.