(lp0
(dp1
S'user_id'
p2
S'33108'
p3
sS'data_id'
p4
S'7958'
p5
sS'ip'
p6
S'bb3a8b85ab3ba6baf8f3e71c90c7aa5a'
p7
sS'phone_B'
p8
S'xx18d9030453705571f0a0aa672d9c6736'
p9
sS'phone_C'
p10
S'xx15bb8179625dd0cab66ba04c16215db5'
p11
sS'phone_A'
p12
S'xx8ed262cd0b74ab04db9f9a6ce824c460'
p13
sS'user_agent'
p14
S'Mozilla/5.0 (Linux; Android 4.4.4; Che1-CL10 Build/Che1-CL10) AppleWebKit/537.36 (KHTML, like Gecko) Version/4.0 Chrome/37.0.0.0 Mobile MQQBrowser/6.8 TBS/036849 Safari/537.36 MicroMessenger/6.3.27.880 NetType/WIFI Language/zh_CN'
p15
sS'ua'
p16
S'29a47e4ac444a585e2ce7a33edcf2e9f'
p17
sa(dp18
g2
S'33108'
p19
sg4
S'7975'
p20
sg6
S'bb3a8b85ab3ba6baf8f3e71c90c7aa5a'
p21
sg8
S'xx18d9030453705571f0a0aa672d9c6736'
p22
sg10
S'xx15bb8179625dd0cab66ba04c16215db5'
p23
sg12
S'xx8ed262cd0b74ab04db9f9a6ce824c460'
p24
sg14
S'Mozilla/5.0 (Linux; Android 4.4.4; Che1-CL10 Build/Che1-CL10) AppleWebKit/537.36 (KHTML, like Gecko) Version/4.0 Chrome/37.0.0.0 Mobile MQQBrowser/6.8 TBS/036849 Safari/537.36 MicroMessenger/6.3.27.880 NetType/WIFI Language/zh_CN'
p25
sg16
S'29a47e4ac444a585e2ce7a33edcf2e9f'
p26
sa.