(lp0
(dp1
S'user_id'
p2
S'6024'
p3
sS'data_id'
p4
S'6840'
p5
sS'ip'
p6
S'03058ff25b1b7f26625c3e6dad07f9c3'
p7
sS'phone_B'
p8
S'xxd7cb30613a86929b1120230cfd708f82'
p9
sS'phone_C'
p10
S'xx8265e1be9b9998f1672c83f7bf57504c'
p11
sS'phone_A'
p12
S'xx8fbc8adfcbd3695ceeba095b23a2661a'
p13
sS'user_agent'
p14
S'Mozilla/5.0 (Linux; Android 5.1.1; ZTE N928Dt Build/LMY47V) AppleWebKit/537.36 (KHTML, like Gecko) Version/4.0 Chrome/37.0.0.0 Mobile MQQBrowser/6.8 TBS/036849 Safari/537.36 MicroMessenger/6.3.27.880 NetType/WIFI Language/zh_CN'
p15
sS'ua'
p16
S'e34b325c20942f5c936aeae42bc74d6d'
p17
sa(dp18
g2
S'6024'
p19
sg4
S'6852'
p20
sg6
S'03058ff25b1b7f26625c3e6dad07f9c3'
p21
sg8
S'xxd7cb30613a86929b1120230cfd708f82'
p22
sg10
S'xx8265e1be9b9998f1672c83f7bf57504c'
p23
sg12
S'xx8fbc8adfcbd3695ceeba095b23a2661a'
p24
sg14
S'Mozilla/5.0 (Linux; Android 5.1.1; ZTE N928Dt Build/LMY47V) AppleWebKit/537.36 (KHTML, like Gecko) Version/4.0 Chrome/37.0.0.0 Mobile MQQBrowser/6.8 TBS/036849 Safari/537.36 MicroMessenger/6.3.27.880 NetType/WIFI Language/zh_CN'
p25
sg16
S'e34b325c20942f5c936aeae42bc74d6d'
p26
sa(dp27
g2
S'6024'
p28
sg4
S'6907'
p29
sg6
S'03058ff25b1b7f26625c3e6dad07f9c3'
p30
sg8
S'xxd7cb30613a86929b1120230cfd708f82'
p31
sg10
S'xx8265e1be9b9998f1672c83f7bf57504c'
p32
sg12
S'xx8fbc8adfcbd3695ceeba095b23a2661a'
p33
sg14
S'Mozilla/5.0 (Linux; Android 5.1.1; ZTE N928Dt Build/LMY47V) AppleWebKit/537.36 (KHTML, like Gecko) Version/4.0 Chrome/37.0.0.0 Mobile MQQBrowser/6.8 TBS/036849 Safari/537.36 MicroMessenger/6.3.27.880 NetType/WIFI Language/zh_CN'
p34
sg16
S'e34b325c20942f5c936aeae42bc74d6d'
p35
sa.