(lp0
(dp1
S'user_id'
p2
S'16476'
p3
sS'data_id'
p4
S'1707'
p5
sS'ip'
p6
S'dff0a49386c171e6213607eedee6655f'
p7
sS'phone_B'
p8
S'xx57ac64a5c6625b5f109d2b79575d6989'
p9
sS'phone_C'
p10
S'xxf184c8f88197d10b8d3344ac0323a7ee'
p11
sS'phone_A'
p12
S'xx90b9d2fe67808aa5534f965d005cde41'
p13
sS'user_agent'
p14
S'Mozilla/5.0 (Linux; Android 4.4.4; HM NOTE 1LTE Build/KTU84P) AppleWebKit/537.36 (KHTML, like Gecko) Version/4.0 Chrome/37.0.0.0 Mobile MQQBrowser/6.8 TBS/036824 Safari/537.36 MicroMessenger/6.3.27.880 NetType/3gnet Language/zh_CN'
p15
sS'ua'
p16
S'f957f69ef0c2702b7a36803fc354473c'
p17
sa(dp18
g2
S'36269'
p19
sg4
S'1936'
p20
sg6
S'5aed78690d86fb465be0e63a638c1bb9'
p21
sg8
S'xxdf28c79488b6a440616a4df1a55bd125'
p22
sg10
S'xxf184c8f88197d10b8d3344ac0323a7ee'
p23
sg12
S'xx90b9d2fe67808aa5534f965d005cde41'
p24
sg14
S'Mozilla/5.0 (Linux; Android 4.4.4; HM NOTE 1LTE Build/KTU84P) AppleWebKit/537.36 (KHTML, like Gecko) Version/4.0 Chrome/37.0.0.0 Mobile MQQBrowser/6.8 TBS/036849 Safari/537.36 MicroMessenger/6.3.27.880 NetType/WIFI Language/zh_CN'
p25
sg16
S'93d829f650aef3d304ed1c8260e0f005'
p26
sa(dp27
g2
S'36269'
p28
sg4
S'1955'
p29
sg6
S'5aed78690d86fb465be0e63a638c1bb9'
p30
sg8
S'xxdf28c79488b6a440616a4df1a55bd125'
p31
sg10
S'xxf184c8f88197d10b8d3344ac0323a7ee'
p32
sg12
S'xx90b9d2fe67808aa5534f965d005cde41'
p33
sg14
S'Mozilla/5.0 (Linux; Android 4.4.4; HM NOTE 1LTE Build/KTU84P) AppleWebKit/537.36 (KHTML, like Gecko) Version/4.0 Chrome/37.0.0.0 Mobile MQQBrowser/6.8 TBS/036849 Safari/537.36 MicroMessenger/6.3.27.880 NetType/WIFI Language/zh_CN'
p34
sg16
S'93d829f650aef3d304ed1c8260e0f005'
p35
sa(dp36
g2
S'36232'
p37
sg4
S'2143'
p38
sg6
S'9066a8e191c07b8cfe9738e4a4ef5755'
p39
sg8
S'xx7e82c19dcb2f22986320b8397f85eb93'
p40
sg10
S'xxb3170eab56695e2338dc62c847e83266'
p41
sg12
S'xx90b9d2fe67808aa5534f965d005cde41'
p42
sg14
S'Mozilla/5.0 (Linux; Android 4.4.4; HM NOTE 1LTE Build/KTU84P) AppleWebKit/537.36 (KHTML, like Gecko) Version/4.0 Chrome/37.0.0.0 Mobile MQQBrowser/6.8 TBS/036849 Safari/537.36 MicroMessenger/6.3.25.861 NetType/cmnet Language/zh_CN'
p43
sg16
S'3e72e703230a3645158f92454fe6a5af'
p44
sa(dp45
g2
S'36232'
p46
sg4
S'2164'
p47
sg6
S'9066a8e191c07b8cfe9738e4a4ef5755'
p48
sg8
S'xx7e82c19dcb2f22986320b8397f85eb93'
p49
sg10
S'xxb3170eab56695e2338dc62c847e83266'
p50
sg12
S'xx90b9d2fe67808aa5534f965d005cde41'
p51
sg14
S'Mozilla/5.0 (Linux; Android 4.4.4; HM NOTE 1LTE Build/KTU84P) AppleWebKit/537.36 (KHTML, like Gecko) Version/4.0 Chrome/37.0.0.0 Mobile MQQBrowser/6.8 TBS/036849 Safari/537.36 MicroMessenger/6.3.25.861 NetType/cmnet Language/zh_CN'
p52
sg16
S'3e72e703230a3645158f92454fe6a5af'
p53
sa(dp54
g2
S'36232'
p55
sg4
S'2194'
p56
sg6
S'9066a8e191c07b8cfe9738e4a4ef5755'
p57
sg8
S'xx7e82c19dcb2f22986320b8397f85eb93'
p58
sg10
S'xxb3170eab56695e2338dc62c847e83266'
p59
sg12
S'xx90b9d2fe67808aa5534f965d005cde41'
p60
sg14
S'Mozilla/5.0 (Linux; Android 4.4.4; HM NOTE 1LTE Build/KTU84P) AppleWebKit/537.36 (KHTML, like Gecko) Version/4.0 Chrome/37.0.0.0 Mobile MQQBrowser/6.8 TBS/036849 Safari/537.36 MicroMessenger/6.3.25.861 NetType/cmnet Language/zh_CN'
p61
sg16
S'3e72e703230a3645158f92454fe6a5af'
p62
sa(dp63
g2
S'36232'
p64
sg4
S'2225'
p65
sg6
S'9066a8e191c07b8cfe9738e4a4ef5755'
p66
sg8
S'xx7e82c19dcb2f22986320b8397f85eb93'
p67
sg10
S'xxb3170eab56695e2338dc62c847e83266'
p68
sg12
S'xx90b9d2fe67808aa5534f965d005cde41'
p69
sg14
S'Mozilla/5.0 (Linux; Android 4.4.4; HM NOTE 1LTE Build/KTU84P) AppleWebKit/537.36 (KHTML, like Gecko) Version/4.0 Chrome/37.0.0.0 Mobile MQQBrowser/6.8 TBS/036849 Safari/537.36 MicroMessenger/6.3.25.861 NetType/cmnet Language/zh_CN'
p70
sg16
S'3e72e703230a3645158f92454fe6a5af'
p71
sa(dp72
g2
S'36232'
p73
sg4
S'2349'
p74
sg6
S'9066a8e191c07b8cfe9738e4a4ef5755'
p75
sg8
S'xx7e82c19dcb2f22986320b8397f85eb93'
p76
sg10
S'xxb3170eab56695e2338dc62c847e83266'
p77
sg12
S'xx90b9d2fe67808aa5534f965d005cde41'
p78
sg14
S'Mozilla/5.0 (Linux; Android 4.4.4; HM NOTE 1LTE Build/KTU84P) AppleWebKit/537.36 (KHTML, like Gecko) Version/4.0 Chrome/37.0.0.0 Mobile MQQBrowser/6.8 TBS/036849 Safari/537.36 MicroMessenger/6.3.25.861 NetType/cmnet Language/zh_CN'
p79
sg16
S'3e72e703230a3645158f92454fe6a5af'
p80
sa(dp81
g2
S'36232'
p82
sg4
S'2366'
p83
sg6
S'9066a8e191c07b8cfe9738e4a4ef5755'
p84
sg8
S'xx7e82c19dcb2f22986320b8397f85eb93'
p85
sg10
S'xxb3170eab56695e2338dc62c847e83266'
p86
sg12
S'xx90b9d2fe67808aa5534f965d005cde41'
p87
sg14
S'Mozilla/5.0 (Linux; Android 4.4.4; HM NOTE 1LTE Build/KTU84P) AppleWebKit/537.36 (KHTML, like Gecko) Version/4.0 Chrome/37.0.0.0 Mobile MQQBrowser/6.8 TBS/036849 Safari/537.36 MicroMessenger/6.3.25.861 NetType/cmnet Language/zh_CN'
p88
sg16
S'3e72e703230a3645158f92454fe6a5af'
p89
sa(dp90
g2
S'36232'
p91
sg4
S'2386'
p92
sg6
S'9066a8e191c07b8cfe9738e4a4ef5755'
p93
sg8
S'xx7e82c19dcb2f22986320b8397f85eb93'
p94
sg10
S'xxb3170eab56695e2338dc62c847e83266'
p95
sg12
S'xx90b9d2fe67808aa5534f965d005cde41'
p96
sg14
S'Mozilla/5.0 (Linux; Android 4.4.4; HM NOTE 1LTE Build/KTU84P) AppleWebKit/537.36 (KHTML, like Gecko) Version/4.0 Chrome/37.0.0.0 Mobile MQQBrowser/6.8 TBS/036849 Safari/537.36 MicroMessenger/6.3.25.861 NetType/cmnet Language/zh_CN'
p97
sg16
S'3e72e703230a3645158f92454fe6a5af'
p98
sa(dp99
g2
S'39659'
p100
sg4
S'3715'
p101
sg6
S'3bb4caaf0603dfe1f7c390525c4eedc6'
p102
sg8
S'xxac103218fdc4d9e3a0713d12c30c4a06'
p103
sg10
S'xxc7c43528ca827712e366797f14e4ce28'
p104
sg12
S'xx90b9d2fe67808aa5534f965d005cde41'
p105
sg14
S'Mozilla/5.0 (Linux; Android 4.4.4; HM NOTE 1LTE Build/KTU84P) AppleWebKit/537.36 (KHTML, like Gecko) Version/4.0 Chrome/37.0.0.0 Mobile MQQBrowser/6.8 TBS/036849 Safari/537.36 MicroMessenger/6.3.25.861 NetType/WIFI Language/zh_CN'
p106
sg16
S'f7f9b2afe8fcb0ad5dfa0543ebf387ff'
p107
sa(dp108
g2
S'39659'
p109
sg4
S'3733'
p110
sg6
S'3bb4caaf0603dfe1f7c390525c4eedc6'
p111
sg8
S'xxac103218fdc4d9e3a0713d12c30c4a06'
p112
sg10
S'xxc7c43528ca827712e366797f14e4ce28'
p113
sg12
S'xx90b9d2fe67808aa5534f965d005cde41'
p114
sg14
S'Mozilla/5.0 (Linux; Android 4.4.4; HM NOTE 1LTE Build/KTU84P) AppleWebKit/537.36 (KHTML, like Gecko) Version/4.0 Chrome/37.0.0.0 Mobile MQQBrowser/6.8 TBS/036849 Safari/537.36 MicroMessenger/6.3.25.861 NetType/WIFI Language/zh_CN'
p115
sg16
S'f7f9b2afe8fcb0ad5dfa0543ebf387ff'
p116
sa(dp117
g2
S'37908'
p118
sg4
S'3978'
p119
sg6
S'cbb5213867fd345f0c9e699b16abb6cb'
p120
sg8
S'xxdf28c79488b6a440616a4df1a55bd125'
p121
sg10
S'xxf184c8f88197d10b8d3344ac0323a7ee'
p122
sg12
S'xx90b9d2fe67808aa5534f965d005cde41'
p123
sg14
S'Mozilla/5.0 (Linux; Android 4.4.4; HM NOTE 1LTE Build/KTU84P) AppleWebKit/537.36 (KHTML, like Gecko) Version/4.0 Chrome/37.0.0.0 Mobile MQQBrowser/6.8 TBS/036849 Safari/537.36 MicroMessenger/6.3.27.880 NetType/WIFI Language/zh_CN'
p124
sg16
S'93d829f650aef3d304ed1c8260e0f005'
p125
sa(dp126
g2
S'37908'
p127
sg4
S'3997'
p128
sg6
S'cbb5213867fd345f0c9e699b16abb6cb'
p129
sg8
S'xxdf28c79488b6a440616a4df1a55bd125'
p130
sg10
S'xxf184c8f88197d10b8d3344ac0323a7ee'
p131
sg12
S'xx90b9d2fe67808aa5534f965d005cde41'
p132
sg14
S'Mozilla/5.0 (Linux; Android 4.4.4; HM NOTE 1LTE Build/KTU84P) AppleWebKit/537.36 (KHTML, like Gecko) Version/4.0 Chrome/37.0.0.0 Mobile MQQBrowser/6.8 TBS/036849 Safari/537.36 MicroMessenger/6.3.27.880 NetType/WIFI Language/zh_CN'
p133
sg16
S'93d829f650aef3d304ed1c8260e0f005'
p134
sa(dp135
g2
S'36232'
p136
sg4
S'5690'
p137
sg6
S'9066a8e191c07b8cfe9738e4a4ef5755'
p138
sg8
S'xx7e82c19dcb2f22986320b8397f85eb93'
p139
sg10
S'xxb3170eab56695e2338dc62c847e83266'
p140
sg12
S'xx90b9d2fe67808aa5534f965d005cde41'
p141
sg14
S'Mozilla/5.0 (Linux; Android 4.4.4; HM NOTE 1LTE Build/KTU84P) AppleWebKit/537.36 (KHTML, like Gecko) Version/4.0 Chrome/37.0.0.0 Mobile MQQBrowser/6.8 TBS/036849 Safari/537.36 MicroMessenger/6.3.25.861 NetType/cmnet Language/zh_CN'
p142
sg16
S'3e72e703230a3645158f92454fe6a5af'
p143
sa(dp144
g2
S'36232'
p145
sg4
S'5706'
p146
sg6
S'9066a8e191c07b8cfe9738e4a4ef5755'
p147
sg8
S'xx7e82c19dcb2f22986320b8397f85eb93'
p148
sg10
S'xxb3170eab56695e2338dc62c847e83266'
p149
sg12
S'xx90b9d2fe67808aa5534f965d005cde41'
p150
sg14
S'Mozilla/5.0 (Linux; Android 4.4.4; HM NOTE 1LTE Build/KTU84P) AppleWebKit/537.36 (KHTML, like Gecko) Version/4.0 Chrome/37.0.0.0 Mobile MQQBrowser/6.8 TBS/036849 Safari/537.36 MicroMessenger/6.3.25.861 NetType/cmnet Language/zh_CN'
p151
sg16
S'3e72e703230a3645158f92454fe6a5af'
p152
sa(dp153
g2
S'36232'
p154
sg4
S'5784'
p155
sg6
S'9066a8e191c07b8cfe9738e4a4ef5755'
p156
sg8
S'xx7e82c19dcb2f22986320b8397f85eb93'
p157
sg10
S'xxb3170eab56695e2338dc62c847e83266'
p158
sg12
S'xx90b9d2fe67808aa5534f965d005cde41'
p159
sg14
S'Mozilla/5.0 (Linux; Android 4.4.4; HM NOTE 1LTE Build/KTU84P) AppleWebKit/537.36 (KHTML, like Gecko) Version/4.0 Chrome/37.0.0.0 Mobile MQQBrowser/6.8 TBS/036849 Safari/537.36 MicroMessenger/6.3.25.861 NetType/cmnet Language/zh_CN'
p160
sg16
S'3e72e703230a3645158f92454fe6a5af'
p161
sa(dp162
g2
S'36232'
p163
sg4
S'5979'
p164
sg6
S'9066a8e191c07b8cfe9738e4a4ef5755'
p165
sg8
S'xx7e82c19dcb2f22986320b8397f85eb93'
p166
sg10
S'xxb3170eab56695e2338dc62c847e83266'
p167
sg12
S'xx90b9d2fe67808aa5534f965d005cde41'
p168
sg14
S'Mozilla/5.0 (Linux; Android 4.4.4; HM NOTE 1LTE Build/KTU84P) AppleWebKit/537.36 (KHTML, like Gecko) Version/4.0 Chrome/37.0.0.0 Mobile MQQBrowser/6.8 TBS/036849 Safari/537.36 MicroMessenger/6.3.25.861 NetType/cmnet Language/zh_CN'
p169
sg16
S'3e72e703230a3645158f92454fe6a5af'
p170
sa(dp171
g2
S'34027'
p172
sg4
S'6061'
p173
sg6
S'5d46bd510df8e12954dc9ce0b6b18ebe'
p174
sg8
S'xxfc69fe491cc21e60a1517c2481e16f5c'
p175
sg10
S'xxf184c8f88197d10b8d3344ac0323a7ee'
p176
sg12
S'xx90b9d2fe67808aa5534f965d005cde41'
p177
sg14
S'Mozilla/5.0 (Linux; Android 4.4.4; HM NOTE 1LTE Build/KTU84P) AppleWebKit/537.36 (KHTML, like Gecko) Version/4.0 Chrome/37.0.0.0 Mobile MQQBrowser/6.8 TBS/036824 Safari/537.36 MicroMessenger/6.3.27.880 NetType/WIFI Language/zh_CN'
p178
sg16
S'40f3121e3fadfa94403c3de03b9fd766'
p179
sa(dp180
g2
S'34027'
p181
sg4
S'6076'
p182
sg6
S'5d46bd510df8e12954dc9ce0b6b18ebe'
p183
sg8
S'xxfc69fe491cc21e60a1517c2481e16f5c'
p184
sg10
S'xxf184c8f88197d10b8d3344ac0323a7ee'
p185
sg12
S'xx90b9d2fe67808aa5534f965d005cde41'
p186
sg14
S'Mozilla/5.0 (Linux; Android 4.4.4; HM NOTE 1LTE Build/KTU84P) AppleWebKit/537.36 (KHTML, like Gecko) Version/4.0 Chrome/37.0.0.0 Mobile MQQBrowser/6.8 TBS/036824 Safari/537.36 MicroMessenger/6.3.27.880 NetType/WIFI Language/zh_CN'
p187
sg16
S'40f3121e3fadfa94403c3de03b9fd766'
p188
sa(dp189
g2
S'34027'
p190
sg4
S'6094'
p191
sg6
S'5d46bd510df8e12954dc9ce0b6b18ebe'
p192
sg8
S'xxfc69fe491cc21e60a1517c2481e16f5c'
p193
sg10
S'xxf184c8f88197d10b8d3344ac0323a7ee'
p194
sg12
S'xx90b9d2fe67808aa5534f965d005cde41'
p195
sg14
S'Mozilla/5.0 (Linux; Android 4.4.4; HM NOTE 1LTE Build/KTU84P) AppleWebKit/537.36 (KHTML, like Gecko) Version/4.0 Chrome/37.0.0.0 Mobile MQQBrowser/6.8 TBS/036824 Safari/537.36 MicroMessenger/6.3.27.880 NetType/WIFI Language/zh_CN'
p196
sg16
S'40f3121e3fadfa94403c3de03b9fd766'
p197
sa(dp198
g2
S'49824'
p199
sg4
S'6994'
p200
sg6
S'83f5d8cfcd78f29466dca6167994ebe7'
p201
sg8
S'xxcb2e5bb475652bf610f7fcb4de7cb883'
p202
sg10
S'xxf184c8f88197d10b8d3344ac0323a7ee'
p203
sg12
S'xx90b9d2fe67808aa5534f965d005cde41'
p204
sg14
S'Mozilla/5.0 (Linux; Android 4.4.4; HM NOTE 1LTE Build/KTU84P) AppleWebKit/537.36 (KHTML, like Gecko) Version/4.0 Chrome/37.0.0.0 Mobile MQQBrowser/6.8 TBS/036869 Safari/537.36 MicroMessenger/6.3.27.880 NetType/WIFI Language/zh_CN'
p205
sg16
S'a49be9430a5b2f3c63a6aedec75041a6'
p206
sa(dp207
g2
S'49824'
p208
sg4
S'7009'
p209
sg6
S'83f5d8cfcd78f29466dca6167994ebe7'
p210
sg8
S'xxcb2e5bb475652bf610f7fcb4de7cb883'
p211
sg10
S'xxf184c8f88197d10b8d3344ac0323a7ee'
p212
sg12
S'xx90b9d2fe67808aa5534f965d005cde41'
p213
sg14
S'Mozilla/5.0 (Linux; Android 4.4.4; HM NOTE 1LTE Build/KTU84P) AppleWebKit/537.36 (KHTML, like Gecko) Version/4.0 Chrome/37.0.0.0 Mobile MQQBrowser/6.8 TBS/036869 Safari/537.36 MicroMessenger/6.3.27.880 NetType/WIFI Language/zh_CN'
p214
sg16
S'a49be9430a5b2f3c63a6aedec75041a6'
p215
sa(dp216
g2
S'49824'
p217
sg4
S'7023'
p218
sg6
S'83f5d8cfcd78f29466dca6167994ebe7'
p219
sg8
S'xxcb2e5bb475652bf610f7fcb4de7cb883'
p220
sg10
S'xxf184c8f88197d10b8d3344ac0323a7ee'
p221
sg12
S'xx90b9d2fe67808aa5534f965d005cde41'
p222
sg14
S'Mozilla/5.0 (Linux; Android 4.4.4; HM NOTE 1LTE Build/KTU84P) AppleWebKit/537.36 (KHTML, like Gecko) Version/4.0 Chrome/37.0.0.0 Mobile MQQBrowser/6.8 TBS/036869 Safari/537.36 MicroMessenger/6.3.27.880 NetType/WIFI Language/zh_CN'
p223
sg16
S'a49be9430a5b2f3c63a6aedec75041a6'
p224
sa(dp225
g2
S'49824'
p226
sg4
S'7039'
p227
sg6
S'83f5d8cfcd78f29466dca6167994ebe7'
p228
sg8
S'xxcb2e5bb475652bf610f7fcb4de7cb883'
p229
sg10
S'xxf184c8f88197d10b8d3344ac0323a7ee'
p230
sg12
S'xx90b9d2fe67808aa5534f965d005cde41'
p231
sg14
S'Mozilla/5.0 (Linux; Android 4.4.4; HM NOTE 1LTE Build/KTU84P) AppleWebKit/537.36 (KHTML, like Gecko) Version/4.0 Chrome/37.0.0.0 Mobile MQQBrowser/6.8 TBS/036869 Safari/537.36 MicroMessenger/6.3.27.880 NetType/WIFI Language/zh_CN'
p232
sg16
S'a49be9430a5b2f3c63a6aedec75041a6'
p233
sa(dp234
g2
S'49824'
p235
sg4
S'7054'
p236
sg6
S'83f5d8cfcd78f29466dca6167994ebe7'
p237
sg8
S'xxcb2e5bb475652bf610f7fcb4de7cb883'
p238
sg10
S'xxf184c8f88197d10b8d3344ac0323a7ee'
p239
sg12
S'xx90b9d2fe67808aa5534f965d005cde41'
p240
sg14
S'Mozilla/5.0 (Linux; Android 4.4.4; HM NOTE 1LTE Build/KTU84P) AppleWebKit/537.36 (KHTML, like Gecko) Version/4.0 Chrome/37.0.0.0 Mobile MQQBrowser/6.8 TBS/036869 Safari/537.36 MicroMessenger/6.3.27.880 NetType/WIFI Language/zh_CN'
p241
sg16
S'a49be9430a5b2f3c63a6aedec75041a6'
p242
sa(dp243
g2
S'36207'
p244
sg4
S'7605'
p245
sg6
S'9066a8e191c07b8cfe9738e4a4ef5755'
p246
sg8
S'xx7e82c19dcb2f22986320b8397f85eb93'
p247
sg10
S'xxb3170eab56695e2338dc62c847e83266'
p248
sg12
S'xx90b9d2fe67808aa5534f965d005cde41'
p249
sg14
S'Mozilla/5.0 (Linux; Android 4.4.4; HM NOTE 1LTE Build/KTU84P) AppleWebKit/537.36 (KHTML, like Gecko) Version/4.0 Chrome/37.0.0.0 Mobile MQQBrowser/6.8 TBS/036849 Safari/537.36 MicroMessenger/6.3.25.861 NetType/cmnet Language/zh_CN'
p250
sg16
S'3e72e703230a3645158f92454fe6a5af'
p251
sa(dp252
g2
S'36207'
p253
sg4
S'7615'
p254
sg6
S'9066a8e191c07b8cfe9738e4a4ef5755'
p255
sg8
S'xx7e82c19dcb2f22986320b8397f85eb93'
p256
sg10
S'xxb3170eab56695e2338dc62c847e83266'
p257
sg12
S'xx90b9d2fe67808aa5534f965d005cde41'
p258
sg14
S'Mozilla/5.0 (Linux; Android 4.4.4; HM NOTE 1LTE Build/KTU84P) AppleWebKit/537.36 (KHTML, like Gecko) Version/4.0 Chrome/37.0.0.0 Mobile MQQBrowser/6.8 TBS/036849 Safari/537.36 MicroMessenger/6.3.25.861 NetType/cmnet Language/zh_CN'
p259
sg16
S'3e72e703230a3645158f92454fe6a5af'
p260
sa(dp261
g2
S'36207'
p262
sg4
S'7629'
p263
sg6
S'9066a8e191c07b8cfe9738e4a4ef5755'
p264
sg8
S'xx7e82c19dcb2f22986320b8397f85eb93'
p265
sg10
S'xxb3170eab56695e2338dc62c847e83266'
p266
sg12
S'xx90b9d2fe67808aa5534f965d005cde41'
p267
sg14
S'Mozilla/5.0 (Linux; Android 4.4.4; HM NOTE 1LTE Build/KTU84P) AppleWebKit/537.36 (KHTML, like Gecko) Version/4.0 Chrome/37.0.0.0 Mobile MQQBrowser/6.8 TBS/036849 Safari/537.36 MicroMessenger/6.3.25.861 NetType/cmnet Language/zh_CN'
p268
sg16
S'3e72e703230a3645158f92454fe6a5af'
p269
sa(dp270
g2
S'36207'
p271
sg4
S'7639'
p272
sg6
S'9066a8e191c07b8cfe9738e4a4ef5755'
p273
sg8
S'xx7e82c19dcb2f22986320b8397f85eb93'
p274
sg10
S'xxb3170eab56695e2338dc62c847e83266'
p275
sg12
S'xx90b9d2fe67808aa5534f965d005cde41'
p276
sg14
S'Mozilla/5.0 (Linux; Android 4.4.4; HM NOTE 1LTE Build/KTU84P) AppleWebKit/537.36 (KHTML, like Gecko) Version/4.0 Chrome/37.0.0.0 Mobile MQQBrowser/6.8 TBS/036849 Safari/537.36 MicroMessenger/6.3.25.861 NetType/cmnet Language/zh_CN'
p277
sg16
S'3e72e703230a3645158f92454fe6a5af'
p278
sa(dp279
g2
S'36207'
p280
sg4
S'7649'
p281
sg6
S'9066a8e191c07b8cfe9738e4a4ef5755'
p282
sg8
S'xx7e82c19dcb2f22986320b8397f85eb93'
p283
sg10
S'xxb3170eab56695e2338dc62c847e83266'
p284
sg12
S'xx90b9d2fe67808aa5534f965d005cde41'
p285
sg14
S'Mozilla/5.0 (Linux; Android 4.4.4; HM NOTE 1LTE Build/KTU84P) AppleWebKit/537.36 (KHTML, like Gecko) Version/4.0 Chrome/37.0.0.0 Mobile MQQBrowser/6.8 TBS/036849 Safari/537.36 MicroMessenger/6.3.25.861 NetType/cmnet Language/zh_CN'
p286
sg16
S'3e72e703230a3645158f92454fe6a5af'
p287
sa(dp288
g2
S'36207'
p289
sg4
S'7660'
p290
sg6
S'9066a8e191c07b8cfe9738e4a4ef5755'
p291
sg8
S'xx7e82c19dcb2f22986320b8397f85eb93'
p292
sg10
S'xxb3170eab56695e2338dc62c847e83266'
p293
sg12
S'xx90b9d2fe67808aa5534f965d005cde41'
p294
sg14
S'Mozilla/5.0 (Linux; Android 4.4.4; HM NOTE 1LTE Build/KTU84P) AppleWebKit/537.36 (KHTML, like Gecko) Version/4.0 Chrome/37.0.0.0 Mobile MQQBrowser/6.8 TBS/036849 Safari/537.36 MicroMessenger/6.3.25.861 NetType/cmnet Language/zh_CN'
p295
sg16
S'3e72e703230a3645158f92454fe6a5af'
p296
sa(dp297
g2
S'40082'
p298
sg4
S'7667'
p299
sg6
S'567a48f383bf8ae54546d6f84c4dd08c'
p300
sg8
S'xx180f4f5fd4ec791f605a221d7f3a2d4d'
p301
sg10
S'xxc7c43528ca827712e366797f14e4ce28'
p302
sg12
S'xx90b9d2fe67808aa5534f965d005cde41'
p303
sg14
S'Mozilla/5.0 (Linux; Android 4.4.4; HM NOTE 1LTE Build/KTU84P) AppleWebKit/537.36 (KHTML, like Gecko) Version/4.0 Chrome/37.0.0.0 Mobile MQQBrowser/6.8 TBS/036849 Safari/537.36 MicroMessenger/6.3.27.880 NetType/WIFI Language/zh_CN'
p304
sg16
S'93d829f650aef3d304ed1c8260e0f005'
p305
sa(dp306
g2
S'36207'
p307
sg4
S'7673'
p308
sg6
S'9066a8e191c07b8cfe9738e4a4ef5755'
p309
sg8
S'xx7e82c19dcb2f22986320b8397f85eb93'
p310
sg10
S'xxb3170eab56695e2338dc62c847e83266'
p311
sg12
S'xx90b9d2fe67808aa5534f965d005cde41'
p312
sg14
S'Mozilla/5.0 (Linux; Android 4.4.4; HM NOTE 1LTE Build/KTU84P) AppleWebKit/537.36 (KHTML, like Gecko) Version/4.0 Chrome/37.0.0.0 Mobile MQQBrowser/6.8 TBS/036849 Safari/537.36 MicroMessenger/6.3.25.861 NetType/cmnet Language/zh_CN'
p313
sg16
S'3e72e703230a3645158f92454fe6a5af'
p314
sa(dp315
g2
S'40082'
p316
sg4
S'7678'
p317
sg6
S'567a48f383bf8ae54546d6f84c4dd08c'
p318
sg8
S'xx180f4f5fd4ec791f605a221d7f3a2d4d'
p319
sg10
S'xxc7c43528ca827712e366797f14e4ce28'
p320
sg12
S'xx90b9d2fe67808aa5534f965d005cde41'
p321
sg14
S'Mozilla/5.0 (Linux; Android 4.4.4; HM NOTE 1LTE Build/KTU84P) AppleWebKit/537.36 (KHTML, like Gecko) Version/4.0 Chrome/37.0.0.0 Mobile MQQBrowser/6.8 TBS/036849 Safari/537.36 MicroMessenger/6.3.27.880 NetType/WIFI Language/zh_CN'
p322
sg16
S'93d829f650aef3d304ed1c8260e0f005'
p323
sa(dp324
g2
S'36207'
p325
sg4
S'7683'
p326
sg6
S'9066a8e191c07b8cfe9738e4a4ef5755'
p327
sg8
S'xx7e82c19dcb2f22986320b8397f85eb93'
p328
sg10
S'xxb3170eab56695e2338dc62c847e83266'
p329
sg12
S'xx90b9d2fe67808aa5534f965d005cde41'
p330
sg14
S'Mozilla/5.0 (Linux; Android 4.4.4; HM NOTE 1LTE Build/KTU84P) AppleWebKit/537.36 (KHTML, like Gecko) Version/4.0 Chrome/37.0.0.0 Mobile MQQBrowser/6.8 TBS/036849 Safari/537.36 MicroMessenger/6.3.25.861 NetType/cmnet Language/zh_CN'
p331
sg16
S'3e72e703230a3645158f92454fe6a5af'
p332
sa(dp333
g2
S'40082'
p334
sg4
S'7687'
p335
sg6
S'567a48f383bf8ae54546d6f84c4dd08c'
p336
sg8
S'xx180f4f5fd4ec791f605a221d7f3a2d4d'
p337
sg10
S'xxc7c43528ca827712e366797f14e4ce28'
p338
sg12
S'xx90b9d2fe67808aa5534f965d005cde41'
p339
sg14
S'Mozilla/5.0 (Linux; Android 4.4.4; HM NOTE 1LTE Build/KTU84P) AppleWebKit/537.36 (KHTML, like Gecko) Version/4.0 Chrome/37.0.0.0 Mobile MQQBrowser/6.8 TBS/036849 Safari/537.36 MicroMessenger/6.3.27.880 NetType/WIFI Language/zh_CN'
p340
sg16
S'93d829f650aef3d304ed1c8260e0f005'
p341
sa(dp342
g2
S'36207'
p343
sg4
S'7692'
p344
sg6
S'9066a8e191c07b8cfe9738e4a4ef5755'
p345
sg8
S'xx7e82c19dcb2f22986320b8397f85eb93'
p346
sg10
S'xxb3170eab56695e2338dc62c847e83266'
p347
sg12
S'xx90b9d2fe67808aa5534f965d005cde41'
p348
sg14
S'Mozilla/5.0 (Linux; Android 4.4.4; HM NOTE 1LTE Build/KTU84P) AppleWebKit/537.36 (KHTML, like Gecko) Version/4.0 Chrome/37.0.0.0 Mobile MQQBrowser/6.8 TBS/036849 Safari/537.36 MicroMessenger/6.3.25.861 NetType/cmnet Language/zh_CN'
p349
sg16
S'3e72e703230a3645158f92454fe6a5af'
p350
sa(dp351
g2
S'40082'
p352
sg4
S'7697'
p353
sg6
S'567a48f383bf8ae54546d6f84c4dd08c'
p354
sg8
S'xx180f4f5fd4ec791f605a221d7f3a2d4d'
p355
sg10
S'xxc7c43528ca827712e366797f14e4ce28'
p356
sg12
S'xx90b9d2fe67808aa5534f965d005cde41'
p357
sg14
S'Mozilla/5.0 (Linux; Android 4.4.4; HM NOTE 1LTE Build/KTU84P) AppleWebKit/537.36 (KHTML, like Gecko) Version/4.0 Chrome/37.0.0.0 Mobile MQQBrowser/6.8 TBS/036849 Safari/537.36 MicroMessenger/6.3.27.880 NetType/WIFI Language/zh_CN'
p358
sg16
S'93d829f650aef3d304ed1c8260e0f005'
p359
sa(dp360
g2
S'36207'
p361
sg4
S'7703'
p362
sg6
S'9066a8e191c07b8cfe9738e4a4ef5755'
p363
sg8
S'xx7e82c19dcb2f22986320b8397f85eb93'
p364
sg10
S'xxb3170eab56695e2338dc62c847e83266'
p365
sg12
S'xx90b9d2fe67808aa5534f965d005cde41'
p366
sg14
S'Mozilla/5.0 (Linux; Android 4.4.4; HM NOTE 1LTE Build/KTU84P) AppleWebKit/537.36 (KHTML, like Gecko) Version/4.0 Chrome/37.0.0.0 Mobile MQQBrowser/6.8 TBS/036849 Safari/537.36 MicroMessenger/6.3.25.861 NetType/cmnet Language/zh_CN'
p367
sg16
S'3e72e703230a3645158f92454fe6a5af'
p368
sa(dp369
g2
S'36207'
p370
sg4
S'7713'
p371
sg6
S'9066a8e191c07b8cfe9738e4a4ef5755'
p372
sg8
S'xx7e82c19dcb2f22986320b8397f85eb93'
p373
sg10
S'xxb3170eab56695e2338dc62c847e83266'
p374
sg12
S'xx90b9d2fe67808aa5534f965d005cde41'
p375
sg14
S'Mozilla/5.0 (Linux; Android 4.4.4; HM NOTE 1LTE Build/KTU84P) AppleWebKit/537.36 (KHTML, like Gecko) Version/4.0 Chrome/37.0.0.0 Mobile MQQBrowser/6.8 TBS/036849 Safari/537.36 MicroMessenger/6.3.25.861 NetType/cmnet Language/zh_CN'
p376
sg16
S'3e72e703230a3645158f92454fe6a5af'
p377
sa(dp378
g2
S'36207'
p379
sg4
S'7726'
p380
sg6
S'9066a8e191c07b8cfe9738e4a4ef5755'
p381
sg8
S'xx7e82c19dcb2f22986320b8397f85eb93'
p382
sg10
S'xxb3170eab56695e2338dc62c847e83266'
p383
sg12
S'xx90b9d2fe67808aa5534f965d005cde41'
p384
sg14
S'Mozilla/5.0 (Linux; Android 4.4.4; HM NOTE 1LTE Build/KTU84P) AppleWebKit/537.36 (KHTML, like Gecko) Version/4.0 Chrome/37.0.0.0 Mobile MQQBrowser/6.8 TBS/036849 Safari/537.36 MicroMessenger/6.3.25.861 NetType/cmnet Language/zh_CN'
p385
sg16
S'3e72e703230a3645158f92454fe6a5af'
p386
sa(dp387
g2
S'36207'
p388
sg4
S'7738'
p389
sg6
S'9066a8e191c07b8cfe9738e4a4ef5755'
p390
sg8
S'xx7e82c19dcb2f22986320b8397f85eb93'
p391
sg10
S'xxb3170eab56695e2338dc62c847e83266'
p392
sg12
S'xx90b9d2fe67808aa5534f965d005cde41'
p393
sg14
S'Mozilla/5.0 (Linux; Android 4.4.4; HM NOTE 1LTE Build/KTU84P) AppleWebKit/537.36 (KHTML, like Gecko) Version/4.0 Chrome/37.0.0.0 Mobile MQQBrowser/6.8 TBS/036849 Safari/537.36 MicroMessenger/6.3.25.861 NetType/cmnet Language/zh_CN'
p394
sg16
S'3e72e703230a3645158f92454fe6a5af'
p395
sa(dp396
g2
S'36207'
p397
sg4
S'7755'
p398
sg6
S'9066a8e191c07b8cfe9738e4a4ef5755'
p399
sg8
S'xx7e82c19dcb2f22986320b8397f85eb93'
p400
sg10
S'xxb3170eab56695e2338dc62c847e83266'
p401
sg12
S'xx90b9d2fe67808aa5534f965d005cde41'
p402
sg14
S'Mozilla/5.0 (Linux; Android 4.4.4; HM NOTE 1LTE Build/KTU84P) AppleWebKit/537.36 (KHTML, like Gecko) Version/4.0 Chrome/37.0.0.0 Mobile MQQBrowser/6.8 TBS/036849 Safari/537.36 MicroMessenger/6.3.25.861 NetType/cmnet Language/zh_CN'
p403
sg16
S'3e72e703230a3645158f92454fe6a5af'
p404
sa(dp405
g2
S'36207'
p406
sg4
S'7771'
p407
sg6
S'9066a8e191c07b8cfe9738e4a4ef5755'
p408
sg8
S'xx7e82c19dcb2f22986320b8397f85eb93'
p409
sg10
S'xxb3170eab56695e2338dc62c847e83266'
p410
sg12
S'xx90b9d2fe67808aa5534f965d005cde41'
p411
sg14
S'Mozilla/5.0 (Linux; Android 4.4.4; HM NOTE 1LTE Build/KTU84P) AppleWebKit/537.36 (KHTML, like Gecko) Version/4.0 Chrome/37.0.0.0 Mobile MQQBrowser/6.8 TBS/036849 Safari/537.36 MicroMessenger/6.3.25.861 NetType/cmnet Language/zh_CN'
p412
sg16
S'3e72e703230a3645158f92454fe6a5af'
p413
sa(dp414
g2
S'36207'
p415
sg4
S'7782'
p416
sg6
S'9066a8e191c07b8cfe9738e4a4ef5755'
p417
sg8
S'xx7e82c19dcb2f22986320b8397f85eb93'
p418
sg10
S'xxb3170eab56695e2338dc62c847e83266'
p419
sg12
S'xx90b9d2fe67808aa5534f965d005cde41'
p420
sg14
S'Mozilla/5.0 (Linux; Android 4.4.4; HM NOTE 1LTE Build/KTU84P) AppleWebKit/537.36 (KHTML, like Gecko) Version/4.0 Chrome/37.0.0.0 Mobile MQQBrowser/6.8 TBS/036849 Safari/537.36 MicroMessenger/6.3.25.861 NetType/cmnet Language/zh_CN'
p421
sg16
S'3e72e703230a3645158f92454fe6a5af'
p422
sa(dp423
g2
S'36207'
p424
sg4
S'7799'
p425
sg6
S'9066a8e191c07b8cfe9738e4a4ef5755'
p426
sg8
S'xx7e82c19dcb2f22986320b8397f85eb93'
p427
sg10
S'xxb3170eab56695e2338dc62c847e83266'
p428
sg12
S'xx90b9d2fe67808aa5534f965d005cde41'
p429
sg14
S'Mozilla/5.0 (Linux; Android 4.4.4; HM NOTE 1LTE Build/KTU84P) AppleWebKit/537.36 (KHTML, like Gecko) Version/4.0 Chrome/37.0.0.0 Mobile MQQBrowser/6.8 TBS/036849 Safari/537.36 MicroMessenger/6.3.25.861 NetType/cmnet Language/zh_CN'
p430
sg16
S'3e72e703230a3645158f92454fe6a5af'
p431
sa(dp432
g2
S'36207'
p433
sg4
S'7833'
p434
sg6
S'9066a8e191c07b8cfe9738e4a4ef5755'
p435
sg8
S'xx7e82c19dcb2f22986320b8397f85eb93'
p436
sg10
S'xxb3170eab56695e2338dc62c847e83266'
p437
sg12
S'xx90b9d2fe67808aa5534f965d005cde41'
p438
sg14
S'Mozilla/5.0 (Linux; Android 4.4.4; HM NOTE 1LTE Build/KTU84P) AppleWebKit/537.36 (KHTML, like Gecko) Version/4.0 Chrome/37.0.0.0 Mobile MQQBrowser/6.8 TBS/036849 Safari/537.36 MicroMessenger/6.3.25.861 NetType/cmnet Language/zh_CN'
p439
sg16
S'3e72e703230a3645158f92454fe6a5af'
p440
sa(dp441
g2
S'36207'
p442
sg4
S'7874'
p443
sg6
S'9066a8e191c07b8cfe9738e4a4ef5755'
p444
sg8
S'xx7e82c19dcb2f22986320b8397f85eb93'
p445
sg10
S'xxb3170eab56695e2338dc62c847e83266'
p446
sg12
S'xx90b9d2fe67808aa5534f965d005cde41'
p447
sg14
S'Mozilla/5.0 (Linux; Android 4.4.4; HM NOTE 1LTE Build/KTU84P) AppleWebKit/537.36 (KHTML, like Gecko) Version/4.0 Chrome/37.0.0.0 Mobile MQQBrowser/6.8 TBS/036849 Safari/537.36 MicroMessenger/6.3.25.861 NetType/cmnet Language/zh_CN'
p448
sg16
S'3e72e703230a3645158f92454fe6a5af'
p449
sa.