(lp0
(dp1
S'user_id'
p2
S'47670'
p3
sS'data_id'
p4
S'8264'
p5
sS'ip'
p6
S'606e41078572df9e47b9f117d7b55518'
p7
sS'phone_B'
p8
S'xxd90d3fb88d1f3d72a7fd4d4634e27f58'
p9
sS'phone_C'
p10
S'xxd106300ff461d0201462db42829ecebc'
p11
sS'phone_A'
p12
S'xx9194d443bf2be4574e5e9fa7f054a07f'
p13
sS'user_agent'
p14
S'Mozilla/5.0 (Linux; Android 4.4.4; 3005 Build/KTU84P) AppleWebKit/537.36 (KHTML, like Gecko) Version/4.0 Chrome/37.0.0.0 Mobile MQQBrowser/6.8 TBS/036849 Safari/537.36 MicroMessenger/6.3.27.880 NetType/ctlte Language/zh_CN'
p15
sS'ua'
p16
S'd4f1b91efffca87ee0ed5258e38cf0ed'
p17
sa(dp18
g2
S'47670'
p19
sg4
S'8279'
p20
sg6
S'606e41078572df9e47b9f117d7b55518'
p21
sg8
S'xxd90d3fb88d1f3d72a7fd4d4634e27f58'
p22
sg10
S'xxd106300ff461d0201462db42829ecebc'
p23
sg12
S'xx9194d443bf2be4574e5e9fa7f054a07f'
p24
sg14
S'Mozilla/5.0 (Linux; Android 4.4.4; 3005 Build/KTU84P) AppleWebKit/537.36 (KHTML, like Gecko) Version/4.0 Chrome/37.0.0.0 Mobile MQQBrowser/6.8 TBS/036849 Safari/537.36 MicroMessenger/6.3.27.880 NetType/ctlte Language/zh_CN'
p25
sg16
S'd4f1b91efffca87ee0ed5258e38cf0ed'
p26
sa(dp27
g2
S'47670'
p28
sg4
S'8293'
p29
sg6
S'606e41078572df9e47b9f117d7b55518'
p30
sg8
S'xxd90d3fb88d1f3d72a7fd4d4634e27f58'
p31
sg10
S'xxd106300ff461d0201462db42829ecebc'
p32
sg12
S'xx9194d443bf2be4574e5e9fa7f054a07f'
p33
sg14
S'Mozilla/5.0 (Linux; Android 4.4.4; 3005 Build/KTU84P) AppleWebKit/537.36 (KHTML, like Gecko) Version/4.0 Chrome/37.0.0.0 Mobile MQQBrowser/6.8 TBS/036849 Safari/537.36 MicroMessenger/6.3.27.880 NetType/ctlte Language/zh_CN'
p34
sg16
S'd4f1b91efffca87ee0ed5258e38cf0ed'
p35
sa.