(lp0
(dp1
S'user_id'
p2
S'10744'
p3
sS'data_id'
p4
S'1222'
p5
sS'ip'
p6
S'da7086e6f9d0bcdbe59093fb0ab74de1'
p7
sS'phone_B'
p8
S'xx94c67c884823884ca5381dd2e1e1a9f0'
p9
sS'phone_C'
p10
S'xxa2688a2f031d413266952588af165010'
p11
sS'phone_A'
p12
S'xx92a88356142840c7e9a58290c9de2a0c'
p13
sS'user_agent'
p14
S'Mozilla/5.0 (Linux; Android 5.1; GN9010 Build/LMY47D) AppleWebKit/537.36 (KHTML, like Gecko) Version/4.0 Chrome/37.0.0.0 Mobile MQQBrowser/6.8 TBS/036869 Safari/537.36 MicroMessenger/6.3.27.880 NetType/WIFI Language/zh_CN'
p15
sS'ua'
p16
S'6493ab4d3cd8f705ad81c8f0aad2342f'
p17
sa(dp18
g2
S'10744'
p19
sg4
S'1238'
p20
sg6
S'da7086e6f9d0bcdbe59093fb0ab74de1'
p21
sg8
S'xx94c67c884823884ca5381dd2e1e1a9f0'
p22
sg10
S'xxa2688a2f031d413266952588af165010'
p23
sg12
S'xx92a88356142840c7e9a58290c9de2a0c'
p24
sg14
S'Mozilla/5.0 (Linux; Android 5.1; GN9010 Build/LMY47D) AppleWebKit/537.36 (KHTML, like Gecko) Version/4.0 Chrome/37.0.0.0 Mobile MQQBrowser/6.8 TBS/036869 Safari/537.36 MicroMessenger/6.3.27.880 NetType/WIFI Language/zh_CN'
p25
sg16
S'6493ab4d3cd8f705ad81c8f0aad2342f'
p26
sa(dp27
g2
S'10744'
p28
sg4
S'1249'
p29
sg6
S'da7086e6f9d0bcdbe59093fb0ab74de1'
p30
sg8
S'xx94c67c884823884ca5381dd2e1e1a9f0'
p31
sg10
S'xxa2688a2f031d413266952588af165010'
p32
sg12
S'xx92a88356142840c7e9a58290c9de2a0c'
p33
sg14
S'Mozilla/5.0 (Linux; Android 5.1; GN9010 Build/LMY47D) AppleWebKit/537.36 (KHTML, like Gecko) Version/4.0 Chrome/37.0.0.0 Mobile MQQBrowser/6.8 TBS/036869 Safari/537.36 MicroMessenger/6.3.27.880 NetType/WIFI Language/zh_CN'
p34
sg16
S'6493ab4d3cd8f705ad81c8f0aad2342f'
p35
sa(dp36
g2
S'10744'
p37
sg4
S'1256'
p38
sg6
S'da7086e6f9d0bcdbe59093fb0ab74de1'
p39
sg8
S'xx94c67c884823884ca5381dd2e1e1a9f0'
p40
sg10
S'xxa2688a2f031d413266952588af165010'
p41
sg12
S'xx92a88356142840c7e9a58290c9de2a0c'
p42
sg14
S'Mozilla/5.0 (Linux; Android 5.1; GN9010 Build/LMY47D) AppleWebKit/537.36 (KHTML, like Gecko) Version/4.0 Chrome/37.0.0.0 Mobile MQQBrowser/6.8 TBS/036869 Safari/537.36 MicroMessenger/6.3.27.880 NetType/WIFI Language/zh_CN'
p43
sg16
S'6493ab4d3cd8f705ad81c8f0aad2342f'
p44
sa(dp45
g2
S'10744'
p46
sg4
S'1260'
p47
sg6
S'da7086e6f9d0bcdbe59093fb0ab74de1'
p48
sg8
S'xx94c67c884823884ca5381dd2e1e1a9f0'
p49
sg10
S'xxa2688a2f031d413266952588af165010'
p50
sg12
S'xx92a88356142840c7e9a58290c9de2a0c'
p51
sg14
S'Mozilla/5.0 (Linux; Android 5.1; GN9010 Build/LMY47D) AppleWebKit/537.36 (KHTML, like Gecko) Version/4.0 Chrome/37.0.0.0 Mobile MQQBrowser/6.8 TBS/036869 Safari/537.36 MicroMessenger/6.3.27.880 NetType/WIFI Language/zh_CN'
p52
sg16
S'6493ab4d3cd8f705ad81c8f0aad2342f'
p53
sa(dp54
g2
S'10744'
p55
sg4
S'1269'
p56
sg6
S'da7086e6f9d0bcdbe59093fb0ab74de1'
p57
sg8
S'xx94c67c884823884ca5381dd2e1e1a9f0'
p58
sg10
S'xxa2688a2f031d413266952588af165010'
p59
sg12
S'xx92a88356142840c7e9a58290c9de2a0c'
p60
sg14
S'Mozilla/5.0 (Linux; Android 5.1; GN9010 Build/LMY47D) AppleWebKit/537.36 (KHTML, like Gecko) Version/4.0 Chrome/37.0.0.0 Mobile MQQBrowser/6.8 TBS/036869 Safari/537.36 MicroMessenger/6.3.27.880 NetType/WIFI Language/zh_CN'
p61
sg16
S'6493ab4d3cd8f705ad81c8f0aad2342f'
p62
sa(dp63
g2
S'10744'
p64
sg4
S'1275'
p65
sg6
S'da7086e6f9d0bcdbe59093fb0ab74de1'
p66
sg8
S'xx94c67c884823884ca5381dd2e1e1a9f0'
p67
sg10
S'xxa2688a2f031d413266952588af165010'
p68
sg12
S'xx92a88356142840c7e9a58290c9de2a0c'
p69
sg14
S'Mozilla/5.0 (Linux; Android 5.1; GN9010 Build/LMY47D) AppleWebKit/537.36 (KHTML, like Gecko) Version/4.0 Chrome/37.0.0.0 Mobile MQQBrowser/6.8 TBS/036869 Safari/537.36 MicroMessenger/6.3.27.880 NetType/WIFI Language/zh_CN'
p70
sg16
S'6493ab4d3cd8f705ad81c8f0aad2342f'
p71
sa(dp72
g2
S'10744'
p73
sg4
S'1283'
p74
sg6
S'da7086e6f9d0bcdbe59093fb0ab74de1'
p75
sg8
S'xx94c67c884823884ca5381dd2e1e1a9f0'
p76
sg10
S'xxa2688a2f031d413266952588af165010'
p77
sg12
S'xx92a88356142840c7e9a58290c9de2a0c'
p78
sg14
S'Mozilla/5.0 (Linux; Android 5.1; GN9010 Build/LMY47D) AppleWebKit/537.36 (KHTML, like Gecko) Version/4.0 Chrome/37.0.0.0 Mobile MQQBrowser/6.8 TBS/036869 Safari/537.36 MicroMessenger/6.3.27.880 NetType/WIFI Language/zh_CN'
p79
sg16
S'6493ab4d3cd8f705ad81c8f0aad2342f'
p80
sa(dp81
g2
S'10744'
p82
sg4
S'1303'
p83
sg6
S'da7086e6f9d0bcdbe59093fb0ab74de1'
p84
sg8
S'xx94c67c884823884ca5381dd2e1e1a9f0'
p85
sg10
S'xxa2688a2f031d413266952588af165010'
p86
sg12
S'xx92a88356142840c7e9a58290c9de2a0c'
p87
sg14
S'Mozilla/5.0 (Linux; Android 5.1; GN9010 Build/LMY47D) AppleWebKit/537.36 (KHTML, like Gecko) Version/4.0 Chrome/37.0.0.0 Mobile MQQBrowser/6.8 TBS/036869 Safari/537.36 MicroMessenger/6.3.27.880 NetType/WIFI Language/zh_CN'
p88
sg16
S'6493ab4d3cd8f705ad81c8f0aad2342f'
p89
sa(dp90
g2
S'10744'
p91
sg4
S'1307'
p92
sg6
S'da7086e6f9d0bcdbe59093fb0ab74de1'
p93
sg8
S'xx94c67c884823884ca5381dd2e1e1a9f0'
p94
sg10
S'xxa2688a2f031d413266952588af165010'
p95
sg12
S'xx92a88356142840c7e9a58290c9de2a0c'
p96
sg14
S'Mozilla/5.0 (Linux; Android 5.1; GN9010 Build/LMY47D) AppleWebKit/537.36 (KHTML, like Gecko) Version/4.0 Chrome/37.0.0.0 Mobile MQQBrowser/6.8 TBS/036869 Safari/537.36 MicroMessenger/6.3.27.880 NetType/WIFI Language/zh_CN'
p97
sg16
S'6493ab4d3cd8f705ad81c8f0aad2342f'
p98
sa(dp99
g2
S'10744'
p100
sg4
S'1314'
p101
sg6
S'da7086e6f9d0bcdbe59093fb0ab74de1'
p102
sg8
S'xx94c67c884823884ca5381dd2e1e1a9f0'
p103
sg10
S'xxa2688a2f031d413266952588af165010'
p104
sg12
S'xx92a88356142840c7e9a58290c9de2a0c'
p105
sg14
S'Mozilla/5.0 (Linux; Android 5.1; GN9010 Build/LMY47D) AppleWebKit/537.36 (KHTML, like Gecko) Version/4.0 Chrome/37.0.0.0 Mobile MQQBrowser/6.8 TBS/036869 Safari/537.36 MicroMessenger/6.3.27.880 NetType/WIFI Language/zh_CN'
p106
sg16
S'6493ab4d3cd8f705ad81c8f0aad2342f'
p107
sa(dp108
g2
S'10744'
p109
sg4
S'1319'
p110
sg6
S'da7086e6f9d0bcdbe59093fb0ab74de1'
p111
sg8
S'xx94c67c884823884ca5381dd2e1e1a9f0'
p112
sg10
S'xxa2688a2f031d413266952588af165010'
p113
sg12
S'xx92a88356142840c7e9a58290c9de2a0c'
p114
sg14
S'Mozilla/5.0 (Linux; Android 5.1; GN9010 Build/LMY47D) AppleWebKit/537.36 (KHTML, like Gecko) Version/4.0 Chrome/37.0.0.0 Mobile MQQBrowser/6.8 TBS/036869 Safari/537.36 MicroMessenger/6.3.27.880 NetType/WIFI Language/zh_CN'
p115
sg16
S'6493ab4d3cd8f705ad81c8f0aad2342f'
p116
sa(dp117
g2
S'10744'
p118
sg4
S'1325'
p119
sg6
S'da7086e6f9d0bcdbe59093fb0ab74de1'
p120
sg8
S'xx94c67c884823884ca5381dd2e1e1a9f0'
p121
sg10
S'xxa2688a2f031d413266952588af165010'
p122
sg12
S'xx92a88356142840c7e9a58290c9de2a0c'
p123
sg14
S'Mozilla/5.0 (Linux; Android 5.1; GN9010 Build/LMY47D) AppleWebKit/537.36 (KHTML, like Gecko) Version/4.0 Chrome/37.0.0.0 Mobile MQQBrowser/6.8 TBS/036869 Safari/537.36 MicroMessenger/6.3.27.880 NetType/WIFI Language/zh_CN'
p124
sg16
S'6493ab4d3cd8f705ad81c8f0aad2342f'
p125
sa(dp126
g2
S'10744'
p127
sg4
S'1338'
p128
sg6
S'da7086e6f9d0bcdbe59093fb0ab74de1'
p129
sg8
S'xx94c67c884823884ca5381dd2e1e1a9f0'
p130
sg10
S'xxa2688a2f031d413266952588af165010'
p131
sg12
S'xx92a88356142840c7e9a58290c9de2a0c'
p132
sg14
S'Mozilla/5.0 (Linux; Android 5.1; GN9010 Build/LMY47D) AppleWebKit/537.36 (KHTML, like Gecko) Version/4.0 Chrome/37.0.0.0 Mobile MQQBrowser/6.8 TBS/036869 Safari/537.36 MicroMessenger/6.3.27.880 NetType/WIFI Language/zh_CN'
p133
sg16
S'6493ab4d3cd8f705ad81c8f0aad2342f'
p134
sa(dp135
g2
S'10744'
p136
sg4
S'1345'
p137
sg6
S'da7086e6f9d0bcdbe59093fb0ab74de1'
p138
sg8
S'xx94c67c884823884ca5381dd2e1e1a9f0'
p139
sg10
S'xxa2688a2f031d413266952588af165010'
p140
sg12
S'xx92a88356142840c7e9a58290c9de2a0c'
p141
sg14
S'Mozilla/5.0 (Linux; Android 5.1; GN9010 Build/LMY47D) AppleWebKit/537.36 (KHTML, like Gecko) Version/4.0 Chrome/37.0.0.0 Mobile MQQBrowser/6.8 TBS/036869 Safari/537.36 MicroMessenger/6.3.27.880 NetType/WIFI Language/zh_CN'
p142
sg16
S'6493ab4d3cd8f705ad81c8f0aad2342f'
p143
sa(dp144
g2
S'10744'
p145
sg4
S'1528'
p146
sg6
S'da7086e6f9d0bcdbe59093fb0ab74de1'
p147
sg8
S'xx94c67c884823884ca5381dd2e1e1a9f0'
p148
sg10
S'xxa2688a2f031d413266952588af165010'
p149
sg12
S'xx92a88356142840c7e9a58290c9de2a0c'
p150
sg14
S'Mozilla/5.0 (Linux; Android 5.1; GN9010 Build/LMY47D) AppleWebKit/537.36 (KHTML, like Gecko) Version/4.0 Chrome/37.0.0.0 Mobile MQQBrowser/6.8 TBS/036869 Safari/537.36 MicroMessenger/6.3.27.880 NetType/WIFI Language/zh_CN'
p151
sg16
S'6493ab4d3cd8f705ad81c8f0aad2342f'
p152
sa(dp153
g2
S'10744'
p154
sg4
S'1537'
p155
sg6
S'da7086e6f9d0bcdbe59093fb0ab74de1'
p156
sg8
S'xx94c67c884823884ca5381dd2e1e1a9f0'
p157
sg10
S'xxa2688a2f031d413266952588af165010'
p158
sg12
S'xx92a88356142840c7e9a58290c9de2a0c'
p159
sg14
S'Mozilla/5.0 (Linux; Android 5.1; GN9010 Build/LMY47D) AppleWebKit/537.36 (KHTML, like Gecko) Version/4.0 Chrome/37.0.0.0 Mobile MQQBrowser/6.8 TBS/036869 Safari/537.36 MicroMessenger/6.3.27.880 NetType/WIFI Language/zh_CN'
p160
sg16
S'6493ab4d3cd8f705ad81c8f0aad2342f'
p161
sa(dp162
g2
S'26638'
p163
sg4
S'2348'
p164
sg6
S'b913b9ef15a43e6bd716ba42c6ca37e4'
p165
sg8
S'xx658575e67d5710692a1b96491a583c7d'
p166
sg10
S'xxa2688a2f031d413266952588af165010'
p167
sg12
S'xx92a88356142840c7e9a58290c9de2a0c'
p168
sg14
S'Mozilla/5.0 (Linux; Android 5.1; GN9010 Build/LMY47D) AppleWebKit/537.36 (KHTML, like Gecko) Version/4.0 Chrome/37.0.0.0 Mobile MQQBrowser/6.8 TBS/036849 Safari/537.36 MicroMessenger/6.3.27.880 NetType/WIFI Language/zh_CN'
p169
sg16
S'528f1ada105155709946325f10695403'
p170
sa(dp171
g2
S'26638'
p172
sg4
S'2368'
p173
sg6
S'b913b9ef15a43e6bd716ba42c6ca37e4'
p174
sg8
S'xx658575e67d5710692a1b96491a583c7d'
p175
sg10
S'xxa2688a2f031d413266952588af165010'
p176
sg12
S'xx92a88356142840c7e9a58290c9de2a0c'
p177
sg14
S'Mozilla/5.0 (Linux; Android 5.1; GN9010 Build/LMY47D) AppleWebKit/537.36 (KHTML, like Gecko) Version/4.0 Chrome/37.0.0.0 Mobile MQQBrowser/6.8 TBS/036849 Safari/537.36 MicroMessenger/6.3.27.880 NetType/WIFI Language/zh_CN'
p178
sg16
S'528f1ada105155709946325f10695403'
p179
sa(dp180
g2
S'38676'
p181
sg4
S'2587'
p182
sg6
S'b913b9ef15a43e6bd716ba42c6ca37e4'
p183
sg8
S'xx658575e67d5710692a1b96491a583c7d'
p184
sg10
S'xxa2688a2f031d413266952588af165010'
p185
sg12
S'xx92a88356142840c7e9a58290c9de2a0c'
p186
sg14
S'Mozilla/5.0 (Linux; Android 5.1; GN9010 Build/LMY47D) AppleWebKit/537.36 (KHTML, like Gecko) Version/4.0 Chrome/37.0.0.0 Mobile MQQBrowser/6.8 TBS/036849 Safari/537.36 MicroMessenger/6.3.27.880 NetType/WIFI Language/zh_CN'
p187
sg16
S'528f1ada105155709946325f10695403'
p188
sa.