(lp0
(dp1
S'user_id'
p2
S'37452'
p3
sS'data_id'
p4
S'5453'
p5
sS'ip'
p6
S'567a48f383bf8ae54546d6f84c4dd08c'
p7
sS'phone_B'
p8
S'xx259195504f0d39fc3cb72d269f73211f'
p9
sS'phone_C'
p10
S'xx3824d12c3a363e666b2c40c843aa9d91'
p11
sS'phone_A'
p12
S'xx9331b7616bf9d72c4d0cbce31b830f9c'
p13
sS'user_agent'
p14
S'Mozilla/5.0 (Linux; Android 4.4.4; YQ607 Build/KTU84P) AppleWebKit/537.36 (KHTML, like Gecko) Version/4.0 Chrome/37.0.0.0 Mobile MQQBrowser/6.8 TBS/036849 Safari/537.36 MicroMessenger/6.3.27.880 NetType/WIFI Language/zh_CN'
p15
sS'ua'
p16
S'b801671fb717e0f2d160b990b7173a21'
p17
sa(dp18
g2
S'37452'
p19
sg4
S'5468'
p20
sg6
S'567a48f383bf8ae54546d6f84c4dd08c'
p21
sg8
S'xx259195504f0d39fc3cb72d269f73211f'
p22
sg10
S'xx3824d12c3a363e666b2c40c843aa9d91'
p23
sg12
S'xx9331b7616bf9d72c4d0cbce31b830f9c'
p24
sg14
S'Mozilla/5.0 (Linux; Android 4.4.4; YQ607 Build/KTU84P) AppleWebKit/537.36 (KHTML, like Gecko) Version/4.0 Chrome/37.0.0.0 Mobile MQQBrowser/6.8 TBS/036849 Safari/537.36 MicroMessenger/6.3.27.880 NetType/WIFI Language/zh_CN'
p25
sg16
S'b801671fb717e0f2d160b990b7173a21'
p26
sa.