(lp0
(dp1
S'user_id'
p2
S'49735'
p3
sS'data_id'
p4
S'433'
p5
sS'ip'
p6
S'03058ff25b1b7f26625c3e6dad07f9c3'
p7
sS'phone_B'
p8
S'xx81608d4879c3825333c7496ced92ab7b'
p9
sS'phone_C'
p10
S'xx11b37cd92a5f6f6882e4ced927e9f991'
p11
sS'phone_A'
p12
S'xx93762ecacea0e3e5975a288f039db9a8'
p13
sS'user_agent'
p14
S'Mozilla/5.0 (Linux; Android 4.4.4; P1 Build/KTU84P) AppleWebKit/537.36 (KHTML, like Gecko) Version/4.0 Chrome/37.0.0.0 Mobile MQQBrowser/6.8 TBS/036849 Safari/537.36 MicroMessenger/6.3.25.861 NetType/WIFI Language/zh_CN'
p15
sS'ua'
p16
S'eb5660c08f56622c06a8e164e7aed6c8'
p17
sa(dp18
g2
S'49735'
p19
sg4
S'444'
p20
sg6
S'03058ff25b1b7f26625c3e6dad07f9c3'
p21
sg8
S'xx81608d4879c3825333c7496ced92ab7b'
p22
sg10
S'xx11b37cd92a5f6f6882e4ced927e9f991'
p23
sg12
S'xx93762ecacea0e3e5975a288f039db9a8'
p24
sg14
S'Mozilla/5.0 (Linux; Android 4.4.4; P1 Build/KTU84P) AppleWebKit/537.36 (KHTML, like Gecko) Version/4.0 Chrome/37.0.0.0 Mobile MQQBrowser/6.8 TBS/036849 Safari/537.36 MicroMessenger/6.3.25.861 NetType/WIFI Language/zh_CN'
p25
sg16
S'eb5660c08f56622c06a8e164e7aed6c8'
p26
sa(dp27
g2
S'49735'
p28
sg4
S'457'
p29
sg6
S'03058ff25b1b7f26625c3e6dad07f9c3'
p30
sg8
S'xx81608d4879c3825333c7496ced92ab7b'
p31
sg10
S'xx11b37cd92a5f6f6882e4ced927e9f991'
p32
sg12
S'xx93762ecacea0e3e5975a288f039db9a8'
p33
sg14
S'Mozilla/5.0 (Linux; Android 4.4.4; P1 Build/KTU84P) AppleWebKit/537.36 (KHTML, like Gecko) Version/4.0 Chrome/37.0.0.0 Mobile MQQBrowser/6.8 TBS/036849 Safari/537.36 MicroMessenger/6.3.25.861 NetType/WIFI Language/zh_CN'
p34
sg16
S'eb5660c08f56622c06a8e164e7aed6c8'
p35
sa(dp36
g2
S'49735'
p37
sg4
S'485'
p38
sg6
S'03058ff25b1b7f26625c3e6dad07f9c3'
p39
sg8
S'xx81608d4879c3825333c7496ced92ab7b'
p40
sg10
S'xx11b37cd92a5f6f6882e4ced927e9f991'
p41
sg12
S'xx93762ecacea0e3e5975a288f039db9a8'
p42
sg14
S'Mozilla/5.0 (Linux; Android 4.4.4; P1 Build/KTU84P) AppleWebKit/537.36 (KHTML, like Gecko) Version/4.0 Chrome/37.0.0.0 Mobile MQQBrowser/6.8 TBS/036849 Safari/537.36 MicroMessenger/6.3.25.861 NetType/WIFI Language/zh_CN'
p43
sg16
S'eb5660c08f56622c06a8e164e7aed6c8'
p44
sa(dp45
g2
S'49735'
p46
sg4
S'498'
p47
sg6
S'03058ff25b1b7f26625c3e6dad07f9c3'
p48
sg8
S'xx81608d4879c3825333c7496ced92ab7b'
p49
sg10
S'xx11b37cd92a5f6f6882e4ced927e9f991'
p50
sg12
S'xx93762ecacea0e3e5975a288f039db9a8'
p51
sg14
S'Mozilla/5.0 (Linux; Android 4.4.4; P1 Build/KTU84P) AppleWebKit/537.36 (KHTML, like Gecko) Version/4.0 Chrome/37.0.0.0 Mobile MQQBrowser/6.8 TBS/036849 Safari/537.36 MicroMessenger/6.3.25.861 NetType/WIFI Language/zh_CN'
p52
sg16
S'eb5660c08f56622c06a8e164e7aed6c8'
p53
sa(dp54
g2
S'49735'
p55
sg4
S'511'
p56
sg6
S'03058ff25b1b7f26625c3e6dad07f9c3'
p57
sg8
S'xx81608d4879c3825333c7496ced92ab7b'
p58
sg10
S'xx11b37cd92a5f6f6882e4ced927e9f991'
p59
sg12
S'xx93762ecacea0e3e5975a288f039db9a8'
p60
sg14
S'Mozilla/5.0 (Linux; Android 4.4.4; P1 Build/KTU84P) AppleWebKit/537.36 (KHTML, like Gecko) Version/4.0 Chrome/37.0.0.0 Mobile MQQBrowser/6.8 TBS/036849 Safari/537.36 MicroMessenger/6.3.25.861 NetType/WIFI Language/zh_CN'
p61
sg16
S'eb5660c08f56622c06a8e164e7aed6c8'
p62
sa(dp63
g2
S'49735'
p64
sg4
S'525'
p65
sg6
S'03058ff25b1b7f26625c3e6dad07f9c3'
p66
sg8
S'xx81608d4879c3825333c7496ced92ab7b'
p67
sg10
S'xx11b37cd92a5f6f6882e4ced927e9f991'
p68
sg12
S'xx93762ecacea0e3e5975a288f039db9a8'
p69
sg14
S'Mozilla/5.0 (Linux; Android 4.4.4; P1 Build/KTU84P) AppleWebKit/537.36 (KHTML, like Gecko) Version/4.0 Chrome/37.0.0.0 Mobile MQQBrowser/6.8 TBS/036849 Safari/537.36 MicroMessenger/6.3.25.861 NetType/WIFI Language/zh_CN'
p70
sg16
S'eb5660c08f56622c06a8e164e7aed6c8'
p71
sa(dp72
g2
S'49735'
p73
sg4
S'540'
p74
sg6
S'03058ff25b1b7f26625c3e6dad07f9c3'
p75
sg8
S'xx81608d4879c3825333c7496ced92ab7b'
p76
sg10
S'xx11b37cd92a5f6f6882e4ced927e9f991'
p77
sg12
S'xx93762ecacea0e3e5975a288f039db9a8'
p78
sg14
S'Mozilla/5.0 (Linux; Android 4.4.4; P1 Build/KTU84P) AppleWebKit/537.36 (KHTML, like Gecko) Version/4.0 Chrome/37.0.0.0 Mobile MQQBrowser/6.8 TBS/036849 Safari/537.36 MicroMessenger/6.3.25.861 NetType/WIFI Language/zh_CN'
p79
sg16
S'eb5660c08f56622c06a8e164e7aed6c8'
p80
sa(dp81
g2
S'49735'
p82
sg4
S'556'
p83
sg6
S'03058ff25b1b7f26625c3e6dad07f9c3'
p84
sg8
S'xx81608d4879c3825333c7496ced92ab7b'
p85
sg10
S'xx11b37cd92a5f6f6882e4ced927e9f991'
p86
sg12
S'xx93762ecacea0e3e5975a288f039db9a8'
p87
sg14
S'Mozilla/5.0 (Linux; Android 4.4.4; P1 Build/KTU84P) AppleWebKit/537.36 (KHTML, like Gecko) Version/4.0 Chrome/37.0.0.0 Mobile MQQBrowser/6.8 TBS/036849 Safari/537.36 MicroMessenger/6.3.25.861 NetType/WIFI Language/zh_CN'
p88
sg16
S'eb5660c08f56622c06a8e164e7aed6c8'
p89
sa(dp90
g2
S'49735'
p91
sg4
S'646'
p92
sg6
S'03058ff25b1b7f26625c3e6dad07f9c3'
p93
sg8
S'xx81608d4879c3825333c7496ced92ab7b'
p94
sg10
S'xx11b37cd92a5f6f6882e4ced927e9f991'
p95
sg12
S'xx93762ecacea0e3e5975a288f039db9a8'
p96
sg14
S'Mozilla/5.0 (Linux; Android 4.4.4; P1 Build/KTU84P) AppleWebKit/537.36 (KHTML, like Gecko) Version/4.0 Chrome/37.0.0.0 Mobile MQQBrowser/6.8 TBS/036849 Safari/537.36 MicroMessenger/6.3.25.861 NetType/WIFI Language/zh_CN'
p97
sg16
S'eb5660c08f56622c06a8e164e7aed6c8'
p98
sa(dp99
g2
S'49735'
p100
sg4
S'1474'
p101
sg6
S'03058ff25b1b7f26625c3e6dad07f9c3'
p102
sg8
S'xx81608d4879c3825333c7496ced92ab7b'
p103
sg10
S'xx11b37cd92a5f6f6882e4ced927e9f991'
p104
sg12
S'xx93762ecacea0e3e5975a288f039db9a8'
p105
sg14
S'Mozilla/5.0 (Linux; Android 4.4.4; P1 Build/KTU84P) AppleWebKit/537.36 (KHTML, like Gecko) Version/4.0 Chrome/37.0.0.0 Mobile MQQBrowser/6.8 TBS/036849 Safari/537.36 MicroMessenger/6.3.25.861 NetType/WIFI Language/zh_CN'
p106
sg16
S'eb5660c08f56622c06a8e164e7aed6c8'
p107
sa(dp108
g2
S'49735'
p109
sg4
S'1579'
p110
sg6
S'03058ff25b1b7f26625c3e6dad07f9c3'
p111
sg8
S'xx81608d4879c3825333c7496ced92ab7b'
p112
sg10
S'xx11b37cd92a5f6f6882e4ced927e9f991'
p113
sg12
S'xx93762ecacea0e3e5975a288f039db9a8'
p114
sg14
S'Mozilla/5.0 (Linux; Android 4.4.4; P1 Build/KTU84P) AppleWebKit/537.36 (KHTML, like Gecko) Version/4.0 Chrome/37.0.0.0 Mobile MQQBrowser/6.8 TBS/036849 Safari/537.36 MicroMessenger/6.3.25.861 NetType/WIFI Language/zh_CN'
p115
sg16
S'eb5660c08f56622c06a8e164e7aed6c8'
p116
sa(dp117
g2
S'49735'
p118
sg4
S'1597'
p119
sg6
S'03058ff25b1b7f26625c3e6dad07f9c3'
p120
sg8
S'xx81608d4879c3825333c7496ced92ab7b'
p121
sg10
S'xx11b37cd92a5f6f6882e4ced927e9f991'
p122
sg12
S'xx93762ecacea0e3e5975a288f039db9a8'
p123
sg14
S'Mozilla/5.0 (Linux; Android 4.4.4; P1 Build/KTU84P) AppleWebKit/537.36 (KHTML, like Gecko) Version/4.0 Chrome/37.0.0.0 Mobile MQQBrowser/6.8 TBS/036849 Safari/537.36 MicroMessenger/6.3.25.861 NetType/WIFI Language/zh_CN'
p124
sg16
S'eb5660c08f56622c06a8e164e7aed6c8'
p125
sa(dp126
g2
S'49735'
p127
sg4
S'1636'
p128
sg6
S'03058ff25b1b7f26625c3e6dad07f9c3'
p129
sg8
S'xx81608d4879c3825333c7496ced92ab7b'
p130
sg10
S'xx11b37cd92a5f6f6882e4ced927e9f991'
p131
sg12
S'xx93762ecacea0e3e5975a288f039db9a8'
p132
sg14
S'Mozilla/5.0 (Linux; Android 4.4.4; P1 Build/KTU84P) AppleWebKit/537.36 (KHTML, like Gecko) Version/4.0 Chrome/37.0.0.0 Mobile MQQBrowser/6.8 TBS/036849 Safari/537.36 MicroMessenger/6.3.25.861 NetType/WIFI Language/zh_CN'
p133
sg16
S'eb5660c08f56622c06a8e164e7aed6c8'
p134
sa(dp135
g2
S'49735'
p136
sg4
S'1645'
p137
sg6
S'03058ff25b1b7f26625c3e6dad07f9c3'
p138
sg8
S'xx81608d4879c3825333c7496ced92ab7b'
p139
sg10
S'xx11b37cd92a5f6f6882e4ced927e9f991'
p140
sg12
S'xx93762ecacea0e3e5975a288f039db9a8'
p141
sg14
S'Mozilla/5.0 (Linux; Android 4.4.4; P1 Build/KTU84P) AppleWebKit/537.36 (KHTML, like Gecko) Version/4.0 Chrome/37.0.0.0 Mobile MQQBrowser/6.8 TBS/036849 Safari/537.36 MicroMessenger/6.3.25.861 NetType/WIFI Language/zh_CN'
p142
sg16
S'eb5660c08f56622c06a8e164e7aed6c8'
p143
sa(dp144
g2
S'49735'
p145
sg4
S'1663'
p146
sg6
S'03058ff25b1b7f26625c3e6dad07f9c3'
p147
sg8
S'xx81608d4879c3825333c7496ced92ab7b'
p148
sg10
S'xx11b37cd92a5f6f6882e4ced927e9f991'
p149
sg12
S'xx93762ecacea0e3e5975a288f039db9a8'
p150
sg14
S'Mozilla/5.0 (Linux; Android 4.4.4; P1 Build/KTU84P) AppleWebKit/537.36 (KHTML, like Gecko) Version/4.0 Chrome/37.0.0.0 Mobile MQQBrowser/6.8 TBS/036849 Safari/537.36 MicroMessenger/6.3.25.861 NetType/WIFI Language/zh_CN'
p151
sg16
S'eb5660c08f56622c06a8e164e7aed6c8'
p152
sa(dp153
g2
S'49735'
p154
sg4
S'1676'
p155
sg6
S'03058ff25b1b7f26625c3e6dad07f9c3'
p156
sg8
S'xx81608d4879c3825333c7496ced92ab7b'
p157
sg10
S'xx11b37cd92a5f6f6882e4ced927e9f991'
p158
sg12
S'xx93762ecacea0e3e5975a288f039db9a8'
p159
sg14
S'Mozilla/5.0 (Linux; Android 4.4.4; P1 Build/KTU84P) AppleWebKit/537.36 (KHTML, like Gecko) Version/4.0 Chrome/37.0.0.0 Mobile MQQBrowser/6.8 TBS/036849 Safari/537.36 MicroMessenger/6.3.25.861 NetType/WIFI Language/zh_CN'
p160
sg16
S'eb5660c08f56622c06a8e164e7aed6c8'
p161
sa(dp162
g2
S'49735'
p163
sg4
S'1690'
p164
sg6
S'03058ff25b1b7f26625c3e6dad07f9c3'
p165
sg8
S'xx81608d4879c3825333c7496ced92ab7b'
p166
sg10
S'xx11b37cd92a5f6f6882e4ced927e9f991'
p167
sg12
S'xx93762ecacea0e3e5975a288f039db9a8'
p168
sg14
S'Mozilla/5.0 (Linux; Android 4.4.4; P1 Build/KTU84P) AppleWebKit/537.36 (KHTML, like Gecko) Version/4.0 Chrome/37.0.0.0 Mobile MQQBrowser/6.8 TBS/036849 Safari/537.36 MicroMessenger/6.3.25.861 NetType/WIFI Language/zh_CN'
p169
sg16
S'eb5660c08f56622c06a8e164e7aed6c8'
p170
sa(dp171
g2
S'49735'
p172
sg4
S'1696'
p173
sg6
S'03058ff25b1b7f26625c3e6dad07f9c3'
p174
sg8
S'xx81608d4879c3825333c7496ced92ab7b'
p175
sg10
S'xx11b37cd92a5f6f6882e4ced927e9f991'
p176
sg12
S'xx93762ecacea0e3e5975a288f039db9a8'
p177
sg14
S'Mozilla/5.0 (Linux; Android 4.4.4; P1 Build/KTU84P) AppleWebKit/537.36 (KHTML, like Gecko) Version/4.0 Chrome/37.0.0.0 Mobile MQQBrowser/6.8 TBS/036849 Safari/537.36 MicroMessenger/6.3.25.861 NetType/WIFI Language/zh_CN'
p178
sg16
S'eb5660c08f56622c06a8e164e7aed6c8'
p179
sa(dp180
g2
S'49735'
p181
sg4
S'1711'
p182
sg6
S'03058ff25b1b7f26625c3e6dad07f9c3'
p183
sg8
S'xx81608d4879c3825333c7496ced92ab7b'
p184
sg10
S'xx11b37cd92a5f6f6882e4ced927e9f991'
p185
sg12
S'xx93762ecacea0e3e5975a288f039db9a8'
p186
sg14
S'Mozilla/5.0 (Linux; Android 4.4.4; P1 Build/KTU84P) AppleWebKit/537.36 (KHTML, like Gecko) Version/4.0 Chrome/37.0.0.0 Mobile MQQBrowser/6.8 TBS/036849 Safari/537.36 MicroMessenger/6.3.25.861 NetType/WIFI Language/zh_CN'
p187
sg16
S'eb5660c08f56622c06a8e164e7aed6c8'
p188
sa(dp189
g2
S'49735'
p190
sg4
S'1888'
p191
sg6
S'03058ff25b1b7f26625c3e6dad07f9c3'
p192
sg8
S'xx81608d4879c3825333c7496ced92ab7b'
p193
sg10
S'xx11b37cd92a5f6f6882e4ced927e9f991'
p194
sg12
S'xx93762ecacea0e3e5975a288f039db9a8'
p195
sg14
S'Mozilla/5.0 (Linux; Android 4.4.4; P1 Build/KTU84P) AppleWebKit/537.36 (KHTML, like Gecko) Version/4.0 Chrome/37.0.0.0 Mobile MQQBrowser/6.8 TBS/036849 Safari/537.36 MicroMessenger/6.3.25.861 NetType/WIFI Language/zh_CN'
p196
sg16
S'eb5660c08f56622c06a8e164e7aed6c8'
p197
sa.