(lp0
(dp1
S'user_id'
p2
S'46787'
p3
sS'data_id'
p4
S'2876'
p5
sS'ip'
p6
S'e5f1bbe0d87aec895707c8dbba6c5a9b'
p7
sS'phone_B'
p8
S'xx7d72c620d17570654040e0603a29b69f'
p9
sS'phone_C'
p10
S'xx0cd7a6f2e85b8e05fb014b9b634a62b4'
p11
sS'phone_A'
p12
S'xx95b60fa32248f39c0dcdf5c57af727d6'
p13
sS'user_agent'
p14
S'Mozilla/5.0 (Linux; Android 5.1; P21 Build/LMY47D) AppleWebKit/537.36 (KHTML, like Gecko) Version/4.0 Chrome/37.0.0.0 Mobile MQQBrowser/6.8 TBS/036824 Safari/537.36 MicroMessenger/6.3.27.880 NetType/WIFI Language/zh_CN'
p15
sS'ua'
p16
S'688303ee6959cb0e8c4a7eb79c57c631'
p17
sa(dp18
g2
S'46787'
p19
sg4
S'2896'
p20
sg6
S'e5f1bbe0d87aec895707c8dbba6c5a9b'
p21
sg8
S'xx7d72c620d17570654040e0603a29b69f'
p22
sg10
S'xx0cd7a6f2e85b8e05fb014b9b634a62b4'
p23
sg12
S'xx95b60fa32248f39c0dcdf5c57af727d6'
p24
sg14
S'Mozilla/5.0 (Linux; Android 5.1; P21 Build/LMY47D) AppleWebKit/537.36 (KHTML, like Gecko) Version/4.0 Chrome/37.0.0.0 Mobile MQQBrowser/6.8 TBS/036824 Safari/537.36 MicroMessenger/6.3.27.880 NetType/WIFI Language/zh_CN'
p25
sg16
S'688303ee6959cb0e8c4a7eb79c57c631'
p26
sa.