(lp0
(dp1
S'user_id'
p2
S'49806'
p3
sS'data_id'
p4
S'6058'
p5
sS'ip'
p6
S'df7d8072dbe8bbcb3f4b50dca8449375'
p7
sS'phone_B'
p8
S'xx622e357cb5070da2302d1dacadd000fe'
p9
sS'phone_C'
p10
S'xx9a27b66e87b94fbff3c5143174dbed6f'
p11
sS'phone_A'
p12
S'xx96130e12b45e75df10aa9cfb0fe917bf'
p13
sS'user_agent'
p14
S'Mozilla/5.0 (Linux; Android 4.4.4; KONKA D557 Build/KTU84P) AppleWebKit/537.36 (KHTML, like Gecko) Version/4.0 Chrome/37.0.0.0 Mobile MQQBrowser/6.8 TBS/036849 Safari/537.36 MicroMessenger/6.3.25.861 NetType/WIFI Language/zh_CN'
p15
sS'ua'
p16
S'b1e26d3adb191f947ad6e6bf2dfed135'
p17
sa(dp18
g2
S'49806'
p19
sg4
S'6074'
p20
sg6
S'df7d8072dbe8bbcb3f4b50dca8449375'
p21
sg8
S'xx622e357cb5070da2302d1dacadd000fe'
p22
sg10
S'xx9a27b66e87b94fbff3c5143174dbed6f'
p23
sg12
S'xx96130e12b45e75df10aa9cfb0fe917bf'
p24
sg14
S'Mozilla/5.0 (Linux; Android 4.4.4; KONKA D557 Build/KTU84P) AppleWebKit/537.36 (KHTML, like Gecko) Version/4.0 Chrome/37.0.0.0 Mobile MQQBrowser/6.8 TBS/036849 Safari/537.36 MicroMessenger/6.3.25.861 NetType/WIFI Language/zh_CN'
p25
sg16
S'b1e26d3adb191f947ad6e6bf2dfed135'
p26
sa(dp27
g2
S'49806'
p28
sg4
S'6088'
p29
sg6
S'df7d8072dbe8bbcb3f4b50dca8449375'
p30
sg8
S'xx622e357cb5070da2302d1dacadd000fe'
p31
sg10
S'xx9a27b66e87b94fbff3c5143174dbed6f'
p32
sg12
S'xx96130e12b45e75df10aa9cfb0fe917bf'
p33
sg14
S'Mozilla/5.0 (Linux; Android 4.4.4; KONKA D557 Build/KTU84P) AppleWebKit/537.36 (KHTML, like Gecko) Version/4.0 Chrome/37.0.0.0 Mobile MQQBrowser/6.8 TBS/036849 Safari/537.36 MicroMessenger/6.3.25.861 NetType/WIFI Language/zh_CN'
p34
sg16
S'b1e26d3adb191f947ad6e6bf2dfed135'
p35
sa.