(lp0
(dp1
S'user_id'
p2
S'41353'
p3
sS'data_id'
p4
S'7333'
p5
sS'ip'
p6
S'5362a3ad03126dbd5ec4835f64a352a3'
p7
sS'phone_B'
p8
S'xxff90e3dace0c57e759426d2684f2c252'
p9
sS'phone_C'
p10
S'xx1bb74078365fe572c29a0d81127263cc'
p11
sS'phone_A'
p12
S'xx96dfc9336e5cab03f87b39f6417a84cc'
p13
sS'user_agent'
p14
S'Mozilla/5.0 (Linux; Android 5.1; lephone W7 Build/LMY47D) AppleWebKit/537.36 (KHTML, like Gecko) Version/4.0 Chrome/37.0.0.0 Mobile MQQBrowser/6.8 TBS/036865 Safari/537.36 MicroMessenger/6.3.27.880 NetType/WIFI Language/zh_CN'
p15
sS'ua'
p16
S'946ef1b7dda9f176b56774a067a376de'
p17
sa(dp18
g2
S'41353'
p19
sg4
S'7349'
p20
sg6
S'5362a3ad03126dbd5ec4835f64a352a3'
p21
sg8
S'xxff90e3dace0c57e759426d2684f2c252'
p22
sg10
S'xx1bb74078365fe572c29a0d81127263cc'
p23
sg12
S'xx96dfc9336e5cab03f87b39f6417a84cc'
p24
sg14
S'Mozilla/5.0 (Linux; Android 5.1; lephone W7 Build/LMY47D) AppleWebKit/537.36 (KHTML, like Gecko) Version/4.0 Chrome/37.0.0.0 Mobile MQQBrowser/6.8 TBS/036865 Safari/537.36 MicroMessenger/6.3.27.880 NetType/WIFI Language/zh_CN'
p25
sg16
S'946ef1b7dda9f176b56774a067a376de'
p26
sa.