(lp0
(dp1
S'user_id'
p2
S'38022'
p3
sS'data_id'
p4
S'62'
p5
sS'ip'
p6
S'd0088bbb724aad1d00c2f73fd5f65f85'
p7
sS'phone_B'
p8
S'xxa9457aa00d502a4788cb7c35ae78f5f0'
p9
sS'phone_C'
p10
S'xxd328304be2214906ecf8b73a7fd3448e'
p11
sS'phone_A'
p12
S'xx9777ed76c8cf627637437de02098e6f0'
p13
sS'user_agent'
p14
S'Mozilla/5.0 (Linux; Android 4.4.4; vivo Y913 Build/KTU84P) AppleWebKit/537.36 (KHTML, like Gecko) Version/4.0 Chrome/37.0.0.0 Mobile MQQBrowser/6.8 TBS/036824 Safari/537.36 MicroMessenger/6.3.27.880 NetType/WIFI Language/zh_CN'
p15
sS'ua'
p16
S'b7a8c9778122d1f7a3bd7c4142898efc'
p17
sa(dp18
g2
S'38022'
p19
sg4
S'72'
p20
sg6
S'd0088bbb724aad1d00c2f73fd5f65f85'
p21
sg8
S'xxa9457aa00d502a4788cb7c35ae78f5f0'
p22
sg10
S'xxd328304be2214906ecf8b73a7fd3448e'
p23
sg12
S'xx9777ed76c8cf627637437de02098e6f0'
p24
sg14
S'Mozilla/5.0 (Linux; Android 4.4.4; vivo Y913 Build/KTU84P) AppleWebKit/537.36 (KHTML, like Gecko) Version/4.0 Chrome/37.0.0.0 Mobile MQQBrowser/6.8 TBS/036824 Safari/537.36 MicroMessenger/6.3.27.880 NetType/WIFI Language/zh_CN'
p25
sg16
S'b7a8c9778122d1f7a3bd7c4142898efc'
p26
sa(dp27
g2
S'38022'
p28
sg4
S'80'
p29
sg6
S'd0088bbb724aad1d00c2f73fd5f65f85'
p30
sg8
S'xxa9457aa00d502a4788cb7c35ae78f5f0'
p31
sg10
S'xxd328304be2214906ecf8b73a7fd3448e'
p32
sg12
S'xx9777ed76c8cf627637437de02098e6f0'
p33
sg14
S'Mozilla/5.0 (Linux; Android 4.4.4; vivo Y913 Build/KTU84P) AppleWebKit/537.36 (KHTML, like Gecko) Version/4.0 Chrome/37.0.0.0 Mobile MQQBrowser/6.8 TBS/036824 Safari/537.36 MicroMessenger/6.3.27.880 NetType/WIFI Language/zh_CN'
p34
sg16
S'b7a8c9778122d1f7a3bd7c4142898efc'
p35
sa(dp36
g2
S'38047'
p37
sg4
S'939'
p38
sg6
S'd0088bbb724aad1d00c2f73fd5f65f85'
p39
sg8
S'xxa9457aa00d502a4788cb7c35ae78f5f0'
p40
sg10
S'xxd328304be2214906ecf8b73a7fd3448e'
p41
sg12
S'xx9777ed76c8cf627637437de02098e6f0'
p42
sg14
S'Mozilla/5.0 (Linux; Android 4.4.4; vivo Y913 Build/KTU84P) AppleWebKit/537.36 (KHTML, like Gecko) Version/4.0 Chrome/37.0.0.0 Mobile MQQBrowser/6.8 TBS/036824 Safari/537.36 MicroMessenger/6.3.27.880 NetType/WIFI Language/zh_CN'
p43
sg16
S'b7a8c9778122d1f7a3bd7c4142898efc'
p44
sa(dp45
g2
S'38047'
p46
sg4
S'955'
p47
sg6
S'd0088bbb724aad1d00c2f73fd5f65f85'
p48
sg8
S'xxa9457aa00d502a4788cb7c35ae78f5f0'
p49
sg10
S'xxd328304be2214906ecf8b73a7fd3448e'
p50
sg12
S'xx9777ed76c8cf627637437de02098e6f0'
p51
sg14
S'Mozilla/5.0 (Linux; Android 4.4.4; vivo Y913 Build/KTU84P) AppleWebKit/537.36 (KHTML, like Gecko) Version/4.0 Chrome/37.0.0.0 Mobile MQQBrowser/6.8 TBS/036824 Safari/537.36 MicroMessenger/6.3.27.880 NetType/WIFI Language/zh_CN'
p52
sg16
S'b7a8c9778122d1f7a3bd7c4142898efc'
p53
sa(dp54
g2
S'29942'
p55
sg4
S'2939'
p56
sg6
S'ef5e6023b4e1e5f7634307dbb60f99af'
p57
sg8
S'xx575478148ce69826ce4e576c128834d5'
p58
sg10
S'xxd328304be2214906ecf8b73a7fd3448e'
p59
sg12
S'xx9777ed76c8cf627637437de02098e6f0'
p60
sg14
S'Mozilla/5.0 (Linux; Android 4.4.4; vivo Y913 Build/KTU84P) AppleWebKit/537.36 (KHTML, like Gecko) Version/4.0 Chrome/37.0.0.0 Mobile MQQBrowser/6.8 TBS/036824 Safari/537.36 MicroMessenger/6.3.27.880 NetType/ctlte Language/zh_CN'
p61
sg16
S'8be858b07130c37f8e43e19f622493c2'
p62
sa(dp63
g2
S'29942'
p64
sg4
S'2958'
p65
sg6
S'ef5e6023b4e1e5f7634307dbb60f99af'
p66
sg8
S'xx575478148ce69826ce4e576c128834d5'
p67
sg10
S'xxd328304be2214906ecf8b73a7fd3448e'
p68
sg12
S'xx9777ed76c8cf627637437de02098e6f0'
p69
sg14
S'Mozilla/5.0 (Linux; Android 4.4.4; vivo Y913 Build/KTU84P) AppleWebKit/537.36 (KHTML, like Gecko) Version/4.0 Chrome/37.0.0.0 Mobile MQQBrowser/6.8 TBS/036824 Safari/537.36 MicroMessenger/6.3.27.880 NetType/ctlte Language/zh_CN'
p70
sg16
S'8be858b07130c37f8e43e19f622493c2'
p71
sa.