(lp0
(dp1
S'user_id'
p2
S'35193'
p3
sS'data_id'
p4
S'6379'
p5
sS'ip'
p6
S'37ec7b91655b3c964292df15710fad2a'
p7
sS'phone_B'
p8
S'xxe0a34ee24662d54ee9a79ae98ffa5bb4'
p9
sS'phone_C'
p10
S'xx828fbc46d7db50b7a4eaf9544df3ad31'
p11
sS'phone_A'
p12
S'xx975d79d0e423adee77749d95c5515dec'
p13
sS'user_agent'
p14
S'Mozilla/5.0 (Linux; Android 4.4.2; HT_F7 Build/KOT49H) AppleWebKit/537.36 (KHTML, like Gecko) Version/4.0 Chrome/37.0.0.0 Mobile MQQBrowser/6.8 TBS/036849 Safari/537.36 MicroMessenger/6.3.27.880 NetType/WIFI Language/zh_CN'
p15
sS'ua'
p16
S'f5647fa648d4a602bf62a3451b9cd3a9'
p17
sa(dp18
g2
S'35193'
p19
sg4
S'6395'
p20
sg6
S'37ec7b91655b3c964292df15710fad2a'
p21
sg8
S'xxe0a34ee24662d54ee9a79ae98ffa5bb4'
p22
sg10
S'xx828fbc46d7db50b7a4eaf9544df3ad31'
p23
sg12
S'xx975d79d0e423adee77749d95c5515dec'
p24
sg14
S'Mozilla/5.0 (Linux; Android 4.4.2; HT_F7 Build/KOT49H) AppleWebKit/537.36 (KHTML, like Gecko) Version/4.0 Chrome/37.0.0.0 Mobile MQQBrowser/6.8 TBS/036849 Safari/537.36 MicroMessenger/6.3.27.880 NetType/WIFI Language/zh_CN'
p25
sg16
S'f5647fa648d4a602bf62a3451b9cd3a9'
p26
sa.