(lp0
(dp1
S'user_id'
p2
S'33168'
p3
sS'data_id'
p4
S'106'
p5
sS'ip'
p6
S'44308cba04e88cd5d0cd7b44d63b1437'
p7
sS'phone_B'
p8
S'xxb695eac457e5cf26b9a5aaa5f980f16e'
p9
sS'phone_C'
p10
S'xx57ad19992fa8b0d072ed7e7251a9999f'
p11
sS'phone_A'
p12
S'xx97414dd8c11026eb321363ebb2e18154'
p13
sS'user_agent'
p14
S'Mozilla/5.0 (Linux; Android 6.0.1; MI 5 Build/MXB48T) AppleWebKit/537.36 (KHTML, like Gecko) Version/4.0 Chrome/37.0.0.0 Mobile MQQBrowser/6.8 TBS/036869 Safari/537.36 MicroMessenger/6.3.27.880 NetType/ctlte Language/zh_CN'
p15
sS'ua'
p16
S'10ea3583252df7dfe3c97e204e95f62b'
p17
sa(dp18
g2
S'33168'
p19
sg4
S'118'
p20
sg6
S'44308cba04e88cd5d0cd7b44d63b1437'
p21
sg8
S'xxb695eac457e5cf26b9a5aaa5f980f16e'
p22
sg10
S'xx57ad19992fa8b0d072ed7e7251a9999f'
p23
sg12
S'xx97414dd8c11026eb321363ebb2e18154'
p24
sg14
S'Mozilla/5.0 (Linux; Android 6.0.1; MI 5 Build/MXB48T) AppleWebKit/537.36 (KHTML, like Gecko) Version/4.0 Chrome/37.0.0.0 Mobile MQQBrowser/6.8 TBS/036869 Safari/537.36 MicroMessenger/6.3.27.880 NetType/ctlte Language/zh_CN'
p25
sg16
S'10ea3583252df7dfe3c97e204e95f62b'
p26
sa(dp27
g2
S'33168'
p28
sg4
S'124'
p29
sg6
S'44308cba04e88cd5d0cd7b44d63b1437'
p30
sg8
S'xxb695eac457e5cf26b9a5aaa5f980f16e'
p31
sg10
S'xx57ad19992fa8b0d072ed7e7251a9999f'
p32
sg12
S'xx97414dd8c11026eb321363ebb2e18154'
p33
sg14
S'Mozilla/5.0 (Linux; Android 6.0.1; MI 5 Build/MXB48T) AppleWebKit/537.36 (KHTML, like Gecko) Version/4.0 Chrome/37.0.0.0 Mobile MQQBrowser/6.8 TBS/036869 Safari/537.36 MicroMessenger/6.3.27.880 NetType/ctlte Language/zh_CN'
p34
sg16
S'10ea3583252df7dfe3c97e204e95f62b'
p35
sa(dp36
g2
S'33168'
p37
sg4
S'172'
p38
sg6
S'44308cba04e88cd5d0cd7b44d63b1437'
p39
sg8
S'xxb695eac457e5cf26b9a5aaa5f980f16e'
p40
sg10
S'xx57ad19992fa8b0d072ed7e7251a9999f'
p41
sg12
S'xx97414dd8c11026eb321363ebb2e18154'
p42
sg14
S'Mozilla/5.0 (Linux; Android 6.0.1; MI 5 Build/MXB48T) AppleWebKit/537.36 (KHTML, like Gecko) Version/4.0 Chrome/37.0.0.0 Mobile MQQBrowser/6.8 TBS/036869 Safari/537.36 MicroMessenger/6.3.27.880 NetType/ctlte Language/zh_CN'
p43
sg16
S'10ea3583252df7dfe3c97e204e95f62b'
p44
sa(dp45
g2
S'33168'
p46
sg4
S'190'
p47
sg6
S'44308cba04e88cd5d0cd7b44d63b1437'
p48
sg8
S'xxb695eac457e5cf26b9a5aaa5f980f16e'
p49
sg10
S'xx57ad19992fa8b0d072ed7e7251a9999f'
p50
sg12
S'xx97414dd8c11026eb321363ebb2e18154'
p51
sg14
S'Mozilla/5.0 (Linux; Android 6.0.1; MI 5 Build/MXB48T) AppleWebKit/537.36 (KHTML, like Gecko) Version/4.0 Chrome/37.0.0.0 Mobile MQQBrowser/6.8 TBS/036869 Safari/537.36 MicroMessenger/6.3.27.880 NetType/ctlte Language/zh_CN'
p52
sg16
S'10ea3583252df7dfe3c97e204e95f62b'
p53
sa(dp54
g2
S'24873'
p55
sg4
S'627'
p56
sg6
S'699a9570432b9430ebb13c5ee5d4cf8d'
p57
sg8
S'xxcf08bb18d9171760e1ae98199aceece2'
p58
sg10
S'xx57ad19992fa8b0d072ed7e7251a9999f'
p59
sg12
S'xx97414dd8c11026eb321363ebb2e18154'
p60
sg14
S'Mozilla/5.0 (Linux; Android 6.0.1; MI 5 Build/MXB48T) AppleWebKit/537.36 (KHTML, like Gecko) Version/4.0 Chrome/37.0.0.0 Mobile MQQBrowser/6.8 TBS/036849 Safari/537.36 MicroMessenger/6.3.27.880 NetType/WIFI Language/zh_CN'
p61
sg16
S'8f29ef5b09f5aa237566f0b87178181a'
p62
sa(dp63
g2
S'24873'
p64
sg4
S'643'
p65
sg6
S'699a9570432b9430ebb13c5ee5d4cf8d'
p66
sg8
S'xxcf08bb18d9171760e1ae98199aceece2'
p67
sg10
S'xx57ad19992fa8b0d072ed7e7251a9999f'
p68
sg12
S'xx97414dd8c11026eb321363ebb2e18154'
p69
sg14
S'Mozilla/5.0 (Linux; Android 6.0.1; MI 5 Build/MXB48T) AppleWebKit/537.36 (KHTML, like Gecko) Version/4.0 Chrome/37.0.0.0 Mobile MQQBrowser/6.8 TBS/036849 Safari/537.36 MicroMessenger/6.3.27.880 NetType/WIFI Language/zh_CN'
p70
sg16
S'8f29ef5b09f5aa237566f0b87178181a'
p71
sa(dp72
g2
S'24873'
p73
sg4
S'657'
p74
sg6
S'699a9570432b9430ebb13c5ee5d4cf8d'
p75
sg8
S'xxcf08bb18d9171760e1ae98199aceece2'
p76
sg10
S'xx57ad19992fa8b0d072ed7e7251a9999f'
p77
sg12
S'xx97414dd8c11026eb321363ebb2e18154'
p78
sg14
S'Mozilla/5.0 (Linux; Android 6.0.1; MI 5 Build/MXB48T) AppleWebKit/537.36 (KHTML, like Gecko) Version/4.0 Chrome/37.0.0.0 Mobile MQQBrowser/6.8 TBS/036849 Safari/537.36 MicroMessenger/6.3.27.880 NetType/WIFI Language/zh_CN'
p79
sg16
S'8f29ef5b09f5aa237566f0b87178181a'
p80
sa(dp81
g2
S'35907'
p82
sg4
S'4394'
p83
sg6
S'0d8e220763bf5a76d8f523f67895bde3'
p84
sg8
S'xxcf08bb18d9171760e1ae98199aceece2'
p85
sg10
S'xx57ad19992fa8b0d072ed7e7251a9999f'
p86
sg12
S'xx97414dd8c11026eb321363ebb2e18154'
p87
sg14
S'Mozilla/5.0 (Linux; Android 6.0.1; MI 5 Build/MXB48T) AppleWebKit/537.36 (KHTML, like Gecko) Version/4.0 Chrome/37.0.0.0 Mobile MQQBrowser/6.8 TBS/036849 Safari/537.36 MicroMessenger/6.3.27.880 NetType/WIFI Language/zh_CN'
p88
sg16
S'8f29ef5b09f5aa237566f0b87178181a'
p89
sa.