(lp0
(dp1
S'user_id'
p2
S'33836'
p3
sS'data_id'
p4
S'623'
p5
sS'ip'
p6
S'509368e6f61d2e7b8daf31e0cb12da6d'
p7
sS'phone_B'
p8
S'xxce4ab925278b9b0e1d5817698bd5f680'
p9
sS'phone_C'
p10
S'xx7b095e7288d4e18b0040f72dda7e33b0'
p11
sS'phone_A'
p12
S'xx98f04d3a77bcf5d425c0d38767261a0b'
p13
sS'user_agent'
p14
S'Mozilla/5.0 (Linux; Android 5.0; SM-N9008 Build/LRX21V) AppleWebKit/537.36 (KHTML, like Gecko) Version/4.0 Chrome/37.0.0.0 Mobile MQQBrowser/6.8 TBS/036849 Safari/537.36 MicroMessenger/6.3.27.880 NetType/WIFI Language/zh_CN'
p15
sS'ua'
p16
S'0c0d96c6c92f746ea76743ce326fd44c'
p17
sa(dp18
g2
S'33836'
p19
sg4
S'640'
p20
sg6
S'509368e6f61d2e7b8daf31e0cb12da6d'
p21
sg8
S'xxce4ab925278b9b0e1d5817698bd5f680'
p22
sg10
S'xx7b095e7288d4e18b0040f72dda7e33b0'
p23
sg12
S'xx98f04d3a77bcf5d425c0d38767261a0b'
p24
sg14
S'Mozilla/5.0 (Linux; Android 5.0; SM-N9008 Build/LRX21V) AppleWebKit/537.36 (KHTML, like Gecko) Version/4.0 Chrome/37.0.0.0 Mobile MQQBrowser/6.8 TBS/036849 Safari/537.36 MicroMessenger/6.3.27.880 NetType/WIFI Language/zh_CN'
p25
sg16
S'0c0d96c6c92f746ea76743ce326fd44c'
p26
sa.