(lp0
(dp1
S'user_id'
p2
S'31148'
p3
sS'data_id'
p4
S'3746'
p5
sS'ip'
p6
S'76bf2b3bbb5e0bc9816642a7858b57e1'
p7
sS'phone_B'
p8
S'xx15f501477c31041b6d478610e9ed263e'
p9
sS'phone_C'
p10
S'xx56173981ee3abe7f88e74c71a7a2ce7f'
p11
sS'phone_A'
p12
S'xx993581f0057cc8847a09cf9c6a0d0c89'
p13
sS'user_agent'
p14
S'Mozilla/5.0 (Linux; Android 6.0; HUAWEI MT7-TL10 Build/HuaweiMT7-TL10) AppleWebKit/537.36 (KHTML, like Gecko) Version/4.0 Chrome/37.0.0.0 Mobile MQQBrowser/6.8 TBS/036869 Safari/537.36 MicroMessenger/6.3.27.880 NetType/WIFI Language/zh_CN'
p15
sS'ua'
p16
S'497b1ee5aaa7d1de20d2745c188983ef'
p17
sa(dp18
g2
S'31148'
p19
sg4
S'3764'
p20
sg6
S'76bf2b3bbb5e0bc9816642a7858b57e1'
p21
sg8
S'xx15f501477c31041b6d478610e9ed263e'
p22
sg10
S'xx56173981ee3abe7f88e74c71a7a2ce7f'
p23
sg12
S'xx993581f0057cc8847a09cf9c6a0d0c89'
p24
sg14
S'Mozilla/5.0 (Linux; Android 6.0; HUAWEI MT7-TL10 Build/HuaweiMT7-TL10) AppleWebKit/537.36 (KHTML, like Gecko) Version/4.0 Chrome/37.0.0.0 Mobile MQQBrowser/6.8 TBS/036869 Safari/537.36 MicroMessenger/6.3.27.880 NetType/WIFI Language/zh_CN'
p25
sg16
S'497b1ee5aaa7d1de20d2745c188983ef'
p26
sa(dp27
g2
S'49779'
p28
sg4
S'3935'
p29
sg6
S'ec42953f21f76f9374adb226aaa59aaf'
p30
sg8
S'xxd6c090aad855771bc02e8cc7f84170b6'
p31
sg10
S'xx3c1f9145ecee6dd814d4425abc6c369c'
p32
sg12
S'xx993581f0057cc8847a09cf9c6a0d0c89'
p33
sg14
S'Mozilla/5.0 (Linux; Android 4.4.2; HUAWEI MT7-TL10 Build/HuaweiMT7-TL10) AppleWebKit/537.36 (KHTML, like Gecko) Version/4.0 Chrome/37.0.0.0 Mobile MQQBrowser/6.8 TBS/036865 Safari/537.36 MicroMessenger/6.3.27.880 NetType/cmnet Language/zh_CN'
p34
sg16
S'abd9c63df4518767716c7fd956872675'
p35
sa(dp36
g2
S'49779'
p37
sg4
S'3955'
p38
sg6
S'ec42953f21f76f9374adb226aaa59aaf'
p39
sg8
S'xxd6c090aad855771bc02e8cc7f84170b6'
p40
sg10
S'xx3c1f9145ecee6dd814d4425abc6c369c'
p41
sg12
S'xx993581f0057cc8847a09cf9c6a0d0c89'
p42
sg14
S'Mozilla/5.0 (Linux; Android 4.4.2; HUAWEI MT7-TL10 Build/HuaweiMT7-TL10) AppleWebKit/537.36 (KHTML, like Gecko) Version/4.0 Chrome/37.0.0.0 Mobile MQQBrowser/6.8 TBS/036865 Safari/537.36 MicroMessenger/6.3.27.880 NetType/cmnet Language/zh_CN'
p43
sg16
S'abd9c63df4518767716c7fd956872675'
p44
sa.