(lp0
(dp1
S'user_id'
p2
S'26084'
p3
sS'data_id'
p4
S'439'
p5
sS'ip'
p6
S'50eaccbab87ef98eaf79ea688bc155f6'
p7
sS'phone_B'
p8
S'xxeccb74c8ac98927a7d2935f21f3861e2'
p9
sS'phone_C'
p10
S'xx7ee850a15eb31f2b34978e56015c717a'
p11
sS'phone_A'
p12
S'xx99742339c9ee89a0974d66c941246977'
p13
sS'user_agent'
p14
S'Mozilla/5.0 (Linux; Android 4.4.4; CHM-CL00 Build/CHM-CL00) AppleWebKit/537.36 (KHTML, like Gecko) Version/4.0 Chrome/37.0.0.0 Mobile MQQBrowser/6.8 TBS/036849 Safari/537.36 MicroMessenger/6.3.27.880 NetType/WIFI Language/zh_CN'
p15
sS'ua'
p16
S'0d99802b749808fab986ce19af33fb47'
p17
sa(dp18
g2
S'26084'
p19
sg4
S'453'
p20
sg6
S'50eaccbab87ef98eaf79ea688bc155f6'
p21
sg8
S'xxeccb74c8ac98927a7d2935f21f3861e2'
p22
sg10
S'xx7ee850a15eb31f2b34978e56015c717a'
p23
sg12
S'xx99742339c9ee89a0974d66c941246977'
p24
sg14
S'Mozilla/5.0 (Linux; Android 4.4.4; CHM-CL00 Build/CHM-CL00) AppleWebKit/537.36 (KHTML, like Gecko) Version/4.0 Chrome/37.0.0.0 Mobile MQQBrowser/6.8 TBS/036849 Safari/537.36 MicroMessenger/6.3.27.880 NetType/WIFI Language/zh_CN'
p25
sg16
S'0d99802b749808fab986ce19af33fb47'
p26
sa(dp27
g2
S'26084'
p28
sg4
S'461'
p29
sg6
S'50eaccbab87ef98eaf79ea688bc155f6'
p30
sg8
S'xxeccb74c8ac98927a7d2935f21f3861e2'
p31
sg10
S'xx7ee850a15eb31f2b34978e56015c717a'
p32
sg12
S'xx99742339c9ee89a0974d66c941246977'
p33
sg14
S'Mozilla/5.0 (Linux; Android 4.4.4; CHM-CL00 Build/CHM-CL00) AppleWebKit/537.36 (KHTML, like Gecko) Version/4.0 Chrome/37.0.0.0 Mobile MQQBrowser/6.8 TBS/036849 Safari/537.36 MicroMessenger/6.3.27.880 NetType/WIFI Language/zh_CN'
p34
sg16
S'0d99802b749808fab986ce19af33fb47'
p35
sa(dp36
g2
S'33599'
p37
sg4
S'8087'
p38
sg6
S'edda35ba92f81efcda71b5ba9283bdf8'
p39
sg8
S'xx89b73340dcd06fa7882e7d853ec46272'
p40
sg10
S'xx7ee850a15eb31f2b34978e56015c717a'
p41
sg12
S'xx99742339c9ee89a0974d66c941246977'
p42
sg14
S'Mozilla/5.0 (Linux; Android 4.4.4; CHM-CL00 Build/CHM-CL00) AppleWebKit/537.36 (KHTML, like Gecko) Version/4.0 Chrome/37.0.0.0 Mobile MQQBrowser/6.8 TBS/036849 Safari/537.36 MicroMessenger/6.3.27.880 NetType/ctlte Language/zh_CN'
p43
sg16
S'f08caf6c0882cec992386ee7dda60ac8'
p44
sa(dp45
g2
S'33599'
p46
sg4
S'8096'
p47
sg6
S'edda35ba92f81efcda71b5ba9283bdf8'
p48
sg8
S'xx89b73340dcd06fa7882e7d853ec46272'
p49
sg10
S'xx7ee850a15eb31f2b34978e56015c717a'
p50
sg12
S'xx99742339c9ee89a0974d66c941246977'
p51
sg14
S'Mozilla/5.0 (Linux; Android 4.4.4; CHM-CL00 Build/CHM-CL00) AppleWebKit/537.36 (KHTML, like Gecko) Version/4.0 Chrome/37.0.0.0 Mobile MQQBrowser/6.8 TBS/036849 Safari/537.36 MicroMessenger/6.3.27.880 NetType/ctlte Language/zh_CN'
p52
sg16
S'f08caf6c0882cec992386ee7dda60ac8'
p53
sa.