(lp0
(dp1
S'user_id'
p2
S'39069'
p3
sS'data_id'
p4
S'4808'
p5
sS'ip'
p6
S'7e2000ebab7c43b0c7fc851d1e875257'
p7
sS'phone_B'
p8
S'xxd7cc49671d15979079cc89044cbeda14'
p9
sS'phone_C'
p10
S'xx5ba6e83ab19ca3a94d39ebfc36eb8d6b'
p11
sS'phone_A'
p12
S'xx9a085295d71a1a340ae460d70c00483a'
p13
sS'user_agent'
p14
S'Mozilla/5.0 (Linux; Android 4.4.4; 2014112 Build/KTU84P) AppleWebKit/537.36 (KHTML, like Gecko) Version/4.0 Chrome/37.0.0.0 Mobile MQQBrowser/6.8 TBS/036849 Safari/537.36 MicroMessenger/6.3.25.861 NetType/WIFI Language/zh_CN'
p15
sS'ua'
p16
S'f81f5d769003034dfab22c00114286df'
p17
sa(dp18
g2
S'39069'
p19
sg4
S'4822'
p20
sg6
S'7e2000ebab7c43b0c7fc851d1e875257'
p21
sg8
S'xxd7cc49671d15979079cc89044cbeda14'
p22
sg10
S'xx5ba6e83ab19ca3a94d39ebfc36eb8d6b'
p23
sg12
S'xx9a085295d71a1a340ae460d70c00483a'
p24
sg14
S'Mozilla/5.0 (Linux; Android 4.4.4; 2014112 Build/KTU84P) AppleWebKit/537.36 (KHTML, like Gecko) Version/4.0 Chrome/37.0.0.0 Mobile MQQBrowser/6.8 TBS/036849 Safari/537.36 MicroMessenger/6.3.25.861 NetType/WIFI Language/zh_CN'
p25
sg16
S'f81f5d769003034dfab22c00114286df'
p26
sa(dp27
g2
S'42627'
p28
sg4
S'6325'
p29
sg6
S'10d6e9ba5a7f89e5422202990b7f2ea2'
p30
sg8
S'xxbd5b34bcd2ebedb5a72c5a9f431e868d'
p31
sg10
S'xx5ba6e83ab19ca3a94d39ebfc36eb8d6b'
p32
sg12
S'xx9a085295d71a1a340ae460d70c00483a'
p33
sg14
S'Mozilla/5.0 (Linux; Android 4.4.4; 2014112 Build/KTU84P) AppleWebKit/537.36 (KHTML, like Gecko) Version/4.0 Chrome/37.0.0.0 Mobile MQQBrowser/6.8 TBS/036849 Safari/537.36 MicroMessenger/6.3.27.880 NetType/NON_NETWORK Language/zh_CN'
p34
sg16
S'a36b6573cbe1a0752420291236a599d8'
p35
sa(dp36
g2
S'42627'
p37
sg4
S'6340'
p38
sg6
S'10d6e9ba5a7f89e5422202990b7f2ea2'
p39
sg8
S'xxbd5b34bcd2ebedb5a72c5a9f431e868d'
p40
sg10
S'xx5ba6e83ab19ca3a94d39ebfc36eb8d6b'
p41
sg12
S'xx9a085295d71a1a340ae460d70c00483a'
p42
sg14
S'Mozilla/5.0 (Linux; Android 4.4.4; 2014112 Build/KTU84P) AppleWebKit/537.36 (KHTML, like Gecko) Version/4.0 Chrome/37.0.0.0 Mobile MQQBrowser/6.8 TBS/036849 Safari/537.36 MicroMessenger/6.3.27.880 NetType/NON_NETWORK Language/zh_CN'
p43
sg16
S'a36b6573cbe1a0752420291236a599d8'
p44
sa(dp45
g2
S'37292'
p46
sg4
S'7113'
p47
sg6
S'651d00502aad95b0440fe75e33201e05'
p48
sg8
S'xxd7cc49671d15979079cc89044cbeda14'
p49
sg10
S'xx5ba6e83ab19ca3a94d39ebfc36eb8d6b'
p50
sg12
S'xx9a085295d71a1a340ae460d70c00483a'
p51
sg14
S'Mozilla/5.0 (Linux; Android 4.4.4; 2014112 Build/KTU84P) AppleWebKit/537.36 (KHTML, like Gecko) Version/4.0 Chrome/37.0.0.0 Mobile MQQBrowser/6.8 TBS/036849 Safari/537.36 MicroMessenger/6.3.25.861 NetType/WIFI Language/zh_CN'
p52
sg16
S'f81f5d769003034dfab22c00114286df'
p53
sa.