(lp0
(dp1
S'user_id'
p2
S'39298'
p3
sS'data_id'
p4
S'1025'
p5
sS'ip'
p6
S'8b1b11cac27985806f42c718b6569bb8'
p7
sS'phone_B'
p8
S'xx2d8697cb903df39ecb5997db8116a391'
p9
sS'phone_C'
p10
S'xx2e8fcb78af8833c3035a712c4fa4a3a6'
p11
sS'phone_A'
p12
S'xx9a4bea4a7743b974787d700e93f67cff'
p13
sS'user_agent'
p14
S'Mozilla/5.0 (Linux; Android 4.4.4; M355 Build/KTU84P) AppleWebKit/537.36 (KHTML, like Gecko) Version/4.0 Chrome/37.0.0.0 Mobile MQQBrowser/6.8 TBS/036849 Safari/537.36 MicroMessenger/6.3.27.880 NetType/WIFI Language/zh_CN'
p15
sS'ua'
p16
S'bdc84319398ff5e8f7d18bbdf749212e'
p17
sa(dp18
g2
S'39298'
p19
sg4
S'1042'
p20
sg6
S'8b1b11cac27985806f42c718b6569bb8'
p21
sg8
S'xx2d8697cb903df39ecb5997db8116a391'
p22
sg10
S'xx2e8fcb78af8833c3035a712c4fa4a3a6'
p23
sg12
S'xx9a4bea4a7743b974787d700e93f67cff'
p24
sg14
S'Mozilla/5.0 (Linux; Android 4.4.4; M355 Build/KTU84P) AppleWebKit/537.36 (KHTML, like Gecko) Version/4.0 Chrome/37.0.0.0 Mobile MQQBrowser/6.8 TBS/036849 Safari/537.36 MicroMessenger/6.3.27.880 NetType/WIFI Language/zh_CN'
p25
sg16
S'bdc84319398ff5e8f7d18bbdf749212e'
p26
sa(dp27
g2
S'39298'
p28
sg4
S'1061'
p29
sg6
S'8b1b11cac27985806f42c718b6569bb8'
p30
sg8
S'xx2d8697cb903df39ecb5997db8116a391'
p31
sg10
S'xx2e8fcb78af8833c3035a712c4fa4a3a6'
p32
sg12
S'xx9a4bea4a7743b974787d700e93f67cff'
p33
sg14
S'Mozilla/5.0 (Linux; Android 4.4.4; M355 Build/KTU84P) AppleWebKit/537.36 (KHTML, like Gecko) Version/4.0 Chrome/37.0.0.0 Mobile MQQBrowser/6.8 TBS/036849 Safari/537.36 MicroMessenger/6.3.27.880 NetType/WIFI Language/zh_CN'
p34
sg16
S'bdc84319398ff5e8f7d18bbdf749212e'
p35
sa.