(lp0
(dp1
S'user_id'
p2
S'37947'
p3
sS'data_id'
p4
S'564'
p5
sS'ip'
p6
S'd093be3332e3d940e1a1d7fd6b6344e9'
p7
sS'phone_B'
p8
S'xx2721ff23d2cef794749c76e0bee120f1'
p9
sS'phone_C'
p10
S'xxf0692215d284ed85ce578735b6933e3a'
p11
sS'phone_A'
p12
S'xx9a937216a26cd6869e41cdf7858a8f43'
p13
sS'user_agent'
p14
S'Mozilla/5.0 (Linux; Android 5.0.2; vivo Y31 Build/LRX22G) AppleWebKit/537.36 (KHTML, like Gecko) Version/4.0 Chrome/37.0.0.0 Mobile MQQBrowser/6.8 TBS/036869 Safari/537.36 MicroMessenger/6.3.27.880 NetType/cmnet Language/zh_CN'
p15
sS'ua'
p16
S'e8b722bafab80659d0a7e2fe961eca69'
p17
sa(dp18
g2
S'37947'
p19
sg4
S'581'
p20
sg6
S'd093be3332e3d940e1a1d7fd6b6344e9'
p21
sg8
S'xx2721ff23d2cef794749c76e0bee120f1'
p22
sg10
S'xxf0692215d284ed85ce578735b6933e3a'
p23
sg12
S'xx9a937216a26cd6869e41cdf7858a8f43'
p24
sg14
S'Mozilla/5.0 (Linux; Android 5.0.2; vivo Y31 Build/LRX22G) AppleWebKit/537.36 (KHTML, like Gecko) Version/4.0 Chrome/37.0.0.0 Mobile MQQBrowser/6.8 TBS/036869 Safari/537.36 MicroMessenger/6.3.27.880 NetType/cmnet Language/zh_CN'
p25
sg16
S'e8b722bafab80659d0a7e2fe961eca69'
p26
sa(dp27
g2
S'20800'
p28
sg4
S'1347'
p29
sg6
S'22d28e31b2562d5e9a44cb2d2218b6b6'
p30
sg8
S'xxa4f116b5bfe81830ff0c16dce22deb87'
p31
sg10
S'xx500d85066176ca0cec843e2c50d7fe54'
p32
sg12
S'xx9a937216a26cd6869e41cdf7858a8f43'
p33
sg14
S'Mozilla/5.0 (Linux; Android 5.0.2; vivo Y31 Build/LRX22G) AppleWebKit/537.36 (KHTML, like Gecko) Version/4.0 Chrome/37.0.0.0 Mobile MQQBrowser/6.8 TBS/036869 Safari/537.36 MicroMessenger/6.3.27.880 NetType/WIFI Language/zh_CN'
p34
sg16
S'023501355d0febb3ce002b4888d88c71'
p35
sa(dp36
g2
S'20800'
p37
sg4
S'1355'
p38
sg6
S'22d28e31b2562d5e9a44cb2d2218b6b6'
p39
sg8
S'xxa4f116b5bfe81830ff0c16dce22deb87'
p40
sg10
S'xx500d85066176ca0cec843e2c50d7fe54'
p41
sg12
S'xx9a937216a26cd6869e41cdf7858a8f43'
p42
sg14
S'Mozilla/5.0 (Linux; Android 5.0.2; vivo Y31 Build/LRX22G) AppleWebKit/537.36 (KHTML, like Gecko) Version/4.0 Chrome/37.0.0.0 Mobile MQQBrowser/6.8 TBS/036869 Safari/537.36 MicroMessenger/6.3.27.880 NetType/WIFI Language/zh_CN'
p43
sg16
S'023501355d0febb3ce002b4888d88c71'
p44
sa(dp45
g2
S'20800'
p46
sg4
S'1379'
p47
sg6
S'22d28e31b2562d5e9a44cb2d2218b6b6'
p48
sg8
S'xxa4f116b5bfe81830ff0c16dce22deb87'
p49
sg10
S'xx500d85066176ca0cec843e2c50d7fe54'
p50
sg12
S'xx9a937216a26cd6869e41cdf7858a8f43'
p51
sg14
S'Mozilla/5.0 (Linux; Android 5.0.2; vivo Y31 Build/LRX22G) AppleWebKit/537.36 (KHTML, like Gecko) Version/4.0 Chrome/37.0.0.0 Mobile MQQBrowser/6.8 TBS/036869 Safari/537.36 MicroMessenger/6.3.27.880 NetType/WIFI Language/zh_CN'
p52
sg16
S'023501355d0febb3ce002b4888d88c71'
p53
sa(dp54
g2
S'20800'
p55
sg4
S'1391'
p56
sg6
S'22d28e31b2562d5e9a44cb2d2218b6b6'
p57
sg8
S'xxa4f116b5bfe81830ff0c16dce22deb87'
p58
sg10
S'xx500d85066176ca0cec843e2c50d7fe54'
p59
sg12
S'xx9a937216a26cd6869e41cdf7858a8f43'
p60
sg14
S'Mozilla/5.0 (Linux; Android 5.0.2; vivo Y31 Build/LRX22G) AppleWebKit/537.36 (KHTML, like Gecko) Version/4.0 Chrome/37.0.0.0 Mobile MQQBrowser/6.8 TBS/036869 Safari/537.36 MicroMessenger/6.3.27.880 NetType/WIFI Language/zh_CN'
p61
sg16
S'023501355d0febb3ce002b4888d88c71'
p62
sa(dp63
g2
S'20800'
p64
sg4
S'1405'
p65
sg6
S'22d28e31b2562d5e9a44cb2d2218b6b6'
p66
sg8
S'xxa4f116b5bfe81830ff0c16dce22deb87'
p67
sg10
S'xx500d85066176ca0cec843e2c50d7fe54'
p68
sg12
S'xx9a937216a26cd6869e41cdf7858a8f43'
p69
sg14
S'Mozilla/5.0 (Linux; Android 5.0.2; vivo Y31 Build/LRX22G) AppleWebKit/537.36 (KHTML, like Gecko) Version/4.0 Chrome/37.0.0.0 Mobile MQQBrowser/6.8 TBS/036869 Safari/537.36 MicroMessenger/6.3.27.880 NetType/WIFI Language/zh_CN'
p70
sg16
S'023501355d0febb3ce002b4888d88c71'
p71
sa(dp72
g2
S'20800'
p73
sg4
S'1416'
p74
sg6
S'22d28e31b2562d5e9a44cb2d2218b6b6'
p75
sg8
S'xxa4f116b5bfe81830ff0c16dce22deb87'
p76
sg10
S'xx500d85066176ca0cec843e2c50d7fe54'
p77
sg12
S'xx9a937216a26cd6869e41cdf7858a8f43'
p78
sg14
S'Mozilla/5.0 (Linux; Android 5.0.2; vivo Y31 Build/LRX22G) AppleWebKit/537.36 (KHTML, like Gecko) Version/4.0 Chrome/37.0.0.0 Mobile MQQBrowser/6.8 TBS/036869 Safari/537.36 MicroMessenger/6.3.27.880 NetType/WIFI Language/zh_CN'
p79
sg16
S'023501355d0febb3ce002b4888d88c71'
p80
sa(dp81
g2
S'20800'
p82
sg4
S'1429'
p83
sg6
S'22d28e31b2562d5e9a44cb2d2218b6b6'
p84
sg8
S'xxa4f116b5bfe81830ff0c16dce22deb87'
p85
sg10
S'xx500d85066176ca0cec843e2c50d7fe54'
p86
sg12
S'xx9a937216a26cd6869e41cdf7858a8f43'
p87
sg14
S'Mozilla/5.0 (Linux; Android 5.0.2; vivo Y31 Build/LRX22G) AppleWebKit/537.36 (KHTML, like Gecko) Version/4.0 Chrome/37.0.0.0 Mobile MQQBrowser/6.8 TBS/036869 Safari/537.36 MicroMessenger/6.3.27.880 NetType/WIFI Language/zh_CN'
p88
sg16
S'023501355d0febb3ce002b4888d88c71'
p89
sa(dp90
g2
S'20800'
p91
sg4
S'1439'
p92
sg6
S'22d28e31b2562d5e9a44cb2d2218b6b6'
p93
sg8
S'xxa4f116b5bfe81830ff0c16dce22deb87'
p94
sg10
S'xx500d85066176ca0cec843e2c50d7fe54'
p95
sg12
S'xx9a937216a26cd6869e41cdf7858a8f43'
p96
sg14
S'Mozilla/5.0 (Linux; Android 5.0.2; vivo Y31 Build/LRX22G) AppleWebKit/537.36 (KHTML, like Gecko) Version/4.0 Chrome/37.0.0.0 Mobile MQQBrowser/6.8 TBS/036869 Safari/537.36 MicroMessenger/6.3.27.880 NetType/WIFI Language/zh_CN'
p97
sg16
S'023501355d0febb3ce002b4888d88c71'
p98
sa(dp99
g2
S'20800'
p100
sg4
S'1482'
p101
sg6
S'22d28e31b2562d5e9a44cb2d2218b6b6'
p102
sg8
S'xxa4f116b5bfe81830ff0c16dce22deb87'
p103
sg10
S'xx500d85066176ca0cec843e2c50d7fe54'
p104
sg12
S'xx9a937216a26cd6869e41cdf7858a8f43'
p105
sg14
S'Mozilla/5.0 (Linux; Android 5.0.2; vivo Y31 Build/LRX22G) AppleWebKit/537.36 (KHTML, like Gecko) Version/4.0 Chrome/37.0.0.0 Mobile MQQBrowser/6.8 TBS/036869 Safari/537.36 MicroMessenger/6.3.27.880 NetType/WIFI Language/zh_CN'
p106
sg16
S'023501355d0febb3ce002b4888d88c71'
p107
sa(dp108
g2
S'20800'
p109
sg4
S'1491'
p110
sg6
S'22d28e31b2562d5e9a44cb2d2218b6b6'
p111
sg8
S'xxa4f116b5bfe81830ff0c16dce22deb87'
p112
sg10
S'xx500d85066176ca0cec843e2c50d7fe54'
p113
sg12
S'xx9a937216a26cd6869e41cdf7858a8f43'
p114
sg14
S'Mozilla/5.0 (Linux; Android 5.0.2; vivo Y31 Build/LRX22G) AppleWebKit/537.36 (KHTML, like Gecko) Version/4.0 Chrome/37.0.0.0 Mobile MQQBrowser/6.8 TBS/036869 Safari/537.36 MicroMessenger/6.3.27.880 NetType/WIFI Language/zh_CN'
p115
sg16
S'023501355d0febb3ce002b4888d88c71'
p116
sa(dp117
g2
S'20800'
p118
sg4
S'1502'
p119
sg6
S'22d28e31b2562d5e9a44cb2d2218b6b6'
p120
sg8
S'xxa4f116b5bfe81830ff0c16dce22deb87'
p121
sg10
S'xx500d85066176ca0cec843e2c50d7fe54'
p122
sg12
S'xx9a937216a26cd6869e41cdf7858a8f43'
p123
sg14
S'Mozilla/5.0 (Linux; Android 5.0.2; vivo Y31 Build/LRX22G) AppleWebKit/537.36 (KHTML, like Gecko) Version/4.0 Chrome/37.0.0.0 Mobile MQQBrowser/6.8 TBS/036869 Safari/537.36 MicroMessenger/6.3.27.880 NetType/WIFI Language/zh_CN'
p124
sg16
S'023501355d0febb3ce002b4888d88c71'
p125
sa(dp126
g2
S'20800'
p127
sg4
S'1542'
p128
sg6
S'22d28e31b2562d5e9a44cb2d2218b6b6'
p129
sg8
S'xxa4f116b5bfe81830ff0c16dce22deb87'
p130
sg10
S'xx500d85066176ca0cec843e2c50d7fe54'
p131
sg12
S'xx9a937216a26cd6869e41cdf7858a8f43'
p132
sg14
S'Mozilla/5.0 (Linux; Android 5.0.2; vivo Y31 Build/LRX22G) AppleWebKit/537.36 (KHTML, like Gecko) Version/4.0 Chrome/37.0.0.0 Mobile MQQBrowser/6.8 TBS/036869 Safari/537.36 MicroMessenger/6.3.27.880 NetType/WIFI Language/zh_CN'
p133
sg16
S'023501355d0febb3ce002b4888d88c71'
p134
sa(dp135
g2
S'20800'
p136
sg4
S'1553'
p137
sg6
S'22d28e31b2562d5e9a44cb2d2218b6b6'
p138
sg8
S'xxa4f116b5bfe81830ff0c16dce22deb87'
p139
sg10
S'xx500d85066176ca0cec843e2c50d7fe54'
p140
sg12
S'xx9a937216a26cd6869e41cdf7858a8f43'
p141
sg14
S'Mozilla/5.0 (Linux; Android 5.0.2; vivo Y31 Build/LRX22G) AppleWebKit/537.36 (KHTML, like Gecko) Version/4.0 Chrome/37.0.0.0 Mobile MQQBrowser/6.8 TBS/036869 Safari/537.36 MicroMessenger/6.3.27.880 NetType/WIFI Language/zh_CN'
p142
sg16
S'023501355d0febb3ce002b4888d88c71'
p143
sa(dp144
g2
S'20800'
p145
sg4
S'1566'
p146
sg6
S'22d28e31b2562d5e9a44cb2d2218b6b6'
p147
sg8
S'xxa4f116b5bfe81830ff0c16dce22deb87'
p148
sg10
S'xx500d85066176ca0cec843e2c50d7fe54'
p149
sg12
S'xx9a937216a26cd6869e41cdf7858a8f43'
p150
sg14
S'Mozilla/5.0 (Linux; Android 5.0.2; vivo Y31 Build/LRX22G) AppleWebKit/537.36 (KHTML, like Gecko) Version/4.0 Chrome/37.0.0.0 Mobile MQQBrowser/6.8 TBS/036869 Safari/537.36 MicroMessenger/6.3.27.880 NetType/WIFI Language/zh_CN'
p151
sg16
S'023501355d0febb3ce002b4888d88c71'
p152
sa(dp153
g2
S'20800'
p154
sg4
S'1724'
p155
sg6
S'22d28e31b2562d5e9a44cb2d2218b6b6'
p156
sg8
S'xxa4f116b5bfe81830ff0c16dce22deb87'
p157
sg10
S'xx500d85066176ca0cec843e2c50d7fe54'
p158
sg12
S'xx9a937216a26cd6869e41cdf7858a8f43'
p159
sg14
S'Mozilla/5.0 (Linux; Android 5.0.2; vivo Y31 Build/LRX22G) AppleWebKit/537.36 (KHTML, like Gecko) Version/4.0 Chrome/37.0.0.0 Mobile MQQBrowser/6.8 TBS/036869 Safari/537.36 MicroMessenger/6.3.27.880 NetType/WIFI Language/zh_CN'
p160
sg16
S'023501355d0febb3ce002b4888d88c71'
p161
sa(dp162
g2
S'20800'
p163
sg4
S'1743'
p164
sg6
S'22d28e31b2562d5e9a44cb2d2218b6b6'
p165
sg8
S'xxa4f116b5bfe81830ff0c16dce22deb87'
p166
sg10
S'xx500d85066176ca0cec843e2c50d7fe54'
p167
sg12
S'xx9a937216a26cd6869e41cdf7858a8f43'
p168
sg14
S'Mozilla/5.0 (Linux; Android 5.0.2; vivo Y31 Build/LRX22G) AppleWebKit/537.36 (KHTML, like Gecko) Version/4.0 Chrome/37.0.0.0 Mobile MQQBrowser/6.8 TBS/036869 Safari/537.36 MicroMessenger/6.3.27.880 NetType/WIFI Language/zh_CN'
p169
sg16
S'023501355d0febb3ce002b4888d88c71'
p170
sa(dp171
g2
S'20800'
p172
sg4
S'1759'
p173
sg6
S'22d28e31b2562d5e9a44cb2d2218b6b6'
p174
sg8
S'xxa4f116b5bfe81830ff0c16dce22deb87'
p175
sg10
S'xx500d85066176ca0cec843e2c50d7fe54'
p176
sg12
S'xx9a937216a26cd6869e41cdf7858a8f43'
p177
sg14
S'Mozilla/5.0 (Linux; Android 5.0.2; vivo Y31 Build/LRX22G) AppleWebKit/537.36 (KHTML, like Gecko) Version/4.0 Chrome/37.0.0.0 Mobile MQQBrowser/6.8 TBS/036869 Safari/537.36 MicroMessenger/6.3.27.880 NetType/WIFI Language/zh_CN'
p178
sg16
S'023501355d0febb3ce002b4888d88c71'
p179
sa(dp180
g2
S'20800'
p181
sg4
S'1777'
p182
sg6
S'22d28e31b2562d5e9a44cb2d2218b6b6'
p183
sg8
S'xxa4f116b5bfe81830ff0c16dce22deb87'
p184
sg10
S'xx500d85066176ca0cec843e2c50d7fe54'
p185
sg12
S'xx9a937216a26cd6869e41cdf7858a8f43'
p186
sg14
S'Mozilla/5.0 (Linux; Android 5.0.2; vivo Y31 Build/LRX22G) AppleWebKit/537.36 (KHTML, like Gecko) Version/4.0 Chrome/37.0.0.0 Mobile MQQBrowser/6.8 TBS/036869 Safari/537.36 MicroMessenger/6.3.27.880 NetType/WIFI Language/zh_CN'
p187
sg16
S'023501355d0febb3ce002b4888d88c71'
p188
sa(dp189
g2
S'19898'
p190
sg4
S'5250'
p191
sg6
S'7470be4cdd895a5288c45b70e34cddc6'
p192
sg8
S'xx8f46c633dee69c30ae98b8c7206d13f0'
p193
sg10
S'xxf0692215d284ed85ce578735b6933e3a'
p194
sg12
S'xx9a937216a26cd6869e41cdf7858a8f43'
p195
sg14
S'Mozilla/5.0 (Linux; Android 5.0.2; vivo Y31 Build/LRX22G) AppleWebKit/537.36 (KHTML, like Gecko) Version/4.0 Chrome/37.0.0.0 Mobile MQQBrowser/6.8 TBS/036869 Safari/537.36 MicroMessenger/6.3.27.880 NetType/WIFI Language/zh_CN'
p196
sg16
S'023501355d0febb3ce002b4888d88c71'
p197
sa(dp198
g2
S'19898'
p199
sg4
S'5267'
p200
sg6
S'7470be4cdd895a5288c45b70e34cddc6'
p201
sg8
S'xx8f46c633dee69c30ae98b8c7206d13f0'
p202
sg10
S'xxf0692215d284ed85ce578735b6933e3a'
p203
sg12
S'xx9a937216a26cd6869e41cdf7858a8f43'
p204
sg14
S'Mozilla/5.0 (Linux; Android 5.0.2; vivo Y31 Build/LRX22G) AppleWebKit/537.36 (KHTML, like Gecko) Version/4.0 Chrome/37.0.0.0 Mobile MQQBrowser/6.8 TBS/036869 Safari/537.36 MicroMessenger/6.3.27.880 NetType/WIFI Language/zh_CN'
p205
sg16
S'023501355d0febb3ce002b4888d88c71'
p206
sa(dp207
g2
S'19898'
p208
sg4
S'5285'
p209
sg6
S'7470be4cdd895a5288c45b70e34cddc6'
p210
sg8
S'xx8f46c633dee69c30ae98b8c7206d13f0'
p211
sg10
S'xxf0692215d284ed85ce578735b6933e3a'
p212
sg12
S'xx9a937216a26cd6869e41cdf7858a8f43'
p213
sg14
S'Mozilla/5.0 (Linux; Android 5.0.2; vivo Y31 Build/LRX22G) AppleWebKit/537.36 (KHTML, like Gecko) Version/4.0 Chrome/37.0.0.0 Mobile MQQBrowser/6.8 TBS/036869 Safari/537.36 MicroMessenger/6.3.27.880 NetType/WIFI Language/zh_CN'
p214
sg16
S'023501355d0febb3ce002b4888d88c71'
p215
sa(dp216
g2
S'27930'
p217
sg4
S'5428'
p218
sg6
S'7470be4cdd895a5288c45b70e34cddc6'
p219
sg8
S'xx8f46c633dee69c30ae98b8c7206d13f0'
p220
sg10
S'xxf0692215d284ed85ce578735b6933e3a'
p221
sg12
S'xx9a937216a26cd6869e41cdf7858a8f43'
p222
sg14
S'Mozilla/5.0 (Linux; Android 5.0.2; vivo Y31 Build/LRX22G) AppleWebKit/537.36 (KHTML, like Gecko) Version/4.0 Chrome/37.0.0.0 Mobile MQQBrowser/6.8 TBS/036869 Safari/537.36 MicroMessenger/6.3.27.880 NetType/WIFI Language/zh_CN'
p223
sg16
S'023501355d0febb3ce002b4888d88c71'
p224
sa(dp225
g2
S'27930'
p226
sg4
S'5439'
p227
sg6
S'7470be4cdd895a5288c45b70e34cddc6'
p228
sg8
S'xx8f46c633dee69c30ae98b8c7206d13f0'
p229
sg10
S'xxf0692215d284ed85ce578735b6933e3a'
p230
sg12
S'xx9a937216a26cd6869e41cdf7858a8f43'
p231
sg14
S'Mozilla/5.0 (Linux; Android 5.0.2; vivo Y31 Build/LRX22G) AppleWebKit/537.36 (KHTML, like Gecko) Version/4.0 Chrome/37.0.0.0 Mobile MQQBrowser/6.8 TBS/036869 Safari/537.36 MicroMessenger/6.3.27.880 NetType/WIFI Language/zh_CN'
p232
sg16
S'023501355d0febb3ce002b4888d88c71'
p233
sa(dp234
g2
S'23406'
p235
sg4
S'5588'
p236
sg6
S'7470be4cdd895a5288c45b70e34cddc6'
p237
sg8
S'xx8f46c633dee69c30ae98b8c7206d13f0'
p238
sg10
S'xxf0692215d284ed85ce578735b6933e3a'
p239
sg12
S'xx9a937216a26cd6869e41cdf7858a8f43'
p240
sg14
S'Mozilla/5.0 (Linux; Android 5.0.2; vivo Y31 Build/LRX22G) AppleWebKit/537.36 (KHTML, like Gecko) Version/4.0 Chrome/37.0.0.0 Mobile MQQBrowser/6.8 TBS/036869 Safari/537.36 MicroMessenger/6.3.27.880 NetType/WIFI Language/zh_CN'
p241
sg16
S'023501355d0febb3ce002b4888d88c71'
p242
sa(dp243
g2
S'23406'
p244
sg4
S'5605'
p245
sg6
S'7470be4cdd895a5288c45b70e34cddc6'
p246
sg8
S'xx8f46c633dee69c30ae98b8c7206d13f0'
p247
sg10
S'xxf0692215d284ed85ce578735b6933e3a'
p248
sg12
S'xx9a937216a26cd6869e41cdf7858a8f43'
p249
sg14
S'Mozilla/5.0 (Linux; Android 5.0.2; vivo Y31 Build/LRX22G) AppleWebKit/537.36 (KHTML, like Gecko) Version/4.0 Chrome/37.0.0.0 Mobile MQQBrowser/6.8 TBS/036869 Safari/537.36 MicroMessenger/6.3.27.880 NetType/WIFI Language/zh_CN'
p250
sg16
S'023501355d0febb3ce002b4888d88c71'
p251
sa(dp252
g2
S'40022'
p253
sg4
S'5723'
p254
sg6
S'7470be4cdd895a5288c45b70e34cddc6'
p255
sg8
S'xx8f46c633dee69c30ae98b8c7206d13f0'
p256
sg10
S'xxf0692215d284ed85ce578735b6933e3a'
p257
sg12
S'xx9a937216a26cd6869e41cdf7858a8f43'
p258
sg14
S'Mozilla/5.0 (Linux; Android 5.0.2; vivo Y31 Build/LRX22G) AppleWebKit/537.36 (KHTML, like Gecko) Version/4.0 Chrome/37.0.0.0 Mobile MQQBrowser/6.8 TBS/036869 Safari/537.36 MicroMessenger/6.3.27.880 NetType/WIFI Language/zh_CN'
p259
sg16
S'023501355d0febb3ce002b4888d88c71'
p260
sa(dp261
g2
S'20800'
p262
sg4
S'5818'
p263
sg6
S'22d28e31b2562d5e9a44cb2d2218b6b6'
p264
sg8
S'xxa4f116b5bfe81830ff0c16dce22deb87'
p265
sg10
S'xx500d85066176ca0cec843e2c50d7fe54'
p266
sg12
S'xx9a937216a26cd6869e41cdf7858a8f43'
p267
sg14
S'Mozilla/5.0 (Linux; Android 5.0.2; vivo Y31 Build/LRX22G) AppleWebKit/537.36 (KHTML, like Gecko) Version/4.0 Chrome/37.0.0.0 Mobile MQQBrowser/6.8 TBS/036869 Safari/537.36 MicroMessenger/6.3.27.880 NetType/WIFI Language/zh_CN'
p268
sg16
S'023501355d0febb3ce002b4888d88c71'
p269
sa(dp270
g2
S'20800'
p271
sg4
S'5834'
p272
sg6
S'22d28e31b2562d5e9a44cb2d2218b6b6'
p273
sg8
S'xxa4f116b5bfe81830ff0c16dce22deb87'
p274
sg10
S'xx500d85066176ca0cec843e2c50d7fe54'
p275
sg12
S'xx9a937216a26cd6869e41cdf7858a8f43'
p276
sg14
S'Mozilla/5.0 (Linux; Android 5.0.2; vivo Y31 Build/LRX22G) AppleWebKit/537.36 (KHTML, like Gecko) Version/4.0 Chrome/37.0.0.0 Mobile MQQBrowser/6.8 TBS/036869 Safari/537.36 MicroMessenger/6.3.27.880 NetType/WIFI Language/zh_CN'
p277
sg16
S'023501355d0febb3ce002b4888d88c71'
p278
sa(dp279
g2
S'38719'
p280
sg4
S'5841'
p281
sg6
S'7470be4cdd895a5288c45b70e34cddc6'
p282
sg8
S'xx8f46c633dee69c30ae98b8c7206d13f0'
p283
sg10
S'xxf0692215d284ed85ce578735b6933e3a'
p284
sg12
S'xx9a937216a26cd6869e41cdf7858a8f43'
p285
sg14
S'Mozilla/5.0 (Linux; Android 5.0.2; vivo Y31 Build/LRX22G) AppleWebKit/537.36 (KHTML, like Gecko) Version/4.0 Chrome/37.0.0.0 Mobile MQQBrowser/6.8 TBS/036869 Safari/537.36 MicroMessenger/6.3.27.880 NetType/WIFI Language/zh_CN'
p286
sg16
S'023501355d0febb3ce002b4888d88c71'
p287
sa(dp288
g2
S'20800'
p289
sg4
S'5846'
p290
sg6
S'22d28e31b2562d5e9a44cb2d2218b6b6'
p291
sg8
S'xxa4f116b5bfe81830ff0c16dce22deb87'
p292
sg10
S'xx500d85066176ca0cec843e2c50d7fe54'
p293
sg12
S'xx9a937216a26cd6869e41cdf7858a8f43'
p294
sg14
S'Mozilla/5.0 (Linux; Android 5.0.2; vivo Y31 Build/LRX22G) AppleWebKit/537.36 (KHTML, like Gecko) Version/4.0 Chrome/37.0.0.0 Mobile MQQBrowser/6.8 TBS/036869 Safari/537.36 MicroMessenger/6.3.27.880 NetType/WIFI Language/zh_CN'
p295
sg16
S'023501355d0febb3ce002b4888d88c71'
p296
sa(dp297
g2
S'38719'
p298
sg4
S'5852'
p299
sg6
S'7470be4cdd895a5288c45b70e34cddc6'
p300
sg8
S'xx8f46c633dee69c30ae98b8c7206d13f0'
p301
sg10
S'xxf0692215d284ed85ce578735b6933e3a'
p302
sg12
S'xx9a937216a26cd6869e41cdf7858a8f43'
p303
sg14
S'Mozilla/5.0 (Linux; Android 5.0.2; vivo Y31 Build/LRX22G) AppleWebKit/537.36 (KHTML, like Gecko) Version/4.0 Chrome/37.0.0.0 Mobile MQQBrowser/6.8 TBS/036869 Safari/537.36 MicroMessenger/6.3.27.880 NetType/WIFI Language/zh_CN'
p304
sg16
S'023501355d0febb3ce002b4888d88c71'
p305
sa(dp306
g2
S'20800'
p307
sg4
S'5877'
p308
sg6
S'22d28e31b2562d5e9a44cb2d2218b6b6'
p309
sg8
S'xxa4f116b5bfe81830ff0c16dce22deb87'
p310
sg10
S'xx500d85066176ca0cec843e2c50d7fe54'
p311
sg12
S'xx9a937216a26cd6869e41cdf7858a8f43'
p312
sg14
S'Mozilla/5.0 (Linux; Android 5.0.2; vivo Y31 Build/LRX22G) AppleWebKit/537.36 (KHTML, like Gecko) Version/4.0 Chrome/37.0.0.0 Mobile MQQBrowser/6.8 TBS/036869 Safari/537.36 MicroMessenger/6.3.27.880 NetType/WIFI Language/zh_CN'
p313
sg16
S'023501355d0febb3ce002b4888d88c71'
p314
sa(dp315
g2
S'19898'
p316
sg4
S'5957'
p317
sg6
S'7470be4cdd895a5288c45b70e34cddc6'
p318
sg8
S'xx8f46c633dee69c30ae98b8c7206d13f0'
p319
sg10
S'xxf0692215d284ed85ce578735b6933e3a'
p320
sg12
S'xx9a937216a26cd6869e41cdf7858a8f43'
p321
sg14
S'Mozilla/5.0 (Linux; Android 5.0.2; vivo Y31 Build/LRX22G) AppleWebKit/537.36 (KHTML, like Gecko) Version/4.0 Chrome/37.0.0.0 Mobile MQQBrowser/6.8 TBS/036869 Safari/537.36 MicroMessenger/6.3.27.880 NetType/WIFI Language/zh_CN'
p322
sg16
S'023501355d0febb3ce002b4888d88c71'
p323
sa(dp324
g2
S'19898'
p325
sg4
S'5969'
p326
sg6
S'7470be4cdd895a5288c45b70e34cddc6'
p327
sg8
S'xx8f46c633dee69c30ae98b8c7206d13f0'
p328
sg10
S'xxf0692215d284ed85ce578735b6933e3a'
p329
sg12
S'xx9a937216a26cd6869e41cdf7858a8f43'
p330
sg14
S'Mozilla/5.0 (Linux; Android 5.0.2; vivo Y31 Build/LRX22G) AppleWebKit/537.36 (KHTML, like Gecko) Version/4.0 Chrome/37.0.0.0 Mobile MQQBrowser/6.8 TBS/036869 Safari/537.36 MicroMessenger/6.3.27.880 NetType/WIFI Language/zh_CN'
p331
sg16
S'023501355d0febb3ce002b4888d88c71'
p332
sa(dp333
g2
S'27930'
p334
sg4
S'6093'
p335
sg6
S'7470be4cdd895a5288c45b70e34cddc6'
p336
sg8
S'xx8f46c633dee69c30ae98b8c7206d13f0'
p337
sg10
S'xxf0692215d284ed85ce578735b6933e3a'
p338
sg12
S'xx9a937216a26cd6869e41cdf7858a8f43'
p339
sg14
S'Mozilla/5.0 (Linux; Android 5.0.2; vivo Y31 Build/LRX22G) AppleWebKit/537.36 (KHTML, like Gecko) Version/4.0 Chrome/37.0.0.0 Mobile MQQBrowser/6.8 TBS/036869 Safari/537.36 MicroMessenger/6.3.27.880 NetType/WIFI Language/zh_CN'
p340
sg16
S'023501355d0febb3ce002b4888d88c71'
p341
sa(dp342
g2
S'23406'
p343
sg4
S'6204'
p344
sg6
S'7470be4cdd895a5288c45b70e34cddc6'
p345
sg8
S'xx8f46c633dee69c30ae98b8c7206d13f0'
p346
sg10
S'xxf0692215d284ed85ce578735b6933e3a'
p347
sg12
S'xx9a937216a26cd6869e41cdf7858a8f43'
p348
sg14
S'Mozilla/5.0 (Linux; Android 5.0.2; vivo Y31 Build/LRX22G) AppleWebKit/537.36 (KHTML, like Gecko) Version/4.0 Chrome/37.0.0.0 Mobile MQQBrowser/6.8 TBS/036869 Safari/537.36 MicroMessenger/6.3.27.880 NetType/WIFI Language/zh_CN'
p349
sg16
S'023501355d0febb3ce002b4888d88c71'
p350
sa(dp351
g2
S'40022'
p352
sg4
S'6300'
p353
sg6
S'7470be4cdd895a5288c45b70e34cddc6'
p354
sg8
S'xx8f46c633dee69c30ae98b8c7206d13f0'
p355
sg10
S'xxf0692215d284ed85ce578735b6933e3a'
p356
sg12
S'xx9a937216a26cd6869e41cdf7858a8f43'
p357
sg14
S'Mozilla/5.0 (Linux; Android 5.0.2; vivo Y31 Build/LRX22G) AppleWebKit/537.36 (KHTML, like Gecko) Version/4.0 Chrome/37.0.0.0 Mobile MQQBrowser/6.8 TBS/036869 Safari/537.36 MicroMessenger/6.3.27.880 NetType/WIFI Language/zh_CN'
p358
sg16
S'023501355d0febb3ce002b4888d88c71'
p359
sa(dp360
g2
S'40022'
p361
sg4
S'6312'
p362
sg6
S'7470be4cdd895a5288c45b70e34cddc6'
p363
sg8
S'xx8f46c633dee69c30ae98b8c7206d13f0'
p364
sg10
S'xxf0692215d284ed85ce578735b6933e3a'
p365
sg12
S'xx9a937216a26cd6869e41cdf7858a8f43'
p366
sg14
S'Mozilla/5.0 (Linux; Android 5.0.2; vivo Y31 Build/LRX22G) AppleWebKit/537.36 (KHTML, like Gecko) Version/4.0 Chrome/37.0.0.0 Mobile MQQBrowser/6.8 TBS/036869 Safari/537.36 MicroMessenger/6.3.27.880 NetType/WIFI Language/zh_CN'
p367
sg16
S'023501355d0febb3ce002b4888d88c71'
p368
sa(dp369
g2
S'38719'
p370
sg4
S'6425'
p371
sg6
S'7470be4cdd895a5288c45b70e34cddc6'
p372
sg8
S'xx8f46c633dee69c30ae98b8c7206d13f0'
p373
sg10
S'xxf0692215d284ed85ce578735b6933e3a'
p374
sg12
S'xx9a937216a26cd6869e41cdf7858a8f43'
p375
sg14
S'Mozilla/5.0 (Linux; Android 5.0.2; vivo Y31 Build/LRX22G) AppleWebKit/537.36 (KHTML, like Gecko) Version/4.0 Chrome/37.0.0.0 Mobile MQQBrowser/6.8 TBS/036869 Safari/537.36 MicroMessenger/6.3.27.880 NetType/WIFI Language/zh_CN'
p376
sg16
S'023501355d0febb3ce002b4888d88c71'
p377
sa(dp378
g2
S'38719'
p379
sg4
S'6441'
p380
sg6
S'7470be4cdd895a5288c45b70e34cddc6'
p381
sg8
S'xx8f46c633dee69c30ae98b8c7206d13f0'
p382
sg10
S'xxf0692215d284ed85ce578735b6933e3a'
p383
sg12
S'xx9a937216a26cd6869e41cdf7858a8f43'
p384
sg14
S'Mozilla/5.0 (Linux; Android 5.0.2; vivo Y31 Build/LRX22G) AppleWebKit/537.36 (KHTML, like Gecko) Version/4.0 Chrome/37.0.0.0 Mobile MQQBrowser/6.8 TBS/036869 Safari/537.36 MicroMessenger/6.3.27.880 NetType/WIFI Language/zh_CN'
p385
sg16
S'023501355d0febb3ce002b4888d88c71'
p386
sa(dp387
g2
S'38719'
p388
sg4
S'6458'
p389
sg6
S'7470be4cdd895a5288c45b70e34cddc6'
p390
sg8
S'xx8f46c633dee69c30ae98b8c7206d13f0'
p391
sg10
S'xxf0692215d284ed85ce578735b6933e3a'
p392
sg12
S'xx9a937216a26cd6869e41cdf7858a8f43'
p393
sg14
S'Mozilla/5.0 (Linux; Android 5.0.2; vivo Y31 Build/LRX22G) AppleWebKit/537.36 (KHTML, like Gecko) Version/4.0 Chrome/37.0.0.0 Mobile MQQBrowser/6.8 TBS/036869 Safari/537.36 MicroMessenger/6.3.27.880 NetType/WIFI Language/zh_CN'
p394
sg16
S'023501355d0febb3ce002b4888d88c71'
p395
sa(dp396
g2
S'19898'
p397
sg4
S'6586'
p398
sg6
S'7470be4cdd895a5288c45b70e34cddc6'
p399
sg8
S'xx8f46c633dee69c30ae98b8c7206d13f0'
p400
sg10
S'xxf0692215d284ed85ce578735b6933e3a'
p401
sg12
S'xx9a937216a26cd6869e41cdf7858a8f43'
p402
sg14
S'Mozilla/5.0 (Linux; Android 5.0.2; vivo Y31 Build/LRX22G) AppleWebKit/537.36 (KHTML, like Gecko) Version/4.0 Chrome/37.0.0.0 Mobile MQQBrowser/6.8 TBS/036869 Safari/537.36 MicroMessenger/6.3.27.880 NetType/WIFI Language/zh_CN'
p403
sg16
S'023501355d0febb3ce002b4888d88c71'
p404
sa(dp405
g2
S'19898'
p406
sg4
S'6601'
p407
sg6
S'7470be4cdd895a5288c45b70e34cddc6'
p408
sg8
S'xx8f46c633dee69c30ae98b8c7206d13f0'
p409
sg10
S'xxf0692215d284ed85ce578735b6933e3a'
p410
sg12
S'xx9a937216a26cd6869e41cdf7858a8f43'
p411
sg14
S'Mozilla/5.0 (Linux; Android 5.0.2; vivo Y31 Build/LRX22G) AppleWebKit/537.36 (KHTML, like Gecko) Version/4.0 Chrome/37.0.0.0 Mobile MQQBrowser/6.8 TBS/036869 Safari/537.36 MicroMessenger/6.3.27.880 NetType/WIFI Language/zh_CN'
p412
sg16
S'023501355d0febb3ce002b4888d88c71'
p413
sa(dp414
g2
S'27930'
p415
sg4
S'6774'
p416
sg6
S'7470be4cdd895a5288c45b70e34cddc6'
p417
sg8
S'xx8f46c633dee69c30ae98b8c7206d13f0'
p418
sg10
S'xxf0692215d284ed85ce578735b6933e3a'
p419
sg12
S'xx9a937216a26cd6869e41cdf7858a8f43'
p420
sg14
S'Mozilla/5.0 (Linux; Android 5.0.2; vivo Y31 Build/LRX22G) AppleWebKit/537.36 (KHTML, like Gecko) Version/4.0 Chrome/37.0.0.0 Mobile MQQBrowser/6.8 TBS/036869 Safari/537.36 MicroMessenger/6.3.27.880 NetType/WIFI Language/zh_CN'
p421
sg16
S'023501355d0febb3ce002b4888d88c71'
p422
sa(dp423
g2
S'27930'
p424
sg4
S'6791'
p425
sg6
S'7470be4cdd895a5288c45b70e34cddc6'
p426
sg8
S'xx8f46c633dee69c30ae98b8c7206d13f0'
p427
sg10
S'xxf0692215d284ed85ce578735b6933e3a'
p428
sg12
S'xx9a937216a26cd6869e41cdf7858a8f43'
p429
sg14
S'Mozilla/5.0 (Linux; Android 5.0.2; vivo Y31 Build/LRX22G) AppleWebKit/537.36 (KHTML, like Gecko) Version/4.0 Chrome/37.0.0.0 Mobile MQQBrowser/6.8 TBS/036869 Safari/537.36 MicroMessenger/6.3.27.880 NetType/WIFI Language/zh_CN'
p430
sg16
S'023501355d0febb3ce002b4888d88c71'
p431
sa(dp432
g2
S'23406'
p433
sg4
S'6910'
p434
sg6
S'7470be4cdd895a5288c45b70e34cddc6'
p435
sg8
S'xx8f46c633dee69c30ae98b8c7206d13f0'
p436
sg10
S'xxf0692215d284ed85ce578735b6933e3a'
p437
sg12
S'xx9a937216a26cd6869e41cdf7858a8f43'
p438
sg14
S'Mozilla/5.0 (Linux; Android 5.0.2; vivo Y31 Build/LRX22G) AppleWebKit/537.36 (KHTML, like Gecko) Version/4.0 Chrome/37.0.0.0 Mobile MQQBrowser/6.8 TBS/036869 Safari/537.36 MicroMessenger/6.3.27.880 NetType/WIFI Language/zh_CN'
p439
sg16
S'023501355d0febb3ce002b4888d88c71'
p440
sa(dp441
g2
S'23406'
p442
sg4
S'6928'
p443
sg6
S'7470be4cdd895a5288c45b70e34cddc6'
p444
sg8
S'xx8f46c633dee69c30ae98b8c7206d13f0'
p445
sg10
S'xxf0692215d284ed85ce578735b6933e3a'
p446
sg12
S'xx9a937216a26cd6869e41cdf7858a8f43'
p447
sg14
S'Mozilla/5.0 (Linux; Android 5.0.2; vivo Y31 Build/LRX22G) AppleWebKit/537.36 (KHTML, like Gecko) Version/4.0 Chrome/37.0.0.0 Mobile MQQBrowser/6.8 TBS/036869 Safari/537.36 MicroMessenger/6.3.27.880 NetType/WIFI Language/zh_CN'
p448
sg16
S'023501355d0febb3ce002b4888d88c71'
p449
sa(dp450
g2
S'40022'
p451
sg4
S'7024'
p452
sg6
S'7470be4cdd895a5288c45b70e34cddc6'
p453
sg8
S'xx8f46c633dee69c30ae98b8c7206d13f0'
p454
sg10
S'xxf0692215d284ed85ce578735b6933e3a'
p455
sg12
S'xx9a937216a26cd6869e41cdf7858a8f43'
p456
sg14
S'Mozilla/5.0 (Linux; Android 5.0.2; vivo Y31 Build/LRX22G) AppleWebKit/537.36 (KHTML, like Gecko) Version/4.0 Chrome/37.0.0.0 Mobile MQQBrowser/6.8 TBS/036869 Safari/537.36 MicroMessenger/6.3.27.880 NetType/WIFI Language/zh_CN'
p457
sg16
S'023501355d0febb3ce002b4888d88c71'
p458
sa(dp459
g2
S'38719'
p460
sg4
S'7160'
p461
sg6
S'7470be4cdd895a5288c45b70e34cddc6'
p462
sg8
S'xx8f46c633dee69c30ae98b8c7206d13f0'
p463
sg10
S'xxf0692215d284ed85ce578735b6933e3a'
p464
sg12
S'xx9a937216a26cd6869e41cdf7858a8f43'
p465
sg14
S'Mozilla/5.0 (Linux; Android 5.0.2; vivo Y31 Build/LRX22G) AppleWebKit/537.36 (KHTML, like Gecko) Version/4.0 Chrome/37.0.0.0 Mobile MQQBrowser/6.8 TBS/036869 Safari/537.36 MicroMessenger/6.3.27.880 NetType/WIFI Language/zh_CN'
p466
sg16
S'023501355d0febb3ce002b4888d88c71'
p467
sa(dp468
g2
S'38719'
p469
sg4
S'7175'
p470
sg6
S'7470be4cdd895a5288c45b70e34cddc6'
p471
sg8
S'xx8f46c633dee69c30ae98b8c7206d13f0'
p472
sg10
S'xxf0692215d284ed85ce578735b6933e3a'
p473
sg12
S'xx9a937216a26cd6869e41cdf7858a8f43'
p474
sg14
S'Mozilla/5.0 (Linux; Android 5.0.2; vivo Y31 Build/LRX22G) AppleWebKit/537.36 (KHTML, like Gecko) Version/4.0 Chrome/37.0.0.0 Mobile MQQBrowser/6.8 TBS/036869 Safari/537.36 MicroMessenger/6.3.27.880 NetType/WIFI Language/zh_CN'
p475
sg16
S'023501355d0febb3ce002b4888d88c71'
p476
sa(dp477
g2
S'19898'
p478
sg4
S'7267'
p479
sg6
S'7470be4cdd895a5288c45b70e34cddc6'
p480
sg8
S'xx8f46c633dee69c30ae98b8c7206d13f0'
p481
sg10
S'xxf0692215d284ed85ce578735b6933e3a'
p482
sg12
S'xx9a937216a26cd6869e41cdf7858a8f43'
p483
sg14
S'Mozilla/5.0 (Linux; Android 5.0.2; vivo Y31 Build/LRX22G) AppleWebKit/537.36 (KHTML, like Gecko) Version/4.0 Chrome/37.0.0.0 Mobile MQQBrowser/6.8 TBS/036869 Safari/537.36 MicroMessenger/6.3.27.880 NetType/WIFI Language/zh_CN'
p484
sg16
S'023501355d0febb3ce002b4888d88c71'
p485
sa(dp486
g2
S'19898'
p487
sg4
S'7284'
p488
sg6
S'7470be4cdd895a5288c45b70e34cddc6'
p489
sg8
S'xx8f46c633dee69c30ae98b8c7206d13f0'
p490
sg10
S'xxf0692215d284ed85ce578735b6933e3a'
p491
sg12
S'xx9a937216a26cd6869e41cdf7858a8f43'
p492
sg14
S'Mozilla/5.0 (Linux; Android 5.0.2; vivo Y31 Build/LRX22G) AppleWebKit/537.36 (KHTML, like Gecko) Version/4.0 Chrome/37.0.0.0 Mobile MQQBrowser/6.8 TBS/036869 Safari/537.36 MicroMessenger/6.3.27.880 NetType/WIFI Language/zh_CN'
p493
sg16
S'023501355d0febb3ce002b4888d88c71'
p494
sa(dp495
g2
S'31509'
p496
sg4
S'7321'
p497
sg6
S'786d06683180fec2232049e18a69876a'
p498
sg8
S'xxcc011d980e3df6d10dda7fcc362da44f'
p499
sg10
S'xxf0692215d284ed85ce578735b6933e3a'
p500
sg12
S'xx9a937216a26cd6869e41cdf7858a8f43'
p501
sg14
S'Mozilla/5.0 (Linux; Android 5.0.2; vivo Y31 Build/LRX22G) AppleWebKit/537.36 (KHTML, like Gecko) Version/4.0 Chrome/37.0.0.0 Mobile MQQBrowser/6.8 TBS/036849 Safari/537.36 MicroMessenger/6.3.27.880 NetType/WIFI Language/zh_CN'
p502
sg16
S'8dacf2f151af6699821ab99135018b65'
p503
sa(dp504
g2
S'31509'
p505
sg4
S'7336'
p506
sg6
S'786d06683180fec2232049e18a69876a'
p507
sg8
S'xxcc011d980e3df6d10dda7fcc362da44f'
p508
sg10
S'xxf0692215d284ed85ce578735b6933e3a'
p509
sg12
S'xx9a937216a26cd6869e41cdf7858a8f43'
p510
sg14
S'Mozilla/5.0 (Linux; Android 5.0.2; vivo Y31 Build/LRX22G) AppleWebKit/537.36 (KHTML, like Gecko) Version/4.0 Chrome/37.0.0.0 Mobile MQQBrowser/6.8 TBS/036849 Safari/537.36 MicroMessenger/6.3.27.880 NetType/WIFI Language/zh_CN'
p511
sg16
S'8dacf2f151af6699821ab99135018b65'
p512
sa(dp513
g2
S'31509'
p514
sg4
S'7359'
p515
sg6
S'786d06683180fec2232049e18a69876a'
p516
sg8
S'xxcc011d980e3df6d10dda7fcc362da44f'
p517
sg10
S'xxf0692215d284ed85ce578735b6933e3a'
p518
sg12
S'xx9a937216a26cd6869e41cdf7858a8f43'
p519
sg14
S'Mozilla/5.0 (Linux; Android 5.0.2; vivo Y31 Build/LRX22G) AppleWebKit/537.36 (KHTML, like Gecko) Version/4.0 Chrome/37.0.0.0 Mobile MQQBrowser/6.8 TBS/036849 Safari/537.36 MicroMessenger/6.3.27.880 NetType/WIFI Language/zh_CN'
p520
sg16
S'8dacf2f151af6699821ab99135018b65'
p521
sa(dp522
g2
S'31509'
p523
sg4
S'7390'
p524
sg6
S'786d06683180fec2232049e18a69876a'
p525
sg8
S'xxcc011d980e3df6d10dda7fcc362da44f'
p526
sg10
S'xxf0692215d284ed85ce578735b6933e3a'
p527
sg12
S'xx9a937216a26cd6869e41cdf7858a8f43'
p528
sg14
S'Mozilla/5.0 (Linux; Android 5.0.2; vivo Y31 Build/LRX22G) AppleWebKit/537.36 (KHTML, like Gecko) Version/4.0 Chrome/37.0.0.0 Mobile MQQBrowser/6.8 TBS/036849 Safari/537.36 MicroMessenger/6.3.27.880 NetType/WIFI Language/zh_CN'
p529
sg16
S'8dacf2f151af6699821ab99135018b65'
p530
sa(dp531
g2
S'31509'
p532
sg4
S'7416'
p533
sg6
S'786d06683180fec2232049e18a69876a'
p534
sg8
S'xxcc011d980e3df6d10dda7fcc362da44f'
p535
sg10
S'xxf0692215d284ed85ce578735b6933e3a'
p536
sg12
S'xx9a937216a26cd6869e41cdf7858a8f43'
p537
sg14
S'Mozilla/5.0 (Linux; Android 5.0.2; vivo Y31 Build/LRX22G) AppleWebKit/537.36 (KHTML, like Gecko) Version/4.0 Chrome/37.0.0.0 Mobile MQQBrowser/6.8 TBS/036849 Safari/537.36 MicroMessenger/6.3.27.880 NetType/WIFI Language/zh_CN'
p538
sg16
S'8dacf2f151af6699821ab99135018b65'
p539
sa(dp540
g2
S'27930'
p541
sg4
S'7426'
p542
sg6
S'7470be4cdd895a5288c45b70e34cddc6'
p543
sg8
S'xx8f46c633dee69c30ae98b8c7206d13f0'
p544
sg10
S'xxf0692215d284ed85ce578735b6933e3a'
p545
sg12
S'xx9a937216a26cd6869e41cdf7858a8f43'
p546
sg14
S'Mozilla/5.0 (Linux; Android 5.0.2; vivo Y31 Build/LRX22G) AppleWebKit/537.36 (KHTML, like Gecko) Version/4.0 Chrome/37.0.0.0 Mobile MQQBrowser/6.8 TBS/036869 Safari/537.36 MicroMessenger/6.3.27.880 NetType/WIFI Language/zh_CN'
p547
sg16
S'023501355d0febb3ce002b4888d88c71'
p548
sa(dp549
g2
S'31509'
p550
sg4
S'7458'
p551
sg6
S'786d06683180fec2232049e18a69876a'
p552
sg8
S'xxcc011d980e3df6d10dda7fcc362da44f'
p553
sg10
S'xxf0692215d284ed85ce578735b6933e3a'
p554
sg12
S'xx9a937216a26cd6869e41cdf7858a8f43'
p555
sg14
S'Mozilla/5.0 (Linux; Android 5.0.2; vivo Y31 Build/LRX22G) AppleWebKit/537.36 (KHTML, like Gecko) Version/4.0 Chrome/37.0.0.0 Mobile MQQBrowser/6.8 TBS/036849 Safari/537.36 MicroMessenger/6.3.27.880 NetType/WIFI Language/zh_CN'
p556
sg16
S'8dacf2f151af6699821ab99135018b65'
p557
sa(dp558
g2
S'23406'
p559
sg4
S'7548'
p560
sg6
S'7470be4cdd895a5288c45b70e34cddc6'
p561
sg8
S'xx8f46c633dee69c30ae98b8c7206d13f0'
p562
sg10
S'xxf0692215d284ed85ce578735b6933e3a'
p563
sg12
S'xx9a937216a26cd6869e41cdf7858a8f43'
p564
sg14
S'Mozilla/5.0 (Linux; Android 5.0.2; vivo Y31 Build/LRX22G) AppleWebKit/537.36 (KHTML, like Gecko) Version/4.0 Chrome/37.0.0.0 Mobile MQQBrowser/6.8 TBS/036869 Safari/537.36 MicroMessenger/6.3.27.880 NetType/WIFI Language/zh_CN'
p565
sg16
S'023501355d0febb3ce002b4888d88c71'
p566
sa(dp567
g2
S'23406'
p568
sg4
S'7560'
p569
sg6
S'7470be4cdd895a5288c45b70e34cddc6'
p570
sg8
S'xx8f46c633dee69c30ae98b8c7206d13f0'
p571
sg10
S'xxf0692215d284ed85ce578735b6933e3a'
p572
sg12
S'xx9a937216a26cd6869e41cdf7858a8f43'
p573
sg14
S'Mozilla/5.0 (Linux; Android 5.0.2; vivo Y31 Build/LRX22G) AppleWebKit/537.36 (KHTML, like Gecko) Version/4.0 Chrome/37.0.0.0 Mobile MQQBrowser/6.8 TBS/036869 Safari/537.36 MicroMessenger/6.3.27.880 NetType/WIFI Language/zh_CN'
p574
sg16
S'023501355d0febb3ce002b4888d88c71'
p575
sa(dp576
g2
S'40022'
p577
sg4
S'7626'
p578
sg6
S'7470be4cdd895a5288c45b70e34cddc6'
p579
sg8
S'xx8f46c633dee69c30ae98b8c7206d13f0'
p580
sg10
S'xxf0692215d284ed85ce578735b6933e3a'
p581
sg12
S'xx9a937216a26cd6869e41cdf7858a8f43'
p582
sg14
S'Mozilla/5.0 (Linux; Android 5.0.2; vivo Y31 Build/LRX22G) AppleWebKit/537.36 (KHTML, like Gecko) Version/4.0 Chrome/37.0.0.0 Mobile MQQBrowser/6.8 TBS/036869 Safari/537.36 MicroMessenger/6.3.27.880 NetType/WIFI Language/zh_CN'
p583
sg16
S'023501355d0febb3ce002b4888d88c71'
p584
sa(dp585
g2
S'40022'
p586
sg4
S'7637'
p587
sg6
S'7470be4cdd895a5288c45b70e34cddc6'
p588
sg8
S'xx8f46c633dee69c30ae98b8c7206d13f0'
p589
sg10
S'xxf0692215d284ed85ce578735b6933e3a'
p590
sg12
S'xx9a937216a26cd6869e41cdf7858a8f43'
p591
sg14
S'Mozilla/5.0 (Linux; Android 5.0.2; vivo Y31 Build/LRX22G) AppleWebKit/537.36 (KHTML, like Gecko) Version/4.0 Chrome/37.0.0.0 Mobile MQQBrowser/6.8 TBS/036869 Safari/537.36 MicroMessenger/6.3.27.880 NetType/WIFI Language/zh_CN'
p592
sg16
S'023501355d0febb3ce002b4888d88c71'
p593
sa(dp594
g2
S'38719'
p595
sg4
S'7704'
p596
sg6
S'7470be4cdd895a5288c45b70e34cddc6'
p597
sg8
S'xx8f46c633dee69c30ae98b8c7206d13f0'
p598
sg10
S'xxf0692215d284ed85ce578735b6933e3a'
p599
sg12
S'xx9a937216a26cd6869e41cdf7858a8f43'
p600
sg14
S'Mozilla/5.0 (Linux; Android 5.0.2; vivo Y31 Build/LRX22G) AppleWebKit/537.36 (KHTML, like Gecko) Version/4.0 Chrome/37.0.0.0 Mobile MQQBrowser/6.8 TBS/036869 Safari/537.36 MicroMessenger/6.3.27.880 NetType/WIFI Language/zh_CN'
p601
sg16
S'023501355d0febb3ce002b4888d88c71'
p602
sa(dp603
g2
S'19898'
p604
sg4
S'7800'
p605
sg6
S'7470be4cdd895a5288c45b70e34cddc6'
p606
sg8
S'xx8f46c633dee69c30ae98b8c7206d13f0'
p607
sg10
S'xxf0692215d284ed85ce578735b6933e3a'
p608
sg12
S'xx9a937216a26cd6869e41cdf7858a8f43'
p609
sg14
S'Mozilla/5.0 (Linux; Android 5.0.2; vivo Y31 Build/LRX22G) AppleWebKit/537.36 (KHTML, like Gecko) Version/4.0 Chrome/37.0.0.0 Mobile MQQBrowser/6.8 TBS/036869 Safari/537.36 MicroMessenger/6.3.27.880 NetType/WIFI Language/zh_CN'
p610
sg16
S'023501355d0febb3ce002b4888d88c71'
p611
sa(dp612
g2
S'19898'
p613
sg4
S'7810'
p614
sg6
S'7470be4cdd895a5288c45b70e34cddc6'
p615
sg8
S'xx8f46c633dee69c30ae98b8c7206d13f0'
p616
sg10
S'xxf0692215d284ed85ce578735b6933e3a'
p617
sg12
S'xx9a937216a26cd6869e41cdf7858a8f43'
p618
sg14
S'Mozilla/5.0 (Linux; Android 5.0.2; vivo Y31 Build/LRX22G) AppleWebKit/537.36 (KHTML, like Gecko) Version/4.0 Chrome/37.0.0.0 Mobile MQQBrowser/6.8 TBS/036869 Safari/537.36 MicroMessenger/6.3.27.880 NetType/WIFI Language/zh_CN'
p619
sg16
S'023501355d0febb3ce002b4888d88c71'
p620
sa(dp621
g2
S'31509'
p622
sg4
S'7846'
p623
sg6
S'786d06683180fec2232049e18a69876a'
p624
sg8
S'xxcc011d980e3df6d10dda7fcc362da44f'
p625
sg10
S'xxf0692215d284ed85ce578735b6933e3a'
p626
sg12
S'xx9a937216a26cd6869e41cdf7858a8f43'
p627
sg14
S'Mozilla/5.0 (Linux; Android 5.0.2; vivo Y31 Build/LRX22G) AppleWebKit/537.36 (KHTML, like Gecko) Version/4.0 Chrome/37.0.0.0 Mobile MQQBrowser/6.8 TBS/036849 Safari/537.36 MicroMessenger/6.3.27.880 NetType/WIFI Language/zh_CN'
p628
sg16
S'8dacf2f151af6699821ab99135018b65'
p629
sa(dp630
g2
S'31509'
p631
sg4
S'7860'
p632
sg6
S'786d06683180fec2232049e18a69876a'
p633
sg8
S'xxcc011d980e3df6d10dda7fcc362da44f'
p634
sg10
S'xxf0692215d284ed85ce578735b6933e3a'
p635
sg12
S'xx9a937216a26cd6869e41cdf7858a8f43'
p636
sg14
S'Mozilla/5.0 (Linux; Android 5.0.2; vivo Y31 Build/LRX22G) AppleWebKit/537.36 (KHTML, like Gecko) Version/4.0 Chrome/37.0.0.0 Mobile MQQBrowser/6.8 TBS/036849 Safari/537.36 MicroMessenger/6.3.27.880 NetType/WIFI Language/zh_CN'
p637
sg16
S'8dacf2f151af6699821ab99135018b65'
p638
sa(dp639
g2
S'27930'
p640
sg4
S'7886'
p641
sg6
S'7470be4cdd895a5288c45b70e34cddc6'
p642
sg8
S'xx8f46c633dee69c30ae98b8c7206d13f0'
p643
sg10
S'xxf0692215d284ed85ce578735b6933e3a'
p644
sg12
S'xx9a937216a26cd6869e41cdf7858a8f43'
p645
sg14
S'Mozilla/5.0 (Linux; Android 5.0.2; vivo Y31 Build/LRX22G) AppleWebKit/537.36 (KHTML, like Gecko) Version/4.0 Chrome/37.0.0.0 Mobile MQQBrowser/6.8 TBS/036869 Safari/537.36 MicroMessenger/6.3.27.880 NetType/WIFI Language/zh_CN'
p646
sg16
S'023501355d0febb3ce002b4888d88c71'
p647
sa(dp648
g2
S'31509'
p649
sg4
S'7891'
p650
sg6
S'786d06683180fec2232049e18a69876a'
p651
sg8
S'xxcc011d980e3df6d10dda7fcc362da44f'
p652
sg10
S'xxf0692215d284ed85ce578735b6933e3a'
p653
sg12
S'xx9a937216a26cd6869e41cdf7858a8f43'
p654
sg14
S'Mozilla/5.0 (Linux; Android 5.0.2; vivo Y31 Build/LRX22G) AppleWebKit/537.36 (KHTML, like Gecko) Version/4.0 Chrome/37.0.0.0 Mobile MQQBrowser/6.8 TBS/036849 Safari/537.36 MicroMessenger/6.3.27.880 NetType/WIFI Language/zh_CN'
p655
sg16
S'8dacf2f151af6699821ab99135018b65'
p656
sa(dp657
g2
S'27930'
p658
sg4
S'7898'
p659
sg6
S'7470be4cdd895a5288c45b70e34cddc6'
p660
sg8
S'xx8f46c633dee69c30ae98b8c7206d13f0'
p661
sg10
S'xxf0692215d284ed85ce578735b6933e3a'
p662
sg12
S'xx9a937216a26cd6869e41cdf7858a8f43'
p663
sg14
S'Mozilla/5.0 (Linux; Android 5.0.2; vivo Y31 Build/LRX22G) AppleWebKit/537.36 (KHTML, like Gecko) Version/4.0 Chrome/37.0.0.0 Mobile MQQBrowser/6.8 TBS/036869 Safari/537.36 MicroMessenger/6.3.27.880 NetType/WIFI Language/zh_CN'
p664
sg16
S'023501355d0febb3ce002b4888d88c71'
p665
sa(dp666
g2
S'43518'
p667
sg4
S'7904'
p668
sg6
S'ddcb550d2c84985ec4ba850afa502073'
p669
sg8
S'xx6ba04916e6372047dd800a8336025443'
p670
sg10
S'xx500d85066176ca0cec843e2c50d7fe54'
p671
sg12
S'xx9a937216a26cd6869e41cdf7858a8f43'
p672
sg14
S'Mozilla/5.0 (Linux; Android 5.0.2; vivo Y31 Build/LRX22G) AppleWebKit/537.36 (KHTML, like Gecko) Version/4.0 Chrome/37.0.0.0 Mobile MQQBrowser/6.8 TBS/036824 Safari/537.36 MicroMessenger/6.3.27.880 NetType/cmnet Language/zh_CN'
p673
sg16
S'c99b3e099d5f46800c9b579e1927e86f'
p674
sa(dp675
g2
S'43518'
p676
sg4
S'7916'
p677
sg6
S'ddcb550d2c84985ec4ba850afa502073'
p678
sg8
S'xx6ba04916e6372047dd800a8336025443'
p679
sg10
S'xx500d85066176ca0cec843e2c50d7fe54'
p680
sg12
S'xx9a937216a26cd6869e41cdf7858a8f43'
p681
sg14
S'Mozilla/5.0 (Linux; Android 5.0.2; vivo Y31 Build/LRX22G) AppleWebKit/537.36 (KHTML, like Gecko) Version/4.0 Chrome/37.0.0.0 Mobile MQQBrowser/6.8 TBS/036824 Safari/537.36 MicroMessenger/6.3.27.880 NetType/cmnet Language/zh_CN'
p682
sg16
S'c99b3e099d5f46800c9b579e1927e86f'
p683
sa(dp684
g2
S'43518'
p685
sg4
S'7925'
p686
sg6
S'ddcb550d2c84985ec4ba850afa502073'
p687
sg8
S'xx6ba04916e6372047dd800a8336025443'
p688
sg10
S'xx500d85066176ca0cec843e2c50d7fe54'
p689
sg12
S'xx9a937216a26cd6869e41cdf7858a8f43'
p690
sg14
S'Mozilla/5.0 (Linux; Android 5.0.2; vivo Y31 Build/LRX22G) AppleWebKit/537.36 (KHTML, like Gecko) Version/4.0 Chrome/37.0.0.0 Mobile MQQBrowser/6.8 TBS/036824 Safari/537.36 MicroMessenger/6.3.27.880 NetType/cmnet Language/zh_CN'
p691
sg16
S'c99b3e099d5f46800c9b579e1927e86f'
p692
sa(dp693
g2
S'23406'
p694
sg4
S'8003'
p695
sg6
S'7470be4cdd895a5288c45b70e34cddc6'
p696
sg8
S'xx8f46c633dee69c30ae98b8c7206d13f0'
p697
sg10
S'xxf0692215d284ed85ce578735b6933e3a'
p698
sg12
S'xx9a937216a26cd6869e41cdf7858a8f43'
p699
sg14
S'Mozilla/5.0 (Linux; Android 5.0.2; vivo Y31 Build/LRX22G) AppleWebKit/537.36 (KHTML, like Gecko) Version/4.0 Chrome/37.0.0.0 Mobile MQQBrowser/6.8 TBS/036869 Safari/537.36 MicroMessenger/6.3.27.880 NetType/WIFI Language/zh_CN'
p700
sg16
S'023501355d0febb3ce002b4888d88c71'
p701
sa(dp702
g2
S'40022'
p703
sg4
S'8107'
p704
sg6
S'7470be4cdd895a5288c45b70e34cddc6'
p705
sg8
S'xx8f46c633dee69c30ae98b8c7206d13f0'
p706
sg10
S'xxf0692215d284ed85ce578735b6933e3a'
p707
sg12
S'xx9a937216a26cd6869e41cdf7858a8f43'
p708
sg14
S'Mozilla/5.0 (Linux; Android 5.0.2; vivo Y31 Build/LRX22G) AppleWebKit/537.36 (KHTML, like Gecko) Version/4.0 Chrome/37.0.0.0 Mobile MQQBrowser/6.8 TBS/036869 Safari/537.36 MicroMessenger/6.3.27.880 NetType/WIFI Language/zh_CN'
p709
sg16
S'023501355d0febb3ce002b4888d88c71'
p710
sa(dp711
g2
S'40022'
p712
sg4
S'8121'
p713
sg6
S'7470be4cdd895a5288c45b70e34cddc6'
p714
sg8
S'xx8f46c633dee69c30ae98b8c7206d13f0'
p715
sg10
S'xxf0692215d284ed85ce578735b6933e3a'
p716
sg12
S'xx9a937216a26cd6869e41cdf7858a8f43'
p717
sg14
S'Mozilla/5.0 (Linux; Android 5.0.2; vivo Y31 Build/LRX22G) AppleWebKit/537.36 (KHTML, like Gecko) Version/4.0 Chrome/37.0.0.0 Mobile MQQBrowser/6.8 TBS/036869 Safari/537.36 MicroMessenger/6.3.27.880 NetType/WIFI Language/zh_CN'
p718
sg16
S'023501355d0febb3ce002b4888d88c71'
p719
sa(dp720
g2
S'38719'
p721
sg4
S'8202'
p722
sg6
S'7470be4cdd895a5288c45b70e34cddc6'
p723
sg8
S'xx8f46c633dee69c30ae98b8c7206d13f0'
p724
sg10
S'xxf0692215d284ed85ce578735b6933e3a'
p725
sg12
S'xx9a937216a26cd6869e41cdf7858a8f43'
p726
sg14
S'Mozilla/5.0 (Linux; Android 5.0.2; vivo Y31 Build/LRX22G) AppleWebKit/537.36 (KHTML, like Gecko) Version/4.0 Chrome/37.0.0.0 Mobile MQQBrowser/6.8 TBS/036869 Safari/537.36 MicroMessenger/6.3.27.880 NetType/WIFI Language/zh_CN'
p727
sg16
S'023501355d0febb3ce002b4888d88c71'
p728
sa(dp729
g2
S'19898'
p730
sg4
S'8314'
p731
sg6
S'7470be4cdd895a5288c45b70e34cddc6'
p732
sg8
S'xx8f46c633dee69c30ae98b8c7206d13f0'
p733
sg10
S'xxf0692215d284ed85ce578735b6933e3a'
p734
sg12
S'xx9a937216a26cd6869e41cdf7858a8f43'
p735
sg14
S'Mozilla/5.0 (Linux; Android 5.0.2; vivo Y31 Build/LRX22G) AppleWebKit/537.36 (KHTML, like Gecko) Version/4.0 Chrome/37.0.0.0 Mobile MQQBrowser/6.8 TBS/036869 Safari/537.36 MicroMessenger/6.3.27.880 NetType/WIFI Language/zh_CN'
p736
sg16
S'023501355d0febb3ce002b4888d88c71'
p737
sa(dp738
g2
S'19898'
p739
sg4
S'8325'
p740
sg6
S'7470be4cdd895a5288c45b70e34cddc6'
p741
sg8
S'xx8f46c633dee69c30ae98b8c7206d13f0'
p742
sg10
S'xxf0692215d284ed85ce578735b6933e3a'
p743
sg12
S'xx9a937216a26cd6869e41cdf7858a8f43'
p744
sg14
S'Mozilla/5.0 (Linux; Android 5.0.2; vivo Y31 Build/LRX22G) AppleWebKit/537.36 (KHTML, like Gecko) Version/4.0 Chrome/37.0.0.0 Mobile MQQBrowser/6.8 TBS/036869 Safari/537.36 MicroMessenger/6.3.27.880 NetType/WIFI Language/zh_CN'
p745
sg16
S'023501355d0febb3ce002b4888d88c71'
p746
sa(dp747
g2
S'19898'
p748
sg4
S'8340'
p749
sg6
S'7470be4cdd895a5288c45b70e34cddc6'
p750
sg8
S'xx8f46c633dee69c30ae98b8c7206d13f0'
p751
sg10
S'xxf0692215d284ed85ce578735b6933e3a'
p752
sg12
S'xx9a937216a26cd6869e41cdf7858a8f43'
p753
sg14
S'Mozilla/5.0 (Linux; Android 5.0.2; vivo Y31 Build/LRX22G) AppleWebKit/537.36 (KHTML, like Gecko) Version/4.0 Chrome/37.0.0.0 Mobile MQQBrowser/6.8 TBS/036869 Safari/537.36 MicroMessenger/6.3.27.880 NetType/WIFI Language/zh_CN'
p754
sg16
S'023501355d0febb3ce002b4888d88c71'
p755
sa(dp756
g2
S'31509'
p757
sg4
S'8382'
p758
sg6
S'786d06683180fec2232049e18a69876a'
p759
sg8
S'xxcc011d980e3df6d10dda7fcc362da44f'
p760
sg10
S'xxf0692215d284ed85ce578735b6933e3a'
p761
sg12
S'xx9a937216a26cd6869e41cdf7858a8f43'
p762
sg14
S'Mozilla/5.0 (Linux; Android 5.0.2; vivo Y31 Build/LRX22G) AppleWebKit/537.36 (KHTML, like Gecko) Version/4.0 Chrome/37.0.0.0 Mobile MQQBrowser/6.8 TBS/036849 Safari/537.36 MicroMessenger/6.3.27.880 NetType/WIFI Language/zh_CN'
p763
sg16
S'8dacf2f151af6699821ab99135018b65'
p764
sa(dp765
g2
S'31509'
p766
sg4
S'8400'
p767
sg6
S'786d06683180fec2232049e18a69876a'
p768
sg8
S'xxcc011d980e3df6d10dda7fcc362da44f'
p769
sg10
S'xxf0692215d284ed85ce578735b6933e3a'
p770
sg12
S'xx9a937216a26cd6869e41cdf7858a8f43'
p771
sg14
S'Mozilla/5.0 (Linux; Android 5.0.2; vivo Y31 Build/LRX22G) AppleWebKit/537.36 (KHTML, like Gecko) Version/4.0 Chrome/37.0.0.0 Mobile MQQBrowser/6.8 TBS/036849 Safari/537.36 MicroMessenger/6.3.27.880 NetType/WIFI Language/zh_CN'
p772
sg16
S'8dacf2f151af6699821ab99135018b65'
p773
sa(dp774
g2
S'27930'
p775
sg4
S'8454'
p776
sg6
S'7470be4cdd895a5288c45b70e34cddc6'
p777
sg8
S'xx8f46c633dee69c30ae98b8c7206d13f0'
p778
sg10
S'xxf0692215d284ed85ce578735b6933e3a'
p779
sg12
S'xx9a937216a26cd6869e41cdf7858a8f43'
p780
sg14
S'Mozilla/5.0 (Linux; Android 5.0.2; vivo Y31 Build/LRX22G) AppleWebKit/537.36 (KHTML, like Gecko) Version/4.0 Chrome/37.0.0.0 Mobile MQQBrowser/6.8 TBS/036869 Safari/537.36 MicroMessenger/6.3.27.880 NetType/WIFI Language/zh_CN'
p781
sg16
S'023501355d0febb3ce002b4888d88c71'
p782
sa(dp783
g2
S'27930'
p784
sg4
S'8466'
p785
sg6
S'7470be4cdd895a5288c45b70e34cddc6'
p786
sg8
S'xx8f46c633dee69c30ae98b8c7206d13f0'
p787
sg10
S'xxf0692215d284ed85ce578735b6933e3a'
p788
sg12
S'xx9a937216a26cd6869e41cdf7858a8f43'
p789
sg14
S'Mozilla/5.0 (Linux; Android 5.0.2; vivo Y31 Build/LRX22G) AppleWebKit/537.36 (KHTML, like Gecko) Version/4.0 Chrome/37.0.0.0 Mobile MQQBrowser/6.8 TBS/036869 Safari/537.36 MicroMessenger/6.3.27.880 NetType/WIFI Language/zh_CN'
p790
sg16
S'023501355d0febb3ce002b4888d88c71'
p791
sa(dp792
g2
S'31509'
p793
sg4
S'8484'
p794
sg6
S'786d06683180fec2232049e18a69876a'
p795
sg8
S'xxcc011d980e3df6d10dda7fcc362da44f'
p796
sg10
S'xxf0692215d284ed85ce578735b6933e3a'
p797
sg12
S'xx9a937216a26cd6869e41cdf7858a8f43'
p798
sg14
S'Mozilla/5.0 (Linux; Android 5.0.2; vivo Y31 Build/LRX22G) AppleWebKit/537.36 (KHTML, like Gecko) Version/4.0 Chrome/37.0.0.0 Mobile MQQBrowser/6.8 TBS/036849 Safari/537.36 MicroMessenger/6.3.27.880 NetType/WIFI Language/zh_CN'
p799
sg16
S'8dacf2f151af6699821ab99135018b65'
p800
sa(dp801
g2
S'31509'
p802
sg4
S'8530'
p803
sg6
S'786d06683180fec2232049e18a69876a'
p804
sg8
S'xxcc011d980e3df6d10dda7fcc362da44f'
p805
sg10
S'xxf0692215d284ed85ce578735b6933e3a'
p806
sg12
S'xx9a937216a26cd6869e41cdf7858a8f43'
p807
sg14
S'Mozilla/5.0 (Linux; Android 5.0.2; vivo Y31 Build/LRX22G) AppleWebKit/537.36 (KHTML, like Gecko) Version/4.0 Chrome/37.0.0.0 Mobile MQQBrowser/6.8 TBS/036849 Safari/537.36 MicroMessenger/6.3.27.880 NetType/WIFI Language/zh_CN'
p808
sg16
S'8dacf2f151af6699821ab99135018b65'
p809
sa(dp810
g2
S'23406'
p811
sg4
S'8603'
p812
sg6
S'7470be4cdd895a5288c45b70e34cddc6'
p813
sg8
S'xx8f46c633dee69c30ae98b8c7206d13f0'
p814
sg10
S'xxf0692215d284ed85ce578735b6933e3a'
p815
sg12
S'xx9a937216a26cd6869e41cdf7858a8f43'
p816
sg14
S'Mozilla/5.0 (Linux; Android 5.0.2; vivo Y31 Build/LRX22G) AppleWebKit/537.36 (KHTML, like Gecko) Version/4.0 Chrome/37.0.0.0 Mobile MQQBrowser/6.8 TBS/036869 Safari/537.36 MicroMessenger/6.3.27.880 NetType/WIFI Language/zh_CN'
p817
sg16
S'023501355d0febb3ce002b4888d88c71'
p818
sa(dp819
g2
S'23406'
p820
sg4
S'8623'
p821
sg6
S'7470be4cdd895a5288c45b70e34cddc6'
p822
sg8
S'xx8f46c633dee69c30ae98b8c7206d13f0'
p823
sg10
S'xxf0692215d284ed85ce578735b6933e3a'
p824
sg12
S'xx9a937216a26cd6869e41cdf7858a8f43'
p825
sg14
S'Mozilla/5.0 (Linux; Android 5.0.2; vivo Y31 Build/LRX22G) AppleWebKit/537.36 (KHTML, like Gecko) Version/4.0 Chrome/37.0.0.0 Mobile MQQBrowser/6.8 TBS/036869 Safari/537.36 MicroMessenger/6.3.27.880 NetType/WIFI Language/zh_CN'
p826
sg16
S'023501355d0febb3ce002b4888d88c71'
p827
sa(dp828
g2
S'40022'
p829
sg4
S'8749'
p830
sg6
S'7470be4cdd895a5288c45b70e34cddc6'
p831
sg8
S'xx8f46c633dee69c30ae98b8c7206d13f0'
p832
sg10
S'xxf0692215d284ed85ce578735b6933e3a'
p833
sg12
S'xx9a937216a26cd6869e41cdf7858a8f43'
p834
sg14
S'Mozilla/5.0 (Linux; Android 5.0.2; vivo Y31 Build/LRX22G) AppleWebKit/537.36 (KHTML, like Gecko) Version/4.0 Chrome/37.0.0.0 Mobile MQQBrowser/6.8 TBS/036869 Safari/537.36 MicroMessenger/6.3.27.880 NetType/WIFI Language/zh_CN'
p835
sg16
S'023501355d0febb3ce002b4888d88c71'
p836
sa(dp837
g2
S'40022'
p838
sg4
S'8762'
p839
sg6
S'7470be4cdd895a5288c45b70e34cddc6'
p840
sg8
S'xx8f46c633dee69c30ae98b8c7206d13f0'
p841
sg10
S'xxf0692215d284ed85ce578735b6933e3a'
p842
sg12
S'xx9a937216a26cd6869e41cdf7858a8f43'
p843
sg14
S'Mozilla/5.0 (Linux; Android 5.0.2; vivo Y31 Build/LRX22G) AppleWebKit/537.36 (KHTML, like Gecko) Version/4.0 Chrome/37.0.0.0 Mobile MQQBrowser/6.8 TBS/036869 Safari/537.36 MicroMessenger/6.3.27.880 NetType/WIFI Language/zh_CN'
p844
sg16
S'023501355d0febb3ce002b4888d88c71'
p845
sa.