(lp0
(dp1
S'user_id'
p2
S'28939'
p3
sS'data_id'
p4
S'324'
p5
sS'ip'
p6
S'5362a3ad03126dbd5ec4835f64a352a3'
p7
sS'phone_B'
p8
S'xxff71a9725c845bcd3efedc0f5424ed29'
p9
sS'phone_C'
p10
S'xx5ba6e83ab19ca3a94d39ebfc36eb8d6b'
p11
sS'phone_A'
p12
S'xx9b0eb93e90f4f04f82ff38b06a806372'
p13
sS'user_agent'
p14
S'Mozilla/5.0 (Linux; Android 4.4.4; M623C Build/KTU84P) AppleWebKit/537.36 (KHTML, like Gecko) Version/4.0 Chrome/37.0.0.0 Mobile MQQBrowser/6.8 TBS/036861 Safari/537.36 MicroMessenger/6.3.26.861 NetType/WIFI Language/zh_CN'
p15
sS'ua'
p16
S'b68da58df44b81d137791683d7e77d3b'
p17
sa(dp18
g2
S'28939'
p19
sg4
S'340'
p20
sg6
S'5362a3ad03126dbd5ec4835f64a352a3'
p21
sg8
S'xxff71a9725c845bcd3efedc0f5424ed29'
p22
sg10
S'xx5ba6e83ab19ca3a94d39ebfc36eb8d6b'
p23
sg12
S'xx9b0eb93e90f4f04f82ff38b06a806372'
p24
sg14
S'Mozilla/5.0 (Linux; Android 4.4.4; M623C Build/KTU84P) AppleWebKit/537.36 (KHTML, like Gecko) Version/4.0 Chrome/37.0.0.0 Mobile MQQBrowser/6.8 TBS/036861 Safari/537.36 MicroMessenger/6.3.26.861 NetType/WIFI Language/zh_CN'
p25
sg16
S'b68da58df44b81d137791683d7e77d3b'
p26
sa.