(lp0
(dp1
S'user_id'
p2
S'6300'
p3
sS'data_id'
p4
S'162'
p5
sS'ip'
p6
S'645c5de0eb8626c7f0c31a1d46f8c920'
p7
sS'phone_B'
p8
S'xx2356956ad819d4add9d2e25344da8089'
p9
sS'phone_C'
p10
S'xx700145cd832008e8a1ae43a77355805f'
p11
sS'phone_A'
p12
S'xx9ded28799f5bf63f6f9e4d7b36edeec3'
p13
sS'user_agent'
p14
S'Mozilla/5.0 (Linux; Android 4.4.4; vivo Y28L Build/KTU84P) AppleWebKit/537.36 (KHTML, like Gecko) Version/4.0 Chrome/37.0.0.0 Mobile MQQBrowser/6.8 TBS/036824 Safari/537.36 MicroMessenger/6.3.25.861 NetType/WIFI Language/zh_CN'
p15
sS'ua'
p16
S'397657f3542c228109be4c54a11ea808'
p17
sa(dp18
g2
S'6300'
p19
sg4
S'178'
p20
sg6
S'645c5de0eb8626c7f0c31a1d46f8c920'
p21
sg8
S'xx2356956ad819d4add9d2e25344da8089'
p22
sg10
S'xx700145cd832008e8a1ae43a77355805f'
p23
sg12
S'xx9ded28799f5bf63f6f9e4d7b36edeec3'
p24
sg14
S'Mozilla/5.0 (Linux; Android 4.4.4; vivo Y28L Build/KTU84P) AppleWebKit/537.36 (KHTML, like Gecko) Version/4.0 Chrome/37.0.0.0 Mobile MQQBrowser/6.8 TBS/036824 Safari/537.36 MicroMessenger/6.3.25.861 NetType/WIFI Language/zh_CN'
p25
sg16
S'397657f3542c228109be4c54a11ea808'
p26
sa(dp27
g2
S'6300'
p28
sg4
S'189'
p29
sg6
S'645c5de0eb8626c7f0c31a1d46f8c920'
p30
sg8
S'xx2356956ad819d4add9d2e25344da8089'
p31
sg10
S'xx700145cd832008e8a1ae43a77355805f'
p32
sg12
S'xx9ded28799f5bf63f6f9e4d7b36edeec3'
p33
sg14
S'Mozilla/5.0 (Linux; Android 4.4.4; vivo Y28L Build/KTU84P) AppleWebKit/537.36 (KHTML, like Gecko) Version/4.0 Chrome/37.0.0.0 Mobile MQQBrowser/6.8 TBS/036824 Safari/537.36 MicroMessenger/6.3.25.861 NetType/WIFI Language/zh_CN'
p34
sg16
S'397657f3542c228109be4c54a11ea808'
p35
sa(dp36
g2
S'6300'
p37
sg4
S'202'
p38
sg6
S'645c5de0eb8626c7f0c31a1d46f8c920'
p39
sg8
S'xx2356956ad819d4add9d2e25344da8089'
p40
sg10
S'xx700145cd832008e8a1ae43a77355805f'
p41
sg12
S'xx9ded28799f5bf63f6f9e4d7b36edeec3'
p42
sg14
S'Mozilla/5.0 (Linux; Android 4.4.4; vivo Y28L Build/KTU84P) AppleWebKit/537.36 (KHTML, like Gecko) Version/4.0 Chrome/37.0.0.0 Mobile MQQBrowser/6.8 TBS/036824 Safari/537.36 MicroMessenger/6.3.25.861 NetType/WIFI Language/zh_CN'
p43
sg16
S'397657f3542c228109be4c54a11ea808'
p44
sa(dp45
g2
S'6300'
p46
sg4
S'214'
p47
sg6
S'645c5de0eb8626c7f0c31a1d46f8c920'
p48
sg8
S'xx2356956ad819d4add9d2e25344da8089'
p49
sg10
S'xx700145cd832008e8a1ae43a77355805f'
p50
sg12
S'xx9ded28799f5bf63f6f9e4d7b36edeec3'
p51
sg14
S'Mozilla/5.0 (Linux; Android 4.4.4; vivo Y28L Build/KTU84P) AppleWebKit/537.36 (KHTML, like Gecko) Version/4.0 Chrome/37.0.0.0 Mobile MQQBrowser/6.8 TBS/036824 Safari/537.36 MicroMessenger/6.3.25.861 NetType/WIFI Language/zh_CN'
p52
sg16
S'397657f3542c228109be4c54a11ea808'
p53
sa(dp54
g2
S'6300'
p55
sg4
S'223'
p56
sg6
S'645c5de0eb8626c7f0c31a1d46f8c920'
p57
sg8
S'xx2356956ad819d4add9d2e25344da8089'
p58
sg10
S'xx700145cd832008e8a1ae43a77355805f'
p59
sg12
S'xx9ded28799f5bf63f6f9e4d7b36edeec3'
p60
sg14
S'Mozilla/5.0 (Linux; Android 4.4.4; vivo Y28L Build/KTU84P) AppleWebKit/537.36 (KHTML, like Gecko) Version/4.0 Chrome/37.0.0.0 Mobile MQQBrowser/6.8 TBS/036824 Safari/537.36 MicroMessenger/6.3.25.861 NetType/WIFI Language/zh_CN'
p61
sg16
S'397657f3542c228109be4c54a11ea808'
p62
sa(dp63
g2
S'6300'
p64
sg4
S'563'
p65
sg6
S'645c5de0eb8626c7f0c31a1d46f8c920'
p66
sg8
S'xx2356956ad819d4add9d2e25344da8089'
p67
sg10
S'xx700145cd832008e8a1ae43a77355805f'
p68
sg12
S'xx9ded28799f5bf63f6f9e4d7b36edeec3'
p69
sg14
S'Mozilla/5.0 (Linux; Android 4.4.4; vivo Y28L Build/KTU84P) AppleWebKit/537.36 (KHTML, like Gecko) Version/4.0 Chrome/37.0.0.0 Mobile MQQBrowser/6.8 TBS/036824 Safari/537.36 MicroMessenger/6.3.25.861 NetType/WIFI Language/zh_CN'
p70
sg16
S'397657f3542c228109be4c54a11ea808'
p71
sa(dp72
g2
S'6300'
p73
sg4
S'628'
p74
sg6
S'645c5de0eb8626c7f0c31a1d46f8c920'
p75
sg8
S'xx2356956ad819d4add9d2e25344da8089'
p76
sg10
S'xx700145cd832008e8a1ae43a77355805f'
p77
sg12
S'xx9ded28799f5bf63f6f9e4d7b36edeec3'
p78
sg14
S'Mozilla/5.0 (Linux; Android 4.4.4; vivo Y28L Build/KTU84P) AppleWebKit/537.36 (KHTML, like Gecko) Version/4.0 Chrome/37.0.0.0 Mobile MQQBrowser/6.8 TBS/036824 Safari/537.36 MicroMessenger/6.3.25.861 NetType/WIFI Language/zh_CN'
p79
sg16
S'397657f3542c228109be4c54a11ea808'
p80
sa(dp81
g2
S'6300'
p82
sg4
S'647'
p83
sg6
S'645c5de0eb8626c7f0c31a1d46f8c920'
p84
sg8
S'xx2356956ad819d4add9d2e25344da8089'
p85
sg10
S'xx700145cd832008e8a1ae43a77355805f'
p86
sg12
S'xx9ded28799f5bf63f6f9e4d7b36edeec3'
p87
sg14
S'Mozilla/5.0 (Linux; Android 4.4.4; vivo Y28L Build/KTU84P) AppleWebKit/537.36 (KHTML, like Gecko) Version/4.0 Chrome/37.0.0.0 Mobile MQQBrowser/6.8 TBS/036824 Safari/537.36 MicroMessenger/6.3.25.861 NetType/WIFI Language/zh_CN'
p88
sg16
S'397657f3542c228109be4c54a11ea808'
p89
sa(dp90
g2
S'6300'
p91
sg4
S'701'
p92
sg6
S'645c5de0eb8626c7f0c31a1d46f8c920'
p93
sg8
S'xx2356956ad819d4add9d2e25344da8089'
p94
sg10
S'xx700145cd832008e8a1ae43a77355805f'
p95
sg12
S'xx9ded28799f5bf63f6f9e4d7b36edeec3'
p96
sg14
S'Mozilla/5.0 (Linux; Android 4.4.4; vivo Y28L Build/KTU84P) AppleWebKit/537.36 (KHTML, like Gecko) Version/4.0 Chrome/37.0.0.0 Mobile MQQBrowser/6.8 TBS/036824 Safari/537.36 MicroMessenger/6.3.25.861 NetType/WIFI Language/zh_CN'
p97
sg16
S'397657f3542c228109be4c54a11ea808'
p98
sa(dp99
g2
S'6300'
p100
sg4
S'715'
p101
sg6
S'645c5de0eb8626c7f0c31a1d46f8c920'
p102
sg8
S'xx2356956ad819d4add9d2e25344da8089'
p103
sg10
S'xx700145cd832008e8a1ae43a77355805f'
p104
sg12
S'xx9ded28799f5bf63f6f9e4d7b36edeec3'
p105
sg14
S'Mozilla/5.0 (Linux; Android 4.4.4; vivo Y28L Build/KTU84P) AppleWebKit/537.36 (KHTML, like Gecko) Version/4.0 Chrome/37.0.0.0 Mobile MQQBrowser/6.8 TBS/036824 Safari/537.36 MicroMessenger/6.3.25.861 NetType/WIFI Language/zh_CN'
p106
sg16
S'397657f3542c228109be4c54a11ea808'
p107
sa(dp108
g2
S'6300'
p109
sg4
S'728'
p110
sg6
S'645c5de0eb8626c7f0c31a1d46f8c920'
p111
sg8
S'xx2356956ad819d4add9d2e25344da8089'
p112
sg10
S'xx700145cd832008e8a1ae43a77355805f'
p113
sg12
S'xx9ded28799f5bf63f6f9e4d7b36edeec3'
p114
sg14
S'Mozilla/5.0 (Linux; Android 4.4.4; vivo Y28L Build/KTU84P) AppleWebKit/537.36 (KHTML, like Gecko) Version/4.0 Chrome/37.0.0.0 Mobile MQQBrowser/6.8 TBS/036824 Safari/537.36 MicroMessenger/6.3.25.861 NetType/WIFI Language/zh_CN'
p115
sg16
S'397657f3542c228109be4c54a11ea808'
p116
sa(dp117
g2
S'6300'
p118
sg4
S'741'
p119
sg6
S'645c5de0eb8626c7f0c31a1d46f8c920'
p120
sg8
S'xx2356956ad819d4add9d2e25344da8089'
p121
sg10
S'xx700145cd832008e8a1ae43a77355805f'
p122
sg12
S'xx9ded28799f5bf63f6f9e4d7b36edeec3'
p123
sg14
S'Mozilla/5.0 (Linux; Android 4.4.4; vivo Y28L Build/KTU84P) AppleWebKit/537.36 (KHTML, like Gecko) Version/4.0 Chrome/37.0.0.0 Mobile MQQBrowser/6.8 TBS/036824 Safari/537.36 MicroMessenger/6.3.25.861 NetType/WIFI Language/zh_CN'
p124
sg16
S'397657f3542c228109be4c54a11ea808'
p125
sa(dp126
g2
S'6300'
p127
sg4
S'751'
p128
sg6
S'645c5de0eb8626c7f0c31a1d46f8c920'
p129
sg8
S'xx2356956ad819d4add9d2e25344da8089'
p130
sg10
S'xx700145cd832008e8a1ae43a77355805f'
p131
sg12
S'xx9ded28799f5bf63f6f9e4d7b36edeec3'
p132
sg14
S'Mozilla/5.0 (Linux; Android 4.4.4; vivo Y28L Build/KTU84P) AppleWebKit/537.36 (KHTML, like Gecko) Version/4.0 Chrome/37.0.0.0 Mobile MQQBrowser/6.8 TBS/036824 Safari/537.36 MicroMessenger/6.3.25.861 NetType/WIFI Language/zh_CN'
p133
sg16
S'397657f3542c228109be4c54a11ea808'
p134
sa(dp135
g2
S'6300'
p136
sg4
S'763'
p137
sg6
S'645c5de0eb8626c7f0c31a1d46f8c920'
p138
sg8
S'xx2356956ad819d4add9d2e25344da8089'
p139
sg10
S'xx700145cd832008e8a1ae43a77355805f'
p140
sg12
S'xx9ded28799f5bf63f6f9e4d7b36edeec3'
p141
sg14
S'Mozilla/5.0 (Linux; Android 4.4.4; vivo Y28L Build/KTU84P) AppleWebKit/537.36 (KHTML, like Gecko) Version/4.0 Chrome/37.0.0.0 Mobile MQQBrowser/6.8 TBS/036824 Safari/537.36 MicroMessenger/6.3.25.861 NetType/WIFI Language/zh_CN'
p142
sg16
S'397657f3542c228109be4c54a11ea808'
p143
sa(dp144
g2
S'6300'
p145
sg4
S'774'
p146
sg6
S'645c5de0eb8626c7f0c31a1d46f8c920'
p147
sg8
S'xx2356956ad819d4add9d2e25344da8089'
p148
sg10
S'xx700145cd832008e8a1ae43a77355805f'
p149
sg12
S'xx9ded28799f5bf63f6f9e4d7b36edeec3'
p150
sg14
S'Mozilla/5.0 (Linux; Android 4.4.4; vivo Y28L Build/KTU84P) AppleWebKit/537.36 (KHTML, like Gecko) Version/4.0 Chrome/37.0.0.0 Mobile MQQBrowser/6.8 TBS/036824 Safari/537.36 MicroMessenger/6.3.25.861 NetType/WIFI Language/zh_CN'
p151
sg16
S'397657f3542c228109be4c54a11ea808'
p152
sa(dp153
g2
S'6300'
p154
sg4
S'782'
p155
sg6
S'645c5de0eb8626c7f0c31a1d46f8c920'
p156
sg8
S'xx2356956ad819d4add9d2e25344da8089'
p157
sg10
S'xx700145cd832008e8a1ae43a77355805f'
p158
sg12
S'xx9ded28799f5bf63f6f9e4d7b36edeec3'
p159
sg14
S'Mozilla/5.0 (Linux; Android 4.4.4; vivo Y28L Build/KTU84P) AppleWebKit/537.36 (KHTML, like Gecko) Version/4.0 Chrome/37.0.0.0 Mobile MQQBrowser/6.8 TBS/036824 Safari/537.36 MicroMessenger/6.3.25.861 NetType/WIFI Language/zh_CN'
p160
sg16
S'397657f3542c228109be4c54a11ea808'
p161
sa(dp162
g2
S'6300'
p163
sg4
S'793'
p164
sg6
S'645c5de0eb8626c7f0c31a1d46f8c920'
p165
sg8
S'xx2356956ad819d4add9d2e25344da8089'
p166
sg10
S'xx700145cd832008e8a1ae43a77355805f'
p167
sg12
S'xx9ded28799f5bf63f6f9e4d7b36edeec3'
p168
sg14
S'Mozilla/5.0 (Linux; Android 4.4.4; vivo Y28L Build/KTU84P) AppleWebKit/537.36 (KHTML, like Gecko) Version/4.0 Chrome/37.0.0.0 Mobile MQQBrowser/6.8 TBS/036824 Safari/537.36 MicroMessenger/6.3.25.861 NetType/WIFI Language/zh_CN'
p169
sg16
S'397657f3542c228109be4c54a11ea808'
p170
sa(dp171
g2
S'6300'
p172
sg4
S'813'
p173
sg6
S'645c5de0eb8626c7f0c31a1d46f8c920'
p174
sg8
S'xx2356956ad819d4add9d2e25344da8089'
p175
sg10
S'xx700145cd832008e8a1ae43a77355805f'
p176
sg12
S'xx9ded28799f5bf63f6f9e4d7b36edeec3'
p177
sg14
S'Mozilla/5.0 (Linux; Android 4.4.4; vivo Y28L Build/KTU84P) AppleWebKit/537.36 (KHTML, like Gecko) Version/4.0 Chrome/37.0.0.0 Mobile MQQBrowser/6.8 TBS/036824 Safari/537.36 MicroMessenger/6.3.25.861 NetType/WIFI Language/zh_CN'
p178
sg16
S'397657f3542c228109be4c54a11ea808'
p179
sa(dp180
g2
S'6300'
p181
sg4
S'823'
p182
sg6
S'645c5de0eb8626c7f0c31a1d46f8c920'
p183
sg8
S'xx2356956ad819d4add9d2e25344da8089'
p184
sg10
S'xx700145cd832008e8a1ae43a77355805f'
p185
sg12
S'xx9ded28799f5bf63f6f9e4d7b36edeec3'
p186
sg14
S'Mozilla/5.0 (Linux; Android 4.4.4; vivo Y28L Build/KTU84P) AppleWebKit/537.36 (KHTML, like Gecko) Version/4.0 Chrome/37.0.0.0 Mobile MQQBrowser/6.8 TBS/036824 Safari/537.36 MicroMessenger/6.3.25.861 NetType/WIFI Language/zh_CN'
p187
sg16
S'397657f3542c228109be4c54a11ea808'
p188
sa(dp189
g2
S'6300'
p190
sg4
S'836'
p191
sg6
S'645c5de0eb8626c7f0c31a1d46f8c920'
p192
sg8
S'xx2356956ad819d4add9d2e25344da8089'
p193
sg10
S'xx700145cd832008e8a1ae43a77355805f'
p194
sg12
S'xx9ded28799f5bf63f6f9e4d7b36edeec3'
p195
sg14
S'Mozilla/5.0 (Linux; Android 4.4.4; vivo Y28L Build/KTU84P) AppleWebKit/537.36 (KHTML, like Gecko) Version/4.0 Chrome/37.0.0.0 Mobile MQQBrowser/6.8 TBS/036824 Safari/537.36 MicroMessenger/6.3.25.861 NetType/WIFI Language/zh_CN'
p196
sg16
S'397657f3542c228109be4c54a11ea808'
p197
sa(dp198
g2
S'6300'
p199
sg4
S'850'
p200
sg6
S'645c5de0eb8626c7f0c31a1d46f8c920'
p201
sg8
S'xx2356956ad819d4add9d2e25344da8089'
p202
sg10
S'xx700145cd832008e8a1ae43a77355805f'
p203
sg12
S'xx9ded28799f5bf63f6f9e4d7b36edeec3'
p204
sg14
S'Mozilla/5.0 (Linux; Android 4.4.4; vivo Y28L Build/KTU84P) AppleWebKit/537.36 (KHTML, like Gecko) Version/4.0 Chrome/37.0.0.0 Mobile MQQBrowser/6.8 TBS/036824 Safari/537.36 MicroMessenger/6.3.25.861 NetType/WIFI Language/zh_CN'
p205
sg16
S'397657f3542c228109be4c54a11ea808'
p206
sa(dp207
g2
S'6300'
p208
sg4
S'871'
p209
sg6
S'645c5de0eb8626c7f0c31a1d46f8c920'
p210
sg8
S'xx2356956ad819d4add9d2e25344da8089'
p211
sg10
S'xx700145cd832008e8a1ae43a77355805f'
p212
sg12
S'xx9ded28799f5bf63f6f9e4d7b36edeec3'
p213
sg14
S'Mozilla/5.0 (Linux; Android 4.4.4; vivo Y28L Build/KTU84P) AppleWebKit/537.36 (KHTML, like Gecko) Version/4.0 Chrome/37.0.0.0 Mobile MQQBrowser/6.8 TBS/036824 Safari/537.36 MicroMessenger/6.3.25.861 NetType/WIFI Language/zh_CN'
p214
sg16
S'397657f3542c228109be4c54a11ea808'
p215
sa(dp216
g2
S'6300'
p217
sg4
S'942'
p218
sg6
S'645c5de0eb8626c7f0c31a1d46f8c920'
p219
sg8
S'xx2356956ad819d4add9d2e25344da8089'
p220
sg10
S'xx700145cd832008e8a1ae43a77355805f'
p221
sg12
S'xx9ded28799f5bf63f6f9e4d7b36edeec3'
p222
sg14
S'Mozilla/5.0 (Linux; Android 4.4.4; vivo Y28L Build/KTU84P) AppleWebKit/537.36 (KHTML, like Gecko) Version/4.0 Chrome/37.0.0.0 Mobile MQQBrowser/6.8 TBS/036824 Safari/537.36 MicroMessenger/6.3.25.861 NetType/WIFI Language/zh_CN'
p223
sg16
S'397657f3542c228109be4c54a11ea808'
p224
sa(dp225
g2
S'6300'
p226
sg4
S'957'
p227
sg6
S'645c5de0eb8626c7f0c31a1d46f8c920'
p228
sg8
S'xx2356956ad819d4add9d2e25344da8089'
p229
sg10
S'xx700145cd832008e8a1ae43a77355805f'
p230
sg12
S'xx9ded28799f5bf63f6f9e4d7b36edeec3'
p231
sg14
S'Mozilla/5.0 (Linux; Android 4.4.4; vivo Y28L Build/KTU84P) AppleWebKit/537.36 (KHTML, like Gecko) Version/4.0 Chrome/37.0.0.0 Mobile MQQBrowser/6.8 TBS/036824 Safari/537.36 MicroMessenger/6.3.25.861 NetType/WIFI Language/zh_CN'
p232
sg16
S'397657f3542c228109be4c54a11ea808'
p233
sa(dp234
g2
S'6300'
p235
sg4
S'972'
p236
sg6
S'645c5de0eb8626c7f0c31a1d46f8c920'
p237
sg8
S'xx2356956ad819d4add9d2e25344da8089'
p238
sg10
S'xx700145cd832008e8a1ae43a77355805f'
p239
sg12
S'xx9ded28799f5bf63f6f9e4d7b36edeec3'
p240
sg14
S'Mozilla/5.0 (Linux; Android 4.4.4; vivo Y28L Build/KTU84P) AppleWebKit/537.36 (KHTML, like Gecko) Version/4.0 Chrome/37.0.0.0 Mobile MQQBrowser/6.8 TBS/036824 Safari/537.36 MicroMessenger/6.3.25.861 NetType/WIFI Language/zh_CN'
p241
sg16
S'397657f3542c228109be4c54a11ea808'
p242
sa(dp243
g2
S'6300'
p244
sg4
S'990'
p245
sg6
S'645c5de0eb8626c7f0c31a1d46f8c920'
p246
sg8
S'xx2356956ad819d4add9d2e25344da8089'
p247
sg10
S'xx700145cd832008e8a1ae43a77355805f'
p248
sg12
S'xx9ded28799f5bf63f6f9e4d7b36edeec3'
p249
sg14
S'Mozilla/5.0 (Linux; Android 4.4.4; vivo Y28L Build/KTU84P) AppleWebKit/537.36 (KHTML, like Gecko) Version/4.0 Chrome/37.0.0.0 Mobile MQQBrowser/6.8 TBS/036824 Safari/537.36 MicroMessenger/6.3.25.861 NetType/WIFI Language/zh_CN'
p250
sg16
S'397657f3542c228109be4c54a11ea808'
p251
sa(dp252
g2
S'6300'
p253
sg4
S'1007'
p254
sg6
S'645c5de0eb8626c7f0c31a1d46f8c920'
p255
sg8
S'xx2356956ad819d4add9d2e25344da8089'
p256
sg10
S'xx700145cd832008e8a1ae43a77355805f'
p257
sg12
S'xx9ded28799f5bf63f6f9e4d7b36edeec3'
p258
sg14
S'Mozilla/5.0 (Linux; Android 4.4.4; vivo Y28L Build/KTU84P) AppleWebKit/537.36 (KHTML, like Gecko) Version/4.0 Chrome/37.0.0.0 Mobile MQQBrowser/6.8 TBS/036824 Safari/537.36 MicroMessenger/6.3.25.861 NetType/WIFI Language/zh_CN'
p259
sg16
S'397657f3542c228109be4c54a11ea808'
p260
sa(dp261
g2
S'6300'
p262
sg4
S'1020'
p263
sg6
S'645c5de0eb8626c7f0c31a1d46f8c920'
p264
sg8
S'xx2356956ad819d4add9d2e25344da8089'
p265
sg10
S'xx700145cd832008e8a1ae43a77355805f'
p266
sg12
S'xx9ded28799f5bf63f6f9e4d7b36edeec3'
p267
sg14
S'Mozilla/5.0 (Linux; Android 4.4.4; vivo Y28L Build/KTU84P) AppleWebKit/537.36 (KHTML, like Gecko) Version/4.0 Chrome/37.0.0.0 Mobile MQQBrowser/6.8 TBS/036824 Safari/537.36 MicroMessenger/6.3.25.861 NetType/WIFI Language/zh_CN'
p268
sg16
S'397657f3542c228109be4c54a11ea808'
p269
sa(dp270
g2
S'6300'
p271
sg4
S'1036'
p272
sg6
S'645c5de0eb8626c7f0c31a1d46f8c920'
p273
sg8
S'xx2356956ad819d4add9d2e25344da8089'
p274
sg10
S'xx700145cd832008e8a1ae43a77355805f'
p275
sg12
S'xx9ded28799f5bf63f6f9e4d7b36edeec3'
p276
sg14
S'Mozilla/5.0 (Linux; Android 4.4.4; vivo Y28L Build/KTU84P) AppleWebKit/537.36 (KHTML, like Gecko) Version/4.0 Chrome/37.0.0.0 Mobile MQQBrowser/6.8 TBS/036824 Safari/537.36 MicroMessenger/6.3.25.861 NetType/WIFI Language/zh_CN'
p277
sg16
S'397657f3542c228109be4c54a11ea808'
p278
sa(dp279
g2
S'6300'
p280
sg4
S'1057'
p281
sg6
S'645c5de0eb8626c7f0c31a1d46f8c920'
p282
sg8
S'xx2356956ad819d4add9d2e25344da8089'
p283
sg10
S'xx700145cd832008e8a1ae43a77355805f'
p284
sg12
S'xx9ded28799f5bf63f6f9e4d7b36edeec3'
p285
sg14
S'Mozilla/5.0 (Linux; Android 4.4.4; vivo Y28L Build/KTU84P) AppleWebKit/537.36 (KHTML, like Gecko) Version/4.0 Chrome/37.0.0.0 Mobile MQQBrowser/6.8 TBS/036824 Safari/537.36 MicroMessenger/6.3.25.861 NetType/WIFI Language/zh_CN'
p286
sg16
S'397657f3542c228109be4c54a11ea808'
p287
sa(dp288
g2
S'6300'
p289
sg4
S'1106'
p290
sg6
S'645c5de0eb8626c7f0c31a1d46f8c920'
p291
sg8
S'xx2356956ad819d4add9d2e25344da8089'
p292
sg10
S'xx700145cd832008e8a1ae43a77355805f'
p293
sg12
S'xx9ded28799f5bf63f6f9e4d7b36edeec3'
p294
sg14
S'Mozilla/5.0 (Linux; Android 4.4.4; vivo Y28L Build/KTU84P) AppleWebKit/537.36 (KHTML, like Gecko) Version/4.0 Chrome/37.0.0.0 Mobile MQQBrowser/6.8 TBS/036824 Safari/537.36 MicroMessenger/6.3.25.861 NetType/WIFI Language/zh_CN'
p295
sg16
S'397657f3542c228109be4c54a11ea808'
p296
sa(dp297
g2
S'6300'
p298
sg4
S'1128'
p299
sg6
S'645c5de0eb8626c7f0c31a1d46f8c920'
p300
sg8
S'xx2356956ad819d4add9d2e25344da8089'
p301
sg10
S'xx700145cd832008e8a1ae43a77355805f'
p302
sg12
S'xx9ded28799f5bf63f6f9e4d7b36edeec3'
p303
sg14
S'Mozilla/5.0 (Linux; Android 4.4.4; vivo Y28L Build/KTU84P) AppleWebKit/537.36 (KHTML, like Gecko) Version/4.0 Chrome/37.0.0.0 Mobile MQQBrowser/6.8 TBS/036824 Safari/537.36 MicroMessenger/6.3.25.861 NetType/WIFI Language/zh_CN'
p304
sg16
S'397657f3542c228109be4c54a11ea808'
p305
sa(dp306
g2
S'6300'
p307
sg4
S'1155'
p308
sg6
S'645c5de0eb8626c7f0c31a1d46f8c920'
p309
sg8
S'xx2356956ad819d4add9d2e25344da8089'
p310
sg10
S'xx700145cd832008e8a1ae43a77355805f'
p311
sg12
S'xx9ded28799f5bf63f6f9e4d7b36edeec3'
p312
sg14
S'Mozilla/5.0 (Linux; Android 4.4.4; vivo Y28L Build/KTU84P) AppleWebKit/537.36 (KHTML, like Gecko) Version/4.0 Chrome/37.0.0.0 Mobile MQQBrowser/6.8 TBS/036824 Safari/537.36 MicroMessenger/6.3.25.861 NetType/WIFI Language/zh_CN'
p313
sg16
S'397657f3542c228109be4c54a11ea808'
p314
sa(dp315
g2
S'6300'
p316
sg4
S'1254'
p317
sg6
S'645c5de0eb8626c7f0c31a1d46f8c920'
p318
sg8
S'xx2356956ad819d4add9d2e25344da8089'
p319
sg10
S'xx700145cd832008e8a1ae43a77355805f'
p320
sg12
S'xx9ded28799f5bf63f6f9e4d7b36edeec3'
p321
sg14
S'Mozilla/5.0 (Linux; Android 4.4.4; vivo Y28L Build/KTU84P) AppleWebKit/537.36 (KHTML, like Gecko) Version/4.0 Chrome/37.0.0.0 Mobile MQQBrowser/6.8 TBS/036824 Safari/537.36 MicroMessenger/6.3.25.861 NetType/WIFI Language/zh_CN'
p322
sg16
S'397657f3542c228109be4c54a11ea808'
p323
sa(dp324
g2
S'6300'
p325
sg4
S'1722'
p326
sg6
S'645c5de0eb8626c7f0c31a1d46f8c920'
p327
sg8
S'xx2356956ad819d4add9d2e25344da8089'
p328
sg10
S'xx700145cd832008e8a1ae43a77355805f'
p329
sg12
S'xx9ded28799f5bf63f6f9e4d7b36edeec3'
p330
sg14
S'Mozilla/5.0 (Linux; Android 4.4.4; vivo Y28L Build/KTU84P) AppleWebKit/537.36 (KHTML, like Gecko) Version/4.0 Chrome/37.0.0.0 Mobile MQQBrowser/6.8 TBS/036824 Safari/537.36 MicroMessenger/6.3.25.861 NetType/WIFI Language/zh_CN'
p331
sg16
S'397657f3542c228109be4c54a11ea808'
p332
sa(dp333
g2
S'6300'
p334
sg4
S'1739'
p335
sg6
S'645c5de0eb8626c7f0c31a1d46f8c920'
p336
sg8
S'xx2356956ad819d4add9d2e25344da8089'
p337
sg10
S'xx700145cd832008e8a1ae43a77355805f'
p338
sg12
S'xx9ded28799f5bf63f6f9e4d7b36edeec3'
p339
sg14
S'Mozilla/5.0 (Linux; Android 4.4.4; vivo Y28L Build/KTU84P) AppleWebKit/537.36 (KHTML, like Gecko) Version/4.0 Chrome/37.0.0.0 Mobile MQQBrowser/6.8 TBS/036824 Safari/537.36 MicroMessenger/6.3.25.861 NetType/WIFI Language/zh_CN'
p340
sg16
S'397657f3542c228109be4c54a11ea808'
p341
sa(dp342
g2
S'6300'
p343
sg4
S'1782'
p344
sg6
S'645c5de0eb8626c7f0c31a1d46f8c920'
p345
sg8
S'xx2356956ad819d4add9d2e25344da8089'
p346
sg10
S'xx700145cd832008e8a1ae43a77355805f'
p347
sg12
S'xx9ded28799f5bf63f6f9e4d7b36edeec3'
p348
sg14
S'Mozilla/5.0 (Linux; Android 4.4.4; vivo Y28L Build/KTU84P) AppleWebKit/537.36 (KHTML, like Gecko) Version/4.0 Chrome/37.0.0.0 Mobile MQQBrowser/6.8 TBS/036824 Safari/537.36 MicroMessenger/6.3.25.861 NetType/WIFI Language/zh_CN'
p349
sg16
S'397657f3542c228109be4c54a11ea808'
p350
sa(dp351
g2
S'6300'
p352
sg4
S'2232'
p353
sg6
S'645c5de0eb8626c7f0c31a1d46f8c920'
p354
sg8
S'xx2356956ad819d4add9d2e25344da8089'
p355
sg10
S'xx700145cd832008e8a1ae43a77355805f'
p356
sg12
S'xx9ded28799f5bf63f6f9e4d7b36edeec3'
p357
sg14
S'Mozilla/5.0 (Linux; Android 4.4.4; vivo Y28L Build/KTU84P) AppleWebKit/537.36 (KHTML, like Gecko) Version/4.0 Chrome/37.0.0.0 Mobile MQQBrowser/6.8 TBS/036824 Safari/537.36 MicroMessenger/6.3.25.861 NetType/WIFI Language/zh_CN'
p358
sg16
S'397657f3542c228109be4c54a11ea808'
p359
sa(dp360
g2
S'6300'
p361
sg4
S'2251'
p362
sg6
S'645c5de0eb8626c7f0c31a1d46f8c920'
p363
sg8
S'xx2356956ad819d4add9d2e25344da8089'
p364
sg10
S'xx700145cd832008e8a1ae43a77355805f'
p365
sg12
S'xx9ded28799f5bf63f6f9e4d7b36edeec3'
p366
sg14
S'Mozilla/5.0 (Linux; Android 4.4.4; vivo Y28L Build/KTU84P) AppleWebKit/537.36 (KHTML, like Gecko) Version/4.0 Chrome/37.0.0.0 Mobile MQQBrowser/6.8 TBS/036824 Safari/537.36 MicroMessenger/6.3.25.861 NetType/WIFI Language/zh_CN'
p367
sg16
S'397657f3542c228109be4c54a11ea808'
p368
sa(dp369
g2
S'6300'
p370
sg4
S'2279'
p371
sg6
S'645c5de0eb8626c7f0c31a1d46f8c920'
p372
sg8
S'xx2356956ad819d4add9d2e25344da8089'
p373
sg10
S'xx700145cd832008e8a1ae43a77355805f'
p374
sg12
S'xx9ded28799f5bf63f6f9e4d7b36edeec3'
p375
sg14
S'Mozilla/5.0 (Linux; Android 4.4.4; vivo Y28L Build/KTU84P) AppleWebKit/537.36 (KHTML, like Gecko) Version/4.0 Chrome/37.0.0.0 Mobile MQQBrowser/6.8 TBS/036824 Safari/537.36 MicroMessenger/6.3.25.861 NetType/WIFI Language/zh_CN'
p376
sg16
S'397657f3542c228109be4c54a11ea808'
p377
sa(dp378
g2
S'6300'
p379
sg4
S'2293'
p380
sg6
S'645c5de0eb8626c7f0c31a1d46f8c920'
p381
sg8
S'xx2356956ad819d4add9d2e25344da8089'
p382
sg10
S'xx700145cd832008e8a1ae43a77355805f'
p383
sg12
S'xx9ded28799f5bf63f6f9e4d7b36edeec3'
p384
sg14
S'Mozilla/5.0 (Linux; Android 4.4.4; vivo Y28L Build/KTU84P) AppleWebKit/537.36 (KHTML, like Gecko) Version/4.0 Chrome/37.0.0.0 Mobile MQQBrowser/6.8 TBS/036824 Safari/537.36 MicroMessenger/6.3.25.861 NetType/WIFI Language/zh_CN'
p385
sg16
S'397657f3542c228109be4c54a11ea808'
p386
sa(dp387
g2
S'6300'
p388
sg4
S'2308'
p389
sg6
S'645c5de0eb8626c7f0c31a1d46f8c920'
p390
sg8
S'xx2356956ad819d4add9d2e25344da8089'
p391
sg10
S'xx700145cd832008e8a1ae43a77355805f'
p392
sg12
S'xx9ded28799f5bf63f6f9e4d7b36edeec3'
p393
sg14
S'Mozilla/5.0 (Linux; Android 4.4.4; vivo Y28L Build/KTU84P) AppleWebKit/537.36 (KHTML, like Gecko) Version/4.0 Chrome/37.0.0.0 Mobile MQQBrowser/6.8 TBS/036824 Safari/537.36 MicroMessenger/6.3.25.861 NetType/WIFI Language/zh_CN'
p394
sg16
S'397657f3542c228109be4c54a11ea808'
p395
sa(dp396
g2
S'6300'
p397
sg4
S'2759'
p398
sg6
S'645c5de0eb8626c7f0c31a1d46f8c920'
p399
sg8
S'xx2356956ad819d4add9d2e25344da8089'
p400
sg10
S'xx700145cd832008e8a1ae43a77355805f'
p401
sg12
S'xx9ded28799f5bf63f6f9e4d7b36edeec3'
p402
sg14
S'Mozilla/5.0 (Linux; Android 4.4.4; vivo Y28L Build/KTU84P) AppleWebKit/537.36 (KHTML, like Gecko) Version/4.0 Chrome/37.0.0.0 Mobile MQQBrowser/6.8 TBS/036824 Safari/537.36 MicroMessenger/6.3.25.861 NetType/WIFI Language/zh_CN'
p403
sg16
S'397657f3542c228109be4c54a11ea808'
p404
sa(dp405
g2
S'6300'
p406
sg4
S'2774'
p407
sg6
S'645c5de0eb8626c7f0c31a1d46f8c920'
p408
sg8
S'xx2356956ad819d4add9d2e25344da8089'
p409
sg10
S'xx700145cd832008e8a1ae43a77355805f'
p410
sg12
S'xx9ded28799f5bf63f6f9e4d7b36edeec3'
p411
sg14
S'Mozilla/5.0 (Linux; Android 4.4.4; vivo Y28L Build/KTU84P) AppleWebKit/537.36 (KHTML, like Gecko) Version/4.0 Chrome/37.0.0.0 Mobile MQQBrowser/6.8 TBS/036824 Safari/537.36 MicroMessenger/6.3.25.861 NetType/WIFI Language/zh_CN'
p412
sg16
S'397657f3542c228109be4c54a11ea808'
p413
sa(dp414
g2
S'6300'
p415
sg4
S'2784'
p416
sg6
S'645c5de0eb8626c7f0c31a1d46f8c920'
p417
sg8
S'xx2356956ad819d4add9d2e25344da8089'
p418
sg10
S'xx700145cd832008e8a1ae43a77355805f'
p419
sg12
S'xx9ded28799f5bf63f6f9e4d7b36edeec3'
p420
sg14
S'Mozilla/5.0 (Linux; Android 4.4.4; vivo Y28L Build/KTU84P) AppleWebKit/537.36 (KHTML, like Gecko) Version/4.0 Chrome/37.0.0.0 Mobile MQQBrowser/6.8 TBS/036824 Safari/537.36 MicroMessenger/6.3.25.861 NetType/WIFI Language/zh_CN'
p421
sg16
S'397657f3542c228109be4c54a11ea808'
p422
sa(dp423
g2
S'6300'
p424
sg4
S'2795'
p425
sg6
S'645c5de0eb8626c7f0c31a1d46f8c920'
p426
sg8
S'xx2356956ad819d4add9d2e25344da8089'
p427
sg10
S'xx700145cd832008e8a1ae43a77355805f'
p428
sg12
S'xx9ded28799f5bf63f6f9e4d7b36edeec3'
p429
sg14
S'Mozilla/5.0 (Linux; Android 4.4.4; vivo Y28L Build/KTU84P) AppleWebKit/537.36 (KHTML, like Gecko) Version/4.0 Chrome/37.0.0.0 Mobile MQQBrowser/6.8 TBS/036824 Safari/537.36 MicroMessenger/6.3.25.861 NetType/WIFI Language/zh_CN'
p430
sg16
S'397657f3542c228109be4c54a11ea808'
p431
sa(dp432
g2
S'6300'
p433
sg4
S'2807'
p434
sg6
S'645c5de0eb8626c7f0c31a1d46f8c920'
p435
sg8
S'xx2356956ad819d4add9d2e25344da8089'
p436
sg10
S'xx700145cd832008e8a1ae43a77355805f'
p437
sg12
S'xx9ded28799f5bf63f6f9e4d7b36edeec3'
p438
sg14
S'Mozilla/5.0 (Linux; Android 4.4.4; vivo Y28L Build/KTU84P) AppleWebKit/537.36 (KHTML, like Gecko) Version/4.0 Chrome/37.0.0.0 Mobile MQQBrowser/6.8 TBS/036824 Safari/537.36 MicroMessenger/6.3.25.861 NetType/WIFI Language/zh_CN'
p439
sg16
S'397657f3542c228109be4c54a11ea808'
p440
sa(dp441
g2
S'6300'
p442
sg4
S'2824'
p443
sg6
S'645c5de0eb8626c7f0c31a1d46f8c920'
p444
sg8
S'xx2356956ad819d4add9d2e25344da8089'
p445
sg10
S'xx700145cd832008e8a1ae43a77355805f'
p446
sg12
S'xx9ded28799f5bf63f6f9e4d7b36edeec3'
p447
sg14
S'Mozilla/5.0 (Linux; Android 4.4.4; vivo Y28L Build/KTU84P) AppleWebKit/537.36 (KHTML, like Gecko) Version/4.0 Chrome/37.0.0.0 Mobile MQQBrowser/6.8 TBS/036824 Safari/537.36 MicroMessenger/6.3.25.861 NetType/WIFI Language/zh_CN'
p448
sg16
S'397657f3542c228109be4c54a11ea808'
p449
sa(dp450
g2
S'6300'
p451
sg4
S'2851'
p452
sg6
S'645c5de0eb8626c7f0c31a1d46f8c920'
p453
sg8
S'xx2356956ad819d4add9d2e25344da8089'
p454
sg10
S'xx700145cd832008e8a1ae43a77355805f'
p455
sg12
S'xx9ded28799f5bf63f6f9e4d7b36edeec3'
p456
sg14
S'Mozilla/5.0 (Linux; Android 4.4.4; vivo Y28L Build/KTU84P) AppleWebKit/537.36 (KHTML, like Gecko) Version/4.0 Chrome/37.0.0.0 Mobile MQQBrowser/6.8 TBS/036824 Safari/537.36 MicroMessenger/6.3.25.861 NetType/WIFI Language/zh_CN'
p457
sg16
S'397657f3542c228109be4c54a11ea808'
p458
sa(dp459
g2
S'6300'
p460
sg4
S'2871'
p461
sg6
S'645c5de0eb8626c7f0c31a1d46f8c920'
p462
sg8
S'xx2356956ad819d4add9d2e25344da8089'
p463
sg10
S'xx700145cd832008e8a1ae43a77355805f'
p464
sg12
S'xx9ded28799f5bf63f6f9e4d7b36edeec3'
p465
sg14
S'Mozilla/5.0 (Linux; Android 4.4.4; vivo Y28L Build/KTU84P) AppleWebKit/537.36 (KHTML, like Gecko) Version/4.0 Chrome/37.0.0.0 Mobile MQQBrowser/6.8 TBS/036824 Safari/537.36 MicroMessenger/6.3.25.861 NetType/WIFI Language/zh_CN'
p466
sg16
S'397657f3542c228109be4c54a11ea808'
p467
sa(dp468
g2
S'6300'
p469
sg4
S'2893'
p470
sg6
S'645c5de0eb8626c7f0c31a1d46f8c920'
p471
sg8
S'xx2356956ad819d4add9d2e25344da8089'
p472
sg10
S'xx700145cd832008e8a1ae43a77355805f'
p473
sg12
S'xx9ded28799f5bf63f6f9e4d7b36edeec3'
p474
sg14
S'Mozilla/5.0 (Linux; Android 4.4.4; vivo Y28L Build/KTU84P) AppleWebKit/537.36 (KHTML, like Gecko) Version/4.0 Chrome/37.0.0.0 Mobile MQQBrowser/6.8 TBS/036824 Safari/537.36 MicroMessenger/6.3.25.861 NetType/WIFI Language/zh_CN'
p475
sg16
S'397657f3542c228109be4c54a11ea808'
p476
sa(dp477
g2
S'6300'
p478
sg4
S'3338'
p479
sg6
S'645c5de0eb8626c7f0c31a1d46f8c920'
p480
sg8
S'xx2356956ad819d4add9d2e25344da8089'
p481
sg10
S'xx700145cd832008e8a1ae43a77355805f'
p482
sg12
S'xx9ded28799f5bf63f6f9e4d7b36edeec3'
p483
sg14
S'Mozilla/5.0 (Linux; Android 4.4.4; vivo Y28L Build/KTU84P) AppleWebKit/537.36 (KHTML, like Gecko) Version/4.0 Chrome/37.0.0.0 Mobile MQQBrowser/6.8 TBS/036824 Safari/537.36 MicroMessenger/6.3.25.861 NetType/WIFI Language/zh_CN'
p484
sg16
S'397657f3542c228109be4c54a11ea808'
p485
sa(dp486
g2
S'6300'
p487
sg4
S'3348'
p488
sg6
S'645c5de0eb8626c7f0c31a1d46f8c920'
p489
sg8
S'xx2356956ad819d4add9d2e25344da8089'
p490
sg10
S'xx700145cd832008e8a1ae43a77355805f'
p491
sg12
S'xx9ded28799f5bf63f6f9e4d7b36edeec3'
p492
sg14
S'Mozilla/5.0 (Linux; Android 4.4.4; vivo Y28L Build/KTU84P) AppleWebKit/537.36 (KHTML, like Gecko) Version/4.0 Chrome/37.0.0.0 Mobile MQQBrowser/6.8 TBS/036824 Safari/537.36 MicroMessenger/6.3.25.861 NetType/WIFI Language/zh_CN'
p493
sg16
S'397657f3542c228109be4c54a11ea808'
p494
sa(dp495
g2
S'6300'
p496
sg4
S'3381'
p497
sg6
S'645c5de0eb8626c7f0c31a1d46f8c920'
p498
sg8
S'xx2356956ad819d4add9d2e25344da8089'
p499
sg10
S'xx700145cd832008e8a1ae43a77355805f'
p500
sg12
S'xx9ded28799f5bf63f6f9e4d7b36edeec3'
p501
sg14
S'Mozilla/5.0 (Linux; Android 4.4.4; vivo Y28L Build/KTU84P) AppleWebKit/537.36 (KHTML, like Gecko) Version/4.0 Chrome/37.0.0.0 Mobile MQQBrowser/6.8 TBS/036824 Safari/537.36 MicroMessenger/6.3.25.861 NetType/WIFI Language/zh_CN'
p502
sg16
S'397657f3542c228109be4c54a11ea808'
p503
sa(dp504
g2
S'6300'
p505
sg4
S'3398'
p506
sg6
S'645c5de0eb8626c7f0c31a1d46f8c920'
p507
sg8
S'xx2356956ad819d4add9d2e25344da8089'
p508
sg10
S'xx700145cd832008e8a1ae43a77355805f'
p509
sg12
S'xx9ded28799f5bf63f6f9e4d7b36edeec3'
p510
sg14
S'Mozilla/5.0 (Linux; Android 4.4.4; vivo Y28L Build/KTU84P) AppleWebKit/537.36 (KHTML, like Gecko) Version/4.0 Chrome/37.0.0.0 Mobile MQQBrowser/6.8 TBS/036824 Safari/537.36 MicroMessenger/6.3.25.861 NetType/WIFI Language/zh_CN'
p511
sg16
S'397657f3542c228109be4c54a11ea808'
p512
sa(dp513
g2
S'6300'
p514
sg4
S'3481'
p515
sg6
S'645c5de0eb8626c7f0c31a1d46f8c920'
p516
sg8
S'xx2356956ad819d4add9d2e25344da8089'
p517
sg10
S'xx700145cd832008e8a1ae43a77355805f'
p518
sg12
S'xx9ded28799f5bf63f6f9e4d7b36edeec3'
p519
sg14
S'Mozilla/5.0 (Linux; Android 4.4.4; vivo Y28L Build/KTU84P) AppleWebKit/537.36 (KHTML, like Gecko) Version/4.0 Chrome/37.0.0.0 Mobile MQQBrowser/6.8 TBS/036824 Safari/537.36 MicroMessenger/6.3.25.861 NetType/WIFI Language/zh_CN'
p520
sg16
S'397657f3542c228109be4c54a11ea808'
p521
sa(dp522
g2
S'6300'
p523
sg4
S'3502'
p524
sg6
S'645c5de0eb8626c7f0c31a1d46f8c920'
p525
sg8
S'xx2356956ad819d4add9d2e25344da8089'
p526
sg10
S'xx700145cd832008e8a1ae43a77355805f'
p527
sg12
S'xx9ded28799f5bf63f6f9e4d7b36edeec3'
p528
sg14
S'Mozilla/5.0 (Linux; Android 4.4.4; vivo Y28L Build/KTU84P) AppleWebKit/537.36 (KHTML, like Gecko) Version/4.0 Chrome/37.0.0.0 Mobile MQQBrowser/6.8 TBS/036824 Safari/537.36 MicroMessenger/6.3.25.861 NetType/WIFI Language/zh_CN'
p529
sg16
S'397657f3542c228109be4c54a11ea808'
p530
sa(dp531
g2
S'6300'
p532
sg4
S'3683'
p533
sg6
S'645c5de0eb8626c7f0c31a1d46f8c920'
p534
sg8
S'xx2356956ad819d4add9d2e25344da8089'
p535
sg10
S'xx700145cd832008e8a1ae43a77355805f'
p536
sg12
S'xx9ded28799f5bf63f6f9e4d7b36edeec3'
p537
sg14
S'Mozilla/5.0 (Linux; Android 4.4.4; vivo Y28L Build/KTU84P) AppleWebKit/537.36 (KHTML, like Gecko) Version/4.0 Chrome/37.0.0.0 Mobile MQQBrowser/6.8 TBS/036824 Safari/537.36 MicroMessenger/6.3.25.861 NetType/WIFI Language/zh_CN'
p538
sg16
S'397657f3542c228109be4c54a11ea808'
p539
sa(dp540
g2
S'6300'
p541
sg4
S'3698'
p542
sg6
S'645c5de0eb8626c7f0c31a1d46f8c920'
p543
sg8
S'xx2356956ad819d4add9d2e25344da8089'
p544
sg10
S'xx700145cd832008e8a1ae43a77355805f'
p545
sg12
S'xx9ded28799f5bf63f6f9e4d7b36edeec3'
p546
sg14
S'Mozilla/5.0 (Linux; Android 4.4.4; vivo Y28L Build/KTU84P) AppleWebKit/537.36 (KHTML, like Gecko) Version/4.0 Chrome/37.0.0.0 Mobile MQQBrowser/6.8 TBS/036824 Safari/537.36 MicroMessenger/6.3.25.861 NetType/WIFI Language/zh_CN'
p547
sg16
S'397657f3542c228109be4c54a11ea808'
p548
sa(dp549
g2
S'6300'
p550
sg4
S'3971'
p551
sg6
S'645c5de0eb8626c7f0c31a1d46f8c920'
p552
sg8
S'xx2356956ad819d4add9d2e25344da8089'
p553
sg10
S'xx700145cd832008e8a1ae43a77355805f'
p554
sg12
S'xx9ded28799f5bf63f6f9e4d7b36edeec3'
p555
sg14
S'Mozilla/5.0 (Linux; Android 4.4.4; vivo Y28L Build/KTU84P) AppleWebKit/537.36 (KHTML, like Gecko) Version/4.0 Chrome/37.0.0.0 Mobile MQQBrowser/6.8 TBS/036824 Safari/537.36 MicroMessenger/6.3.25.861 NetType/WIFI Language/zh_CN'
p556
sg16
S'397657f3542c228109be4c54a11ea808'
p557
sa(dp558
g2
S'6300'
p559
sg4
S'3987'
p560
sg6
S'645c5de0eb8626c7f0c31a1d46f8c920'
p561
sg8
S'xx2356956ad819d4add9d2e25344da8089'
p562
sg10
S'xx700145cd832008e8a1ae43a77355805f'
p563
sg12
S'xx9ded28799f5bf63f6f9e4d7b36edeec3'
p564
sg14
S'Mozilla/5.0 (Linux; Android 4.4.4; vivo Y28L Build/KTU84P) AppleWebKit/537.36 (KHTML, like Gecko) Version/4.0 Chrome/37.0.0.0 Mobile MQQBrowser/6.8 TBS/036824 Safari/537.36 MicroMessenger/6.3.25.861 NetType/WIFI Language/zh_CN'
p565
sg16
S'397657f3542c228109be4c54a11ea808'
p566
sa(dp567
g2
S'48009'
p568
sg4
S'4869'
p569
sg6
S'd66c95a4c1c7aa3ad1fe1162a8491ff3'
p570
sg8
S'xx2356956ad819d4add9d2e25344da8089'
p571
sg10
S'xx700145cd832008e8a1ae43a77355805f'
p572
sg12
S'xx9ded28799f5bf63f6f9e4d7b36edeec3'
p573
sg14
S'Mozilla/5.0 (Linux; Android 4.4.4; vivo Y28L Build/KTU84P) AppleWebKit/537.36 (KHTML, like Gecko) Version/4.0 Chrome/37.0.0.0 Mobile MQQBrowser/6.8 TBS/036824 Safari/537.36 MicroMessenger/6.3.25.861 NetType/WIFI Language/zh_CN'
p574
sg16
S'397657f3542c228109be4c54a11ea808'
p575
sa(dp576
g2
S'48009'
p577
sg4
S'4887'
p578
sg6
S'd66c95a4c1c7aa3ad1fe1162a8491ff3'
p579
sg8
S'xx2356956ad819d4add9d2e25344da8089'
p580
sg10
S'xx700145cd832008e8a1ae43a77355805f'
p581
sg12
S'xx9ded28799f5bf63f6f9e4d7b36edeec3'
p582
sg14
S'Mozilla/5.0 (Linux; Android 4.4.4; vivo Y28L Build/KTU84P) AppleWebKit/537.36 (KHTML, like Gecko) Version/4.0 Chrome/37.0.0.0 Mobile MQQBrowser/6.8 TBS/036824 Safari/537.36 MicroMessenger/6.3.25.861 NetType/WIFI Language/zh_CN'
p583
sg16
S'397657f3542c228109be4c54a11ea808'
p584
sa(dp585
g2
S'48009'
p586
sg4
S'4907'
p587
sg6
S'd66c95a4c1c7aa3ad1fe1162a8491ff3'
p588
sg8
S'xx2356956ad819d4add9d2e25344da8089'
p589
sg10
S'xx700145cd832008e8a1ae43a77355805f'
p590
sg12
S'xx9ded28799f5bf63f6f9e4d7b36edeec3'
p591
sg14
S'Mozilla/5.0 (Linux; Android 4.4.4; vivo Y28L Build/KTU84P) AppleWebKit/537.36 (KHTML, like Gecko) Version/4.0 Chrome/37.0.0.0 Mobile MQQBrowser/6.8 TBS/036824 Safari/537.36 MicroMessenger/6.3.25.861 NetType/WIFI Language/zh_CN'
p592
sg16
S'397657f3542c228109be4c54a11ea808'
p593
sa(dp594
g2
S'48009'
p595
sg4
S'5196'
p596
sg6
S'd66c95a4c1c7aa3ad1fe1162a8491ff3'
p597
sg8
S'xx2356956ad819d4add9d2e25344da8089'
p598
sg10
S'xx700145cd832008e8a1ae43a77355805f'
p599
sg12
S'xx9ded28799f5bf63f6f9e4d7b36edeec3'
p600
sg14
S'Mozilla/5.0 (Linux; Android 4.4.4; vivo Y28L Build/KTU84P) AppleWebKit/537.36 (KHTML, like Gecko) Version/4.0 Chrome/37.0.0.0 Mobile MQQBrowser/6.8 TBS/036824 Safari/537.36 MicroMessenger/6.3.25.861 NetType/WIFI Language/zh_CN'
p601
sg16
S'397657f3542c228109be4c54a11ea808'
p602
sa(dp603
g2
S'48009'
p604
sg4
S'5211'
p605
sg6
S'd66c95a4c1c7aa3ad1fe1162a8491ff3'
p606
sg8
S'xx2356956ad819d4add9d2e25344da8089'
p607
sg10
S'xx700145cd832008e8a1ae43a77355805f'
p608
sg12
S'xx9ded28799f5bf63f6f9e4d7b36edeec3'
p609
sg14
S'Mozilla/5.0 (Linux; Android 4.4.4; vivo Y28L Build/KTU84P) AppleWebKit/537.36 (KHTML, like Gecko) Version/4.0 Chrome/37.0.0.0 Mobile MQQBrowser/6.8 TBS/036824 Safari/537.36 MicroMessenger/6.3.25.861 NetType/WIFI Language/zh_CN'
p610
sg16
S'397657f3542c228109be4c54a11ea808'
p611
sa(dp612
g2
S'48009'
p613
sg4
S'5223'
p614
sg6
S'd66c95a4c1c7aa3ad1fe1162a8491ff3'
p615
sg8
S'xx2356956ad819d4add9d2e25344da8089'
p616
sg10
S'xx700145cd832008e8a1ae43a77355805f'
p617
sg12
S'xx9ded28799f5bf63f6f9e4d7b36edeec3'
p618
sg14
S'Mozilla/5.0 (Linux; Android 4.4.4; vivo Y28L Build/KTU84P) AppleWebKit/537.36 (KHTML, like Gecko) Version/4.0 Chrome/37.0.0.0 Mobile MQQBrowser/6.8 TBS/036824 Safari/537.36 MicroMessenger/6.3.25.861 NetType/WIFI Language/zh_CN'
p619
sg16
S'397657f3542c228109be4c54a11ea808'
p620
sa(dp621
g2
S'48009'
p622
sg4
S'5239'
p623
sg6
S'd66c95a4c1c7aa3ad1fe1162a8491ff3'
p624
sg8
S'xx2356956ad819d4add9d2e25344da8089'
p625
sg10
S'xx700145cd832008e8a1ae43a77355805f'
p626
sg12
S'xx9ded28799f5bf63f6f9e4d7b36edeec3'
p627
sg14
S'Mozilla/5.0 (Linux; Android 4.4.4; vivo Y28L Build/KTU84P) AppleWebKit/537.36 (KHTML, like Gecko) Version/4.0 Chrome/37.0.0.0 Mobile MQQBrowser/6.8 TBS/036824 Safari/537.36 MicroMessenger/6.3.25.861 NetType/WIFI Language/zh_CN'
p628
sg16
S'397657f3542c228109be4c54a11ea808'
p629
sa(dp630
g2
S'48009'
p631
sg4
S'5257'
p632
sg6
S'd66c95a4c1c7aa3ad1fe1162a8491ff3'
p633
sg8
S'xx2356956ad819d4add9d2e25344da8089'
p634
sg10
S'xx700145cd832008e8a1ae43a77355805f'
p635
sg12
S'xx9ded28799f5bf63f6f9e4d7b36edeec3'
p636
sg14
S'Mozilla/5.0 (Linux; Android 4.4.4; vivo Y28L Build/KTU84P) AppleWebKit/537.36 (KHTML, like Gecko) Version/4.0 Chrome/37.0.0.0 Mobile MQQBrowser/6.8 TBS/036824 Safari/537.36 MicroMessenger/6.3.25.861 NetType/WIFI Language/zh_CN'
p637
sg16
S'397657f3542c228109be4c54a11ea808'
p638
sa(dp639
g2
S'48009'
p640
sg4
S'5273'
p641
sg6
S'd66c95a4c1c7aa3ad1fe1162a8491ff3'
p642
sg8
S'xx2356956ad819d4add9d2e25344da8089'
p643
sg10
S'xx700145cd832008e8a1ae43a77355805f'
p644
sg12
S'xx9ded28799f5bf63f6f9e4d7b36edeec3'
p645
sg14
S'Mozilla/5.0 (Linux; Android 4.4.4; vivo Y28L Build/KTU84P) AppleWebKit/537.36 (KHTML, like Gecko) Version/4.0 Chrome/37.0.0.0 Mobile MQQBrowser/6.8 TBS/036824 Safari/537.36 MicroMessenger/6.3.25.861 NetType/WIFI Language/zh_CN'
p646
sg16
S'397657f3542c228109be4c54a11ea808'
p647
sa(dp648
g2
S'48009'
p649
sg4
S'5290'
p650
sg6
S'd66c95a4c1c7aa3ad1fe1162a8491ff3'
p651
sg8
S'xx2356956ad819d4add9d2e25344da8089'
p652
sg10
S'xx700145cd832008e8a1ae43a77355805f'
p653
sg12
S'xx9ded28799f5bf63f6f9e4d7b36edeec3'
p654
sg14
S'Mozilla/5.0 (Linux; Android 4.4.4; vivo Y28L Build/KTU84P) AppleWebKit/537.36 (KHTML, like Gecko) Version/4.0 Chrome/37.0.0.0 Mobile MQQBrowser/6.8 TBS/036824 Safari/537.36 MicroMessenger/6.3.25.861 NetType/WIFI Language/zh_CN'
p655
sg16
S'397657f3542c228109be4c54a11ea808'
p656
sa(dp657
g2
S'48009'
p658
sg4
S'5304'
p659
sg6
S'd66c95a4c1c7aa3ad1fe1162a8491ff3'
p660
sg8
S'xx2356956ad819d4add9d2e25344da8089'
p661
sg10
S'xx700145cd832008e8a1ae43a77355805f'
p662
sg12
S'xx9ded28799f5bf63f6f9e4d7b36edeec3'
p663
sg14
S'Mozilla/5.0 (Linux; Android 4.4.4; vivo Y28L Build/KTU84P) AppleWebKit/537.36 (KHTML, like Gecko) Version/4.0 Chrome/37.0.0.0 Mobile MQQBrowser/6.8 TBS/036824 Safari/537.36 MicroMessenger/6.3.25.861 NetType/WIFI Language/zh_CN'
p664
sg16
S'397657f3542c228109be4c54a11ea808'
p665
sa(dp666
g2
S'48009'
p667
sg4
S'5317'
p668
sg6
S'd66c95a4c1c7aa3ad1fe1162a8491ff3'
p669
sg8
S'xx2356956ad819d4add9d2e25344da8089'
p670
sg10
S'xx700145cd832008e8a1ae43a77355805f'
p671
sg12
S'xx9ded28799f5bf63f6f9e4d7b36edeec3'
p672
sg14
S'Mozilla/5.0 (Linux; Android 4.4.4; vivo Y28L Build/KTU84P) AppleWebKit/537.36 (KHTML, like Gecko) Version/4.0 Chrome/37.0.0.0 Mobile MQQBrowser/6.8 TBS/036824 Safari/537.36 MicroMessenger/6.3.25.861 NetType/WIFI Language/zh_CN'
p673
sg16
S'397657f3542c228109be4c54a11ea808'
p674
sa(dp675
g2
S'48009'
p676
sg4
S'5334'
p677
sg6
S'd66c95a4c1c7aa3ad1fe1162a8491ff3'
p678
sg8
S'xx2356956ad819d4add9d2e25344da8089'
p679
sg10
S'xx700145cd832008e8a1ae43a77355805f'
p680
sg12
S'xx9ded28799f5bf63f6f9e4d7b36edeec3'
p681
sg14
S'Mozilla/5.0 (Linux; Android 4.4.4; vivo Y28L Build/KTU84P) AppleWebKit/537.36 (KHTML, like Gecko) Version/4.0 Chrome/37.0.0.0 Mobile MQQBrowser/6.8 TBS/036824 Safari/537.36 MicroMessenger/6.3.25.861 NetType/WIFI Language/zh_CN'
p682
sg16
S'397657f3542c228109be4c54a11ea808'
p683
sa(dp684
g2
S'48009'
p685
sg4
S'5395'
p686
sg6
S'd66c95a4c1c7aa3ad1fe1162a8491ff3'
p687
sg8
S'xx2356956ad819d4add9d2e25344da8089'
p688
sg10
S'xx700145cd832008e8a1ae43a77355805f'
p689
sg12
S'xx9ded28799f5bf63f6f9e4d7b36edeec3'
p690
sg14
S'Mozilla/5.0 (Linux; Android 4.4.4; vivo Y28L Build/KTU84P) AppleWebKit/537.36 (KHTML, like Gecko) Version/4.0 Chrome/37.0.0.0 Mobile MQQBrowser/6.8 TBS/036824 Safari/537.36 MicroMessenger/6.3.25.861 NetType/WIFI Language/zh_CN'
p691
sg16
S'397657f3542c228109be4c54a11ea808'
p692
sa(dp693
g2
S'48009'
p694
sg4
S'5459'
p695
sg6
S'd66c95a4c1c7aa3ad1fe1162a8491ff3'
p696
sg8
S'xx2356956ad819d4add9d2e25344da8089'
p697
sg10
S'xx700145cd832008e8a1ae43a77355805f'
p698
sg12
S'xx9ded28799f5bf63f6f9e4d7b36edeec3'
p699
sg14
S'Mozilla/5.0 (Linux; Android 4.4.4; vivo Y28L Build/KTU84P) AppleWebKit/537.36 (KHTML, like Gecko) Version/4.0 Chrome/37.0.0.0 Mobile MQQBrowser/6.8 TBS/036824 Safari/537.36 MicroMessenger/6.3.25.861 NetType/WIFI Language/zh_CN'
p700
sg16
S'397657f3542c228109be4c54a11ea808'
p701
sa(dp702
g2
S'48009'
p703
sg4
S'5473'
p704
sg6
S'd66c95a4c1c7aa3ad1fe1162a8491ff3'
p705
sg8
S'xx2356956ad819d4add9d2e25344da8089'
p706
sg10
S'xx700145cd832008e8a1ae43a77355805f'
p707
sg12
S'xx9ded28799f5bf63f6f9e4d7b36edeec3'
p708
sg14
S'Mozilla/5.0 (Linux; Android 4.4.4; vivo Y28L Build/KTU84P) AppleWebKit/537.36 (KHTML, like Gecko) Version/4.0 Chrome/37.0.0.0 Mobile MQQBrowser/6.8 TBS/036824 Safari/537.36 MicroMessenger/6.3.25.861 NetType/WIFI Language/zh_CN'
p709
sg16
S'397657f3542c228109be4c54a11ea808'
p710
sa(dp711
g2
S'48009'
p712
sg4
S'5486'
p713
sg6
S'd66c95a4c1c7aa3ad1fe1162a8491ff3'
p714
sg8
S'xx2356956ad819d4add9d2e25344da8089'
p715
sg10
S'xx700145cd832008e8a1ae43a77355805f'
p716
sg12
S'xx9ded28799f5bf63f6f9e4d7b36edeec3'
p717
sg14
S'Mozilla/5.0 (Linux; Android 4.4.4; vivo Y28L Build/KTU84P) AppleWebKit/537.36 (KHTML, like Gecko) Version/4.0 Chrome/37.0.0.0 Mobile MQQBrowser/6.8 TBS/036824 Safari/537.36 MicroMessenger/6.3.25.861 NetType/WIFI Language/zh_CN'
p718
sg16
S'397657f3542c228109be4c54a11ea808'
p719
sa(dp720
g2
S'48009'
p721
sg4
S'5505'
p722
sg6
S'd66c95a4c1c7aa3ad1fe1162a8491ff3'
p723
sg8
S'xx2356956ad819d4add9d2e25344da8089'
p724
sg10
S'xx700145cd832008e8a1ae43a77355805f'
p725
sg12
S'xx9ded28799f5bf63f6f9e4d7b36edeec3'
p726
sg14
S'Mozilla/5.0 (Linux; Android 4.4.4; vivo Y28L Build/KTU84P) AppleWebKit/537.36 (KHTML, like Gecko) Version/4.0 Chrome/37.0.0.0 Mobile MQQBrowser/6.8 TBS/036824 Safari/537.36 MicroMessenger/6.3.25.861 NetType/WIFI Language/zh_CN'
p727
sg16
S'397657f3542c228109be4c54a11ea808'
p728
sa(dp729
g2
S'48009'
p730
sg4
S'5589'
p731
sg6
S'd66c95a4c1c7aa3ad1fe1162a8491ff3'
p732
sg8
S'xx2356956ad819d4add9d2e25344da8089'
p733
sg10
S'xx700145cd832008e8a1ae43a77355805f'
p734
sg12
S'xx9ded28799f5bf63f6f9e4d7b36edeec3'
p735
sg14
S'Mozilla/5.0 (Linux; Android 4.4.4; vivo Y28L Build/KTU84P) AppleWebKit/537.36 (KHTML, like Gecko) Version/4.0 Chrome/37.0.0.0 Mobile MQQBrowser/6.8 TBS/036824 Safari/537.36 MicroMessenger/6.3.25.861 NetType/WIFI Language/zh_CN'
p736
sg16
S'397657f3542c228109be4c54a11ea808'
p737
sa(dp738
g2
S'48009'
p739
sg4
S'5606'
p740
sg6
S'd66c95a4c1c7aa3ad1fe1162a8491ff3'
p741
sg8
S'xx2356956ad819d4add9d2e25344da8089'
p742
sg10
S'xx700145cd832008e8a1ae43a77355805f'
p743
sg12
S'xx9ded28799f5bf63f6f9e4d7b36edeec3'
p744
sg14
S'Mozilla/5.0 (Linux; Android 4.4.4; vivo Y28L Build/KTU84P) AppleWebKit/537.36 (KHTML, like Gecko) Version/4.0 Chrome/37.0.0.0 Mobile MQQBrowser/6.8 TBS/036824 Safari/537.36 MicroMessenger/6.3.25.861 NetType/WIFI Language/zh_CN'
p745
sg16
S'397657f3542c228109be4c54a11ea808'
p746
sa(dp747
g2
S'48009'
p748
sg4
S'5621'
p749
sg6
S'd66c95a4c1c7aa3ad1fe1162a8491ff3'
p750
sg8
S'xx2356956ad819d4add9d2e25344da8089'
p751
sg10
S'xx700145cd832008e8a1ae43a77355805f'
p752
sg12
S'xx9ded28799f5bf63f6f9e4d7b36edeec3'
p753
sg14
S'Mozilla/5.0 (Linux; Android 4.4.4; vivo Y28L Build/KTU84P) AppleWebKit/537.36 (KHTML, like Gecko) Version/4.0 Chrome/37.0.0.0 Mobile MQQBrowser/6.8 TBS/036824 Safari/537.36 MicroMessenger/6.3.25.861 NetType/WIFI Language/zh_CN'
p754
sg16
S'397657f3542c228109be4c54a11ea808'
p755
sa(dp756
g2
S'48009'
p757
sg4
S'5671'
p758
sg6
S'd66c95a4c1c7aa3ad1fe1162a8491ff3'
p759
sg8
S'xx2356956ad819d4add9d2e25344da8089'
p760
sg10
S'xx700145cd832008e8a1ae43a77355805f'
p761
sg12
S'xx9ded28799f5bf63f6f9e4d7b36edeec3'
p762
sg14
S'Mozilla/5.0 (Linux; Android 4.4.4; vivo Y28L Build/KTU84P) AppleWebKit/537.36 (KHTML, like Gecko) Version/4.0 Chrome/37.0.0.0 Mobile MQQBrowser/6.8 TBS/036824 Safari/537.36 MicroMessenger/6.3.25.861 NetType/WIFI Language/zh_CN'
p763
sg16
S'397657f3542c228109be4c54a11ea808'
p764
sa(dp765
g2
S'48009'
p766
sg4
S'5687'
p767
sg6
S'd66c95a4c1c7aa3ad1fe1162a8491ff3'
p768
sg8
S'xx2356956ad819d4add9d2e25344da8089'
p769
sg10
S'xx700145cd832008e8a1ae43a77355805f'
p770
sg12
S'xx9ded28799f5bf63f6f9e4d7b36edeec3'
p771
sg14
S'Mozilla/5.0 (Linux; Android 4.4.4; vivo Y28L Build/KTU84P) AppleWebKit/537.36 (KHTML, like Gecko) Version/4.0 Chrome/37.0.0.0 Mobile MQQBrowser/6.8 TBS/036824 Safari/537.36 MicroMessenger/6.3.25.861 NetType/WIFI Language/zh_CN'
p772
sg16
S'397657f3542c228109be4c54a11ea808'
p773
sa(dp774
g2
S'48009'
p775
sg4
S'5704'
p776
sg6
S'd66c95a4c1c7aa3ad1fe1162a8491ff3'
p777
sg8
S'xx2356956ad819d4add9d2e25344da8089'
p778
sg10
S'xx700145cd832008e8a1ae43a77355805f'
p779
sg12
S'xx9ded28799f5bf63f6f9e4d7b36edeec3'
p780
sg14
S'Mozilla/5.0 (Linux; Android 4.4.4; vivo Y28L Build/KTU84P) AppleWebKit/537.36 (KHTML, like Gecko) Version/4.0 Chrome/37.0.0.0 Mobile MQQBrowser/6.8 TBS/036824 Safari/537.36 MicroMessenger/6.3.25.861 NetType/WIFI Language/zh_CN'
p781
sg16
S'397657f3542c228109be4c54a11ea808'
p782
sa(dp783
g2
S'48009'
p784
sg4
S'5720'
p785
sg6
S'd66c95a4c1c7aa3ad1fe1162a8491ff3'
p786
sg8
S'xx2356956ad819d4add9d2e25344da8089'
p787
sg10
S'xx700145cd832008e8a1ae43a77355805f'
p788
sg12
S'xx9ded28799f5bf63f6f9e4d7b36edeec3'
p789
sg14
S'Mozilla/5.0 (Linux; Android 4.4.4; vivo Y28L Build/KTU84P) AppleWebKit/537.36 (KHTML, like Gecko) Version/4.0 Chrome/37.0.0.0 Mobile MQQBrowser/6.8 TBS/036824 Safari/537.36 MicroMessenger/6.3.25.861 NetType/WIFI Language/zh_CN'
p790
sg16
S'397657f3542c228109be4c54a11ea808'
p791
sa(dp792
g2
S'48009'
p793
sg4
S'5746'
p794
sg6
S'd66c95a4c1c7aa3ad1fe1162a8491ff3'
p795
sg8
S'xx2356956ad819d4add9d2e25344da8089'
p796
sg10
S'xx700145cd832008e8a1ae43a77355805f'
p797
sg12
S'xx9ded28799f5bf63f6f9e4d7b36edeec3'
p798
sg14
S'Mozilla/5.0 (Linux; Android 4.4.4; vivo Y28L Build/KTU84P) AppleWebKit/537.36 (KHTML, like Gecko) Version/4.0 Chrome/37.0.0.0 Mobile MQQBrowser/6.8 TBS/036824 Safari/537.36 MicroMessenger/6.3.25.861 NetType/WIFI Language/zh_CN'
p799
sg16
S'397657f3542c228109be4c54a11ea808'
p800
sa(dp801
g2
S'48009'
p802
sg4
S'5767'
p803
sg6
S'd66c95a4c1c7aa3ad1fe1162a8491ff3'
p804
sg8
S'xx2356956ad819d4add9d2e25344da8089'
p805
sg10
S'xx700145cd832008e8a1ae43a77355805f'
p806
sg12
S'xx9ded28799f5bf63f6f9e4d7b36edeec3'
p807
sg14
S'Mozilla/5.0 (Linux; Android 4.4.4; vivo Y28L Build/KTU84P) AppleWebKit/537.36 (KHTML, like Gecko) Version/4.0 Chrome/37.0.0.0 Mobile MQQBrowser/6.8 TBS/036824 Safari/537.36 MicroMessenger/6.3.25.861 NetType/WIFI Language/zh_CN'
p808
sg16
S'397657f3542c228109be4c54a11ea808'
p809
sa(dp810
g2
S'48009'
p811
sg4
S'5790'
p812
sg6
S'd66c95a4c1c7aa3ad1fe1162a8491ff3'
p813
sg8
S'xx2356956ad819d4add9d2e25344da8089'
p814
sg10
S'xx700145cd832008e8a1ae43a77355805f'
p815
sg12
S'xx9ded28799f5bf63f6f9e4d7b36edeec3'
p816
sg14
S'Mozilla/5.0 (Linux; Android 4.4.4; vivo Y28L Build/KTU84P) AppleWebKit/537.36 (KHTML, like Gecko) Version/4.0 Chrome/37.0.0.0 Mobile MQQBrowser/6.8 TBS/036824 Safari/537.36 MicroMessenger/6.3.25.861 NetType/WIFI Language/zh_CN'
p817
sg16
S'397657f3542c228109be4c54a11ea808'
p818
sa(dp819
g2
S'48009'
p820
sg4
S'5806'
p821
sg6
S'd66c95a4c1c7aa3ad1fe1162a8491ff3'
p822
sg8
S'xx2356956ad819d4add9d2e25344da8089'
p823
sg10
S'xx700145cd832008e8a1ae43a77355805f'
p824
sg12
S'xx9ded28799f5bf63f6f9e4d7b36edeec3'
p825
sg14
S'Mozilla/5.0 (Linux; Android 4.4.4; vivo Y28L Build/KTU84P) AppleWebKit/537.36 (KHTML, like Gecko) Version/4.0 Chrome/37.0.0.0 Mobile MQQBrowser/6.8 TBS/036824 Safari/537.36 MicroMessenger/6.3.25.861 NetType/WIFI Language/zh_CN'
p826
sg16
S'397657f3542c228109be4c54a11ea808'
p827
sa(dp828
g2
S'48009'
p829
sg4
S'5832'
p830
sg6
S'd66c95a4c1c7aa3ad1fe1162a8491ff3'
p831
sg8
S'xx2356956ad819d4add9d2e25344da8089'
p832
sg10
S'xx700145cd832008e8a1ae43a77355805f'
p833
sg12
S'xx9ded28799f5bf63f6f9e4d7b36edeec3'
p834
sg14
S'Mozilla/5.0 (Linux; Android 4.4.4; vivo Y28L Build/KTU84P) AppleWebKit/537.36 (KHTML, like Gecko) Version/4.0 Chrome/37.0.0.0 Mobile MQQBrowser/6.8 TBS/036824 Safari/537.36 MicroMessenger/6.3.25.861 NetType/WIFI Language/zh_CN'
p835
sg16
S'397657f3542c228109be4c54a11ea808'
p836
sa(dp837
g2
S'48009'
p838
sg4
S'5843'
p839
sg6
S'd66c95a4c1c7aa3ad1fe1162a8491ff3'
p840
sg8
S'xx2356956ad819d4add9d2e25344da8089'
p841
sg10
S'xx700145cd832008e8a1ae43a77355805f'
p842
sg12
S'xx9ded28799f5bf63f6f9e4d7b36edeec3'
p843
sg14
S'Mozilla/5.0 (Linux; Android 4.4.4; vivo Y28L Build/KTU84P) AppleWebKit/537.36 (KHTML, like Gecko) Version/4.0 Chrome/37.0.0.0 Mobile MQQBrowser/6.8 TBS/036824 Safari/537.36 MicroMessenger/6.3.25.861 NetType/WIFI Language/zh_CN'
p844
sg16
S'397657f3542c228109be4c54a11ea808'
p845
sa(dp846
g2
S'48009'
p847
sg4
S'5856'
p848
sg6
S'd66c95a4c1c7aa3ad1fe1162a8491ff3'
p849
sg8
S'xx2356956ad819d4add9d2e25344da8089'
p850
sg10
S'xx700145cd832008e8a1ae43a77355805f'
p851
sg12
S'xx9ded28799f5bf63f6f9e4d7b36edeec3'
p852
sg14
S'Mozilla/5.0 (Linux; Android 4.4.4; vivo Y28L Build/KTU84P) AppleWebKit/537.36 (KHTML, like Gecko) Version/4.0 Chrome/37.0.0.0 Mobile MQQBrowser/6.8 TBS/036824 Safari/537.36 MicroMessenger/6.3.25.861 NetType/WIFI Language/zh_CN'
p853
sg16
S'397657f3542c228109be4c54a11ea808'
p854
sa(dp855
g2
S'48009'
p856
sg4
S'5867'
p857
sg6
S'd66c95a4c1c7aa3ad1fe1162a8491ff3'
p858
sg8
S'xx2356956ad819d4add9d2e25344da8089'
p859
sg10
S'xx700145cd832008e8a1ae43a77355805f'
p860
sg12
S'xx9ded28799f5bf63f6f9e4d7b36edeec3'
p861
sg14
S'Mozilla/5.0 (Linux; Android 4.4.4; vivo Y28L Build/KTU84P) AppleWebKit/537.36 (KHTML, like Gecko) Version/4.0 Chrome/37.0.0.0 Mobile MQQBrowser/6.8 TBS/036824 Safari/537.36 MicroMessenger/6.3.25.861 NetType/WIFI Language/zh_CN'
p862
sg16
S'397657f3542c228109be4c54a11ea808'
p863
sa(dp864
g2
S'48009'
p865
sg4
S'5883'
p866
sg6
S'd66c95a4c1c7aa3ad1fe1162a8491ff3'
p867
sg8
S'xx2356956ad819d4add9d2e25344da8089'
p868
sg10
S'xx700145cd832008e8a1ae43a77355805f'
p869
sg12
S'xx9ded28799f5bf63f6f9e4d7b36edeec3'
p870
sg14
S'Mozilla/5.0 (Linux; Android 4.4.4; vivo Y28L Build/KTU84P) AppleWebKit/537.36 (KHTML, like Gecko) Version/4.0 Chrome/37.0.0.0 Mobile MQQBrowser/6.8 TBS/036824 Safari/537.36 MicroMessenger/6.3.25.861 NetType/WIFI Language/zh_CN'
p871
sg16
S'397657f3542c228109be4c54a11ea808'
p872
sa(dp873
g2
S'48009'
p874
sg4
S'5899'
p875
sg6
S'd66c95a4c1c7aa3ad1fe1162a8491ff3'
p876
sg8
S'xx2356956ad819d4add9d2e25344da8089'
p877
sg10
S'xx700145cd832008e8a1ae43a77355805f'
p878
sg12
S'xx9ded28799f5bf63f6f9e4d7b36edeec3'
p879
sg14
S'Mozilla/5.0 (Linux; Android 4.4.4; vivo Y28L Build/KTU84P) AppleWebKit/537.36 (KHTML, like Gecko) Version/4.0 Chrome/37.0.0.0 Mobile MQQBrowser/6.8 TBS/036824 Safari/537.36 MicroMessenger/6.3.25.861 NetType/WIFI Language/zh_CN'
p880
sg16
S'397657f3542c228109be4c54a11ea808'
p881
sa(dp882
g2
S'48009'
p883
sg4
S'5917'
p884
sg6
S'd66c95a4c1c7aa3ad1fe1162a8491ff3'
p885
sg8
S'xx2356956ad819d4add9d2e25344da8089'
p886
sg10
S'xx700145cd832008e8a1ae43a77355805f'
p887
sg12
S'xx9ded28799f5bf63f6f9e4d7b36edeec3'
p888
sg14
S'Mozilla/5.0 (Linux; Android 4.4.4; vivo Y28L Build/KTU84P) AppleWebKit/537.36 (KHTML, like Gecko) Version/4.0 Chrome/37.0.0.0 Mobile MQQBrowser/6.8 TBS/036824 Safari/537.36 MicroMessenger/6.3.25.861 NetType/WIFI Language/zh_CN'
p889
sg16
S'397657f3542c228109be4c54a11ea808'
p890
sa(dp891
g2
S'48009'
p892
sg4
S'5938'
p893
sg6
S'd66c95a4c1c7aa3ad1fe1162a8491ff3'
p894
sg8
S'xx2356956ad819d4add9d2e25344da8089'
p895
sg10
S'xx700145cd832008e8a1ae43a77355805f'
p896
sg12
S'xx9ded28799f5bf63f6f9e4d7b36edeec3'
p897
sg14
S'Mozilla/5.0 (Linux; Android 4.4.4; vivo Y28L Build/KTU84P) AppleWebKit/537.36 (KHTML, like Gecko) Version/4.0 Chrome/37.0.0.0 Mobile MQQBrowser/6.8 TBS/036824 Safari/537.36 MicroMessenger/6.3.25.861 NetType/WIFI Language/zh_CN'
p898
sg16
S'397657f3542c228109be4c54a11ea808'
p899
sa(dp900
g2
S'48009'
p901
sg4
S'5952'
p902
sg6
S'd66c95a4c1c7aa3ad1fe1162a8491ff3'
p903
sg8
S'xx2356956ad819d4add9d2e25344da8089'
p904
sg10
S'xx700145cd832008e8a1ae43a77355805f'
p905
sg12
S'xx9ded28799f5bf63f6f9e4d7b36edeec3'
p906
sg14
S'Mozilla/5.0 (Linux; Android 4.4.4; vivo Y28L Build/KTU84P) AppleWebKit/537.36 (KHTML, like Gecko) Version/4.0 Chrome/37.0.0.0 Mobile MQQBrowser/6.8 TBS/036824 Safari/537.36 MicroMessenger/6.3.25.861 NetType/WIFI Language/zh_CN'
p907
sg16
S'397657f3542c228109be4c54a11ea808'
p908
sa(dp909
g2
S'48009'
p910
sg4
S'5963'
p911
sg6
S'd66c95a4c1c7aa3ad1fe1162a8491ff3'
p912
sg8
S'xx2356956ad819d4add9d2e25344da8089'
p913
sg10
S'xx700145cd832008e8a1ae43a77355805f'
p914
sg12
S'xx9ded28799f5bf63f6f9e4d7b36edeec3'
p915
sg14
S'Mozilla/5.0 (Linux; Android 4.4.4; vivo Y28L Build/KTU84P) AppleWebKit/537.36 (KHTML, like Gecko) Version/4.0 Chrome/37.0.0.0 Mobile MQQBrowser/6.8 TBS/036824 Safari/537.36 MicroMessenger/6.3.25.861 NetType/WIFI Language/zh_CN'
p916
sg16
S'397657f3542c228109be4c54a11ea808'
p917
sa(dp918
g2
S'48009'
p919
sg4
S'5978'
p920
sg6
S'd66c95a4c1c7aa3ad1fe1162a8491ff3'
p921
sg8
S'xx2356956ad819d4add9d2e25344da8089'
p922
sg10
S'xx700145cd832008e8a1ae43a77355805f'
p923
sg12
S'xx9ded28799f5bf63f6f9e4d7b36edeec3'
p924
sg14
S'Mozilla/5.0 (Linux; Android 4.4.4; vivo Y28L Build/KTU84P) AppleWebKit/537.36 (KHTML, like Gecko) Version/4.0 Chrome/37.0.0.0 Mobile MQQBrowser/6.8 TBS/036824 Safari/537.36 MicroMessenger/6.3.25.861 NetType/WIFI Language/zh_CN'
p925
sg16
S'397657f3542c228109be4c54a11ea808'
p926
sa(dp927
g2
S'48009'
p928
sg4
S'5996'
p929
sg6
S'd66c95a4c1c7aa3ad1fe1162a8491ff3'
p930
sg8
S'xx2356956ad819d4add9d2e25344da8089'
p931
sg10
S'xx700145cd832008e8a1ae43a77355805f'
p932
sg12
S'xx9ded28799f5bf63f6f9e4d7b36edeec3'
p933
sg14
S'Mozilla/5.0 (Linux; Android 4.4.4; vivo Y28L Build/KTU84P) AppleWebKit/537.36 (KHTML, like Gecko) Version/4.0 Chrome/37.0.0.0 Mobile MQQBrowser/6.8 TBS/036824 Safari/537.36 MicroMessenger/6.3.25.861 NetType/WIFI Language/zh_CN'
p934
sg16
S'397657f3542c228109be4c54a11ea808'
p935
sa(dp936
g2
S'48009'
p937
sg4
S'6010'
p938
sg6
S'd66c95a4c1c7aa3ad1fe1162a8491ff3'
p939
sg8
S'xx2356956ad819d4add9d2e25344da8089'
p940
sg10
S'xx700145cd832008e8a1ae43a77355805f'
p941
sg12
S'xx9ded28799f5bf63f6f9e4d7b36edeec3'
p942
sg14
S'Mozilla/5.0 (Linux; Android 4.4.4; vivo Y28L Build/KTU84P) AppleWebKit/537.36 (KHTML, like Gecko) Version/4.0 Chrome/37.0.0.0 Mobile MQQBrowser/6.8 TBS/036824 Safari/537.36 MicroMessenger/6.3.25.861 NetType/WIFI Language/zh_CN'
p943
sg16
S'397657f3542c228109be4c54a11ea808'
p944
sa(dp945
g2
S'48009'
p946
sg4
S'6023'
p947
sg6
S'd66c95a4c1c7aa3ad1fe1162a8491ff3'
p948
sg8
S'xx2356956ad819d4add9d2e25344da8089'
p949
sg10
S'xx700145cd832008e8a1ae43a77355805f'
p950
sg12
S'xx9ded28799f5bf63f6f9e4d7b36edeec3'
p951
sg14
S'Mozilla/5.0 (Linux; Android 4.4.4; vivo Y28L Build/KTU84P) AppleWebKit/537.36 (KHTML, like Gecko) Version/4.0 Chrome/37.0.0.0 Mobile MQQBrowser/6.8 TBS/036824 Safari/537.36 MicroMessenger/6.3.25.861 NetType/WIFI Language/zh_CN'
p952
sg16
S'397657f3542c228109be4c54a11ea808'
p953
sa(dp954
g2
S'48009'
p955
sg4
S'6035'
p956
sg6
S'd66c95a4c1c7aa3ad1fe1162a8491ff3'
p957
sg8
S'xx2356956ad819d4add9d2e25344da8089'
p958
sg10
S'xx700145cd832008e8a1ae43a77355805f'
p959
sg12
S'xx9ded28799f5bf63f6f9e4d7b36edeec3'
p960
sg14
S'Mozilla/5.0 (Linux; Android 4.4.4; vivo Y28L Build/KTU84P) AppleWebKit/537.36 (KHTML, like Gecko) Version/4.0 Chrome/37.0.0.0 Mobile MQQBrowser/6.8 TBS/036824 Safari/537.36 MicroMessenger/6.3.25.861 NetType/WIFI Language/zh_CN'
p961
sg16
S'397657f3542c228109be4c54a11ea808'
p962
sa(dp963
g2
S'48009'
p964
sg4
S'6050'
p965
sg6
S'd66c95a4c1c7aa3ad1fe1162a8491ff3'
p966
sg8
S'xx2356956ad819d4add9d2e25344da8089'
p967
sg10
S'xx700145cd832008e8a1ae43a77355805f'
p968
sg12
S'xx9ded28799f5bf63f6f9e4d7b36edeec3'
p969
sg14
S'Mozilla/5.0 (Linux; Android 4.4.4; vivo Y28L Build/KTU84P) AppleWebKit/537.36 (KHTML, like Gecko) Version/4.0 Chrome/37.0.0.0 Mobile MQQBrowser/6.8 TBS/036824 Safari/537.36 MicroMessenger/6.3.25.861 NetType/WIFI Language/zh_CN'
p970
sg16
S'397657f3542c228109be4c54a11ea808'
p971
sa(dp972
g2
S'48009'
p973
sg4
S'6153'
p974
sg6
S'd66c95a4c1c7aa3ad1fe1162a8491ff3'
p975
sg8
S'xx2356956ad819d4add9d2e25344da8089'
p976
sg10
S'xx700145cd832008e8a1ae43a77355805f'
p977
sg12
S'xx9ded28799f5bf63f6f9e4d7b36edeec3'
p978
sg14
S'Mozilla/5.0 (Linux; Android 4.4.4; vivo Y28L Build/KTU84P) AppleWebKit/537.36 (KHTML, like Gecko) Version/4.0 Chrome/37.0.0.0 Mobile MQQBrowser/6.8 TBS/036824 Safari/537.36 MicroMessenger/6.3.25.861 NetType/WIFI Language/zh_CN'
p979
sg16
S'397657f3542c228109be4c54a11ea808'
p980
sa(dp981
g2
S'48009'
p982
sg4
S'6531'
p983
sg6
S'645c5de0eb8626c7f0c31a1d46f8c920'
p984
sg8
S'xx2356956ad819d4add9d2e25344da8089'
p985
sg10
S'xx700145cd832008e8a1ae43a77355805f'
p986
sg12
S'xx9ded28799f5bf63f6f9e4d7b36edeec3'
p987
sg14
S'Mozilla/5.0 (Linux; Android 4.4.4; vivo Y28L Build/KTU84P) AppleWebKit/537.36 (KHTML, like Gecko) Version/4.0 Chrome/37.0.0.0 Mobile MQQBrowser/6.8 TBS/036824 Safari/537.36 MicroMessenger/6.3.25.861 NetType/WIFI Language/zh_CN'
p988
sg16
S'397657f3542c228109be4c54a11ea808'
p989
sa(dp990
g2
S'48009'
p991
sg4
S'6555'
p992
sg6
S'645c5de0eb8626c7f0c31a1d46f8c920'
p993
sg8
S'xx2356956ad819d4add9d2e25344da8089'
p994
sg10
S'xx700145cd832008e8a1ae43a77355805f'
p995
sg12
S'xx9ded28799f5bf63f6f9e4d7b36edeec3'
p996
sg14
S'Mozilla/5.0 (Linux; Android 4.4.4; vivo Y28L Build/KTU84P) AppleWebKit/537.36 (KHTML, like Gecko) Version/4.0 Chrome/37.0.0.0 Mobile MQQBrowser/6.8 TBS/036824 Safari/537.36 MicroMessenger/6.3.25.861 NetType/WIFI Language/zh_CN'
p997
sg16
S'397657f3542c228109be4c54a11ea808'
p998
sa(dp999
g2
S'48009'
p1000
sg4
S'6588'
p1001
sg6
S'645c5de0eb8626c7f0c31a1d46f8c920'
p1002
sg8
S'xx2356956ad819d4add9d2e25344da8089'
p1003
sg10
S'xx700145cd832008e8a1ae43a77355805f'
p1004
sg12
S'xx9ded28799f5bf63f6f9e4d7b36edeec3'
p1005
sg14
S'Mozilla/5.0 (Linux; Android 4.4.4; vivo Y28L Build/KTU84P) AppleWebKit/537.36 (KHTML, like Gecko) Version/4.0 Chrome/37.0.0.0 Mobile MQQBrowser/6.8 TBS/036824 Safari/537.36 MicroMessenger/6.3.25.861 NetType/WIFI Language/zh_CN'
p1006
sg16
S'397657f3542c228109be4c54a11ea808'
p1007
sa(dp1008
g2
S'48009'
p1009
sg4
S'7103'
p1010
sg6
S'645c5de0eb8626c7f0c31a1d46f8c920'
p1011
sg8
S'xx2356956ad819d4add9d2e25344da8089'
p1012
sg10
S'xx700145cd832008e8a1ae43a77355805f'
p1013
sg12
S'xx9ded28799f5bf63f6f9e4d7b36edeec3'
p1014
sg14
S'Mozilla/5.0 (Linux; Android 4.4.4; vivo Y28L Build/KTU84P) AppleWebKit/537.36 (KHTML, like Gecko) Version/4.0 Chrome/37.0.0.0 Mobile MQQBrowser/6.8 TBS/036824 Safari/537.36 MicroMessenger/6.3.25.861 NetType/WIFI Language/zh_CN'
p1015
sg16
S'397657f3542c228109be4c54a11ea808'
p1016
sa(dp1017
g2
S'48009'
p1018
sg4
S'7121'
p1019
sg6
S'645c5de0eb8626c7f0c31a1d46f8c920'
p1020
sg8
S'xx2356956ad819d4add9d2e25344da8089'
p1021
sg10
S'xx700145cd832008e8a1ae43a77355805f'
p1022
sg12
S'xx9ded28799f5bf63f6f9e4d7b36edeec3'
p1023
sg14
S'Mozilla/5.0 (Linux; Android 4.4.4; vivo Y28L Build/KTU84P) AppleWebKit/537.36 (KHTML, like Gecko) Version/4.0 Chrome/37.0.0.0 Mobile MQQBrowser/6.8 TBS/036824 Safari/537.36 MicroMessenger/6.3.25.861 NetType/WIFI Language/zh_CN'
p1024
sg16
S'397657f3542c228109be4c54a11ea808'
p1025
sa(dp1026
g2
S'48009'
p1027
sg4
S'7170'
p1028
sg6
S'645c5de0eb8626c7f0c31a1d46f8c920'
p1029
sg8
S'xx2356956ad819d4add9d2e25344da8089'
p1030
sg10
S'xx700145cd832008e8a1ae43a77355805f'
p1031
sg12
S'xx9ded28799f5bf63f6f9e4d7b36edeec3'
p1032
sg14
S'Mozilla/5.0 (Linux; Android 4.4.4; vivo Y28L Build/KTU84P) AppleWebKit/537.36 (KHTML, like Gecko) Version/4.0 Chrome/37.0.0.0 Mobile MQQBrowser/6.8 TBS/036824 Safari/537.36 MicroMessenger/6.3.25.861 NetType/WIFI Language/zh_CN'
p1033
sg16
S'397657f3542c228109be4c54a11ea808'
p1034
sa(dp1035
g2
S'48009'
p1036
sg4
S'7186'
p1037
sg6
S'645c5de0eb8626c7f0c31a1d46f8c920'
p1038
sg8
S'xx2356956ad819d4add9d2e25344da8089'
p1039
sg10
S'xx700145cd832008e8a1ae43a77355805f'
p1040
sg12
S'xx9ded28799f5bf63f6f9e4d7b36edeec3'
p1041
sg14
S'Mozilla/5.0 (Linux; Android 4.4.4; vivo Y28L Build/KTU84P) AppleWebKit/537.36 (KHTML, like Gecko) Version/4.0 Chrome/37.0.0.0 Mobile MQQBrowser/6.8 TBS/036824 Safari/537.36 MicroMessenger/6.3.25.861 NetType/WIFI Language/zh_CN'
p1042
sg16
S'397657f3542c228109be4c54a11ea808'
p1043
sa(dp1044
g2
S'48009'
p1045
sg4
S'7403'
p1046
sg6
S'645c5de0eb8626c7f0c31a1d46f8c920'
p1047
sg8
S'xx2356956ad819d4add9d2e25344da8089'
p1048
sg10
S'xx700145cd832008e8a1ae43a77355805f'
p1049
sg12
S'xx9ded28799f5bf63f6f9e4d7b36edeec3'
p1050
sg14
S'Mozilla/5.0 (Linux; Android 4.4.4; vivo Y28L Build/KTU84P) AppleWebKit/537.36 (KHTML, like Gecko) Version/4.0 Chrome/37.0.0.0 Mobile MQQBrowser/6.8 TBS/036824 Safari/537.36 MicroMessenger/6.3.25.861 NetType/WIFI Language/zh_CN'
p1051
sg16
S'397657f3542c228109be4c54a11ea808'
p1052
sa(dp1053
g2
S'48009'
p1054
sg4
S'7418'
p1055
sg6
S'645c5de0eb8626c7f0c31a1d46f8c920'
p1056
sg8
S'xx2356956ad819d4add9d2e25344da8089'
p1057
sg10
S'xx700145cd832008e8a1ae43a77355805f'
p1058
sg12
S'xx9ded28799f5bf63f6f9e4d7b36edeec3'
p1059
sg14
S'Mozilla/5.0 (Linux; Android 4.4.4; vivo Y28L Build/KTU84P) AppleWebKit/537.36 (KHTML, like Gecko) Version/4.0 Chrome/37.0.0.0 Mobile MQQBrowser/6.8 TBS/036824 Safari/537.36 MicroMessenger/6.3.25.861 NetType/WIFI Language/zh_CN'
p1060
sg16
S'397657f3542c228109be4c54a11ea808'
p1061
sa(dp1062
g2
S'48009'
p1063
sg4
S'7457'
p1064
sg6
S'645c5de0eb8626c7f0c31a1d46f8c920'
p1065
sg8
S'xx2356956ad819d4add9d2e25344da8089'
p1066
sg10
S'xx700145cd832008e8a1ae43a77355805f'
p1067
sg12
S'xx9ded28799f5bf63f6f9e4d7b36edeec3'
p1068
sg14
S'Mozilla/5.0 (Linux; Android 4.4.4; vivo Y28L Build/KTU84P) AppleWebKit/537.36 (KHTML, like Gecko) Version/4.0 Chrome/37.0.0.0 Mobile MQQBrowser/6.8 TBS/036824 Safari/537.36 MicroMessenger/6.3.25.861 NetType/WIFI Language/zh_CN'
p1069
sg16
S'397657f3542c228109be4c54a11ea808'
p1070
sa(dp1071
g2
S'48009'
p1072
sg4
S'7470'
p1073
sg6
S'645c5de0eb8626c7f0c31a1d46f8c920'
p1074
sg8
S'xx2356956ad819d4add9d2e25344da8089'
p1075
sg10
S'xx700145cd832008e8a1ae43a77355805f'
p1076
sg12
S'xx9ded28799f5bf63f6f9e4d7b36edeec3'
p1077
sg14
S'Mozilla/5.0 (Linux; Android 4.4.4; vivo Y28L Build/KTU84P) AppleWebKit/537.36 (KHTML, like Gecko) Version/4.0 Chrome/37.0.0.0 Mobile MQQBrowser/6.8 TBS/036824 Safari/537.36 MicroMessenger/6.3.25.861 NetType/WIFI Language/zh_CN'
p1078
sg16
S'397657f3542c228109be4c54a11ea808'
p1079
sa(dp1080
g2
S'48009'
p1081
sg4
S'7495'
p1082
sg6
S'645c5de0eb8626c7f0c31a1d46f8c920'
p1083
sg8
S'xx2356956ad819d4add9d2e25344da8089'
p1084
sg10
S'xx700145cd832008e8a1ae43a77355805f'
p1085
sg12
S'xx9ded28799f5bf63f6f9e4d7b36edeec3'
p1086
sg14
S'Mozilla/5.0 (Linux; Android 4.4.4; vivo Y28L Build/KTU84P) AppleWebKit/537.36 (KHTML, like Gecko) Version/4.0 Chrome/37.0.0.0 Mobile MQQBrowser/6.8 TBS/036824 Safari/537.36 MicroMessenger/6.3.25.861 NetType/WIFI Language/zh_CN'
p1087
sg16
S'397657f3542c228109be4c54a11ea808'
p1088
sa(dp1089
g2
S'48009'
p1090
sg4
S'7507'
p1091
sg6
S'645c5de0eb8626c7f0c31a1d46f8c920'
p1092
sg8
S'xx2356956ad819d4add9d2e25344da8089'
p1093
sg10
S'xx700145cd832008e8a1ae43a77355805f'
p1094
sg12
S'xx9ded28799f5bf63f6f9e4d7b36edeec3'
p1095
sg14
S'Mozilla/5.0 (Linux; Android 4.4.4; vivo Y28L Build/KTU84P) AppleWebKit/537.36 (KHTML, like Gecko) Version/4.0 Chrome/37.0.0.0 Mobile MQQBrowser/6.8 TBS/036824 Safari/537.36 MicroMessenger/6.3.25.861 NetType/WIFI Language/zh_CN'
p1096
sg16
S'397657f3542c228109be4c54a11ea808'
p1097
sa(dp1098
g2
S'48009'
p1099
sg4
S'7511'
p1100
sg6
S'645c5de0eb8626c7f0c31a1d46f8c920'
p1101
sg8
S'xx2356956ad819d4add9d2e25344da8089'
p1102
sg10
S'xx700145cd832008e8a1ae43a77355805f'
p1103
sg12
S'xx9ded28799f5bf63f6f9e4d7b36edeec3'
p1104
sg14
S'Mozilla/5.0 (Linux; Android 4.4.4; vivo Y28L Build/KTU84P) AppleWebKit/537.36 (KHTML, like Gecko) Version/4.0 Chrome/37.0.0.0 Mobile MQQBrowser/6.8 TBS/036824 Safari/537.36 MicroMessenger/6.3.25.861 NetType/WIFI Language/zh_CN'
p1105
sg16
S'397657f3542c228109be4c54a11ea808'
p1106
sa(dp1107
g2
S'48009'
p1108
sg4
S'7526'
p1109
sg6
S'645c5de0eb8626c7f0c31a1d46f8c920'
p1110
sg8
S'xx2356956ad819d4add9d2e25344da8089'
p1111
sg10
S'xx700145cd832008e8a1ae43a77355805f'
p1112
sg12
S'xx9ded28799f5bf63f6f9e4d7b36edeec3'
p1113
sg14
S'Mozilla/5.0 (Linux; Android 4.4.4; vivo Y28L Build/KTU84P) AppleWebKit/537.36 (KHTML, like Gecko) Version/4.0 Chrome/37.0.0.0 Mobile MQQBrowser/6.8 TBS/036824 Safari/537.36 MicroMessenger/6.3.25.861 NetType/WIFI Language/zh_CN'
p1114
sg16
S'397657f3542c228109be4c54a11ea808'
p1115
sa(dp1116
g2
S'48009'
p1117
sg4
S'7540'
p1118
sg6
S'645c5de0eb8626c7f0c31a1d46f8c920'
p1119
sg8
S'xx2356956ad819d4add9d2e25344da8089'
p1120
sg10
S'xx700145cd832008e8a1ae43a77355805f'
p1121
sg12
S'xx9ded28799f5bf63f6f9e4d7b36edeec3'
p1122
sg14
S'Mozilla/5.0 (Linux; Android 4.4.4; vivo Y28L Build/KTU84P) AppleWebKit/537.36 (KHTML, like Gecko) Version/4.0 Chrome/37.0.0.0 Mobile MQQBrowser/6.8 TBS/036824 Safari/537.36 MicroMessenger/6.3.25.861 NetType/WIFI Language/zh_CN'
p1123
sg16
S'397657f3542c228109be4c54a11ea808'
p1124
sa(dp1125
g2
S'48009'
p1126
sg4
S'7618'
p1127
sg6
S'645c5de0eb8626c7f0c31a1d46f8c920'
p1128
sg8
S'xx2356956ad819d4add9d2e25344da8089'
p1129
sg10
S'xx700145cd832008e8a1ae43a77355805f'
p1130
sg12
S'xx9ded28799f5bf63f6f9e4d7b36edeec3'
p1131
sg14
S'Mozilla/5.0 (Linux; Android 4.4.4; vivo Y28L Build/KTU84P) AppleWebKit/537.36 (KHTML, like Gecko) Version/4.0 Chrome/37.0.0.0 Mobile MQQBrowser/6.8 TBS/036824 Safari/537.36 MicroMessenger/6.3.25.861 NetType/WIFI Language/zh_CN'
p1132
sg16
S'397657f3542c228109be4c54a11ea808'
p1133
sa(dp1134
g2
S'48009'
p1135
sg4
S'7631'
p1136
sg6
S'645c5de0eb8626c7f0c31a1d46f8c920'
p1137
sg8
S'xx2356956ad819d4add9d2e25344da8089'
p1138
sg10
S'xx700145cd832008e8a1ae43a77355805f'
p1139
sg12
S'xx9ded28799f5bf63f6f9e4d7b36edeec3'
p1140
sg14
S'Mozilla/5.0 (Linux; Android 4.4.4; vivo Y28L Build/KTU84P) AppleWebKit/537.36 (KHTML, like Gecko) Version/4.0 Chrome/37.0.0.0 Mobile MQQBrowser/6.8 TBS/036824 Safari/537.36 MicroMessenger/6.3.25.861 NetType/WIFI Language/zh_CN'
p1141
sg16
S'397657f3542c228109be4c54a11ea808'
p1142
sa(dp1143
g2
S'48009'
p1144
sg4
S'7654'
p1145
sg6
S'645c5de0eb8626c7f0c31a1d46f8c920'
p1146
sg8
S'xx2356956ad819d4add9d2e25344da8089'
p1147
sg10
S'xx700145cd832008e8a1ae43a77355805f'
p1148
sg12
S'xx9ded28799f5bf63f6f9e4d7b36edeec3'
p1149
sg14
S'Mozilla/5.0 (Linux; Android 4.4.4; vivo Y28L Build/KTU84P) AppleWebKit/537.36 (KHTML, like Gecko) Version/4.0 Chrome/37.0.0.0 Mobile MQQBrowser/6.8 TBS/036824 Safari/537.36 MicroMessenger/6.3.25.861 NetType/WIFI Language/zh_CN'
p1150
sg16
S'397657f3542c228109be4c54a11ea808'
p1151
sa(dp1152
g2
S'48009'
p1153
sg4
S'7679'
p1154
sg6
S'645c5de0eb8626c7f0c31a1d46f8c920'
p1155
sg8
S'xx2356956ad819d4add9d2e25344da8089'
p1156
sg10
S'xx700145cd832008e8a1ae43a77355805f'
p1157
sg12
S'xx9ded28799f5bf63f6f9e4d7b36edeec3'
p1158
sg14
S'Mozilla/5.0 (Linux; Android 4.4.4; vivo Y28L Build/KTU84P) AppleWebKit/537.36 (KHTML, like Gecko) Version/4.0 Chrome/37.0.0.0 Mobile MQQBrowser/6.8 TBS/036824 Safari/537.36 MicroMessenger/6.3.25.861 NetType/WIFI Language/zh_CN'
p1159
sg16
S'397657f3542c228109be4c54a11ea808'
p1160
sa(dp1161
g2
S'48009'
p1162
sg4
S'7693'
p1163
sg6
S'645c5de0eb8626c7f0c31a1d46f8c920'
p1164
sg8
S'xx2356956ad819d4add9d2e25344da8089'
p1165
sg10
S'xx700145cd832008e8a1ae43a77355805f'
p1166
sg12
S'xx9ded28799f5bf63f6f9e4d7b36edeec3'
p1167
sg14
S'Mozilla/5.0 (Linux; Android 4.4.4; vivo Y28L Build/KTU84P) AppleWebKit/537.36 (KHTML, like Gecko) Version/4.0 Chrome/37.0.0.0 Mobile MQQBrowser/6.8 TBS/036824 Safari/537.36 MicroMessenger/6.3.25.861 NetType/WIFI Language/zh_CN'
p1168
sg16
S'397657f3542c228109be4c54a11ea808'
p1169
sa(dp1170
g2
S'48009'
p1171
sg4
S'7712'
p1172
sg6
S'645c5de0eb8626c7f0c31a1d46f8c920'
p1173
sg8
S'xx2356956ad819d4add9d2e25344da8089'
p1174
sg10
S'xx700145cd832008e8a1ae43a77355805f'
p1175
sg12
S'xx9ded28799f5bf63f6f9e4d7b36edeec3'
p1176
sg14
S'Mozilla/5.0 (Linux; Android 4.4.4; vivo Y28L Build/KTU84P) AppleWebKit/537.36 (KHTML, like Gecko) Version/4.0 Chrome/37.0.0.0 Mobile MQQBrowser/6.8 TBS/036824 Safari/537.36 MicroMessenger/6.3.25.861 NetType/WIFI Language/zh_CN'
p1177
sg16
S'397657f3542c228109be4c54a11ea808'
p1178
sa(dp1179
g2
S'48009'
p1180
sg4
S'7951'
p1181
sg6
S'645c5de0eb8626c7f0c31a1d46f8c920'
p1182
sg8
S'xx2356956ad819d4add9d2e25344da8089'
p1183
sg10
S'xx700145cd832008e8a1ae43a77355805f'
p1184
sg12
S'xx9ded28799f5bf63f6f9e4d7b36edeec3'
p1185
sg14
S'Mozilla/5.0 (Linux; Android 4.4.4; vivo Y28L Build/KTU84P) AppleWebKit/537.36 (KHTML, like Gecko) Version/4.0 Chrome/37.0.0.0 Mobile MQQBrowser/6.8 TBS/036824 Safari/537.36 MicroMessenger/6.3.25.861 NetType/WIFI Language/zh_CN'
p1186
sg16
S'397657f3542c228109be4c54a11ea808'
p1187
sa(dp1188
g2
S'48009'
p1189
sg4
S'7972'
p1190
sg6
S'645c5de0eb8626c7f0c31a1d46f8c920'
p1191
sg8
S'xx2356956ad819d4add9d2e25344da8089'
p1192
sg10
S'xx700145cd832008e8a1ae43a77355805f'
p1193
sg12
S'xx9ded28799f5bf63f6f9e4d7b36edeec3'
p1194
sg14
S'Mozilla/5.0 (Linux; Android 4.4.4; vivo Y28L Build/KTU84P) AppleWebKit/537.36 (KHTML, like Gecko) Version/4.0 Chrome/37.0.0.0 Mobile MQQBrowser/6.8 TBS/036824 Safari/537.36 MicroMessenger/6.3.25.861 NetType/WIFI Language/zh_CN'
p1195
sg16
S'397657f3542c228109be4c54a11ea808'
p1196
sa(dp1197
g2
S'48009'
p1198
sg4
S'7986'
p1199
sg6
S'645c5de0eb8626c7f0c31a1d46f8c920'
p1200
sg8
S'xx2356956ad819d4add9d2e25344da8089'
p1201
sg10
S'xx700145cd832008e8a1ae43a77355805f'
p1202
sg12
S'xx9ded28799f5bf63f6f9e4d7b36edeec3'
p1203
sg14
S'Mozilla/5.0 (Linux; Android 4.4.4; vivo Y28L Build/KTU84P) AppleWebKit/537.36 (KHTML, like Gecko) Version/4.0 Chrome/37.0.0.0 Mobile MQQBrowser/6.8 TBS/036824 Safari/537.36 MicroMessenger/6.3.25.861 NetType/WIFI Language/zh_CN'
p1204
sg16
S'397657f3542c228109be4c54a11ea808'
p1205
sa(dp1206
g2
S'48009'
p1207
sg4
S'8008'
p1208
sg6
S'645c5de0eb8626c7f0c31a1d46f8c920'
p1209
sg8
S'xx2356956ad819d4add9d2e25344da8089'
p1210
sg10
S'xx700145cd832008e8a1ae43a77355805f'
p1211
sg12
S'xx9ded28799f5bf63f6f9e4d7b36edeec3'
p1212
sg14
S'Mozilla/5.0 (Linux; Android 4.4.4; vivo Y28L Build/KTU84P) AppleWebKit/537.36 (KHTML, like Gecko) Version/4.0 Chrome/37.0.0.0 Mobile MQQBrowser/6.8 TBS/036824 Safari/537.36 MicroMessenger/6.3.25.861 NetType/WIFI Language/zh_CN'
p1213
sg16
S'397657f3542c228109be4c54a11ea808'
p1214
sa(dp1215
g2
S'48009'
p1216
sg4
S'8027'
p1217
sg6
S'645c5de0eb8626c7f0c31a1d46f8c920'
p1218
sg8
S'xx2356956ad819d4add9d2e25344da8089'
p1219
sg10
S'xx700145cd832008e8a1ae43a77355805f'
p1220
sg12
S'xx9ded28799f5bf63f6f9e4d7b36edeec3'
p1221
sg14
S'Mozilla/5.0 (Linux; Android 4.4.4; vivo Y28L Build/KTU84P) AppleWebKit/537.36 (KHTML, like Gecko) Version/4.0 Chrome/37.0.0.0 Mobile MQQBrowser/6.8 TBS/036824 Safari/537.36 MicroMessenger/6.3.25.861 NetType/WIFI Language/zh_CN'
p1222
sg16
S'397657f3542c228109be4c54a11ea808'
p1223
sa(dp1224
g2
S'48009'
p1225
sg4
S'8075'
p1226
sg6
S'645c5de0eb8626c7f0c31a1d46f8c920'
p1227
sg8
S'xx2356956ad819d4add9d2e25344da8089'
p1228
sg10
S'xx700145cd832008e8a1ae43a77355805f'
p1229
sg12
S'xx9ded28799f5bf63f6f9e4d7b36edeec3'
p1230
sg14
S'Mozilla/5.0 (Linux; Android 4.4.4; vivo Y28L Build/KTU84P) AppleWebKit/537.36 (KHTML, like Gecko) Version/4.0 Chrome/37.0.0.0 Mobile MQQBrowser/6.8 TBS/036824 Safari/537.36 MicroMessenger/6.3.25.861 NetType/WIFI Language/zh_CN'
p1231
sg16
S'397657f3542c228109be4c54a11ea808'
p1232
sa(dp1233
g2
S'48009'
p1234
sg4
S'8091'
p1235
sg6
S'645c5de0eb8626c7f0c31a1d46f8c920'
p1236
sg8
S'xx2356956ad819d4add9d2e25344da8089'
p1237
sg10
S'xx700145cd832008e8a1ae43a77355805f'
p1238
sg12
S'xx9ded28799f5bf63f6f9e4d7b36edeec3'
p1239
sg14
S'Mozilla/5.0 (Linux; Android 4.4.4; vivo Y28L Build/KTU84P) AppleWebKit/537.36 (KHTML, like Gecko) Version/4.0 Chrome/37.0.0.0 Mobile MQQBrowser/6.8 TBS/036824 Safari/537.36 MicroMessenger/6.3.25.861 NetType/WIFI Language/zh_CN'
p1240
sg16
S'397657f3542c228109be4c54a11ea808'
p1241
sa(dp1242
g2
S'48009'
p1243
sg4
S'8100'
p1244
sg6
S'645c5de0eb8626c7f0c31a1d46f8c920'
p1245
sg8
S'xx2356956ad819d4add9d2e25344da8089'
p1246
sg10
S'xx700145cd832008e8a1ae43a77355805f'
p1247
sg12
S'xx9ded28799f5bf63f6f9e4d7b36edeec3'
p1248
sg14
S'Mozilla/5.0 (Linux; Android 4.4.4; vivo Y28L Build/KTU84P) AppleWebKit/537.36 (KHTML, like Gecko) Version/4.0 Chrome/37.0.0.0 Mobile MQQBrowser/6.8 TBS/036824 Safari/537.36 MicroMessenger/6.3.25.861 NetType/WIFI Language/zh_CN'
p1249
sg16
S'397657f3542c228109be4c54a11ea808'
p1250
sa(dp1251
g2
S'48009'
p1252
sg4
S'8135'
p1253
sg6
S'645c5de0eb8626c7f0c31a1d46f8c920'
p1254
sg8
S'xx2356956ad819d4add9d2e25344da8089'
p1255
sg10
S'xx700145cd832008e8a1ae43a77355805f'
p1256
sg12
S'xx9ded28799f5bf63f6f9e4d7b36edeec3'
p1257
sg14
S'Mozilla/5.0 (Linux; Android 4.4.4; vivo Y28L Build/KTU84P) AppleWebKit/537.36 (KHTML, like Gecko) Version/4.0 Chrome/37.0.0.0 Mobile MQQBrowser/6.8 TBS/036824 Safari/537.36 MicroMessenger/6.3.25.861 NetType/WIFI Language/zh_CN'
p1258
sg16
S'397657f3542c228109be4c54a11ea808'
p1259
sa(dp1260
g2
S'48009'
p1261
sg4
S'8147'
p1262
sg6
S'645c5de0eb8626c7f0c31a1d46f8c920'
p1263
sg8
S'xx2356956ad819d4add9d2e25344da8089'
p1264
sg10
S'xx700145cd832008e8a1ae43a77355805f'
p1265
sg12
S'xx9ded28799f5bf63f6f9e4d7b36edeec3'
p1266
sg14
S'Mozilla/5.0 (Linux; Android 4.4.4; vivo Y28L Build/KTU84P) AppleWebKit/537.36 (KHTML, like Gecko) Version/4.0 Chrome/37.0.0.0 Mobile MQQBrowser/6.8 TBS/036824 Safari/537.36 MicroMessenger/6.3.25.861 NetType/WIFI Language/zh_CN'
p1267
sg16
S'397657f3542c228109be4c54a11ea808'
p1268
sa(dp1269
g2
S'48009'
p1270
sg4
S'8153'
p1271
sg6
S'645c5de0eb8626c7f0c31a1d46f8c920'
p1272
sg8
S'xx2356956ad819d4add9d2e25344da8089'
p1273
sg10
S'xx700145cd832008e8a1ae43a77355805f'
p1274
sg12
S'xx9ded28799f5bf63f6f9e4d7b36edeec3'
p1275
sg14
S'Mozilla/5.0 (Linux; Android 4.4.4; vivo Y28L Build/KTU84P) AppleWebKit/537.36 (KHTML, like Gecko) Version/4.0 Chrome/37.0.0.0 Mobile MQQBrowser/6.8 TBS/036824 Safari/537.36 MicroMessenger/6.3.25.861 NetType/WIFI Language/zh_CN'
p1276
sg16
S'397657f3542c228109be4c54a11ea808'
p1277
sa(dp1278
g2
S'48009'
p1279
sg4
S'8164'
p1280
sg6
S'645c5de0eb8626c7f0c31a1d46f8c920'
p1281
sg8
S'xx2356956ad819d4add9d2e25344da8089'
p1282
sg10
S'xx700145cd832008e8a1ae43a77355805f'
p1283
sg12
S'xx9ded28799f5bf63f6f9e4d7b36edeec3'
p1284
sg14
S'Mozilla/5.0 (Linux; Android 4.4.4; vivo Y28L Build/KTU84P) AppleWebKit/537.36 (KHTML, like Gecko) Version/4.0 Chrome/37.0.0.0 Mobile MQQBrowser/6.8 TBS/036824 Safari/537.36 MicroMessenger/6.3.25.861 NetType/WIFI Language/zh_CN'
p1285
sg16
S'397657f3542c228109be4c54a11ea808'
p1286
sa(dp1287
g2
S'48009'
p1288
sg4
S'8208'
p1289
sg6
S'645c5de0eb8626c7f0c31a1d46f8c920'
p1290
sg8
S'xx2356956ad819d4add9d2e25344da8089'
p1291
sg10
S'xx700145cd832008e8a1ae43a77355805f'
p1292
sg12
S'xx9ded28799f5bf63f6f9e4d7b36edeec3'
p1293
sg14
S'Mozilla/5.0 (Linux; Android 4.4.4; vivo Y28L Build/KTU84P) AppleWebKit/537.36 (KHTML, like Gecko) Version/4.0 Chrome/37.0.0.0 Mobile MQQBrowser/6.8 TBS/036824 Safari/537.36 MicroMessenger/6.3.25.861 NetType/WIFI Language/zh_CN'
p1294
sg16
S'397657f3542c228109be4c54a11ea808'
p1295
sa(dp1296
g2
S'48009'
p1297
sg4
S'8216'
p1298
sg6
S'645c5de0eb8626c7f0c31a1d46f8c920'
p1299
sg8
S'xx2356956ad819d4add9d2e25344da8089'
p1300
sg10
S'xx700145cd832008e8a1ae43a77355805f'
p1301
sg12
S'xx9ded28799f5bf63f6f9e4d7b36edeec3'
p1302
sg14
S'Mozilla/5.0 (Linux; Android 4.4.4; vivo Y28L Build/KTU84P) AppleWebKit/537.36 (KHTML, like Gecko) Version/4.0 Chrome/37.0.0.0 Mobile MQQBrowser/6.8 TBS/036824 Safari/537.36 MicroMessenger/6.3.25.861 NetType/WIFI Language/zh_CN'
p1303
sg16
S'397657f3542c228109be4c54a11ea808'
p1304
sa(dp1305
g2
S'48009'
p1306
sg4
S'8225'
p1307
sg6
S'645c5de0eb8626c7f0c31a1d46f8c920'
p1308
sg8
S'xx2356956ad819d4add9d2e25344da8089'
p1309
sg10
S'xx700145cd832008e8a1ae43a77355805f'
p1310
sg12
S'xx9ded28799f5bf63f6f9e4d7b36edeec3'
p1311
sg14
S'Mozilla/5.0 (Linux; Android 4.4.4; vivo Y28L Build/KTU84P) AppleWebKit/537.36 (KHTML, like Gecko) Version/4.0 Chrome/37.0.0.0 Mobile MQQBrowser/6.8 TBS/036824 Safari/537.36 MicroMessenger/6.3.25.861 NetType/WIFI Language/zh_CN'
p1312
sg16
S'397657f3542c228109be4c54a11ea808'
p1313
sa(dp1314
g2
S'48009'
p1315
sg4
S'8246'
p1316
sg6
S'645c5de0eb8626c7f0c31a1d46f8c920'
p1317
sg8
S'xx2356956ad819d4add9d2e25344da8089'
p1318
sg10
S'xx700145cd832008e8a1ae43a77355805f'
p1319
sg12
S'xx9ded28799f5bf63f6f9e4d7b36edeec3'
p1320
sg14
S'Mozilla/5.0 (Linux; Android 4.4.4; vivo Y28L Build/KTU84P) AppleWebKit/537.36 (KHTML, like Gecko) Version/4.0 Chrome/37.0.0.0 Mobile MQQBrowser/6.8 TBS/036824 Safari/537.36 MicroMessenger/6.3.25.861 NetType/WIFI Language/zh_CN'
p1321
sg16
S'397657f3542c228109be4c54a11ea808'
p1322
sa(dp1323
g2
S'48009'
p1324
sg4
S'8262'
p1325
sg6
S'645c5de0eb8626c7f0c31a1d46f8c920'
p1326
sg8
S'xx2356956ad819d4add9d2e25344da8089'
p1327
sg10
S'xx700145cd832008e8a1ae43a77355805f'
p1328
sg12
S'xx9ded28799f5bf63f6f9e4d7b36edeec3'
p1329
sg14
S'Mozilla/5.0 (Linux; Android 4.4.4; vivo Y28L Build/KTU84P) AppleWebKit/537.36 (KHTML, like Gecko) Version/4.0 Chrome/37.0.0.0 Mobile MQQBrowser/6.8 TBS/036824 Safari/537.36 MicroMessenger/6.3.25.861 NetType/WIFI Language/zh_CN'
p1330
sg16
S'397657f3542c228109be4c54a11ea808'
p1331
sa(dp1332
g2
S'48009'
p1333
sg4
S'8276'
p1334
sg6
S'645c5de0eb8626c7f0c31a1d46f8c920'
p1335
sg8
S'xx2356956ad819d4add9d2e25344da8089'
p1336
sg10
S'xx700145cd832008e8a1ae43a77355805f'
p1337
sg12
S'xx9ded28799f5bf63f6f9e4d7b36edeec3'
p1338
sg14
S'Mozilla/5.0 (Linux; Android 4.4.4; vivo Y28L Build/KTU84P) AppleWebKit/537.36 (KHTML, like Gecko) Version/4.0 Chrome/37.0.0.0 Mobile MQQBrowser/6.8 TBS/036824 Safari/537.36 MicroMessenger/6.3.25.861 NetType/WIFI Language/zh_CN'
p1339
sg16
S'397657f3542c228109be4c54a11ea808'
p1340
sa(dp1341
g2
S'48009'
p1342
sg4
S'8288'
p1343
sg6
S'645c5de0eb8626c7f0c31a1d46f8c920'
p1344
sg8
S'xx2356956ad819d4add9d2e25344da8089'
p1345
sg10
S'xx700145cd832008e8a1ae43a77355805f'
p1346
sg12
S'xx9ded28799f5bf63f6f9e4d7b36edeec3'
p1347
sg14
S'Mozilla/5.0 (Linux; Android 4.4.4; vivo Y28L Build/KTU84P) AppleWebKit/537.36 (KHTML, like Gecko) Version/4.0 Chrome/37.0.0.0 Mobile MQQBrowser/6.8 TBS/036824 Safari/537.36 MicroMessenger/6.3.25.861 NetType/WIFI Language/zh_CN'
p1348
sg16
S'397657f3542c228109be4c54a11ea808'
p1349
sa(dp1350
g2
S'48009'
p1351
sg4
S'8300'
p1352
sg6
S'645c5de0eb8626c7f0c31a1d46f8c920'
p1353
sg8
S'xx2356956ad819d4add9d2e25344da8089'
p1354
sg10
S'xx700145cd832008e8a1ae43a77355805f'
p1355
sg12
S'xx9ded28799f5bf63f6f9e4d7b36edeec3'
p1356
sg14
S'Mozilla/5.0 (Linux; Android 4.4.4; vivo Y28L Build/KTU84P) AppleWebKit/537.36 (KHTML, like Gecko) Version/4.0 Chrome/37.0.0.0 Mobile MQQBrowser/6.8 TBS/036824 Safari/537.36 MicroMessenger/6.3.25.861 NetType/WIFI Language/zh_CN'
p1357
sg16
S'397657f3542c228109be4c54a11ea808'
p1358
sa(dp1359
g2
S'48009'
p1360
sg4
S'8309'
p1361
sg6
S'645c5de0eb8626c7f0c31a1d46f8c920'
p1362
sg8
S'xx2356956ad819d4add9d2e25344da8089'
p1363
sg10
S'xx700145cd832008e8a1ae43a77355805f'
p1364
sg12
S'xx9ded28799f5bf63f6f9e4d7b36edeec3'
p1365
sg14
S'Mozilla/5.0 (Linux; Android 4.4.4; vivo Y28L Build/KTU84P) AppleWebKit/537.36 (KHTML, like Gecko) Version/4.0 Chrome/37.0.0.0 Mobile MQQBrowser/6.8 TBS/036824 Safari/537.36 MicroMessenger/6.3.25.861 NetType/WIFI Language/zh_CN'
p1366
sg16
S'397657f3542c228109be4c54a11ea808'
p1367
sa(dp1368
g2
S'48009'
p1369
sg4
S'8316'
p1370
sg6
S'645c5de0eb8626c7f0c31a1d46f8c920'
p1371
sg8
S'xx2356956ad819d4add9d2e25344da8089'
p1372
sg10
S'xx700145cd832008e8a1ae43a77355805f'
p1373
sg12
S'xx9ded28799f5bf63f6f9e4d7b36edeec3'
p1374
sg14
S'Mozilla/5.0 (Linux; Android 4.4.4; vivo Y28L Build/KTU84P) AppleWebKit/537.36 (KHTML, like Gecko) Version/4.0 Chrome/37.0.0.0 Mobile MQQBrowser/6.8 TBS/036824 Safari/537.36 MicroMessenger/6.3.25.861 NetType/WIFI Language/zh_CN'
p1375
sg16
S'397657f3542c228109be4c54a11ea808'
p1376
sa(dp1377
g2
S'48009'
p1378
sg4
S'8330'
p1379
sg6
S'645c5de0eb8626c7f0c31a1d46f8c920'
p1380
sg8
S'xx2356956ad819d4add9d2e25344da8089'
p1381
sg10
S'xx700145cd832008e8a1ae43a77355805f'
p1382
sg12
S'xx9ded28799f5bf63f6f9e4d7b36edeec3'
p1383
sg14
S'Mozilla/5.0 (Linux; Android 4.4.4; vivo Y28L Build/KTU84P) AppleWebKit/537.36 (KHTML, like Gecko) Version/4.0 Chrome/37.0.0.0 Mobile MQQBrowser/6.8 TBS/036824 Safari/537.36 MicroMessenger/6.3.25.861 NetType/WIFI Language/zh_CN'
p1384
sg16
S'397657f3542c228109be4c54a11ea808'
p1385
sa(dp1386
g2
S'48009'
p1387
sg4
S'8343'
p1388
sg6
S'645c5de0eb8626c7f0c31a1d46f8c920'
p1389
sg8
S'xx2356956ad819d4add9d2e25344da8089'
p1390
sg10
S'xx700145cd832008e8a1ae43a77355805f'
p1391
sg12
S'xx9ded28799f5bf63f6f9e4d7b36edeec3'
p1392
sg14
S'Mozilla/5.0 (Linux; Android 4.4.4; vivo Y28L Build/KTU84P) AppleWebKit/537.36 (KHTML, like Gecko) Version/4.0 Chrome/37.0.0.0 Mobile MQQBrowser/6.8 TBS/036824 Safari/537.36 MicroMessenger/6.3.25.861 NetType/WIFI Language/zh_CN'
p1393
sg16
S'397657f3542c228109be4c54a11ea808'
p1394
sa(dp1395
g2
S'48009'
p1396
sg4
S'8398'
p1397
sg6
S'645c5de0eb8626c7f0c31a1d46f8c920'
p1398
sg8
S'xx2356956ad819d4add9d2e25344da8089'
p1399
sg10
S'xx700145cd832008e8a1ae43a77355805f'
p1400
sg12
S'xx9ded28799f5bf63f6f9e4d7b36edeec3'
p1401
sg14
S'Mozilla/5.0 (Linux; Android 4.4.4; vivo Y28L Build/KTU84P) AppleWebKit/537.36 (KHTML, like Gecko) Version/4.0 Chrome/37.0.0.0 Mobile MQQBrowser/6.8 TBS/036824 Safari/537.36 MicroMessenger/6.3.25.861 NetType/WIFI Language/zh_CN'
p1402
sg16
S'397657f3542c228109be4c54a11ea808'
p1403
sa(dp1404
g2
S'48009'
p1405
sg4
S'8411'
p1406
sg6
S'645c5de0eb8626c7f0c31a1d46f8c920'
p1407
sg8
S'xx2356956ad819d4add9d2e25344da8089'
p1408
sg10
S'xx700145cd832008e8a1ae43a77355805f'
p1409
sg12
S'xx9ded28799f5bf63f6f9e4d7b36edeec3'
p1410
sg14
S'Mozilla/5.0 (Linux; Android 4.4.4; vivo Y28L Build/KTU84P) AppleWebKit/537.36 (KHTML, like Gecko) Version/4.0 Chrome/37.0.0.0 Mobile MQQBrowser/6.8 TBS/036824 Safari/537.36 MicroMessenger/6.3.25.861 NetType/WIFI Language/zh_CN'
p1411
sg16
S'397657f3542c228109be4c54a11ea808'
p1412
sa(dp1413
g2
S'48009'
p1414
sg4
S'8421'
p1415
sg6
S'645c5de0eb8626c7f0c31a1d46f8c920'
p1416
sg8
S'xx2356956ad819d4add9d2e25344da8089'
p1417
sg10
S'xx700145cd832008e8a1ae43a77355805f'
p1418
sg12
S'xx9ded28799f5bf63f6f9e4d7b36edeec3'
p1419
sg14
S'Mozilla/5.0 (Linux; Android 4.4.4; vivo Y28L Build/KTU84P) AppleWebKit/537.36 (KHTML, like Gecko) Version/4.0 Chrome/37.0.0.0 Mobile MQQBrowser/6.8 TBS/036824 Safari/537.36 MicroMessenger/6.3.25.861 NetType/WIFI Language/zh_CN'
p1420
sg16
S'397657f3542c228109be4c54a11ea808'
p1421
sa(dp1422
g2
S'48009'
p1423
sg4
S'8432'
p1424
sg6
S'645c5de0eb8626c7f0c31a1d46f8c920'
p1425
sg8
S'xx2356956ad819d4add9d2e25344da8089'
p1426
sg10
S'xx700145cd832008e8a1ae43a77355805f'
p1427
sg12
S'xx9ded28799f5bf63f6f9e4d7b36edeec3'
p1428
sg14
S'Mozilla/5.0 (Linux; Android 4.4.4; vivo Y28L Build/KTU84P) AppleWebKit/537.36 (KHTML, like Gecko) Version/4.0 Chrome/37.0.0.0 Mobile MQQBrowser/6.8 TBS/036824 Safari/537.36 MicroMessenger/6.3.25.861 NetType/WIFI Language/zh_CN'
p1429
sg16
S'397657f3542c228109be4c54a11ea808'
p1430
sa(dp1431
g2
S'48009'
p1432
sg4
S'8446'
p1433
sg6
S'645c5de0eb8626c7f0c31a1d46f8c920'
p1434
sg8
S'xx2356956ad819d4add9d2e25344da8089'
p1435
sg10
S'xx700145cd832008e8a1ae43a77355805f'
p1436
sg12
S'xx9ded28799f5bf63f6f9e4d7b36edeec3'
p1437
sg14
S'Mozilla/5.0 (Linux; Android 4.4.4; vivo Y28L Build/KTU84P) AppleWebKit/537.36 (KHTML, like Gecko) Version/4.0 Chrome/37.0.0.0 Mobile MQQBrowser/6.8 TBS/036824 Safari/537.36 MicroMessenger/6.3.25.861 NetType/WIFI Language/zh_CN'
p1438
sg16
S'397657f3542c228109be4c54a11ea808'
p1439
sa(dp1440
g2
S'48009'
p1441
sg4
S'8461'
p1442
sg6
S'645c5de0eb8626c7f0c31a1d46f8c920'
p1443
sg8
S'xx2356956ad819d4add9d2e25344da8089'
p1444
sg10
S'xx700145cd832008e8a1ae43a77355805f'
p1445
sg12
S'xx9ded28799f5bf63f6f9e4d7b36edeec3'
p1446
sg14
S'Mozilla/5.0 (Linux; Android 4.4.4; vivo Y28L Build/KTU84P) AppleWebKit/537.36 (KHTML, like Gecko) Version/4.0 Chrome/37.0.0.0 Mobile MQQBrowser/6.8 TBS/036824 Safari/537.36 MicroMessenger/6.3.25.861 NetType/WIFI Language/zh_CN'
p1447
sg16
S'397657f3542c228109be4c54a11ea808'
p1448
sa(dp1449
g2
S'48009'
p1450
sg4
S'8473'
p1451
sg6
S'645c5de0eb8626c7f0c31a1d46f8c920'
p1452
sg8
S'xx2356956ad819d4add9d2e25344da8089'
p1453
sg10
S'xx700145cd832008e8a1ae43a77355805f'
p1454
sg12
S'xx9ded28799f5bf63f6f9e4d7b36edeec3'
p1455
sg14
S'Mozilla/5.0 (Linux; Android 4.4.4; vivo Y28L Build/KTU84P) AppleWebKit/537.36 (KHTML, like Gecko) Version/4.0 Chrome/37.0.0.0 Mobile MQQBrowser/6.8 TBS/036824 Safari/537.36 MicroMessenger/6.3.25.861 NetType/WIFI Language/zh_CN'
p1456
sg16
S'397657f3542c228109be4c54a11ea808'
p1457
sa(dp1458
g2
S'48009'
p1459
sg4
S'8480'
p1460
sg6
S'645c5de0eb8626c7f0c31a1d46f8c920'
p1461
sg8
S'xx2356956ad819d4add9d2e25344da8089'
p1462
sg10
S'xx700145cd832008e8a1ae43a77355805f'
p1463
sg12
S'xx9ded28799f5bf63f6f9e4d7b36edeec3'
p1464
sg14
S'Mozilla/5.0 (Linux; Android 4.4.4; vivo Y28L Build/KTU84P) AppleWebKit/537.36 (KHTML, like Gecko) Version/4.0 Chrome/37.0.0.0 Mobile MQQBrowser/6.8 TBS/036824 Safari/537.36 MicroMessenger/6.3.25.861 NetType/WIFI Language/zh_CN'
p1465
sg16
S'397657f3542c228109be4c54a11ea808'
p1466
sa(dp1467
g2
S'48009'
p1468
sg4
S'8522'
p1469
sg6
S'645c5de0eb8626c7f0c31a1d46f8c920'
p1470
sg8
S'xx2356956ad819d4add9d2e25344da8089'
p1471
sg10
S'xx700145cd832008e8a1ae43a77355805f'
p1472
sg12
S'xx9ded28799f5bf63f6f9e4d7b36edeec3'
p1473
sg14
S'Mozilla/5.0 (Linux; Android 4.4.4; vivo Y28L Build/KTU84P) AppleWebKit/537.36 (KHTML, like Gecko) Version/4.0 Chrome/37.0.0.0 Mobile MQQBrowser/6.8 TBS/036824 Safari/537.36 MicroMessenger/6.3.25.861 NetType/WIFI Language/zh_CN'
p1474
sg16
S'397657f3542c228109be4c54a11ea808'
p1475
sa(dp1476
g2
S'48009'
p1477
sg4
S'8537'
p1478
sg6
S'645c5de0eb8626c7f0c31a1d46f8c920'
p1479
sg8
S'xx2356956ad819d4add9d2e25344da8089'
p1480
sg10
S'xx700145cd832008e8a1ae43a77355805f'
p1481
sg12
S'xx9ded28799f5bf63f6f9e4d7b36edeec3'
p1482
sg14
S'Mozilla/5.0 (Linux; Android 4.4.4; vivo Y28L Build/KTU84P) AppleWebKit/537.36 (KHTML, like Gecko) Version/4.0 Chrome/37.0.0.0 Mobile MQQBrowser/6.8 TBS/036824 Safari/537.36 MicroMessenger/6.3.25.861 NetType/WIFI Language/zh_CN'
p1483
sg16
S'397657f3542c228109be4c54a11ea808'
p1484
sa(dp1485
g2
S'48009'
p1486
sg4
S'8552'
p1487
sg6
S'645c5de0eb8626c7f0c31a1d46f8c920'
p1488
sg8
S'xx2356956ad819d4add9d2e25344da8089'
p1489
sg10
S'xx700145cd832008e8a1ae43a77355805f'
p1490
sg12
S'xx9ded28799f5bf63f6f9e4d7b36edeec3'
p1491
sg14
S'Mozilla/5.0 (Linux; Android 4.4.4; vivo Y28L Build/KTU84P) AppleWebKit/537.36 (KHTML, like Gecko) Version/4.0 Chrome/37.0.0.0 Mobile MQQBrowser/6.8 TBS/036824 Safari/537.36 MicroMessenger/6.3.25.861 NetType/WIFI Language/zh_CN'
p1492
sg16
S'397657f3542c228109be4c54a11ea808'
p1493
sa(dp1494
g2
S'48009'
p1495
sg4
S'8567'
p1496
sg6
S'645c5de0eb8626c7f0c31a1d46f8c920'
p1497
sg8
S'xx2356956ad819d4add9d2e25344da8089'
p1498
sg10
S'xx700145cd832008e8a1ae43a77355805f'
p1499
sg12
S'xx9ded28799f5bf63f6f9e4d7b36edeec3'
p1500
sg14
S'Mozilla/5.0 (Linux; Android 4.4.4; vivo Y28L Build/KTU84P) AppleWebKit/537.36 (KHTML, like Gecko) Version/4.0 Chrome/37.0.0.0 Mobile MQQBrowser/6.8 TBS/036824 Safari/537.36 MicroMessenger/6.3.25.861 NetType/WIFI Language/zh_CN'
p1501
sg16
S'397657f3542c228109be4c54a11ea808'
p1502
sa(dp1503
g2
S'48009'
p1504
sg4
S'8580'
p1505
sg6
S'645c5de0eb8626c7f0c31a1d46f8c920'
p1506
sg8
S'xx2356956ad819d4add9d2e25344da8089'
p1507
sg10
S'xx700145cd832008e8a1ae43a77355805f'
p1508
sg12
S'xx9ded28799f5bf63f6f9e4d7b36edeec3'
p1509
sg14
S'Mozilla/5.0 (Linux; Android 4.4.4; vivo Y28L Build/KTU84P) AppleWebKit/537.36 (KHTML, like Gecko) Version/4.0 Chrome/37.0.0.0 Mobile MQQBrowser/6.8 TBS/036824 Safari/537.36 MicroMessenger/6.3.25.861 NetType/WIFI Language/zh_CN'
p1510
sg16
S'397657f3542c228109be4c54a11ea808'
p1511
sa(dp1512
g2
S'48009'
p1513
sg4
S'8598'
p1514
sg6
S'645c5de0eb8626c7f0c31a1d46f8c920'
p1515
sg8
S'xx2356956ad819d4add9d2e25344da8089'
p1516
sg10
S'xx700145cd832008e8a1ae43a77355805f'
p1517
sg12
S'xx9ded28799f5bf63f6f9e4d7b36edeec3'
p1518
sg14
S'Mozilla/5.0 (Linux; Android 4.4.4; vivo Y28L Build/KTU84P) AppleWebKit/537.36 (KHTML, like Gecko) Version/4.0 Chrome/37.0.0.0 Mobile MQQBrowser/6.8 TBS/036824 Safari/537.36 MicroMessenger/6.3.25.861 NetType/WIFI Language/zh_CN'
p1519
sg16
S'397657f3542c228109be4c54a11ea808'
p1520
sa(dp1521
g2
S'48009'
p1522
sg4
S'8619'
p1523
sg6
S'645c5de0eb8626c7f0c31a1d46f8c920'
p1524
sg8
S'xx2356956ad819d4add9d2e25344da8089'
p1525
sg10
S'xx700145cd832008e8a1ae43a77355805f'
p1526
sg12
S'xx9ded28799f5bf63f6f9e4d7b36edeec3'
p1527
sg14
S'Mozilla/5.0 (Linux; Android 4.4.4; vivo Y28L Build/KTU84P) AppleWebKit/537.36 (KHTML, like Gecko) Version/4.0 Chrome/37.0.0.0 Mobile MQQBrowser/6.8 TBS/036824 Safari/537.36 MicroMessenger/6.3.25.861 NetType/WIFI Language/zh_CN'
p1528
sg16
S'397657f3542c228109be4c54a11ea808'
p1529
sa(dp1530
g2
S'48009'
p1531
sg4
S'8640'
p1532
sg6
S'645c5de0eb8626c7f0c31a1d46f8c920'
p1533
sg8
S'xx2356956ad819d4add9d2e25344da8089'
p1534
sg10
S'xx700145cd832008e8a1ae43a77355805f'
p1535
sg12
S'xx9ded28799f5bf63f6f9e4d7b36edeec3'
p1536
sg14
S'Mozilla/5.0 (Linux; Android 4.4.4; vivo Y28L Build/KTU84P) AppleWebKit/537.36 (KHTML, like Gecko) Version/4.0 Chrome/37.0.0.0 Mobile MQQBrowser/6.8 TBS/036824 Safari/537.36 MicroMessenger/6.3.25.861 NetType/WIFI Language/zh_CN'
p1537
sg16
S'397657f3542c228109be4c54a11ea808'
p1538
sa(dp1539
g2
S'48009'
p1540
sg4
S'8735'
p1541
sg6
S'645c5de0eb8626c7f0c31a1d46f8c920'
p1542
sg8
S'xx2356956ad819d4add9d2e25344da8089'
p1543
sg10
S'xx700145cd832008e8a1ae43a77355805f'
p1544
sg12
S'xx9ded28799f5bf63f6f9e4d7b36edeec3'
p1545
sg14
S'Mozilla/5.0 (Linux; Android 4.4.4; vivo Y28L Build/KTU84P) AppleWebKit/537.36 (KHTML, like Gecko) Version/4.0 Chrome/37.0.0.0 Mobile MQQBrowser/6.8 TBS/036824 Safari/537.36 MicroMessenger/6.3.25.861 NetType/WIFI Language/zh_CN'
p1546
sg16
S'397657f3542c228109be4c54a11ea808'
p1547
sa.