(lp0
(dp1
S'user_id'
p2
S'36520'
p3
sS'data_id'
p4
S'1765'
p5
sS'ip'
p6
S'031fa0c2a5151c69be2ddcd87198bd1f'
p7
sS'phone_B'
p8
S'xxbdfdc6def1f72996f7e8ea9dece4c2b6'
p9
sS'phone_C'
p10
S'xxf5e91a1c43c75a70c163f72442acc408'
p11
sS'phone_A'
p12
S'xx9d3db0e1c2910bc80902845979a698bd'
p13
sS'user_agent'
p14
S'Mozilla/5.0 (Linux; Android 5.1; HUAWEI RIO-UL00 Build/HUAWEIRIO-UL00) AppleWebKit/537.36 (KHTML, like Gecko) Version/4.0 Chrome/37.0.0.0 Mobile MQQBrowser/6.8 TBS/036849 Safari/537.36 MicroMessenger/6.3.27.880 NetType/WIFI Language/zh_CN'
p15
sS'ua'
p16
S'6390bf86475eaeb63fff27123270535e'
p17
sa(dp18
g2
S'36520'
p19
sg4
S'1785'
p20
sg6
S'031fa0c2a5151c69be2ddcd87198bd1f'
p21
sg8
S'xxbdfdc6def1f72996f7e8ea9dece4c2b6'
p22
sg10
S'xxf5e91a1c43c75a70c163f72442acc408'
p23
sg12
S'xx9d3db0e1c2910bc80902845979a698bd'
p24
sg14
S'Mozilla/5.0 (Linux; Android 5.1; HUAWEI RIO-UL00 Build/HUAWEIRIO-UL00) AppleWebKit/537.36 (KHTML, like Gecko) Version/4.0 Chrome/37.0.0.0 Mobile MQQBrowser/6.8 TBS/036849 Safari/537.36 MicroMessenger/6.3.27.880 NetType/WIFI Language/zh_CN'
p25
sg16
S'6390bf86475eaeb63fff27123270535e'
p26
sa(dp27
g2
S'36520'
p28
sg4
S'1803'
p29
sg6
S'031fa0c2a5151c69be2ddcd87198bd1f'
p30
sg8
S'xxbdfdc6def1f72996f7e8ea9dece4c2b6'
p31
sg10
S'xxf5e91a1c43c75a70c163f72442acc408'
p32
sg12
S'xx9d3db0e1c2910bc80902845979a698bd'
p33
sg14
S'Mozilla/5.0 (Linux; Android 5.1; HUAWEI RIO-UL00 Build/HUAWEIRIO-UL00) AppleWebKit/537.36 (KHTML, like Gecko) Version/4.0 Chrome/37.0.0.0 Mobile MQQBrowser/6.8 TBS/036849 Safari/537.36 MicroMessenger/6.3.27.880 NetType/WIFI Language/zh_CN'
p34
sg16
S'6390bf86475eaeb63fff27123270535e'
p35
sa(dp36
g2
S'36520'
p37
sg4
S'1813'
p38
sg6
S'031fa0c2a5151c69be2ddcd87198bd1f'
p39
sg8
S'xxbdfdc6def1f72996f7e8ea9dece4c2b6'
p40
sg10
S'xxf5e91a1c43c75a70c163f72442acc408'
p41
sg12
S'xx9d3db0e1c2910bc80902845979a698bd'
p42
sg14
S'Mozilla/5.0 (Linux; Android 5.1; HUAWEI RIO-UL00 Build/HUAWEIRIO-UL00) AppleWebKit/537.36 (KHTML, like Gecko) Version/4.0 Chrome/37.0.0.0 Mobile MQQBrowser/6.8 TBS/036849 Safari/537.36 MicroMessenger/6.3.27.880 NetType/WIFI Language/zh_CN'
p43
sg16
S'6390bf86475eaeb63fff27123270535e'
p44
sa(dp45
g2
S'49757'
p46
sg4
S'1913'
p47
sg6
S'293cd6897d2aa0b2e64e9914c4cb0447'
p48
sg8
S'xx87784410be89a539b7fa09c0cfe3e16a'
p49
sg10
S'xx01360b0d21a7251257ca464552de09e1'
p50
sg12
S'xx9d3db0e1c2910bc80902845979a698bd'
p51
sg14
S'Mozilla/5.0 (Linux; Android 6.0.1; HUAWEI RIO-UL00 Build/HUAWEIRIO-UL00) AppleWebKit/537.36 (KHTML, like Gecko) Version/4.0 Chrome/37.0.0.0 Mobile MQQBrowser/6.8 TBS/036861 Safari/537.36 MicroMessenger/6.3.27.880 NetType/WIFI Language/zh_CN'
p52
sg16
S'd45f3c98dbdc40ebd8bda5eb872384c9'
p53
sa(dp54
g2
S'49757'
p55
sg4
S'1937'
p56
sg6
S'293cd6897d2aa0b2e64e9914c4cb0447'
p57
sg8
S'xx87784410be89a539b7fa09c0cfe3e16a'
p58
sg10
S'xx01360b0d21a7251257ca464552de09e1'
p59
sg12
S'xx9d3db0e1c2910bc80902845979a698bd'
p60
sg14
S'Mozilla/5.0 (Linux; Android 6.0.1; HUAWEI RIO-UL00 Build/HUAWEIRIO-UL00) AppleWebKit/537.36 (KHTML, like Gecko) Version/4.0 Chrome/37.0.0.0 Mobile MQQBrowser/6.8 TBS/036861 Safari/537.36 MicroMessenger/6.3.27.880 NetType/WIFI Language/zh_CN'
p61
sg16
S'd45f3c98dbdc40ebd8bda5eb872384c9'
p62
sa(dp63
g2
S'49757'
p64
sg4
S'1961'
p65
sg6
S'293cd6897d2aa0b2e64e9914c4cb0447'
p66
sg8
S'xx87784410be89a539b7fa09c0cfe3e16a'
p67
sg10
S'xx01360b0d21a7251257ca464552de09e1'
p68
sg12
S'xx9d3db0e1c2910bc80902845979a698bd'
p69
sg14
S'Mozilla/5.0 (Linux; Android 6.0.1; HUAWEI RIO-UL00 Build/HUAWEIRIO-UL00) AppleWebKit/537.36 (KHTML, like Gecko) Version/4.0 Chrome/37.0.0.0 Mobile MQQBrowser/6.8 TBS/036861 Safari/537.36 MicroMessenger/6.3.27.880 NetType/WIFI Language/zh_CN'
p70
sg16
S'd45f3c98dbdc40ebd8bda5eb872384c9'
p71
sa.