(lp0
(dp1
S'user_id'
p2
S'44317'
p3
sS'data_id'
p4
S'3690'
p5
sS'ip'
p6
S'6d9be4f3deb5c49bc8d2d61f4a867a09'
p7
sS'phone_B'
p8
S'xx7c31750da9bb17b2c50a16b9f5d50a37'
p9
sS'phone_C'
p10
S'xxa1eddb067d69156b5a420a68e90e67cd'
p11
sS'phone_A'
p12
S'xxa0a94b472b8fdfca1bba875c605ec6cc'
p13
sS'user_agent'
p14
S'Mozilla/5.0 (Linux; Android 4.4.2; HM NOTE 1TD Build/KOT49H) AppleWebKit/537.36 (KHTML, like Gecko) Version/4.0 Chrome/37.0.0.0 Mobile MQQBrowser/6.8 TBS/036824 Safari/537.36 MicroMessenger/6.3.27.880 NetType/WIFI Language/zh_CN'
p15
sS'ua'
p16
S'71e701e64a3add3ef980cf7aa10691f2'
p17
sa(dp18
g2
S'44317'
p19
sg4
S'3707'
p20
sg6
S'6d9be4f3deb5c49bc8d2d61f4a867a09'
p21
sg8
S'xx7c31750da9bb17b2c50a16b9f5d50a37'
p22
sg10
S'xxa1eddb067d69156b5a420a68e90e67cd'
p23
sg12
S'xxa0a94b472b8fdfca1bba875c605ec6cc'
p24
sg14
S'Mozilla/5.0 (Linux; Android 4.4.2; HM NOTE 1TD Build/KOT49H) AppleWebKit/537.36 (KHTML, like Gecko) Version/4.0 Chrome/37.0.0.0 Mobile MQQBrowser/6.8 TBS/036824 Safari/537.36 MicroMessenger/6.3.27.880 NetType/WIFI Language/zh_CN'
p25
sg16
S'71e701e64a3add3ef980cf7aa10691f2'
p26
sa(dp27
g2
S'44317'
p28
sg4
S'3918'
p29
sg6
S'6d9be4f3deb5c49bc8d2d61f4a867a09'
p30
sg8
S'xx7c31750da9bb17b2c50a16b9f5d50a37'
p31
sg10
S'xxa1eddb067d69156b5a420a68e90e67cd'
p32
sg12
S'xxa0a94b472b8fdfca1bba875c605ec6cc'
p33
sg14
S'Mozilla/5.0 (Linux; Android 4.4.2; HM NOTE 1TD Build/KOT49H) AppleWebKit/537.36 (KHTML, like Gecko) Version/4.0 Chrome/37.0.0.0 Mobile MQQBrowser/6.8 TBS/036824 Safari/537.36 MicroMessenger/6.3.27.880 NetType/WIFI Language/zh_CN'
p34
sg16
S'71e701e64a3add3ef980cf7aa10691f2'
p35
sa(dp36
g2
S'44317'
p37
sg4
S'3940'
p38
sg6
S'6d9be4f3deb5c49bc8d2d61f4a867a09'
p39
sg8
S'xx7c31750da9bb17b2c50a16b9f5d50a37'
p40
sg10
S'xxa1eddb067d69156b5a420a68e90e67cd'
p41
sg12
S'xxa0a94b472b8fdfca1bba875c605ec6cc'
p42
sg14
S'Mozilla/5.0 (Linux; Android 4.4.2; HM NOTE 1TD Build/KOT49H) AppleWebKit/537.36 (KHTML, like Gecko) Version/4.0 Chrome/37.0.0.0 Mobile MQQBrowser/6.8 TBS/036824 Safari/537.36 MicroMessenger/6.3.27.880 NetType/WIFI Language/zh_CN'
p43
sg16
S'71e701e64a3add3ef980cf7aa10691f2'
p44
sa(dp45
g2
S'44317'
p46
sg4
S'4197'
p47
sg6
S'c8fee81dc424da99adc3c52a6bbe7e72'
p48
sg8
S'xxe084cb9648cbd1898ac98fd2bc0272c5'
p49
sg10
S'xxa1eddb067d69156b5a420a68e90e67cd'
p50
sg12
S'xxa0a94b472b8fdfca1bba875c605ec6cc'
p51
sg14
S'Mozilla/5.0 (Linux; Android 4.4.2; HM NOTE 1TD Build/KOT49H) AppleWebKit/537.36 (KHTML, like Gecko) Version/4.0 Chrome/37.0.0.0 Mobile MQQBrowser/6.8 TBS/036824 Safari/537.36 MicroMessenger/6.3.27.880 NetType/NON_NETWORK Language/zh_CN'
p52
sg16
S'8644b7743dbe9fd7794bb45f141972a3'
p53
sa(dp54
g2
S'44317'
p55
sg4
S'4528'
p56
sg6
S'51b58dc5f9f1e54906bd6575a7254f6d'
p57
sg8
S'xx7c31750da9bb17b2c50a16b9f5d50a37'
p58
sg10
S'xxa1eddb067d69156b5a420a68e90e67cd'
p59
sg12
S'xxa0a94b472b8fdfca1bba875c605ec6cc'
p60
sg14
S'Mozilla/5.0 (Linux; Android 4.4.2; HM NOTE 1TD Build/KOT49H) AppleWebKit/537.36 (KHTML, like Gecko) Version/4.0 Chrome/37.0.0.0 Mobile MQQBrowser/6.8 TBS/036824 Safari/537.36 MicroMessenger/6.3.27.880 NetType/WIFI Language/zh_CN'
p61
sg16
S'71e701e64a3add3ef980cf7aa10691f2'
p62
sa(dp63
g2
S'44317'
p64
sg4
S'4556'
p65
sg6
S'51b58dc5f9f1e54906bd6575a7254f6d'
p66
sg8
S'xx7c31750da9bb17b2c50a16b9f5d50a37'
p67
sg10
S'xxa1eddb067d69156b5a420a68e90e67cd'
p68
sg12
S'xxa0a94b472b8fdfca1bba875c605ec6cc'
p69
sg14
S'Mozilla/5.0 (Linux; Android 4.4.2; HM NOTE 1TD Build/KOT49H) AppleWebKit/537.36 (KHTML, like Gecko) Version/4.0 Chrome/37.0.0.0 Mobile MQQBrowser/6.8 TBS/036824 Safari/537.36 MicroMessenger/6.3.27.880 NetType/WIFI Language/zh_CN'
p70
sg16
S'71e701e64a3add3ef980cf7aa10691f2'
p71
sa(dp72
g2
S'44317'
p73
sg4
S'4583'
p74
sg6
S'51b58dc5f9f1e54906bd6575a7254f6d'
p75
sg8
S'xx7c31750da9bb17b2c50a16b9f5d50a37'
p76
sg10
S'xxa1eddb067d69156b5a420a68e90e67cd'
p77
sg12
S'xxa0a94b472b8fdfca1bba875c605ec6cc'
p78
sg14
S'Mozilla/5.0 (Linux; Android 4.4.2; HM NOTE 1TD Build/KOT49H) AppleWebKit/537.36 (KHTML, like Gecko) Version/4.0 Chrome/37.0.0.0 Mobile MQQBrowser/6.8 TBS/036824 Safari/537.36 MicroMessenger/6.3.27.880 NetType/WIFI Language/zh_CN'
p79
sg16
S'71e701e64a3add3ef980cf7aa10691f2'
p80
sa(dp81
g2
S'44317'
p82
sg4
S'4926'
p83
sg6
S'51b58dc5f9f1e54906bd6575a7254f6d'
p84
sg8
S'xx7c31750da9bb17b2c50a16b9f5d50a37'
p85
sg10
S'xxa1eddb067d69156b5a420a68e90e67cd'
p86
sg12
S'xxa0a94b472b8fdfca1bba875c605ec6cc'
p87
sg14
S'Mozilla/5.0 (Linux; Android 4.4.2; HM NOTE 1TD Build/KOT49H) AppleWebKit/537.36 (KHTML, like Gecko) Version/4.0 Chrome/37.0.0.0 Mobile MQQBrowser/6.8 TBS/036824 Safari/537.36 MicroMessenger/6.3.27.880 NetType/WIFI Language/zh_CN'
p88
sg16
S'71e701e64a3add3ef980cf7aa10691f2'
p89
sa(dp90
g2
S'44317'
p91
sg4
S'4937'
p92
sg6
S'51b58dc5f9f1e54906bd6575a7254f6d'
p93
sg8
S'xx7c31750da9bb17b2c50a16b9f5d50a37'
p94
sg10
S'xxa1eddb067d69156b5a420a68e90e67cd'
p95
sg12
S'xxa0a94b472b8fdfca1bba875c605ec6cc'
p96
sg14
S'Mozilla/5.0 (Linux; Android 4.4.2; HM NOTE 1TD Build/KOT49H) AppleWebKit/537.36 (KHTML, like Gecko) Version/4.0 Chrome/37.0.0.0 Mobile MQQBrowser/6.8 TBS/036824 Safari/537.36 MicroMessenger/6.3.27.880 NetType/WIFI Language/zh_CN'
p97
sg16
S'71e701e64a3add3ef980cf7aa10691f2'
p98
sa(dp99
g2
S'44317'
p100
sg4
S'5192'
p101
sg6
S'51b58dc5f9f1e54906bd6575a7254f6d'
p102
sg8
S'xx7c31750da9bb17b2c50a16b9f5d50a37'
p103
sg10
S'xxa1eddb067d69156b5a420a68e90e67cd'
p104
sg12
S'xxa0a94b472b8fdfca1bba875c605ec6cc'
p105
sg14
S'Mozilla/5.0 (Linux; Android 4.4.2; HM NOTE 1TD Build/KOT49H) AppleWebKit/537.36 (KHTML, like Gecko) Version/4.0 Chrome/37.0.0.0 Mobile MQQBrowser/6.8 TBS/036824 Safari/537.36 MicroMessenger/6.3.27.880 NetType/WIFI Language/zh_CN'
p106
sg16
S'71e701e64a3add3ef980cf7aa10691f2'
p107
sa(dp108
g2
S'44317'
p109
sg4
S'5208'
p110
sg6
S'51b58dc5f9f1e54906bd6575a7254f6d'
p111
sg8
S'xx7c31750da9bb17b2c50a16b9f5d50a37'
p112
sg10
S'xxa1eddb067d69156b5a420a68e90e67cd'
p113
sg12
S'xxa0a94b472b8fdfca1bba875c605ec6cc'
p114
sg14
S'Mozilla/5.0 (Linux; Android 4.4.2; HM NOTE 1TD Build/KOT49H) AppleWebKit/537.36 (KHTML, like Gecko) Version/4.0 Chrome/37.0.0.0 Mobile MQQBrowser/6.8 TBS/036824 Safari/537.36 MicroMessenger/6.3.27.880 NetType/WIFI Language/zh_CN'
p115
sg16
S'71e701e64a3add3ef980cf7aa10691f2'
p116
sa(dp117
g2
S'44317'
p118
sg4
S'5224'
p119
sg6
S'51b58dc5f9f1e54906bd6575a7254f6d'
p120
sg8
S'xx7c31750da9bb17b2c50a16b9f5d50a37'
p121
sg10
S'xxa1eddb067d69156b5a420a68e90e67cd'
p122
sg12
S'xxa0a94b472b8fdfca1bba875c605ec6cc'
p123
sg14
S'Mozilla/5.0 (Linux; Android 4.4.2; HM NOTE 1TD Build/KOT49H) AppleWebKit/537.36 (KHTML, like Gecko) Version/4.0 Chrome/37.0.0.0 Mobile MQQBrowser/6.8 TBS/036824 Safari/537.36 MicroMessenger/6.3.27.880 NetType/WIFI Language/zh_CN'
p124
sg16
S'71e701e64a3add3ef980cf7aa10691f2'
p125
sa(dp126
g2
S'44317'
p127
sg4
S'5481'
p128
sg6
S'51b58dc5f9f1e54906bd6575a7254f6d'
p129
sg8
S'xx7c31750da9bb17b2c50a16b9f5d50a37'
p130
sg10
S'xxa1eddb067d69156b5a420a68e90e67cd'
p131
sg12
S'xxa0a94b472b8fdfca1bba875c605ec6cc'
p132
sg14
S'Mozilla/5.0 (Linux; Android 4.4.2; HM NOTE 1TD Build/KOT49H) AppleWebKit/537.36 (KHTML, like Gecko) Version/4.0 Chrome/37.0.0.0 Mobile MQQBrowser/6.8 TBS/036824 Safari/537.36 MicroMessenger/6.3.27.880 NetType/WIFI Language/zh_CN'
p133
sg16
S'71e701e64a3add3ef980cf7aa10691f2'
p134
sa(dp135
g2
S'44317'
p136
sg4
S'5498'
p137
sg6
S'51b58dc5f9f1e54906bd6575a7254f6d'
p138
sg8
S'xx7c31750da9bb17b2c50a16b9f5d50a37'
p139
sg10
S'xxa1eddb067d69156b5a420a68e90e67cd'
p140
sg12
S'xxa0a94b472b8fdfca1bba875c605ec6cc'
p141
sg14
S'Mozilla/5.0 (Linux; Android 4.4.2; HM NOTE 1TD Build/KOT49H) AppleWebKit/537.36 (KHTML, like Gecko) Version/4.0 Chrome/37.0.0.0 Mobile MQQBrowser/6.8 TBS/036824 Safari/537.36 MicroMessenger/6.3.27.880 NetType/WIFI Language/zh_CN'
p142
sg16
S'71e701e64a3add3ef980cf7aa10691f2'
p143
sa(dp144
g2
S'44317'
p145
sg4
S'5622'
p146
sg6
S'51b58dc5f9f1e54906bd6575a7254f6d'
p147
sg8
S'xx7c31750da9bb17b2c50a16b9f5d50a37'
p148
sg10
S'xxa1eddb067d69156b5a420a68e90e67cd'
p149
sg12
S'xxa0a94b472b8fdfca1bba875c605ec6cc'
p150
sg14
S'Mozilla/5.0 (Linux; Android 4.4.2; HM NOTE 1TD Build/KOT49H) AppleWebKit/537.36 (KHTML, like Gecko) Version/4.0 Chrome/37.0.0.0 Mobile MQQBrowser/6.8 TBS/036824 Safari/537.36 MicroMessenger/6.3.27.880 NetType/WIFI Language/zh_CN'
p151
sg16
S'71e701e64a3add3ef980cf7aa10691f2'
p152
sa(dp153
g2
S'44317'
p154
sg4
S'5681'
p155
sg6
S'51b58dc5f9f1e54906bd6575a7254f6d'
p156
sg8
S'xx7c31750da9bb17b2c50a16b9f5d50a37'
p157
sg10
S'xxa1eddb067d69156b5a420a68e90e67cd'
p158
sg12
S'xxa0a94b472b8fdfca1bba875c605ec6cc'
p159
sg14
S'Mozilla/5.0 (Linux; Android 4.4.2; HM NOTE 1TD Build/KOT49H) AppleWebKit/537.36 (KHTML, like Gecko) Version/4.0 Chrome/37.0.0.0 Mobile MQQBrowser/6.8 TBS/036824 Safari/537.36 MicroMessenger/6.3.27.880 NetType/WIFI Language/zh_CN'
p160
sg16
S'71e701e64a3add3ef980cf7aa10691f2'
p161
sa(dp162
g2
S'44317'
p163
sg4
S'5758'
p164
sg6
S'51b58dc5f9f1e54906bd6575a7254f6d'
p165
sg8
S'xx7c31750da9bb17b2c50a16b9f5d50a37'
p166
sg10
S'xxa1eddb067d69156b5a420a68e90e67cd'
p167
sg12
S'xxa0a94b472b8fdfca1bba875c605ec6cc'
p168
sg14
S'Mozilla/5.0 (Linux; Android 4.4.2; HM NOTE 1TD Build/KOT49H) AppleWebKit/537.36 (KHTML, like Gecko) Version/4.0 Chrome/37.0.0.0 Mobile MQQBrowser/6.8 TBS/036824 Safari/537.36 MicroMessenger/6.3.27.880 NetType/WIFI Language/zh_CN'
p169
sg16
S'71e701e64a3add3ef980cf7aa10691f2'
p170
sa(dp171
g2
S'44317'
p172
sg4
S'5777'
p173
sg6
S'51b58dc5f9f1e54906bd6575a7254f6d'
p174
sg8
S'xx7c31750da9bb17b2c50a16b9f5d50a37'
p175
sg10
S'xxa1eddb067d69156b5a420a68e90e67cd'
p176
sg12
S'xxa0a94b472b8fdfca1bba875c605ec6cc'
p177
sg14
S'Mozilla/5.0 (Linux; Android 4.4.2; HM NOTE 1TD Build/KOT49H) AppleWebKit/537.36 (KHTML, like Gecko) Version/4.0 Chrome/37.0.0.0 Mobile MQQBrowser/6.8 TBS/036824 Safari/537.36 MicroMessenger/6.3.27.880 NetType/WIFI Language/zh_CN'
p178
sg16
S'71e701e64a3add3ef980cf7aa10691f2'
p179
sa(dp180
g2
S'44317'
p181
sg4
S'6092'
p182
sg6
S'51b58dc5f9f1e54906bd6575a7254f6d'
p183
sg8
S'xx7c31750da9bb17b2c50a16b9f5d50a37'
p184
sg10
S'xxa1eddb067d69156b5a420a68e90e67cd'
p185
sg12
S'xxa0a94b472b8fdfca1bba875c605ec6cc'
p186
sg14
S'Mozilla/5.0 (Linux; Android 4.4.2; HM NOTE 1TD Build/KOT49H) AppleWebKit/537.36 (KHTML, like Gecko) Version/4.0 Chrome/37.0.0.0 Mobile MQQBrowser/6.8 TBS/036824 Safari/537.36 MicroMessenger/6.3.27.880 NetType/WIFI Language/zh_CN'
p187
sg16
S'71e701e64a3add3ef980cf7aa10691f2'
p188
sa(dp189
g2
S'44317'
p190
sg4
S'6110'
p191
sg6
S'51b58dc5f9f1e54906bd6575a7254f6d'
p192
sg8
S'xx7c31750da9bb17b2c50a16b9f5d50a37'
p193
sg10
S'xxa1eddb067d69156b5a420a68e90e67cd'
p194
sg12
S'xxa0a94b472b8fdfca1bba875c605ec6cc'
p195
sg14
S'Mozilla/5.0 (Linux; Android 4.4.2; HM NOTE 1TD Build/KOT49H) AppleWebKit/537.36 (KHTML, like Gecko) Version/4.0 Chrome/37.0.0.0 Mobile MQQBrowser/6.8 TBS/036824 Safari/537.36 MicroMessenger/6.3.27.880 NetType/WIFI Language/zh_CN'
p196
sg16
S'71e701e64a3add3ef980cf7aa10691f2'
p197
sa(dp198
g2
S'44317'
p199
sg4
S'6183'
p200
sg6
S'51b58dc5f9f1e54906bd6575a7254f6d'
p201
sg8
S'xx7c31750da9bb17b2c50a16b9f5d50a37'
p202
sg10
S'xxa1eddb067d69156b5a420a68e90e67cd'
p203
sg12
S'xxa0a94b472b8fdfca1bba875c605ec6cc'
p204
sg14
S'Mozilla/5.0 (Linux; Android 4.4.2; HM NOTE 1TD Build/KOT49H) AppleWebKit/537.36 (KHTML, like Gecko) Version/4.0 Chrome/37.0.0.0 Mobile MQQBrowser/6.8 TBS/036824 Safari/537.36 MicroMessenger/6.3.27.880 NetType/WIFI Language/zh_CN'
p205
sg16
S'71e701e64a3add3ef980cf7aa10691f2'
p206
sa(dp207
g2
S'44317'
p208
sg4
S'6198'
p209
sg6
S'51b58dc5f9f1e54906bd6575a7254f6d'
p210
sg8
S'xx7c31750da9bb17b2c50a16b9f5d50a37'
p211
sg10
S'xxa1eddb067d69156b5a420a68e90e67cd'
p212
sg12
S'xxa0a94b472b8fdfca1bba875c605ec6cc'
p213
sg14
S'Mozilla/5.0 (Linux; Android 4.4.2; HM NOTE 1TD Build/KOT49H) AppleWebKit/537.36 (KHTML, like Gecko) Version/4.0 Chrome/37.0.0.0 Mobile MQQBrowser/6.8 TBS/036824 Safari/537.36 MicroMessenger/6.3.27.880 NetType/WIFI Language/zh_CN'
p214
sg16
S'71e701e64a3add3ef980cf7aa10691f2'
p215
sa(dp216
g2
S'30430'
p217
sg4
S'6363'
p218
sg6
S'f3f27f95678f861ebdc986239eef0b2a'
p219
sg8
S'xxfea50344ca57028985201da88d8e0715'
p220
sg10
S'xxa1eddb067d69156b5a420a68e90e67cd'
p221
sg12
S'xxa0a94b472b8fdfca1bba875c605ec6cc'
p222
sg14
S'Mozilla/5.0 (Linux; Android 4.4.2; HM NOTE 1TD Build/KOT49H) AppleWebKit/537.36 (KHTML, like Gecko) Version/4.0 Chrome/37.0.0.0 Mobile MQQBrowser/6.8 TBS/036849 Safari/537.36 MicroMessenger/6.3.27.880 NetType/WIFI Language/zh_CN'
p223
sg16
S'2ae752c9df5bb0752098d0e894a8e998'
p224
sa(dp225
g2
S'30430'
p226
sg4
S'6381'
p227
sg6
S'f3f27f95678f861ebdc986239eef0b2a'
p228
sg8
S'xxfea50344ca57028985201da88d8e0715'
p229
sg10
S'xxa1eddb067d69156b5a420a68e90e67cd'
p230
sg12
S'xxa0a94b472b8fdfca1bba875c605ec6cc'
p231
sg14
S'Mozilla/5.0 (Linux; Android 4.4.2; HM NOTE 1TD Build/KOT49H) AppleWebKit/537.36 (KHTML, like Gecko) Version/4.0 Chrome/37.0.0.0 Mobile MQQBrowser/6.8 TBS/036849 Safari/537.36 MicroMessenger/6.3.27.880 NetType/WIFI Language/zh_CN'
p232
sg16
S'2ae752c9df5bb0752098d0e894a8e998'
p233
sa(dp234
g2
S'44317'
p235
sg4
S'6386'
p236
sg6
S'51b58dc5f9f1e54906bd6575a7254f6d'
p237
sg8
S'xx7c31750da9bb17b2c50a16b9f5d50a37'
p238
sg10
S'xxa1eddb067d69156b5a420a68e90e67cd'
p239
sg12
S'xxa0a94b472b8fdfca1bba875c605ec6cc'
p240
sg14
S'Mozilla/5.0 (Linux; Android 4.4.2; HM NOTE 1TD Build/KOT49H) AppleWebKit/537.36 (KHTML, like Gecko) Version/4.0 Chrome/37.0.0.0 Mobile MQQBrowser/6.8 TBS/036824 Safari/537.36 MicroMessenger/6.3.27.880 NetType/WIFI Language/zh_CN'
p241
sg16
S'71e701e64a3add3ef980cf7aa10691f2'
p242
sa(dp243
g2
S'30430'
p244
sg4
S'6399'
p245
sg6
S'f3f27f95678f861ebdc986239eef0b2a'
p246
sg8
S'xxfea50344ca57028985201da88d8e0715'
p247
sg10
S'xxa1eddb067d69156b5a420a68e90e67cd'
p248
sg12
S'xxa0a94b472b8fdfca1bba875c605ec6cc'
p249
sg14
S'Mozilla/5.0 (Linux; Android 4.4.2; HM NOTE 1TD Build/KOT49H) AppleWebKit/537.36 (KHTML, like Gecko) Version/4.0 Chrome/37.0.0.0 Mobile MQQBrowser/6.8 TBS/036849 Safari/537.36 MicroMessenger/6.3.27.880 NetType/WIFI Language/zh_CN'
p250
sg16
S'2ae752c9df5bb0752098d0e894a8e998'
p251
sa(dp252
g2
S'44317'
p253
sg4
S'6403'
p254
sg6
S'51b58dc5f9f1e54906bd6575a7254f6d'
p255
sg8
S'xx7c31750da9bb17b2c50a16b9f5d50a37'
p256
sg10
S'xxa1eddb067d69156b5a420a68e90e67cd'
p257
sg12
S'xxa0a94b472b8fdfca1bba875c605ec6cc'
p258
sg14
S'Mozilla/5.0 (Linux; Android 4.4.2; HM NOTE 1TD Build/KOT49H) AppleWebKit/537.36 (KHTML, like Gecko) Version/4.0 Chrome/37.0.0.0 Mobile MQQBrowser/6.8 TBS/036824 Safari/537.36 MicroMessenger/6.3.27.880 NetType/WIFI Language/zh_CN'
p259
sg16
S'71e701e64a3add3ef980cf7aa10691f2'
p260
sa(dp261
g2
S'44317'
p262
sg4
S'6435'
p263
sg6
S'51b58dc5f9f1e54906bd6575a7254f6d'
p264
sg8
S'xx7c31750da9bb17b2c50a16b9f5d50a37'
p265
sg10
S'xxa1eddb067d69156b5a420a68e90e67cd'
p266
sg12
S'xxa0a94b472b8fdfca1bba875c605ec6cc'
p267
sg14
S'Mozilla/5.0 (Linux; Android 4.4.2; HM NOTE 1TD Build/KOT49H) AppleWebKit/537.36 (KHTML, like Gecko) Version/4.0 Chrome/37.0.0.0 Mobile MQQBrowser/6.8 TBS/036824 Safari/537.36 MicroMessenger/6.3.27.880 NetType/WIFI Language/zh_CN'
p268
sg16
S'71e701e64a3add3ef980cf7aa10691f2'
p269
sa(dp270
g2
S'44317'
p271
sg4
S'6556'
p272
sg6
S'51b58dc5f9f1e54906bd6575a7254f6d'
p273
sg8
S'xx7c31750da9bb17b2c50a16b9f5d50a37'
p274
sg10
S'xxa1eddb067d69156b5a420a68e90e67cd'
p275
sg12
S'xxa0a94b472b8fdfca1bba875c605ec6cc'
p276
sg14
S'Mozilla/5.0 (Linux; Android 4.4.2; HM NOTE 1TD Build/KOT49H) AppleWebKit/537.36 (KHTML, like Gecko) Version/4.0 Chrome/37.0.0.0 Mobile MQQBrowser/6.8 TBS/036824 Safari/537.36 MicroMessenger/6.3.27.880 NetType/WIFI Language/zh_CN'
p277
sg16
S'71e701e64a3add3ef980cf7aa10691f2'
p278
sa(dp279
g2
S'44317'
p280
sg4
S'6571'
p281
sg6
S'51b58dc5f9f1e54906bd6575a7254f6d'
p282
sg8
S'xx7c31750da9bb17b2c50a16b9f5d50a37'
p283
sg10
S'xxa1eddb067d69156b5a420a68e90e67cd'
p284
sg12
S'xxa0a94b472b8fdfca1bba875c605ec6cc'
p285
sg14
S'Mozilla/5.0 (Linux; Android 4.4.2; HM NOTE 1TD Build/KOT49H) AppleWebKit/537.36 (KHTML, like Gecko) Version/4.0 Chrome/37.0.0.0 Mobile MQQBrowser/6.8 TBS/036824 Safari/537.36 MicroMessenger/6.3.27.880 NetType/WIFI Language/zh_CN'
p286
sg16
S'71e701e64a3add3ef980cf7aa10691f2'
p287
sa(dp288
g2
S'44317'
p289
sg4
S'6579'
p290
sg6
S'51b58dc5f9f1e54906bd6575a7254f6d'
p291
sg8
S'xx7c31750da9bb17b2c50a16b9f5d50a37'
p292
sg10
S'xxa1eddb067d69156b5a420a68e90e67cd'
p293
sg12
S'xxa0a94b472b8fdfca1bba875c605ec6cc'
p294
sg14
S'Mozilla/5.0 (Linux; Android 4.4.2; HM NOTE 1TD Build/KOT49H) AppleWebKit/537.36 (KHTML, like Gecko) Version/4.0 Chrome/37.0.0.0 Mobile MQQBrowser/6.8 TBS/036824 Safari/537.36 MicroMessenger/6.3.27.880 NetType/WIFI Language/zh_CN'
p295
sg16
S'71e701e64a3add3ef980cf7aa10691f2'
p296
sa(dp297
g2
S'44317'
p298
sg4
S'6747'
p299
sg6
S'51b58dc5f9f1e54906bd6575a7254f6d'
p300
sg8
S'xx7c31750da9bb17b2c50a16b9f5d50a37'
p301
sg10
S'xxa1eddb067d69156b5a420a68e90e67cd'
p302
sg12
S'xxa0a94b472b8fdfca1bba875c605ec6cc'
p303
sg14
S'Mozilla/5.0 (Linux; Android 4.4.2; HM NOTE 1TD Build/KOT49H) AppleWebKit/537.36 (KHTML, like Gecko) Version/4.0 Chrome/37.0.0.0 Mobile MQQBrowser/6.8 TBS/036824 Safari/537.36 MicroMessenger/6.3.27.880 NetType/WIFI Language/zh_CN'
p304
sg16
S'71e701e64a3add3ef980cf7aa10691f2'
p305
sa(dp306
g2
S'44317'
p307
sg4
S'6763'
p308
sg6
S'51b58dc5f9f1e54906bd6575a7254f6d'
p309
sg8
S'xx7c31750da9bb17b2c50a16b9f5d50a37'
p310
sg10
S'xxa1eddb067d69156b5a420a68e90e67cd'
p311
sg12
S'xxa0a94b472b8fdfca1bba875c605ec6cc'
p312
sg14
S'Mozilla/5.0 (Linux; Android 4.4.2; HM NOTE 1TD Build/KOT49H) AppleWebKit/537.36 (KHTML, like Gecko) Version/4.0 Chrome/37.0.0.0 Mobile MQQBrowser/6.8 TBS/036824 Safari/537.36 MicroMessenger/6.3.27.880 NetType/WIFI Language/zh_CN'
p313
sg16
S'71e701e64a3add3ef980cf7aa10691f2'
p314
sa(dp315
g2
S'44317'
p316
sg4
S'6848'
p317
sg6
S'51b58dc5f9f1e54906bd6575a7254f6d'
p318
sg8
S'xx7c31750da9bb17b2c50a16b9f5d50a37'
p319
sg10
S'xxa1eddb067d69156b5a420a68e90e67cd'
p320
sg12
S'xxa0a94b472b8fdfca1bba875c605ec6cc'
p321
sg14
S'Mozilla/5.0 (Linux; Android 4.4.2; HM NOTE 1TD Build/KOT49H) AppleWebKit/537.36 (KHTML, like Gecko) Version/4.0 Chrome/37.0.0.0 Mobile MQQBrowser/6.8 TBS/036824 Safari/537.36 MicroMessenger/6.3.27.880 NetType/WIFI Language/zh_CN'
p322
sg16
S'71e701e64a3add3ef980cf7aa10691f2'
p323
sa(dp324
g2
S'44317'
p325
sg4
S'6935'
p326
sg6
S'51b58dc5f9f1e54906bd6575a7254f6d'
p327
sg8
S'xx7c31750da9bb17b2c50a16b9f5d50a37'
p328
sg10
S'xxa1eddb067d69156b5a420a68e90e67cd'
p329
sg12
S'xxa0a94b472b8fdfca1bba875c605ec6cc'
p330
sg14
S'Mozilla/5.0 (Linux; Android 4.4.2; HM NOTE 1TD Build/KOT49H) AppleWebKit/537.36 (KHTML, like Gecko) Version/4.0 Chrome/37.0.0.0 Mobile MQQBrowser/6.8 TBS/036824 Safari/537.36 MicroMessenger/6.3.27.880 NetType/WIFI Language/zh_CN'
p331
sg16
S'71e701e64a3add3ef980cf7aa10691f2'
p332
sa(dp333
g2
S'44317'
p334
sg4
S'6952'
p335
sg6
S'51b58dc5f9f1e54906bd6575a7254f6d'
p336
sg8
S'xx7c31750da9bb17b2c50a16b9f5d50a37'
p337
sg10
S'xxa1eddb067d69156b5a420a68e90e67cd'
p338
sg12
S'xxa0a94b472b8fdfca1bba875c605ec6cc'
p339
sg14
S'Mozilla/5.0 (Linux; Android 4.4.2; HM NOTE 1TD Build/KOT49H) AppleWebKit/537.36 (KHTML, like Gecko) Version/4.0 Chrome/37.0.0.0 Mobile MQQBrowser/6.8 TBS/036824 Safari/537.36 MicroMessenger/6.3.27.880 NetType/WIFI Language/zh_CN'
p340
sg16
S'71e701e64a3add3ef980cf7aa10691f2'
p341
sa(dp342
g2
S'44317'
p343
sg4
S'7163'
p344
sg6
S'51b58dc5f9f1e54906bd6575a7254f6d'
p345
sg8
S'xx7c31750da9bb17b2c50a16b9f5d50a37'
p346
sg10
S'xxa1eddb067d69156b5a420a68e90e67cd'
p347
sg12
S'xxa0a94b472b8fdfca1bba875c605ec6cc'
p348
sg14
S'Mozilla/5.0 (Linux; Android 4.4.2; HM NOTE 1TD Build/KOT49H) AppleWebKit/537.36 (KHTML, like Gecko) Version/4.0 Chrome/37.0.0.0 Mobile MQQBrowser/6.8 TBS/036824 Safari/537.36 MicroMessenger/6.3.27.880 NetType/WIFI Language/zh_CN'
p349
sg16
S'71e701e64a3add3ef980cf7aa10691f2'
p350
sa(dp351
g2
S'44317'
p352
sg4
S'7181'
p353
sg6
S'51b58dc5f9f1e54906bd6575a7254f6d'
p354
sg8
S'xx7c31750da9bb17b2c50a16b9f5d50a37'
p355
sg10
S'xxa1eddb067d69156b5a420a68e90e67cd'
p356
sg12
S'xxa0a94b472b8fdfca1bba875c605ec6cc'
p357
sg14
S'Mozilla/5.0 (Linux; Android 4.4.2; HM NOTE 1TD Build/KOT49H) AppleWebKit/537.36 (KHTML, like Gecko) Version/4.0 Chrome/37.0.0.0 Mobile MQQBrowser/6.8 TBS/036824 Safari/537.36 MicroMessenger/6.3.27.880 NetType/WIFI Language/zh_CN'
p358
sg16
S'71e701e64a3add3ef980cf7aa10691f2'
p359
sa(dp360
g2
S'44317'
p361
sg4
S'7270'
p362
sg6
S'51b58dc5f9f1e54906bd6575a7254f6d'
p363
sg8
S'xx7c31750da9bb17b2c50a16b9f5d50a37'
p364
sg10
S'xxa1eddb067d69156b5a420a68e90e67cd'
p365
sg12
S'xxa0a94b472b8fdfca1bba875c605ec6cc'
p366
sg14
S'Mozilla/5.0 (Linux; Android 4.4.2; HM NOTE 1TD Build/KOT49H) AppleWebKit/537.36 (KHTML, like Gecko) Version/4.0 Chrome/37.0.0.0 Mobile MQQBrowser/6.8 TBS/036824 Safari/537.36 MicroMessenger/6.3.27.880 NetType/WIFI Language/zh_CN'
p367
sg16
S'71e701e64a3add3ef980cf7aa10691f2'
p368
sa(dp369
g2
S'44317'
p370
sg4
S'7587'
p371
sg6
S'51b58dc5f9f1e54906bd6575a7254f6d'
p372
sg8
S'xx7c31750da9bb17b2c50a16b9f5d50a37'
p373
sg10
S'xxa1eddb067d69156b5a420a68e90e67cd'
p374
sg12
S'xxa0a94b472b8fdfca1bba875c605ec6cc'
p375
sg14
S'Mozilla/5.0 (Linux; Android 4.4.2; HM NOTE 1TD Build/KOT49H) AppleWebKit/537.36 (KHTML, like Gecko) Version/4.0 Chrome/37.0.0.0 Mobile MQQBrowser/6.8 TBS/036824 Safari/537.36 MicroMessenger/6.3.27.880 NetType/WIFI Language/zh_CN'
p376
sg16
S'71e701e64a3add3ef980cf7aa10691f2'
p377
sa(dp378
g2
S'44317'
p379
sg4
S'7596'
p380
sg6
S'51b58dc5f9f1e54906bd6575a7254f6d'
p381
sg8
S'xx7c31750da9bb17b2c50a16b9f5d50a37'
p382
sg10
S'xxa1eddb067d69156b5a420a68e90e67cd'
p383
sg12
S'xxa0a94b472b8fdfca1bba875c605ec6cc'
p384
sg14
S'Mozilla/5.0 (Linux; Android 4.4.2; HM NOTE 1TD Build/KOT49H) AppleWebKit/537.36 (KHTML, like Gecko) Version/4.0 Chrome/37.0.0.0 Mobile MQQBrowser/6.8 TBS/036824 Safari/537.36 MicroMessenger/6.3.27.880 NetType/WIFI Language/zh_CN'
p385
sg16
S'71e701e64a3add3ef980cf7aa10691f2'
p386
sa(dp387
g2
S'44317'
p388
sg4
S'7843'
p389
sg6
S'51b58dc5f9f1e54906bd6575a7254f6d'
p390
sg8
S'xx7c31750da9bb17b2c50a16b9f5d50a37'
p391
sg10
S'xxa1eddb067d69156b5a420a68e90e67cd'
p392
sg12
S'xxa0a94b472b8fdfca1bba875c605ec6cc'
p393
sg14
S'Mozilla/5.0 (Linux; Android 4.4.2; HM NOTE 1TD Build/KOT49H) AppleWebKit/537.36 (KHTML, like Gecko) Version/4.0 Chrome/37.0.0.0 Mobile MQQBrowser/6.8 TBS/036824 Safari/537.36 MicroMessenger/6.3.27.880 NetType/WIFI Language/zh_CN'
p394
sg16
S'71e701e64a3add3ef980cf7aa10691f2'
p395
sa(dp396
g2
S'44317'
p397
sg4
S'7858'
p398
sg6
S'51b58dc5f9f1e54906bd6575a7254f6d'
p399
sg8
S'xx7c31750da9bb17b2c50a16b9f5d50a37'
p400
sg10
S'xxa1eddb067d69156b5a420a68e90e67cd'
p401
sg12
S'xxa0a94b472b8fdfca1bba875c605ec6cc'
p402
sg14
S'Mozilla/5.0 (Linux; Android 4.4.2; HM NOTE 1TD Build/KOT49H) AppleWebKit/537.36 (KHTML, like Gecko) Version/4.0 Chrome/37.0.0.0 Mobile MQQBrowser/6.8 TBS/036824 Safari/537.36 MicroMessenger/6.3.27.880 NetType/WIFI Language/zh_CN'
p403
sg16
S'71e701e64a3add3ef980cf7aa10691f2'
p404
sa.