(lp0
(dp1
S'user_id'
p2
S'29947'
p3
sS'data_id'
p4
S'2304'
p5
sS'ip'
p6
S'9f29227ac583cc5841d70d83d41e6056'
p7
sS'phone_B'
p8
S'xxbdd1db18cef400ca5bfb96ecc65c5512'
p9
sS'phone_C'
p10
S'xx345474f7f4c162365ccc980e6a4738c3'
p11
sS'phone_A'
p12
S'xxa1009ecdb5d889405567b53251c787a8'
p13
sS'user_agent'
p14
S'Mozilla/5.0 (Linux; Android 6.0; Le X620 Build/HBXCNCU5801708221S) AppleWebKit/537.36 (KHTML, like Gecko) Version/4.0 Chrome/37.0.0.0 Mobile MQQBrowser/6.8 TBS/036849 Safari/537.36 MicroMessenger/6.3.25.861 NetType/3gnet Language/zh_CN'
p15
sS'ua'
p16
S'8295aa523ce241f643a8f5f22eea9ab0'
p17
sa(dp18
g2
S'29947'
p19
sg4
S'2318'
p20
sg6
S'9f29227ac583cc5841d70d83d41e6056'
p21
sg8
S'xxbdd1db18cef400ca5bfb96ecc65c5512'
p22
sg10
S'xx345474f7f4c162365ccc980e6a4738c3'
p23
sg12
S'xxa1009ecdb5d889405567b53251c787a8'
p24
sg14
S'Mozilla/5.0 (Linux; Android 6.0; Le X620 Build/HBXCNCU5801708221S) AppleWebKit/537.36 (KHTML, like Gecko) Version/4.0 Chrome/37.0.0.0 Mobile MQQBrowser/6.8 TBS/036849 Safari/537.36 MicroMessenger/6.3.25.861 NetType/3gnet Language/zh_CN'
p25
sg16
S'8295aa523ce241f643a8f5f22eea9ab0'
p26
sa.