(lp0
(dp1
S'user_id'
p2
S'38928'
p3
sS'data_id'
p4
S'257'
p5
sS'ip'
p6
S'e1eafd760ce97874bef966afe7ff6e4f'
p7
sS'phone_B'
p8
S'xxf7ddd06e924edb7f235dd0e3eedb61bd'
p9
sS'phone_C'
p10
S'xxa2688a2f031d413266952588af165010'
p11
sS'phone_A'
p12
S'xxa161594c5300977c99ae3bdc4e24a576'
p13
sS'user_agent'
p14
S'Mozilla/5.0 (Linux; Android 5.1; F100A Build/LMY47D) AppleWebKit/537.36 (KHTML, like Gecko) Version/4.0 Chrome/37.0.0.0 Mobile MQQBrowser/6.8 TBS/036849 Safari/537.36 MicroMessenger/6.3.27.880 NetType/cmnet Language/zh_CN'
p15
sS'ua'
p16
S'0ab2b6c3efd4e3e62a01ef7b2bd1aa49'
p17
sa(dp18
g2
S'38928'
p19
sg4
S'270'
p20
sg6
S'e1eafd760ce97874bef966afe7ff6e4f'
p21
sg8
S'xxf7ddd06e924edb7f235dd0e3eedb61bd'
p22
sg10
S'xxa2688a2f031d413266952588af165010'
p23
sg12
S'xxa161594c5300977c99ae3bdc4e24a576'
p24
sg14
S'Mozilla/5.0 (Linux; Android 5.1; F100A Build/LMY47D) AppleWebKit/537.36 (KHTML, like Gecko) Version/4.0 Chrome/37.0.0.0 Mobile MQQBrowser/6.8 TBS/036849 Safari/537.36 MicroMessenger/6.3.27.880 NetType/cmnet Language/zh_CN'
p25
sg16
S'0ab2b6c3efd4e3e62a01ef7b2bd1aa49'
p26
sa(dp27
g2
S'30552'
p28
sg4
S'1659'
p29
sg6
S'5d46bd510df8e12954dc9ce0b6b18ebe'
p30
sg8
S'xx83e23e3d8511f2db4407c08eb012ed65'
p31
sg10
S'xxa2688a2f031d413266952588af165010'
p32
sg12
S'xxa161594c5300977c99ae3bdc4e24a576'
p33
sg14
S'Mozilla/5.0 (Linux; Android 5.1; F100A Build/LMY47D) AppleWebKit/537.36 (KHTML, like Gecko) Version/4.0 Chrome/37.0.0.0 Mobile MQQBrowser/6.8 TBS/036869 Safari/537.36 MicroMessenger/6.3.27.880 NetType/WIFI Language/zh_CN'
p34
sg16
S'79d47585b03687ac14a5a39819b7af06'
p35
sa(dp36
g2
S'30552'
p37
sg4
S'1674'
p38
sg6
S'5d46bd510df8e12954dc9ce0b6b18ebe'
p39
sg8
S'xx83e23e3d8511f2db4407c08eb012ed65'
p40
sg10
S'xxa2688a2f031d413266952588af165010'
p41
sg12
S'xxa161594c5300977c99ae3bdc4e24a576'
p42
sg14
S'Mozilla/5.0 (Linux; Android 5.1; F100A Build/LMY47D) AppleWebKit/537.36 (KHTML, like Gecko) Version/4.0 Chrome/37.0.0.0 Mobile MQQBrowser/6.8 TBS/036869 Safari/537.36 MicroMessenger/6.3.27.880 NetType/WIFI Language/zh_CN'
p43
sg16
S'79d47585b03687ac14a5a39819b7af06'
p44
sa.