(lp0
(dp1
S'user_id'
p2
S'20732'
p3
sS'data_id'
p4
S'3238'
p5
sS'ip'
p6
S'fdf96140854ef3b7e5262b8fd383c5d3'
p7
sS'phone_B'
p8
S'xx7907151445d9e420892f7fa14faa0d4a'
p9
sS'phone_C'
p10
S'xx03deec29bf03eea1c6e4c1424385f49a'
p11
sS'phone_A'
p12
S'xxa152858be06810acf2318113255be389'
p13
sS'user_agent'
p14
S'Mozilla/5.0 (Linux; Android 5.1; XM-T Pro Build/LMY47D) AppleWebKit/537.36 (KHTML, like Gecko) Version/4.0 Chrome/37.0.0.0 Mobile MQQBrowser/6.8 TBS/036849 Safari/537.36 MicroMessenger/6.3.25.861 NetType/cmnet Language/zh_CN'
p15
sS'ua'
p16
S'41546255dcbbbfbdc3cb827bdf327596'
p17
sa(dp18
g2
S'20732'
p19
sg4
S'3254'
p20
sg6
S'fdf96140854ef3b7e5262b8fd383c5d3'
p21
sg8
S'xx7907151445d9e420892f7fa14faa0d4a'
p22
sg10
S'xx03deec29bf03eea1c6e4c1424385f49a'
p23
sg12
S'xxa152858be06810acf2318113255be389'
p24
sg14
S'Mozilla/5.0 (Linux; Android 5.1; XM-T Pro Build/LMY47D) AppleWebKit/537.36 (KHTML, like Gecko) Version/4.0 Chrome/37.0.0.0 Mobile MQQBrowser/6.8 TBS/036849 Safari/537.36 MicroMessenger/6.3.25.861 NetType/cmnet Language/zh_CN'
p25
sg16
S'41546255dcbbbfbdc3cb827bdf327596'
p26
sa(dp27
g2
S'49220'
p28
sg4
S'6851'
p29
sg6
S'8f02dac343f587b9e634f36b72f42e3e'
p30
sg8
S'xx08ebd7d9a737267c86c790d26fd26524'
p31
sg10
S'xx7f222a9d0ec582ed9605c942c3ab2805'
p32
sg12
S'xxa152858be06810acf2318113255be389'
p33
sg14
S'Mozilla/5.0 (Linux; Android 5.1; XM-T Pro Build/LMY47D) AppleWebKit/537.36 (KHTML, like Gecko) Version/4.0 Chrome/39.0.0.0 Mobile Safari/537.36 MicroMessenger/6.3.27.880 NetType/cmnet Language/zh_CN'
p34
sg16
S'5ef6ab1105cc2f9dd89da9057c552262'
p35
sa(dp36
g2
S'49220'
p37
sg4
S'6866'
p38
sg6
S'8f02dac343f587b9e634f36b72f42e3e'
p39
sg8
S'xx08ebd7d9a737267c86c790d26fd26524'
p40
sg10
S'xx7f222a9d0ec582ed9605c942c3ab2805'
p41
sg12
S'xxa152858be06810acf2318113255be389'
p42
sg14
S'Mozilla/5.0 (Linux; Android 5.1; XM-T Pro Build/LMY47D) AppleWebKit/537.36 (KHTML, like Gecko) Version/4.0 Chrome/39.0.0.0 Mobile Safari/537.36 MicroMessenger/6.3.27.880 NetType/cmnet Language/zh_CN'
p43
sg16
S'5ef6ab1105cc2f9dd89da9057c552262'
p44
sa.