(lp0
(dp1
S'user_id'
p2
S'49767'
p3
sS'data_id'
p4
S'2897'
p5
sS'ip'
p6
S'2c49490cda5b40f6647a44dd0c2a98ff'
p7
sS'phone_B'
p8
S'xxef865bab24bcfa98e0fcf7d968dc223b'
p9
sS'phone_C'
p10
S'xxdbf94ccae2856247b57669df9afdc12f'
p11
sS'phone_A'
p12
S'xxa22e71cc47ede69433e8783f0ddcba15'
p13
sS'user_agent'
p14
S'Mozilla/5.0 (Linux; Android 5.1; M57AC Build/LMY47D) AppleWebKit/537.36 (KHTML, like Gecko) Version/4.0 Chrome/37.0.0.0 Mobile MQQBrowser/6.8 TBS/036849 Safari/537.36 MicroMessenger/6.3.27.880 NetType/ctnet Language/zh_CN'
p15
sS'ua'
p16
S'e0090bbb62928838cce926d46abae71b'
p17
sa(dp18
g2
S'49767'
p19
sg4
S'2915'
p20
sg6
S'2c49490cda5b40f6647a44dd0c2a98ff'
p21
sg8
S'xxef865bab24bcfa98e0fcf7d968dc223b'
p22
sg10
S'xxdbf94ccae2856247b57669df9afdc12f'
p23
sg12
S'xxa22e71cc47ede69433e8783f0ddcba15'
p24
sg14
S'Mozilla/5.0 (Linux; Android 5.1; M57AC Build/LMY47D) AppleWebKit/537.36 (KHTML, like Gecko) Version/4.0 Chrome/37.0.0.0 Mobile MQQBrowser/6.8 TBS/036849 Safari/537.36 MicroMessenger/6.3.27.880 NetType/ctnet Language/zh_CN'
p25
sg16
S'e0090bbb62928838cce926d46abae71b'
p26
sa.