(lp0
(dp1
S'user_id'
p2
S'29102'
p3
sS'data_id'
p4
S'139'
p5
sS'ip'
p6
S'b253f55e3b55d7835e02fe1ae6520dde'
p7
sS'phone_B'
p8
S'xxa62e5b194283a94899abf195651a1659'
p9
sS'phone_C'
p10
S'xx72763e39f3b27868a30bf164b8ce8da4'
p11
sS'phone_A'
p12
S'xxa38b18199ed008b7a72b334a6e0f8566'
p13
sS'user_agent'
p14
S'Mozilla/5.0 (Linux; Android 6.0.1; KIW-TL00 Build/HONORKIW-TL00) AppleWebKit/537.36 (KHTML, like Gecko) Version/4.0 Chrome/37.0.0.0 Mobile MQQBrowser/6.8 TBS/036849 Safari/537.36 MicroMessenger/6.3.27.880 NetType/WIFI Language/zh_CN'
p15
sS'ua'
p16
S'f6ebc150f5b8c821c5b8f7dea2fd1316'
p17
sa(dp18
g2
S'29102'
p19
sg4
S'155'
p20
sg6
S'b253f55e3b55d7835e02fe1ae6520dde'
p21
sg8
S'xxa62e5b194283a94899abf195651a1659'
p22
sg10
S'xx72763e39f3b27868a30bf164b8ce8da4'
p23
sg12
S'xxa38b18199ed008b7a72b334a6e0f8566'
p24
sg14
S'Mozilla/5.0 (Linux; Android 6.0.1; KIW-TL00 Build/HONORKIW-TL00) AppleWebKit/537.36 (KHTML, like Gecko) Version/4.0 Chrome/37.0.0.0 Mobile MQQBrowser/6.8 TBS/036849 Safari/537.36 MicroMessenger/6.3.27.880 NetType/WIFI Language/zh_CN'
p25
sg16
S'f6ebc150f5b8c821c5b8f7dea2fd1316'
p26
sa(dp27
g2
S'29102'
p28
sg4
S'663'
p29
sg6
S'fb403b83f955122b546555cfdbde0ebe'
p30
sg8
S'xxa62e5b194283a94899abf195651a1659'
p31
sg10
S'xx72763e39f3b27868a30bf164b8ce8da4'
p32
sg12
S'xxa38b18199ed008b7a72b334a6e0f8566'
p33
sg14
S'Mozilla/5.0 (Linux; Android 6.0.1; KIW-TL00 Build/HONORKIW-TL00) AppleWebKit/537.36 (KHTML, like Gecko) Version/4.0 Chrome/37.0.0.0 Mobile MQQBrowser/6.8 TBS/036849 Safari/537.36 MicroMessenger/6.3.27.880 NetType/WIFI Language/zh_CN'
p34
sg16
S'f6ebc150f5b8c821c5b8f7dea2fd1316'
p35
sa(dp36
g2
S'29102'
p37
sg4
S'675'
p38
sg6
S'fb403b83f955122b546555cfdbde0ebe'
p39
sg8
S'xxa62e5b194283a94899abf195651a1659'
p40
sg10
S'xx72763e39f3b27868a30bf164b8ce8da4'
p41
sg12
S'xxa38b18199ed008b7a72b334a6e0f8566'
p42
sg14
S'Mozilla/5.0 (Linux; Android 6.0.1; KIW-TL00 Build/HONORKIW-TL00) AppleWebKit/537.36 (KHTML, like Gecko) Version/4.0 Chrome/37.0.0.0 Mobile MQQBrowser/6.8 TBS/036849 Safari/537.36 MicroMessenger/6.3.27.880 NetType/WIFI Language/zh_CN'
p43
sg16
S'f6ebc150f5b8c821c5b8f7dea2fd1316'
p44
sa(dp45
g2
S'29102'
p46
sg4
S'707'
p47
sg6
S'fb403b83f955122b546555cfdbde0ebe'
p48
sg8
S'xxa62e5b194283a94899abf195651a1659'
p49
sg10
S'xx72763e39f3b27868a30bf164b8ce8da4'
p50
sg12
S'xxa38b18199ed008b7a72b334a6e0f8566'
p51
sg14
S'Mozilla/5.0 (Linux; Android 6.0.1; KIW-TL00 Build/HONORKIW-TL00) AppleWebKit/537.36 (KHTML, like Gecko) Version/4.0 Chrome/37.0.0.0 Mobile MQQBrowser/6.8 TBS/036849 Safari/537.36 MicroMessenger/6.3.27.880 NetType/WIFI Language/zh_CN'
p52
sg16
S'f6ebc150f5b8c821c5b8f7dea2fd1316'
p53
sa(dp54
g2
S'29102'
p55
sg4
S'725'
p56
sg6
S'fb403b83f955122b546555cfdbde0ebe'
p57
sg8
S'xxa62e5b194283a94899abf195651a1659'
p58
sg10
S'xx72763e39f3b27868a30bf164b8ce8da4'
p59
sg12
S'xxa38b18199ed008b7a72b334a6e0f8566'
p60
sg14
S'Mozilla/5.0 (Linux; Android 6.0.1; KIW-TL00 Build/HONORKIW-TL00) AppleWebKit/537.36 (KHTML, like Gecko) Version/4.0 Chrome/37.0.0.0 Mobile MQQBrowser/6.8 TBS/036849 Safari/537.36 MicroMessenger/6.3.27.880 NetType/WIFI Language/zh_CN'
p61
sg16
S'f6ebc150f5b8c821c5b8f7dea2fd1316'
p62
sa(dp63
g2
S'29102'
p64
sg4
S'735'
p65
sg6
S'fb403b83f955122b546555cfdbde0ebe'
p66
sg8
S'xxa62e5b194283a94899abf195651a1659'
p67
sg10
S'xx72763e39f3b27868a30bf164b8ce8da4'
p68
sg12
S'xxa38b18199ed008b7a72b334a6e0f8566'
p69
sg14
S'Mozilla/5.0 (Linux; Android 6.0.1; KIW-TL00 Build/HONORKIW-TL00) AppleWebKit/537.36 (KHTML, like Gecko) Version/4.0 Chrome/37.0.0.0 Mobile MQQBrowser/6.8 TBS/036849 Safari/537.36 MicroMessenger/6.3.27.880 NetType/WIFI Language/zh_CN'
p70
sg16
S'f6ebc150f5b8c821c5b8f7dea2fd1316'
p71
sa(dp72
g2
S'29102'
p73
sg4
S'746'
p74
sg6
S'fb403b83f955122b546555cfdbde0ebe'
p75
sg8
S'xxa62e5b194283a94899abf195651a1659'
p76
sg10
S'xx72763e39f3b27868a30bf164b8ce8da4'
p77
sg12
S'xxa38b18199ed008b7a72b334a6e0f8566'
p78
sg14
S'Mozilla/5.0 (Linux; Android 6.0.1; KIW-TL00 Build/HONORKIW-TL00) AppleWebKit/537.36 (KHTML, like Gecko) Version/4.0 Chrome/37.0.0.0 Mobile MQQBrowser/6.8 TBS/036849 Safari/537.36 MicroMessenger/6.3.27.880 NetType/WIFI Language/zh_CN'
p79
sg16
S'f6ebc150f5b8c821c5b8f7dea2fd1316'
p80
sa(dp81
g2
S'29102'
p82
sg4
S'785'
p83
sg6
S'fb403b83f955122b546555cfdbde0ebe'
p84
sg8
S'xxa62e5b194283a94899abf195651a1659'
p85
sg10
S'xx72763e39f3b27868a30bf164b8ce8da4'
p86
sg12
S'xxa38b18199ed008b7a72b334a6e0f8566'
p87
sg14
S'Mozilla/5.0 (Linux; Android 6.0.1; KIW-TL00 Build/HONORKIW-TL00) AppleWebKit/537.36 (KHTML, like Gecko) Version/4.0 Chrome/37.0.0.0 Mobile MQQBrowser/6.8 TBS/036849 Safari/537.36 MicroMessenger/6.3.27.880 NetType/WIFI Language/zh_CN'
p88
sg16
S'f6ebc150f5b8c821c5b8f7dea2fd1316'
p89
sa(dp90
g2
S'29102'
p91
sg4
S'801'
p92
sg6
S'fb403b83f955122b546555cfdbde0ebe'
p93
sg8
S'xxa62e5b194283a94899abf195651a1659'
p94
sg10
S'xx72763e39f3b27868a30bf164b8ce8da4'
p95
sg12
S'xxa38b18199ed008b7a72b334a6e0f8566'
p96
sg14
S'Mozilla/5.0 (Linux; Android 6.0.1; KIW-TL00 Build/HONORKIW-TL00) AppleWebKit/537.36 (KHTML, like Gecko) Version/4.0 Chrome/37.0.0.0 Mobile MQQBrowser/6.8 TBS/036849 Safari/537.36 MicroMessenger/6.3.27.880 NetType/WIFI Language/zh_CN'
p97
sg16
S'f6ebc150f5b8c821c5b8f7dea2fd1316'
p98
sa(dp99
g2
S'29102'
p100
sg4
S'833'
p101
sg6
S'fb403b83f955122b546555cfdbde0ebe'
p102
sg8
S'xxa62e5b194283a94899abf195651a1659'
p103
sg10
S'xx72763e39f3b27868a30bf164b8ce8da4'
p104
sg12
S'xxa38b18199ed008b7a72b334a6e0f8566'
p105
sg14
S'Mozilla/5.0 (Linux; Android 6.0.1; KIW-TL00 Build/HONORKIW-TL00) AppleWebKit/537.36 (KHTML, like Gecko) Version/4.0 Chrome/37.0.0.0 Mobile MQQBrowser/6.8 TBS/036849 Safari/537.36 MicroMessenger/6.3.27.880 NetType/WIFI Language/zh_CN'
p106
sg16
S'f6ebc150f5b8c821c5b8f7dea2fd1316'
p107
sa(dp108
g2
S'29102'
p109
sg4
S'845'
p110
sg6
S'fb403b83f955122b546555cfdbde0ebe'
p111
sg8
S'xxa62e5b194283a94899abf195651a1659'
p112
sg10
S'xx72763e39f3b27868a30bf164b8ce8da4'
p113
sg12
S'xxa38b18199ed008b7a72b334a6e0f8566'
p114
sg14
S'Mozilla/5.0 (Linux; Android 6.0.1; KIW-TL00 Build/HONORKIW-TL00) AppleWebKit/537.36 (KHTML, like Gecko) Version/4.0 Chrome/37.0.0.0 Mobile MQQBrowser/6.8 TBS/036849 Safari/537.36 MicroMessenger/6.3.27.880 NetType/WIFI Language/zh_CN'
p115
sg16
S'f6ebc150f5b8c821c5b8f7dea2fd1316'
p116
sa(dp117
g2
S'29102'
p118
sg4
S'865'
p119
sg6
S'fb403b83f955122b546555cfdbde0ebe'
p120
sg8
S'xxa62e5b194283a94899abf195651a1659'
p121
sg10
S'xx72763e39f3b27868a30bf164b8ce8da4'
p122
sg12
S'xxa38b18199ed008b7a72b334a6e0f8566'
p123
sg14
S'Mozilla/5.0 (Linux; Android 6.0.1; KIW-TL00 Build/HONORKIW-TL00) AppleWebKit/537.36 (KHTML, like Gecko) Version/4.0 Chrome/37.0.0.0 Mobile MQQBrowser/6.8 TBS/036849 Safari/537.36 MicroMessenger/6.3.27.880 NetType/WIFI Language/zh_CN'
p124
sg16
S'f6ebc150f5b8c821c5b8f7dea2fd1316'
p125
sa(dp126
g2
S'29102'
p127
sg4
S'888'
p128
sg6
S'fb403b83f955122b546555cfdbde0ebe'
p129
sg8
S'xxa62e5b194283a94899abf195651a1659'
p130
sg10
S'xx72763e39f3b27868a30bf164b8ce8da4'
p131
sg12
S'xxa38b18199ed008b7a72b334a6e0f8566'
p132
sg14
S'Mozilla/5.0 (Linux; Android 6.0.1; KIW-TL00 Build/HONORKIW-TL00) AppleWebKit/537.36 (KHTML, like Gecko) Version/4.0 Chrome/37.0.0.0 Mobile MQQBrowser/6.8 TBS/036849 Safari/537.36 MicroMessenger/6.3.27.880 NetType/WIFI Language/zh_CN'
p133
sg16
S'f6ebc150f5b8c821c5b8f7dea2fd1316'
p134
sa(dp135
g2
S'29102'
p136
sg4
S'907'
p137
sg6
S'fb403b83f955122b546555cfdbde0ebe'
p138
sg8
S'xxa62e5b194283a94899abf195651a1659'
p139
sg10
S'xx72763e39f3b27868a30bf164b8ce8da4'
p140
sg12
S'xxa38b18199ed008b7a72b334a6e0f8566'
p141
sg14
S'Mozilla/5.0 (Linux; Android 6.0.1; KIW-TL00 Build/HONORKIW-TL00) AppleWebKit/537.36 (KHTML, like Gecko) Version/4.0 Chrome/37.0.0.0 Mobile MQQBrowser/6.8 TBS/036849 Safari/537.36 MicroMessenger/6.3.27.880 NetType/WIFI Language/zh_CN'
p142
sg16
S'f6ebc150f5b8c821c5b8f7dea2fd1316'
p143
sa(dp144
g2
S'29102'
p145
sg4
S'923'
p146
sg6
S'fb403b83f955122b546555cfdbde0ebe'
p147
sg8
S'xxa62e5b194283a94899abf195651a1659'
p148
sg10
S'xx72763e39f3b27868a30bf164b8ce8da4'
p149
sg12
S'xxa38b18199ed008b7a72b334a6e0f8566'
p150
sg14
S'Mozilla/5.0 (Linux; Android 6.0.1; KIW-TL00 Build/HONORKIW-TL00) AppleWebKit/537.36 (KHTML, like Gecko) Version/4.0 Chrome/37.0.0.0 Mobile MQQBrowser/6.8 TBS/036849 Safari/537.36 MicroMessenger/6.3.27.880 NetType/WIFI Language/zh_CN'
p151
sg16
S'f6ebc150f5b8c821c5b8f7dea2fd1316'
p152
sa(dp153
g2
S'29102'
p154
sg4
S'996'
p155
sg6
S'fb403b83f955122b546555cfdbde0ebe'
p156
sg8
S'xxa62e5b194283a94899abf195651a1659'
p157
sg10
S'xx72763e39f3b27868a30bf164b8ce8da4'
p158
sg12
S'xxa38b18199ed008b7a72b334a6e0f8566'
p159
sg14
S'Mozilla/5.0 (Linux; Android 6.0.1; KIW-TL00 Build/HONORKIW-TL00) AppleWebKit/537.36 (KHTML, like Gecko) Version/4.0 Chrome/37.0.0.0 Mobile MQQBrowser/6.8 TBS/036849 Safari/537.36 MicroMessenger/6.3.27.880 NetType/WIFI Language/zh_CN'
p160
sg16
S'f6ebc150f5b8c821c5b8f7dea2fd1316'
p161
sa(dp162
g2
S'29102'
p163
sg4
S'1012'
p164
sg6
S'fb403b83f955122b546555cfdbde0ebe'
p165
sg8
S'xxa62e5b194283a94899abf195651a1659'
p166
sg10
S'xx72763e39f3b27868a30bf164b8ce8da4'
p167
sg12
S'xxa38b18199ed008b7a72b334a6e0f8566'
p168
sg14
S'Mozilla/5.0 (Linux; Android 6.0.1; KIW-TL00 Build/HONORKIW-TL00) AppleWebKit/537.36 (KHTML, like Gecko) Version/4.0 Chrome/37.0.0.0 Mobile MQQBrowser/6.8 TBS/036849 Safari/537.36 MicroMessenger/6.3.27.880 NetType/WIFI Language/zh_CN'
p169
sg16
S'f6ebc150f5b8c821c5b8f7dea2fd1316'
p170
sa(dp171
g2
S'29102'
p172
sg4
S'1033'
p173
sg6
S'fb403b83f955122b546555cfdbde0ebe'
p174
sg8
S'xxa62e5b194283a94899abf195651a1659'
p175
sg10
S'xx72763e39f3b27868a30bf164b8ce8da4'
p176
sg12
S'xxa38b18199ed008b7a72b334a6e0f8566'
p177
sg14
S'Mozilla/5.0 (Linux; Android 6.0.1; KIW-TL00 Build/HONORKIW-TL00) AppleWebKit/537.36 (KHTML, like Gecko) Version/4.0 Chrome/37.0.0.0 Mobile MQQBrowser/6.8 TBS/036849 Safari/537.36 MicroMessenger/6.3.27.880 NetType/WIFI Language/zh_CN'
p178
sg16
S'f6ebc150f5b8c821c5b8f7dea2fd1316'
p179
sa(dp180
g2
S'29102'
p181
sg4
S'1052'
p182
sg6
S'fb403b83f955122b546555cfdbde0ebe'
p183
sg8
S'xxa62e5b194283a94899abf195651a1659'
p184
sg10
S'xx72763e39f3b27868a30bf164b8ce8da4'
p185
sg12
S'xxa38b18199ed008b7a72b334a6e0f8566'
p186
sg14
S'Mozilla/5.0 (Linux; Android 6.0.1; KIW-TL00 Build/HONORKIW-TL00) AppleWebKit/537.36 (KHTML, like Gecko) Version/4.0 Chrome/37.0.0.0 Mobile MQQBrowser/6.8 TBS/036849 Safari/537.36 MicroMessenger/6.3.27.880 NetType/WIFI Language/zh_CN'
p187
sg16
S'f6ebc150f5b8c821c5b8f7dea2fd1316'
p188
sa(dp189
g2
S'29102'
p190
sg4
S'1071'
p191
sg6
S'fb403b83f955122b546555cfdbde0ebe'
p192
sg8
S'xxa62e5b194283a94899abf195651a1659'
p193
sg10
S'xx72763e39f3b27868a30bf164b8ce8da4'
p194
sg12
S'xxa38b18199ed008b7a72b334a6e0f8566'
p195
sg14
S'Mozilla/5.0 (Linux; Android 6.0.1; KIW-TL00 Build/HONORKIW-TL00) AppleWebKit/537.36 (KHTML, like Gecko) Version/4.0 Chrome/37.0.0.0 Mobile MQQBrowser/6.8 TBS/036849 Safari/537.36 MicroMessenger/6.3.27.880 NetType/WIFI Language/zh_CN'
p196
sg16
S'f6ebc150f5b8c821c5b8f7dea2fd1316'
p197
sa(dp198
g2
S'29102'
p199
sg4
S'1091'
p200
sg6
S'fb403b83f955122b546555cfdbde0ebe'
p201
sg8
S'xxa62e5b194283a94899abf195651a1659'
p202
sg10
S'xx72763e39f3b27868a30bf164b8ce8da4'
p203
sg12
S'xxa38b18199ed008b7a72b334a6e0f8566'
p204
sg14
S'Mozilla/5.0 (Linux; Android 6.0.1; KIW-TL00 Build/HONORKIW-TL00) AppleWebKit/537.36 (KHTML, like Gecko) Version/4.0 Chrome/37.0.0.0 Mobile MQQBrowser/6.8 TBS/036849 Safari/537.36 MicroMessenger/6.3.27.880 NetType/WIFI Language/zh_CN'
p205
sg16
S'f6ebc150f5b8c821c5b8f7dea2fd1316'
p206
sa(dp207
g2
S'29102'
p208
sg4
S'1107'
p209
sg6
S'fb403b83f955122b546555cfdbde0ebe'
p210
sg8
S'xxa62e5b194283a94899abf195651a1659'
p211
sg10
S'xx72763e39f3b27868a30bf164b8ce8da4'
p212
sg12
S'xxa38b18199ed008b7a72b334a6e0f8566'
p213
sg14
S'Mozilla/5.0 (Linux; Android 6.0.1; KIW-TL00 Build/HONORKIW-TL00) AppleWebKit/537.36 (KHTML, like Gecko) Version/4.0 Chrome/37.0.0.0 Mobile MQQBrowser/6.8 TBS/036849 Safari/537.36 MicroMessenger/6.3.27.880 NetType/WIFI Language/zh_CN'
p214
sg16
S'f6ebc150f5b8c821c5b8f7dea2fd1316'
p215
sa(dp216
g2
S'29102'
p217
sg4
S'1125'
p218
sg6
S'fb403b83f955122b546555cfdbde0ebe'
p219
sg8
S'xxa62e5b194283a94899abf195651a1659'
p220
sg10
S'xx72763e39f3b27868a30bf164b8ce8da4'
p221
sg12
S'xxa38b18199ed008b7a72b334a6e0f8566'
p222
sg14
S'Mozilla/5.0 (Linux; Android 6.0.1; KIW-TL00 Build/HONORKIW-TL00) AppleWebKit/537.36 (KHTML, like Gecko) Version/4.0 Chrome/37.0.0.0 Mobile MQQBrowser/6.8 TBS/036849 Safari/537.36 MicroMessenger/6.3.27.880 NetType/WIFI Language/zh_CN'
p223
sg16
S'f6ebc150f5b8c821c5b8f7dea2fd1316'
p224
sa(dp225
g2
S'29102'
p226
sg4
S'1148'
p227
sg6
S'fb403b83f955122b546555cfdbde0ebe'
p228
sg8
S'xxa62e5b194283a94899abf195651a1659'
p229
sg10
S'xx72763e39f3b27868a30bf164b8ce8da4'
p230
sg12
S'xxa38b18199ed008b7a72b334a6e0f8566'
p231
sg14
S'Mozilla/5.0 (Linux; Android 6.0.1; KIW-TL00 Build/HONORKIW-TL00) AppleWebKit/537.36 (KHTML, like Gecko) Version/4.0 Chrome/37.0.0.0 Mobile MQQBrowser/6.8 TBS/036849 Safari/537.36 MicroMessenger/6.3.27.880 NetType/WIFI Language/zh_CN'
p232
sg16
S'f6ebc150f5b8c821c5b8f7dea2fd1316'
p233
sa(dp234
g2
S'29102'
p235
sg4
S'1166'
p236
sg6
S'fb403b83f955122b546555cfdbde0ebe'
p237
sg8
S'xxa62e5b194283a94899abf195651a1659'
p238
sg10
S'xx72763e39f3b27868a30bf164b8ce8da4'
p239
sg12
S'xxa38b18199ed008b7a72b334a6e0f8566'
p240
sg14
S'Mozilla/5.0 (Linux; Android 6.0.1; KIW-TL00 Build/HONORKIW-TL00) AppleWebKit/537.36 (KHTML, like Gecko) Version/4.0 Chrome/37.0.0.0 Mobile MQQBrowser/6.8 TBS/036849 Safari/537.36 MicroMessenger/6.3.27.880 NetType/WIFI Language/zh_CN'
p241
sg16
S'f6ebc150f5b8c821c5b8f7dea2fd1316'
p242
sa(dp243
g2
S'29102'
p244
sg4
S'1294'
p245
sg6
S'fb403b83f955122b546555cfdbde0ebe'
p246
sg8
S'xxa62e5b194283a94899abf195651a1659'
p247
sg10
S'xx72763e39f3b27868a30bf164b8ce8da4'
p248
sg12
S'xxa38b18199ed008b7a72b334a6e0f8566'
p249
sg14
S'Mozilla/5.0 (Linux; Android 6.0.1; KIW-TL00 Build/HONORKIW-TL00) AppleWebKit/537.36 (KHTML, like Gecko) Version/4.0 Chrome/37.0.0.0 Mobile MQQBrowser/6.8 TBS/036849 Safari/537.36 MicroMessenger/6.3.27.880 NetType/WIFI Language/zh_CN'
p250
sg16
S'f6ebc150f5b8c821c5b8f7dea2fd1316'
p251
sa(dp252
g2
S'29102'
p253
sg4
S'1301'
p254
sg6
S'fb403b83f955122b546555cfdbde0ebe'
p255
sg8
S'xxa62e5b194283a94899abf195651a1659'
p256
sg10
S'xx72763e39f3b27868a30bf164b8ce8da4'
p257
sg12
S'xxa38b18199ed008b7a72b334a6e0f8566'
p258
sg14
S'Mozilla/5.0 (Linux; Android 6.0.1; KIW-TL00 Build/HONORKIW-TL00) AppleWebKit/537.36 (KHTML, like Gecko) Version/4.0 Chrome/37.0.0.0 Mobile MQQBrowser/6.8 TBS/036849 Safari/537.36 MicroMessenger/6.3.27.880 NetType/WIFI Language/zh_CN'
p259
sg16
S'f6ebc150f5b8c821c5b8f7dea2fd1316'
p260
sa(dp261
g2
S'29102'
p262
sg4
S'1327'
p263
sg6
S'fb403b83f955122b546555cfdbde0ebe'
p264
sg8
S'xxa62e5b194283a94899abf195651a1659'
p265
sg10
S'xx72763e39f3b27868a30bf164b8ce8da4'
p266
sg12
S'xxa38b18199ed008b7a72b334a6e0f8566'
p267
sg14
S'Mozilla/5.0 (Linux; Android 6.0.1; KIW-TL00 Build/HONORKIW-TL00) AppleWebKit/537.36 (KHTML, like Gecko) Version/4.0 Chrome/37.0.0.0 Mobile MQQBrowser/6.8 TBS/036849 Safari/537.36 MicroMessenger/6.3.27.880 NetType/WIFI Language/zh_CN'
p268
sg16
S'f6ebc150f5b8c821c5b8f7dea2fd1316'
p269
sa(dp270
g2
S'29102'
p271
sg4
S'1340'
p272
sg6
S'fb403b83f955122b546555cfdbde0ebe'
p273
sg8
S'xxa62e5b194283a94899abf195651a1659'
p274
sg10
S'xx72763e39f3b27868a30bf164b8ce8da4'
p275
sg12
S'xxa38b18199ed008b7a72b334a6e0f8566'
p276
sg14
S'Mozilla/5.0 (Linux; Android 6.0.1; KIW-TL00 Build/HONORKIW-TL00) AppleWebKit/537.36 (KHTML, like Gecko) Version/4.0 Chrome/37.0.0.0 Mobile MQQBrowser/6.8 TBS/036849 Safari/537.36 MicroMessenger/6.3.27.880 NetType/WIFI Language/zh_CN'
p277
sg16
S'f6ebc150f5b8c821c5b8f7dea2fd1316'
p278
sa(dp279
g2
S'29102'
p280
sg4
S'1380'
p281
sg6
S'fb403b83f955122b546555cfdbde0ebe'
p282
sg8
S'xxa62e5b194283a94899abf195651a1659'
p283
sg10
S'xx72763e39f3b27868a30bf164b8ce8da4'
p284
sg12
S'xxa38b18199ed008b7a72b334a6e0f8566'
p285
sg14
S'Mozilla/5.0 (Linux; Android 6.0.1; KIW-TL00 Build/HONORKIW-TL00) AppleWebKit/537.36 (KHTML, like Gecko) Version/4.0 Chrome/37.0.0.0 Mobile MQQBrowser/6.8 TBS/036849 Safari/537.36 MicroMessenger/6.3.27.880 NetType/WIFI Language/zh_CN'
p286
sg16
S'f6ebc150f5b8c821c5b8f7dea2fd1316'
p287
sa(dp288
g2
S'29102'
p289
sg4
S'1536'
p290
sg6
S'fb403b83f955122b546555cfdbde0ebe'
p291
sg8
S'xxa62e5b194283a94899abf195651a1659'
p292
sg10
S'xx72763e39f3b27868a30bf164b8ce8da4'
p293
sg12
S'xxa38b18199ed008b7a72b334a6e0f8566'
p294
sg14
S'Mozilla/5.0 (Linux; Android 6.0.1; KIW-TL00 Build/HONORKIW-TL00) AppleWebKit/537.36 (KHTML, like Gecko) Version/4.0 Chrome/37.0.0.0 Mobile MQQBrowser/6.8 TBS/036849 Safari/537.36 MicroMessenger/6.3.27.880 NetType/WIFI Language/zh_CN'
p295
sg16
S'f6ebc150f5b8c821c5b8f7dea2fd1316'
p296
sa(dp297
g2
S'29102'
p298
sg4
S'1744'
p299
sg6
S'fb403b83f955122b546555cfdbde0ebe'
p300
sg8
S'xxa62e5b194283a94899abf195651a1659'
p301
sg10
S'xx72763e39f3b27868a30bf164b8ce8da4'
p302
sg12
S'xxa38b18199ed008b7a72b334a6e0f8566'
p303
sg14
S'Mozilla/5.0 (Linux; Android 6.0.1; KIW-TL00 Build/HONORKIW-TL00) AppleWebKit/537.36 (KHTML, like Gecko) Version/4.0 Chrome/37.0.0.0 Mobile MQQBrowser/6.8 TBS/036849 Safari/537.36 MicroMessenger/6.3.27.880 NetType/WIFI Language/zh_CN'
p304
sg16
S'f6ebc150f5b8c821c5b8f7dea2fd1316'
p305
sa(dp306
g2
S'29102'
p307
sg4
S'1762'
p308
sg6
S'fb403b83f955122b546555cfdbde0ebe'
p309
sg8
S'xxa62e5b194283a94899abf195651a1659'
p310
sg10
S'xx72763e39f3b27868a30bf164b8ce8da4'
p311
sg12
S'xxa38b18199ed008b7a72b334a6e0f8566'
p312
sg14
S'Mozilla/5.0 (Linux; Android 6.0.1; KIW-TL00 Build/HONORKIW-TL00) AppleWebKit/537.36 (KHTML, like Gecko) Version/4.0 Chrome/37.0.0.0 Mobile MQQBrowser/6.8 TBS/036849 Safari/537.36 MicroMessenger/6.3.27.880 NetType/WIFI Language/zh_CN'
p313
sg16
S'f6ebc150f5b8c821c5b8f7dea2fd1316'
p314
sa(dp315
g2
S'29102'
p316
sg4
S'1791'
p317
sg6
S'fb403b83f955122b546555cfdbde0ebe'
p318
sg8
S'xxa62e5b194283a94899abf195651a1659'
p319
sg10
S'xx72763e39f3b27868a30bf164b8ce8da4'
p320
sg12
S'xxa38b18199ed008b7a72b334a6e0f8566'
p321
sg14
S'Mozilla/5.0 (Linux; Android 6.0.1; KIW-TL00 Build/HONORKIW-TL00) AppleWebKit/537.36 (KHTML, like Gecko) Version/4.0 Chrome/37.0.0.0 Mobile MQQBrowser/6.8 TBS/036849 Safari/537.36 MicroMessenger/6.3.27.880 NetType/WIFI Language/zh_CN'
p322
sg16
S'f6ebc150f5b8c821c5b8f7dea2fd1316'
p323
sa(dp324
g2
S'29102'
p325
sg4
S'1805'
p326
sg6
S'fb403b83f955122b546555cfdbde0ebe'
p327
sg8
S'xxa62e5b194283a94899abf195651a1659'
p328
sg10
S'xx72763e39f3b27868a30bf164b8ce8da4'
p329
sg12
S'xxa38b18199ed008b7a72b334a6e0f8566'
p330
sg14
S'Mozilla/5.0 (Linux; Android 6.0.1; KIW-TL00 Build/HONORKIW-TL00) AppleWebKit/537.36 (KHTML, like Gecko) Version/4.0 Chrome/37.0.0.0 Mobile MQQBrowser/6.8 TBS/036849 Safari/537.36 MicroMessenger/6.3.27.880 NetType/WIFI Language/zh_CN'
p331
sg16
S'f6ebc150f5b8c821c5b8f7dea2fd1316'
p332
sa(dp333
g2
S'43466'
p334
sg4
S'3677'
p335
sg6
S'fca8f5236f19ebce72d5785aa76f8758'
p336
sg8
S'xx9a6ec1b278a8bd9e953a9de19029354c'
p337
sg10
S'xxf4cb082a68851e39083e9eba01fb0da9'
p338
sg12
S'xxa38b18199ed008b7a72b334a6e0f8566'
p339
sg14
S'Mozilla/5.0 (Linux; Android 6.0.1; KIW-TL00 Build/HONORKIW-TL00) AppleWebKit/537.36 (KHTML, like Gecko) Version/4.0 Chrome/37.0.0.0 Mobile MQQBrowser/6.8 TBS/036849 Safari/537.36 MicroMessenger/6.3.27.880 NetType/WIFI Language/zh_CN'
p340
sg16
S'f6ebc150f5b8c821c5b8f7dea2fd1316'
p341
sa(dp342
g2
S'43466'
p343
sg4
S'3689'
p344
sg6
S'fca8f5236f19ebce72d5785aa76f8758'
p345
sg8
S'xx9a6ec1b278a8bd9e953a9de19029354c'
p346
sg10
S'xxf4cb082a68851e39083e9eba01fb0da9'
p347
sg12
S'xxa38b18199ed008b7a72b334a6e0f8566'
p348
sg14
S'Mozilla/5.0 (Linux; Android 6.0.1; KIW-TL00 Build/HONORKIW-TL00) AppleWebKit/537.36 (KHTML, like Gecko) Version/4.0 Chrome/37.0.0.0 Mobile MQQBrowser/6.8 TBS/036849 Safari/537.36 MicroMessenger/6.3.27.880 NetType/WIFI Language/zh_CN'
p349
sg16
S'f6ebc150f5b8c821c5b8f7dea2fd1316'
p350
sa(dp351
g2
S'43466'
p352
sg4
S'3706'
p353
sg6
S'fca8f5236f19ebce72d5785aa76f8758'
p354
sg8
S'xx9a6ec1b278a8bd9e953a9de19029354c'
p355
sg10
S'xxf4cb082a68851e39083e9eba01fb0da9'
p356
sg12
S'xxa38b18199ed008b7a72b334a6e0f8566'
p357
sg14
S'Mozilla/5.0 (Linux; Android 6.0.1; KIW-TL00 Build/HONORKIW-TL00) AppleWebKit/537.36 (KHTML, like Gecko) Version/4.0 Chrome/37.0.0.0 Mobile MQQBrowser/6.8 TBS/036849 Safari/537.36 MicroMessenger/6.3.27.880 NetType/WIFI Language/zh_CN'
p358
sg16
S'f6ebc150f5b8c821c5b8f7dea2fd1316'
p359
sa(dp360
g2
S'43466'
p361
sg4
S'3723'
p362
sg6
S'fca8f5236f19ebce72d5785aa76f8758'
p363
sg8
S'xx9a6ec1b278a8bd9e953a9de19029354c'
p364
sg10
S'xxf4cb082a68851e39083e9eba01fb0da9'
p365
sg12
S'xxa38b18199ed008b7a72b334a6e0f8566'
p366
sg14
S'Mozilla/5.0 (Linux; Android 6.0.1; KIW-TL00 Build/HONORKIW-TL00) AppleWebKit/537.36 (KHTML, like Gecko) Version/4.0 Chrome/37.0.0.0 Mobile MQQBrowser/6.8 TBS/036849 Safari/537.36 MicroMessenger/6.3.27.880 NetType/WIFI Language/zh_CN'
p367
sg16
S'f6ebc150f5b8c821c5b8f7dea2fd1316'
p368
sa(dp369
g2
S'43466'
p370
sg4
S'3740'
p371
sg6
S'fca8f5236f19ebce72d5785aa76f8758'
p372
sg8
S'xx9a6ec1b278a8bd9e953a9de19029354c'
p373
sg10
S'xxf4cb082a68851e39083e9eba01fb0da9'
p374
sg12
S'xxa38b18199ed008b7a72b334a6e0f8566'
p375
sg14
S'Mozilla/5.0 (Linux; Android 6.0.1; KIW-TL00 Build/HONORKIW-TL00) AppleWebKit/537.36 (KHTML, like Gecko) Version/4.0 Chrome/37.0.0.0 Mobile MQQBrowser/6.8 TBS/036849 Safari/537.36 MicroMessenger/6.3.27.880 NetType/WIFI Language/zh_CN'
p376
sg16
S'f6ebc150f5b8c821c5b8f7dea2fd1316'
p377
sa(dp378
g2
S'43466'
p379
sg4
S'3791'
p380
sg6
S'fca8f5236f19ebce72d5785aa76f8758'
p381
sg8
S'xx9a6ec1b278a8bd9e953a9de19029354c'
p382
sg10
S'xxf4cb082a68851e39083e9eba01fb0da9'
p383
sg12
S'xxa38b18199ed008b7a72b334a6e0f8566'
p384
sg14
S'Mozilla/5.0 (Linux; Android 6.0.1; KIW-TL00 Build/HONORKIW-TL00) AppleWebKit/537.36 (KHTML, like Gecko) Version/4.0 Chrome/37.0.0.0 Mobile MQQBrowser/6.8 TBS/036849 Safari/537.36 MicroMessenger/6.3.27.880 NetType/WIFI Language/zh_CN'
p385
sg16
S'f6ebc150f5b8c821c5b8f7dea2fd1316'
p386
sa(dp387
g2
S'43466'
p388
sg4
S'3805'
p389
sg6
S'fca8f5236f19ebce72d5785aa76f8758'
p390
sg8
S'xx9a6ec1b278a8bd9e953a9de19029354c'
p391
sg10
S'xxf4cb082a68851e39083e9eba01fb0da9'
p392
sg12
S'xxa38b18199ed008b7a72b334a6e0f8566'
p393
sg14
S'Mozilla/5.0 (Linux; Android 6.0.1; KIW-TL00 Build/HONORKIW-TL00) AppleWebKit/537.36 (KHTML, like Gecko) Version/4.0 Chrome/37.0.0.0 Mobile MQQBrowser/6.8 TBS/036849 Safari/537.36 MicroMessenger/6.3.27.880 NetType/WIFI Language/zh_CN'
p394
sg16
S'f6ebc150f5b8c821c5b8f7dea2fd1316'
p395
sa(dp396
g2
S'43466'
p397
sg4
S'3824'
p398
sg6
S'fca8f5236f19ebce72d5785aa76f8758'
p399
sg8
S'xx9a6ec1b278a8bd9e953a9de19029354c'
p400
sg10
S'xxf4cb082a68851e39083e9eba01fb0da9'
p401
sg12
S'xxa38b18199ed008b7a72b334a6e0f8566'
p402
sg14
S'Mozilla/5.0 (Linux; Android 6.0.1; KIW-TL00 Build/HONORKIW-TL00) AppleWebKit/537.36 (KHTML, like Gecko) Version/4.0 Chrome/37.0.0.0 Mobile MQQBrowser/6.8 TBS/036849 Safari/537.36 MicroMessenger/6.3.27.880 NetType/WIFI Language/zh_CN'
p403
sg16
S'f6ebc150f5b8c821c5b8f7dea2fd1316'
p404
sa(dp405
g2
S'43466'
p406
sg4
S'3846'
p407
sg6
S'fca8f5236f19ebce72d5785aa76f8758'
p408
sg8
S'xx9a6ec1b278a8bd9e953a9de19029354c'
p409
sg10
S'xxf4cb082a68851e39083e9eba01fb0da9'
p410
sg12
S'xxa38b18199ed008b7a72b334a6e0f8566'
p411
sg14
S'Mozilla/5.0 (Linux; Android 6.0.1; KIW-TL00 Build/HONORKIW-TL00) AppleWebKit/537.36 (KHTML, like Gecko) Version/4.0 Chrome/37.0.0.0 Mobile MQQBrowser/6.8 TBS/036849 Safari/537.36 MicroMessenger/6.3.27.880 NetType/WIFI Language/zh_CN'
p412
sg16
S'f6ebc150f5b8c821c5b8f7dea2fd1316'
p413
sa(dp414
g2
S'43466'
p415
sg4
S'3865'
p416
sg6
S'fca8f5236f19ebce72d5785aa76f8758'
p417
sg8
S'xx9a6ec1b278a8bd9e953a9de19029354c'
p418
sg10
S'xxf4cb082a68851e39083e9eba01fb0da9'
p419
sg12
S'xxa38b18199ed008b7a72b334a6e0f8566'
p420
sg14
S'Mozilla/5.0 (Linux; Android 6.0.1; KIW-TL00 Build/HONORKIW-TL00) AppleWebKit/537.36 (KHTML, like Gecko) Version/4.0 Chrome/37.0.0.0 Mobile MQQBrowser/6.8 TBS/036849 Safari/537.36 MicroMessenger/6.3.27.880 NetType/WIFI Language/zh_CN'
p421
sg16
S'f6ebc150f5b8c821c5b8f7dea2fd1316'
p422
sa(dp423
g2
S'43466'
p424
sg4
S'3885'
p425
sg6
S'fca8f5236f19ebce72d5785aa76f8758'
p426
sg8
S'xx9a6ec1b278a8bd9e953a9de19029354c'
p427
sg10
S'xxf4cb082a68851e39083e9eba01fb0da9'
p428
sg12
S'xxa38b18199ed008b7a72b334a6e0f8566'
p429
sg14
S'Mozilla/5.0 (Linux; Android 6.0.1; KIW-TL00 Build/HONORKIW-TL00) AppleWebKit/537.36 (KHTML, like Gecko) Version/4.0 Chrome/37.0.0.0 Mobile MQQBrowser/6.8 TBS/036849 Safari/537.36 MicroMessenger/6.3.27.880 NetType/WIFI Language/zh_CN'
p430
sg16
S'f6ebc150f5b8c821c5b8f7dea2fd1316'
p431
sa(dp432
g2
S'43466'
p433
sg4
S'3908'
p434
sg6
S'fca8f5236f19ebce72d5785aa76f8758'
p435
sg8
S'xx9a6ec1b278a8bd9e953a9de19029354c'
p436
sg10
S'xxf4cb082a68851e39083e9eba01fb0da9'
p437
sg12
S'xxa38b18199ed008b7a72b334a6e0f8566'
p438
sg14
S'Mozilla/5.0 (Linux; Android 6.0.1; KIW-TL00 Build/HONORKIW-TL00) AppleWebKit/537.36 (KHTML, like Gecko) Version/4.0 Chrome/37.0.0.0 Mobile MQQBrowser/6.8 TBS/036849 Safari/537.36 MicroMessenger/6.3.27.880 NetType/WIFI Language/zh_CN'
p439
sg16
S'f6ebc150f5b8c821c5b8f7dea2fd1316'
p440
sa(dp441
g2
S'43466'
p442
sg4
S'3928'
p443
sg6
S'fca8f5236f19ebce72d5785aa76f8758'
p444
sg8
S'xx9a6ec1b278a8bd9e953a9de19029354c'
p445
sg10
S'xxf4cb082a68851e39083e9eba01fb0da9'
p446
sg12
S'xxa38b18199ed008b7a72b334a6e0f8566'
p447
sg14
S'Mozilla/5.0 (Linux; Android 6.0.1; KIW-TL00 Build/HONORKIW-TL00) AppleWebKit/537.36 (KHTML, like Gecko) Version/4.0 Chrome/37.0.0.0 Mobile MQQBrowser/6.8 TBS/036849 Safari/537.36 MicroMessenger/6.3.27.880 NetType/WIFI Language/zh_CN'
p448
sg16
S'f6ebc150f5b8c821c5b8f7dea2fd1316'
p449
sa(dp450
g2
S'43466'
p451
sg4
S'3949'
p452
sg6
S'fca8f5236f19ebce72d5785aa76f8758'
p453
sg8
S'xx9a6ec1b278a8bd9e953a9de19029354c'
p454
sg10
S'xxf4cb082a68851e39083e9eba01fb0da9'
p455
sg12
S'xxa38b18199ed008b7a72b334a6e0f8566'
p456
sg14
S'Mozilla/5.0 (Linux; Android 6.0.1; KIW-TL00 Build/HONORKIW-TL00) AppleWebKit/537.36 (KHTML, like Gecko) Version/4.0 Chrome/37.0.0.0 Mobile MQQBrowser/6.8 TBS/036849 Safari/537.36 MicroMessenger/6.3.27.880 NetType/WIFI Language/zh_CN'
p457
sg16
S'f6ebc150f5b8c821c5b8f7dea2fd1316'
p458
sa(dp459
g2
S'43466'
p460
sg4
S'3965'
p461
sg6
S'fca8f5236f19ebce72d5785aa76f8758'
p462
sg8
S'xx9a6ec1b278a8bd9e953a9de19029354c'
p463
sg10
S'xxf4cb082a68851e39083e9eba01fb0da9'
p464
sg12
S'xxa38b18199ed008b7a72b334a6e0f8566'
p465
sg14
S'Mozilla/5.0 (Linux; Android 6.0.1; KIW-TL00 Build/HONORKIW-TL00) AppleWebKit/537.36 (KHTML, like Gecko) Version/4.0 Chrome/37.0.0.0 Mobile MQQBrowser/6.8 TBS/036849 Safari/537.36 MicroMessenger/6.3.27.880 NetType/WIFI Language/zh_CN'
p466
sg16
S'f6ebc150f5b8c821c5b8f7dea2fd1316'
p467
sa(dp468
g2
S'43466'
p469
sg4
S'3982'
p470
sg6
S'fca8f5236f19ebce72d5785aa76f8758'
p471
sg8
S'xx9a6ec1b278a8bd9e953a9de19029354c'
p472
sg10
S'xxf4cb082a68851e39083e9eba01fb0da9'
p473
sg12
S'xxa38b18199ed008b7a72b334a6e0f8566'
p474
sg14
S'Mozilla/5.0 (Linux; Android 6.0.1; KIW-TL00 Build/HONORKIW-TL00) AppleWebKit/537.36 (KHTML, like Gecko) Version/4.0 Chrome/37.0.0.0 Mobile MQQBrowser/6.8 TBS/036849 Safari/537.36 MicroMessenger/6.3.27.880 NetType/WIFI Language/zh_CN'
p475
sg16
S'f6ebc150f5b8c821c5b8f7dea2fd1316'
p476
sa(dp477
g2
S'43466'
p478
sg4
S'3999'
p479
sg6
S'fca8f5236f19ebce72d5785aa76f8758'
p480
sg8
S'xx9a6ec1b278a8bd9e953a9de19029354c'
p481
sg10
S'xxf4cb082a68851e39083e9eba01fb0da9'
p482
sg12
S'xxa38b18199ed008b7a72b334a6e0f8566'
p483
sg14
S'Mozilla/5.0 (Linux; Android 6.0.1; KIW-TL00 Build/HONORKIW-TL00) AppleWebKit/537.36 (KHTML, like Gecko) Version/4.0 Chrome/37.0.0.0 Mobile MQQBrowser/6.8 TBS/036849 Safari/537.36 MicroMessenger/6.3.27.880 NetType/WIFI Language/zh_CN'
p484
sg16
S'f6ebc150f5b8c821c5b8f7dea2fd1316'
p485
sa(dp486
g2
S'43466'
p487
sg4
S'4013'
p488
sg6
S'fca8f5236f19ebce72d5785aa76f8758'
p489
sg8
S'xx9a6ec1b278a8bd9e953a9de19029354c'
p490
sg10
S'xxf4cb082a68851e39083e9eba01fb0da9'
p491
sg12
S'xxa38b18199ed008b7a72b334a6e0f8566'
p492
sg14
S'Mozilla/5.0 (Linux; Android 6.0.1; KIW-TL00 Build/HONORKIW-TL00) AppleWebKit/537.36 (KHTML, like Gecko) Version/4.0 Chrome/37.0.0.0 Mobile MQQBrowser/6.8 TBS/036849 Safari/537.36 MicroMessenger/6.3.27.880 NetType/WIFI Language/zh_CN'
p493
sg16
S'f6ebc150f5b8c821c5b8f7dea2fd1316'
p494
sa(dp495
g2
S'43466'
p496
sg4
S'4030'
p497
sg6
S'fca8f5236f19ebce72d5785aa76f8758'
p498
sg8
S'xx9a6ec1b278a8bd9e953a9de19029354c'
p499
sg10
S'xxf4cb082a68851e39083e9eba01fb0da9'
p500
sg12
S'xxa38b18199ed008b7a72b334a6e0f8566'
p501
sg14
S'Mozilla/5.0 (Linux; Android 6.0.1; KIW-TL00 Build/HONORKIW-TL00) AppleWebKit/537.36 (KHTML, like Gecko) Version/4.0 Chrome/37.0.0.0 Mobile MQQBrowser/6.8 TBS/036849 Safari/537.36 MicroMessenger/6.3.27.880 NetType/WIFI Language/zh_CN'
p502
sg16
S'f6ebc150f5b8c821c5b8f7dea2fd1316'
p503
sa(dp504
g2
S'43466'
p505
sg4
S'4045'
p506
sg6
S'fca8f5236f19ebce72d5785aa76f8758'
p507
sg8
S'xx9a6ec1b278a8bd9e953a9de19029354c'
p508
sg10
S'xxf4cb082a68851e39083e9eba01fb0da9'
p509
sg12
S'xxa38b18199ed008b7a72b334a6e0f8566'
p510
sg14
S'Mozilla/5.0 (Linux; Android 6.0.1; KIW-TL00 Build/HONORKIW-TL00) AppleWebKit/537.36 (KHTML, like Gecko) Version/4.0 Chrome/37.0.0.0 Mobile MQQBrowser/6.8 TBS/036849 Safari/537.36 MicroMessenger/6.3.27.880 NetType/WIFI Language/zh_CN'
p511
sg16
S'f6ebc150f5b8c821c5b8f7dea2fd1316'
p512
sa(dp513
g2
S'43466'
p514
sg4
S'4067'
p515
sg6
S'fca8f5236f19ebce72d5785aa76f8758'
p516
sg8
S'xx9a6ec1b278a8bd9e953a9de19029354c'
p517
sg10
S'xxf4cb082a68851e39083e9eba01fb0da9'
p518
sg12
S'xxa38b18199ed008b7a72b334a6e0f8566'
p519
sg14
S'Mozilla/5.0 (Linux; Android 6.0.1; KIW-TL00 Build/HONORKIW-TL00) AppleWebKit/537.36 (KHTML, like Gecko) Version/4.0 Chrome/37.0.0.0 Mobile MQQBrowser/6.8 TBS/036849 Safari/537.36 MicroMessenger/6.3.27.880 NetType/WIFI Language/zh_CN'
p520
sg16
S'f6ebc150f5b8c821c5b8f7dea2fd1316'
p521
sa(dp522
g2
S'43466'
p523
sg4
S'4107'
p524
sg6
S'fca8f5236f19ebce72d5785aa76f8758'
p525
sg8
S'xx9a6ec1b278a8bd9e953a9de19029354c'
p526
sg10
S'xxf4cb082a68851e39083e9eba01fb0da9'
p527
sg12
S'xxa38b18199ed008b7a72b334a6e0f8566'
p528
sg14
S'Mozilla/5.0 (Linux; Android 6.0.1; KIW-TL00 Build/HONORKIW-TL00) AppleWebKit/537.36 (KHTML, like Gecko) Version/4.0 Chrome/37.0.0.0 Mobile MQQBrowser/6.8 TBS/036849 Safari/537.36 MicroMessenger/6.3.27.880 NetType/WIFI Language/zh_CN'
p529
sg16
S'f6ebc150f5b8c821c5b8f7dea2fd1316'
p530
sa(dp531
g2
S'43466'
p532
sg4
S'4145'
p533
sg6
S'fca8f5236f19ebce72d5785aa76f8758'
p534
sg8
S'xx9a6ec1b278a8bd9e953a9de19029354c'
p535
sg10
S'xxf4cb082a68851e39083e9eba01fb0da9'
p536
sg12
S'xxa38b18199ed008b7a72b334a6e0f8566'
p537
sg14
S'Mozilla/5.0 (Linux; Android 6.0.1; KIW-TL00 Build/HONORKIW-TL00) AppleWebKit/537.36 (KHTML, like Gecko) Version/4.0 Chrome/37.0.0.0 Mobile MQQBrowser/6.8 TBS/036849 Safari/537.36 MicroMessenger/6.3.27.880 NetType/WIFI Language/zh_CN'
p538
sg16
S'f6ebc150f5b8c821c5b8f7dea2fd1316'
p539
sa.