(lp0
(dp1
S'user_id'
p2
S'49768'
p3
sS'data_id'
p4
S'2912'
p5
sS'ip'
p6
S'ddcaa6b23e1feafe6cad41f0f4bed22c'
p7
sS'phone_B'
p8
S'xx29502472ccefa545c270a5f5efa28c7b'
p9
sS'phone_C'
p10
S'xx15f02ec2b91d9276089fef5e73cf6b28'
p11
sS'phone_A'
p12
S'xxa42c1fa3b7370c0d797b1798c1701d07'
p13
sS'user_agent'
p14
S'Mozilla/5.0 (Linux; Android 5.0; R7Plus Build/LRX21M) AppleWebKit/537.36 (KHTML, like Gecko) Version/4.0 Chrome/37.0.0.0 Mobile MQQBrowser/6.8 TBS/036849 Safari/537.36 MicroMessenger/6.3.27.880 NetType/cmnet Language/zh_CN'
p15
sS'ua'
p16
S'f7b2864c1adf9e76310677e1db6050db'
p17
sa(dp18
g2
S'49768'
p19
sg4
S'2924'
p20
sg6
S'ddcaa6b23e1feafe6cad41f0f4bed22c'
p21
sg8
S'xx29502472ccefa545c270a5f5efa28c7b'
p22
sg10
S'xx15f02ec2b91d9276089fef5e73cf6b28'
p23
sg12
S'xxa42c1fa3b7370c0d797b1798c1701d07'
p24
sg14
S'Mozilla/5.0 (Linux; Android 5.0; R7Plus Build/LRX21M) AppleWebKit/537.36 (KHTML, like Gecko) Version/4.0 Chrome/37.0.0.0 Mobile MQQBrowser/6.8 TBS/036849 Safari/537.36 MicroMessenger/6.3.27.880 NetType/cmnet Language/zh_CN'
p25
sg16
S'f7b2864c1adf9e76310677e1db6050db'
p26
sa(dp27
g2
S'22176'
p28
sg4
S'4158'
p29
sg6
S'9e66f6996454a811fc1bb4f2e06d5db5'
p30
sg8
S'xx29502472ccefa545c270a5f5efa28c7b'
p31
sg10
S'xx15f02ec2b91d9276089fef5e73cf6b28'
p32
sg12
S'xxa42c1fa3b7370c0d797b1798c1701d07'
p33
sg14
S'Mozilla/5.0 (Linux; Android 5.0; R7Plus Build/LRX21M) AppleWebKit/537.36 (KHTML, like Gecko) Version/4.0 Chrome/37.0.0.0 Mobile MQQBrowser/6.8 TBS/036849 Safari/537.36 MicroMessenger/6.3.27.880 NetType/cmnet Language/zh_CN'
p34
sg16
S'f7b2864c1adf9e76310677e1db6050db'
p35
sa(dp36
g2
S'22176'
p37
sg4
S'4246'
p38
sg6
S'9e66f6996454a811fc1bb4f2e06d5db5'
p39
sg8
S'xx29502472ccefa545c270a5f5efa28c7b'
p40
sg10
S'xx15f02ec2b91d9276089fef5e73cf6b28'
p41
sg12
S'xxa42c1fa3b7370c0d797b1798c1701d07'
p42
sg14
S'Mozilla/5.0 (Linux; Android 5.0; R7Plus Build/LRX21M) AppleWebKit/537.36 (KHTML, like Gecko) Version/4.0 Chrome/37.0.0.0 Mobile MQQBrowser/6.8 TBS/036849 Safari/537.36 MicroMessenger/6.3.27.880 NetType/cmnet Language/zh_CN'
p43
sg16
S'f7b2864c1adf9e76310677e1db6050db'
p44
sa(dp45
g2
S'22176'
p46
sg4
S'4269'
p47
sg6
S'9e66f6996454a811fc1bb4f2e06d5db5'
p48
sg8
S'xx29502472ccefa545c270a5f5efa28c7b'
p49
sg10
S'xx15f02ec2b91d9276089fef5e73cf6b28'
p50
sg12
S'xxa42c1fa3b7370c0d797b1798c1701d07'
p51
sg14
S'Mozilla/5.0 (Linux; Android 5.0; R7Plus Build/LRX21M) AppleWebKit/537.36 (KHTML, like Gecko) Version/4.0 Chrome/37.0.0.0 Mobile MQQBrowser/6.8 TBS/036849 Safari/537.36 MicroMessenger/6.3.27.880 NetType/cmnet Language/zh_CN'
p52
sg16
S'f7b2864c1adf9e76310677e1db6050db'
p53
sa(dp54
g2
S'22176'
p55
sg4
S'4283'
p56
sg6
S'9e66f6996454a811fc1bb4f2e06d5db5'
p57
sg8
S'xx29502472ccefa545c270a5f5efa28c7b'
p58
sg10
S'xx15f02ec2b91d9276089fef5e73cf6b28'
p59
sg12
S'xxa42c1fa3b7370c0d797b1798c1701d07'
p60
sg14
S'Mozilla/5.0 (Linux; Android 5.0; R7Plus Build/LRX21M) AppleWebKit/537.36 (KHTML, like Gecko) Version/4.0 Chrome/37.0.0.0 Mobile MQQBrowser/6.8 TBS/036849 Safari/537.36 MicroMessenger/6.3.27.880 NetType/cmnet Language/zh_CN'
p61
sg16
S'f7b2864c1adf9e76310677e1db6050db'
p62
sa(dp63
g2
S'22176'
p64
sg4
S'4300'
p65
sg6
S'9e66f6996454a811fc1bb4f2e06d5db5'
p66
sg8
S'xx29502472ccefa545c270a5f5efa28c7b'
p67
sg10
S'xx15f02ec2b91d9276089fef5e73cf6b28'
p68
sg12
S'xxa42c1fa3b7370c0d797b1798c1701d07'
p69
sg14
S'Mozilla/5.0 (Linux; Android 5.0; R7Plus Build/LRX21M) AppleWebKit/537.36 (KHTML, like Gecko) Version/4.0 Chrome/37.0.0.0 Mobile MQQBrowser/6.8 TBS/036849 Safari/537.36 MicroMessenger/6.3.27.880 NetType/cmnet Language/zh_CN'
p70
sg16
S'f7b2864c1adf9e76310677e1db6050db'
p71
sa(dp72
g2
S'22176'
p73
sg4
S'4433'
p74
sg6
S'9e66f6996454a811fc1bb4f2e06d5db5'
p75
sg8
S'xx29502472ccefa545c270a5f5efa28c7b'
p76
sg10
S'xx15f02ec2b91d9276089fef5e73cf6b28'
p77
sg12
S'xxa42c1fa3b7370c0d797b1798c1701d07'
p78
sg14
S'Mozilla/5.0 (Linux; Android 5.0; R7Plus Build/LRX21M) AppleWebKit/537.36 (KHTML, like Gecko) Version/4.0 Chrome/37.0.0.0 Mobile MQQBrowser/6.8 TBS/036849 Safari/537.36 MicroMessenger/6.3.27.880 NetType/cmnet Language/zh_CN'
p79
sg16
S'f7b2864c1adf9e76310677e1db6050db'
p80
sa(dp81
g2
S'46452'
p82
sg4
S'4444'
p83
sg6
S'a18c26d9021a13a196df021c19b76578'
p84
sg8
S'xxee86d769c94ca44a8788020629152fdc'
p85
sg10
S'xxda3e5446895fd49bf4a97200bf96a0f0'
p86
sg12
S'xxa42c1fa3b7370c0d797b1798c1701d07'
p87
sg14
S'Mozilla/5.0 (Linux; Android 5.0; R7Plus Build/LRX21M) AppleWebKit/537.36 (KHTML, like Gecko) Version/4.0 Chrome/37.0.0.0 Mobile MQQBrowser/6.8 TBS/036849 Safari/537.36 MicroMessenger/6.3.27.880 NetType/cmnet Language/zh_CN'
p88
sg16
S'f7b2864c1adf9e76310677e1db6050db'
p89
sa(dp90
g2
S'22176'
p91
sg4
S'4449'
p92
sg6
S'9e66f6996454a811fc1bb4f2e06d5db5'
p93
sg8
S'xx29502472ccefa545c270a5f5efa28c7b'
p94
sg10
S'xx15f02ec2b91d9276089fef5e73cf6b28'
p95
sg12
S'xxa42c1fa3b7370c0d797b1798c1701d07'
p96
sg14
S'Mozilla/5.0 (Linux; Android 5.0; R7Plus Build/LRX21M) AppleWebKit/537.36 (KHTML, like Gecko) Version/4.0 Chrome/37.0.0.0 Mobile MQQBrowser/6.8 TBS/036849 Safari/537.36 MicroMessenger/6.3.27.880 NetType/cmnet Language/zh_CN'
p97
sg16
S'f7b2864c1adf9e76310677e1db6050db'
p98
sa(dp99
g2
S'46452'
p100
sg4
S'4462'
p101
sg6
S'a18c26d9021a13a196df021c19b76578'
p102
sg8
S'xxee86d769c94ca44a8788020629152fdc'
p103
sg10
S'xxda3e5446895fd49bf4a97200bf96a0f0'
p104
sg12
S'xxa42c1fa3b7370c0d797b1798c1701d07'
p105
sg14
S'Mozilla/5.0 (Linux; Android 5.0; R7Plus Build/LRX21M) AppleWebKit/537.36 (KHTML, like Gecko) Version/4.0 Chrome/37.0.0.0 Mobile MQQBrowser/6.8 TBS/036849 Safari/537.36 MicroMessenger/6.3.27.880 NetType/cmnet Language/zh_CN'
p106
sg16
S'f7b2864c1adf9e76310677e1db6050db'
p107
sa(dp108
g2
S'46452'
p109
sg4
S'4534'
p110
sg6
S'a18c26d9021a13a196df021c19b76578'
p111
sg8
S'xxee86d769c94ca44a8788020629152fdc'
p112
sg10
S'xxda3e5446895fd49bf4a97200bf96a0f0'
p113
sg12
S'xxa42c1fa3b7370c0d797b1798c1701d07'
p114
sg14
S'Mozilla/5.0 (Linux; Android 5.0; R7Plus Build/LRX21M) AppleWebKit/537.36 (KHTML, like Gecko) Version/4.0 Chrome/37.0.0.0 Mobile MQQBrowser/6.8 TBS/036849 Safari/537.36 MicroMessenger/6.3.27.880 NetType/cmnet Language/zh_CN'
p115
sg16
S'f7b2864c1adf9e76310677e1db6050db'
p116
sa(dp117
g2
S'46452'
p118
sg4
S'5277'
p119
sg6
S'49003fcd5b38e2718127e4ff809f26ea'
p120
sg8
S'xxc40f8e6452814412e6e1dbf3ae4cf915'
p121
sg10
S'xxda3e5446895fd49bf4a97200bf96a0f0'
p122
sg12
S'xxa42c1fa3b7370c0d797b1798c1701d07'
p123
sg14
S'Mozilla/5.0 (Linux; Android 5.0; R7Plus Build/LRX21M) AppleWebKit/537.36 (KHTML, like Gecko) Version/4.0 Chrome/37.0.0.0 Mobile MQQBrowser/6.8 TBS/036849 Safari/537.36 MicroMessenger/6.3.27.880 NetType/WIFI Language/zh_CN'
p124
sg16
S'b6638521c056c1dda8647b66ebc0bdc2'
p125
sa(dp126
g2
S'46452'
p127
sg4
S'5293'
p128
sg6
S'49003fcd5b38e2718127e4ff809f26ea'
p129
sg8
S'xxc40f8e6452814412e6e1dbf3ae4cf915'
p130
sg10
S'xxda3e5446895fd49bf4a97200bf96a0f0'
p131
sg12
S'xxa42c1fa3b7370c0d797b1798c1701d07'
p132
sg14
S'Mozilla/5.0 (Linux; Android 5.0; R7Plus Build/LRX21M) AppleWebKit/537.36 (KHTML, like Gecko) Version/4.0 Chrome/37.0.0.0 Mobile MQQBrowser/6.8 TBS/036849 Safari/537.36 MicroMessenger/6.3.27.880 NetType/WIFI Language/zh_CN'
p133
sg16
S'b6638521c056c1dda8647b66ebc0bdc2'
p134
sa(dp135
g2
S'36799'
p136
sg4
S'7617'
p137
sg6
S'6d30fd308b481f5c4ad3ceb345fcac51'
p138
sg8
S'xx6a73eaa3fab7c8d17abeedee5bc99004'
p139
sg10
S'xx79d51aefeeae382e7df89aad96374a38'
p140
sg12
S'xxa42c1fa3b7370c0d797b1798c1701d07'
p141
sg14
S'Mozilla/5.0 (Linux; Android 5.0; R7Plus Build/LRX21M) AppleWebKit/537.36 (KHTML, like Gecko) Version/4.0 Chrome/37.0.0.0 Mobile MQQBrowser/6.8 TBS/036849 Safari/537.36 MicroMessenger/6.3.27.880 NetType/cmnet Language/zh_CN'
p142
sg16
S'f7b2864c1adf9e76310677e1db6050db'
p143
sa(dp144
g2
S'36799'
p145
sg4
S'7630'
p146
sg6
S'6d30fd308b481f5c4ad3ceb345fcac51'
p147
sg8
S'xx6a73eaa3fab7c8d17abeedee5bc99004'
p148
sg10
S'xx79d51aefeeae382e7df89aad96374a38'
p149
sg12
S'xxa42c1fa3b7370c0d797b1798c1701d07'
p150
sg14
S'Mozilla/5.0 (Linux; Android 5.0; R7Plus Build/LRX21M) AppleWebKit/537.36 (KHTML, like Gecko) Version/4.0 Chrome/37.0.0.0 Mobile MQQBrowser/6.8 TBS/036849 Safari/537.36 MicroMessenger/6.3.27.880 NetType/cmnet Language/zh_CN'
p151
sg16
S'f7b2864c1adf9e76310677e1db6050db'
p152
sa(dp153
g2
S'44504'
p154
sg4
S'7920'
p155
sg6
S'49003fcd5b38e2718127e4ff809f26ea'
p156
sg8
S'xxeb9ba9df9dea09b78b80273e2d9b67ad'
p157
sg10
S'xxda3e5446895fd49bf4a97200bf96a0f0'
p158
sg12
S'xxa42c1fa3b7370c0d797b1798c1701d07'
p159
sg14
S'Mozilla/5.0 (Linux; Android 5.0; R7Plus Build/LRX21M) AppleWebKit/537.36 (KHTML, like Gecko) Version/4.0 Chrome/37.0.0.0 Mobile MQQBrowser/6.8 TBS/036824 Safari/537.36 MicroMessenger/6.3.27.880 NetType/WIFI Language/zh_CN'
p160
sg16
S'5eef935e9b42e96bf2a1df9719260886'
p161
sa(dp162
g2
S'44504'
p163
sg4
S'7931'
p164
sg6
S'49003fcd5b38e2718127e4ff809f26ea'
p165
sg8
S'xxeb9ba9df9dea09b78b80273e2d9b67ad'
p166
sg10
S'xxda3e5446895fd49bf4a97200bf96a0f0'
p167
sg12
S'xxa42c1fa3b7370c0d797b1798c1701d07'
p168
sg14
S'Mozilla/5.0 (Linux; Android 5.0; R7Plus Build/LRX21M) AppleWebKit/537.36 (KHTML, like Gecko) Version/4.0 Chrome/37.0.0.0 Mobile MQQBrowser/6.8 TBS/036824 Safari/537.36 MicroMessenger/6.3.27.880 NetType/WIFI Language/zh_CN'
p169
sg16
S'5eef935e9b42e96bf2a1df9719260886'
p170
sa.