(lp0
(dp1
S'user_id'
p2
S'40389'
p3
sS'data_id'
p4
S'976'
p5
sS'ip'
p6
S'75c3dc96f02456ae6ce7994ce9825e16'
p7
sS'phone_B'
p8
S'xxe3b598b11b7b9e09b51fa51a949820b6'
p9
sS'phone_C'
p10
S'xx6a23ec4413995147de80872bd1e0224d'
p11
sS'phone_A'
p12
S'xxa51241af957f88e1c1507e3cff47aa4e'
p13
sS'user_agent'
p14
S'Mozilla/5.0 (Linux; Android 4.4.4; vivo X5Max+ Build/KTU84P) AppleWebKit/537.36 (KHTML, like Gecko) Version/4.0 Chrome/37.0.0.0 Mobile MQQBrowser/6.8 TBS/036869 Safari/537.36 MicroMessenger/6.3.27.880 NetType/cmnet Language/zh_CN'
p15
sS'ua'
p16
S'731edfdc14c667237d7ddcabf7d283d1'
p17
sa(dp18
g2
S'40389'
p19
sg4
S'992'
p20
sg6
S'75c3dc96f02456ae6ce7994ce9825e16'
p21
sg8
S'xxe3b598b11b7b9e09b51fa51a949820b6'
p22
sg10
S'xx6a23ec4413995147de80872bd1e0224d'
p23
sg12
S'xxa51241af957f88e1c1507e3cff47aa4e'
p24
sg14
S'Mozilla/5.0 (Linux; Android 4.4.4; vivo X5Max+ Build/KTU84P) AppleWebKit/537.36 (KHTML, like Gecko) Version/4.0 Chrome/37.0.0.0 Mobile MQQBrowser/6.8 TBS/036869 Safari/537.36 MicroMessenger/6.3.27.880 NetType/cmnet Language/zh_CN'
p25
sg16
S'731edfdc14c667237d7ddcabf7d283d1'
p26
sa.