(lp0
(dp1
S'user_id'
p2
S'39895'
p3
sS'data_id'
p4
S'2189'
p5
sS'ip'
p6
S'5b48c78089c6f21a864d9e71cbaf0c9d'
p7
sS'phone_B'
p8
S'xx4359380bbd3effe80bb661d9419ad805'
p9
sS'phone_C'
p10
S'xx594a4d9074976a002b46cbc77ef1e65f'
p11
sS'phone_A'
p12
S'xxa552f6733edb21ca5642f544a833fea7'
p13
sS'user_agent'
p14
S'Mozilla/5.0 (Linux; Android 5.1; SM-J7008 Build/LMY47O; wv) AppleWebKit/537.36 (KHTML, like Gecko) Version/4.0 Chrome/46.0.2490.76 Mobile Safari/537.36 MicroMessenger/6.3.27.880 NetType/WIFI Language/zh_CN'
p15
sS'ua'
p16
S'8a6a21a37da238e84804e514f4ee27a2'
p17
sa(dp18
g2
S'39895'
p19
sg4
S'2209'
p20
sg6
S'5b48c78089c6f21a864d9e71cbaf0c9d'
p21
sg8
S'xx4359380bbd3effe80bb661d9419ad805'
p22
sg10
S'xx594a4d9074976a002b46cbc77ef1e65f'
p23
sg12
S'xxa552f6733edb21ca5642f544a833fea7'
p24
sg14
S'Mozilla/5.0 (Linux; Android 5.1; SM-J7008 Build/LMY47O; wv) AppleWebKit/537.36 (KHTML, like Gecko) Version/4.0 Chrome/46.0.2490.76 Mobile Safari/537.36 MicroMessenger/6.3.27.880 NetType/WIFI Language/zh_CN'
p25
sg16
S'8a6a21a37da238e84804e514f4ee27a2'
p26
sa.