(lp0
(dp1
S'user_id'
p2
S'32013'
p3
sS'data_id'
p4
S'2'
p5
sS'ip'
p6
S'c17e96ac34d43b5a75b94e6c10c2580f'
p7
sS'phone_B'
p8
S'xxc3508de311ce9528eb5fb61c33fd91b5'
p9
sS'phone_C'
p10
S'xx2da8485c6853606868e36d9fe927aa81'
p11
sS'phone_A'
p12
S'xxa663ddf071a2ef43cf78b8284d3a5dcd'
p13
sS'user_agent'
p14
S'Mozilla/5.0 (Linux; Android 6.0.1; Redmi 3S Build/MMB29M) AppleWebKit/537.36 (KHTML, like Gecko) Version/4.0 Chrome/37.0.0.0 Mobile MQQBrowser/6.8 TBS/036849 Safari/537.36 MicroMessenger/6.3.27.880 NetType/WIFI Language/zh_CN'
p15
sS'ua'
p16
S'a56a8dd564dcdd5002b76720068185dc'
p17
sa(dp18
g2
S'32013'
p19
sg4
S'11'
p20
sg6
S'c17e96ac34d43b5a75b94e6c10c2580f'
p21
sg8
S'xxc3508de311ce9528eb5fb61c33fd91b5'
p22
sg10
S'xx2da8485c6853606868e36d9fe927aa81'
p23
sg12
S'xxa663ddf071a2ef43cf78b8284d3a5dcd'
p24
sg14
S'Mozilla/5.0 (Linux; Android 6.0.1; Redmi 3S Build/MMB29M) AppleWebKit/537.36 (KHTML, like Gecko) Version/4.0 Chrome/37.0.0.0 Mobile MQQBrowser/6.8 TBS/036849 Safari/537.36 MicroMessenger/6.3.27.880 NetType/WIFI Language/zh_CN'
p25
sg16
S'a56a8dd564dcdd5002b76720068185dc'
p26
sa(dp27
g2
S'4916'
p28
sg4
S'276'
p29
sg6
S'c17e96ac34d43b5a75b94e6c10c2580f'
p30
sg8
S'xx804ba7530aa678b2fa23e5da9b0238c1'
p31
sg10
S'xx2da8485c6853606868e36d9fe927aa81'
p32
sg12
S'xxa663ddf071a2ef43cf78b8284d3a5dcd'
p33
sg14
S'Mozilla/5.0 (Linux; Android 6.0.1; Redmi 3S Build/MMB29M) AppleWebKit/537.36 (KHTML, like Gecko) Version/4.0 Chrome/37.0.0.0 Mobile MQQBrowser/6.8 TBS/036824 Safari/537.36 MicroMessenger/6.3.27.880 NetType/WIFI Language/zh_CN'
p34
sg16
S'b0c91203b98aae4dddc2a0f71db1a1bb'
p35
sa(dp36
g2
S'4916'
p37
sg4
S'285'
p38
sg6
S'c17e96ac34d43b5a75b94e6c10c2580f'
p39
sg8
S'xx804ba7530aa678b2fa23e5da9b0238c1'
p40
sg10
S'xx2da8485c6853606868e36d9fe927aa81'
p41
sg12
S'xxa663ddf071a2ef43cf78b8284d3a5dcd'
p42
sg14
S'Mozilla/5.0 (Linux; Android 6.0.1; Redmi 3S Build/MMB29M) AppleWebKit/537.36 (KHTML, like Gecko) Version/4.0 Chrome/37.0.0.0 Mobile MQQBrowser/6.8 TBS/036824 Safari/537.36 MicroMessenger/6.3.27.880 NetType/WIFI Language/zh_CN'
p43
sg16
S'b0c91203b98aae4dddc2a0f71db1a1bb'
p44
sa(dp45
g2
S'32013'
p46
sg4
S'394'
p47
sg6
S'c17e96ac34d43b5a75b94e6c10c2580f'
p48
sg8
S'xxc3508de311ce9528eb5fb61c33fd91b5'
p49
sg10
S'xx2da8485c6853606868e36d9fe927aa81'
p50
sg12
S'xxa663ddf071a2ef43cf78b8284d3a5dcd'
p51
sg14
S'Mozilla/5.0 (Linux; Android 6.0.1; Redmi 3S Build/MMB29M) AppleWebKit/537.36 (KHTML, like Gecko) Version/4.0 Chrome/37.0.0.0 Mobile MQQBrowser/6.8 TBS/036849 Safari/537.36 MicroMessenger/6.3.27.880 NetType/WIFI Language/zh_CN'
p52
sg16
S'a56a8dd564dcdd5002b76720068185dc'
p53
sa(dp54
g2
S'32013'
p55
sg4
S'411'
p56
sg6
S'c17e96ac34d43b5a75b94e6c10c2580f'
p57
sg8
S'xxc3508de311ce9528eb5fb61c33fd91b5'
p58
sg10
S'xx2da8485c6853606868e36d9fe927aa81'
p59
sg12
S'xxa663ddf071a2ef43cf78b8284d3a5dcd'
p60
sg14
S'Mozilla/5.0 (Linux; Android 6.0.1; Redmi 3S Build/MMB29M) AppleWebKit/537.36 (KHTML, like Gecko) Version/4.0 Chrome/37.0.0.0 Mobile MQQBrowser/6.8 TBS/036849 Safari/537.36 MicroMessenger/6.3.27.880 NetType/WIFI Language/zh_CN'
p61
sg16
S'a56a8dd564dcdd5002b76720068185dc'
p62
sa(dp63
g2
S'5296'
p64
sg4
S'483'
p65
sg6
S'c17e96ac34d43b5a75b94e6c10c2580f'
p66
sg8
S'xxc3508de311ce9528eb5fb61c33fd91b5'
p67
sg10
S'xx2da8485c6853606868e36d9fe927aa81'
p68
sg12
S'xxa663ddf071a2ef43cf78b8284d3a5dcd'
p69
sg14
S'Mozilla/5.0 (Linux; Android 6.0.1; Redmi 3S Build/MMB29M) AppleWebKit/537.36 (KHTML, like Gecko) Version/4.0 Chrome/37.0.0.0 Mobile MQQBrowser/6.8 TBS/036849 Safari/537.36 MicroMessenger/6.3.27.880 NetType/WIFI Language/zh_CN'
p70
sg16
S'a56a8dd564dcdd5002b76720068185dc'
p71
sa(dp72
g2
S'4916'
p73
sg4
S'3220'
p74
sg6
S'c17e96ac34d43b5a75b94e6c10c2580f'
p75
sg8
S'xx804ba7530aa678b2fa23e5da9b0238c1'
p76
sg10
S'xx2da8485c6853606868e36d9fe927aa81'
p77
sg12
S'xxa663ddf071a2ef43cf78b8284d3a5dcd'
p78
sg14
S'Mozilla/5.0 (Linux; Android 6.0.1; Redmi 3S Build/MMB29M) AppleWebKit/537.36 (KHTML, like Gecko) Version/4.0 Chrome/37.0.0.0 Mobile MQQBrowser/6.8 TBS/036824 Safari/537.36 MicroMessenger/6.3.27.880 NetType/WIFI Language/zh_CN'
p79
sg16
S'b0c91203b98aae4dddc2a0f71db1a1bb'
p80
sa(dp81
g2
S'4916'
p82
sg4
S'3234'
p83
sg6
S'c17e96ac34d43b5a75b94e6c10c2580f'
p84
sg8
S'xx804ba7530aa678b2fa23e5da9b0238c1'
p85
sg10
S'xx2da8485c6853606868e36d9fe927aa81'
p86
sg12
S'xxa663ddf071a2ef43cf78b8284d3a5dcd'
p87
sg14
S'Mozilla/5.0 (Linux; Android 6.0.1; Redmi 3S Build/MMB29M) AppleWebKit/537.36 (KHTML, like Gecko) Version/4.0 Chrome/37.0.0.0 Mobile MQQBrowser/6.8 TBS/036824 Safari/537.36 MicroMessenger/6.3.27.880 NetType/WIFI Language/zh_CN'
p88
sg16
S'b0c91203b98aae4dddc2a0f71db1a1bb'
p89
sa(dp90
g2
S'32013'
p91
sg4
S'3352'
p92
sg6
S'c17e96ac34d43b5a75b94e6c10c2580f'
p93
sg8
S'xxc3508de311ce9528eb5fb61c33fd91b5'
p94
sg10
S'xx2da8485c6853606868e36d9fe927aa81'
p95
sg12
S'xxa663ddf071a2ef43cf78b8284d3a5dcd'
p96
sg14
S'Mozilla/5.0 (Linux; Android 6.0.1; Redmi 3S Build/MMB29M) AppleWebKit/537.36 (KHTML, like Gecko) Version/4.0 Chrome/37.0.0.0 Mobile MQQBrowser/6.8 TBS/036849 Safari/537.36 MicroMessenger/6.3.27.880 NetType/WIFI Language/zh_CN'
p97
sg16
S'a56a8dd564dcdd5002b76720068185dc'
p98
sa(dp99
g2
S'32013'
p100
sg4
S'3370'
p101
sg6
S'c17e96ac34d43b5a75b94e6c10c2580f'
p102
sg8
S'xxc3508de311ce9528eb5fb61c33fd91b5'
p103
sg10
S'xx2da8485c6853606868e36d9fe927aa81'
p104
sg12
S'xxa663ddf071a2ef43cf78b8284d3a5dcd'
p105
sg14
S'Mozilla/5.0 (Linux; Android 6.0.1; Redmi 3S Build/MMB29M) AppleWebKit/537.36 (KHTML, like Gecko) Version/4.0 Chrome/37.0.0.0 Mobile MQQBrowser/6.8 TBS/036849 Safari/537.36 MicroMessenger/6.3.27.880 NetType/WIFI Language/zh_CN'
p106
sg16
S'a56a8dd564dcdd5002b76720068185dc'
p107
sa(dp108
g2
S'31300'
p109
sg4
S'3612'
p110
sg6
S'10d6e9ba5a7f89e5422202990b7f2ea2'
p111
sg8
S'xx564be64d7cdda80ef6f5445d5db5c876'
p112
sg10
S'xx2da8485c6853606868e36d9fe927aa81'
p113
sg12
S'xxa663ddf071a2ef43cf78b8284d3a5dcd'
p114
sg14
S'Mozilla/5.0 (Linux; Android 6.0.1; Redmi 3S Build/MMB29M) AppleWebKit/537.36 (KHTML, like Gecko) Version/4.0 Chrome/37.0.0.0 Mobile MQQBrowser/6.8 TBS/036824 Safari/537.36 MicroMessenger/6.3.25.861 NetType/WIFI Language/zh_CN'
p115
sg16
S'd42bab0d6f4ffa24f192fa005cdc4323'
p116
sa(dp117
g2
S'31300'
p118
sg4
S'3629'
p119
sg6
S'10d6e9ba5a7f89e5422202990b7f2ea2'
p120
sg8
S'xx564be64d7cdda80ef6f5445d5db5c876'
p121
sg10
S'xx2da8485c6853606868e36d9fe927aa81'
p122
sg12
S'xxa663ddf071a2ef43cf78b8284d3a5dcd'
p123
sg14
S'Mozilla/5.0 (Linux; Android 6.0.1; Redmi 3S Build/MMB29M) AppleWebKit/537.36 (KHTML, like Gecko) Version/4.0 Chrome/37.0.0.0 Mobile MQQBrowser/6.8 TBS/036824 Safari/537.36 MicroMessenger/6.3.25.861 NetType/WIFI Language/zh_CN'
p124
sg16
S'd42bab0d6f4ffa24f192fa005cdc4323'
p125
sa(dp126
g2
S'31300'
p127
sg4
S'3642'
p128
sg6
S'10d6e9ba5a7f89e5422202990b7f2ea2'
p129
sg8
S'xx564be64d7cdda80ef6f5445d5db5c876'
p130
sg10
S'xx2da8485c6853606868e36d9fe927aa81'
p131
sg12
S'xxa663ddf071a2ef43cf78b8284d3a5dcd'
p132
sg14
S'Mozilla/5.0 (Linux; Android 6.0.1; Redmi 3S Build/MMB29M) AppleWebKit/537.36 (KHTML, like Gecko) Version/4.0 Chrome/37.0.0.0 Mobile MQQBrowser/6.8 TBS/036824 Safari/537.36 MicroMessenger/6.3.25.861 NetType/WIFI Language/zh_CN'
p133
sg16
S'd42bab0d6f4ffa24f192fa005cdc4323'
p134
sa(dp135
g2
S'31300'
p136
sg4
S'3654'
p137
sg6
S'10d6e9ba5a7f89e5422202990b7f2ea2'
p138
sg8
S'xx564be64d7cdda80ef6f5445d5db5c876'
p139
sg10
S'xx2da8485c6853606868e36d9fe927aa81'
p140
sg12
S'xxa663ddf071a2ef43cf78b8284d3a5dcd'
p141
sg14
S'Mozilla/5.0 (Linux; Android 6.0.1; Redmi 3S Build/MMB29M) AppleWebKit/537.36 (KHTML, like Gecko) Version/4.0 Chrome/37.0.0.0 Mobile MQQBrowser/6.8 TBS/036824 Safari/537.36 MicroMessenger/6.3.25.861 NetType/WIFI Language/zh_CN'
p142
sg16
S'd42bab0d6f4ffa24f192fa005cdc4323'
p143
sa(dp144
g2
S'30496'
p145
sg4
S'4521'
p146
sg6
S'37ec7b91655b3c964292df15710fad2a'
p147
sg8
S'xx804ba7530aa678b2fa23e5da9b0238c1'
p148
sg10
S'xx2da8485c6853606868e36d9fe927aa81'
p149
sg12
S'xxa663ddf071a2ef43cf78b8284d3a5dcd'
p150
sg14
S'Mozilla/5.0 (Linux; Android 6.0.1; Redmi 3S Build/MMB29M) AppleWebKit/537.36 (KHTML, like Gecko) Version/4.0 Chrome/37.0.0.0 Mobile MQQBrowser/6.8 TBS/036824 Safari/537.36 MicroMessenger/6.3.27.880 NetType/WIFI Language/zh_CN'
p151
sg16
S'b0c91203b98aae4dddc2a0f71db1a1bb'
p152
sa(dp153
g2
S'30496'
p154
sg4
S'4551'
p155
sg6
S'37ec7b91655b3c964292df15710fad2a'
p156
sg8
S'xx804ba7530aa678b2fa23e5da9b0238c1'
p157
sg10
S'xx2da8485c6853606868e36d9fe927aa81'
p158
sg12
S'xxa663ddf071a2ef43cf78b8284d3a5dcd'
p159
sg14
S'Mozilla/5.0 (Linux; Android 6.0.1; Redmi 3S Build/MMB29M) AppleWebKit/537.36 (KHTML, like Gecko) Version/4.0 Chrome/37.0.0.0 Mobile MQQBrowser/6.8 TBS/036824 Safari/537.36 MicroMessenger/6.3.27.880 NetType/WIFI Language/zh_CN'
p160
sg16
S'b0c91203b98aae4dddc2a0f71db1a1bb'
p161
sa(dp162
g2
S'25227'
p163
sg4
S'7469'
p164
sg6
S'b1348b829d79248da6ef34ff6293c1dc'
p165
sg8
S'xx804ba7530aa678b2fa23e5da9b0238c1'
p166
sg10
S'xx2da8485c6853606868e36d9fe927aa81'
p167
sg12
S'xxa663ddf071a2ef43cf78b8284d3a5dcd'
p168
sg14
S'Mozilla/5.0 (Linux; Android 6.0.1; Redmi 3S Build/MMB29M) AppleWebKit/537.36 (KHTML, like Gecko) Version/4.0 Chrome/37.0.0.0 Mobile MQQBrowser/6.8 TBS/036824 Safari/537.36 MicroMessenger/6.3.27.880 NetType/WIFI Language/zh_CN'
p169
sg16
S'b0c91203b98aae4dddc2a0f71db1a1bb'
p170
sa(dp171
g2
S'25227'
p172
sg4
S'7486'
p173
sg6
S'b1348b829d79248da6ef34ff6293c1dc'
p174
sg8
S'xx804ba7530aa678b2fa23e5da9b0238c1'
p175
sg10
S'xx2da8485c6853606868e36d9fe927aa81'
p176
sg12
S'xxa663ddf071a2ef43cf78b8284d3a5dcd'
p177
sg14
S'Mozilla/5.0 (Linux; Android 6.0.1; Redmi 3S Build/MMB29M) AppleWebKit/537.36 (KHTML, like Gecko) Version/4.0 Chrome/37.0.0.0 Mobile MQQBrowser/6.8 TBS/036824 Safari/537.36 MicroMessenger/6.3.27.880 NetType/WIFI Language/zh_CN'
p178
sg16
S'b0c91203b98aae4dddc2a0f71db1a1bb'
p179
sa(dp180
g2
S'25227'
p181
sg4
S'7506'
p182
sg6
S'b1348b829d79248da6ef34ff6293c1dc'
p183
sg8
S'xx804ba7530aa678b2fa23e5da9b0238c1'
p184
sg10
S'xx2da8485c6853606868e36d9fe927aa81'
p185
sg12
S'xxa663ddf071a2ef43cf78b8284d3a5dcd'
p186
sg14
S'Mozilla/5.0 (Linux; Android 6.0.1; Redmi 3S Build/MMB29M) AppleWebKit/537.36 (KHTML, like Gecko) Version/4.0 Chrome/37.0.0.0 Mobile MQQBrowser/6.8 TBS/036824 Safari/537.36 MicroMessenger/6.3.27.880 NetType/WIFI Language/zh_CN'
p187
sg16
S'b0c91203b98aae4dddc2a0f71db1a1bb'
p188
sa(dp189
g2
S'25227'
p190
sg4
S'8190'
p191
sg6
S'b1348b829d79248da6ef34ff6293c1dc'
p192
sg8
S'xx804ba7530aa678b2fa23e5da9b0238c1'
p193
sg10
S'xx2da8485c6853606868e36d9fe927aa81'
p194
sg12
S'xxa663ddf071a2ef43cf78b8284d3a5dcd'
p195
sg14
S'Mozilla/5.0 (Linux; Android 6.0.1; Redmi 3S Build/MMB29M) AppleWebKit/537.36 (KHTML, like Gecko) Version/4.0 Chrome/37.0.0.0 Mobile MQQBrowser/6.8 TBS/036824 Safari/537.36 MicroMessenger/6.3.27.880 NetType/WIFI Language/zh_CN'
p196
sg16
S'b0c91203b98aae4dddc2a0f71db1a1bb'
p197
sa(dp198
g2
S'25227'
p199
sg4
S'8205'
p200
sg6
S'b1348b829d79248da6ef34ff6293c1dc'
p201
sg8
S'xx804ba7530aa678b2fa23e5da9b0238c1'
p202
sg10
S'xx2da8485c6853606868e36d9fe927aa81'
p203
sg12
S'xxa663ddf071a2ef43cf78b8284d3a5dcd'
p204
sg14
S'Mozilla/5.0 (Linux; Android 6.0.1; Redmi 3S Build/MMB29M) AppleWebKit/537.36 (KHTML, like Gecko) Version/4.0 Chrome/37.0.0.0 Mobile MQQBrowser/6.8 TBS/036824 Safari/537.36 MicroMessenger/6.3.27.880 NetType/WIFI Language/zh_CN'
p205
sg16
S'b0c91203b98aae4dddc2a0f71db1a1bb'
p206
sa(dp207
g2
S'30646'
p208
sg4
S'8833'
p209
sg6
S'37ec7b91655b3c964292df15710fad2a'
p210
sg8
S'xx999193f825535d1e5d00080a7db6b834'
p211
sg10
S'xx2da8485c6853606868e36d9fe927aa81'
p212
sg12
S'xxa663ddf071a2ef43cf78b8284d3a5dcd'
p213
sg14
S'Mozilla/5.0 (Linux; Android 6.0.1; Redmi 3S Build/MMB29M) AppleWebKit/537.36 (KHTML, like Gecko) Version/4.0 Chrome/37.0.0.0 Mobile MQQBrowser/6.8 TBS/036869 Safari/537.36 MicroMessenger/6.3.27.880 NetType/WIFI Language/zh_CN'
p214
sg16
S'e415e99d6d99b5ca3879d9e4fe3edae1'
p215
sa.