(lp0
(dp1
S'user_id'
p2
S'43526'
p3
sS'data_id'
p4
S'7084'
p5
sS'ip'
p6
S'1dc889c5d6202d34a546b88afcfd9686'
p7
sS'phone_B'
p8
S'xx5293a9b27344a62a43acd4ef87d90020'
p9
sS'phone_C'
p10
S'xx324178ffa16c2d588dbbb40ac702c57c'
p11
sS'phone_A'
p12
S'xxa6ba4db84a02a35e94414f3a659c8d87'
p13
sS'user_agent'
p14
S'Mozilla/5.0 (Linux; Android 4.4.4; lephone T6+ Build/KTU84P) AppleWebKit/537.36 (KHTML, like Gecko) Version/4.0 Chrome/37.0.0.0 Mobile MQQBrowser/6.8 TBS/036849 Safari/537.36 MicroMessenger/6.3.27.880 NetType/WIFI Language/zh_CN'
p15
sS'ua'
p16
S'4511b777e43bef38a5ac3c01314665fa'
p17
sa(dp18
g2
S'43526'
p19
sg4
S'7093'
p20
sg6
S'1dc889c5d6202d34a546b88afcfd9686'
p21
sg8
S'xx5293a9b27344a62a43acd4ef87d90020'
p22
sg10
S'xx324178ffa16c2d588dbbb40ac702c57c'
p23
sg12
S'xxa6ba4db84a02a35e94414f3a659c8d87'
p24
sg14
S'Mozilla/5.0 (Linux; Android 4.4.4; lephone T6+ Build/KTU84P) AppleWebKit/537.36 (KHTML, like Gecko) Version/4.0 Chrome/37.0.0.0 Mobile MQQBrowser/6.8 TBS/036849 Safari/537.36 MicroMessenger/6.3.27.880 NetType/WIFI Language/zh_CN'
p25
sg16
S'4511b777e43bef38a5ac3c01314665fa'
p26
sa.