(lp0
(dp1
S'user_id'
p2
S'33830'
p3
sS'data_id'
p4
S'8746'
p5
sS'ip'
p6
S'02082690daff62574277f4546343bcc1'
p7
sS'phone_B'
p8
S'xx73f66edbb94766fba7145b21d65a2f54'
p9
sS'phone_C'
p10
S'xx0cd7a6f2e85b8e05fb014b9b634a62b4'
p11
sS'phone_A'
p12
S'xxa83314441dbdb728c83c43d4d1bf1be5'
p13
sS'user_agent'
p14
S'Mozilla/5.0 (Linux; Android 5.1; KOOMII-FOT9 Build/LMY47D) AppleWebKit/537.36 (KHTML, like Gecko) Version/4.0 Chrome/37.0.0.0 Mobile MQQBrowser/6.8 TBS/036824 Safari/537.36 MicroMessenger/6.3.27.880 NetType/WIFI Language/zh_CN'
p15
sS'ua'
p16
S'b70a6c17dfb79aee9d5fc3ed6d0c6a5d'
p17
sa(dp18
g2
S'33830'
p19
sg4
S'8760'
p20
sg6
S'02082690daff62574277f4546343bcc1'
p21
sg8
S'xx73f66edbb94766fba7145b21d65a2f54'
p22
sg10
S'xx0cd7a6f2e85b8e05fb014b9b634a62b4'
p23
sg12
S'xxa83314441dbdb728c83c43d4d1bf1be5'
p24
sg14
S'Mozilla/5.0 (Linux; Android 5.1; KOOMII-FOT9 Build/LMY47D) AppleWebKit/537.36 (KHTML, like Gecko) Version/4.0 Chrome/37.0.0.0 Mobile MQQBrowser/6.8 TBS/036824 Safari/537.36 MicroMessenger/6.3.27.880 NetType/WIFI Language/zh_CN'
p25
sg16
S'b70a6c17dfb79aee9d5fc3ed6d0c6a5d'
p26
sa.