(lp0
(dp1
S'user_id'
p2
S'22232'
p3
sS'data_id'
p4
S'1858'
p5
sS'ip'
p6
S'fca8f5236f19ebce72d5785aa76f8758'
p7
sS'phone_B'
p8
S'xx8e212ea480f51c55d6f4484b81634e63'
p9
sS'phone_C'
p10
S'xx9cf1257737f5ee4335551ab76df2a864'
p11
sS'phone_A'
p12
S'xxa99e9d046d46428f028b15554b15a103'
p13
sS'user_agent'
p14
S'Mozilla/5.0 (Linux; Android 4.4.2; H60-L11 Build/HDH60-L11) AppleWebKit/537.36 (KHTML, like Gecko) Version/4.0 Chrome/37.0.0.0 Mobile MQQBrowser/6.8 TBS/036849 Safari/537.36 MicroMessenger/6.3.27.880 NetType/WIFI Language/zh_CN'
p15
sS'ua'
p16
S'013ebd02bba028b0f0bc33e236c947b3'
p17
sa(dp18
g2
S'22232'
p19
sg4
S'1871'
p20
sg6
S'fca8f5236f19ebce72d5785aa76f8758'
p21
sg8
S'xx8e212ea480f51c55d6f4484b81634e63'
p22
sg10
S'xx9cf1257737f5ee4335551ab76df2a864'
p23
sg12
S'xxa99e9d046d46428f028b15554b15a103'
p24
sg14
S'Mozilla/5.0 (Linux; Android 4.4.2; H60-L11 Build/HDH60-L11) AppleWebKit/537.36 (KHTML, like Gecko) Version/4.0 Chrome/37.0.0.0 Mobile MQQBrowser/6.8 TBS/036849 Safari/537.36 MicroMessenger/6.3.27.880 NetType/WIFI Language/zh_CN'
p25
sg16
S'013ebd02bba028b0f0bc33e236c947b3'
p26
sa(dp27
g2
S'22232'
p28
sg4
S'1928'
p29
sg6
S'fca8f5236f19ebce72d5785aa76f8758'
p30
sg8
S'xx8e212ea480f51c55d6f4484b81634e63'
p31
sg10
S'xx9cf1257737f5ee4335551ab76df2a864'
p32
sg12
S'xxa99e9d046d46428f028b15554b15a103'
p33
sg14
S'Mozilla/5.0 (Linux; Android 4.4.2; H60-L11 Build/HDH60-L11) AppleWebKit/537.36 (KHTML, like Gecko) Version/4.0 Chrome/37.0.0.0 Mobile MQQBrowser/6.8 TBS/036849 Safari/537.36 MicroMessenger/6.3.27.880 NetType/WIFI Language/zh_CN'
p34
sg16
S'013ebd02bba028b0f0bc33e236c947b3'
p35
sa(dp36
g2
S'22232'
p37
sg4
S'1949'
p38
sg6
S'fca8f5236f19ebce72d5785aa76f8758'
p39
sg8
S'xx8e212ea480f51c55d6f4484b81634e63'
p40
sg10
S'xx9cf1257737f5ee4335551ab76df2a864'
p41
sg12
S'xxa99e9d046d46428f028b15554b15a103'
p42
sg14
S'Mozilla/5.0 (Linux; Android 4.4.2; H60-L11 Build/HDH60-L11) AppleWebKit/537.36 (KHTML, like Gecko) Version/4.0 Chrome/37.0.0.0 Mobile MQQBrowser/6.8 TBS/036849 Safari/537.36 MicroMessenger/6.3.27.880 NetType/WIFI Language/zh_CN'
p43
sg16
S'013ebd02bba028b0f0bc33e236c947b3'
p44
sa(dp45
g2
S'22232'
p46
sg4
S'1967'
p47
sg6
S'fca8f5236f19ebce72d5785aa76f8758'
p48
sg8
S'xx8e212ea480f51c55d6f4484b81634e63'
p49
sg10
S'xx9cf1257737f5ee4335551ab76df2a864'
p50
sg12
S'xxa99e9d046d46428f028b15554b15a103'
p51
sg14
S'Mozilla/5.0 (Linux; Android 4.4.2; H60-L11 Build/HDH60-L11) AppleWebKit/537.36 (KHTML, like Gecko) Version/4.0 Chrome/37.0.0.0 Mobile MQQBrowser/6.8 TBS/036849 Safari/537.36 MicroMessenger/6.3.27.880 NetType/WIFI Language/zh_CN'
p52
sg16
S'013ebd02bba028b0f0bc33e236c947b3'
p53
sa(dp54
g2
S'22232'
p55
sg4
S'1984'
p56
sg6
S'fca8f5236f19ebce72d5785aa76f8758'
p57
sg8
S'xx8e212ea480f51c55d6f4484b81634e63'
p58
sg10
S'xx9cf1257737f5ee4335551ab76df2a864'
p59
sg12
S'xxa99e9d046d46428f028b15554b15a103'
p60
sg14
S'Mozilla/5.0 (Linux; Android 4.4.2; H60-L11 Build/HDH60-L11) AppleWebKit/537.36 (KHTML, like Gecko) Version/4.0 Chrome/37.0.0.0 Mobile MQQBrowser/6.8 TBS/036849 Safari/537.36 MicroMessenger/6.3.27.880 NetType/WIFI Language/zh_CN'
p61
sg16
S'013ebd02bba028b0f0bc33e236c947b3'
p62
sa(dp63
g2
S'22232'
p64
sg4
S'1991'
p65
sg6
S'fca8f5236f19ebce72d5785aa76f8758'
p66
sg8
S'xx8e212ea480f51c55d6f4484b81634e63'
p67
sg10
S'xx9cf1257737f5ee4335551ab76df2a864'
p68
sg12
S'xxa99e9d046d46428f028b15554b15a103'
p69
sg14
S'Mozilla/5.0 (Linux; Android 4.4.2; H60-L11 Build/HDH60-L11) AppleWebKit/537.36 (KHTML, like Gecko) Version/4.0 Chrome/37.0.0.0 Mobile MQQBrowser/6.8 TBS/036849 Safari/537.36 MicroMessenger/6.3.27.880 NetType/WIFI Language/zh_CN'
p70
sg16
S'013ebd02bba028b0f0bc33e236c947b3'
p71
sa(dp72
g2
S'22232'
p73
sg4
S'2014'
p74
sg6
S'fca8f5236f19ebce72d5785aa76f8758'
p75
sg8
S'xx8e212ea480f51c55d6f4484b81634e63'
p76
sg10
S'xx9cf1257737f5ee4335551ab76df2a864'
p77
sg12
S'xxa99e9d046d46428f028b15554b15a103'
p78
sg14
S'Mozilla/5.0 (Linux; Android 4.4.2; H60-L11 Build/HDH60-L11) AppleWebKit/537.36 (KHTML, like Gecko) Version/4.0 Chrome/37.0.0.0 Mobile MQQBrowser/6.8 TBS/036849 Safari/537.36 MicroMessenger/6.3.27.880 NetType/WIFI Language/zh_CN'
p79
sg16
S'013ebd02bba028b0f0bc33e236c947b3'
p80
sa(dp81
g2
S'22232'
p82
sg4
S'2124'
p83
sg6
S'fca8f5236f19ebce72d5785aa76f8758'
p84
sg8
S'xx8e212ea480f51c55d6f4484b81634e63'
p85
sg10
S'xx9cf1257737f5ee4335551ab76df2a864'
p86
sg12
S'xxa99e9d046d46428f028b15554b15a103'
p87
sg14
S'Mozilla/5.0 (Linux; Android 4.4.2; H60-L11 Build/HDH60-L11) AppleWebKit/537.36 (KHTML, like Gecko) Version/4.0 Chrome/37.0.0.0 Mobile MQQBrowser/6.8 TBS/036849 Safari/537.36 MicroMessenger/6.3.27.880 NetType/WIFI Language/zh_CN'
p88
sg16
S'013ebd02bba028b0f0bc33e236c947b3'
p89
sa(dp90
g2
S'22232'
p91
sg4
S'2149'
p92
sg6
S'fca8f5236f19ebce72d5785aa76f8758'
p93
sg8
S'xx8e212ea480f51c55d6f4484b81634e63'
p94
sg10
S'xx9cf1257737f5ee4335551ab76df2a864'
p95
sg12
S'xxa99e9d046d46428f028b15554b15a103'
p96
sg14
S'Mozilla/5.0 (Linux; Android 4.4.2; H60-L11 Build/HDH60-L11) AppleWebKit/537.36 (KHTML, like Gecko) Version/4.0 Chrome/37.0.0.0 Mobile MQQBrowser/6.8 TBS/036849 Safari/537.36 MicroMessenger/6.3.27.880 NetType/WIFI Language/zh_CN'
p97
sg16
S'013ebd02bba028b0f0bc33e236c947b3'
p98
sa.