(lp0
(dp1
S'user_id'
p2
S'10135'
p3
sS'data_id'
p4
S'103'
p5
sS'ip'
p6
S'9a3bb90ea999051f1b5a6584aa020244'
p7
sS'phone_B'
p8
S'xxa3aa1ccec7bae8521df990f7b0321a87'
p9
sS'phone_C'
p10
S'xx5ba6e83ab19ca3a94d39ebfc36eb8d6b'
p11
sS'phone_A'
p12
S'xxa96ae61572674f965301d91739f7f65d'
p13
sS'user_agent'
p14
S'Mozilla/5.0 (Linux; Android 4.4.4; 2014813 Build/KTU84P) AppleWebKit/537.36 (KHTML, like Gecko) Version/4.0 Chrome/37.0.0.0 Mobile MQQBrowser/6.8 TBS/036849 Safari/537.36 MicroMessenger/6.3.27.880 NetType/WIFI Language/zh_CN'
p15
sS'ua'
p16
S'8d9d11b7c6377a417315955baf382270'
p17
sa(dp18
g2
S'10135'
p19
sg4
S'113'
p20
sg6
S'9a3bb90ea999051f1b5a6584aa020244'
p21
sg8
S'xxa3aa1ccec7bae8521df990f7b0321a87'
p22
sg10
S'xx5ba6e83ab19ca3a94d39ebfc36eb8d6b'
p23
sg12
S'xxa96ae61572674f965301d91739f7f65d'
p24
sg14
S'Mozilla/5.0 (Linux; Android 4.4.4; 2014813 Build/KTU84P) AppleWebKit/537.36 (KHTML, like Gecko) Version/4.0 Chrome/37.0.0.0 Mobile MQQBrowser/6.8 TBS/036849 Safari/537.36 MicroMessenger/6.3.27.880 NetType/WIFI Language/zh_CN'
p25
sg16
S'8d9d11b7c6377a417315955baf382270'
p26
sa(dp27
g2
S'32219'
p28
sg4
S'200'
p29
sg6
S'30c894195511869109b0dab251b11f8d'
p30
sg8
S'xx4474a15550fedd2e52a27b9cdf522dd3'
p31
sg10
S'xx5ba6e83ab19ca3a94d39ebfc36eb8d6b'
p32
sg12
S'xxa96ae61572674f965301d91739f7f65d'
p33
sg14
S'Mozilla/5.0 (Linux; Android 4.4.4; 2014813 Build/KTU84P) AppleWebKit/537.36 (KHTML, like Gecko) Version/4.0 Chrome/37.0.0.0 Mobile MQQBrowser/6.8 TBS/036849 Safari/537.36 MicroMessenger/6.3.27.880 NetType/cmnet Language/zh_CN'
p34
sg16
S'17cd3aeccb6adfe0ef0f899d4712b3f5'
p35
sa(dp36
g2
S'30431'
p37
sg4
S'299'
p38
sg6
S'f3f27f95678f861ebdc986239eef0b2a'
p39
sg8
S'xx6353c123079879c63cee0982499b8c2c'
p40
sg10
S'xx5ba6e83ab19ca3a94d39ebfc36eb8d6b'
p41
sg12
S'xxa96ae61572674f965301d91739f7f65d'
p42
sg14
S'Mozilla/5.0 (Linux; Android 4.4.4; 2014813 Build/KTU84P) AppleWebKit/537.36 (KHTML, like Gecko) Version/4.0 Chrome/37.0.0.0 Mobile MQQBrowser/6.8 TBS/036824 Safari/537.36 MicroMessenger/6.3.27.880 NetType/WIFI Language/zh_CN'
p43
sg16
S'7cee7876ca1a7c1ac6e0b1791f232743'
p44
sa(dp45
g2
S'30431'
p46
sg4
S'317'
p47
sg6
S'f3f27f95678f861ebdc986239eef0b2a'
p48
sg8
S'xx6353c123079879c63cee0982499b8c2c'
p49
sg10
S'xx5ba6e83ab19ca3a94d39ebfc36eb8d6b'
p50
sg12
S'xxa96ae61572674f965301d91739f7f65d'
p51
sg14
S'Mozilla/5.0 (Linux; Android 4.4.4; 2014813 Build/KTU84P) AppleWebKit/537.36 (KHTML, like Gecko) Version/4.0 Chrome/37.0.0.0 Mobile MQQBrowser/6.8 TBS/036824 Safari/537.36 MicroMessenger/6.3.27.880 NetType/WIFI Language/zh_CN'
p52
sg16
S'7cee7876ca1a7c1ac6e0b1791f232743'
p53
sa(dp54
g2
S'10135'
p55
sg4
S'1362'
p56
sg6
S'9a3bb90ea999051f1b5a6584aa020244'
p57
sg8
S'xxa3aa1ccec7bae8521df990f7b0321a87'
p58
sg10
S'xx5ba6e83ab19ca3a94d39ebfc36eb8d6b'
p59
sg12
S'xxa96ae61572674f965301d91739f7f65d'
p60
sg14
S'Mozilla/5.0 (Linux; Android 4.4.4; 2014813 Build/KTU84P) AppleWebKit/537.36 (KHTML, like Gecko) Version/4.0 Chrome/37.0.0.0 Mobile MQQBrowser/6.8 TBS/036849 Safari/537.36 MicroMessenger/6.3.27.880 NetType/WIFI Language/zh_CN'
p61
sg16
S'8d9d11b7c6377a417315955baf382270'
p62
sa(dp63
g2
S'10135'
p64
sg4
S'1371'
p65
sg6
S'9a3bb90ea999051f1b5a6584aa020244'
p66
sg8
S'xxa3aa1ccec7bae8521df990f7b0321a87'
p67
sg10
S'xx5ba6e83ab19ca3a94d39ebfc36eb8d6b'
p68
sg12
S'xxa96ae61572674f965301d91739f7f65d'
p69
sg14
S'Mozilla/5.0 (Linux; Android 4.4.4; 2014813 Build/KTU84P) AppleWebKit/537.36 (KHTML, like Gecko) Version/4.0 Chrome/37.0.0.0 Mobile MQQBrowser/6.8 TBS/036849 Safari/537.36 MicroMessenger/6.3.27.880 NetType/WIFI Language/zh_CN'
p70
sg16
S'8d9d11b7c6377a417315955baf382270'
p71
sa(dp72
g2
S'8682'
p73
sg4
S'1464'
p74
sg6
S'd66c95a4c1c7aa3ad1fe1162a8491ff3'
p75
sg8
S'xxa3aa1ccec7bae8521df990f7b0321a87'
p76
sg10
S'xx5ba6e83ab19ca3a94d39ebfc36eb8d6b'
p77
sg12
S'xxa96ae61572674f965301d91739f7f65d'
p78
sg14
S'Mozilla/5.0 (Linux; Android 4.4.4; 2014813 Build/KTU84P) AppleWebKit/537.36 (KHTML, like Gecko) Version/4.0 Chrome/37.0.0.0 Mobile MQQBrowser/6.8 TBS/036849 Safari/537.36 MicroMessenger/6.3.27.880 NetType/WIFI Language/zh_CN'
p79
sg16
S'8d9d11b7c6377a417315955baf382270'
p80
sa(dp81
g2
S'8682'
p82
sg4
S'1486'
p83
sg6
S'd66c95a4c1c7aa3ad1fe1162a8491ff3'
p84
sg8
S'xxa3aa1ccec7bae8521df990f7b0321a87'
p85
sg10
S'xx5ba6e83ab19ca3a94d39ebfc36eb8d6b'
p86
sg12
S'xxa96ae61572674f965301d91739f7f65d'
p87
sg14
S'Mozilla/5.0 (Linux; Android 4.4.4; 2014813 Build/KTU84P) AppleWebKit/537.36 (KHTML, like Gecko) Version/4.0 Chrome/37.0.0.0 Mobile MQQBrowser/6.8 TBS/036849 Safari/537.36 MicroMessenger/6.3.27.880 NetType/WIFI Language/zh_CN'
p88
sg16
S'8d9d11b7c6377a417315955baf382270'
p89
sa(dp90
g2
S'8682'
p91
sg4
S'1526'
p92
sg6
S'd66c95a4c1c7aa3ad1fe1162a8491ff3'
p93
sg8
S'xxa3aa1ccec7bae8521df990f7b0321a87'
p94
sg10
S'xx5ba6e83ab19ca3a94d39ebfc36eb8d6b'
p95
sg12
S'xxa96ae61572674f965301d91739f7f65d'
p96
sg14
S'Mozilla/5.0 (Linux; Android 4.4.4; 2014813 Build/KTU84P) AppleWebKit/537.36 (KHTML, like Gecko) Version/4.0 Chrome/37.0.0.0 Mobile MQQBrowser/6.8 TBS/036849 Safari/537.36 MicroMessenger/6.3.27.880 NetType/WIFI Language/zh_CN'
p97
sg16
S'8d9d11b7c6377a417315955baf382270'
p98
sa(dp99
g2
S'8682'
p100
sg4
S'1538'
p101
sg6
S'd66c95a4c1c7aa3ad1fe1162a8491ff3'
p102
sg8
S'xxa3aa1ccec7bae8521df990f7b0321a87'
p103
sg10
S'xx5ba6e83ab19ca3a94d39ebfc36eb8d6b'
p104
sg12
S'xxa96ae61572674f965301d91739f7f65d'
p105
sg14
S'Mozilla/5.0 (Linux; Android 4.4.4; 2014813 Build/KTU84P) AppleWebKit/537.36 (KHTML, like Gecko) Version/4.0 Chrome/37.0.0.0 Mobile MQQBrowser/6.8 TBS/036849 Safari/537.36 MicroMessenger/6.3.27.880 NetType/WIFI Language/zh_CN'
p106
sg16
S'8d9d11b7c6377a417315955baf382270'
p107
sa(dp108
g2
S'8682'
p109
sg4
S'1598'
p110
sg6
S'd66c95a4c1c7aa3ad1fe1162a8491ff3'
p111
sg8
S'xxa3aa1ccec7bae8521df990f7b0321a87'
p112
sg10
S'xx5ba6e83ab19ca3a94d39ebfc36eb8d6b'
p113
sg12
S'xxa96ae61572674f965301d91739f7f65d'
p114
sg14
S'Mozilla/5.0 (Linux; Android 4.4.4; 2014813 Build/KTU84P) AppleWebKit/537.36 (KHTML, like Gecko) Version/4.0 Chrome/37.0.0.0 Mobile MQQBrowser/6.8 TBS/036849 Safari/537.36 MicroMessenger/6.3.27.880 NetType/WIFI Language/zh_CN'
p115
sg16
S'8d9d11b7c6377a417315955baf382270'
p116
sa(dp117
g2
S'8682'
p118
sg4
S'1617'
p119
sg6
S'd66c95a4c1c7aa3ad1fe1162a8491ff3'
p120
sg8
S'xxa3aa1ccec7bae8521df990f7b0321a87'
p121
sg10
S'xx5ba6e83ab19ca3a94d39ebfc36eb8d6b'
p122
sg12
S'xxa96ae61572674f965301d91739f7f65d'
p123
sg14
S'Mozilla/5.0 (Linux; Android 4.4.4; 2014813 Build/KTU84P) AppleWebKit/537.36 (KHTML, like Gecko) Version/4.0 Chrome/37.0.0.0 Mobile MQQBrowser/6.8 TBS/036849 Safari/537.36 MicroMessenger/6.3.27.880 NetType/WIFI Language/zh_CN'
p124
sg16
S'8d9d11b7c6377a417315955baf382270'
p125
sa(dp126
g2
S'8682'
p127
sg4
S'1631'
p128
sg6
S'd66c95a4c1c7aa3ad1fe1162a8491ff3'
p129
sg8
S'xxa3aa1ccec7bae8521df990f7b0321a87'
p130
sg10
S'xx5ba6e83ab19ca3a94d39ebfc36eb8d6b'
p131
sg12
S'xxa96ae61572674f965301d91739f7f65d'
p132
sg14
S'Mozilla/5.0 (Linux; Android 4.4.4; 2014813 Build/KTU84P) AppleWebKit/537.36 (KHTML, like Gecko) Version/4.0 Chrome/37.0.0.0 Mobile MQQBrowser/6.8 TBS/036849 Safari/537.36 MicroMessenger/6.3.27.880 NetType/WIFI Language/zh_CN'
p133
sg16
S'8d9d11b7c6377a417315955baf382270'
p134
sa(dp135
g2
S'8682'
p136
sg4
S'1642'
p137
sg6
S'd66c95a4c1c7aa3ad1fe1162a8491ff3'
p138
sg8
S'xxa3aa1ccec7bae8521df990f7b0321a87'
p139
sg10
S'xx5ba6e83ab19ca3a94d39ebfc36eb8d6b'
p140
sg12
S'xxa96ae61572674f965301d91739f7f65d'
p141
sg14
S'Mozilla/5.0 (Linux; Android 4.4.4; 2014813 Build/KTU84P) AppleWebKit/537.36 (KHTML, like Gecko) Version/4.0 Chrome/37.0.0.0 Mobile MQQBrowser/6.8 TBS/036849 Safari/537.36 MicroMessenger/6.3.27.880 NetType/WIFI Language/zh_CN'
p142
sg16
S'8d9d11b7c6377a417315955baf382270'
p143
sa(dp144
g2
S'8682'
p145
sg4
S'1656'
p146
sg6
S'd66c95a4c1c7aa3ad1fe1162a8491ff3'
p147
sg8
S'xxa3aa1ccec7bae8521df990f7b0321a87'
p148
sg10
S'xx5ba6e83ab19ca3a94d39ebfc36eb8d6b'
p149
sg12
S'xxa96ae61572674f965301d91739f7f65d'
p150
sg14
S'Mozilla/5.0 (Linux; Android 4.4.4; 2014813 Build/KTU84P) AppleWebKit/537.36 (KHTML, like Gecko) Version/4.0 Chrome/37.0.0.0 Mobile MQQBrowser/6.8 TBS/036849 Safari/537.36 MicroMessenger/6.3.27.880 NetType/WIFI Language/zh_CN'
p151
sg16
S'8d9d11b7c6377a417315955baf382270'
p152
sa(dp153
g2
S'8682'
p154
sg4
S'1671'
p155
sg6
S'd66c95a4c1c7aa3ad1fe1162a8491ff3'
p156
sg8
S'xxa3aa1ccec7bae8521df990f7b0321a87'
p157
sg10
S'xx5ba6e83ab19ca3a94d39ebfc36eb8d6b'
p158
sg12
S'xxa96ae61572674f965301d91739f7f65d'
p159
sg14
S'Mozilla/5.0 (Linux; Android 4.4.4; 2014813 Build/KTU84P) AppleWebKit/537.36 (KHTML, like Gecko) Version/4.0 Chrome/37.0.0.0 Mobile MQQBrowser/6.8 TBS/036849 Safari/537.36 MicroMessenger/6.3.27.880 NetType/WIFI Language/zh_CN'
p160
sg16
S'8d9d11b7c6377a417315955baf382270'
p161
sa(dp162
g2
S'8682'
p163
sg4
S'1706'
p164
sg6
S'd66c95a4c1c7aa3ad1fe1162a8491ff3'
p165
sg8
S'xxa3aa1ccec7bae8521df990f7b0321a87'
p166
sg10
S'xx5ba6e83ab19ca3a94d39ebfc36eb8d6b'
p167
sg12
S'xxa96ae61572674f965301d91739f7f65d'
p168
sg14
S'Mozilla/5.0 (Linux; Android 4.4.4; 2014813 Build/KTU84P) AppleWebKit/537.36 (KHTML, like Gecko) Version/4.0 Chrome/37.0.0.0 Mobile MQQBrowser/6.8 TBS/036849 Safari/537.36 MicroMessenger/6.3.27.880 NetType/WIFI Language/zh_CN'
p169
sg16
S'8d9d11b7c6377a417315955baf382270'
p170
sa(dp171
g2
S'8682'
p172
sg4
S'1719'
p173
sg6
S'd66c95a4c1c7aa3ad1fe1162a8491ff3'
p174
sg8
S'xxa3aa1ccec7bae8521df990f7b0321a87'
p175
sg10
S'xx5ba6e83ab19ca3a94d39ebfc36eb8d6b'
p176
sg12
S'xxa96ae61572674f965301d91739f7f65d'
p177
sg14
S'Mozilla/5.0 (Linux; Android 4.4.4; 2014813 Build/KTU84P) AppleWebKit/537.36 (KHTML, like Gecko) Version/4.0 Chrome/37.0.0.0 Mobile MQQBrowser/6.8 TBS/036849 Safari/537.36 MicroMessenger/6.3.27.880 NetType/WIFI Language/zh_CN'
p178
sg16
S'8d9d11b7c6377a417315955baf382270'
p179
sa(dp180
g2
S'8682'
p181
sg4
S'1736'
p182
sg6
S'd66c95a4c1c7aa3ad1fe1162a8491ff3'
p183
sg8
S'xxa3aa1ccec7bae8521df990f7b0321a87'
p184
sg10
S'xx5ba6e83ab19ca3a94d39ebfc36eb8d6b'
p185
sg12
S'xxa96ae61572674f965301d91739f7f65d'
p186
sg14
S'Mozilla/5.0 (Linux; Android 4.4.4; 2014813 Build/KTU84P) AppleWebKit/537.36 (KHTML, like Gecko) Version/4.0 Chrome/37.0.0.0 Mobile MQQBrowser/6.8 TBS/036849 Safari/537.36 MicroMessenger/6.3.27.880 NetType/WIFI Language/zh_CN'
p187
sg16
S'8d9d11b7c6377a417315955baf382270'
p188
sa(dp189
g2
S'8682'
p190
sg4
S'1809'
p191
sg6
S'd66c95a4c1c7aa3ad1fe1162a8491ff3'
p192
sg8
S'xxa3aa1ccec7bae8521df990f7b0321a87'
p193
sg10
S'xx5ba6e83ab19ca3a94d39ebfc36eb8d6b'
p194
sg12
S'xxa96ae61572674f965301d91739f7f65d'
p195
sg14
S'Mozilla/5.0 (Linux; Android 4.4.4; 2014813 Build/KTU84P) AppleWebKit/537.36 (KHTML, like Gecko) Version/4.0 Chrome/37.0.0.0 Mobile MQQBrowser/6.8 TBS/036849 Safari/537.36 MicroMessenger/6.3.27.880 NetType/WIFI Language/zh_CN'
p196
sg16
S'8d9d11b7c6377a417315955baf382270'
p197
sa(dp198
g2
S'8682'
p199
sg4
S'1818'
p200
sg6
S'd66c95a4c1c7aa3ad1fe1162a8491ff3'
p201
sg8
S'xxa3aa1ccec7bae8521df990f7b0321a87'
p202
sg10
S'xx5ba6e83ab19ca3a94d39ebfc36eb8d6b'
p203
sg12
S'xxa96ae61572674f965301d91739f7f65d'
p204
sg14
S'Mozilla/5.0 (Linux; Android 4.4.4; 2014813 Build/KTU84P) AppleWebKit/537.36 (KHTML, like Gecko) Version/4.0 Chrome/37.0.0.0 Mobile MQQBrowser/6.8 TBS/036849 Safari/537.36 MicroMessenger/6.3.27.880 NetType/WIFI Language/zh_CN'
p205
sg16
S'8d9d11b7c6377a417315955baf382270'
p206
sa(dp207
g2
S'8682'
p208
sg4
S'1829'
p209
sg6
S'd66c95a4c1c7aa3ad1fe1162a8491ff3'
p210
sg8
S'xxa3aa1ccec7bae8521df990f7b0321a87'
p211
sg10
S'xx5ba6e83ab19ca3a94d39ebfc36eb8d6b'
p212
sg12
S'xxa96ae61572674f965301d91739f7f65d'
p213
sg14
S'Mozilla/5.0 (Linux; Android 4.4.4; 2014813 Build/KTU84P) AppleWebKit/537.36 (KHTML, like Gecko) Version/4.0 Chrome/37.0.0.0 Mobile MQQBrowser/6.8 TBS/036849 Safari/537.36 MicroMessenger/6.3.27.880 NetType/WIFI Language/zh_CN'
p214
sg16
S'8d9d11b7c6377a417315955baf382270'
p215
sa(dp216
g2
S'8682'
p217
sg4
S'1840'
p218
sg6
S'd66c95a4c1c7aa3ad1fe1162a8491ff3'
p219
sg8
S'xxa3aa1ccec7bae8521df990f7b0321a87'
p220
sg10
S'xx5ba6e83ab19ca3a94d39ebfc36eb8d6b'
p221
sg12
S'xxa96ae61572674f965301d91739f7f65d'
p222
sg14
S'Mozilla/5.0 (Linux; Android 4.4.4; 2014813 Build/KTU84P) AppleWebKit/537.36 (KHTML, like Gecko) Version/4.0 Chrome/37.0.0.0 Mobile MQQBrowser/6.8 TBS/036849 Safari/537.36 MicroMessenger/6.3.27.880 NetType/WIFI Language/zh_CN'
p223
sg16
S'8d9d11b7c6377a417315955baf382270'
p224
sa(dp225
g2
S'8682'
p226
sg4
S'1851'
p227
sg6
S'd66c95a4c1c7aa3ad1fe1162a8491ff3'
p228
sg8
S'xxa3aa1ccec7bae8521df990f7b0321a87'
p229
sg10
S'xx5ba6e83ab19ca3a94d39ebfc36eb8d6b'
p230
sg12
S'xxa96ae61572674f965301d91739f7f65d'
p231
sg14
S'Mozilla/5.0 (Linux; Android 4.4.4; 2014813 Build/KTU84P) AppleWebKit/537.36 (KHTML, like Gecko) Version/4.0 Chrome/37.0.0.0 Mobile MQQBrowser/6.8 TBS/036849 Safari/537.36 MicroMessenger/6.3.27.880 NetType/WIFI Language/zh_CN'
p232
sg16
S'8d9d11b7c6377a417315955baf382270'
p233
sa(dp234
g2
S'8682'
p235
sg4
S'1864'
p236
sg6
S'd66c95a4c1c7aa3ad1fe1162a8491ff3'
p237
sg8
S'xxa3aa1ccec7bae8521df990f7b0321a87'
p238
sg10
S'xx5ba6e83ab19ca3a94d39ebfc36eb8d6b'
p239
sg12
S'xxa96ae61572674f965301d91739f7f65d'
p240
sg14
S'Mozilla/5.0 (Linux; Android 4.4.4; 2014813 Build/KTU84P) AppleWebKit/537.36 (KHTML, like Gecko) Version/4.0 Chrome/37.0.0.0 Mobile MQQBrowser/6.8 TBS/036849 Safari/537.36 MicroMessenger/6.3.27.880 NetType/WIFI Language/zh_CN'
p241
sg16
S'8d9d11b7c6377a417315955baf382270'
p242
sa(dp243
g2
S'8682'
p244
sg4
S'1878'
p245
sg6
S'd66c95a4c1c7aa3ad1fe1162a8491ff3'
p246
sg8
S'xxa3aa1ccec7bae8521df990f7b0321a87'
p247
sg10
S'xx5ba6e83ab19ca3a94d39ebfc36eb8d6b'
p248
sg12
S'xxa96ae61572674f965301d91739f7f65d'
p249
sg14
S'Mozilla/5.0 (Linux; Android 4.4.4; 2014813 Build/KTU84P) AppleWebKit/537.36 (KHTML, like Gecko) Version/4.0 Chrome/37.0.0.0 Mobile MQQBrowser/6.8 TBS/036849 Safari/537.36 MicroMessenger/6.3.27.880 NetType/WIFI Language/zh_CN'
p250
sg16
S'8d9d11b7c6377a417315955baf382270'
p251
sa(dp252
g2
S'8682'
p253
sg4
S'1896'
p254
sg6
S'd66c95a4c1c7aa3ad1fe1162a8491ff3'
p255
sg8
S'xxa3aa1ccec7bae8521df990f7b0321a87'
p256
sg10
S'xx5ba6e83ab19ca3a94d39ebfc36eb8d6b'
p257
sg12
S'xxa96ae61572674f965301d91739f7f65d'
p258
sg14
S'Mozilla/5.0 (Linux; Android 4.4.4; 2014813 Build/KTU84P) AppleWebKit/537.36 (KHTML, like Gecko) Version/4.0 Chrome/37.0.0.0 Mobile MQQBrowser/6.8 TBS/036849 Safari/537.36 MicroMessenger/6.3.27.880 NetType/WIFI Language/zh_CN'
p259
sg16
S'8d9d11b7c6377a417315955baf382270'
p260
sa(dp261
g2
S'8682'
p262
sg4
S'1914'
p263
sg6
S'd66c95a4c1c7aa3ad1fe1162a8491ff3'
p264
sg8
S'xxa3aa1ccec7bae8521df990f7b0321a87'
p265
sg10
S'xx5ba6e83ab19ca3a94d39ebfc36eb8d6b'
p266
sg12
S'xxa96ae61572674f965301d91739f7f65d'
p267
sg14
S'Mozilla/5.0 (Linux; Android 4.4.4; 2014813 Build/KTU84P) AppleWebKit/537.36 (KHTML, like Gecko) Version/4.0 Chrome/37.0.0.0 Mobile MQQBrowser/6.8 TBS/036849 Safari/537.36 MicroMessenger/6.3.27.880 NetType/WIFI Language/zh_CN'
p268
sg16
S'8d9d11b7c6377a417315955baf382270'
p269
sa(dp270
g2
S'8682'
p271
sg4
S'1935'
p272
sg6
S'd66c95a4c1c7aa3ad1fe1162a8491ff3'
p273
sg8
S'xxa3aa1ccec7bae8521df990f7b0321a87'
p274
sg10
S'xx5ba6e83ab19ca3a94d39ebfc36eb8d6b'
p275
sg12
S'xxa96ae61572674f965301d91739f7f65d'
p276
sg14
S'Mozilla/5.0 (Linux; Android 4.4.4; 2014813 Build/KTU84P) AppleWebKit/537.36 (KHTML, like Gecko) Version/4.0 Chrome/37.0.0.0 Mobile MQQBrowser/6.8 TBS/036849 Safari/537.36 MicroMessenger/6.3.27.880 NetType/WIFI Language/zh_CN'
p277
sg16
S'8d9d11b7c6377a417315955baf382270'
p278
sa(dp279
g2
S'8682'
p280
sg4
S'1952'
p281
sg6
S'd66c95a4c1c7aa3ad1fe1162a8491ff3'
p282
sg8
S'xxa3aa1ccec7bae8521df990f7b0321a87'
p283
sg10
S'xx5ba6e83ab19ca3a94d39ebfc36eb8d6b'
p284
sg12
S'xxa96ae61572674f965301d91739f7f65d'
p285
sg14
S'Mozilla/5.0 (Linux; Android 4.4.4; 2014813 Build/KTU84P) AppleWebKit/537.36 (KHTML, like Gecko) Version/4.0 Chrome/37.0.0.0 Mobile MQQBrowser/6.8 TBS/036849 Safari/537.36 MicroMessenger/6.3.27.880 NetType/WIFI Language/zh_CN'
p286
sg16
S'8d9d11b7c6377a417315955baf382270'
p287
sa(dp288
g2
S'8682'
p289
sg4
S'1976'
p290
sg6
S'd66c95a4c1c7aa3ad1fe1162a8491ff3'
p291
sg8
S'xxa3aa1ccec7bae8521df990f7b0321a87'
p292
sg10
S'xx5ba6e83ab19ca3a94d39ebfc36eb8d6b'
p293
sg12
S'xxa96ae61572674f965301d91739f7f65d'
p294
sg14
S'Mozilla/5.0 (Linux; Android 4.4.4; 2014813 Build/KTU84P) AppleWebKit/537.36 (KHTML, like Gecko) Version/4.0 Chrome/37.0.0.0 Mobile MQQBrowser/6.8 TBS/036849 Safari/537.36 MicroMessenger/6.3.27.880 NetType/WIFI Language/zh_CN'
p295
sg16
S'8d9d11b7c6377a417315955baf382270'
p296
sa(dp297
g2
S'8682'
p298
sg4
S'1989'
p299
sg6
S'd66c95a4c1c7aa3ad1fe1162a8491ff3'
p300
sg8
S'xxa3aa1ccec7bae8521df990f7b0321a87'
p301
sg10
S'xx5ba6e83ab19ca3a94d39ebfc36eb8d6b'
p302
sg12
S'xxa96ae61572674f965301d91739f7f65d'
p303
sg14
S'Mozilla/5.0 (Linux; Android 4.4.4; 2014813 Build/KTU84P) AppleWebKit/537.36 (KHTML, like Gecko) Version/4.0 Chrome/37.0.0.0 Mobile MQQBrowser/6.8 TBS/036849 Safari/537.36 MicroMessenger/6.3.27.880 NetType/WIFI Language/zh_CN'
p304
sg16
S'8d9d11b7c6377a417315955baf382270'
p305
sa(dp306
g2
S'8682'
p307
sg4
S'2006'
p308
sg6
S'd66c95a4c1c7aa3ad1fe1162a8491ff3'
p309
sg8
S'xxa3aa1ccec7bae8521df990f7b0321a87'
p310
sg10
S'xx5ba6e83ab19ca3a94d39ebfc36eb8d6b'
p311
sg12
S'xxa96ae61572674f965301d91739f7f65d'
p312
sg14
S'Mozilla/5.0 (Linux; Android 4.4.4; 2014813 Build/KTU84P) AppleWebKit/537.36 (KHTML, like Gecko) Version/4.0 Chrome/37.0.0.0 Mobile MQQBrowser/6.8 TBS/036849 Safari/537.36 MicroMessenger/6.3.27.880 NetType/WIFI Language/zh_CN'
p313
sg16
S'8d9d11b7c6377a417315955baf382270'
p314
sa(dp315
g2
S'8682'
p316
sg4
S'2092'
p317
sg6
S'd66c95a4c1c7aa3ad1fe1162a8491ff3'
p318
sg8
S'xxa3aa1ccec7bae8521df990f7b0321a87'
p319
sg10
S'xx5ba6e83ab19ca3a94d39ebfc36eb8d6b'
p320
sg12
S'xxa96ae61572674f965301d91739f7f65d'
p321
sg14
S'Mozilla/5.0 (Linux; Android 4.4.4; 2014813 Build/KTU84P) AppleWebKit/537.36 (KHTML, like Gecko) Version/4.0 Chrome/37.0.0.0 Mobile MQQBrowser/6.8 TBS/036849 Safari/537.36 MicroMessenger/6.3.27.880 NetType/WIFI Language/zh_CN'
p322
sg16
S'8d9d11b7c6377a417315955baf382270'
p323
sa(dp324
g2
S'8682'
p325
sg4
S'2105'
p326
sg6
S'd66c95a4c1c7aa3ad1fe1162a8491ff3'
p327
sg8
S'xxa3aa1ccec7bae8521df990f7b0321a87'
p328
sg10
S'xx5ba6e83ab19ca3a94d39ebfc36eb8d6b'
p329
sg12
S'xxa96ae61572674f965301d91739f7f65d'
p330
sg14
S'Mozilla/5.0 (Linux; Android 4.4.4; 2014813 Build/KTU84P) AppleWebKit/537.36 (KHTML, like Gecko) Version/4.0 Chrome/37.0.0.0 Mobile MQQBrowser/6.8 TBS/036849 Safari/537.36 MicroMessenger/6.3.27.880 NetType/WIFI Language/zh_CN'
p331
sg16
S'8d9d11b7c6377a417315955baf382270'
p332
sa(dp333
g2
S'8682'
p334
sg4
S'2118'
p335
sg6
S'd66c95a4c1c7aa3ad1fe1162a8491ff3'
p336
sg8
S'xxa3aa1ccec7bae8521df990f7b0321a87'
p337
sg10
S'xx5ba6e83ab19ca3a94d39ebfc36eb8d6b'
p338
sg12
S'xxa96ae61572674f965301d91739f7f65d'
p339
sg14
S'Mozilla/5.0 (Linux; Android 4.4.4; 2014813 Build/KTU84P) AppleWebKit/537.36 (KHTML, like Gecko) Version/4.0 Chrome/37.0.0.0 Mobile MQQBrowser/6.8 TBS/036849 Safari/537.36 MicroMessenger/6.3.27.880 NetType/WIFI Language/zh_CN'
p340
sg16
S'8d9d11b7c6377a417315955baf382270'
p341
sa(dp342
g2
S'8682'
p343
sg4
S'2132'
p344
sg6
S'd66c95a4c1c7aa3ad1fe1162a8491ff3'
p345
sg8
S'xxa3aa1ccec7bae8521df990f7b0321a87'
p346
sg10
S'xx5ba6e83ab19ca3a94d39ebfc36eb8d6b'
p347
sg12
S'xxa96ae61572674f965301d91739f7f65d'
p348
sg14
S'Mozilla/5.0 (Linux; Android 4.4.4; 2014813 Build/KTU84P) AppleWebKit/537.36 (KHTML, like Gecko) Version/4.0 Chrome/37.0.0.0 Mobile MQQBrowser/6.8 TBS/036849 Safari/537.36 MicroMessenger/6.3.27.880 NetType/WIFI Language/zh_CN'
p349
sg16
S'8d9d11b7c6377a417315955baf382270'
p350
sa(dp351
g2
S'8682'
p352
sg4
S'2140'
p353
sg6
S'd66c95a4c1c7aa3ad1fe1162a8491ff3'
p354
sg8
S'xxa3aa1ccec7bae8521df990f7b0321a87'
p355
sg10
S'xx5ba6e83ab19ca3a94d39ebfc36eb8d6b'
p356
sg12
S'xxa96ae61572674f965301d91739f7f65d'
p357
sg14
S'Mozilla/5.0 (Linux; Android 4.4.4; 2014813 Build/KTU84P) AppleWebKit/537.36 (KHTML, like Gecko) Version/4.0 Chrome/37.0.0.0 Mobile MQQBrowser/6.8 TBS/036849 Safari/537.36 MicroMessenger/6.3.27.880 NetType/WIFI Language/zh_CN'
p358
sg16
S'8d9d11b7c6377a417315955baf382270'
p359
sa(dp360
g2
S'8682'
p361
sg4
S'2150'
p362
sg6
S'd66c95a4c1c7aa3ad1fe1162a8491ff3'
p363
sg8
S'xxa3aa1ccec7bae8521df990f7b0321a87'
p364
sg10
S'xx5ba6e83ab19ca3a94d39ebfc36eb8d6b'
p365
sg12
S'xxa96ae61572674f965301d91739f7f65d'
p366
sg14
S'Mozilla/5.0 (Linux; Android 4.4.4; 2014813 Build/KTU84P) AppleWebKit/537.36 (KHTML, like Gecko) Version/4.0 Chrome/37.0.0.0 Mobile MQQBrowser/6.8 TBS/036849 Safari/537.36 MicroMessenger/6.3.27.880 NetType/WIFI Language/zh_CN'
p367
sg16
S'8d9d11b7c6377a417315955baf382270'
p368
sa(dp369
g2
S'8682'
p370
sg4
S'2158'
p371
sg6
S'd66c95a4c1c7aa3ad1fe1162a8491ff3'
p372
sg8
S'xxa3aa1ccec7bae8521df990f7b0321a87'
p373
sg10
S'xx5ba6e83ab19ca3a94d39ebfc36eb8d6b'
p374
sg12
S'xxa96ae61572674f965301d91739f7f65d'
p375
sg14
S'Mozilla/5.0 (Linux; Android 4.4.4; 2014813 Build/KTU84P) AppleWebKit/537.36 (KHTML, like Gecko) Version/4.0 Chrome/37.0.0.0 Mobile MQQBrowser/6.8 TBS/036849 Safari/537.36 MicroMessenger/6.3.27.880 NetType/WIFI Language/zh_CN'
p376
sg16
S'8d9d11b7c6377a417315955baf382270'
p377
sa(dp378
g2
S'8682'
p379
sg4
S'2169'
p380
sg6
S'd66c95a4c1c7aa3ad1fe1162a8491ff3'
p381
sg8
S'xxa3aa1ccec7bae8521df990f7b0321a87'
p382
sg10
S'xx5ba6e83ab19ca3a94d39ebfc36eb8d6b'
p383
sg12
S'xxa96ae61572674f965301d91739f7f65d'
p384
sg14
S'Mozilla/5.0 (Linux; Android 4.4.4; 2014813 Build/KTU84P) AppleWebKit/537.36 (KHTML, like Gecko) Version/4.0 Chrome/37.0.0.0 Mobile MQQBrowser/6.8 TBS/036849 Safari/537.36 MicroMessenger/6.3.27.880 NetType/WIFI Language/zh_CN'
p385
sg16
S'8d9d11b7c6377a417315955baf382270'
p386
sa(dp387
g2
S'8682'
p388
sg4
S'2184'
p389
sg6
S'd66c95a4c1c7aa3ad1fe1162a8491ff3'
p390
sg8
S'xxa3aa1ccec7bae8521df990f7b0321a87'
p391
sg10
S'xx5ba6e83ab19ca3a94d39ebfc36eb8d6b'
p392
sg12
S'xxa96ae61572674f965301d91739f7f65d'
p393
sg14
S'Mozilla/5.0 (Linux; Android 4.4.4; 2014813 Build/KTU84P) AppleWebKit/537.36 (KHTML, like Gecko) Version/4.0 Chrome/37.0.0.0 Mobile MQQBrowser/6.8 TBS/036849 Safari/537.36 MicroMessenger/6.3.27.880 NetType/WIFI Language/zh_CN'
p394
sg16
S'8d9d11b7c6377a417315955baf382270'
p395
sa(dp396
g2
S'8682'
p397
sg4
S'2203'
p398
sg6
S'd66c95a4c1c7aa3ad1fe1162a8491ff3'
p399
sg8
S'xxa3aa1ccec7bae8521df990f7b0321a87'
p400
sg10
S'xx5ba6e83ab19ca3a94d39ebfc36eb8d6b'
p401
sg12
S'xxa96ae61572674f965301d91739f7f65d'
p402
sg14
S'Mozilla/5.0 (Linux; Android 4.4.4; 2014813 Build/KTU84P) AppleWebKit/537.36 (KHTML, like Gecko) Version/4.0 Chrome/37.0.0.0 Mobile MQQBrowser/6.8 TBS/036849 Safari/537.36 MicroMessenger/6.3.27.880 NetType/WIFI Language/zh_CN'
p403
sg16
S'8d9d11b7c6377a417315955baf382270'
p404
sa(dp405
g2
S'8682'
p406
sg4
S'2221'
p407
sg6
S'd66c95a4c1c7aa3ad1fe1162a8491ff3'
p408
sg8
S'xxa3aa1ccec7bae8521df990f7b0321a87'
p409
sg10
S'xx5ba6e83ab19ca3a94d39ebfc36eb8d6b'
p410
sg12
S'xxa96ae61572674f965301d91739f7f65d'
p411
sg14
S'Mozilla/5.0 (Linux; Android 4.4.4; 2014813 Build/KTU84P) AppleWebKit/537.36 (KHTML, like Gecko) Version/4.0 Chrome/37.0.0.0 Mobile MQQBrowser/6.8 TBS/036849 Safari/537.36 MicroMessenger/6.3.27.880 NetType/WIFI Language/zh_CN'
p412
sg16
S'8d9d11b7c6377a417315955baf382270'
p413
sa(dp414
g2
S'8682'
p415
sg4
S'2260'
p416
sg6
S'd66c95a4c1c7aa3ad1fe1162a8491ff3'
p417
sg8
S'xxa3aa1ccec7bae8521df990f7b0321a87'
p418
sg10
S'xx5ba6e83ab19ca3a94d39ebfc36eb8d6b'
p419
sg12
S'xxa96ae61572674f965301d91739f7f65d'
p420
sg14
S'Mozilla/5.0 (Linux; Android 4.4.4; 2014813 Build/KTU84P) AppleWebKit/537.36 (KHTML, like Gecko) Version/4.0 Chrome/37.0.0.0 Mobile MQQBrowser/6.8 TBS/036849 Safari/537.36 MicroMessenger/6.3.27.880 NetType/WIFI Language/zh_CN'
p421
sg16
S'8d9d11b7c6377a417315955baf382270'
p422
sa(dp423
g2
S'8682'
p424
sg4
S'2274'
p425
sg6
S'd66c95a4c1c7aa3ad1fe1162a8491ff3'
p426
sg8
S'xxa3aa1ccec7bae8521df990f7b0321a87'
p427
sg10
S'xx5ba6e83ab19ca3a94d39ebfc36eb8d6b'
p428
sg12
S'xxa96ae61572674f965301d91739f7f65d'
p429
sg14
S'Mozilla/5.0 (Linux; Android 4.4.4; 2014813 Build/KTU84P) AppleWebKit/537.36 (KHTML, like Gecko) Version/4.0 Chrome/37.0.0.0 Mobile MQQBrowser/6.8 TBS/036849 Safari/537.36 MicroMessenger/6.3.27.880 NetType/WIFI Language/zh_CN'
p430
sg16
S'8d9d11b7c6377a417315955baf382270'
p431
sa(dp432
g2
S'8682'
p433
sg4
S'2288'
p434
sg6
S'd66c95a4c1c7aa3ad1fe1162a8491ff3'
p435
sg8
S'xxa3aa1ccec7bae8521df990f7b0321a87'
p436
sg10
S'xx5ba6e83ab19ca3a94d39ebfc36eb8d6b'
p437
sg12
S'xxa96ae61572674f965301d91739f7f65d'
p438
sg14
S'Mozilla/5.0 (Linux; Android 4.4.4; 2014813 Build/KTU84P) AppleWebKit/537.36 (KHTML, like Gecko) Version/4.0 Chrome/37.0.0.0 Mobile MQQBrowser/6.8 TBS/036849 Safari/537.36 MicroMessenger/6.3.27.880 NetType/WIFI Language/zh_CN'
p439
sg16
S'8d9d11b7c6377a417315955baf382270'
p440
sa(dp441
g2
S'8682'
p442
sg4
S'2301'
p443
sg6
S'd66c95a4c1c7aa3ad1fe1162a8491ff3'
p444
sg8
S'xxa3aa1ccec7bae8521df990f7b0321a87'
p445
sg10
S'xx5ba6e83ab19ca3a94d39ebfc36eb8d6b'
p446
sg12
S'xxa96ae61572674f965301d91739f7f65d'
p447
sg14
S'Mozilla/5.0 (Linux; Android 4.4.4; 2014813 Build/KTU84P) AppleWebKit/537.36 (KHTML, like Gecko) Version/4.0 Chrome/37.0.0.0 Mobile MQQBrowser/6.8 TBS/036849 Safari/537.36 MicroMessenger/6.3.27.880 NetType/WIFI Language/zh_CN'
p448
sg16
S'8d9d11b7c6377a417315955baf382270'
p449
sa(dp450
g2
S'8682'
p451
sg4
S'2314'
p452
sg6
S'd66c95a4c1c7aa3ad1fe1162a8491ff3'
p453
sg8
S'xxa3aa1ccec7bae8521df990f7b0321a87'
p454
sg10
S'xx5ba6e83ab19ca3a94d39ebfc36eb8d6b'
p455
sg12
S'xxa96ae61572674f965301d91739f7f65d'
p456
sg14
S'Mozilla/5.0 (Linux; Android 4.4.4; 2014813 Build/KTU84P) AppleWebKit/537.36 (KHTML, like Gecko) Version/4.0 Chrome/37.0.0.0 Mobile MQQBrowser/6.8 TBS/036849 Safari/537.36 MicroMessenger/6.3.27.880 NetType/WIFI Language/zh_CN'
p457
sg16
S'8d9d11b7c6377a417315955baf382270'
p458
sa(dp459
g2
S'8682'
p460
sg4
S'2343'
p461
sg6
S'd66c95a4c1c7aa3ad1fe1162a8491ff3'
p462
sg8
S'xxa3aa1ccec7bae8521df990f7b0321a87'
p463
sg10
S'xx5ba6e83ab19ca3a94d39ebfc36eb8d6b'
p464
sg12
S'xxa96ae61572674f965301d91739f7f65d'
p465
sg14
S'Mozilla/5.0 (Linux; Android 4.4.4; 2014813 Build/KTU84P) AppleWebKit/537.36 (KHTML, like Gecko) Version/4.0 Chrome/37.0.0.0 Mobile MQQBrowser/6.8 TBS/036849 Safari/537.36 MicroMessenger/6.3.27.880 NetType/WIFI Language/zh_CN'
p466
sg16
S'8d9d11b7c6377a417315955baf382270'
p467
sa(dp468
g2
S'8682'
p469
sg4
S'2357'
p470
sg6
S'd66c95a4c1c7aa3ad1fe1162a8491ff3'
p471
sg8
S'xxa3aa1ccec7bae8521df990f7b0321a87'
p472
sg10
S'xx5ba6e83ab19ca3a94d39ebfc36eb8d6b'
p473
sg12
S'xxa96ae61572674f965301d91739f7f65d'
p474
sg14
S'Mozilla/5.0 (Linux; Android 4.4.4; 2014813 Build/KTU84P) AppleWebKit/537.36 (KHTML, like Gecko) Version/4.0 Chrome/37.0.0.0 Mobile MQQBrowser/6.8 TBS/036849 Safari/537.36 MicroMessenger/6.3.27.880 NetType/WIFI Language/zh_CN'
p475
sg16
S'8d9d11b7c6377a417315955baf382270'
p476
sa(dp477
g2
S'8682'
p478
sg4
S'2379'
p479
sg6
S'd66c95a4c1c7aa3ad1fe1162a8491ff3'
p480
sg8
S'xxa3aa1ccec7bae8521df990f7b0321a87'
p481
sg10
S'xx5ba6e83ab19ca3a94d39ebfc36eb8d6b'
p482
sg12
S'xxa96ae61572674f965301d91739f7f65d'
p483
sg14
S'Mozilla/5.0 (Linux; Android 4.4.4; 2014813 Build/KTU84P) AppleWebKit/537.36 (KHTML, like Gecko) Version/4.0 Chrome/37.0.0.0 Mobile MQQBrowser/6.8 TBS/036849 Safari/537.36 MicroMessenger/6.3.27.880 NetType/WIFI Language/zh_CN'
p484
sg16
S'8d9d11b7c6377a417315955baf382270'
p485
sa(dp486
g2
S'8682'
p487
sg4
S'2394'
p488
sg6
S'd66c95a4c1c7aa3ad1fe1162a8491ff3'
p489
sg8
S'xxa3aa1ccec7bae8521df990f7b0321a87'
p490
sg10
S'xx5ba6e83ab19ca3a94d39ebfc36eb8d6b'
p491
sg12
S'xxa96ae61572674f965301d91739f7f65d'
p492
sg14
S'Mozilla/5.0 (Linux; Android 4.4.4; 2014813 Build/KTU84P) AppleWebKit/537.36 (KHTML, like Gecko) Version/4.0 Chrome/37.0.0.0 Mobile MQQBrowser/6.8 TBS/036849 Safari/537.36 MicroMessenger/6.3.27.880 NetType/WIFI Language/zh_CN'
p493
sg16
S'8d9d11b7c6377a417315955baf382270'
p494
sa(dp495
g2
S'8682'
p496
sg4
S'2412'
p497
sg6
S'd66c95a4c1c7aa3ad1fe1162a8491ff3'
p498
sg8
S'xxa3aa1ccec7bae8521df990f7b0321a87'
p499
sg10
S'xx5ba6e83ab19ca3a94d39ebfc36eb8d6b'
p500
sg12
S'xxa96ae61572674f965301d91739f7f65d'
p501
sg14
S'Mozilla/5.0 (Linux; Android 4.4.4; 2014813 Build/KTU84P) AppleWebKit/537.36 (KHTML, like Gecko) Version/4.0 Chrome/37.0.0.0 Mobile MQQBrowser/6.8 TBS/036849 Safari/537.36 MicroMessenger/6.3.27.880 NetType/WIFI Language/zh_CN'
p502
sg16
S'8d9d11b7c6377a417315955baf382270'
p503
sa(dp504
g2
S'8682'
p505
sg4
S'2462'
p506
sg6
S'd66c95a4c1c7aa3ad1fe1162a8491ff3'
p507
sg8
S'xxa3aa1ccec7bae8521df990f7b0321a87'
p508
sg10
S'xx5ba6e83ab19ca3a94d39ebfc36eb8d6b'
p509
sg12
S'xxa96ae61572674f965301d91739f7f65d'
p510
sg14
S'Mozilla/5.0 (Linux; Android 4.4.4; 2014813 Build/KTU84P) AppleWebKit/537.36 (KHTML, like Gecko) Version/4.0 Chrome/37.0.0.0 Mobile MQQBrowser/6.8 TBS/036849 Safari/537.36 MicroMessenger/6.3.27.880 NetType/WIFI Language/zh_CN'
p511
sg16
S'8d9d11b7c6377a417315955baf382270'
p512
sa(dp513
g2
S'8682'
p514
sg4
S'2516'
p515
sg6
S'cdbdb79d2acb95a14a0ce4debe0b4332'
p516
sg8
S'xxa3aa1ccec7bae8521df990f7b0321a87'
p517
sg10
S'xx5ba6e83ab19ca3a94d39ebfc36eb8d6b'
p518
sg12
S'xxa96ae61572674f965301d91739f7f65d'
p519
sg14
S'Mozilla/5.0 (Linux; Android 4.4.4; 2014813 Build/KTU84P) AppleWebKit/537.36 (KHTML, like Gecko) Version/4.0 Chrome/37.0.0.0 Mobile MQQBrowser/6.8 TBS/036849 Safari/537.36 MicroMessenger/6.3.27.880 NetType/WIFI Language/zh_CN'
p520
sg16
S'8d9d11b7c6377a417315955baf382270'
p521
sa(dp522
g2
S'8682'
p523
sg4
S'2550'
p524
sg6
S'104003ebea970761ffb062cad5ab8735'
p525
sg8
S'xxa3aa1ccec7bae8521df990f7b0321a87'
p526
sg10
S'xx5ba6e83ab19ca3a94d39ebfc36eb8d6b'
p527
sg12
S'xxa96ae61572674f965301d91739f7f65d'
p528
sg14
S'Mozilla/5.0 (Linux; Android 4.4.4; 2014813 Build/KTU84P) AppleWebKit/537.36 (KHTML, like Gecko) Version/4.0 Chrome/37.0.0.0 Mobile MQQBrowser/6.8 TBS/036849 Safari/537.36 MicroMessenger/6.3.27.880 NetType/WIFI Language/zh_CN'
p529
sg16
S'8d9d11b7c6377a417315955baf382270'
p530
sa(dp531
g2
S'8682'
p532
sg4
S'2573'
p533
sg6
S'104003ebea970761ffb062cad5ab8735'
p534
sg8
S'xxa3aa1ccec7bae8521df990f7b0321a87'
p535
sg10
S'xx5ba6e83ab19ca3a94d39ebfc36eb8d6b'
p536
sg12
S'xxa96ae61572674f965301d91739f7f65d'
p537
sg14
S'Mozilla/5.0 (Linux; Android 4.4.4; 2014813 Build/KTU84P) AppleWebKit/537.36 (KHTML, like Gecko) Version/4.0 Chrome/37.0.0.0 Mobile MQQBrowser/6.8 TBS/036849 Safari/537.36 MicroMessenger/6.3.27.880 NetType/WIFI Language/zh_CN'
p538
sg16
S'8d9d11b7c6377a417315955baf382270'
p539
sa(dp540
g2
S'8682'
p541
sg4
S'2591'
p542
sg6
S'104003ebea970761ffb062cad5ab8735'
p543
sg8
S'xxa3aa1ccec7bae8521df990f7b0321a87'
p544
sg10
S'xx5ba6e83ab19ca3a94d39ebfc36eb8d6b'
p545
sg12
S'xxa96ae61572674f965301d91739f7f65d'
p546
sg14
S'Mozilla/5.0 (Linux; Android 4.4.4; 2014813 Build/KTU84P) AppleWebKit/537.36 (KHTML, like Gecko) Version/4.0 Chrome/37.0.0.0 Mobile MQQBrowser/6.8 TBS/036849 Safari/537.36 MicroMessenger/6.3.27.880 NetType/WIFI Language/zh_CN'
p547
sg16
S'8d9d11b7c6377a417315955baf382270'
p548
sa(dp549
g2
S'8682'
p550
sg4
S'2609'
p551
sg6
S'104003ebea970761ffb062cad5ab8735'
p552
sg8
S'xxa3aa1ccec7bae8521df990f7b0321a87'
p553
sg10
S'xx5ba6e83ab19ca3a94d39ebfc36eb8d6b'
p554
sg12
S'xxa96ae61572674f965301d91739f7f65d'
p555
sg14
S'Mozilla/5.0 (Linux; Android 4.4.4; 2014813 Build/KTU84P) AppleWebKit/537.36 (KHTML, like Gecko) Version/4.0 Chrome/37.0.0.0 Mobile MQQBrowser/6.8 TBS/036849 Safari/537.36 MicroMessenger/6.3.27.880 NetType/WIFI Language/zh_CN'
p556
sg16
S'8d9d11b7c6377a417315955baf382270'
p557
sa(dp558
g2
S'8682'
p559
sg4
S'2626'
p560
sg6
S'104003ebea970761ffb062cad5ab8735'
p561
sg8
S'xxa3aa1ccec7bae8521df990f7b0321a87'
p562
sg10
S'xx5ba6e83ab19ca3a94d39ebfc36eb8d6b'
p563
sg12
S'xxa96ae61572674f965301d91739f7f65d'
p564
sg14
S'Mozilla/5.0 (Linux; Android 4.4.4; 2014813 Build/KTU84P) AppleWebKit/537.36 (KHTML, like Gecko) Version/4.0 Chrome/37.0.0.0 Mobile MQQBrowser/6.8 TBS/036849 Safari/537.36 MicroMessenger/6.3.27.880 NetType/WIFI Language/zh_CN'
p565
sg16
S'8d9d11b7c6377a417315955baf382270'
p566
sa(dp567
g2
S'8682'
p568
sg4
S'2669'
p569
sg6
S'104003ebea970761ffb062cad5ab8735'
p570
sg8
S'xxa3aa1ccec7bae8521df990f7b0321a87'
p571
sg10
S'xx5ba6e83ab19ca3a94d39ebfc36eb8d6b'
p572
sg12
S'xxa96ae61572674f965301d91739f7f65d'
p573
sg14
S'Mozilla/5.0 (Linux; Android 4.4.4; 2014813 Build/KTU84P) AppleWebKit/537.36 (KHTML, like Gecko) Version/4.0 Chrome/37.0.0.0 Mobile MQQBrowser/6.8 TBS/036849 Safari/537.36 MicroMessenger/6.3.27.880 NetType/WIFI Language/zh_CN'
p574
sg16
S'8d9d11b7c6377a417315955baf382270'
p575
sa(dp576
g2
S'8682'
p577
sg4
S'2692'
p578
sg6
S'104003ebea970761ffb062cad5ab8735'
p579
sg8
S'xxa3aa1ccec7bae8521df990f7b0321a87'
p580
sg10
S'xx5ba6e83ab19ca3a94d39ebfc36eb8d6b'
p581
sg12
S'xxa96ae61572674f965301d91739f7f65d'
p582
sg14
S'Mozilla/5.0 (Linux; Android 4.4.4; 2014813 Build/KTU84P) AppleWebKit/537.36 (KHTML, like Gecko) Version/4.0 Chrome/37.0.0.0 Mobile MQQBrowser/6.8 TBS/036849 Safari/537.36 MicroMessenger/6.3.27.880 NetType/WIFI Language/zh_CN'
p583
sg16
S'8d9d11b7c6377a417315955baf382270'
p584
sa(dp585
g2
S'8682'
p586
sg4
S'2717'
p587
sg6
S'104003ebea970761ffb062cad5ab8735'
p588
sg8
S'xxa3aa1ccec7bae8521df990f7b0321a87'
p589
sg10
S'xx5ba6e83ab19ca3a94d39ebfc36eb8d6b'
p590
sg12
S'xxa96ae61572674f965301d91739f7f65d'
p591
sg14
S'Mozilla/5.0 (Linux; Android 4.4.4; 2014813 Build/KTU84P) AppleWebKit/537.36 (KHTML, like Gecko) Version/4.0 Chrome/37.0.0.0 Mobile MQQBrowser/6.8 TBS/036849 Safari/537.36 MicroMessenger/6.3.27.880 NetType/WIFI Language/zh_CN'
p592
sg16
S'8d9d11b7c6377a417315955baf382270'
p593
sa(dp594
g2
S'8682'
p595
sg4
S'2736'
p596
sg6
S'104003ebea970761ffb062cad5ab8735'
p597
sg8
S'xxa3aa1ccec7bae8521df990f7b0321a87'
p598
sg10
S'xx5ba6e83ab19ca3a94d39ebfc36eb8d6b'
p599
sg12
S'xxa96ae61572674f965301d91739f7f65d'
p600
sg14
S'Mozilla/5.0 (Linux; Android 4.4.4; 2014813 Build/KTU84P) AppleWebKit/537.36 (KHTML, like Gecko) Version/4.0 Chrome/37.0.0.0 Mobile MQQBrowser/6.8 TBS/036849 Safari/537.36 MicroMessenger/6.3.27.880 NetType/WIFI Language/zh_CN'
p601
sg16
S'8d9d11b7c6377a417315955baf382270'
p602
sa(dp603
g2
S'8682'
p604
sg4
S'2743'
p605
sg6
S'104003ebea970761ffb062cad5ab8735'
p606
sg8
S'xxa3aa1ccec7bae8521df990f7b0321a87'
p607
sg10
S'xx5ba6e83ab19ca3a94d39ebfc36eb8d6b'
p608
sg12
S'xxa96ae61572674f965301d91739f7f65d'
p609
sg14
S'Mozilla/5.0 (Linux; Android 4.4.4; 2014813 Build/KTU84P) AppleWebKit/537.36 (KHTML, like Gecko) Version/4.0 Chrome/37.0.0.0 Mobile MQQBrowser/6.8 TBS/036849 Safari/537.36 MicroMessenger/6.3.27.880 NetType/WIFI Language/zh_CN'
p610
sg16
S'8d9d11b7c6377a417315955baf382270'
p611
sa(dp612
g2
S'8682'
p613
sg4
S'2766'
p614
sg6
S'0c6fd68c67fcb80ac52723c3911d773a'
p615
sg8
S'xxa3aa1ccec7bae8521df990f7b0321a87'
p616
sg10
S'xx5ba6e83ab19ca3a94d39ebfc36eb8d6b'
p617
sg12
S'xxa96ae61572674f965301d91739f7f65d'
p618
sg14
S'Mozilla/5.0 (Linux; Android 4.4.4; 2014813 Build/KTU84P) AppleWebKit/537.36 (KHTML, like Gecko) Version/4.0 Chrome/37.0.0.0 Mobile MQQBrowser/6.8 TBS/036849 Safari/537.36 MicroMessenger/6.3.27.880 NetType/WIFI Language/zh_CN'
p619
sg16
S'8d9d11b7c6377a417315955baf382270'
p620
sa(dp621
g2
S'8682'
p622
sg4
S'2781'
p623
sg6
S'0c6fd68c67fcb80ac52723c3911d773a'
p624
sg8
S'xxa3aa1ccec7bae8521df990f7b0321a87'
p625
sg10
S'xx5ba6e83ab19ca3a94d39ebfc36eb8d6b'
p626
sg12
S'xxa96ae61572674f965301d91739f7f65d'
p627
sg14
S'Mozilla/5.0 (Linux; Android 4.4.4; 2014813 Build/KTU84P) AppleWebKit/537.36 (KHTML, like Gecko) Version/4.0 Chrome/37.0.0.0 Mobile MQQBrowser/6.8 TBS/036849 Safari/537.36 MicroMessenger/6.3.27.880 NetType/WIFI Language/zh_CN'
p628
sg16
S'8d9d11b7c6377a417315955baf382270'
p629
sa(dp630
g2
S'8682'
p631
sg4
S'2789'
p632
sg6
S'0c6fd68c67fcb80ac52723c3911d773a'
p633
sg8
S'xxa3aa1ccec7bae8521df990f7b0321a87'
p634
sg10
S'xx5ba6e83ab19ca3a94d39ebfc36eb8d6b'
p635
sg12
S'xxa96ae61572674f965301d91739f7f65d'
p636
sg14
S'Mozilla/5.0 (Linux; Android 4.4.4; 2014813 Build/KTU84P) AppleWebKit/537.36 (KHTML, like Gecko) Version/4.0 Chrome/37.0.0.0 Mobile MQQBrowser/6.8 TBS/036849 Safari/537.36 MicroMessenger/6.3.27.880 NetType/WIFI Language/zh_CN'
p637
sg16
S'8d9d11b7c6377a417315955baf382270'
p638
sa(dp639
g2
S'8682'
p640
sg4
S'2803'
p641
sg6
S'0c6fd68c67fcb80ac52723c3911d773a'
p642
sg8
S'xxa3aa1ccec7bae8521df990f7b0321a87'
p643
sg10
S'xx5ba6e83ab19ca3a94d39ebfc36eb8d6b'
p644
sg12
S'xxa96ae61572674f965301d91739f7f65d'
p645
sg14
S'Mozilla/5.0 (Linux; Android 4.4.4; 2014813 Build/KTU84P) AppleWebKit/537.36 (KHTML, like Gecko) Version/4.0 Chrome/37.0.0.0 Mobile MQQBrowser/6.8 TBS/036849 Safari/537.36 MicroMessenger/6.3.27.880 NetType/WIFI Language/zh_CN'
p646
sg16
S'8d9d11b7c6377a417315955baf382270'
p647
sa(dp648
g2
S'8682'
p649
sg4
S'2820'
p650
sg6
S'0c6fd68c67fcb80ac52723c3911d773a'
p651
sg8
S'xxa3aa1ccec7bae8521df990f7b0321a87'
p652
sg10
S'xx5ba6e83ab19ca3a94d39ebfc36eb8d6b'
p653
sg12
S'xxa96ae61572674f965301d91739f7f65d'
p654
sg14
S'Mozilla/5.0 (Linux; Android 4.4.4; 2014813 Build/KTU84P) AppleWebKit/537.36 (KHTML, like Gecko) Version/4.0 Chrome/37.0.0.0 Mobile MQQBrowser/6.8 TBS/036849 Safari/537.36 MicroMessenger/6.3.27.880 NetType/WIFI Language/zh_CN'
p655
sg16
S'8d9d11b7c6377a417315955baf382270'
p656
sa(dp657
g2
S'8682'
p658
sg4
S'2840'
p659
sg6
S'0c6fd68c67fcb80ac52723c3911d773a'
p660
sg8
S'xxa3aa1ccec7bae8521df990f7b0321a87'
p661
sg10
S'xx5ba6e83ab19ca3a94d39ebfc36eb8d6b'
p662
sg12
S'xxa96ae61572674f965301d91739f7f65d'
p663
sg14
S'Mozilla/5.0 (Linux; Android 4.4.4; 2014813 Build/KTU84P) AppleWebKit/537.36 (KHTML, like Gecko) Version/4.0 Chrome/37.0.0.0 Mobile MQQBrowser/6.8 TBS/036849 Safari/537.36 MicroMessenger/6.3.27.880 NetType/WIFI Language/zh_CN'
p664
sg16
S'8d9d11b7c6377a417315955baf382270'
p665
sa(dp666
g2
S'8682'
p667
sg4
S'2859'
p668
sg6
S'0c6fd68c67fcb80ac52723c3911d773a'
p669
sg8
S'xxa3aa1ccec7bae8521df990f7b0321a87'
p670
sg10
S'xx5ba6e83ab19ca3a94d39ebfc36eb8d6b'
p671
sg12
S'xxa96ae61572674f965301d91739f7f65d'
p672
sg14
S'Mozilla/5.0 (Linux; Android 4.4.4; 2014813 Build/KTU84P) AppleWebKit/537.36 (KHTML, like Gecko) Version/4.0 Chrome/37.0.0.0 Mobile MQQBrowser/6.8 TBS/036849 Safari/537.36 MicroMessenger/6.3.27.880 NetType/WIFI Language/zh_CN'
p673
sg16
S'8d9d11b7c6377a417315955baf382270'
p674
sa(dp675
g2
S'8682'
p676
sg4
S'2887'
p677
sg6
S'0c6fd68c67fcb80ac52723c3911d773a'
p678
sg8
S'xxa3aa1ccec7bae8521df990f7b0321a87'
p679
sg10
S'xx5ba6e83ab19ca3a94d39ebfc36eb8d6b'
p680
sg12
S'xxa96ae61572674f965301d91739f7f65d'
p681
sg14
S'Mozilla/5.0 (Linux; Android 4.4.4; 2014813 Build/KTU84P) AppleWebKit/537.36 (KHTML, like Gecko) Version/4.0 Chrome/37.0.0.0 Mobile MQQBrowser/6.8 TBS/036849 Safari/537.36 MicroMessenger/6.3.27.880 NetType/WIFI Language/zh_CN'
p682
sg16
S'8d9d11b7c6377a417315955baf382270'
p683
sa(dp684
g2
S'8682'
p685
sg4
S'2914'
p686
sg6
S'0c6fd68c67fcb80ac52723c3911d773a'
p687
sg8
S'xxa3aa1ccec7bae8521df990f7b0321a87'
p688
sg10
S'xx5ba6e83ab19ca3a94d39ebfc36eb8d6b'
p689
sg12
S'xxa96ae61572674f965301d91739f7f65d'
p690
sg14
S'Mozilla/5.0 (Linux; Android 4.4.4; 2014813 Build/KTU84P) AppleWebKit/537.36 (KHTML, like Gecko) Version/4.0 Chrome/37.0.0.0 Mobile MQQBrowser/6.8 TBS/036849 Safari/537.36 MicroMessenger/6.3.27.880 NetType/WIFI Language/zh_CN'
p691
sg16
S'8d9d11b7c6377a417315955baf382270'
p692
sa(dp693
g2
S'8682'
p694
sg4
S'2921'
p695
sg6
S'0c6fd68c67fcb80ac52723c3911d773a'
p696
sg8
S'xxa3aa1ccec7bae8521df990f7b0321a87'
p697
sg10
S'xx5ba6e83ab19ca3a94d39ebfc36eb8d6b'
p698
sg12
S'xxa96ae61572674f965301d91739f7f65d'
p699
sg14
S'Mozilla/5.0 (Linux; Android 4.4.4; 2014813 Build/KTU84P) AppleWebKit/537.36 (KHTML, like Gecko) Version/4.0 Chrome/37.0.0.0 Mobile MQQBrowser/6.8 TBS/036849 Safari/537.36 MicroMessenger/6.3.27.880 NetType/WIFI Language/zh_CN'
p700
sg16
S'8d9d11b7c6377a417315955baf382270'
p701
sa(dp702
g2
S'8682'
p703
sg4
S'2945'
p704
sg6
S'0c6fd68c67fcb80ac52723c3911d773a'
p705
sg8
S'xxa3aa1ccec7bae8521df990f7b0321a87'
p706
sg10
S'xx5ba6e83ab19ca3a94d39ebfc36eb8d6b'
p707
sg12
S'xxa96ae61572674f965301d91739f7f65d'
p708
sg14
S'Mozilla/5.0 (Linux; Android 4.4.4; 2014813 Build/KTU84P) AppleWebKit/537.36 (KHTML, like Gecko) Version/4.0 Chrome/37.0.0.0 Mobile MQQBrowser/6.8 TBS/036849 Safari/537.36 MicroMessenger/6.3.27.880 NetType/WIFI Language/zh_CN'
p709
sg16
S'8d9d11b7c6377a417315955baf382270'
p710
sa(dp711
g2
S'8682'
p712
sg4
S'2964'
p713
sg6
S'0c6fd68c67fcb80ac52723c3911d773a'
p714
sg8
S'xxa3aa1ccec7bae8521df990f7b0321a87'
p715
sg10
S'xx5ba6e83ab19ca3a94d39ebfc36eb8d6b'
p716
sg12
S'xxa96ae61572674f965301d91739f7f65d'
p717
sg14
S'Mozilla/5.0 (Linux; Android 4.4.4; 2014813 Build/KTU84P) AppleWebKit/537.36 (KHTML, like Gecko) Version/4.0 Chrome/37.0.0.0 Mobile MQQBrowser/6.8 TBS/036849 Safari/537.36 MicroMessenger/6.3.27.880 NetType/WIFI Language/zh_CN'
p718
sg16
S'8d9d11b7c6377a417315955baf382270'
p719
sa(dp720
g2
S'8682'
p721
sg4
S'2981'
p722
sg6
S'0c6fd68c67fcb80ac52723c3911d773a'
p723
sg8
S'xxa3aa1ccec7bae8521df990f7b0321a87'
p724
sg10
S'xx5ba6e83ab19ca3a94d39ebfc36eb8d6b'
p725
sg12
S'xxa96ae61572674f965301d91739f7f65d'
p726
sg14
S'Mozilla/5.0 (Linux; Android 4.4.4; 2014813 Build/KTU84P) AppleWebKit/537.36 (KHTML, like Gecko) Version/4.0 Chrome/37.0.0.0 Mobile MQQBrowser/6.8 TBS/036849 Safari/537.36 MicroMessenger/6.3.27.880 NetType/WIFI Language/zh_CN'
p727
sg16
S'8d9d11b7c6377a417315955baf382270'
p728
sa(dp729
g2
S'8682'
p730
sg4
S'2996'
p731
sg6
S'0c6fd68c67fcb80ac52723c3911d773a'
p732
sg8
S'xxa3aa1ccec7bae8521df990f7b0321a87'
p733
sg10
S'xx5ba6e83ab19ca3a94d39ebfc36eb8d6b'
p734
sg12
S'xxa96ae61572674f965301d91739f7f65d'
p735
sg14
S'Mozilla/5.0 (Linux; Android 4.4.4; 2014813 Build/KTU84P) AppleWebKit/537.36 (KHTML, like Gecko) Version/4.0 Chrome/37.0.0.0 Mobile MQQBrowser/6.8 TBS/036849 Safari/537.36 MicroMessenger/6.3.27.880 NetType/WIFI Language/zh_CN'
p736
sg16
S'8d9d11b7c6377a417315955baf382270'
p737
sa(dp738
g2
S'8682'
p739
sg4
S'3109'
p740
sg6
S'0c6fd68c67fcb80ac52723c3911d773a'
p741
sg8
S'xxa3aa1ccec7bae8521df990f7b0321a87'
p742
sg10
S'xx5ba6e83ab19ca3a94d39ebfc36eb8d6b'
p743
sg12
S'xxa96ae61572674f965301d91739f7f65d'
p744
sg14
S'Mozilla/5.0 (Linux; Android 4.4.4; 2014813 Build/KTU84P) AppleWebKit/537.36 (KHTML, like Gecko) Version/4.0 Chrome/37.0.0.0 Mobile MQQBrowser/6.8 TBS/036849 Safari/537.36 MicroMessenger/6.3.27.880 NetType/WIFI Language/zh_CN'
p745
sg16
S'8d9d11b7c6377a417315955baf382270'
p746
sa(dp747
g2
S'8682'
p748
sg4
S'3126'
p749
sg6
S'0c6fd68c67fcb80ac52723c3911d773a'
p750
sg8
S'xxa3aa1ccec7bae8521df990f7b0321a87'
p751
sg10
S'xx5ba6e83ab19ca3a94d39ebfc36eb8d6b'
p752
sg12
S'xxa96ae61572674f965301d91739f7f65d'
p753
sg14
S'Mozilla/5.0 (Linux; Android 4.4.4; 2014813 Build/KTU84P) AppleWebKit/537.36 (KHTML, like Gecko) Version/4.0 Chrome/37.0.0.0 Mobile MQQBrowser/6.8 TBS/036849 Safari/537.36 MicroMessenger/6.3.27.880 NetType/WIFI Language/zh_CN'
p754
sg16
S'8d9d11b7c6377a417315955baf382270'
p755
sa(dp756
g2
S'8682'
p757
sg4
S'3147'
p758
sg6
S'0c6fd68c67fcb80ac52723c3911d773a'
p759
sg8
S'xxa3aa1ccec7bae8521df990f7b0321a87'
p760
sg10
S'xx5ba6e83ab19ca3a94d39ebfc36eb8d6b'
p761
sg12
S'xxa96ae61572674f965301d91739f7f65d'
p762
sg14
S'Mozilla/5.0 (Linux; Android 4.4.4; 2014813 Build/KTU84P) AppleWebKit/537.36 (KHTML, like Gecko) Version/4.0 Chrome/37.0.0.0 Mobile MQQBrowser/6.8 TBS/036849 Safari/537.36 MicroMessenger/6.3.27.880 NetType/WIFI Language/zh_CN'
p763
sg16
S'8d9d11b7c6377a417315955baf382270'
p764
sa(dp765
g2
S'8682'
p766
sg4
S'3203'
p767
sg6
S'0c6fd68c67fcb80ac52723c3911d773a'
p768
sg8
S'xxa3aa1ccec7bae8521df990f7b0321a87'
p769
sg10
S'xx5ba6e83ab19ca3a94d39ebfc36eb8d6b'
p770
sg12
S'xxa96ae61572674f965301d91739f7f65d'
p771
sg14
S'Mozilla/5.0 (Linux; Android 4.4.4; 2014813 Build/KTU84P) AppleWebKit/537.36 (KHTML, like Gecko) Version/4.0 Chrome/37.0.0.0 Mobile MQQBrowser/6.8 TBS/036849 Safari/537.36 MicroMessenger/6.3.27.880 NetType/WIFI Language/zh_CN'
p772
sg16
S'8d9d11b7c6377a417315955baf382270'
p773
sa(dp774
g2
S'8682'
p775
sg4
S'3228'
p776
sg6
S'0c6fd68c67fcb80ac52723c3911d773a'
p777
sg8
S'xxa3aa1ccec7bae8521df990f7b0321a87'
p778
sg10
S'xx5ba6e83ab19ca3a94d39ebfc36eb8d6b'
p779
sg12
S'xxa96ae61572674f965301d91739f7f65d'
p780
sg14
S'Mozilla/5.0 (Linux; Android 4.4.4; 2014813 Build/KTU84P) AppleWebKit/537.36 (KHTML, like Gecko) Version/4.0 Chrome/37.0.0.0 Mobile MQQBrowser/6.8 TBS/036849 Safari/537.36 MicroMessenger/6.3.27.880 NetType/WIFI Language/zh_CN'
p781
sg16
S'8d9d11b7c6377a417315955baf382270'
p782
sa(dp783
g2
S'8682'
p784
sg4
S'3237'
p785
sg6
S'0c6fd68c67fcb80ac52723c3911d773a'
p786
sg8
S'xxa3aa1ccec7bae8521df990f7b0321a87'
p787
sg10
S'xx5ba6e83ab19ca3a94d39ebfc36eb8d6b'
p788
sg12
S'xxa96ae61572674f965301d91739f7f65d'
p789
sg14
S'Mozilla/5.0 (Linux; Android 4.4.4; 2014813 Build/KTU84P) AppleWebKit/537.36 (KHTML, like Gecko) Version/4.0 Chrome/37.0.0.0 Mobile MQQBrowser/6.8 TBS/036849 Safari/537.36 MicroMessenger/6.3.27.880 NetType/WIFI Language/zh_CN'
p790
sg16
S'8d9d11b7c6377a417315955baf382270'
p791
sa(dp792
g2
S'8682'
p793
sg4
S'3258'
p794
sg6
S'0c6fd68c67fcb80ac52723c3911d773a'
p795
sg8
S'xxa3aa1ccec7bae8521df990f7b0321a87'
p796
sg10
S'xx5ba6e83ab19ca3a94d39ebfc36eb8d6b'
p797
sg12
S'xxa96ae61572674f965301d91739f7f65d'
p798
sg14
S'Mozilla/5.0 (Linux; Android 4.4.4; 2014813 Build/KTU84P) AppleWebKit/537.36 (KHTML, like Gecko) Version/4.0 Chrome/37.0.0.0 Mobile MQQBrowser/6.8 TBS/036849 Safari/537.36 MicroMessenger/6.3.27.880 NetType/WIFI Language/zh_CN'
p799
sg16
S'8d9d11b7c6377a417315955baf382270'
p800
sa(dp801
g2
S'8682'
p802
sg4
S'3273'
p803
sg6
S'0c6fd68c67fcb80ac52723c3911d773a'
p804
sg8
S'xxa3aa1ccec7bae8521df990f7b0321a87'
p805
sg10
S'xx5ba6e83ab19ca3a94d39ebfc36eb8d6b'
p806
sg12
S'xxa96ae61572674f965301d91739f7f65d'
p807
sg14
S'Mozilla/5.0 (Linux; Android 4.4.4; 2014813 Build/KTU84P) AppleWebKit/537.36 (KHTML, like Gecko) Version/4.0 Chrome/37.0.0.0 Mobile MQQBrowser/6.8 TBS/036849 Safari/537.36 MicroMessenger/6.3.27.880 NetType/WIFI Language/zh_CN'
p808
sg16
S'8d9d11b7c6377a417315955baf382270'
p809
sa(dp810
g2
S'8682'
p811
sg4
S'3288'
p812
sg6
S'0c6fd68c67fcb80ac52723c3911d773a'
p813
sg8
S'xxa3aa1ccec7bae8521df990f7b0321a87'
p814
sg10
S'xx5ba6e83ab19ca3a94d39ebfc36eb8d6b'
p815
sg12
S'xxa96ae61572674f965301d91739f7f65d'
p816
sg14
S'Mozilla/5.0 (Linux; Android 4.4.4; 2014813 Build/KTU84P) AppleWebKit/537.36 (KHTML, like Gecko) Version/4.0 Chrome/37.0.0.0 Mobile MQQBrowser/6.8 TBS/036849 Safari/537.36 MicroMessenger/6.3.27.880 NetType/WIFI Language/zh_CN'
p817
sg16
S'8d9d11b7c6377a417315955baf382270'
p818
sa(dp819
g2
S'8682'
p820
sg4
S'3309'
p821
sg6
S'0c6fd68c67fcb80ac52723c3911d773a'
p822
sg8
S'xxa3aa1ccec7bae8521df990f7b0321a87'
p823
sg10
S'xx5ba6e83ab19ca3a94d39ebfc36eb8d6b'
p824
sg12
S'xxa96ae61572674f965301d91739f7f65d'
p825
sg14
S'Mozilla/5.0 (Linux; Android 4.4.4; 2014813 Build/KTU84P) AppleWebKit/537.36 (KHTML, like Gecko) Version/4.0 Chrome/37.0.0.0 Mobile MQQBrowser/6.8 TBS/036849 Safari/537.36 MicroMessenger/6.3.27.880 NetType/WIFI Language/zh_CN'
p826
sg16
S'8d9d11b7c6377a417315955baf382270'
p827
sa(dp828
g2
S'8682'
p829
sg4
S'3388'
p830
sg6
S'0c6fd68c67fcb80ac52723c3911d773a'
p831
sg8
S'xxa3aa1ccec7bae8521df990f7b0321a87'
p832
sg10
S'xx5ba6e83ab19ca3a94d39ebfc36eb8d6b'
p833
sg12
S'xxa96ae61572674f965301d91739f7f65d'
p834
sg14
S'Mozilla/5.0 (Linux; Android 4.4.4; 2014813 Build/KTU84P) AppleWebKit/537.36 (KHTML, like Gecko) Version/4.0 Chrome/37.0.0.0 Mobile MQQBrowser/6.8 TBS/036849 Safari/537.36 MicroMessenger/6.3.27.880 NetType/WIFI Language/zh_CN'
p835
sg16
S'8d9d11b7c6377a417315955baf382270'
p836
sa(dp837
g2
S'8682'
p838
sg4
S'3597'
p839
sg6
S'0c6fd68c67fcb80ac52723c3911d773a'
p840
sg8
S'xxa3aa1ccec7bae8521df990f7b0321a87'
p841
sg10
S'xx5ba6e83ab19ca3a94d39ebfc36eb8d6b'
p842
sg12
S'xxa96ae61572674f965301d91739f7f65d'
p843
sg14
S'Mozilla/5.0 (Linux; Android 4.4.4; 2014813 Build/KTU84P) AppleWebKit/537.36 (KHTML, like Gecko) Version/4.0 Chrome/37.0.0.0 Mobile MQQBrowser/6.8 TBS/036849 Safari/537.36 MicroMessenger/6.3.27.880 NetType/WIFI Language/zh_CN'
p844
sg16
S'8d9d11b7c6377a417315955baf382270'
p845
sa(dp846
g2
S'8682'
p847
sg4
S'3613'
p848
sg6
S'0c6fd68c67fcb80ac52723c3911d773a'
p849
sg8
S'xxa3aa1ccec7bae8521df990f7b0321a87'
p850
sg10
S'xx5ba6e83ab19ca3a94d39ebfc36eb8d6b'
p851
sg12
S'xxa96ae61572674f965301d91739f7f65d'
p852
sg14
S'Mozilla/5.0 (Linux; Android 4.4.4; 2014813 Build/KTU84P) AppleWebKit/537.36 (KHTML, like Gecko) Version/4.0 Chrome/37.0.0.0 Mobile MQQBrowser/6.8 TBS/036849 Safari/537.36 MicroMessenger/6.3.27.880 NetType/WIFI Language/zh_CN'
p853
sg16
S'8d9d11b7c6377a417315955baf382270'
p854
sa(dp855
g2
S'8682'
p856
sg4
S'3647'
p857
sg6
S'0c6fd68c67fcb80ac52723c3911d773a'
p858
sg8
S'xxa3aa1ccec7bae8521df990f7b0321a87'
p859
sg10
S'xx5ba6e83ab19ca3a94d39ebfc36eb8d6b'
p860
sg12
S'xxa96ae61572674f965301d91739f7f65d'
p861
sg14
S'Mozilla/5.0 (Linux; Android 4.4.4; 2014813 Build/KTU84P) AppleWebKit/537.36 (KHTML, like Gecko) Version/4.0 Chrome/37.0.0.0 Mobile MQQBrowser/6.8 TBS/036849 Safari/537.36 MicroMessenger/6.3.27.880 NetType/WIFI Language/zh_CN'
p862
sg16
S'8d9d11b7c6377a417315955baf382270'
p863
sa(dp864
g2
S'8682'
p865
sg4
S'3662'
p866
sg6
S'0c6fd68c67fcb80ac52723c3911d773a'
p867
sg8
S'xxa3aa1ccec7bae8521df990f7b0321a87'
p868
sg10
S'xx5ba6e83ab19ca3a94d39ebfc36eb8d6b'
p869
sg12
S'xxa96ae61572674f965301d91739f7f65d'
p870
sg14
S'Mozilla/5.0 (Linux; Android 4.4.4; 2014813 Build/KTU84P) AppleWebKit/537.36 (KHTML, like Gecko) Version/4.0 Chrome/37.0.0.0 Mobile MQQBrowser/6.8 TBS/036849 Safari/537.36 MicroMessenger/6.3.27.880 NetType/WIFI Language/zh_CN'
p871
sg16
S'8d9d11b7c6377a417315955baf382270'
p872
sa(dp873
g2
S'8682'
p874
sg4
S'3671'
p875
sg6
S'0c6fd68c67fcb80ac52723c3911d773a'
p876
sg8
S'xxa3aa1ccec7bae8521df990f7b0321a87'
p877
sg10
S'xx5ba6e83ab19ca3a94d39ebfc36eb8d6b'
p878
sg12
S'xxa96ae61572674f965301d91739f7f65d'
p879
sg14
S'Mozilla/5.0 (Linux; Android 4.4.4; 2014813 Build/KTU84P) AppleWebKit/537.36 (KHTML, like Gecko) Version/4.0 Chrome/37.0.0.0 Mobile MQQBrowser/6.8 TBS/036849 Safari/537.36 MicroMessenger/6.3.27.880 NetType/WIFI Language/zh_CN'
p880
sg16
S'8d9d11b7c6377a417315955baf382270'
p881
sa(dp882
g2
S'8682'
p883
sg4
S'3686'
p884
sg6
S'0c6fd68c67fcb80ac52723c3911d773a'
p885
sg8
S'xxa3aa1ccec7bae8521df990f7b0321a87'
p886
sg10
S'xx5ba6e83ab19ca3a94d39ebfc36eb8d6b'
p887
sg12
S'xxa96ae61572674f965301d91739f7f65d'
p888
sg14
S'Mozilla/5.0 (Linux; Android 4.4.4; 2014813 Build/KTU84P) AppleWebKit/537.36 (KHTML, like Gecko) Version/4.0 Chrome/37.0.0.0 Mobile MQQBrowser/6.8 TBS/036849 Safari/537.36 MicroMessenger/6.3.27.880 NetType/WIFI Language/zh_CN'
p889
sg16
S'8d9d11b7c6377a417315955baf382270'
p890
sa(dp891
g2
S'8682'
p892
sg4
S'3704'
p893
sg6
S'0c6fd68c67fcb80ac52723c3911d773a'
p894
sg8
S'xxa3aa1ccec7bae8521df990f7b0321a87'
p895
sg10
S'xx5ba6e83ab19ca3a94d39ebfc36eb8d6b'
p896
sg12
S'xxa96ae61572674f965301d91739f7f65d'
p897
sg14
S'Mozilla/5.0 (Linux; Android 4.4.4; 2014813 Build/KTU84P) AppleWebKit/537.36 (KHTML, like Gecko) Version/4.0 Chrome/37.0.0.0 Mobile MQQBrowser/6.8 TBS/036849 Safari/537.36 MicroMessenger/6.3.27.880 NetType/WIFI Language/zh_CN'
p898
sg16
S'8d9d11b7c6377a417315955baf382270'
p899
sa(dp900
g2
S'8682'
p901
sg4
S'3725'
p902
sg6
S'0c6fd68c67fcb80ac52723c3911d773a'
p903
sg8
S'xxa3aa1ccec7bae8521df990f7b0321a87'
p904
sg10
S'xx5ba6e83ab19ca3a94d39ebfc36eb8d6b'
p905
sg12
S'xxa96ae61572674f965301d91739f7f65d'
p906
sg14
S'Mozilla/5.0 (Linux; Android 4.4.4; 2014813 Build/KTU84P) AppleWebKit/537.36 (KHTML, like Gecko) Version/4.0 Chrome/37.0.0.0 Mobile MQQBrowser/6.8 TBS/036849 Safari/537.36 MicroMessenger/6.3.27.880 NetType/WIFI Language/zh_CN'
p907
sg16
S'8d9d11b7c6377a417315955baf382270'
p908
sa(dp909
g2
S'8682'
p910
sg4
S'3744'
p911
sg6
S'0c6fd68c67fcb80ac52723c3911d773a'
p912
sg8
S'xxa3aa1ccec7bae8521df990f7b0321a87'
p913
sg10
S'xx5ba6e83ab19ca3a94d39ebfc36eb8d6b'
p914
sg12
S'xxa96ae61572674f965301d91739f7f65d'
p915
sg14
S'Mozilla/5.0 (Linux; Android 4.4.4; 2014813 Build/KTU84P) AppleWebKit/537.36 (KHTML, like Gecko) Version/4.0 Chrome/37.0.0.0 Mobile MQQBrowser/6.8 TBS/036849 Safari/537.36 MicroMessenger/6.3.27.880 NetType/WIFI Language/zh_CN'
p916
sg16
S'8d9d11b7c6377a417315955baf382270'
p917
sa(dp918
g2
S'8682'
p919
sg4
S'3763'
p920
sg6
S'0c6fd68c67fcb80ac52723c3911d773a'
p921
sg8
S'xxa3aa1ccec7bae8521df990f7b0321a87'
p922
sg10
S'xx5ba6e83ab19ca3a94d39ebfc36eb8d6b'
p923
sg12
S'xxa96ae61572674f965301d91739f7f65d'
p924
sg14
S'Mozilla/5.0 (Linux; Android 4.4.4; 2014813 Build/KTU84P) AppleWebKit/537.36 (KHTML, like Gecko) Version/4.0 Chrome/37.0.0.0 Mobile MQQBrowser/6.8 TBS/036849 Safari/537.36 MicroMessenger/6.3.27.880 NetType/WIFI Language/zh_CN'
p925
sg16
S'8d9d11b7c6377a417315955baf382270'
p926
sa(dp927
g2
S'8682'
p928
sg4
S'3782'
p929
sg6
S'0c6fd68c67fcb80ac52723c3911d773a'
p930
sg8
S'xxa3aa1ccec7bae8521df990f7b0321a87'
p931
sg10
S'xx5ba6e83ab19ca3a94d39ebfc36eb8d6b'
p932
sg12
S'xxa96ae61572674f965301d91739f7f65d'
p933
sg14
S'Mozilla/5.0 (Linux; Android 4.4.4; 2014813 Build/KTU84P) AppleWebKit/537.36 (KHTML, like Gecko) Version/4.0 Chrome/37.0.0.0 Mobile MQQBrowser/6.8 TBS/036849 Safari/537.36 MicroMessenger/6.3.27.880 NetType/WIFI Language/zh_CN'
p934
sg16
S'8d9d11b7c6377a417315955baf382270'
p935
sa(dp936
g2
S'8682'
p937
sg4
S'3800'
p938
sg6
S'0c6fd68c67fcb80ac52723c3911d773a'
p939
sg8
S'xxa3aa1ccec7bae8521df990f7b0321a87'
p940
sg10
S'xx5ba6e83ab19ca3a94d39ebfc36eb8d6b'
p941
sg12
S'xxa96ae61572674f965301d91739f7f65d'
p942
sg14
S'Mozilla/5.0 (Linux; Android 4.4.4; 2014813 Build/KTU84P) AppleWebKit/537.36 (KHTML, like Gecko) Version/4.0 Chrome/37.0.0.0 Mobile MQQBrowser/6.8 TBS/036849 Safari/537.36 MicroMessenger/6.3.27.880 NetType/WIFI Language/zh_CN'
p943
sg16
S'8d9d11b7c6377a417315955baf382270'
p944
sa(dp945
g2
S'45794'
p946
sg4
S'3944'
p947
sg6
S'3e75235ed7f9078e48e92ae1fa7805a1'
p948
sg8
S'xx003179cff068e18b2b2cc0ea1c1c58ef'
p949
sg10
S'xx5ba6e83ab19ca3a94d39ebfc36eb8d6b'
p950
sg12
S'xxa96ae61572674f965301d91739f7f65d'
p951
sg14
S'Mozilla/5.0 (Linux; Android 4.4.4; 2014813 Build/KTU84P) AppleWebKit/537.36 (KHTML, like Gecko) Version/4.0 Chrome/37.0.0.0 Mobile MQQBrowser/6.8 TBS/036824 Safari/537.36 MicroMessenger/6.3.25.861 NetType/WIFI Language/zh_CN'
p952
sg16
S'2836f1ba6f50f05a05e5e80e48a2cd5e'
p953
sa(dp954
g2
S'45794'
p955
sg4
S'3967'
p956
sg6
S'3e75235ed7f9078e48e92ae1fa7805a1'
p957
sg8
S'xx003179cff068e18b2b2cc0ea1c1c58ef'
p958
sg10
S'xx5ba6e83ab19ca3a94d39ebfc36eb8d6b'
p959
sg12
S'xxa96ae61572674f965301d91739f7f65d'
p960
sg14
S'Mozilla/5.0 (Linux; Android 4.4.4; 2014813 Build/KTU84P) AppleWebKit/537.36 (KHTML, like Gecko) Version/4.0 Chrome/37.0.0.0 Mobile MQQBrowser/6.8 TBS/036824 Safari/537.36 MicroMessenger/6.3.25.861 NetType/WIFI Language/zh_CN'
p961
sg16
S'2836f1ba6f50f05a05e5e80e48a2cd5e'
p962
sa(dp963
g2
S'8682'
p964
sg4
S'4720'
p965
sg6
S'0c6fd68c67fcb80ac52723c3911d773a'
p966
sg8
S'xxa3aa1ccec7bae8521df990f7b0321a87'
p967
sg10
S'xx5ba6e83ab19ca3a94d39ebfc36eb8d6b'
p968
sg12
S'xxa96ae61572674f965301d91739f7f65d'
p969
sg14
S'Mozilla/5.0 (Linux; Android 4.4.4; 2014813 Build/KTU84P) AppleWebKit/537.36 (KHTML, like Gecko) Version/4.0 Chrome/37.0.0.0 Mobile MQQBrowser/6.8 TBS/036849 Safari/537.36 MicroMessenger/6.3.27.880 NetType/WIFI Language/zh_CN'
p970
sg16
S'8d9d11b7c6377a417315955baf382270'
p971
sa(dp972
g2
S'8682'
p973
sg4
S'4738'
p974
sg6
S'0c6fd68c67fcb80ac52723c3911d773a'
p975
sg8
S'xxa3aa1ccec7bae8521df990f7b0321a87'
p976
sg10
S'xx5ba6e83ab19ca3a94d39ebfc36eb8d6b'
p977
sg12
S'xxa96ae61572674f965301d91739f7f65d'
p978
sg14
S'Mozilla/5.0 (Linux; Android 4.4.4; 2014813 Build/KTU84P) AppleWebKit/537.36 (KHTML, like Gecko) Version/4.0 Chrome/37.0.0.0 Mobile MQQBrowser/6.8 TBS/036849 Safari/537.36 MicroMessenger/6.3.27.880 NetType/WIFI Language/zh_CN'
p979
sg16
S'8d9d11b7c6377a417315955baf382270'
p980
sa(dp981
g2
S'8682'
p982
sg4
S'4778'
p983
sg6
S'0c6fd68c67fcb80ac52723c3911d773a'
p984
sg8
S'xxa3aa1ccec7bae8521df990f7b0321a87'
p985
sg10
S'xx5ba6e83ab19ca3a94d39ebfc36eb8d6b'
p986
sg12
S'xxa96ae61572674f965301d91739f7f65d'
p987
sg14
S'Mozilla/5.0 (Linux; Android 4.4.4; 2014813 Build/KTU84P) AppleWebKit/537.36 (KHTML, like Gecko) Version/4.0 Chrome/37.0.0.0 Mobile MQQBrowser/6.8 TBS/036849 Safari/537.36 MicroMessenger/6.3.27.880 NetType/WIFI Language/zh_CN'
p988
sg16
S'8d9d11b7c6377a417315955baf382270'
p989
sa(dp990
g2
S'8682'
p991
sg4
S'4795'
p992
sg6
S'0c6fd68c67fcb80ac52723c3911d773a'
p993
sg8
S'xxa3aa1ccec7bae8521df990f7b0321a87'
p994
sg10
S'xx5ba6e83ab19ca3a94d39ebfc36eb8d6b'
p995
sg12
S'xxa96ae61572674f965301d91739f7f65d'
p996
sg14
S'Mozilla/5.0 (Linux; Android 4.4.4; 2014813 Build/KTU84P) AppleWebKit/537.36 (KHTML, like Gecko) Version/4.0 Chrome/37.0.0.0 Mobile MQQBrowser/6.8 TBS/036849 Safari/537.36 MicroMessenger/6.3.27.880 NetType/WIFI Language/zh_CN'
p997
sg16
S'8d9d11b7c6377a417315955baf382270'
p998
sa(dp999
g2
S'8682'
p1000
sg4
S'4810'
p1001
sg6
S'0c6fd68c67fcb80ac52723c3911d773a'
p1002
sg8
S'xxa3aa1ccec7bae8521df990f7b0321a87'
p1003
sg10
S'xx5ba6e83ab19ca3a94d39ebfc36eb8d6b'
p1004
sg12
S'xxa96ae61572674f965301d91739f7f65d'
p1005
sg14
S'Mozilla/5.0 (Linux; Android 4.4.4; 2014813 Build/KTU84P) AppleWebKit/537.36 (KHTML, like Gecko) Version/4.0 Chrome/37.0.0.0 Mobile MQQBrowser/6.8 TBS/036849 Safari/537.36 MicroMessenger/6.3.27.880 NetType/WIFI Language/zh_CN'
p1006
sg16
S'8d9d11b7c6377a417315955baf382270'
p1007
sa(dp1008
g2
S'8682'
p1009
sg4
S'4824'
p1010
sg6
S'0c6fd68c67fcb80ac52723c3911d773a'
p1011
sg8
S'xxa3aa1ccec7bae8521df990f7b0321a87'
p1012
sg10
S'xx5ba6e83ab19ca3a94d39ebfc36eb8d6b'
p1013
sg12
S'xxa96ae61572674f965301d91739f7f65d'
p1014
sg14
S'Mozilla/5.0 (Linux; Android 4.4.4; 2014813 Build/KTU84P) AppleWebKit/537.36 (KHTML, like Gecko) Version/4.0 Chrome/37.0.0.0 Mobile MQQBrowser/6.8 TBS/036849 Safari/537.36 MicroMessenger/6.3.27.880 NetType/WIFI Language/zh_CN'
p1015
sg16
S'8d9d11b7c6377a417315955baf382270'
p1016
sa(dp1017
g2
S'8682'
p1018
sg4
S'4841'
p1019
sg6
S'0c6fd68c67fcb80ac52723c3911d773a'
p1020
sg8
S'xxa3aa1ccec7bae8521df990f7b0321a87'
p1021
sg10
S'xx5ba6e83ab19ca3a94d39ebfc36eb8d6b'
p1022
sg12
S'xxa96ae61572674f965301d91739f7f65d'
p1023
sg14
S'Mozilla/5.0 (Linux; Android 4.4.4; 2014813 Build/KTU84P) AppleWebKit/537.36 (KHTML, like Gecko) Version/4.0 Chrome/37.0.0.0 Mobile MQQBrowser/6.8 TBS/036849 Safari/537.36 MicroMessenger/6.3.27.880 NetType/WIFI Language/zh_CN'
p1024
sg16
S'8d9d11b7c6377a417315955baf382270'
p1025
sa(dp1026
g2
S'8682'
p1027
sg4
S'4997'
p1028
sg6
S'0c6fd68c67fcb80ac52723c3911d773a'
p1029
sg8
S'xxa3aa1ccec7bae8521df990f7b0321a87'
p1030
sg10
S'xx5ba6e83ab19ca3a94d39ebfc36eb8d6b'
p1031
sg12
S'xxa96ae61572674f965301d91739f7f65d'
p1032
sg14
S'Mozilla/5.0 (Linux; Android 4.4.4; 2014813 Build/KTU84P) AppleWebKit/537.36 (KHTML, like Gecko) Version/4.0 Chrome/37.0.0.0 Mobile MQQBrowser/6.8 TBS/036849 Safari/537.36 MicroMessenger/6.3.27.880 NetType/WIFI Language/zh_CN'
p1033
sg16
S'8d9d11b7c6377a417315955baf382270'
p1034
sa(dp1035
g2
S'8682'
p1036
sg4
S'5008'
p1037
sg6
S'0c6fd68c67fcb80ac52723c3911d773a'
p1038
sg8
S'xxa3aa1ccec7bae8521df990f7b0321a87'
p1039
sg10
S'xx5ba6e83ab19ca3a94d39ebfc36eb8d6b'
p1040
sg12
S'xxa96ae61572674f965301d91739f7f65d'
p1041
sg14
S'Mozilla/5.0 (Linux; Android 4.4.4; 2014813 Build/KTU84P) AppleWebKit/537.36 (KHTML, like Gecko) Version/4.0 Chrome/37.0.0.0 Mobile MQQBrowser/6.8 TBS/036849 Safari/537.36 MicroMessenger/6.3.27.880 NetType/WIFI Language/zh_CN'
p1042
sg16
S'8d9d11b7c6377a417315955baf382270'
p1043
sa(dp1044
g2
S'8682'
p1045
sg4
S'5023'
p1046
sg6
S'0c6fd68c67fcb80ac52723c3911d773a'
p1047
sg8
S'xxa3aa1ccec7bae8521df990f7b0321a87'
p1048
sg10
S'xx5ba6e83ab19ca3a94d39ebfc36eb8d6b'
p1049
sg12
S'xxa96ae61572674f965301d91739f7f65d'
p1050
sg14
S'Mozilla/5.0 (Linux; Android 4.4.4; 2014813 Build/KTU84P) AppleWebKit/537.36 (KHTML, like Gecko) Version/4.0 Chrome/37.0.0.0 Mobile MQQBrowser/6.8 TBS/036849 Safari/537.36 MicroMessenger/6.3.27.880 NetType/WIFI Language/zh_CN'
p1051
sg16
S'8d9d11b7c6377a417315955baf382270'
p1052
sa(dp1053
g2
S'8682'
p1054
sg4
S'5048'
p1055
sg6
S'0c6fd68c67fcb80ac52723c3911d773a'
p1056
sg8
S'xxa3aa1ccec7bae8521df990f7b0321a87'
p1057
sg10
S'xx5ba6e83ab19ca3a94d39ebfc36eb8d6b'
p1058
sg12
S'xxa96ae61572674f965301d91739f7f65d'
p1059
sg14
S'Mozilla/5.0 (Linux; Android 4.4.4; 2014813 Build/KTU84P) AppleWebKit/537.36 (KHTML, like Gecko) Version/4.0 Chrome/37.0.0.0 Mobile MQQBrowser/6.8 TBS/036849 Safari/537.36 MicroMessenger/6.3.27.880 NetType/WIFI Language/zh_CN'
p1060
sg16
S'8d9d11b7c6377a417315955baf382270'
p1061
sa(dp1062
g2
S'8682'
p1063
sg4
S'5077'
p1064
sg6
S'0c6fd68c67fcb80ac52723c3911d773a'
p1065
sg8
S'xxa3aa1ccec7bae8521df990f7b0321a87'
p1066
sg10
S'xx5ba6e83ab19ca3a94d39ebfc36eb8d6b'
p1067
sg12
S'xxa96ae61572674f965301d91739f7f65d'
p1068
sg14
S'Mozilla/5.0 (Linux; Android 4.4.4; 2014813 Build/KTU84P) AppleWebKit/537.36 (KHTML, like Gecko) Version/4.0 Chrome/37.0.0.0 Mobile MQQBrowser/6.8 TBS/036849 Safari/537.36 MicroMessenger/6.3.27.880 NetType/WIFI Language/zh_CN'
p1069
sg16
S'8d9d11b7c6377a417315955baf382270'
p1070
sa(dp1071
g2
S'8682'
p1072
sg4
S'5128'
p1073
sg6
S'0c6fd68c67fcb80ac52723c3911d773a'
p1074
sg8
S'xxa3aa1ccec7bae8521df990f7b0321a87'
p1075
sg10
S'xx5ba6e83ab19ca3a94d39ebfc36eb8d6b'
p1076
sg12
S'xxa96ae61572674f965301d91739f7f65d'
p1077
sg14
S'Mozilla/5.0 (Linux; Android 4.4.4; 2014813 Build/KTU84P) AppleWebKit/537.36 (KHTML, like Gecko) Version/4.0 Chrome/37.0.0.0 Mobile MQQBrowser/6.8 TBS/036849 Safari/537.36 MicroMessenger/6.3.27.880 NetType/WIFI Language/zh_CN'
p1078
sg16
S'8d9d11b7c6377a417315955baf382270'
p1079
sa(dp1080
g2
S'8682'
p1081
sg4
S'5143'
p1082
sg6
S'0c6fd68c67fcb80ac52723c3911d773a'
p1083
sg8
S'xxa3aa1ccec7bae8521df990f7b0321a87'
p1084
sg10
S'xx5ba6e83ab19ca3a94d39ebfc36eb8d6b'
p1085
sg12
S'xxa96ae61572674f965301d91739f7f65d'
p1086
sg14
S'Mozilla/5.0 (Linux; Android 4.4.4; 2014813 Build/KTU84P) AppleWebKit/537.36 (KHTML, like Gecko) Version/4.0 Chrome/37.0.0.0 Mobile MQQBrowser/6.8 TBS/036849 Safari/537.36 MicroMessenger/6.3.27.880 NetType/WIFI Language/zh_CN'
p1087
sg16
S'8d9d11b7c6377a417315955baf382270'
p1088
sa(dp1089
g2
S'8682'
p1090
sg4
S'5158'
p1091
sg6
S'0c6fd68c67fcb80ac52723c3911d773a'
p1092
sg8
S'xxa3aa1ccec7bae8521df990f7b0321a87'
p1093
sg10
S'xx5ba6e83ab19ca3a94d39ebfc36eb8d6b'
p1094
sg12
S'xxa96ae61572674f965301d91739f7f65d'
p1095
sg14
S'Mozilla/5.0 (Linux; Android 4.4.4; 2014813 Build/KTU84P) AppleWebKit/537.36 (KHTML, like Gecko) Version/4.0 Chrome/37.0.0.0 Mobile MQQBrowser/6.8 TBS/036849 Safari/537.36 MicroMessenger/6.3.27.880 NetType/WIFI Language/zh_CN'
p1096
sg16
S'8d9d11b7c6377a417315955baf382270'
p1097
sa(dp1098
g2
S'8682'
p1099
sg4
S'5184'
p1100
sg6
S'0c6fd68c67fcb80ac52723c3911d773a'
p1101
sg8
S'xxa3aa1ccec7bae8521df990f7b0321a87'
p1102
sg10
S'xx5ba6e83ab19ca3a94d39ebfc36eb8d6b'
p1103
sg12
S'xxa96ae61572674f965301d91739f7f65d'
p1104
sg14
S'Mozilla/5.0 (Linux; Android 4.4.4; 2014813 Build/KTU84P) AppleWebKit/537.36 (KHTML, like Gecko) Version/4.0 Chrome/37.0.0.0 Mobile MQQBrowser/6.8 TBS/036849 Safari/537.36 MicroMessenger/6.3.27.880 NetType/WIFI Language/zh_CN'
p1105
sg16
S'8d9d11b7c6377a417315955baf382270'
p1106
sa(dp1107
g2
S'8682'
p1108
sg4
S'5212'
p1109
sg6
S'0c6fd68c67fcb80ac52723c3911d773a'
p1110
sg8
S'xxa3aa1ccec7bae8521df990f7b0321a87'
p1111
sg10
S'xx5ba6e83ab19ca3a94d39ebfc36eb8d6b'
p1112
sg12
S'xxa96ae61572674f965301d91739f7f65d'
p1113
sg14
S'Mozilla/5.0 (Linux; Android 4.4.4; 2014813 Build/KTU84P) AppleWebKit/537.36 (KHTML, like Gecko) Version/4.0 Chrome/37.0.0.0 Mobile MQQBrowser/6.8 TBS/036849 Safari/537.36 MicroMessenger/6.3.27.880 NetType/WIFI Language/zh_CN'
p1114
sg16
S'8d9d11b7c6377a417315955baf382270'
p1115
sa(dp1116
g2
S'8682'
p1117
sg4
S'5243'
p1118
sg6
S'0c6fd68c67fcb80ac52723c3911d773a'
p1119
sg8
S'xxa3aa1ccec7bae8521df990f7b0321a87'
p1120
sg10
S'xx5ba6e83ab19ca3a94d39ebfc36eb8d6b'
p1121
sg12
S'xxa96ae61572674f965301d91739f7f65d'
p1122
sg14
S'Mozilla/5.0 (Linux; Android 4.4.4; 2014813 Build/KTU84P) AppleWebKit/537.36 (KHTML, like Gecko) Version/4.0 Chrome/37.0.0.0 Mobile MQQBrowser/6.8 TBS/036849 Safari/537.36 MicroMessenger/6.3.27.880 NetType/WIFI Language/zh_CN'
p1123
sg16
S'8d9d11b7c6377a417315955baf382270'
p1124
sa(dp1125
g2
S'8682'
p1126
sg4
S'5259'
p1127
sg6
S'0c6fd68c67fcb80ac52723c3911d773a'
p1128
sg8
S'xxa3aa1ccec7bae8521df990f7b0321a87'
p1129
sg10
S'xx5ba6e83ab19ca3a94d39ebfc36eb8d6b'
p1130
sg12
S'xxa96ae61572674f965301d91739f7f65d'
p1131
sg14
S'Mozilla/5.0 (Linux; Android 4.4.4; 2014813 Build/KTU84P) AppleWebKit/537.36 (KHTML, like Gecko) Version/4.0 Chrome/37.0.0.0 Mobile MQQBrowser/6.8 TBS/036849 Safari/537.36 MicroMessenger/6.3.27.880 NetType/WIFI Language/zh_CN'
p1132
sg16
S'8d9d11b7c6377a417315955baf382270'
p1133
sa(dp1134
g2
S'8682'
p1135
sg4
S'5278'
p1136
sg6
S'0c6fd68c67fcb80ac52723c3911d773a'
p1137
sg8
S'xxa3aa1ccec7bae8521df990f7b0321a87'
p1138
sg10
S'xx5ba6e83ab19ca3a94d39ebfc36eb8d6b'
p1139
sg12
S'xxa96ae61572674f965301d91739f7f65d'
p1140
sg14
S'Mozilla/5.0 (Linux; Android 4.4.4; 2014813 Build/KTU84P) AppleWebKit/537.36 (KHTML, like Gecko) Version/4.0 Chrome/37.0.0.0 Mobile MQQBrowser/6.8 TBS/036849 Safari/537.36 MicroMessenger/6.3.27.880 NetType/WIFI Language/zh_CN'
p1141
sg16
S'8d9d11b7c6377a417315955baf382270'
p1142
sa(dp1143
g2
S'8682'
p1144
sg4
S'5295'
p1145
sg6
S'0c6fd68c67fcb80ac52723c3911d773a'
p1146
sg8
S'xxa3aa1ccec7bae8521df990f7b0321a87'
p1147
sg10
S'xx5ba6e83ab19ca3a94d39ebfc36eb8d6b'
p1148
sg12
S'xxa96ae61572674f965301d91739f7f65d'
p1149
sg14
S'Mozilla/5.0 (Linux; Android 4.4.4; 2014813 Build/KTU84P) AppleWebKit/537.36 (KHTML, like Gecko) Version/4.0 Chrome/37.0.0.0 Mobile MQQBrowser/6.8 TBS/036849 Safari/537.36 MicroMessenger/6.3.27.880 NetType/WIFI Language/zh_CN'
p1150
sg16
S'8d9d11b7c6377a417315955baf382270'
p1151
sa(dp1152
g2
S'8682'
p1153
sg4
S'5308'
p1154
sg6
S'0c6fd68c67fcb80ac52723c3911d773a'
p1155
sg8
S'xxa3aa1ccec7bae8521df990f7b0321a87'
p1156
sg10
S'xx5ba6e83ab19ca3a94d39ebfc36eb8d6b'
p1157
sg12
S'xxa96ae61572674f965301d91739f7f65d'
p1158
sg14
S'Mozilla/5.0 (Linux; Android 4.4.4; 2014813 Build/KTU84P) AppleWebKit/537.36 (KHTML, like Gecko) Version/4.0 Chrome/37.0.0.0 Mobile MQQBrowser/6.8 TBS/036849 Safari/537.36 MicroMessenger/6.3.27.880 NetType/WIFI Language/zh_CN'
p1159
sg16
S'8d9d11b7c6377a417315955baf382270'
p1160
sa(dp1161
g2
S'8682'
p1162
sg4
S'5322'
p1163
sg6
S'0c6fd68c67fcb80ac52723c3911d773a'
p1164
sg8
S'xxa3aa1ccec7bae8521df990f7b0321a87'
p1165
sg10
S'xx5ba6e83ab19ca3a94d39ebfc36eb8d6b'
p1166
sg12
S'xxa96ae61572674f965301d91739f7f65d'
p1167
sg14
S'Mozilla/5.0 (Linux; Android 4.4.4; 2014813 Build/KTU84P) AppleWebKit/537.36 (KHTML, like Gecko) Version/4.0 Chrome/37.0.0.0 Mobile MQQBrowser/6.8 TBS/036849 Safari/537.36 MicroMessenger/6.3.27.880 NetType/WIFI Language/zh_CN'
p1168
sg16
S'8d9d11b7c6377a417315955baf382270'
p1169
sa(dp1170
g2
S'8682'
p1171
sg4
S'5337'
p1172
sg6
S'0c6fd68c67fcb80ac52723c3911d773a'
p1173
sg8
S'xxa3aa1ccec7bae8521df990f7b0321a87'
p1174
sg10
S'xx5ba6e83ab19ca3a94d39ebfc36eb8d6b'
p1175
sg12
S'xxa96ae61572674f965301d91739f7f65d'
p1176
sg14
S'Mozilla/5.0 (Linux; Android 4.4.4; 2014813 Build/KTU84P) AppleWebKit/537.36 (KHTML, like Gecko) Version/4.0 Chrome/37.0.0.0 Mobile MQQBrowser/6.8 TBS/036849 Safari/537.36 MicroMessenger/6.3.27.880 NetType/WIFI Language/zh_CN'
p1177
sg16
S'8d9d11b7c6377a417315955baf382270'
p1178
sa(dp1179
g2
S'8682'
p1180
sg4
S'5353'
p1181
sg6
S'0c6fd68c67fcb80ac52723c3911d773a'
p1182
sg8
S'xxa3aa1ccec7bae8521df990f7b0321a87'
p1183
sg10
S'xx5ba6e83ab19ca3a94d39ebfc36eb8d6b'
p1184
sg12
S'xxa96ae61572674f965301d91739f7f65d'
p1185
sg14
S'Mozilla/5.0 (Linux; Android 4.4.4; 2014813 Build/KTU84P) AppleWebKit/537.36 (KHTML, like Gecko) Version/4.0 Chrome/37.0.0.0 Mobile MQQBrowser/6.8 TBS/036849 Safari/537.36 MicroMessenger/6.3.27.880 NetType/WIFI Language/zh_CN'
p1186
sg16
S'8d9d11b7c6377a417315955baf382270'
p1187
sa(dp1188
g2
S'8682'
p1189
sg4
S'5371'
p1190
sg6
S'0c6fd68c67fcb80ac52723c3911d773a'
p1191
sg8
S'xxa3aa1ccec7bae8521df990f7b0321a87'
p1192
sg10
S'xx5ba6e83ab19ca3a94d39ebfc36eb8d6b'
p1193
sg12
S'xxa96ae61572674f965301d91739f7f65d'
p1194
sg14
S'Mozilla/5.0 (Linux; Android 4.4.4; 2014813 Build/KTU84P) AppleWebKit/537.36 (KHTML, like Gecko) Version/4.0 Chrome/37.0.0.0 Mobile MQQBrowser/6.8 TBS/036849 Safari/537.36 MicroMessenger/6.3.27.880 NetType/WIFI Language/zh_CN'
p1195
sg16
S'8d9d11b7c6377a417315955baf382270'
p1196
sa(dp1197
g2
S'8682'
p1198
sg4
S'5387'
p1199
sg6
S'0c6fd68c67fcb80ac52723c3911d773a'
p1200
sg8
S'xxa3aa1ccec7bae8521df990f7b0321a87'
p1201
sg10
S'xx5ba6e83ab19ca3a94d39ebfc36eb8d6b'
p1202
sg12
S'xxa96ae61572674f965301d91739f7f65d'
p1203
sg14
S'Mozilla/5.0 (Linux; Android 4.4.4; 2014813 Build/KTU84P) AppleWebKit/537.36 (KHTML, like Gecko) Version/4.0 Chrome/37.0.0.0 Mobile MQQBrowser/6.8 TBS/036849 Safari/537.36 MicroMessenger/6.3.27.880 NetType/WIFI Language/zh_CN'
p1204
sg16
S'8d9d11b7c6377a417315955baf382270'
p1205
sa(dp1206
g2
S'8682'
p1207
sg4
S'5430'
p1208
sg6
S'0c6fd68c67fcb80ac52723c3911d773a'
p1209
sg8
S'xxa3aa1ccec7bae8521df990f7b0321a87'
p1210
sg10
S'xx5ba6e83ab19ca3a94d39ebfc36eb8d6b'
p1211
sg12
S'xxa96ae61572674f965301d91739f7f65d'
p1212
sg14
S'Mozilla/5.0 (Linux; Android 4.4.4; 2014813 Build/KTU84P) AppleWebKit/537.36 (KHTML, like Gecko) Version/4.0 Chrome/37.0.0.0 Mobile MQQBrowser/6.8 TBS/036849 Safari/537.36 MicroMessenger/6.3.27.880 NetType/WIFI Language/zh_CN'
p1213
sg16
S'8d9d11b7c6377a417315955baf382270'
p1214
sa(dp1215
g2
S'30478'
p1216
sg4
S'5432'
p1217
sg6
S'a3fa37a14f73813cdacefe41d852e1f6'
p1218
sg8
S'xx4474a15550fedd2e52a27b9cdf522dd3'
p1219
sg10
S'xx5ba6e83ab19ca3a94d39ebfc36eb8d6b'
p1220
sg12
S'xxa96ae61572674f965301d91739f7f65d'
p1221
sg14
S'Mozilla/5.0 (Linux; Android 4.4.4; 2014813 Build/KTU84P) AppleWebKit/537.36 (KHTML, like Gecko) Version/4.0 Chrome/37.0.0.0 Mobile MQQBrowser/6.8 TBS/036849 Safari/537.36 MicroMessenger/6.3.27.880 NetType/cmnet Language/zh_CN'
p1222
sg16
S'17cd3aeccb6adfe0ef0f899d4712b3f5'
p1223
sa(dp1224
g2
S'30478'
p1225
sg4
S'5443'
p1226
sg6
S'a3fa37a14f73813cdacefe41d852e1f6'
p1227
sg8
S'xx4474a15550fedd2e52a27b9cdf522dd3'
p1228
sg10
S'xx5ba6e83ab19ca3a94d39ebfc36eb8d6b'
p1229
sg12
S'xxa96ae61572674f965301d91739f7f65d'
p1230
sg14
S'Mozilla/5.0 (Linux; Android 4.4.4; 2014813 Build/KTU84P) AppleWebKit/537.36 (KHTML, like Gecko) Version/4.0 Chrome/37.0.0.0 Mobile MQQBrowser/6.8 TBS/036849 Safari/537.36 MicroMessenger/6.3.27.880 NetType/cmnet Language/zh_CN'
p1231
sg16
S'17cd3aeccb6adfe0ef0f899d4712b3f5'
p1232
sa(dp1233
g2
S'30478'
p1234
sg4
S'5452'
p1235
sg6
S'a3fa37a14f73813cdacefe41d852e1f6'
p1236
sg8
S'xx4474a15550fedd2e52a27b9cdf522dd3'
p1237
sg10
S'xx5ba6e83ab19ca3a94d39ebfc36eb8d6b'
p1238
sg12
S'xxa96ae61572674f965301d91739f7f65d'
p1239
sg14
S'Mozilla/5.0 (Linux; Android 4.4.4; 2014813 Build/KTU84P) AppleWebKit/537.36 (KHTML, like Gecko) Version/4.0 Chrome/37.0.0.0 Mobile MQQBrowser/6.8 TBS/036849 Safari/537.36 MicroMessenger/6.3.27.880 NetType/cmnet Language/zh_CN'
p1240
sg16
S'17cd3aeccb6adfe0ef0f899d4712b3f5'
p1241
sa(dp1242
g2
S'8682'
p1243
sg4
S'5458'
p1244
sg6
S'0c6fd68c67fcb80ac52723c3911d773a'
p1245
sg8
S'xxa3aa1ccec7bae8521df990f7b0321a87'
p1246
sg10
S'xx5ba6e83ab19ca3a94d39ebfc36eb8d6b'
p1247
sg12
S'xxa96ae61572674f965301d91739f7f65d'
p1248
sg14
S'Mozilla/5.0 (Linux; Android 4.4.4; 2014813 Build/KTU84P) AppleWebKit/537.36 (KHTML, like Gecko) Version/4.0 Chrome/37.0.0.0 Mobile MQQBrowser/6.8 TBS/036849 Safari/537.36 MicroMessenger/6.3.27.880 NetType/WIFI Language/zh_CN'
p1249
sg16
S'8d9d11b7c6377a417315955baf382270'
p1250
sa(dp1251
g2
S'8682'
p1252
sg4
S'5472'
p1253
sg6
S'0c6fd68c67fcb80ac52723c3911d773a'
p1254
sg8
S'xxa3aa1ccec7bae8521df990f7b0321a87'
p1255
sg10
S'xx5ba6e83ab19ca3a94d39ebfc36eb8d6b'
p1256
sg12
S'xxa96ae61572674f965301d91739f7f65d'
p1257
sg14
S'Mozilla/5.0 (Linux; Android 4.4.4; 2014813 Build/KTU84P) AppleWebKit/537.36 (KHTML, like Gecko) Version/4.0 Chrome/37.0.0.0 Mobile MQQBrowser/6.8 TBS/036849 Safari/537.36 MicroMessenger/6.3.27.880 NetType/WIFI Language/zh_CN'
p1258
sg16
S'8d9d11b7c6377a417315955baf382270'
p1259
sa(dp1260
g2
S'8682'
p1261
sg4
S'5485'
p1262
sg6
S'0c6fd68c67fcb80ac52723c3911d773a'
p1263
sg8
S'xxa3aa1ccec7bae8521df990f7b0321a87'
p1264
sg10
S'xx5ba6e83ab19ca3a94d39ebfc36eb8d6b'
p1265
sg12
S'xxa96ae61572674f965301d91739f7f65d'
p1266
sg14
S'Mozilla/5.0 (Linux; Android 4.4.4; 2014813 Build/KTU84P) AppleWebKit/537.36 (KHTML, like Gecko) Version/4.0 Chrome/37.0.0.0 Mobile MQQBrowser/6.8 TBS/036849 Safari/537.36 MicroMessenger/6.3.27.880 NetType/WIFI Language/zh_CN'
p1267
sg16
S'8d9d11b7c6377a417315955baf382270'
p1268
sa(dp1269
g2
S'8682'
p1270
sg4
S'5512'
p1271
sg6
S'0c6fd68c67fcb80ac52723c3911d773a'
p1272
sg8
S'xxa3aa1ccec7bae8521df990f7b0321a87'
p1273
sg10
S'xx5ba6e83ab19ca3a94d39ebfc36eb8d6b'
p1274
sg12
S'xxa96ae61572674f965301d91739f7f65d'
p1275
sg14
S'Mozilla/5.0 (Linux; Android 4.4.4; 2014813 Build/KTU84P) AppleWebKit/537.36 (KHTML, like Gecko) Version/4.0 Chrome/37.0.0.0 Mobile MQQBrowser/6.8 TBS/036849 Safari/537.36 MicroMessenger/6.3.27.880 NetType/WIFI Language/zh_CN'
p1276
sg16
S'8d9d11b7c6377a417315955baf382270'
p1277
sa(dp1278
g2
S'8682'
p1279
sg4
S'5529'
p1280
sg6
S'0c6fd68c67fcb80ac52723c3911d773a'
p1281
sg8
S'xxa3aa1ccec7bae8521df990f7b0321a87'
p1282
sg10
S'xx5ba6e83ab19ca3a94d39ebfc36eb8d6b'
p1283
sg12
S'xxa96ae61572674f965301d91739f7f65d'
p1284
sg14
S'Mozilla/5.0 (Linux; Android 4.4.4; 2014813 Build/KTU84P) AppleWebKit/537.36 (KHTML, like Gecko) Version/4.0 Chrome/37.0.0.0 Mobile MQQBrowser/6.8 TBS/036849 Safari/537.36 MicroMessenger/6.3.27.880 NetType/WIFI Language/zh_CN'
p1285
sg16
S'8d9d11b7c6377a417315955baf382270'
p1286
sa(dp1287
g2
S'8682'
p1288
sg4
S'5546'
p1289
sg6
S'0c6fd68c67fcb80ac52723c3911d773a'
p1290
sg8
S'xxa3aa1ccec7bae8521df990f7b0321a87'
p1291
sg10
S'xx5ba6e83ab19ca3a94d39ebfc36eb8d6b'
p1292
sg12
S'xxa96ae61572674f965301d91739f7f65d'
p1293
sg14
S'Mozilla/5.0 (Linux; Android 4.4.4; 2014813 Build/KTU84P) AppleWebKit/537.36 (KHTML, like Gecko) Version/4.0 Chrome/37.0.0.0 Mobile MQQBrowser/6.8 TBS/036849 Safari/537.36 MicroMessenger/6.3.27.880 NetType/WIFI Language/zh_CN'
p1294
sg16
S'8d9d11b7c6377a417315955baf382270'
p1295
sa(dp1296
g2
S'8682'
p1297
sg4
S'5561'
p1298
sg6
S'0c6fd68c67fcb80ac52723c3911d773a'
p1299
sg8
S'xxa3aa1ccec7bae8521df990f7b0321a87'
p1300
sg10
S'xx5ba6e83ab19ca3a94d39ebfc36eb8d6b'
p1301
sg12
S'xxa96ae61572674f965301d91739f7f65d'
p1302
sg14
S'Mozilla/5.0 (Linux; Android 4.4.4; 2014813 Build/KTU84P) AppleWebKit/537.36 (KHTML, like Gecko) Version/4.0 Chrome/37.0.0.0 Mobile MQQBrowser/6.8 TBS/036849 Safari/537.36 MicroMessenger/6.3.27.880 NetType/WIFI Language/zh_CN'
p1303
sg16
S'8d9d11b7c6377a417315955baf382270'
p1304
sa(dp1305
g2
S'8682'
p1306
sg4
S'5615'
p1307
sg6
S'0c6fd68c67fcb80ac52723c3911d773a'
p1308
sg8
S'xxa3aa1ccec7bae8521df990f7b0321a87'
p1309
sg10
S'xx5ba6e83ab19ca3a94d39ebfc36eb8d6b'
p1310
sg12
S'xxa96ae61572674f965301d91739f7f65d'
p1311
sg14
S'Mozilla/5.0 (Linux; Android 4.4.4; 2014813 Build/KTU84P) AppleWebKit/537.36 (KHTML, like Gecko) Version/4.0 Chrome/37.0.0.0 Mobile MQQBrowser/6.8 TBS/036849 Safari/537.36 MicroMessenger/6.3.27.880 NetType/WIFI Language/zh_CN'
p1312
sg16
S'8d9d11b7c6377a417315955baf382270'
p1313
sa(dp1314
g2
S'8682'
p1315
sg4
S'5633'
p1316
sg6
S'0c6fd68c67fcb80ac52723c3911d773a'
p1317
sg8
S'xxa3aa1ccec7bae8521df990f7b0321a87'
p1318
sg10
S'xx5ba6e83ab19ca3a94d39ebfc36eb8d6b'
p1319
sg12
S'xxa96ae61572674f965301d91739f7f65d'
p1320
sg14
S'Mozilla/5.0 (Linux; Android 4.4.4; 2014813 Build/KTU84P) AppleWebKit/537.36 (KHTML, like Gecko) Version/4.0 Chrome/37.0.0.0 Mobile MQQBrowser/6.8 TBS/036849 Safari/537.36 MicroMessenger/6.3.27.880 NetType/WIFI Language/zh_CN'
p1321
sg16
S'8d9d11b7c6377a417315955baf382270'
p1322
sa(dp1323
g2
S'8682'
p1324
sg4
S'5648'
p1325
sg6
S'0c6fd68c67fcb80ac52723c3911d773a'
p1326
sg8
S'xxa3aa1ccec7bae8521df990f7b0321a87'
p1327
sg10
S'xx5ba6e83ab19ca3a94d39ebfc36eb8d6b'
p1328
sg12
S'xxa96ae61572674f965301d91739f7f65d'
p1329
sg14
S'Mozilla/5.0 (Linux; Android 4.4.4; 2014813 Build/KTU84P) AppleWebKit/537.36 (KHTML, like Gecko) Version/4.0 Chrome/37.0.0.0 Mobile MQQBrowser/6.8 TBS/036849 Safari/537.36 MicroMessenger/6.3.27.880 NetType/WIFI Language/zh_CN'
p1330
sg16
S'8d9d11b7c6377a417315955baf382270'
p1331
sa(dp1332
g2
S'8682'
p1333
sg4
S'6060'
p1334
sg6
S'0c6fd68c67fcb80ac52723c3911d773a'
p1335
sg8
S'xxa3aa1ccec7bae8521df990f7b0321a87'
p1336
sg10
S'xx5ba6e83ab19ca3a94d39ebfc36eb8d6b'
p1337
sg12
S'xxa96ae61572674f965301d91739f7f65d'
p1338
sg14
S'Mozilla/5.0 (Linux; Android 4.4.4; 2014813 Build/KTU84P) AppleWebKit/537.36 (KHTML, like Gecko) Version/4.0 Chrome/37.0.0.0 Mobile MQQBrowser/6.8 TBS/036849 Safari/537.36 MicroMessenger/6.3.27.880 NetType/WIFI Language/zh_CN'
p1339
sg16
S'8d9d11b7c6377a417315955baf382270'
p1340
sa(dp1341
g2
S'8682'
p1342
sg4
S'6075'
p1343
sg6
S'0c6fd68c67fcb80ac52723c3911d773a'
p1344
sg8
S'xxa3aa1ccec7bae8521df990f7b0321a87'
p1345
sg10
S'xx5ba6e83ab19ca3a94d39ebfc36eb8d6b'
p1346
sg12
S'xxa96ae61572674f965301d91739f7f65d'
p1347
sg14
S'Mozilla/5.0 (Linux; Android 4.4.4; 2014813 Build/KTU84P) AppleWebKit/537.36 (KHTML, like Gecko) Version/4.0 Chrome/37.0.0.0 Mobile MQQBrowser/6.8 TBS/036849 Safari/537.36 MicroMessenger/6.3.27.880 NetType/WIFI Language/zh_CN'
p1348
sg16
S'8d9d11b7c6377a417315955baf382270'
p1349
sa(dp1350
g2
S'43539'
p1351
sg4
S'6512'
p1352
sg6
S'a9178732a905478fe713174dc3bc2579'
p1353
sg8
S'xxa3aa1ccec7bae8521df990f7b0321a87'
p1354
sg10
S'xx5ba6e83ab19ca3a94d39ebfc36eb8d6b'
p1355
sg12
S'xxa96ae61572674f965301d91739f7f65d'
p1356
sg14
S'Mozilla/5.0 (Linux; Android 4.4.4; 2014813 Build/KTU84P) AppleWebKit/537.36 (KHTML, like Gecko) Version/4.0 Chrome/37.0.0.0 Mobile MQQBrowser/6.8 TBS/036849 Safari/537.36 MicroMessenger/6.3.27.880 NetType/WIFI Language/zh_CN'
p1357
sg16
S'8d9d11b7c6377a417315955baf382270'
p1358
sa(dp1359
g2
S'43539'
p1360
sg4
S'6534'
p1361
sg6
S'a9178732a905478fe713174dc3bc2579'
p1362
sg8
S'xxa3aa1ccec7bae8521df990f7b0321a87'
p1363
sg10
S'xx5ba6e83ab19ca3a94d39ebfc36eb8d6b'
p1364
sg12
S'xxa96ae61572674f965301d91739f7f65d'
p1365
sg14
S'Mozilla/5.0 (Linux; Android 4.4.4; 2014813 Build/KTU84P) AppleWebKit/537.36 (KHTML, like Gecko) Version/4.0 Chrome/37.0.0.0 Mobile MQQBrowser/6.8 TBS/036849 Safari/537.36 MicroMessenger/6.3.27.880 NetType/WIFI Language/zh_CN'
p1366
sg16
S'8d9d11b7c6377a417315955baf382270'
p1367
sa.