(lp0
(dp1
S'user_id'
p2
S'37348'
p3
sS'data_id'
p4
S'3813'
p5
sS'ip'
p6
S'2101fc6a31d6de14c080c76747dc4c62'
p7
sS'phone_B'
p8
S'xxab51a8c28aa1f2a22eb83d1de54ac007'
p9
sS'phone_C'
p10
S'xxab6216120e552f8197d38ba318eaba7c'
p11
sS'phone_A'
p12
S'xxa9472c7765daacd9cb87e0e4c3898839'
p13
sS'user_agent'
p14
S'Mozilla/5.0 (Linux; Android 6.0; GN9011 Build/MRA58K) AppleWebKit/537.36 (KHTML, like Gecko) Version/4.0 Chrome/37.0.0.0 Mobile MQQBrowser/6.8 TBS/036869 Safari/537.36 MicroMessenger/6.3.27.880 NetType/3gnet Language/zh_CN'
p15
sS'ua'
p16
S'adae458e236fd6bc4875e4b9b02299f2'
p17
sa(dp18
g2
S'37348'
p19
sg4
S'3831'
p20
sg6
S'2101fc6a31d6de14c080c76747dc4c62'
p21
sg8
S'xxab51a8c28aa1f2a22eb83d1de54ac007'
p22
sg10
S'xxab6216120e552f8197d38ba318eaba7c'
p23
sg12
S'xxa9472c7765daacd9cb87e0e4c3898839'
p24
sg14
S'Mozilla/5.0 (Linux; Android 6.0; GN9011 Build/MRA58K) AppleWebKit/537.36 (KHTML, like Gecko) Version/4.0 Chrome/37.0.0.0 Mobile MQQBrowser/6.8 TBS/036869 Safari/537.36 MicroMessenger/6.3.27.880 NetType/3gnet Language/zh_CN'
p25
sg16
S'adae458e236fd6bc4875e4b9b02299f2'
p26
sa(dp27
g2
S'38500'
p28
sg4
S'7990'
p29
sg6
S'18d40bb8a18a6285e6411f24730d2e18'
p30
sg8
S'xxf8980d3a60ee578cd32199b8de1dce84'
p31
sg10
S'xxab6216120e552f8197d38ba318eaba7c'
p32
sg12
S'xxa9472c7765daacd9cb87e0e4c3898839'
p33
sg14
S'Mozilla/5.0 (Linux; Android 6.0; GN9011 Build/MRA58K) AppleWebKit/537.36 (KHTML, like Gecko) Version/4.0 Chrome/37.0.0.0 Mobile MQQBrowser/6.8 TBS/036849 Safari/537.36 MicroMessenger/6.3.27.880 NetType/cmnet Language/zh_CN'
p34
sg16
S'ab86bc38b8537e8e3684caa06e2d1b57'
p35
sa(dp36
g2
S'38500'
p37
sg4
S'8007'
p38
sg6
S'18d40bb8a18a6285e6411f24730d2e18'
p39
sg8
S'xxf8980d3a60ee578cd32199b8de1dce84'
p40
sg10
S'xxab6216120e552f8197d38ba318eaba7c'
p41
sg12
S'xxa9472c7765daacd9cb87e0e4c3898839'
p42
sg14
S'Mozilla/5.0 (Linux; Android 6.0; GN9011 Build/MRA58K) AppleWebKit/537.36 (KHTML, like Gecko) Version/4.0 Chrome/37.0.0.0 Mobile MQQBrowser/6.8 TBS/036849 Safari/537.36 MicroMessenger/6.3.27.880 NetType/cmnet Language/zh_CN'
p43
sg16
S'ab86bc38b8537e8e3684caa06e2d1b57'
p44
sa(dp45
g2
S'38500'
p46
sg4
S'8026'
p47
sg6
S'18d40bb8a18a6285e6411f24730d2e18'
p48
sg8
S'xxf8980d3a60ee578cd32199b8de1dce84'
p49
sg10
S'xxab6216120e552f8197d38ba318eaba7c'
p50
sg12
S'xxa9472c7765daacd9cb87e0e4c3898839'
p51
sg14
S'Mozilla/5.0 (Linux; Android 6.0; GN9011 Build/MRA58K) AppleWebKit/537.36 (KHTML, like Gecko) Version/4.0 Chrome/37.0.0.0 Mobile MQQBrowser/6.8 TBS/036849 Safari/537.36 MicroMessenger/6.3.27.880 NetType/cmnet Language/zh_CN'
p52
sg16
S'ab86bc38b8537e8e3684caa06e2d1b57'
p53
sa.