(lp0
(dp1
S'user_id'
p2
S'4686'
p3
sS'data_id'
p4
S'1827'
p5
sS'ip'
p6
S'533b45ae3853088ffa0a5d1b2601cade'
p7
sS'phone_B'
p8
S'xx2b19cb07f40fb35f0071152f7e7b737b'
p9
sS'phone_C'
p10
S'xxd2d1322c94225bf72057c5e674c3ab14'
p11
sS'phone_A'
p12
S'xxaa863ed68ce91a5409d76e58fb25dcde'
p13
sS'user_agent'
p14
S'Mozilla/5.0 (Linux; Android 5.0; M3 Build/LRX21M) AppleWebKit/537.36 (KHTML, like Gecko) Version/4.0 Chrome/37.0.0.0 Mobile MQQBrowser/6.8 TBS/036824 Safari/537.36 MicroMessenger/6.3.27.880 NetType/WIFI Language/zh_CN'
p15
sS'ua'
p16
S'ac71286844f44aa25b97ee8d81ea65e3'
p17
sa(dp18
g2
S'4686'
p19
sg4
S'2453'
p20
sg6
S'533b45ae3853088ffa0a5d1b2601cade'
p21
sg8
S'xx2b19cb07f40fb35f0071152f7e7b737b'
p22
sg10
S'xxd2d1322c94225bf72057c5e674c3ab14'
p23
sg12
S'xxaa863ed68ce91a5409d76e58fb25dcde'
p24
sg14
S'Mozilla/5.0 (Linux; Android 5.0; M3 Build/LRX21M) AppleWebKit/537.36 (KHTML, like Gecko) Version/4.0 Chrome/37.0.0.0 Mobile MQQBrowser/6.8 TBS/036824 Safari/537.36 MicroMessenger/6.3.27.880 NetType/WIFI Language/zh_CN'
p25
sg16
S'ac71286844f44aa25b97ee8d81ea65e3'
p26
sa(dp27
g2
S'4686'
p28
sg4
S'2472'
p29
sg6
S'533b45ae3853088ffa0a5d1b2601cade'
p30
sg8
S'xx2b19cb07f40fb35f0071152f7e7b737b'
p31
sg10
S'xxd2d1322c94225bf72057c5e674c3ab14'
p32
sg12
S'xxaa863ed68ce91a5409d76e58fb25dcde'
p33
sg14
S'Mozilla/5.0 (Linux; Android 5.0; M3 Build/LRX21M) AppleWebKit/537.36 (KHTML, like Gecko) Version/4.0 Chrome/37.0.0.0 Mobile MQQBrowser/6.8 TBS/036824 Safari/537.36 MicroMessenger/6.3.27.880 NetType/WIFI Language/zh_CN'
p34
sg16
S'ac71286844f44aa25b97ee8d81ea65e3'
p35
sa(dp36
g2
S'4686'
p37
sg4
S'3015'
p38
sg6
S'533b45ae3853088ffa0a5d1b2601cade'
p39
sg8
S'xx2b19cb07f40fb35f0071152f7e7b737b'
p40
sg10
S'xxd2d1322c94225bf72057c5e674c3ab14'
p41
sg12
S'xxaa863ed68ce91a5409d76e58fb25dcde'
p42
sg14
S'Mozilla/5.0 (Linux; Android 5.0; M3 Build/LRX21M) AppleWebKit/537.36 (KHTML, like Gecko) Version/4.0 Chrome/37.0.0.0 Mobile MQQBrowser/6.8 TBS/036824 Safari/537.36 MicroMessenger/6.3.27.880 NetType/WIFI Language/zh_CN'
p43
sg16
S'ac71286844f44aa25b97ee8d81ea65e3'
p44
sa(dp45
g2
S'4686'
p46
sg4
S'3025'
p47
sg6
S'533b45ae3853088ffa0a5d1b2601cade'
p48
sg8
S'xx2b19cb07f40fb35f0071152f7e7b737b'
p49
sg10
S'xxd2d1322c94225bf72057c5e674c3ab14'
p50
sg12
S'xxaa863ed68ce91a5409d76e58fb25dcde'
p51
sg14
S'Mozilla/5.0 (Linux; Android 5.0; M3 Build/LRX21M) AppleWebKit/537.36 (KHTML, like Gecko) Version/4.0 Chrome/37.0.0.0 Mobile MQQBrowser/6.8 TBS/036824 Safari/537.36 MicroMessenger/6.3.27.880 NetType/WIFI Language/zh_CN'
p52
sg16
S'ac71286844f44aa25b97ee8d81ea65e3'
p53
sa(dp54
g2
S'4686'
p55
sg4
S'3039'
p56
sg6
S'533b45ae3853088ffa0a5d1b2601cade'
p57
sg8
S'xx2b19cb07f40fb35f0071152f7e7b737b'
p58
sg10
S'xxd2d1322c94225bf72057c5e674c3ab14'
p59
sg12
S'xxaa863ed68ce91a5409d76e58fb25dcde'
p60
sg14
S'Mozilla/5.0 (Linux; Android 5.0; M3 Build/LRX21M) AppleWebKit/537.36 (KHTML, like Gecko) Version/4.0 Chrome/37.0.0.0 Mobile MQQBrowser/6.8 TBS/036824 Safari/537.36 MicroMessenger/6.3.27.880 NetType/WIFI Language/zh_CN'
p61
sg16
S'ac71286844f44aa25b97ee8d81ea65e3'
p62
sa(dp63
g2
S'4686'
p64
sg4
S'3059'
p65
sg6
S'533b45ae3853088ffa0a5d1b2601cade'
p66
sg8
S'xx2b19cb07f40fb35f0071152f7e7b737b'
p67
sg10
S'xxd2d1322c94225bf72057c5e674c3ab14'
p68
sg12
S'xxaa863ed68ce91a5409d76e58fb25dcde'
p69
sg14
S'Mozilla/5.0 (Linux; Android 5.0; M3 Build/LRX21M) AppleWebKit/537.36 (KHTML, like Gecko) Version/4.0 Chrome/37.0.0.0 Mobile MQQBrowser/6.8 TBS/036824 Safari/537.36 MicroMessenger/6.3.27.880 NetType/WIFI Language/zh_CN'
p70
sg16
S'ac71286844f44aa25b97ee8d81ea65e3'
p71
sa(dp72
g2
S'4686'
p73
sg4
S'3078'
p74
sg6
S'533b45ae3853088ffa0a5d1b2601cade'
p75
sg8
S'xx2b19cb07f40fb35f0071152f7e7b737b'
p76
sg10
S'xxd2d1322c94225bf72057c5e674c3ab14'
p77
sg12
S'xxaa863ed68ce91a5409d76e58fb25dcde'
p78
sg14
S'Mozilla/5.0 (Linux; Android 5.0; M3 Build/LRX21M) AppleWebKit/537.36 (KHTML, like Gecko) Version/4.0 Chrome/37.0.0.0 Mobile MQQBrowser/6.8 TBS/036824 Safari/537.36 MicroMessenger/6.3.27.880 NetType/WIFI Language/zh_CN'
p79
sg16
S'ac71286844f44aa25b97ee8d81ea65e3'
p80
sa(dp81
g2
S'4686'
p82
sg4
S'3552'
p83
sg6
S'533b45ae3853088ffa0a5d1b2601cade'
p84
sg8
S'xx2b19cb07f40fb35f0071152f7e7b737b'
p85
sg10
S'xxd2d1322c94225bf72057c5e674c3ab14'
p86
sg12
S'xxaa863ed68ce91a5409d76e58fb25dcde'
p87
sg14
S'Mozilla/5.0 (Linux; Android 5.0; M3 Build/LRX21M) AppleWebKit/537.36 (KHTML, like Gecko) Version/4.0 Chrome/37.0.0.0 Mobile MQQBrowser/6.8 TBS/036824 Safari/537.36 MicroMessenger/6.3.27.880 NetType/WIFI Language/zh_CN'
p88
sg16
S'ac71286844f44aa25b97ee8d81ea65e3'
p89
sa(dp90
g2
S'4686'
p91
sg4
S'3564'
p92
sg6
S'533b45ae3853088ffa0a5d1b2601cade'
p93
sg8
S'xx2b19cb07f40fb35f0071152f7e7b737b'
p94
sg10
S'xxd2d1322c94225bf72057c5e674c3ab14'
p95
sg12
S'xxaa863ed68ce91a5409d76e58fb25dcde'
p96
sg14
S'Mozilla/5.0 (Linux; Android 5.0; M3 Build/LRX21M) AppleWebKit/537.36 (KHTML, like Gecko) Version/4.0 Chrome/37.0.0.0 Mobile MQQBrowser/6.8 TBS/036824 Safari/537.36 MicroMessenger/6.3.27.880 NetType/WIFI Language/zh_CN'
p97
sg16
S'ac71286844f44aa25b97ee8d81ea65e3'
p98
sa(dp99
g2
S'4686'
p100
sg4
S'3580'
p101
sg6
S'533b45ae3853088ffa0a5d1b2601cade'
p102
sg8
S'xx2b19cb07f40fb35f0071152f7e7b737b'
p103
sg10
S'xxd2d1322c94225bf72057c5e674c3ab14'
p104
sg12
S'xxaa863ed68ce91a5409d76e58fb25dcde'
p105
sg14
S'Mozilla/5.0 (Linux; Android 5.0; M3 Build/LRX21M) AppleWebKit/537.36 (KHTML, like Gecko) Version/4.0 Chrome/37.0.0.0 Mobile MQQBrowser/6.8 TBS/036824 Safari/537.36 MicroMessenger/6.3.27.880 NetType/WIFI Language/zh_CN'
p106
sg16
S'ac71286844f44aa25b97ee8d81ea65e3'
p107
sa(dp108
g2
S'4686'
p109
sg4
S'4172'
p110
sg6
S'533b45ae3853088ffa0a5d1b2601cade'
p111
sg8
S'xx2b19cb07f40fb35f0071152f7e7b737b'
p112
sg10
S'xxd2d1322c94225bf72057c5e674c3ab14'
p113
sg12
S'xxaa863ed68ce91a5409d76e58fb25dcde'
p114
sg14
S'Mozilla/5.0 (Linux; Android 5.0; M3 Build/LRX21M) AppleWebKit/537.36 (KHTML, like Gecko) Version/4.0 Chrome/37.0.0.0 Mobile MQQBrowser/6.8 TBS/036824 Safari/537.36 MicroMessenger/6.3.27.880 NetType/WIFI Language/zh_CN'
p115
sg16
S'ac71286844f44aa25b97ee8d81ea65e3'
p116
sa(dp117
g2
S'4686'
p118
sg4
S'5068'
p119
sg6
S'533b45ae3853088ffa0a5d1b2601cade'
p120
sg8
S'xx2b19cb07f40fb35f0071152f7e7b737b'
p121
sg10
S'xxd2d1322c94225bf72057c5e674c3ab14'
p122
sg12
S'xxaa863ed68ce91a5409d76e58fb25dcde'
p123
sg14
S'Mozilla/5.0 (Linux; Android 5.0; M3 Build/LRX21M) AppleWebKit/537.36 (KHTML, like Gecko) Version/4.0 Chrome/37.0.0.0 Mobile MQQBrowser/6.8 TBS/036824 Safari/537.36 MicroMessenger/6.3.27.880 NetType/WIFI Language/zh_CN'
p124
sg16
S'ac71286844f44aa25b97ee8d81ea65e3'
p125
sa(dp126
g2
S'4686'
p127
sg4
S'5941'
p128
sg6
S'533b45ae3853088ffa0a5d1b2601cade'
p129
sg8
S'xx2b19cb07f40fb35f0071152f7e7b737b'
p130
sg10
S'xxd2d1322c94225bf72057c5e674c3ab14'
p131
sg12
S'xxaa863ed68ce91a5409d76e58fb25dcde'
p132
sg14
S'Mozilla/5.0 (Linux; Android 5.0; M3 Build/LRX21M) AppleWebKit/537.36 (KHTML, like Gecko) Version/4.0 Chrome/37.0.0.0 Mobile MQQBrowser/6.8 TBS/036824 Safari/537.36 MicroMessenger/6.3.27.880 NetType/WIFI Language/zh_CN'
p133
sg16
S'ac71286844f44aa25b97ee8d81ea65e3'
p134
sa.