(lp0
(dp1
S'user_id'
p2
S'30615'
p3
sS'data_id'
p4
S'6280'
p5
sS'ip'
p6
S'84c6fea1a0efc618b52a026523e50a51'
p7
sS'phone_B'
p8
S'xx8260f935f55517706c451a55de6d4655'
p9
sS'phone_C'
p10
S'xxf28072b3d3928698122dd98ea9c411cb'
p11
sS'phone_A'
p12
S'xxaa0e9472238c1e630d06a73b5f7d5cd1'
p13
sS'user_agent'
p14
S'Mozilla/5.0 (Linux; Android 5.1; GN152 Build/LMY47D) AppleWebKit/537.36 (KHTML, like Gecko) Version/4.0 Chrome/37.0.0.0 Mobile MQQBrowser/6.8 TBS/036849 Safari/537.36 MicroMessenger/6.3.27.880 NetType/WIFI Language/zh_CN'
p15
sS'ua'
p16
S'52615f4ceecd86551f15be3336bff57d'
p17
sa(dp18
g2
S'30615'
p19
sg4
S'6292'
p20
sg6
S'84c6fea1a0efc618b52a026523e50a51'
p21
sg8
S'xx8260f935f55517706c451a55de6d4655'
p22
sg10
S'xxf28072b3d3928698122dd98ea9c411cb'
p23
sg12
S'xxaa0e9472238c1e630d06a73b5f7d5cd1'
p24
sg14
S'Mozilla/5.0 (Linux; Android 5.1; GN152 Build/LMY47D) AppleWebKit/537.36 (KHTML, like Gecko) Version/4.0 Chrome/37.0.0.0 Mobile MQQBrowser/6.8 TBS/036849 Safari/537.36 MicroMessenger/6.3.27.880 NetType/WIFI Language/zh_CN'
p25
sg16
S'52615f4ceecd86551f15be3336bff57d'
p26
sa(dp27
g2
S'49812'
p28
sg4
S'6315'
p29
sg6
S'ae7a74f85d9c2ef99fa5c35b39b37250'
p30
sg8
S'xx8260f935f55517706c451a55de6d4655'
p31
sg10
S'xxf28072b3d3928698122dd98ea9c411cb'
p32
sg12
S'xxaa0e9472238c1e630d06a73b5f7d5cd1'
p33
sg14
S'Mozilla/5.0 (Linux; Android 5.1; GN152 Build/LMY47D) AppleWebKit/537.36 (KHTML, like Gecko) Version/4.0 Chrome/37.0.0.0 Mobile MQQBrowser/6.8 TBS/036849 Safari/537.36 MicroMessenger/6.3.27.880 NetType/WIFI Language/zh_CN'
p34
sg16
S'52615f4ceecd86551f15be3336bff57d'
p35
sa(dp36
g2
S'49812'
p37
sg4
S'6333'
p38
sg6
S'ae7a74f85d9c2ef99fa5c35b39b37250'
p39
sg8
S'xx8260f935f55517706c451a55de6d4655'
p40
sg10
S'xxf28072b3d3928698122dd98ea9c411cb'
p41
sg12
S'xxaa0e9472238c1e630d06a73b5f7d5cd1'
p42
sg14
S'Mozilla/5.0 (Linux; Android 5.1; GN152 Build/LMY47D) AppleWebKit/537.36 (KHTML, like Gecko) Version/4.0 Chrome/37.0.0.0 Mobile MQQBrowser/6.8 TBS/036849 Safari/537.36 MicroMessenger/6.3.27.880 NetType/WIFI Language/zh_CN'
p43
sg16
S'52615f4ceecd86551f15be3336bff57d'
p44
sa(dp45
g2
S'49812'
p46
sg4
S'6346'
p47
sg6
S'ae7a74f85d9c2ef99fa5c35b39b37250'
p48
sg8
S'xx8260f935f55517706c451a55de6d4655'
p49
sg10
S'xxf28072b3d3928698122dd98ea9c411cb'
p50
sg12
S'xxaa0e9472238c1e630d06a73b5f7d5cd1'
p51
sg14
S'Mozilla/5.0 (Linux; Android 5.1; GN152 Build/LMY47D) AppleWebKit/537.36 (KHTML, like Gecko) Version/4.0 Chrome/37.0.0.0 Mobile MQQBrowser/6.8 TBS/036849 Safari/537.36 MicroMessenger/6.3.27.880 NetType/WIFI Language/zh_CN'
p52
sg16
S'52615f4ceecd86551f15be3336bff57d'
p53
sa(dp54
g2
S'49812'
p55
sg4
S'6362'
p56
sg6
S'ae7a74f85d9c2ef99fa5c35b39b37250'
p57
sg8
S'xx8260f935f55517706c451a55de6d4655'
p58
sg10
S'xxf28072b3d3928698122dd98ea9c411cb'
p59
sg12
S'xxaa0e9472238c1e630d06a73b5f7d5cd1'
p60
sg14
S'Mozilla/5.0 (Linux; Android 5.1; GN152 Build/LMY47D) AppleWebKit/537.36 (KHTML, like Gecko) Version/4.0 Chrome/37.0.0.0 Mobile MQQBrowser/6.8 TBS/036849 Safari/537.36 MicroMessenger/6.3.27.880 NetType/WIFI Language/zh_CN'
p61
sg16
S'52615f4ceecd86551f15be3336bff57d'
p62
sa(dp63
g2
S'49812'
p64
sg4
S'6377'
p65
sg6
S'ae7a74f85d9c2ef99fa5c35b39b37250'
p66
sg8
S'xx8260f935f55517706c451a55de6d4655'
p67
sg10
S'xxf28072b3d3928698122dd98ea9c411cb'
p68
sg12
S'xxaa0e9472238c1e630d06a73b5f7d5cd1'
p69
sg14
S'Mozilla/5.0 (Linux; Android 5.1; GN152 Build/LMY47D) AppleWebKit/537.36 (KHTML, like Gecko) Version/4.0 Chrome/37.0.0.0 Mobile MQQBrowser/6.8 TBS/036849 Safari/537.36 MicroMessenger/6.3.27.880 NetType/WIFI Language/zh_CN'
p70
sg16
S'52615f4ceecd86551f15be3336bff57d'
p71
sa(dp72
g2
S'49812'
p73
sg4
S'6394'
p74
sg6
S'ae7a74f85d9c2ef99fa5c35b39b37250'
p75
sg8
S'xx8260f935f55517706c451a55de6d4655'
p76
sg10
S'xxf28072b3d3928698122dd98ea9c411cb'
p77
sg12
S'xxaa0e9472238c1e630d06a73b5f7d5cd1'
p78
sg14
S'Mozilla/5.0 (Linux; Android 5.1; GN152 Build/LMY47D) AppleWebKit/537.36 (KHTML, like Gecko) Version/4.0 Chrome/37.0.0.0 Mobile MQQBrowser/6.8 TBS/036849 Safari/537.36 MicroMessenger/6.3.27.880 NetType/WIFI Language/zh_CN'
p79
sg16
S'52615f4ceecd86551f15be3336bff57d'
p80
sa(dp81
g2
S'49812'
p82
sg4
S'6412'
p83
sg6
S'ae7a74f85d9c2ef99fa5c35b39b37250'
p84
sg8
S'xx8260f935f55517706c451a55de6d4655'
p85
sg10
S'xxf28072b3d3928698122dd98ea9c411cb'
p86
sg12
S'xxaa0e9472238c1e630d06a73b5f7d5cd1'
p87
sg14
S'Mozilla/5.0 (Linux; Android 5.1; GN152 Build/LMY47D) AppleWebKit/537.36 (KHTML, like Gecko) Version/4.0 Chrome/37.0.0.0 Mobile MQQBrowser/6.8 TBS/036849 Safari/537.36 MicroMessenger/6.3.27.880 NetType/WIFI Language/zh_CN'
p88
sg16
S'52615f4ceecd86551f15be3336bff57d'
p89
sa(dp90
g2
S'32372'
p91
sg4
S'7718'
p92
sg6
S'175b45cc5a9b735c4cdb9e07c003b981'
p93
sg8
S'xx55c2e22e85ad4f697b50e59af77108d2'
p94
sg10
S'xxf28072b3d3928698122dd98ea9c411cb'
p95
sg12
S'xxaa0e9472238c1e630d06a73b5f7d5cd1'
p96
sg14
S'Mozilla/5.0 (Linux; Android 5.1; GN152 Build/LMY47D) AppleWebKit/537.36 (KHTML, like Gecko) Version/4.0 Chrome/37.0.0.0 Mobile MQQBrowser/6.8 TBS/036865 Safari/537.36 MicroMessenger/6.3.27.880 NetType/WIFI Language/zh_CN'
p97
sg16
S'e4651ca3647e0c11a37c69d91b66fb6d'
p98
sa(dp99
g2
S'32372'
p100
sg4
S'7729'
p101
sg6
S'175b45cc5a9b735c4cdb9e07c003b981'
p102
sg8
S'xx55c2e22e85ad4f697b50e59af77108d2'
p103
sg10
S'xxf28072b3d3928698122dd98ea9c411cb'
p104
sg12
S'xxaa0e9472238c1e630d06a73b5f7d5cd1'
p105
sg14
S'Mozilla/5.0 (Linux; Android 5.1; GN152 Build/LMY47D) AppleWebKit/537.36 (KHTML, like Gecko) Version/4.0 Chrome/37.0.0.0 Mobile MQQBrowser/6.8 TBS/036865 Safari/537.36 MicroMessenger/6.3.27.880 NetType/WIFI Language/zh_CN'
p106
sg16
S'e4651ca3647e0c11a37c69d91b66fb6d'
p107
sa(dp108
g2
S'49857'
p109
sg4
S'8577'
p110
sg6
S'a2cc057e70d667a9b68a39d6cb3938e2'
p111
sg8
S'xx55c2e22e85ad4f697b50e59af77108d2'
p112
sg10
S'xxf28072b3d3928698122dd98ea9c411cb'
p113
sg12
S'xxaa0e9472238c1e630d06a73b5f7d5cd1'
p114
sg14
S'Mozilla/5.0 (Linux; Android 5.1; GN152 Build/LMY47D) AppleWebKit/537.36 (KHTML, like Gecko) Version/4.0 Chrome/37.0.0.0 Mobile MQQBrowser/6.8 TBS/036865 Safari/537.36 MicroMessenger/6.3.27.880 NetType/WIFI Language/zh_CN'
p115
sg16
S'e4651ca3647e0c11a37c69d91b66fb6d'
p116
sa(dp117
g2
S'49857'
p118
sg4
S'8593'
p119
sg6
S'a2cc057e70d667a9b68a39d6cb3938e2'
p120
sg8
S'xx55c2e22e85ad4f697b50e59af77108d2'
p121
sg10
S'xxf28072b3d3928698122dd98ea9c411cb'
p122
sg12
S'xxaa0e9472238c1e630d06a73b5f7d5cd1'
p123
sg14
S'Mozilla/5.0 (Linux; Android 5.1; GN152 Build/LMY47D) AppleWebKit/537.36 (KHTML, like Gecko) Version/4.0 Chrome/37.0.0.0 Mobile MQQBrowser/6.8 TBS/036865 Safari/537.36 MicroMessenger/6.3.27.880 NetType/WIFI Language/zh_CN'
p124
sg16
S'e4651ca3647e0c11a37c69d91b66fb6d'
p125
sa(dp126
g2
S'37264'
p127
sg4
S'8780'
p128
sg6
S'095fad64ae64c5c1d64323c15d51950d'
p129
sg8
S'xx973641bbb7f23d465d750bae1274890b'
p130
sg10
S'xxf28072b3d3928698122dd98ea9c411cb'
p131
sg12
S'xxaa0e9472238c1e630d06a73b5f7d5cd1'
p132
sg14
S'Mozilla/5.0 (Linux; Android 5.1; GN152 Build/LMY47D) AppleWebKit/537.36 (KHTML, like Gecko) Version/4.0 Chrome/37.0.0.0 Mobile MQQBrowser/6.8 TBS/036849 Safari/537.36 MicroMessenger/6.3.27.880 NetType/cmnet Language/zh_CN'
p133
sg16
S'728be18c04caa3fc5f78cc65153efeaf'
p134
sa(dp135
g2
S'37264'
p136
sg4
S'8791'
p137
sg6
S'095fad64ae64c5c1d64323c15d51950d'
p138
sg8
S'xx973641bbb7f23d465d750bae1274890b'
p139
sg10
S'xxf28072b3d3928698122dd98ea9c411cb'
p140
sg12
S'xxaa0e9472238c1e630d06a73b5f7d5cd1'
p141
sg14
S'Mozilla/5.0 (Linux; Android 5.1; GN152 Build/LMY47D) AppleWebKit/537.36 (KHTML, like Gecko) Version/4.0 Chrome/37.0.0.0 Mobile MQQBrowser/6.8 TBS/036849 Safari/537.36 MicroMessenger/6.3.27.880 NetType/cmnet Language/zh_CN'
p142
sg16
S'728be18c04caa3fc5f78cc65153efeaf'
p143
sa.