(lp0
(dp1
S'user_id'
p2
S'30235'
p3
sS'data_id'
p4
S'758'
p5
sS'ip'
p6
S'37ec7b91655b3c964292df15710fad2a'
p7
sS'phone_B'
p8
S'xxcae177194e705b91d7c00c0702ff5006'
p9
sS'phone_C'
p10
S'xx44b386ada77927e7cb405d14b2070dda'
p11
sS'phone_A'
p12
S'xxabb95d2e275844329ca85120a3d659c9'
p13
sS'user_agent'
p14
S'Mozilla/5.0 (Linux; Android 5.1; GN3003 Build/LMY47D) AppleWebKit/537.36 (KHTML, like Gecko) Version/4.0 Chrome/37.0.0.0 Mobile MQQBrowser/6.8 TBS/036849 Safari/537.36 MicroMessenger/6.3.27.880 NetType/WIFI Language/zh_CN'
p15
sS'ua'
p16
S'c6b9a8919c5d28c97ff6e08ce05b5a98'
p17
sa(dp18
g2
S'30247'
p19
sg4
S'1089'
p20
sg6
S'37ec7b91655b3c964292df15710fad2a'
p21
sg8
S'xx859034a8459d681a5867859e04f998df'
p22
sg10
S'xxa2688a2f031d413266952588af165010'
p23
sg12
S'xxabb95d2e275844329ca85120a3d659c9'
p24
sg14
S'Mozilla/5.0 (Linux; Android 5.1; GN3003 Build/LMY47D) AppleWebKit/537.36 (KHTML, like Gecko) Version/4.0 Chrome/37.0.0.0 Mobile MQQBrowser/6.8 TBS/036849 Safari/537.36 MicroMessenger/6.3.27.880 NetType/WIFI Language/zh_CN'
p25
sg16
S'c6b9a8919c5d28c97ff6e08ce05b5a98'
p26
sa(dp27
g2
S'46979'
p28
sg4
S'7680'
p29
sg6
S'651d00502aad95b0440fe75e33201e05'
p30
sg8
S'xx859034a8459d681a5867859e04f998df'
p31
sg10
S'xxa2688a2f031d413266952588af165010'
p32
sg12
S'xxabb95d2e275844329ca85120a3d659c9'
p33
sg14
S'Mozilla/5.0 (Linux; Android 5.1; GN3003 Build/LMY47D) AppleWebKit/537.36 (KHTML, like Gecko) Version/4.0 Chrome/37.0.0.0 Mobile MQQBrowser/6.8 TBS/036849 Safari/537.36 MicroMessenger/6.3.27.880 NetType/WIFI Language/zh_CN'
p34
sg16
S'c6b9a8919c5d28c97ff6e08ce05b5a98'
p35
sa(dp36
g2
S'46979'
p37
sg4
S'7690'
p38
sg6
S'651d00502aad95b0440fe75e33201e05'
p39
sg8
S'xx859034a8459d681a5867859e04f998df'
p40
sg10
S'xxa2688a2f031d413266952588af165010'
p41
sg12
S'xxabb95d2e275844329ca85120a3d659c9'
p42
sg14
S'Mozilla/5.0 (Linux; Android 5.1; GN3003 Build/LMY47D) AppleWebKit/537.36 (KHTML, like Gecko) Version/4.0 Chrome/37.0.0.0 Mobile MQQBrowser/6.8 TBS/036849 Safari/537.36 MicroMessenger/6.3.27.880 NetType/WIFI Language/zh_CN'
p43
sg16
S'c6b9a8919c5d28c97ff6e08ce05b5a98'
p44
sa.