(lp0
(dp1
S'user_id'
p2
S'32744'
p3
sS'data_id'
p4
S'4848'
p5
sS'ip'
p6
S'1de5eda019ec016a19c8a02167b22c17'
p7
sS'phone_B'
p8
S'xx108ca058ef2e604dd34202118c44a3dc'
p9
sS'phone_C'
p10
S'xxb03349928ca19a04d0ae2c7e060ecbc6'
p11
sS'phone_A'
p12
S'xxac5483827fa10609e664d67ce3b42184'
p13
sS'user_agent'
p14
S'Mozilla/5.0 (Linux; Android 5.0.2; Lenovo A7600-m Build/LRX21M) AppleWebKit/537.36 (KHTML, like Gecko) Version/4.0 Chrome/37.0.0.0 Mobile MQQBrowser/6.8 TBS/036861 Safari/537.36 MicroMessenger/6.3.27.880 NetType/cmnet Language/en'
p15
sS'ua'
p16
S'b9f148a30042de4d06c4f569da412d69'
p17
sa(dp18
g2
S'29020'
p19
sg4
S'5500'
p20
sg6
S'5362a3ad03126dbd5ec4835f64a352a3'
p21
sg8
S'xxb721921edac235cb727b1fc36f7d741f'
p22
sg10
S'xxb03349928ca19a04d0ae2c7e060ecbc6'
p23
sg12
S'xxac5483827fa10609e664d67ce3b42184'
p24
sg14
S'Mozilla/5.0 (Linux; Android 5.0.2; Lenovo A7600-m Build/LRX21M) AppleWebKit/537.36 (KHTML, like Gecko) Version/4.0 Chrome/37.0.0.0 Mobile MQQBrowser/6.8 TBS/036824 Safari/537.36 MicroMessenger/6.3.27.880 NetType/WIFI Language/zh_CN'
p25
sg16
S'c13d25d2c11397dbb3bcb4dfda840a0a'
p26
sa(dp27
g2
S'29020'
p28
sg4
S'5519'
p29
sg6
S'5362a3ad03126dbd5ec4835f64a352a3'
p30
sg8
S'xxb721921edac235cb727b1fc36f7d741f'
p31
sg10
S'xxb03349928ca19a04d0ae2c7e060ecbc6'
p32
sg12
S'xxac5483827fa10609e664d67ce3b42184'
p33
sg14
S'Mozilla/5.0 (Linux; Android 5.0.2; Lenovo A7600-m Build/LRX21M) AppleWebKit/537.36 (KHTML, like Gecko) Version/4.0 Chrome/37.0.0.0 Mobile MQQBrowser/6.8 TBS/036824 Safari/537.36 MicroMessenger/6.3.27.880 NetType/WIFI Language/zh_CN'
p34
sg16
S'c13d25d2c11397dbb3bcb4dfda840a0a'
p35
sa.