(lp0
(dp1
S'user_id'
p2
S'49759'
p3
sS'data_id'
p4
S'1927'
p5
sS'ip'
p6
S'e29483f5d48909ce7997109bb3c0c935'
p7
sS'phone_B'
p8
S'xx51e21b852124d0c62064fde35f052d6a'
p9
sS'phone_C'
p10
S'xxa2688a2f031d413266952588af165010'
p11
sS'phone_A'
p12
S'xxad02f61baa50916a62eb93e8dfe66833'
p13
sS'user_agent'
p14
S'Mozilla/5.0 (Linux; Android 5.1; M5 Build/LMY47D) AppleWebKit/537.36 (KHTML, like Gecko) Version/4.0 Chrome/37.0.0.0 Mobile MQQBrowser/6.8 TBS/036849 Safari/537.36 MicroMessenger/6.3.27.880 NetType/WIFI Language/zh_CN'
p15
sS'ua'
p16
S'34ca64a3c382f01bfa660f6b70f31f38'
p17
sa(dp18
g2
S'49759'
p19
sg4
S'1950'
p20
sg6
S'e29483f5d48909ce7997109bb3c0c935'
p21
sg8
S'xx51e21b852124d0c62064fde35f052d6a'
p22
sg10
S'xxa2688a2f031d413266952588af165010'
p23
sg12
S'xxad02f61baa50916a62eb93e8dfe66833'
p24
sg14
S'Mozilla/5.0 (Linux; Android 5.1; M5 Build/LMY47D) AppleWebKit/537.36 (KHTML, like Gecko) Version/4.0 Chrome/37.0.0.0 Mobile MQQBrowser/6.8 TBS/036849 Safari/537.36 MicroMessenger/6.3.27.880 NetType/WIFI Language/zh_CN'
p25
sg16
S'34ca64a3c382f01bfa660f6b70f31f38'
p26
sa(dp27
g2
S'49759'
p28
sg4
S'1978'
p29
sg6
S'e29483f5d48909ce7997109bb3c0c935'
p30
sg8
S'xx51e21b852124d0c62064fde35f052d6a'
p31
sg10
S'xxa2688a2f031d413266952588af165010'
p32
sg12
S'xxad02f61baa50916a62eb93e8dfe66833'
p33
sg14
S'Mozilla/5.0 (Linux; Android 5.1; M5 Build/LMY47D) AppleWebKit/537.36 (KHTML, like Gecko) Version/4.0 Chrome/37.0.0.0 Mobile MQQBrowser/6.8 TBS/036849 Safari/537.36 MicroMessenger/6.3.27.880 NetType/WIFI Language/zh_CN'
p34
sg16
S'34ca64a3c382f01bfa660f6b70f31f38'
p35
sa(dp36
g2
S'49759'
p37
sg4
S'1993'
p38
sg6
S'e29483f5d48909ce7997109bb3c0c935'
p39
sg8
S'xx51e21b852124d0c62064fde35f052d6a'
p40
sg10
S'xxa2688a2f031d413266952588af165010'
p41
sg12
S'xxad02f61baa50916a62eb93e8dfe66833'
p42
sg14
S'Mozilla/5.0 (Linux; Android 5.1; M5 Build/LMY47D) AppleWebKit/537.36 (KHTML, like Gecko) Version/4.0 Chrome/37.0.0.0 Mobile MQQBrowser/6.8 TBS/036849 Safari/537.36 MicroMessenger/6.3.27.880 NetType/WIFI Language/zh_CN'
p43
sg16
S'34ca64a3c382f01bfa660f6b70f31f38'
p44
sa(dp45
g2
S'49759'
p46
sg4
S'3634'
p47
sg6
S'e29483f5d48909ce7997109bb3c0c935'
p48
sg8
S'xx51e21b852124d0c62064fde35f052d6a'
p49
sg10
S'xxa2688a2f031d413266952588af165010'
p50
sg12
S'xxad02f61baa50916a62eb93e8dfe66833'
p51
sg14
S'Mozilla/5.0 (Linux; Android 5.1; M5 Build/LMY47D) AppleWebKit/537.36 (KHTML, like Gecko) Version/4.0 Chrome/37.0.0.0 Mobile MQQBrowser/6.8 TBS/036849 Safari/537.36 MicroMessenger/6.3.27.880 NetType/WIFI Language/zh_CN'
p52
sg16
S'34ca64a3c382f01bfa660f6b70f31f38'
p53
sa(dp54
g2
S'49759'
p55
sg4
S'3646'
p56
sg6
S'e29483f5d48909ce7997109bb3c0c935'
p57
sg8
S'xx51e21b852124d0c62064fde35f052d6a'
p58
sg10
S'xxa2688a2f031d413266952588af165010'
p59
sg12
S'xxad02f61baa50916a62eb93e8dfe66833'
p60
sg14
S'Mozilla/5.0 (Linux; Android 5.1; M5 Build/LMY47D) AppleWebKit/537.36 (KHTML, like Gecko) Version/4.0 Chrome/37.0.0.0 Mobile MQQBrowser/6.8 TBS/036849 Safari/537.36 MicroMessenger/6.3.27.880 NetType/WIFI Language/zh_CN'
p61
sg16
S'34ca64a3c382f01bfa660f6b70f31f38'
p62
sa(dp63
g2
S'49759'
p64
sg4
S'3661'
p65
sg6
S'e29483f5d48909ce7997109bb3c0c935'
p66
sg8
S'xx51e21b852124d0c62064fde35f052d6a'
p67
sg10
S'xxa2688a2f031d413266952588af165010'
p68
sg12
S'xxad02f61baa50916a62eb93e8dfe66833'
p69
sg14
S'Mozilla/5.0 (Linux; Android 5.1; M5 Build/LMY47D) AppleWebKit/537.36 (KHTML, like Gecko) Version/4.0 Chrome/37.0.0.0 Mobile MQQBrowser/6.8 TBS/036849 Safari/537.36 MicroMessenger/6.3.27.880 NetType/WIFI Language/zh_CN'
p70
sg16
S'34ca64a3c382f01bfa660f6b70f31f38'
p71
sa(dp72
g2
S'49759'
p73
sg4
S'3795'
p74
sg6
S'e29483f5d48909ce7997109bb3c0c935'
p75
sg8
S'xx51e21b852124d0c62064fde35f052d6a'
p76
sg10
S'xxa2688a2f031d413266952588af165010'
p77
sg12
S'xxad02f61baa50916a62eb93e8dfe66833'
p78
sg14
S'Mozilla/5.0 (Linux; Android 5.1; M5 Build/LMY47D) AppleWebKit/537.36 (KHTML, like Gecko) Version/4.0 Chrome/37.0.0.0 Mobile MQQBrowser/6.8 TBS/036849 Safari/537.36 MicroMessenger/6.3.27.880 NetType/WIFI Language/zh_CN'
p79
sg16
S'34ca64a3c382f01bfa660f6b70f31f38'
p80
sa(dp81
g2
S'49759'
p82
sg4
S'3816'
p83
sg6
S'e29483f5d48909ce7997109bb3c0c935'
p84
sg8
S'xx51e21b852124d0c62064fde35f052d6a'
p85
sg10
S'xxa2688a2f031d413266952588af165010'
p86
sg12
S'xxad02f61baa50916a62eb93e8dfe66833'
p87
sg14
S'Mozilla/5.0 (Linux; Android 5.1; M5 Build/LMY47D) AppleWebKit/537.36 (KHTML, like Gecko) Version/4.0 Chrome/37.0.0.0 Mobile MQQBrowser/6.8 TBS/036849 Safari/537.36 MicroMessenger/6.3.27.880 NetType/WIFI Language/zh_CN'
p88
sg16
S'34ca64a3c382f01bfa660f6b70f31f38'
p89
sa(dp90
g2
S'49759'
p91
sg4
S'3837'
p92
sg6
S'e29483f5d48909ce7997109bb3c0c935'
p93
sg8
S'xx51e21b852124d0c62064fde35f052d6a'
p94
sg10
S'xxa2688a2f031d413266952588af165010'
p95
sg12
S'xxad02f61baa50916a62eb93e8dfe66833'
p96
sg14
S'Mozilla/5.0 (Linux; Android 5.1; M5 Build/LMY47D) AppleWebKit/537.36 (KHTML, like Gecko) Version/4.0 Chrome/37.0.0.0 Mobile MQQBrowser/6.8 TBS/036849 Safari/537.36 MicroMessenger/6.3.27.880 NetType/WIFI Language/zh_CN'
p97
sg16
S'34ca64a3c382f01bfa660f6b70f31f38'
p98
sa(dp99
g2
S'49759'
p100
sg4
S'3860'
p101
sg6
S'e29483f5d48909ce7997109bb3c0c935'
p102
sg8
S'xx51e21b852124d0c62064fde35f052d6a'
p103
sg10
S'xxa2688a2f031d413266952588af165010'
p104
sg12
S'xxad02f61baa50916a62eb93e8dfe66833'
p105
sg14
S'Mozilla/5.0 (Linux; Android 5.1; M5 Build/LMY47D) AppleWebKit/537.36 (KHTML, like Gecko) Version/4.0 Chrome/37.0.0.0 Mobile MQQBrowser/6.8 TBS/036849 Safari/537.36 MicroMessenger/6.3.27.880 NetType/WIFI Language/zh_CN'
p106
sg16
S'34ca64a3c382f01bfa660f6b70f31f38'
p107
sa(dp108
g2
S'49759'
p109
sg4
S'3878'
p110
sg6
S'e29483f5d48909ce7997109bb3c0c935'
p111
sg8
S'xx51e21b852124d0c62064fde35f052d6a'
p112
sg10
S'xxa2688a2f031d413266952588af165010'
p113
sg12
S'xxad02f61baa50916a62eb93e8dfe66833'
p114
sg14
S'Mozilla/5.0 (Linux; Android 5.1; M5 Build/LMY47D) AppleWebKit/537.36 (KHTML, like Gecko) Version/4.0 Chrome/37.0.0.0 Mobile MQQBrowser/6.8 TBS/036849 Safari/537.36 MicroMessenger/6.3.27.880 NetType/WIFI Language/zh_CN'
p115
sg16
S'34ca64a3c382f01bfa660f6b70f31f38'
p116
sa(dp117
g2
S'49759'
p118
sg4
S'3901'
p119
sg6
S'e29483f5d48909ce7997109bb3c0c935'
p120
sg8
S'xx51e21b852124d0c62064fde35f052d6a'
p121
sg10
S'xxa2688a2f031d413266952588af165010'
p122
sg12
S'xxad02f61baa50916a62eb93e8dfe66833'
p123
sg14
S'Mozilla/5.0 (Linux; Android 5.1; M5 Build/LMY47D) AppleWebKit/537.36 (KHTML, like Gecko) Version/4.0 Chrome/37.0.0.0 Mobile MQQBrowser/6.8 TBS/036849 Safari/537.36 MicroMessenger/6.3.27.880 NetType/WIFI Language/zh_CN'
p124
sg16
S'34ca64a3c382f01bfa660f6b70f31f38'
p125
sa(dp126
g2
S'49759'
p127
sg4
S'3909'
p128
sg6
S'e29483f5d48909ce7997109bb3c0c935'
p129
sg8
S'xx51e21b852124d0c62064fde35f052d6a'
p130
sg10
S'xxa2688a2f031d413266952588af165010'
p131
sg12
S'xxad02f61baa50916a62eb93e8dfe66833'
p132
sg14
S'Mozilla/5.0 (Linux; Android 5.1; M5 Build/LMY47D) AppleWebKit/537.36 (KHTML, like Gecko) Version/4.0 Chrome/37.0.0.0 Mobile MQQBrowser/6.8 TBS/036849 Safari/537.36 MicroMessenger/6.3.27.880 NetType/WIFI Language/zh_CN'
p133
sg16
S'34ca64a3c382f01bfa660f6b70f31f38'
p134
sa(dp135
g2
S'49759'
p136
sg4
S'3932'
p137
sg6
S'e29483f5d48909ce7997109bb3c0c935'
p138
sg8
S'xx51e21b852124d0c62064fde35f052d6a'
p139
sg10
S'xxa2688a2f031d413266952588af165010'
p140
sg12
S'xxad02f61baa50916a62eb93e8dfe66833'
p141
sg14
S'Mozilla/5.0 (Linux; Android 5.1; M5 Build/LMY47D) AppleWebKit/537.36 (KHTML, like Gecko) Version/4.0 Chrome/37.0.0.0 Mobile MQQBrowser/6.8 TBS/036849 Safari/537.36 MicroMessenger/6.3.27.880 NetType/WIFI Language/zh_CN'
p142
sg16
S'34ca64a3c382f01bfa660f6b70f31f38'
p143
sa(dp144
g2
S'49759'
p145
sg4
S'4049'
p146
sg6
S'e29483f5d48909ce7997109bb3c0c935'
p147
sg8
S'xx51e21b852124d0c62064fde35f052d6a'
p148
sg10
S'xxa2688a2f031d413266952588af165010'
p149
sg12
S'xxad02f61baa50916a62eb93e8dfe66833'
p150
sg14
S'Mozilla/5.0 (Linux; Android 5.1; M5 Build/LMY47D) AppleWebKit/537.36 (KHTML, like Gecko) Version/4.0 Chrome/37.0.0.0 Mobile MQQBrowser/6.8 TBS/036849 Safari/537.36 MicroMessenger/6.3.27.880 NetType/WIFI Language/zh_CN'
p151
sg16
S'34ca64a3c382f01bfa660f6b70f31f38'
p152
sa(dp153
g2
S'49759'
p154
sg4
S'4069'
p155
sg6
S'e29483f5d48909ce7997109bb3c0c935'
p156
sg8
S'xx51e21b852124d0c62064fde35f052d6a'
p157
sg10
S'xxa2688a2f031d413266952588af165010'
p158
sg12
S'xxad02f61baa50916a62eb93e8dfe66833'
p159
sg14
S'Mozilla/5.0 (Linux; Android 5.1; M5 Build/LMY47D) AppleWebKit/537.36 (KHTML, like Gecko) Version/4.0 Chrome/37.0.0.0 Mobile MQQBrowser/6.8 TBS/036849 Safari/537.36 MicroMessenger/6.3.27.880 NetType/WIFI Language/zh_CN'
p160
sg16
S'34ca64a3c382f01bfa660f6b70f31f38'
p161
sa(dp162
g2
S'49759'
p163
sg4
S'4092'
p164
sg6
S'e29483f5d48909ce7997109bb3c0c935'
p165
sg8
S'xx51e21b852124d0c62064fde35f052d6a'
p166
sg10
S'xxa2688a2f031d413266952588af165010'
p167
sg12
S'xxad02f61baa50916a62eb93e8dfe66833'
p168
sg14
S'Mozilla/5.0 (Linux; Android 5.1; M5 Build/LMY47D) AppleWebKit/537.36 (KHTML, like Gecko) Version/4.0 Chrome/37.0.0.0 Mobile MQQBrowser/6.8 TBS/036849 Safari/537.36 MicroMessenger/6.3.27.880 NetType/WIFI Language/zh_CN'
p169
sg16
S'34ca64a3c382f01bfa660f6b70f31f38'
p170
sa(dp171
g2
S'49759'
p172
sg4
S'4116'
p173
sg6
S'e29483f5d48909ce7997109bb3c0c935'
p174
sg8
S'xx51e21b852124d0c62064fde35f052d6a'
p175
sg10
S'xxa2688a2f031d413266952588af165010'
p176
sg12
S'xxad02f61baa50916a62eb93e8dfe66833'
p177
sg14
S'Mozilla/5.0 (Linux; Android 5.1; M5 Build/LMY47D) AppleWebKit/537.36 (KHTML, like Gecko) Version/4.0 Chrome/37.0.0.0 Mobile MQQBrowser/6.8 TBS/036849 Safari/537.36 MicroMessenger/6.3.27.880 NetType/WIFI Language/zh_CN'
p178
sg16
S'34ca64a3c382f01bfa660f6b70f31f38'
p179
sa(dp180
g2
S'49759'
p181
sg4
S'4150'
p182
sg6
S'e29483f5d48909ce7997109bb3c0c935'
p183
sg8
S'xx51e21b852124d0c62064fde35f052d6a'
p184
sg10
S'xxa2688a2f031d413266952588af165010'
p185
sg12
S'xxad02f61baa50916a62eb93e8dfe66833'
p186
sg14
S'Mozilla/5.0 (Linux; Android 5.1; M5 Build/LMY47D) AppleWebKit/537.36 (KHTML, like Gecko) Version/4.0 Chrome/37.0.0.0 Mobile MQQBrowser/6.8 TBS/036849 Safari/537.36 MicroMessenger/6.3.27.880 NetType/WIFI Language/zh_CN'
p187
sg16
S'34ca64a3c382f01bfa660f6b70f31f38'
p188
sa(dp189
g2
S'49759'
p190
sg4
S'4169'
p191
sg6
S'e29483f5d48909ce7997109bb3c0c935'
p192
sg8
S'xx51e21b852124d0c62064fde35f052d6a'
p193
sg10
S'xxa2688a2f031d413266952588af165010'
p194
sg12
S'xxad02f61baa50916a62eb93e8dfe66833'
p195
sg14
S'Mozilla/5.0 (Linux; Android 5.1; M5 Build/LMY47D) AppleWebKit/537.36 (KHTML, like Gecko) Version/4.0 Chrome/37.0.0.0 Mobile MQQBrowser/6.8 TBS/036849 Safari/537.36 MicroMessenger/6.3.27.880 NetType/WIFI Language/zh_CN'
p196
sg16
S'34ca64a3c382f01bfa660f6b70f31f38'
p197
sa(dp198
g2
S'49759'
p199
sg4
S'4253'
p200
sg6
S'e29483f5d48909ce7997109bb3c0c935'
p201
sg8
S'xx51e21b852124d0c62064fde35f052d6a'
p202
sg10
S'xxa2688a2f031d413266952588af165010'
p203
sg12
S'xxad02f61baa50916a62eb93e8dfe66833'
p204
sg14
S'Mozilla/5.0 (Linux; Android 5.1; M5 Build/LMY47D) AppleWebKit/537.36 (KHTML, like Gecko) Version/4.0 Chrome/37.0.0.0 Mobile MQQBrowser/6.8 TBS/036849 Safari/537.36 MicroMessenger/6.3.27.880 NetType/WIFI Language/zh_CN'
p205
sg16
S'34ca64a3c382f01bfa660f6b70f31f38'
p206
sa(dp207
g2
S'49759'
p208
sg4
S'4366'
p209
sg6
S'e29483f5d48909ce7997109bb3c0c935'
p210
sg8
S'xx51e21b852124d0c62064fde35f052d6a'
p211
sg10
S'xxa2688a2f031d413266952588af165010'
p212
sg12
S'xxad02f61baa50916a62eb93e8dfe66833'
p213
sg14
S'Mozilla/5.0 (Linux; Android 5.1; M5 Build/LMY47D) AppleWebKit/537.36 (KHTML, like Gecko) Version/4.0 Chrome/37.0.0.0 Mobile MQQBrowser/6.8 TBS/036849 Safari/537.36 MicroMessenger/6.3.27.880 NetType/WIFI Language/zh_CN'
p214
sg16
S'34ca64a3c382f01bfa660f6b70f31f38'
p215
sa(dp216
g2
S'49759'
p217
sg4
S'4397'
p218
sg6
S'e29483f5d48909ce7997109bb3c0c935'
p219
sg8
S'xx51e21b852124d0c62064fde35f052d6a'
p220
sg10
S'xxa2688a2f031d413266952588af165010'
p221
sg12
S'xxad02f61baa50916a62eb93e8dfe66833'
p222
sg14
S'Mozilla/5.0 (Linux; Android 5.1; M5 Build/LMY47D) AppleWebKit/537.36 (KHTML, like Gecko) Version/4.0 Chrome/37.0.0.0 Mobile MQQBrowser/6.8 TBS/036849 Safari/537.36 MicroMessenger/6.3.27.880 NetType/WIFI Language/zh_CN'
p223
sg16
S'34ca64a3c382f01bfa660f6b70f31f38'
p224
sa(dp225
g2
S'49759'
p226
sg4
S'4652'
p227
sg6
S'e29483f5d48909ce7997109bb3c0c935'
p228
sg8
S'xx51e21b852124d0c62064fde35f052d6a'
p229
sg10
S'xxa2688a2f031d413266952588af165010'
p230
sg12
S'xxad02f61baa50916a62eb93e8dfe66833'
p231
sg14
S'Mozilla/5.0 (Linux; Android 5.1; M5 Build/LMY47D) AppleWebKit/537.36 (KHTML, like Gecko) Version/4.0 Chrome/37.0.0.0 Mobile MQQBrowser/6.8 TBS/036849 Safari/537.36 MicroMessenger/6.3.27.880 NetType/WIFI Language/zh_CN'
p232
sg16
S'34ca64a3c382f01bfa660f6b70f31f38'
p233
sa(dp234
g2
S'49759'
p235
sg4
S'4718'
p236
sg6
S'e29483f5d48909ce7997109bb3c0c935'
p237
sg8
S'xx51e21b852124d0c62064fde35f052d6a'
p238
sg10
S'xxa2688a2f031d413266952588af165010'
p239
sg12
S'xxad02f61baa50916a62eb93e8dfe66833'
p240
sg14
S'Mozilla/5.0 (Linux; Android 5.1; M5 Build/LMY47D) AppleWebKit/537.36 (KHTML, like Gecko) Version/4.0 Chrome/37.0.0.0 Mobile MQQBrowser/6.8 TBS/036849 Safari/537.36 MicroMessenger/6.3.27.880 NetType/WIFI Language/zh_CN'
p241
sg16
S'34ca64a3c382f01bfa660f6b70f31f38'
p242
sa(dp243
g2
S'49759'
p244
sg4
S'4736'
p245
sg6
S'e29483f5d48909ce7997109bb3c0c935'
p246
sg8
S'xx51e21b852124d0c62064fde35f052d6a'
p247
sg10
S'xxa2688a2f031d413266952588af165010'
p248
sg12
S'xxad02f61baa50916a62eb93e8dfe66833'
p249
sg14
S'Mozilla/5.0 (Linux; Android 5.1; M5 Build/LMY47D) AppleWebKit/537.36 (KHTML, like Gecko) Version/4.0 Chrome/37.0.0.0 Mobile MQQBrowser/6.8 TBS/036849 Safari/537.36 MicroMessenger/6.3.27.880 NetType/WIFI Language/zh_CN'
p250
sg16
S'34ca64a3c382f01bfa660f6b70f31f38'
p251
sa(dp252
g2
S'49759'
p253
sg4
S'4814'
p254
sg6
S'e29483f5d48909ce7997109bb3c0c935'
p255
sg8
S'xx51e21b852124d0c62064fde35f052d6a'
p256
sg10
S'xxa2688a2f031d413266952588af165010'
p257
sg12
S'xxad02f61baa50916a62eb93e8dfe66833'
p258
sg14
S'Mozilla/5.0 (Linux; Android 5.1; M5 Build/LMY47D) AppleWebKit/537.36 (KHTML, like Gecko) Version/4.0 Chrome/37.0.0.0 Mobile MQQBrowser/6.8 TBS/036849 Safari/537.36 MicroMessenger/6.3.27.880 NetType/WIFI Language/zh_CN'
p259
sg16
S'34ca64a3c382f01bfa660f6b70f31f38'
p260
sa(dp261
g2
S'49759'
p262
sg4
S'4828'
p263
sg6
S'e29483f5d48909ce7997109bb3c0c935'
p264
sg8
S'xx51e21b852124d0c62064fde35f052d6a'
p265
sg10
S'xxa2688a2f031d413266952588af165010'
p266
sg12
S'xxad02f61baa50916a62eb93e8dfe66833'
p267
sg14
S'Mozilla/5.0 (Linux; Android 5.1; M5 Build/LMY47D) AppleWebKit/537.36 (KHTML, like Gecko) Version/4.0 Chrome/37.0.0.0 Mobile MQQBrowser/6.8 TBS/036849 Safari/537.36 MicroMessenger/6.3.27.880 NetType/WIFI Language/zh_CN'
p268
sg16
S'34ca64a3c382f01bfa660f6b70f31f38'
p269
sa(dp270
g2
S'49759'
p271
sg4
S'4845'
p272
sg6
S'e29483f5d48909ce7997109bb3c0c935'
p273
sg8
S'xx51e21b852124d0c62064fde35f052d6a'
p274
sg10
S'xxa2688a2f031d413266952588af165010'
p275
sg12
S'xxad02f61baa50916a62eb93e8dfe66833'
p276
sg14
S'Mozilla/5.0 (Linux; Android 5.1; M5 Build/LMY47D) AppleWebKit/537.36 (KHTML, like Gecko) Version/4.0 Chrome/37.0.0.0 Mobile MQQBrowser/6.8 TBS/036849 Safari/537.36 MicroMessenger/6.3.27.880 NetType/WIFI Language/zh_CN'
p277
sg16
S'34ca64a3c382f01bfa660f6b70f31f38'
p278
sa(dp279
g2
S'49759'
p280
sg4
S'4860'
p281
sg6
S'e29483f5d48909ce7997109bb3c0c935'
p282
sg8
S'xx51e21b852124d0c62064fde35f052d6a'
p283
sg10
S'xxa2688a2f031d413266952588af165010'
p284
sg12
S'xxad02f61baa50916a62eb93e8dfe66833'
p285
sg14
S'Mozilla/5.0 (Linux; Android 5.1; M5 Build/LMY47D) AppleWebKit/537.36 (KHTML, like Gecko) Version/4.0 Chrome/37.0.0.0 Mobile MQQBrowser/6.8 TBS/036849 Safari/537.36 MicroMessenger/6.3.27.880 NetType/WIFI Language/zh_CN'
p286
sg16
S'34ca64a3c382f01bfa660f6b70f31f38'
p287
sa(dp288
g2
S'49759'
p289
sg4
S'4916'
p290
sg6
S'e29483f5d48909ce7997109bb3c0c935'
p291
sg8
S'xx51e21b852124d0c62064fde35f052d6a'
p292
sg10
S'xxa2688a2f031d413266952588af165010'
p293
sg12
S'xxad02f61baa50916a62eb93e8dfe66833'
p294
sg14
S'Mozilla/5.0 (Linux; Android 5.1; M5 Build/LMY47D) AppleWebKit/537.36 (KHTML, like Gecko) Version/4.0 Chrome/37.0.0.0 Mobile MQQBrowser/6.8 TBS/036849 Safari/537.36 MicroMessenger/6.3.27.880 NetType/WIFI Language/zh_CN'
p295
sg16
S'34ca64a3c382f01bfa660f6b70f31f38'
p296
sa(dp297
g2
S'49759'
p298
sg4
S'4931'
p299
sg6
S'e29483f5d48909ce7997109bb3c0c935'
p300
sg8
S'xx51e21b852124d0c62064fde35f052d6a'
p301
sg10
S'xxa2688a2f031d413266952588af165010'
p302
sg12
S'xxad02f61baa50916a62eb93e8dfe66833'
p303
sg14
S'Mozilla/5.0 (Linux; Android 5.1; M5 Build/LMY47D) AppleWebKit/537.36 (KHTML, like Gecko) Version/4.0 Chrome/37.0.0.0 Mobile MQQBrowser/6.8 TBS/036849 Safari/537.36 MicroMessenger/6.3.27.880 NetType/WIFI Language/zh_CN'
p304
sg16
S'34ca64a3c382f01bfa660f6b70f31f38'
p305
sa(dp306
g2
S'49759'
p307
sg4
S'4996'
p308
sg6
S'e29483f5d48909ce7997109bb3c0c935'
p309
sg8
S'xx51e21b852124d0c62064fde35f052d6a'
p310
sg10
S'xxa2688a2f031d413266952588af165010'
p311
sg12
S'xxad02f61baa50916a62eb93e8dfe66833'
p312
sg14
S'Mozilla/5.0 (Linux; Android 5.1; M5 Build/LMY47D) AppleWebKit/537.36 (KHTML, like Gecko) Version/4.0 Chrome/37.0.0.0 Mobile MQQBrowser/6.8 TBS/036849 Safari/537.36 MicroMessenger/6.3.27.880 NetType/WIFI Language/zh_CN'
p313
sg16
S'34ca64a3c382f01bfa660f6b70f31f38'
p314
sa(dp315
g2
S'49759'
p316
sg4
S'5007'
p317
sg6
S'e29483f5d48909ce7997109bb3c0c935'
p318
sg8
S'xx51e21b852124d0c62064fde35f052d6a'
p319
sg10
S'xxa2688a2f031d413266952588af165010'
p320
sg12
S'xxad02f61baa50916a62eb93e8dfe66833'
p321
sg14
S'Mozilla/5.0 (Linux; Android 5.1; M5 Build/LMY47D) AppleWebKit/537.36 (KHTML, like Gecko) Version/4.0 Chrome/37.0.0.0 Mobile MQQBrowser/6.8 TBS/036849 Safari/537.36 MicroMessenger/6.3.27.880 NetType/WIFI Language/zh_CN'
p322
sg16
S'34ca64a3c382f01bfa660f6b70f31f38'
p323
sa(dp324
g2
S'49759'
p325
sg4
S'5046'
p326
sg6
S'e29483f5d48909ce7997109bb3c0c935'
p327
sg8
S'xx51e21b852124d0c62064fde35f052d6a'
p328
sg10
S'xxa2688a2f031d413266952588af165010'
p329
sg12
S'xxad02f61baa50916a62eb93e8dfe66833'
p330
sg14
S'Mozilla/5.0 (Linux; Android 5.1; M5 Build/LMY47D) AppleWebKit/537.36 (KHTML, like Gecko) Version/4.0 Chrome/37.0.0.0 Mobile MQQBrowser/6.8 TBS/036849 Safari/537.36 MicroMessenger/6.3.27.880 NetType/WIFI Language/zh_CN'
p331
sg16
S'34ca64a3c382f01bfa660f6b70f31f38'
p332
sa(dp333
g2
S'49759'
p334
sg4
S'5061'
p335
sg6
S'e29483f5d48909ce7997109bb3c0c935'
p336
sg8
S'xx51e21b852124d0c62064fde35f052d6a'
p337
sg10
S'xxa2688a2f031d413266952588af165010'
p338
sg12
S'xxad02f61baa50916a62eb93e8dfe66833'
p339
sg14
S'Mozilla/5.0 (Linux; Android 5.1; M5 Build/LMY47D) AppleWebKit/537.36 (KHTML, like Gecko) Version/4.0 Chrome/37.0.0.0 Mobile MQQBrowser/6.8 TBS/036849 Safari/537.36 MicroMessenger/6.3.27.880 NetType/WIFI Language/zh_CN'
p340
sg16
S'34ca64a3c382f01bfa660f6b70f31f38'
p341
sa(dp342
g2
S'49759'
p343
sg4
S'5069'
p344
sg6
S'e29483f5d48909ce7997109bb3c0c935'
p345
sg8
S'xx51e21b852124d0c62064fde35f052d6a'
p346
sg10
S'xxa2688a2f031d413266952588af165010'
p347
sg12
S'xxad02f61baa50916a62eb93e8dfe66833'
p348
sg14
S'Mozilla/5.0 (Linux; Android 5.1; M5 Build/LMY47D) AppleWebKit/537.36 (KHTML, like Gecko) Version/4.0 Chrome/37.0.0.0 Mobile MQQBrowser/6.8 TBS/036849 Safari/537.36 MicroMessenger/6.3.27.880 NetType/WIFI Language/zh_CN'
p349
sg16
S'34ca64a3c382f01bfa660f6b70f31f38'
p350
sa(dp351
g2
S'49759'
p352
sg4
S'5087'
p353
sg6
S'e29483f5d48909ce7997109bb3c0c935'
p354
sg8
S'xx51e21b852124d0c62064fde35f052d6a'
p355
sg10
S'xxa2688a2f031d413266952588af165010'
p356
sg12
S'xxad02f61baa50916a62eb93e8dfe66833'
p357
sg14
S'Mozilla/5.0 (Linux; Android 5.1; M5 Build/LMY47D) AppleWebKit/537.36 (KHTML, like Gecko) Version/4.0 Chrome/37.0.0.0 Mobile MQQBrowser/6.8 TBS/036849 Safari/537.36 MicroMessenger/6.3.27.880 NetType/WIFI Language/zh_CN'
p358
sg16
S'34ca64a3c382f01bfa660f6b70f31f38'
p359
sa(dp360
g2
S'49759'
p361
sg4
S'5148'
p362
sg6
S'e29483f5d48909ce7997109bb3c0c935'
p363
sg8
S'xx51e21b852124d0c62064fde35f052d6a'
p364
sg10
S'xxa2688a2f031d413266952588af165010'
p365
sg12
S'xxad02f61baa50916a62eb93e8dfe66833'
p366
sg14
S'Mozilla/5.0 (Linux; Android 5.1; M5 Build/LMY47D) AppleWebKit/537.36 (KHTML, like Gecko) Version/4.0 Chrome/37.0.0.0 Mobile MQQBrowser/6.8 TBS/036849 Safari/537.36 MicroMessenger/6.3.27.880 NetType/WIFI Language/zh_CN'
p367
sg16
S'34ca64a3c382f01bfa660f6b70f31f38'
p368
sa(dp369
g2
S'49759'
p370
sg4
S'5166'
p371
sg6
S'e29483f5d48909ce7997109bb3c0c935'
p372
sg8
S'xx51e21b852124d0c62064fde35f052d6a'
p373
sg10
S'xxa2688a2f031d413266952588af165010'
p374
sg12
S'xxad02f61baa50916a62eb93e8dfe66833'
p375
sg14
S'Mozilla/5.0 (Linux; Android 5.1; M5 Build/LMY47D) AppleWebKit/537.36 (KHTML, like Gecko) Version/4.0 Chrome/37.0.0.0 Mobile MQQBrowser/6.8 TBS/036849 Safari/537.36 MicroMessenger/6.3.27.880 NetType/WIFI Language/zh_CN'
p376
sg16
S'34ca64a3c382f01bfa660f6b70f31f38'
p377
sa(dp378
g2
S'49759'
p379
sg4
S'5186'
p380
sg6
S'e29483f5d48909ce7997109bb3c0c935'
p381
sg8
S'xx51e21b852124d0c62064fde35f052d6a'
p382
sg10
S'xxa2688a2f031d413266952588af165010'
p383
sg12
S'xxad02f61baa50916a62eb93e8dfe66833'
p384
sg14
S'Mozilla/5.0 (Linux; Android 5.1; M5 Build/LMY47D) AppleWebKit/537.36 (KHTML, like Gecko) Version/4.0 Chrome/37.0.0.0 Mobile MQQBrowser/6.8 TBS/036849 Safari/537.36 MicroMessenger/6.3.27.880 NetType/WIFI Language/zh_CN'
p385
sg16
S'34ca64a3c382f01bfa660f6b70f31f38'
p386
sa(dp387
g2
S'49759'
p388
sg4
S'5206'
p389
sg6
S'e29483f5d48909ce7997109bb3c0c935'
p390
sg8
S'xx51e21b852124d0c62064fde35f052d6a'
p391
sg10
S'xxa2688a2f031d413266952588af165010'
p392
sg12
S'xxad02f61baa50916a62eb93e8dfe66833'
p393
sg14
S'Mozilla/5.0 (Linux; Android 5.1; M5 Build/LMY47D) AppleWebKit/537.36 (KHTML, like Gecko) Version/4.0 Chrome/37.0.0.0 Mobile MQQBrowser/6.8 TBS/036849 Safari/537.36 MicroMessenger/6.3.27.880 NetType/WIFI Language/zh_CN'
p394
sg16
S'34ca64a3c382f01bfa660f6b70f31f38'
p395
sa(dp396
g2
S'49759'
p397
sg4
S'5221'
p398
sg6
S'e29483f5d48909ce7997109bb3c0c935'
p399
sg8
S'xx51e21b852124d0c62064fde35f052d6a'
p400
sg10
S'xxa2688a2f031d413266952588af165010'
p401
sg12
S'xxad02f61baa50916a62eb93e8dfe66833'
p402
sg14
S'Mozilla/5.0 (Linux; Android 5.1; M5 Build/LMY47D) AppleWebKit/537.36 (KHTML, like Gecko) Version/4.0 Chrome/37.0.0.0 Mobile MQQBrowser/6.8 TBS/036849 Safari/537.36 MicroMessenger/6.3.27.880 NetType/WIFI Language/zh_CN'
p403
sg16
S'34ca64a3c382f01bfa660f6b70f31f38'
p404
sa(dp405
g2
S'49759'
p406
sg4
S'5275'
p407
sg6
S'e29483f5d48909ce7997109bb3c0c935'
p408
sg8
S'xx51e21b852124d0c62064fde35f052d6a'
p409
sg10
S'xxa2688a2f031d413266952588af165010'
p410
sg12
S'xxad02f61baa50916a62eb93e8dfe66833'
p411
sg14
S'Mozilla/5.0 (Linux; Android 5.1; M5 Build/LMY47D) AppleWebKit/537.36 (KHTML, like Gecko) Version/4.0 Chrome/37.0.0.0 Mobile MQQBrowser/6.8 TBS/036849 Safari/537.36 MicroMessenger/6.3.27.880 NetType/WIFI Language/zh_CN'
p412
sg16
S'34ca64a3c382f01bfa660f6b70f31f38'
p413
sa(dp414
g2
S'49759'
p415
sg4
S'5292'
p416
sg6
S'e29483f5d48909ce7997109bb3c0c935'
p417
sg8
S'xx51e21b852124d0c62064fde35f052d6a'
p418
sg10
S'xxa2688a2f031d413266952588af165010'
p419
sg12
S'xxad02f61baa50916a62eb93e8dfe66833'
p420
sg14
S'Mozilla/5.0 (Linux; Android 5.1; M5 Build/LMY47D) AppleWebKit/537.36 (KHTML, like Gecko) Version/4.0 Chrome/37.0.0.0 Mobile MQQBrowser/6.8 TBS/036849 Safari/537.36 MicroMessenger/6.3.27.880 NetType/WIFI Language/zh_CN'
p421
sg16
S'34ca64a3c382f01bfa660f6b70f31f38'
p422
sa(dp423
g2
S'49759'
p424
sg4
S'7011'
p425
sg6
S'e29483f5d48909ce7997109bb3c0c935'
p426
sg8
S'xx51e21b852124d0c62064fde35f052d6a'
p427
sg10
S'xxa2688a2f031d413266952588af165010'
p428
sg12
S'xxad02f61baa50916a62eb93e8dfe66833'
p429
sg14
S'Mozilla/5.0 (Linux; Android 5.1; M5 Build/LMY47D) AppleWebKit/537.36 (KHTML, like Gecko) Version/4.0 Chrome/37.0.0.0 Mobile MQQBrowser/6.8 TBS/036849 Safari/537.36 MicroMessenger/6.3.27.880 NetType/WIFI Language/zh_CN'
p430
sg16
S'34ca64a3c382f01bfa660f6b70f31f38'
p431
sa(dp432
g2
S'49759'
p433
sg4
S'7030'
p434
sg6
S'e29483f5d48909ce7997109bb3c0c935'
p435
sg8
S'xx51e21b852124d0c62064fde35f052d6a'
p436
sg10
S'xxa2688a2f031d413266952588af165010'
p437
sg12
S'xxad02f61baa50916a62eb93e8dfe66833'
p438
sg14
S'Mozilla/5.0 (Linux; Android 5.1; M5 Build/LMY47D) AppleWebKit/537.36 (KHTML, like Gecko) Version/4.0 Chrome/37.0.0.0 Mobile MQQBrowser/6.8 TBS/036849 Safari/537.36 MicroMessenger/6.3.27.880 NetType/WIFI Language/zh_CN'
p439
sg16
S'34ca64a3c382f01bfa660f6b70f31f38'
p440
sa(dp441
g2
S'49759'
p442
sg4
S'7117'
p443
sg6
S'e29483f5d48909ce7997109bb3c0c935'
p444
sg8
S'xx51e21b852124d0c62064fde35f052d6a'
p445
sg10
S'xxa2688a2f031d413266952588af165010'
p446
sg12
S'xxad02f61baa50916a62eb93e8dfe66833'
p447
sg14
S'Mozilla/5.0 (Linux; Android 5.1; M5 Build/LMY47D) AppleWebKit/537.36 (KHTML, like Gecko) Version/4.0 Chrome/37.0.0.0 Mobile MQQBrowser/6.8 TBS/036849 Safari/537.36 MicroMessenger/6.3.27.880 NetType/WIFI Language/zh_CN'
p448
sg16
S'34ca64a3c382f01bfa660f6b70f31f38'
p449
sa(dp450
g2
S'49759'
p451
sg4
S'7128'
p452
sg6
S'e29483f5d48909ce7997109bb3c0c935'
p453
sg8
S'xx51e21b852124d0c62064fde35f052d6a'
p454
sg10
S'xxa2688a2f031d413266952588af165010'
p455
sg12
S'xxad02f61baa50916a62eb93e8dfe66833'
p456
sg14
S'Mozilla/5.0 (Linux; Android 5.1; M5 Build/LMY47D) AppleWebKit/537.36 (KHTML, like Gecko) Version/4.0 Chrome/37.0.0.0 Mobile MQQBrowser/6.8 TBS/036849 Safari/537.36 MicroMessenger/6.3.27.880 NetType/WIFI Language/zh_CN'
p457
sg16
S'34ca64a3c382f01bfa660f6b70f31f38'
p458
sa(dp459
g2
S'49759'
p460
sg4
S'7150'
p461
sg6
S'e29483f5d48909ce7997109bb3c0c935'
p462
sg8
S'xx51e21b852124d0c62064fde35f052d6a'
p463
sg10
S'xxa2688a2f031d413266952588af165010'
p464
sg12
S'xxad02f61baa50916a62eb93e8dfe66833'
p465
sg14
S'Mozilla/5.0 (Linux; Android 5.1; M5 Build/LMY47D) AppleWebKit/537.36 (KHTML, like Gecko) Version/4.0 Chrome/37.0.0.0 Mobile MQQBrowser/6.8 TBS/036849 Safari/537.36 MicroMessenger/6.3.27.880 NetType/WIFI Language/zh_CN'
p466
sg16
S'34ca64a3c382f01bfa660f6b70f31f38'
p467
sa(dp468
g2
S'49759'
p469
sg4
S'7241'
p470
sg6
S'e29483f5d48909ce7997109bb3c0c935'
p471
sg8
S'xx51e21b852124d0c62064fde35f052d6a'
p472
sg10
S'xxa2688a2f031d413266952588af165010'
p473
sg12
S'xxad02f61baa50916a62eb93e8dfe66833'
p474
sg14
S'Mozilla/5.0 (Linux; Android 5.1; M5 Build/LMY47D) AppleWebKit/537.36 (KHTML, like Gecko) Version/4.0 Chrome/37.0.0.0 Mobile MQQBrowser/6.8 TBS/036849 Safari/537.36 MicroMessenger/6.3.27.880 NetType/WIFI Language/zh_CN'
p475
sg16
S'34ca64a3c382f01bfa660f6b70f31f38'
p476
sa(dp477
g2
S'49759'
p478
sg4
S'7344'
p479
sg6
S'e29483f5d48909ce7997109bb3c0c935'
p480
sg8
S'xx51e21b852124d0c62064fde35f052d6a'
p481
sg10
S'xxa2688a2f031d413266952588af165010'
p482
sg12
S'xxad02f61baa50916a62eb93e8dfe66833'
p483
sg14
S'Mozilla/5.0 (Linux; Android 5.1; M5 Build/LMY47D) AppleWebKit/537.36 (KHTML, like Gecko) Version/4.0 Chrome/37.0.0.0 Mobile MQQBrowser/6.8 TBS/036849 Safari/537.36 MicroMessenger/6.3.27.880 NetType/WIFI Language/zh_CN'
p484
sg16
S'34ca64a3c382f01bfa660f6b70f31f38'
p485
sa(dp486
g2
S'49759'
p487
sg4
S'7374'
p488
sg6
S'e29483f5d48909ce7997109bb3c0c935'
p489
sg8
S'xx51e21b852124d0c62064fde35f052d6a'
p490
sg10
S'xxa2688a2f031d413266952588af165010'
p491
sg12
S'xxad02f61baa50916a62eb93e8dfe66833'
p492
sg14
S'Mozilla/5.0 (Linux; Android 5.1; M5 Build/LMY47D) AppleWebKit/537.36 (KHTML, like Gecko) Version/4.0 Chrome/37.0.0.0 Mobile MQQBrowser/6.8 TBS/036849 Safari/537.36 MicroMessenger/6.3.27.880 NetType/WIFI Language/zh_CN'
p493
sg16
S'34ca64a3c382f01bfa660f6b70f31f38'
p494
sa(dp495
g2
S'49759'
p496
sg4
S'7427'
p497
sg6
S'e29483f5d48909ce7997109bb3c0c935'
p498
sg8
S'xx51e21b852124d0c62064fde35f052d6a'
p499
sg10
S'xxa2688a2f031d413266952588af165010'
p500
sg12
S'xxad02f61baa50916a62eb93e8dfe66833'
p501
sg14
S'Mozilla/5.0 (Linux; Android 5.1; M5 Build/LMY47D) AppleWebKit/537.36 (KHTML, like Gecko) Version/4.0 Chrome/37.0.0.0 Mobile MQQBrowser/6.8 TBS/036849 Safari/537.36 MicroMessenger/6.3.27.880 NetType/WIFI Language/zh_CN'
p502
sg16
S'34ca64a3c382f01bfa660f6b70f31f38'
p503
sa(dp504
g2
S'49759'
p505
sg4
S'7583'
p506
sg6
S'e29483f5d48909ce7997109bb3c0c935'
p507
sg8
S'xx51e21b852124d0c62064fde35f052d6a'
p508
sg10
S'xxa2688a2f031d413266952588af165010'
p509
sg12
S'xxad02f61baa50916a62eb93e8dfe66833'
p510
sg14
S'Mozilla/5.0 (Linux; Android 5.1; M5 Build/LMY47D) AppleWebKit/537.36 (KHTML, like Gecko) Version/4.0 Chrome/37.0.0.0 Mobile MQQBrowser/6.8 TBS/036849 Safari/537.36 MicroMessenger/6.3.27.880 NetType/WIFI Language/zh_CN'
p511
sg16
S'34ca64a3c382f01bfa660f6b70f31f38'
p512
sa.