(lp0
(dp1
S'user_id'
p2
S'45806'
p3
sS'data_id'
p4
S'3145'
p5
sS'ip'
p6
S'8c8e70ad6fe9f9ee05980e758647ba38'
p7
sS'phone_B'
p8
S'xx056577534a7423280cdb63876d513dc3'
p9
sS'phone_C'
p10
S'xx95f4632b9f13694a03787626648e9998'
p11
sS'phone_A'
p12
S'xxadd2b655c647ace2ba93a30a87b9a13c'
p13
sS'user_agent'
p14
S'Mozilla/5.0 (Linux; Android 5.1.1; KIW-TL00H Build/HONORKIW-TL00H) AppleWebKit/537.36 (KHTML, like Gecko) Version/4.0 Chrome/37.0.0.0 Mobile MQQBrowser/6.8 TBS/036849 Safari/537.36 MicroMessenger/6.3.27.880 NetType/cmnet Language/zh_CN'
p15
sS'ua'
p16
S'd856e55d8e87527be3b5ae7c8c278f51'
p17
sa(dp18
g2
S'45806'
p19
sg4
S'3158'
p20
sg6
S'8c8e70ad6fe9f9ee05980e758647ba38'
p21
sg8
S'xx056577534a7423280cdb63876d513dc3'
p22
sg10
S'xx95f4632b9f13694a03787626648e9998'
p23
sg12
S'xxadd2b655c647ace2ba93a30a87b9a13c'
p24
sg14
S'Mozilla/5.0 (Linux; Android 5.1.1; KIW-TL00H Build/HONORKIW-TL00H) AppleWebKit/537.36 (KHTML, like Gecko) Version/4.0 Chrome/37.0.0.0 Mobile MQQBrowser/6.8 TBS/036849 Safari/537.36 MicroMessenger/6.3.27.880 NetType/cmnet Language/zh_CN'
p25
sg16
S'd856e55d8e87527be3b5ae7c8c278f51'
p26
sa(dp27
g2
S'45806'
p28
sg4
S'3168'
p29
sg6
S'8c8e70ad6fe9f9ee05980e758647ba38'
p30
sg8
S'xx056577534a7423280cdb63876d513dc3'
p31
sg10
S'xx95f4632b9f13694a03787626648e9998'
p32
sg12
S'xxadd2b655c647ace2ba93a30a87b9a13c'
p33
sg14
S'Mozilla/5.0 (Linux; Android 5.1.1; KIW-TL00H Build/HONORKIW-TL00H) AppleWebKit/537.36 (KHTML, like Gecko) Version/4.0 Chrome/37.0.0.0 Mobile MQQBrowser/6.8 TBS/036849 Safari/537.36 MicroMessenger/6.3.27.880 NetType/cmnet Language/zh_CN'
p34
sg16
S'd856e55d8e87527be3b5ae7c8c278f51'
p35
sa(dp36
g2
S'45806'
p37
sg4
S'3183'
p38
sg6
S'8c8e70ad6fe9f9ee05980e758647ba38'
p39
sg8
S'xx056577534a7423280cdb63876d513dc3'
p40
sg10
S'xx95f4632b9f13694a03787626648e9998'
p41
sg12
S'xxadd2b655c647ace2ba93a30a87b9a13c'
p42
sg14
S'Mozilla/5.0 (Linux; Android 5.1.1; KIW-TL00H Build/HONORKIW-TL00H) AppleWebKit/537.36 (KHTML, like Gecko) Version/4.0 Chrome/37.0.0.0 Mobile MQQBrowser/6.8 TBS/036849 Safari/537.36 MicroMessenger/6.3.27.880 NetType/cmnet Language/zh_CN'
p43
sg16
S'd856e55d8e87527be3b5ae7c8c278f51'
p44
sa(dp45
g2
S'45806'
p46
sg4
S'3199'
p47
sg6
S'8c8e70ad6fe9f9ee05980e758647ba38'
p48
sg8
S'xx056577534a7423280cdb63876d513dc3'
p49
sg10
S'xx95f4632b9f13694a03787626648e9998'
p50
sg12
S'xxadd2b655c647ace2ba93a30a87b9a13c'
p51
sg14
S'Mozilla/5.0 (Linux; Android 5.1.1; KIW-TL00H Build/HONORKIW-TL00H) AppleWebKit/537.36 (KHTML, like Gecko) Version/4.0 Chrome/37.0.0.0 Mobile MQQBrowser/6.8 TBS/036849 Safari/537.36 MicroMessenger/6.3.27.880 NetType/cmnet Language/zh_CN'
p52
sg16
S'd856e55d8e87527be3b5ae7c8c278f51'
p53
sa(dp54
g2
S'45806'
p55
sg4
S'3214'
p56
sg6
S'8c8e70ad6fe9f9ee05980e758647ba38'
p57
sg8
S'xx056577534a7423280cdb63876d513dc3'
p58
sg10
S'xx95f4632b9f13694a03787626648e9998'
p59
sg12
S'xxadd2b655c647ace2ba93a30a87b9a13c'
p60
sg14
S'Mozilla/5.0 (Linux; Android 5.1.1; KIW-TL00H Build/HONORKIW-TL00H) AppleWebKit/537.36 (KHTML, like Gecko) Version/4.0 Chrome/37.0.0.0 Mobile MQQBrowser/6.8 TBS/036849 Safari/537.36 MicroMessenger/6.3.27.880 NetType/cmnet Language/zh_CN'
p61
sg16
S'd856e55d8e87527be3b5ae7c8c278f51'
p62
sa(dp63
g2
S'45806'
p64
sg4
S'3247'
p65
sg6
S'8c8e70ad6fe9f9ee05980e758647ba38'
p66
sg8
S'xx056577534a7423280cdb63876d513dc3'
p67
sg10
S'xx95f4632b9f13694a03787626648e9998'
p68
sg12
S'xxadd2b655c647ace2ba93a30a87b9a13c'
p69
sg14
S'Mozilla/5.0 (Linux; Android 5.1.1; KIW-TL00H Build/HONORKIW-TL00H) AppleWebKit/537.36 (KHTML, like Gecko) Version/4.0 Chrome/37.0.0.0 Mobile MQQBrowser/6.8 TBS/036849 Safari/537.36 MicroMessenger/6.3.27.880 NetType/cmnet Language/zh_CN'
p70
sg16
S'd856e55d8e87527be3b5ae7c8c278f51'
p71
sa(dp72
g2
S'45806'
p73
sg4
S'3262'
p74
sg6
S'8c8e70ad6fe9f9ee05980e758647ba38'
p75
sg8
S'xx056577534a7423280cdb63876d513dc3'
p76
sg10
S'xx95f4632b9f13694a03787626648e9998'
p77
sg12
S'xxadd2b655c647ace2ba93a30a87b9a13c'
p78
sg14
S'Mozilla/5.0 (Linux; Android 5.1.1; KIW-TL00H Build/HONORKIW-TL00H) AppleWebKit/537.36 (KHTML, like Gecko) Version/4.0 Chrome/37.0.0.0 Mobile MQQBrowser/6.8 TBS/036849 Safari/537.36 MicroMessenger/6.3.27.880 NetType/cmnet Language/zh_CN'
p79
sg16
S'd856e55d8e87527be3b5ae7c8c278f51'
p80
sa(dp81
g2
S'45806'
p82
sg4
S'3276'
p83
sg6
S'8c8e70ad6fe9f9ee05980e758647ba38'
p84
sg8
S'xx056577534a7423280cdb63876d513dc3'
p85
sg10
S'xx95f4632b9f13694a03787626648e9998'
p86
sg12
S'xxadd2b655c647ace2ba93a30a87b9a13c'
p87
sg14
S'Mozilla/5.0 (Linux; Android 5.1.1; KIW-TL00H Build/HONORKIW-TL00H) AppleWebKit/537.36 (KHTML, like Gecko) Version/4.0 Chrome/37.0.0.0 Mobile MQQBrowser/6.8 TBS/036849 Safari/537.36 MicroMessenger/6.3.27.880 NetType/cmnet Language/zh_CN'
p88
sg16
S'd856e55d8e87527be3b5ae7c8c278f51'
p89
sa(dp90
g2
S'24021'
p91
sg4
S'3375'
p92
sg6
S'a186d3e35461a64da1494433ef5b2c1c'
p93
sg8
S'xx9c8c22729750cca38378cae53fd98aa4'
p94
sg10
S'xx01360b0d21a7251257ca464552de09e1'
p95
sg12
S'xxadd2b655c647ace2ba93a30a87b9a13c'
p96
sg14
S'Mozilla/5.0 (Linux; Android 6.0.1; KIW-TL00H Build/HONORKIW-TL00H) AppleWebKit/537.36 (KHTML, like Gecko) Version/4.0 Chrome/37.0.0.0 Mobile MQQBrowser/6.8 TBS/036849 Safari/537.36 MicroMessenger/6.3.27.880 NetType/cmnet Language/zh_CN'
p97
sg16
S'e3e116062cffb8dcab581b64a6db9809'
p98
sa(dp99
g2
S'24021'
p100
sg4
S'3393'
p101
sg6
S'a186d3e35461a64da1494433ef5b2c1c'
p102
sg8
S'xx9c8c22729750cca38378cae53fd98aa4'
p103
sg10
S'xx01360b0d21a7251257ca464552de09e1'
p104
sg12
S'xxadd2b655c647ace2ba93a30a87b9a13c'
p105
sg14
S'Mozilla/5.0 (Linux; Android 6.0.1; KIW-TL00H Build/HONORKIW-TL00H) AppleWebKit/537.36 (KHTML, like Gecko) Version/4.0 Chrome/37.0.0.0 Mobile MQQBrowser/6.8 TBS/036849 Safari/537.36 MicroMessenger/6.3.27.880 NetType/cmnet Language/zh_CN'
p106
sg16
S'e3e116062cffb8dcab581b64a6db9809'
p107
sa(dp108
g2
S'38327'
p109
sg4
S'3857'
p110
sg6
S'10a6506fa1cacff77aa2a8dc428c6c24'
p111
sg8
S'xxda92734413b8c176f4f4743c622916d3'
p112
sg10
S'xxf5e91a1c43c75a70c163f72442acc408'
p113
sg12
S'xxadd2b655c647ace2ba93a30a87b9a13c'
p114
sg14
S'Mozilla/5.0 (Linux; Android 5.1.1; KIW-TL00H Build/HONORKIW-TL00H) AppleWebKit/537.36 (KHTML, like Gecko) Version/4.0 Chrome/37.0.0.0 Mobile MQQBrowser/6.8 TBS/036849 Safari/537.36 MicroMessenger/6.3.27.880 NetType/WIFI Language/zh_CN'
p115
sg16
S'31582b355dc59e1f4aaa9ab10d5c90fa'
p116
sa(dp117
g2
S'38327'
p118
sg4
S'3874'
p119
sg6
S'10a6506fa1cacff77aa2a8dc428c6c24'
p120
sg8
S'xxda92734413b8c176f4f4743c622916d3'
p121
sg10
S'xxf5e91a1c43c75a70c163f72442acc408'
p122
sg12
S'xxadd2b655c647ace2ba93a30a87b9a13c'
p123
sg14
S'Mozilla/5.0 (Linux; Android 5.1.1; KIW-TL00H Build/HONORKIW-TL00H) AppleWebKit/537.36 (KHTML, like Gecko) Version/4.0 Chrome/37.0.0.0 Mobile MQQBrowser/6.8 TBS/036849 Safari/537.36 MicroMessenger/6.3.27.880 NetType/WIFI Language/zh_CN'
p124
sg16
S'31582b355dc59e1f4aaa9ab10d5c90fa'
p125
sa(dp126
g2
S'38327'
p127
sg4
S'3897'
p128
sg6
S'10a6506fa1cacff77aa2a8dc428c6c24'
p129
sg8
S'xxda92734413b8c176f4f4743c622916d3'
p130
sg10
S'xxf5e91a1c43c75a70c163f72442acc408'
p131
sg12
S'xxadd2b655c647ace2ba93a30a87b9a13c'
p132
sg14
S'Mozilla/5.0 (Linux; Android 5.1.1; KIW-TL00H Build/HONORKIW-TL00H) AppleWebKit/537.36 (KHTML, like Gecko) Version/4.0 Chrome/37.0.0.0 Mobile MQQBrowser/6.8 TBS/036849 Safari/537.36 MicroMessenger/6.3.27.880 NetType/WIFI Language/zh_CN'
p133
sg16
S'31582b355dc59e1f4aaa9ab10d5c90fa'
p134
sa(dp135
g2
S'38327'
p136
sg4
S'3919'
p137
sg6
S'10a6506fa1cacff77aa2a8dc428c6c24'
p138
sg8
S'xxda92734413b8c176f4f4743c622916d3'
p139
sg10
S'xxf5e91a1c43c75a70c163f72442acc408'
p140
sg12
S'xxadd2b655c647ace2ba93a30a87b9a13c'
p141
sg14
S'Mozilla/5.0 (Linux; Android 5.1.1; KIW-TL00H Build/HONORKIW-TL00H) AppleWebKit/537.36 (KHTML, like Gecko) Version/4.0 Chrome/37.0.0.0 Mobile MQQBrowser/6.8 TBS/036849 Safari/537.36 MicroMessenger/6.3.27.880 NetType/WIFI Language/zh_CN'
p142
sg16
S'31582b355dc59e1f4aaa9ab10d5c90fa'
p143
sa(dp144
g2
S'24021'
p145
sg4
S'4004'
p146
sg6
S'a186d3e35461a64da1494433ef5b2c1c'
p147
sg8
S'xx9c8c22729750cca38378cae53fd98aa4'
p148
sg10
S'xx01360b0d21a7251257ca464552de09e1'
p149
sg12
S'xxadd2b655c647ace2ba93a30a87b9a13c'
p150
sg14
S'Mozilla/5.0 (Linux; Android 6.0.1; KIW-TL00H Build/HONORKIW-TL00H) AppleWebKit/537.36 (KHTML, like Gecko) Version/4.0 Chrome/37.0.0.0 Mobile MQQBrowser/6.8 TBS/036849 Safari/537.36 MicroMessenger/6.3.27.880 NetType/cmnet Language/zh_CN'
p151
sg16
S'e3e116062cffb8dcab581b64a6db9809'
p152
sa(dp153
g2
S'24021'
p154
sg4
S'4020'
p155
sg6
S'a186d3e35461a64da1494433ef5b2c1c'
p156
sg8
S'xx9c8c22729750cca38378cae53fd98aa4'
p157
sg10
S'xx01360b0d21a7251257ca464552de09e1'
p158
sg12
S'xxadd2b655c647ace2ba93a30a87b9a13c'
p159
sg14
S'Mozilla/5.0 (Linux; Android 6.0.1; KIW-TL00H Build/HONORKIW-TL00H) AppleWebKit/537.36 (KHTML, like Gecko) Version/4.0 Chrome/37.0.0.0 Mobile MQQBrowser/6.8 TBS/036849 Safari/537.36 MicroMessenger/6.3.27.880 NetType/cmnet Language/zh_CN'
p160
sg16
S'e3e116062cffb8dcab581b64a6db9809'
p161
sa(dp162
g2
S'38327'
p163
sg4
S'4021'
p164
sg6
S'10a6506fa1cacff77aa2a8dc428c6c24'
p165
sg8
S'xxda92734413b8c176f4f4743c622916d3'
p166
sg10
S'xxf5e91a1c43c75a70c163f72442acc408'
p167
sg12
S'xxadd2b655c647ace2ba93a30a87b9a13c'
p168
sg14
S'Mozilla/5.0 (Linux; Android 5.1.1; KIW-TL00H Build/HONORKIW-TL00H) AppleWebKit/537.36 (KHTML, like Gecko) Version/4.0 Chrome/37.0.0.0 Mobile MQQBrowser/6.8 TBS/036849 Safari/537.36 MicroMessenger/6.3.27.880 NetType/WIFI Language/zh_CN'
p169
sg16
S'31582b355dc59e1f4aaa9ab10d5c90fa'
p170
sa(dp171
g2
S'24021'
p172
sg4
S'4035'
p173
sg6
S'a186d3e35461a64da1494433ef5b2c1c'
p174
sg8
S'xx9c8c22729750cca38378cae53fd98aa4'
p175
sg10
S'xx01360b0d21a7251257ca464552de09e1'
p176
sg12
S'xxadd2b655c647ace2ba93a30a87b9a13c'
p177
sg14
S'Mozilla/5.0 (Linux; Android 6.0.1; KIW-TL00H Build/HONORKIW-TL00H) AppleWebKit/537.36 (KHTML, like Gecko) Version/4.0 Chrome/37.0.0.0 Mobile MQQBrowser/6.8 TBS/036849 Safari/537.36 MicroMessenger/6.3.27.880 NetType/cmnet Language/zh_CN'
p178
sg16
S'e3e116062cffb8dcab581b64a6db9809'
p179
sa(dp180
g2
S'38327'
p181
sg4
S'4042'
p182
sg6
S'10a6506fa1cacff77aa2a8dc428c6c24'
p183
sg8
S'xxda92734413b8c176f4f4743c622916d3'
p184
sg10
S'xxf5e91a1c43c75a70c163f72442acc408'
p185
sg12
S'xxadd2b655c647ace2ba93a30a87b9a13c'
p186
sg14
S'Mozilla/5.0 (Linux; Android 5.1.1; KIW-TL00H Build/HONORKIW-TL00H) AppleWebKit/537.36 (KHTML, like Gecko) Version/4.0 Chrome/37.0.0.0 Mobile MQQBrowser/6.8 TBS/036849 Safari/537.36 MicroMessenger/6.3.27.880 NetType/WIFI Language/zh_CN'
p187
sg16
S'31582b355dc59e1f4aaa9ab10d5c90fa'
p188
sa(dp189
g2
S'24021'
p190
sg4
S'4054'
p191
sg6
S'a186d3e35461a64da1494433ef5b2c1c'
p192
sg8
S'xx9c8c22729750cca38378cae53fd98aa4'
p193
sg10
S'xx01360b0d21a7251257ca464552de09e1'
p194
sg12
S'xxadd2b655c647ace2ba93a30a87b9a13c'
p195
sg14
S'Mozilla/5.0 (Linux; Android 6.0.1; KIW-TL00H Build/HONORKIW-TL00H) AppleWebKit/537.36 (KHTML, like Gecko) Version/4.0 Chrome/37.0.0.0 Mobile MQQBrowser/6.8 TBS/036849 Safari/537.36 MicroMessenger/6.3.27.880 NetType/cmnet Language/zh_CN'
p196
sg16
S'e3e116062cffb8dcab581b64a6db9809'
p197
sa(dp198
g2
S'38327'
p199
sg4
S'4065'
p200
sg6
S'10a6506fa1cacff77aa2a8dc428c6c24'
p201
sg8
S'xxda92734413b8c176f4f4743c622916d3'
p202
sg10
S'xxf5e91a1c43c75a70c163f72442acc408'
p203
sg12
S'xxadd2b655c647ace2ba93a30a87b9a13c'
p204
sg14
S'Mozilla/5.0 (Linux; Android 5.1.1; KIW-TL00H Build/HONORKIW-TL00H) AppleWebKit/537.36 (KHTML, like Gecko) Version/4.0 Chrome/37.0.0.0 Mobile MQQBrowser/6.8 TBS/036849 Safari/537.36 MicroMessenger/6.3.27.880 NetType/WIFI Language/zh_CN'
p205
sg16
S'31582b355dc59e1f4aaa9ab10d5c90fa'
p206
sa(dp207
g2
S'24021'
p208
sg4
S'4080'
p209
sg6
S'a186d3e35461a64da1494433ef5b2c1c'
p210
sg8
S'xx9c8c22729750cca38378cae53fd98aa4'
p211
sg10
S'xx01360b0d21a7251257ca464552de09e1'
p212
sg12
S'xxadd2b655c647ace2ba93a30a87b9a13c'
p213
sg14
S'Mozilla/5.0 (Linux; Android 6.0.1; KIW-TL00H Build/HONORKIW-TL00H) AppleWebKit/537.36 (KHTML, like Gecko) Version/4.0 Chrome/37.0.0.0 Mobile MQQBrowser/6.8 TBS/036849 Safari/537.36 MicroMessenger/6.3.27.880 NetType/cmnet Language/zh_CN'
p214
sg16
S'e3e116062cffb8dcab581b64a6db9809'
p215
sa(dp216
g2
S'40742'
p217
sg4
S'4959'
p218
sg6
S'c15b4fb8870427e40ce6fa8b87552b74'
p219
sg8
S'xx21b0c6a72737b48bcba91e32a197853f'
p220
sg10
S'xxf5e91a1c43c75a70c163f72442acc408'
p221
sg12
S'xxadd2b655c647ace2ba93a30a87b9a13c'
p222
sg14
S'Mozilla/5.0 (Linux; Android 5.1.1; KIW-TL00H Build/HONORKIW-TL00H) AppleWebKit/537.36 (KHTML, like Gecko) Version/4.0 Chrome/37.0.0.0 Mobile MQQBrowser/6.8 TBS/036849 Safari/537.36 MicroMessenger/6.3.25.861 NetType/WIFI Language/zh_CN'
p223
sg16
S'934126468a48d3b89491eb4e004b75de'
p224
sa(dp225
g2
S'40742'
p226
sg4
S'4975'
p227
sg6
S'c15b4fb8870427e40ce6fa8b87552b74'
p228
sg8
S'xx21b0c6a72737b48bcba91e32a197853f'
p229
sg10
S'xxf5e91a1c43c75a70c163f72442acc408'
p230
sg12
S'xxadd2b655c647ace2ba93a30a87b9a13c'
p231
sg14
S'Mozilla/5.0 (Linux; Android 5.1.1; KIW-TL00H Build/HONORKIW-TL00H) AppleWebKit/537.36 (KHTML, like Gecko) Version/4.0 Chrome/37.0.0.0 Mobile MQQBrowser/6.8 TBS/036849 Safari/537.36 MicroMessenger/6.3.25.861 NetType/WIFI Language/zh_CN'
p232
sg16
S'934126468a48d3b89491eb4e004b75de'
p233
sa(dp234
g2
S'40742'
p235
sg4
S'4991'
p236
sg6
S'c15b4fb8870427e40ce6fa8b87552b74'
p237
sg8
S'xx21b0c6a72737b48bcba91e32a197853f'
p238
sg10
S'xxf5e91a1c43c75a70c163f72442acc408'
p239
sg12
S'xxadd2b655c647ace2ba93a30a87b9a13c'
p240
sg14
S'Mozilla/5.0 (Linux; Android 5.1.1; KIW-TL00H Build/HONORKIW-TL00H) AppleWebKit/537.36 (KHTML, like Gecko) Version/4.0 Chrome/37.0.0.0 Mobile MQQBrowser/6.8 TBS/036849 Safari/537.36 MicroMessenger/6.3.25.861 NetType/WIFI Language/zh_CN'
p241
sg16
S'934126468a48d3b89491eb4e004b75de'
p242
sa(dp243
g2
S'40742'
p244
sg4
S'5027'
p245
sg6
S'c15b4fb8870427e40ce6fa8b87552b74'
p246
sg8
S'xx21b0c6a72737b48bcba91e32a197853f'
p247
sg10
S'xxf5e91a1c43c75a70c163f72442acc408'
p248
sg12
S'xxadd2b655c647ace2ba93a30a87b9a13c'
p249
sg14
S'Mozilla/5.0 (Linux; Android 5.1.1; KIW-TL00H Build/HONORKIW-TL00H) AppleWebKit/537.36 (KHTML, like Gecko) Version/4.0 Chrome/37.0.0.0 Mobile MQQBrowser/6.8 TBS/036849 Safari/537.36 MicroMessenger/6.3.25.861 NetType/WIFI Language/zh_CN'
p250
sg16
S'934126468a48d3b89491eb4e004b75de'
p251
sa(dp252
g2
S'40742'
p253
sg4
S'5047'
p254
sg6
S'c15b4fb8870427e40ce6fa8b87552b74'
p255
sg8
S'xx21b0c6a72737b48bcba91e32a197853f'
p256
sg10
S'xxf5e91a1c43c75a70c163f72442acc408'
p257
sg12
S'xxadd2b655c647ace2ba93a30a87b9a13c'
p258
sg14
S'Mozilla/5.0 (Linux; Android 5.1.1; KIW-TL00H Build/HONORKIW-TL00H) AppleWebKit/537.36 (KHTML, like Gecko) Version/4.0 Chrome/37.0.0.0 Mobile MQQBrowser/6.8 TBS/036849 Safari/537.36 MicroMessenger/6.3.25.861 NetType/WIFI Language/zh_CN'
p259
sg16
S'934126468a48d3b89491eb4e004b75de'
p260
sa(dp261
g2
S'40742'
p262
sg4
S'5062'
p263
sg6
S'c15b4fb8870427e40ce6fa8b87552b74'
p264
sg8
S'xx21b0c6a72737b48bcba91e32a197853f'
p265
sg10
S'xxf5e91a1c43c75a70c163f72442acc408'
p266
sg12
S'xxadd2b655c647ace2ba93a30a87b9a13c'
p267
sg14
S'Mozilla/5.0 (Linux; Android 5.1.1; KIW-TL00H Build/HONORKIW-TL00H) AppleWebKit/537.36 (KHTML, like Gecko) Version/4.0 Chrome/37.0.0.0 Mobile MQQBrowser/6.8 TBS/036849 Safari/537.36 MicroMessenger/6.3.25.861 NetType/WIFI Language/zh_CN'
p268
sg16
S'934126468a48d3b89491eb4e004b75de'
p269
sa.