(lp0
(dp1
S'user_id'
p2
S'27708'
p3
sS'data_id'
p4
S'3866'
p5
sS'ip'
p6
S'838de42e08fce78a82e806600f9f60ba'
p7
sS'phone_B'
p8
S'xx4ae6e075c104c8bb5d9e0ffa06113f0d'
p9
sS'phone_C'
p10
S'xxfbf7e272d57ad783f4b3f39d301e0e66'
p11
sS'phone_A'
p12
S'xxadc7d5f9abe9961154ee19533a565aa0'
p13
sS'user_agent'
p14
S'Mozilla/5.0 (Linux; Android 4.4.2; vivo X5L Build/KOT49H) AppleWebKit/537.36 (KHTML, like Gecko) Version/4.0 Chrome/37.0.0.0 Mobile MQQBrowser/6.8 TBS/036849 Safari/537.36 MicroMessenger/6.3.27.880 NetType/cmnet Language/zh_CN'
p15
sS'ua'
p16
S'153fafa580ff5e4f64eb6cc897101297'
p17
sa(dp18
g2
S'27708'
p19
sg4
S'3883'
p20
sg6
S'838de42e08fce78a82e806600f9f60ba'
p21
sg8
S'xx4ae6e075c104c8bb5d9e0ffa06113f0d'
p22
sg10
S'xxfbf7e272d57ad783f4b3f39d301e0e66'
p23
sg12
S'xxadc7d5f9abe9961154ee19533a565aa0'
p24
sg14
S'Mozilla/5.0 (Linux; Android 4.4.2; vivo X5L Build/KOT49H) AppleWebKit/537.36 (KHTML, like Gecko) Version/4.0 Chrome/37.0.0.0 Mobile MQQBrowser/6.8 TBS/036849 Safari/537.36 MicroMessenger/6.3.27.880 NetType/cmnet Language/zh_CN'
p25
sg16
S'153fafa580ff5e4f64eb6cc897101297'
p26
sa(dp27
g2
S'27708'
p28
sg4
S'3916'
p29
sg6
S'838de42e08fce78a82e806600f9f60ba'
p30
sg8
S'xx4ae6e075c104c8bb5d9e0ffa06113f0d'
p31
sg10
S'xxfbf7e272d57ad783f4b3f39d301e0e66'
p32
sg12
S'xxadc7d5f9abe9961154ee19533a565aa0'
p33
sg14
S'Mozilla/5.0 (Linux; Android 4.4.2; vivo X5L Build/KOT49H) AppleWebKit/537.36 (KHTML, like Gecko) Version/4.0 Chrome/37.0.0.0 Mobile MQQBrowser/6.8 TBS/036849 Safari/537.36 MicroMessenger/6.3.27.880 NetType/cmnet Language/zh_CN'
p34
sg16
S'153fafa580ff5e4f64eb6cc897101297'
p35
sa(dp36
g2
S'27708'
p37
sg4
S'3933'
p38
sg6
S'838de42e08fce78a82e806600f9f60ba'
p39
sg8
S'xx4ae6e075c104c8bb5d9e0ffa06113f0d'
p40
sg10
S'xxfbf7e272d57ad783f4b3f39d301e0e66'
p41
sg12
S'xxadc7d5f9abe9961154ee19533a565aa0'
p42
sg14
S'Mozilla/5.0 (Linux; Android 4.4.2; vivo X5L Build/KOT49H) AppleWebKit/537.36 (KHTML, like Gecko) Version/4.0 Chrome/37.0.0.0 Mobile MQQBrowser/6.8 TBS/036849 Safari/537.36 MicroMessenger/6.3.27.880 NetType/cmnet Language/zh_CN'
p43
sg16
S'153fafa580ff5e4f64eb6cc897101297'
p44
sa(dp45
g2
S'27708'
p46
sg4
S'3952'
p47
sg6
S'838de42e08fce78a82e806600f9f60ba'
p48
sg8
S'xx4ae6e075c104c8bb5d9e0ffa06113f0d'
p49
sg10
S'xxfbf7e272d57ad783f4b3f39d301e0e66'
p50
sg12
S'xxadc7d5f9abe9961154ee19533a565aa0'
p51
sg14
S'Mozilla/5.0 (Linux; Android 4.4.2; vivo X5L Build/KOT49H) AppleWebKit/537.36 (KHTML, like Gecko) Version/4.0 Chrome/37.0.0.0 Mobile MQQBrowser/6.8 TBS/036849 Safari/537.36 MicroMessenger/6.3.27.880 NetType/cmnet Language/zh_CN'
p52
sg16
S'153fafa580ff5e4f64eb6cc897101297'
p53
sa(dp54
g2
S'27708'
p55
sg4
S'4165'
p56
sg6
S'838de42e08fce78a82e806600f9f60ba'
p57
sg8
S'xx4ae6e075c104c8bb5d9e0ffa06113f0d'
p58
sg10
S'xxfbf7e272d57ad783f4b3f39d301e0e66'
p59
sg12
S'xxadc7d5f9abe9961154ee19533a565aa0'
p60
sg14
S'Mozilla/5.0 (Linux; Android 4.4.2; vivo X5L Build/KOT49H) AppleWebKit/537.36 (KHTML, like Gecko) Version/4.0 Chrome/37.0.0.0 Mobile MQQBrowser/6.8 TBS/036849 Safari/537.36 MicroMessenger/6.3.27.880 NetType/cmnet Language/zh_CN'
p61
sg16
S'153fafa580ff5e4f64eb6cc897101297'
p62
sa(dp63
g2
S'27708'
p64
sg4
S'4259'
p65
sg6
S'838de42e08fce78a82e806600f9f60ba'
p66
sg8
S'xx4ae6e075c104c8bb5d9e0ffa06113f0d'
p67
sg10
S'xxfbf7e272d57ad783f4b3f39d301e0e66'
p68
sg12
S'xxadc7d5f9abe9961154ee19533a565aa0'
p69
sg14
S'Mozilla/5.0 (Linux; Android 4.4.2; vivo X5L Build/KOT49H) AppleWebKit/537.36 (KHTML, like Gecko) Version/4.0 Chrome/37.0.0.0 Mobile MQQBrowser/6.8 TBS/036849 Safari/537.36 MicroMessenger/6.3.27.880 NetType/cmnet Language/zh_CN'
p70
sg16
S'153fafa580ff5e4f64eb6cc897101297'
p71
sa(dp72
g2
S'27708'
p73
sg4
S'4272'
p74
sg6
S'838de42e08fce78a82e806600f9f60ba'
p75
sg8
S'xx4ae6e075c104c8bb5d9e0ffa06113f0d'
p76
sg10
S'xxfbf7e272d57ad783f4b3f39d301e0e66'
p77
sg12
S'xxadc7d5f9abe9961154ee19533a565aa0'
p78
sg14
S'Mozilla/5.0 (Linux; Android 4.4.2; vivo X5L Build/KOT49H) AppleWebKit/537.36 (KHTML, like Gecko) Version/4.0 Chrome/37.0.0.0 Mobile MQQBrowser/6.8 TBS/036849 Safari/537.36 MicroMessenger/6.3.27.880 NetType/cmnet Language/zh_CN'
p79
sg16
S'153fafa580ff5e4f64eb6cc897101297'
p80
sa(dp81
g2
S'27708'
p82
sg4
S'4295'
p83
sg6
S'838de42e08fce78a82e806600f9f60ba'
p84
sg8
S'xx4ae6e075c104c8bb5d9e0ffa06113f0d'
p85
sg10
S'xxfbf7e272d57ad783f4b3f39d301e0e66'
p86
sg12
S'xxadc7d5f9abe9961154ee19533a565aa0'
p87
sg14
S'Mozilla/5.0 (Linux; Android 4.4.2; vivo X5L Build/KOT49H) AppleWebKit/537.36 (KHTML, like Gecko) Version/4.0 Chrome/37.0.0.0 Mobile MQQBrowser/6.8 TBS/036849 Safari/537.36 MicroMessenger/6.3.27.880 NetType/cmnet Language/zh_CN'
p88
sg16
S'153fafa580ff5e4f64eb6cc897101297'
p89
sa(dp90
g2
S'27708'
p91
sg4
S'4386'
p92
sg6
S'838de42e08fce78a82e806600f9f60ba'
p93
sg8
S'xx4ae6e075c104c8bb5d9e0ffa06113f0d'
p94
sg10
S'xxfbf7e272d57ad783f4b3f39d301e0e66'
p95
sg12
S'xxadc7d5f9abe9961154ee19533a565aa0'
p96
sg14
S'Mozilla/5.0 (Linux; Android 4.4.2; vivo X5L Build/KOT49H) AppleWebKit/537.36 (KHTML, like Gecko) Version/4.0 Chrome/37.0.0.0 Mobile MQQBrowser/6.8 TBS/036849 Safari/537.36 MicroMessenger/6.3.27.880 NetType/cmnet Language/zh_CN'
p97
sg16
S'153fafa580ff5e4f64eb6cc897101297'
p98
sa(dp99
g2
S'35201'
p100
sg4
S'6671'
p101
sg6
S'37ec7b91655b3c964292df15710fad2a'
p102
sg8
S'xx0e436587fc66159ec46ad6fd67ee3099'
p103
sg10
S'xxfbf7e272d57ad783f4b3f39d301e0e66'
p104
sg12
S'xxadc7d5f9abe9961154ee19533a565aa0'
p105
sg14
S'Mozilla/5.0 (Linux; Android 4.4.2; vivo X5L Build/KOT49H) AppleWebKit/537.36 (KHTML, like Gecko) Version/4.0 Chrome/37.0.0.0 Mobile MQQBrowser/6.8 TBS/036824 Safari/537.36 MicroMessenger/6.3.27.880 NetType/WIFI Language/zh_CN'
p106
sg16
S'd7bf1d8273b9f334a55f5f539b393ed3'
p107
sa(dp108
g2
S'35201'
p109
sg4
S'6692'
p110
sg6
S'37ec7b91655b3c964292df15710fad2a'
p111
sg8
S'xx0e436587fc66159ec46ad6fd67ee3099'
p112
sg10
S'xxfbf7e272d57ad783f4b3f39d301e0e66'
p113
sg12
S'xxadc7d5f9abe9961154ee19533a565aa0'
p114
sg14
S'Mozilla/5.0 (Linux; Android 4.4.2; vivo X5L Build/KOT49H) AppleWebKit/537.36 (KHTML, like Gecko) Version/4.0 Chrome/37.0.0.0 Mobile MQQBrowser/6.8 TBS/036824 Safari/537.36 MicroMessenger/6.3.27.880 NetType/WIFI Language/zh_CN'
p115
sg16
S'd7bf1d8273b9f334a55f5f539b393ed3'
p116
sa(dp117
g2
S'35201'
p118
sg4
S'6713'
p119
sg6
S'37ec7b91655b3c964292df15710fad2a'
p120
sg8
S'xx0e436587fc66159ec46ad6fd67ee3099'
p121
sg10
S'xxfbf7e272d57ad783f4b3f39d301e0e66'
p122
sg12
S'xxadc7d5f9abe9961154ee19533a565aa0'
p123
sg14
S'Mozilla/5.0 (Linux; Android 4.4.2; vivo X5L Build/KOT49H) AppleWebKit/537.36 (KHTML, like Gecko) Version/4.0 Chrome/37.0.0.0 Mobile MQQBrowser/6.8 TBS/036824 Safari/537.36 MicroMessenger/6.3.27.880 NetType/WIFI Language/zh_CN'
p124
sg16
S'd7bf1d8273b9f334a55f5f539b393ed3'
p125
sa(dp126
g2
S'45762'
p127
sg4
S'6941'
p128
sg6
S'6a1c5e0a20f9847e1cee47860af62f72'
p129
sg8
S'xx5a129205d215a52dd5fa7ded8826fe3c'
p130
sg10
S'xxfbf7e272d57ad783f4b3f39d301e0e66'
p131
sg12
S'xxadc7d5f9abe9961154ee19533a565aa0'
p132
sg14
S'Mozilla/5.0 (Linux; Android 4.4.2; vivo X5L Build/KOT49H) AppleWebKit/537.36 (KHTML, like Gecko) Version/4.0 Chrome/37.0.0.0 Mobile MQQBrowser/6.8 TBS/036849 Safari/537.36 MicroMessenger/6.3.27.880 NetType/WIFI Language/zh_CN'
p133
sg16
S'b150b76c9fea11d1f0cc11d405cb52df'
p134
sa(dp135
g2
S'45762'
p136
sg4
S'6953'
p137
sg6
S'6a1c5e0a20f9847e1cee47860af62f72'
p138
sg8
S'xx5a129205d215a52dd5fa7ded8826fe3c'
p139
sg10
S'xxfbf7e272d57ad783f4b3f39d301e0e66'
p140
sg12
S'xxadc7d5f9abe9961154ee19533a565aa0'
p141
sg14
S'Mozilla/5.0 (Linux; Android 4.4.2; vivo X5L Build/KOT49H) AppleWebKit/537.36 (KHTML, like Gecko) Version/4.0 Chrome/37.0.0.0 Mobile MQQBrowser/6.8 TBS/036849 Safari/537.36 MicroMessenger/6.3.27.880 NetType/WIFI Language/zh_CN'
p142
sg16
S'b150b76c9fea11d1f0cc11d405cb52df'
p143
sa(dp144
g2
S'45762'
p145
sg4
S'6966'
p146
sg6
S'6a1c5e0a20f9847e1cee47860af62f72'
p147
sg8
S'xx5a129205d215a52dd5fa7ded8826fe3c'
p148
sg10
S'xxfbf7e272d57ad783f4b3f39d301e0e66'
p149
sg12
S'xxadc7d5f9abe9961154ee19533a565aa0'
p150
sg14
S'Mozilla/5.0 (Linux; Android 4.4.2; vivo X5L Build/KOT49H) AppleWebKit/537.36 (KHTML, like Gecko) Version/4.0 Chrome/37.0.0.0 Mobile MQQBrowser/6.8 TBS/036849 Safari/537.36 MicroMessenger/6.3.27.880 NetType/WIFI Language/zh_CN'
p151
sg16
S'b150b76c9fea11d1f0cc11d405cb52df'
p152
sa(dp153
g2
S'45762'
p154
sg4
S'6980'
p155
sg6
S'6a1c5e0a20f9847e1cee47860af62f72'
p156
sg8
S'xx5a129205d215a52dd5fa7ded8826fe3c'
p157
sg10
S'xxfbf7e272d57ad783f4b3f39d301e0e66'
p158
sg12
S'xxadc7d5f9abe9961154ee19533a565aa0'
p159
sg14
S'Mozilla/5.0 (Linux; Android 4.4.2; vivo X5L Build/KOT49H) AppleWebKit/537.36 (KHTML, like Gecko) Version/4.0 Chrome/37.0.0.0 Mobile MQQBrowser/6.8 TBS/036849 Safari/537.36 MicroMessenger/6.3.27.880 NetType/WIFI Language/zh_CN'
p160
sg16
S'b150b76c9fea11d1f0cc11d405cb52df'
p161
sa(dp162
g2
S'45762'
p163
sg4
S'6997'
p164
sg6
S'6a1c5e0a20f9847e1cee47860af62f72'
p165
sg8
S'xx5a129205d215a52dd5fa7ded8826fe3c'
p166
sg10
S'xxfbf7e272d57ad783f4b3f39d301e0e66'
p167
sg12
S'xxadc7d5f9abe9961154ee19533a565aa0'
p168
sg14
S'Mozilla/5.0 (Linux; Android 4.4.2; vivo X5L Build/KOT49H) AppleWebKit/537.36 (KHTML, like Gecko) Version/4.0 Chrome/37.0.0.0 Mobile MQQBrowser/6.8 TBS/036849 Safari/537.36 MicroMessenger/6.3.27.880 NetType/WIFI Language/zh_CN'
p169
sg16
S'b150b76c9fea11d1f0cc11d405cb52df'
p170
sa(dp171
g2
S'45762'
p172
sg4
S'7012'
p173
sg6
S'6a1c5e0a20f9847e1cee47860af62f72'
p174
sg8
S'xx5a129205d215a52dd5fa7ded8826fe3c'
p175
sg10
S'xxfbf7e272d57ad783f4b3f39d301e0e66'
p176
sg12
S'xxadc7d5f9abe9961154ee19533a565aa0'
p177
sg14
S'Mozilla/5.0 (Linux; Android 4.4.2; vivo X5L Build/KOT49H) AppleWebKit/537.36 (KHTML, like Gecko) Version/4.0 Chrome/37.0.0.0 Mobile MQQBrowser/6.8 TBS/036849 Safari/537.36 MicroMessenger/6.3.27.880 NetType/WIFI Language/zh_CN'
p178
sg16
S'b150b76c9fea11d1f0cc11d405cb52df'
p179
sa(dp180
g2
S'45762'
p181
sg4
S'7031'
p182
sg6
S'6a1c5e0a20f9847e1cee47860af62f72'
p183
sg8
S'xx5a129205d215a52dd5fa7ded8826fe3c'
p184
sg10
S'xxfbf7e272d57ad783f4b3f39d301e0e66'
p185
sg12
S'xxadc7d5f9abe9961154ee19533a565aa0'
p186
sg14
S'Mozilla/5.0 (Linux; Android 4.4.2; vivo X5L Build/KOT49H) AppleWebKit/537.36 (KHTML, like Gecko) Version/4.0 Chrome/37.0.0.0 Mobile MQQBrowser/6.8 TBS/036849 Safari/537.36 MicroMessenger/6.3.27.880 NetType/WIFI Language/zh_CN'
p187
sg16
S'b150b76c9fea11d1f0cc11d405cb52df'
p188
sa(dp189
g2
S'45762'
p190
sg4
S'7059'
p191
sg6
S'6a1c5e0a20f9847e1cee47860af62f72'
p192
sg8
S'xx5a129205d215a52dd5fa7ded8826fe3c'
p193
sg10
S'xxfbf7e272d57ad783f4b3f39d301e0e66'
p194
sg12
S'xxadc7d5f9abe9961154ee19533a565aa0'
p195
sg14
S'Mozilla/5.0 (Linux; Android 4.4.2; vivo X5L Build/KOT49H) AppleWebKit/537.36 (KHTML, like Gecko) Version/4.0 Chrome/37.0.0.0 Mobile MQQBrowser/6.8 TBS/036849 Safari/537.36 MicroMessenger/6.3.27.880 NetType/WIFI Language/zh_CN'
p196
sg16
S'b150b76c9fea11d1f0cc11d405cb52df'
p197
sa.