(lp0
(dp1
S'user_id'
p2
S'5320'
p3
sS'data_id'
p4
S'3036'
p5
sS'ip'
p6
S'c17e96ac34d43b5a75b94e6c10c2580f'
p7
sS'phone_B'
p8
S'xx67d3a86072478f28921e011cdbefa470'
p9
sS'phone_C'
p10
S'xxab6216120e552f8197d38ba318eaba7c'
p11
sS'phone_A'
p12
S'xxadbe3de0af4465f073259d61eee05e1b'
p13
sS'user_agent'
p14
S'Mozilla/5.0 (Linux; Android 6.0; Le X620 Build/HEXCNFN5801607142S) AppleWebKit/537.36 (KHTML, like Gecko) Version/4.0 Chrome/37.0.0.0 Mobile MQQBrowser/6.8 TBS/036849 Safari/537.36 MicroMessenger/6.3.27.880 NetType/WIFI Language/zh_CN'
p15
sS'ua'
p16
S'275c8dc6b62e1b0a0e2aae63d5061172'
p17
sa(dp18
g2
S'5320'
p19
sg4
S'4256'
p20
sg6
S'c17e96ac34d43b5a75b94e6c10c2580f'
p21
sg8
S'xx67d3a86072478f28921e011cdbefa470'
p22
sg10
S'xxab6216120e552f8197d38ba318eaba7c'
p23
sg12
S'xxadbe3de0af4465f073259d61eee05e1b'
p24
sg14
S'Mozilla/5.0 (Linux; Android 6.0; Le X620 Build/HEXCNFN5801607142S) AppleWebKit/537.36 (KHTML, like Gecko) Version/4.0 Chrome/37.0.0.0 Mobile MQQBrowser/6.8 TBS/036849 Safari/537.36 MicroMessenger/6.3.27.880 NetType/WIFI Language/zh_CN'
p25
sg16
S'275c8dc6b62e1b0a0e2aae63d5061172'
p26
sa(dp27
g2
S'5320'
p28
sg4
S'4279'
p29
sg6
S'c17e96ac34d43b5a75b94e6c10c2580f'
p30
sg8
S'xx67d3a86072478f28921e011cdbefa470'
p31
sg10
S'xxab6216120e552f8197d38ba318eaba7c'
p32
sg12
S'xxadbe3de0af4465f073259d61eee05e1b'
p33
sg14
S'Mozilla/5.0 (Linux; Android 6.0; Le X620 Build/HEXCNFN5801607142S) AppleWebKit/537.36 (KHTML, like Gecko) Version/4.0 Chrome/37.0.0.0 Mobile MQQBrowser/6.8 TBS/036849 Safari/537.36 MicroMessenger/6.3.27.880 NetType/WIFI Language/zh_CN'
p34
sg16
S'275c8dc6b62e1b0a0e2aae63d5061172'
p35
sa.