(lp0
(dp1
S'user_id'
p2
S'36619'
p3
sS'data_id'
p4
S'5181'
p5
sS'ip'
p6
S'031fa0c2a5151c69be2ddcd87198bd1f'
p7
sS'phone_B'
p8
S'xx276936c697f3c29d2c517a4aafed20b3'
p9
sS'phone_C'
p10
S'xx79f654a8898b6450b479f988d4812d0d'
p11
sS'phone_A'
p12
S'xxaef95d96dab2876136b94e5a2094bdac'
p13
sS'user_agent'
p14
S'Mozilla/5.0 (Linux; Android 5.1; lephone T2V Build/LMY47D) AppleWebKit/537.36 (KHTML, like Gecko) Version/4.0 Chrome/37.0.0.0 Mobile MQQBrowser/6.8 TBS/036849 Safari/537.36 MicroMessenger/6.3.27.880 NetType/WIFI Language/zh_CN'
p15
sS'ua'
p16
S'fd81e711bee522293421029e7cd2703c'
p17
sa(dp18
g2
S'36619'
p19
sg4
S'5199'
p20
sg6
S'031fa0c2a5151c69be2ddcd87198bd1f'
p21
sg8
S'xx276936c697f3c29d2c517a4aafed20b3'
p22
sg10
S'xx79f654a8898b6450b479f988d4812d0d'
p23
sg12
S'xxaef95d96dab2876136b94e5a2094bdac'
p24
sg14
S'Mozilla/5.0 (Linux; Android 5.1; lephone T2V Build/LMY47D) AppleWebKit/537.36 (KHTML, like Gecko) Version/4.0 Chrome/37.0.0.0 Mobile MQQBrowser/6.8 TBS/036849 Safari/537.36 MicroMessenger/6.3.27.880 NetType/WIFI Language/zh_CN'
p25
sg16
S'fd81e711bee522293421029e7cd2703c'
p26
sa.