(lp0
(dp1
S'user_id'
p2
S'33207'
p3
sS'data_id'
p4
S'191'
p5
sS'ip'
p6
S'71a5cb77f047009749ba3db533fa0732'
p7
sS'phone_B'
p8
S'xx9072fc1167b716fbb7d93e21726faeab'
p9
sS'phone_C'
p10
S'xxd2d1322c94225bf72057c5e674c3ab14'
p11
sS'phone_A'
p12
S'xxaf63fe8296b1da6e5ea7580dda2522b3'
p13
sS'user_agent'
p14
S'Mozilla/5.0 (Linux; Android 5.0.2; F103 Build/LRX21M) AppleWebKit/537.36 (KHTML, like Gecko) Version/4.0 Chrome/37.0.0.0 Mobile MQQBrowser/6.8 TBS/036849 Safari/537.36 MicroMessenger/6.3.27.880 NetType/WIFI Language/zh_CN'
p15
sS'ua'
p16
S'3ea0af991a0efede943042bbdc8a765e'
p17
sa(dp18
g2
S'33207'
p19
sg4
S'203'
p20
sg6
S'71a5cb77f047009749ba3db533fa0732'
p21
sg8
S'xx9072fc1167b716fbb7d93e21726faeab'
p22
sg10
S'xxd2d1322c94225bf72057c5e674c3ab14'
p23
sg12
S'xxaf63fe8296b1da6e5ea7580dda2522b3'
p24
sg14
S'Mozilla/5.0 (Linux; Android 5.0.2; F103 Build/LRX21M) AppleWebKit/537.36 (KHTML, like Gecko) Version/4.0 Chrome/37.0.0.0 Mobile MQQBrowser/6.8 TBS/036849 Safari/537.36 MicroMessenger/6.3.27.880 NetType/WIFI Language/zh_CN'
p25
sg16
S'3ea0af991a0efede943042bbdc8a765e'
p26
sa(dp27
g2
S'28887'
p28
sg4
S'329'
p29
sg6
S'f7de61920d27c07b3c2562f2a7224151'
p30
sg8
S'xx0b1018e3baa26e91a5e25df850a4ca5f'
p31
sg10
S'xxd2d1322c94225bf72057c5e674c3ab14'
p32
sg12
S'xxaf63fe8296b1da6e5ea7580dda2522b3'
p33
sg14
S'Mozilla/5.0 (Linux; Android 5.0; F103 Build/LRX21M) AppleWebKit/537.36 (KHTML, like Gecko) Version/4.0 Chrome/37.0.0.0 Mobile MQQBrowser/6.8 TBS/036849 Safari/537.36 MicroMessenger/6.3.27.880 NetType/WIFI Language/zh_CN'
p34
sg16
S'b68cfa1c03482b59fb4ef2400dc026d9'
p35
sa(dp36
g2
S'28887'
p37
sg4
S'346'
p38
sg6
S'f7de61920d27c07b3c2562f2a7224151'
p39
sg8
S'xx0b1018e3baa26e91a5e25df850a4ca5f'
p40
sg10
S'xxd2d1322c94225bf72057c5e674c3ab14'
p41
sg12
S'xxaf63fe8296b1da6e5ea7580dda2522b3'
p42
sg14
S'Mozilla/5.0 (Linux; Android 5.0; F103 Build/LRX21M) AppleWebKit/537.36 (KHTML, like Gecko) Version/4.0 Chrome/37.0.0.0 Mobile MQQBrowser/6.8 TBS/036849 Safari/537.36 MicroMessenger/6.3.27.880 NetType/WIFI Language/zh_CN'
p43
sg16
S'b68cfa1c03482b59fb4ef2400dc026d9'
p44
sa(dp45
g2
S'28894'
p46
sg4
S'1201'
p47
sg6
S'f7de61920d27c07b3c2562f2a7224151'
p48
sg8
S'xx0b1018e3baa26e91a5e25df850a4ca5f'
p49
sg10
S'xxd2d1322c94225bf72057c5e674c3ab14'
p50
sg12
S'xxaf63fe8296b1da6e5ea7580dda2522b3'
p51
sg14
S'Mozilla/5.0 (Linux; Android 5.0; F103 Build/LRX21M) AppleWebKit/537.36 (KHTML, like Gecko) Version/4.0 Chrome/37.0.0.0 Mobile MQQBrowser/6.8 TBS/036849 Safari/537.36 MicroMessenger/6.3.27.880 NetType/WIFI Language/zh_CN'
p52
sg16
S'b68cfa1c03482b59fb4ef2400dc026d9'
p53
sa(dp54
g2
S'28894'
p55
sg4
S'1215'
p56
sg6
S'f7de61920d27c07b3c2562f2a7224151'
p57
sg8
S'xx0b1018e3baa26e91a5e25df850a4ca5f'
p58
sg10
S'xxd2d1322c94225bf72057c5e674c3ab14'
p59
sg12
S'xxaf63fe8296b1da6e5ea7580dda2522b3'
p60
sg14
S'Mozilla/5.0 (Linux; Android 5.0; F103 Build/LRX21M) AppleWebKit/537.36 (KHTML, like Gecko) Version/4.0 Chrome/37.0.0.0 Mobile MQQBrowser/6.8 TBS/036849 Safari/537.36 MicroMessenger/6.3.27.880 NetType/WIFI Language/zh_CN'
p61
sg16
S'b68cfa1c03482b59fb4ef2400dc026d9'
p62
sa(dp63
g2
S'6980'
p64
sg4
S'1268'
p65
sg6
S'e09a4ca88c4f81a187d9076cef23bd0e'
p66
sg8
S'xx15960b4eca210cab8ca39ee68d608036'
p67
sg10
S'xxd2d1322c94225bf72057c5e674c3ab14'
p68
sg12
S'xxaf63fe8296b1da6e5ea7580dda2522b3'
p69
sg14
S'Mozilla/5.0 (Linux; Android 5.0.2; F103 Build/LRX21M) AppleWebKit/537.36 (KHTML, like Gecko) Version/4.0 Chrome/37.0.0.0 Mobile MQQBrowser/6.8 TBS/036849 Safari/537.36 MicroMessenger/6.3.27.880 NetType/cmnet Language/zh_CN'
p70
sg16
S'9a2f02362c3ae9efbc406bb4503032d8'
p71
sa(dp72
g2
S'6980'
p73
sg4
S'1737'
p74
sg6
S'e09a4ca88c4f81a187d9076cef23bd0e'
p75
sg8
S'xx15960b4eca210cab8ca39ee68d608036'
p76
sg10
S'xxd2d1322c94225bf72057c5e674c3ab14'
p77
sg12
S'xxaf63fe8296b1da6e5ea7580dda2522b3'
p78
sg14
S'Mozilla/5.0 (Linux; Android 5.0.2; F103 Build/LRX21M) AppleWebKit/537.36 (KHTML, like Gecko) Version/4.0 Chrome/37.0.0.0 Mobile MQQBrowser/6.8 TBS/036849 Safari/537.36 MicroMessenger/6.3.27.880 NetType/cmnet Language/zh_CN'
p79
sg16
S'9a2f02362c3ae9efbc406bb4503032d8'
p80
sa(dp81
g2
S'6980'
p82
sg4
S'1755'
p83
sg6
S'e09a4ca88c4f81a187d9076cef23bd0e'
p84
sg8
S'xx15960b4eca210cab8ca39ee68d608036'
p85
sg10
S'xxd2d1322c94225bf72057c5e674c3ab14'
p86
sg12
S'xxaf63fe8296b1da6e5ea7580dda2522b3'
p87
sg14
S'Mozilla/5.0 (Linux; Android 5.0.2; F103 Build/LRX21M) AppleWebKit/537.36 (KHTML, like Gecko) Version/4.0 Chrome/37.0.0.0 Mobile MQQBrowser/6.8 TBS/036849 Safari/537.36 MicroMessenger/6.3.27.880 NetType/cmnet Language/zh_CN'
p88
sg16
S'9a2f02362c3ae9efbc406bb4503032d8'
p89
sa(dp90
g2
S'6980'
p91
sg4
S'1834'
p92
sg6
S'e09a4ca88c4f81a187d9076cef23bd0e'
p93
sg8
S'xx15960b4eca210cab8ca39ee68d608036'
p94
sg10
S'xxd2d1322c94225bf72057c5e674c3ab14'
p95
sg12
S'xxaf63fe8296b1da6e5ea7580dda2522b3'
p96
sg14
S'Mozilla/5.0 (Linux; Android 5.0.2; F103 Build/LRX21M) AppleWebKit/537.36 (KHTML, like Gecko) Version/4.0 Chrome/37.0.0.0 Mobile MQQBrowser/6.8 TBS/036849 Safari/537.36 MicroMessenger/6.3.27.880 NetType/cmnet Language/zh_CN'
p97
sg16
S'9a2f02362c3ae9efbc406bb4503032d8'
p98
sa(dp99
g2
S'6980'
p100
sg4
S'1841'
p101
sg6
S'e09a4ca88c4f81a187d9076cef23bd0e'
p102
sg8
S'xx15960b4eca210cab8ca39ee68d608036'
p103
sg10
S'xxd2d1322c94225bf72057c5e674c3ab14'
p104
sg12
S'xxaf63fe8296b1da6e5ea7580dda2522b3'
p105
sg14
S'Mozilla/5.0 (Linux; Android 5.0.2; F103 Build/LRX21M) AppleWebKit/537.36 (KHTML, like Gecko) Version/4.0 Chrome/37.0.0.0 Mobile MQQBrowser/6.8 TBS/036849 Safari/537.36 MicroMessenger/6.3.27.880 NetType/cmnet Language/zh_CN'
p106
sg16
S'9a2f02362c3ae9efbc406bb4503032d8'
p107
sa(dp108
g2
S'6980'
p109
sg4
S'1848'
p110
sg6
S'e09a4ca88c4f81a187d9076cef23bd0e'
p111
sg8
S'xx15960b4eca210cab8ca39ee68d608036'
p112
sg10
S'xxd2d1322c94225bf72057c5e674c3ab14'
p113
sg12
S'xxaf63fe8296b1da6e5ea7580dda2522b3'
p114
sg14
S'Mozilla/5.0 (Linux; Android 5.0.2; F103 Build/LRX21M) AppleWebKit/537.36 (KHTML, like Gecko) Version/4.0 Chrome/37.0.0.0 Mobile MQQBrowser/6.8 TBS/036849 Safari/537.36 MicroMessenger/6.3.27.880 NetType/cmnet Language/zh_CN'
p115
sg16
S'9a2f02362c3ae9efbc406bb4503032d8'
p116
sa(dp117
g2
S'6980'
p118
sg4
S'1865'
p119
sg6
S'e09a4ca88c4f81a187d9076cef23bd0e'
p120
sg8
S'xx15960b4eca210cab8ca39ee68d608036'
p121
sg10
S'xxd2d1322c94225bf72057c5e674c3ab14'
p122
sg12
S'xxaf63fe8296b1da6e5ea7580dda2522b3'
p123
sg14
S'Mozilla/5.0 (Linux; Android 5.0.2; F103 Build/LRX21M) AppleWebKit/537.36 (KHTML, like Gecko) Version/4.0 Chrome/37.0.0.0 Mobile MQQBrowser/6.8 TBS/036849 Safari/537.36 MicroMessenger/6.3.27.880 NetType/cmnet Language/zh_CN'
p124
sg16
S'9a2f02362c3ae9efbc406bb4503032d8'
p125
sa(dp126
g2
S'6980'
p127
sg4
S'1875'
p128
sg6
S'e09a4ca88c4f81a187d9076cef23bd0e'
p129
sg8
S'xx15960b4eca210cab8ca39ee68d608036'
p130
sg10
S'xxd2d1322c94225bf72057c5e674c3ab14'
p131
sg12
S'xxaf63fe8296b1da6e5ea7580dda2522b3'
p132
sg14
S'Mozilla/5.0 (Linux; Android 5.0.2; F103 Build/LRX21M) AppleWebKit/537.36 (KHTML, like Gecko) Version/4.0 Chrome/37.0.0.0 Mobile MQQBrowser/6.8 TBS/036849 Safari/537.36 MicroMessenger/6.3.27.880 NetType/cmnet Language/zh_CN'
p133
sg16
S'9a2f02362c3ae9efbc406bb4503032d8'
p134
sa(dp135
g2
S'6980'
p136
sg4
S'1892'
p137
sg6
S'e09a4ca88c4f81a187d9076cef23bd0e'
p138
sg8
S'xx15960b4eca210cab8ca39ee68d608036'
p139
sg10
S'xxd2d1322c94225bf72057c5e674c3ab14'
p140
sg12
S'xxaf63fe8296b1da6e5ea7580dda2522b3'
p141
sg14
S'Mozilla/5.0 (Linux; Android 5.0.2; F103 Build/LRX21M) AppleWebKit/537.36 (KHTML, like Gecko) Version/4.0 Chrome/37.0.0.0 Mobile MQQBrowser/6.8 TBS/036849 Safari/537.36 MicroMessenger/6.3.27.880 NetType/cmnet Language/zh_CN'
p142
sg16
S'9a2f02362c3ae9efbc406bb4503032d8'
p143
sa(dp144
g2
S'6980'
p145
sg4
S'2050'
p146
sg6
S'e09a4ca88c4f81a187d9076cef23bd0e'
p147
sg8
S'xx15960b4eca210cab8ca39ee68d608036'
p148
sg10
S'xxd2d1322c94225bf72057c5e674c3ab14'
p149
sg12
S'xxaf63fe8296b1da6e5ea7580dda2522b3'
p150
sg14
S'Mozilla/5.0 (Linux; Android 5.0.2; F103 Build/LRX21M) AppleWebKit/537.36 (KHTML, like Gecko) Version/4.0 Chrome/37.0.0.0 Mobile MQQBrowser/6.8 TBS/036849 Safari/537.36 MicroMessenger/6.3.27.880 NetType/cmnet Language/zh_CN'
p151
sg16
S'9a2f02362c3ae9efbc406bb4503032d8'
p152
sa(dp153
g2
S'6980'
p154
sg4
S'2061'
p155
sg6
S'e09a4ca88c4f81a187d9076cef23bd0e'
p156
sg8
S'xx15960b4eca210cab8ca39ee68d608036'
p157
sg10
S'xxd2d1322c94225bf72057c5e674c3ab14'
p158
sg12
S'xxaf63fe8296b1da6e5ea7580dda2522b3'
p159
sg14
S'Mozilla/5.0 (Linux; Android 5.0.2; F103 Build/LRX21M) AppleWebKit/537.36 (KHTML, like Gecko) Version/4.0 Chrome/37.0.0.0 Mobile MQQBrowser/6.8 TBS/036849 Safari/537.36 MicroMessenger/6.3.27.880 NetType/cmnet Language/zh_CN'
p160
sg16
S'9a2f02362c3ae9efbc406bb4503032d8'
p161
sa(dp162
g2
S'6980'
p163
sg4
S'2079'
p164
sg6
S'e09a4ca88c4f81a187d9076cef23bd0e'
p165
sg8
S'xx15960b4eca210cab8ca39ee68d608036'
p166
sg10
S'xxd2d1322c94225bf72057c5e674c3ab14'
p167
sg12
S'xxaf63fe8296b1da6e5ea7580dda2522b3'
p168
sg14
S'Mozilla/5.0 (Linux; Android 5.0.2; F103 Build/LRX21M) AppleWebKit/537.36 (KHTML, like Gecko) Version/4.0 Chrome/37.0.0.0 Mobile MQQBrowser/6.8 TBS/036849 Safari/537.36 MicroMessenger/6.3.27.880 NetType/cmnet Language/zh_CN'
p169
sg16
S'9a2f02362c3ae9efbc406bb4503032d8'
p170
sa(dp171
g2
S'6980'
p172
sg4
S'2094'
p173
sg6
S'e09a4ca88c4f81a187d9076cef23bd0e'
p174
sg8
S'xx15960b4eca210cab8ca39ee68d608036'
p175
sg10
S'xxd2d1322c94225bf72057c5e674c3ab14'
p176
sg12
S'xxaf63fe8296b1da6e5ea7580dda2522b3'
p177
sg14
S'Mozilla/5.0 (Linux; Android 5.0.2; F103 Build/LRX21M) AppleWebKit/537.36 (KHTML, like Gecko) Version/4.0 Chrome/37.0.0.0 Mobile MQQBrowser/6.8 TBS/036849 Safari/537.36 MicroMessenger/6.3.27.880 NetType/cmnet Language/zh_CN'
p178
sg16
S'9a2f02362c3ae9efbc406bb4503032d8'
p179
sa(dp180
g2
S'6980'
p181
sg4
S'2109'
p182
sg6
S'e09a4ca88c4f81a187d9076cef23bd0e'
p183
sg8
S'xx15960b4eca210cab8ca39ee68d608036'
p184
sg10
S'xxd2d1322c94225bf72057c5e674c3ab14'
p185
sg12
S'xxaf63fe8296b1da6e5ea7580dda2522b3'
p186
sg14
S'Mozilla/5.0 (Linux; Android 5.0.2; F103 Build/LRX21M) AppleWebKit/537.36 (KHTML, like Gecko) Version/4.0 Chrome/37.0.0.0 Mobile MQQBrowser/6.8 TBS/036849 Safari/537.36 MicroMessenger/6.3.27.880 NetType/cmnet Language/zh_CN'
p187
sg16
S'9a2f02362c3ae9efbc406bb4503032d8'
p188
sa(dp189
g2
S'6980'
p190
sg4
S'2122'
p191
sg6
S'e09a4ca88c4f81a187d9076cef23bd0e'
p192
sg8
S'xx15960b4eca210cab8ca39ee68d608036'
p193
sg10
S'xxd2d1322c94225bf72057c5e674c3ab14'
p194
sg12
S'xxaf63fe8296b1da6e5ea7580dda2522b3'
p195
sg14
S'Mozilla/5.0 (Linux; Android 5.0.2; F103 Build/LRX21M) AppleWebKit/537.36 (KHTML, like Gecko) Version/4.0 Chrome/37.0.0.0 Mobile MQQBrowser/6.8 TBS/036849 Safari/537.36 MicroMessenger/6.3.27.880 NetType/cmnet Language/zh_CN'
p196
sg16
S'9a2f02362c3ae9efbc406bb4503032d8'
p197
sa(dp198
g2
S'6980'
p199
sg4
S'2133'
p200
sg6
S'e09a4ca88c4f81a187d9076cef23bd0e'
p201
sg8
S'xx15960b4eca210cab8ca39ee68d608036'
p202
sg10
S'xxd2d1322c94225bf72057c5e674c3ab14'
p203
sg12
S'xxaf63fe8296b1da6e5ea7580dda2522b3'
p204
sg14
S'Mozilla/5.0 (Linux; Android 5.0.2; F103 Build/LRX21M) AppleWebKit/537.36 (KHTML, like Gecko) Version/4.0 Chrome/37.0.0.0 Mobile MQQBrowser/6.8 TBS/036849 Safari/537.36 MicroMessenger/6.3.27.880 NetType/cmnet Language/zh_CN'
p205
sg16
S'9a2f02362c3ae9efbc406bb4503032d8'
p206
sa(dp207
g2
S'6980'
p208
sg4
S'2141'
p209
sg6
S'e09a4ca88c4f81a187d9076cef23bd0e'
p210
sg8
S'xx15960b4eca210cab8ca39ee68d608036'
p211
sg10
S'xxd2d1322c94225bf72057c5e674c3ab14'
p212
sg12
S'xxaf63fe8296b1da6e5ea7580dda2522b3'
p213
sg14
S'Mozilla/5.0 (Linux; Android 5.0.2; F103 Build/LRX21M) AppleWebKit/537.36 (KHTML, like Gecko) Version/4.0 Chrome/37.0.0.0 Mobile MQQBrowser/6.8 TBS/036849 Safari/537.36 MicroMessenger/6.3.27.880 NetType/cmnet Language/zh_CN'
p214
sg16
S'9a2f02362c3ae9efbc406bb4503032d8'
p215
sa(dp216
g2
S'6980'
p217
sg4
S'2151'
p218
sg6
S'e09a4ca88c4f81a187d9076cef23bd0e'
p219
sg8
S'xx15960b4eca210cab8ca39ee68d608036'
p220
sg10
S'xxd2d1322c94225bf72057c5e674c3ab14'
p221
sg12
S'xxaf63fe8296b1da6e5ea7580dda2522b3'
p222
sg14
S'Mozilla/5.0 (Linux; Android 5.0.2; F103 Build/LRX21M) AppleWebKit/537.36 (KHTML, like Gecko) Version/4.0 Chrome/37.0.0.0 Mobile MQQBrowser/6.8 TBS/036849 Safari/537.36 MicroMessenger/6.3.27.880 NetType/cmnet Language/zh_CN'
p223
sg16
S'9a2f02362c3ae9efbc406bb4503032d8'
p224
sa(dp225
g2
S'6980'
p226
sg4
S'2157'
p227
sg6
S'e09a4ca88c4f81a187d9076cef23bd0e'
p228
sg8
S'xx15960b4eca210cab8ca39ee68d608036'
p229
sg10
S'xxd2d1322c94225bf72057c5e674c3ab14'
p230
sg12
S'xxaf63fe8296b1da6e5ea7580dda2522b3'
p231
sg14
S'Mozilla/5.0 (Linux; Android 5.0.2; F103 Build/LRX21M) AppleWebKit/537.36 (KHTML, like Gecko) Version/4.0 Chrome/37.0.0.0 Mobile MQQBrowser/6.8 TBS/036849 Safari/537.36 MicroMessenger/6.3.27.880 NetType/cmnet Language/zh_CN'
p232
sg16
S'9a2f02362c3ae9efbc406bb4503032d8'
p233
sa(dp234
g2
S'30474'
p235
sg4
S'2732'
p236
sg6
S'5d46bd510df8e12954dc9ce0b6b18ebe'
p237
sg8
S'xx60b0da6ce7ce23af2e514da8180386d0'
p238
sg10
S'xxd2d1322c94225bf72057c5e674c3ab14'
p239
sg12
S'xxaf63fe8296b1da6e5ea7580dda2522b3'
p240
sg14
S'Mozilla/5.0 (Linux; Android 5.0; F103 Build/LRX21M) AppleWebKit/537.36 (KHTML, like Gecko) Version/4.0 Chrome/37.0.0.0 Mobile MQQBrowser/6.8 TBS/036865 Safari/537.36 MicroMessenger/6.3.27.880 NetType/WIFI Language/zh_CN'
p241
sg16
S'4a36abc31de19170df88ad6ae6afc6b5'
p242
sa(dp243
g2
S'30474'
p244
sg4
S'2752'
p245
sg6
S'5d46bd510df8e12954dc9ce0b6b18ebe'
p246
sg8
S'xx60b0da6ce7ce23af2e514da8180386d0'
p247
sg10
S'xxd2d1322c94225bf72057c5e674c3ab14'
p248
sg12
S'xxaf63fe8296b1da6e5ea7580dda2522b3'
p249
sg14
S'Mozilla/5.0 (Linux; Android 5.0; F103 Build/LRX21M) AppleWebKit/537.36 (KHTML, like Gecko) Version/4.0 Chrome/37.0.0.0 Mobile MQQBrowser/6.8 TBS/036865 Safari/537.36 MicroMessenger/6.3.27.880 NetType/WIFI Language/zh_CN'
p250
sg16
S'4a36abc31de19170df88ad6ae6afc6b5'
p251
sa(dp252
g2
S'48488'
p253
sg4
S'2988'
p254
sg6
S'ffa598e601fb6d42317babdd99e9dbcd'
p255
sg8
S'xxd13b4b452c67135139360dc45a496e86'
p256
sg10
S'xx57b8748256ca48c6952a08f822e74030'
p257
sg12
S'xxaf63fe8296b1da6e5ea7580dda2522b3'
p258
sg14
S'Mozilla/5.0 (Linux; Android 5.0; F103 Build/LRX21M) AppleWebKit/537.36 (KHTML, like Gecko) Version/4.0 Chrome/37.0.0.0 Mobile MQQBrowser/6.8 TBS/036814 Safari/537.36 MicroMessenger/6.3.27.880 NetType/WIFI Language/zh_CN'
p259
sg16
S'c8c3aa5a4d003c505b52e92b084914bb'
p260
sa(dp261
g2
S'28208'
p262
sg4
S'3433'
p263
sg6
S'03058ff25b1b7f26625c3e6dad07f9c3'
p264
sg8
S'xxae0f32a4d854bf51d41ba93b60e1bd12'
p265
sg10
S'xxd2d1322c94225bf72057c5e674c3ab14'
p266
sg12
S'xxaf63fe8296b1da6e5ea7580dda2522b3'
p267
sg14
S'Mozilla/5.0 (Linux; Android 5.0.2; F103 Build/LRX21M) AppleWebKit/537.36 (KHTML, like Gecko) Version/4.0 Chrome/37.0.0.0 Mobile MQQBrowser/6.8 TBS/036865 Safari/537.36 MicroMessenger/6.3.25.861 NetType/WIFI Language/zh_CN'
p268
sg16
S'e206d913a607fd29f291b661976d0894'
p269
sa(dp270
g2
S'28208'
p271
sg4
S'3449'
p272
sg6
S'03058ff25b1b7f26625c3e6dad07f9c3'
p273
sg8
S'xxae0f32a4d854bf51d41ba93b60e1bd12'
p274
sg10
S'xxd2d1322c94225bf72057c5e674c3ab14'
p275
sg12
S'xxaf63fe8296b1da6e5ea7580dda2522b3'
p276
sg14
S'Mozilla/5.0 (Linux; Android 5.0.2; F103 Build/LRX21M) AppleWebKit/537.36 (KHTML, like Gecko) Version/4.0 Chrome/37.0.0.0 Mobile MQQBrowser/6.8 TBS/036865 Safari/537.36 MicroMessenger/6.3.25.861 NetType/WIFI Language/zh_CN'
p277
sg16
S'e206d913a607fd29f291b661976d0894'
p278
sa(dp279
g2
S'28208'
p280
sg4
S'3469'
p281
sg6
S'03058ff25b1b7f26625c3e6dad07f9c3'
p282
sg8
S'xxae0f32a4d854bf51d41ba93b60e1bd12'
p283
sg10
S'xxd2d1322c94225bf72057c5e674c3ab14'
p284
sg12
S'xxaf63fe8296b1da6e5ea7580dda2522b3'
p285
sg14
S'Mozilla/5.0 (Linux; Android 5.0.2; F103 Build/LRX21M) AppleWebKit/537.36 (KHTML, like Gecko) Version/4.0 Chrome/37.0.0.0 Mobile MQQBrowser/6.8 TBS/036865 Safari/537.36 MicroMessenger/6.3.25.861 NetType/WIFI Language/zh_CN'
p286
sg16
S'e206d913a607fd29f291b661976d0894'
p287
sa(dp288
g2
S'28208'
p289
sg4
S'3489'
p290
sg6
S'03058ff25b1b7f26625c3e6dad07f9c3'
p291
sg8
S'xxae0f32a4d854bf51d41ba93b60e1bd12'
p292
sg10
S'xxd2d1322c94225bf72057c5e674c3ab14'
p293
sg12
S'xxaf63fe8296b1da6e5ea7580dda2522b3'
p294
sg14
S'Mozilla/5.0 (Linux; Android 5.0.2; F103 Build/LRX21M) AppleWebKit/537.36 (KHTML, like Gecko) Version/4.0 Chrome/37.0.0.0 Mobile MQQBrowser/6.8 TBS/036865 Safari/537.36 MicroMessenger/6.3.25.861 NetType/WIFI Language/zh_CN'
p295
sg16
S'e206d913a607fd29f291b661976d0894'
p296
sa(dp297
g2
S'28208'
p298
sg4
S'3505'
p299
sg6
S'03058ff25b1b7f26625c3e6dad07f9c3'
p300
sg8
S'xxae0f32a4d854bf51d41ba93b60e1bd12'
p301
sg10
S'xxd2d1322c94225bf72057c5e674c3ab14'
p302
sg12
S'xxaf63fe8296b1da6e5ea7580dda2522b3'
p303
sg14
S'Mozilla/5.0 (Linux; Android 5.0.2; F103 Build/LRX21M) AppleWebKit/537.36 (KHTML, like Gecko) Version/4.0 Chrome/37.0.0.0 Mobile MQQBrowser/6.8 TBS/036865 Safari/537.36 MicroMessenger/6.3.25.861 NetType/WIFI Language/zh_CN'
p304
sg16
S'e206d913a607fd29f291b661976d0894'
p305
sa(dp306
g2
S'32495'
p307
sg4
S'4443'
p308
sg6
S'53245036499e76178a2ecd541c9089b1'
p309
sg8
S'xx5ffc5ea54f4677e4a252500281730fbb'
p310
sg10
S'xxd2d1322c94225bf72057c5e674c3ab14'
p311
sg12
S'xxaf63fe8296b1da6e5ea7580dda2522b3'
p312
sg14
S'Mozilla/5.0 (Linux; Android 5.0.2; F103 Build/LRX21M) AppleWebKit/537.36 (KHTML, like Gecko) Version/4.0 Chrome/37.0.0.0 Mobile MQQBrowser/6.8 TBS/036849 Safari/537.36 MicroMessenger/6.3.25.861 NetType/WIFI Language/zh_CN'
p313
sg16
S'9c762820f2f91d6633bf8299d3948b77'
p314
sa(dp315
g2
S'32495'
p316
sg4
S'4461'
p317
sg6
S'53245036499e76178a2ecd541c9089b1'
p318
sg8
S'xx5ffc5ea54f4677e4a252500281730fbb'
p319
sg10
S'xxd2d1322c94225bf72057c5e674c3ab14'
p320
sg12
S'xxaf63fe8296b1da6e5ea7580dda2522b3'
p321
sg14
S'Mozilla/5.0 (Linux; Android 5.0.2; F103 Build/LRX21M) AppleWebKit/537.36 (KHTML, like Gecko) Version/4.0 Chrome/37.0.0.0 Mobile MQQBrowser/6.8 TBS/036849 Safari/537.36 MicroMessenger/6.3.25.861 NetType/WIFI Language/zh_CN'
p322
sg16
S'9c762820f2f91d6633bf8299d3948b77'
p323
sa(dp324
g2
S'29512'
p325
sg4
S'4547'
p326
sg6
S'8ac4bc508bd0f308e6f7a0002f018e01'
p327
sg8
S'xx0b1018e3baa26e91a5e25df850a4ca5f'
p328
sg10
S'xxd2d1322c94225bf72057c5e674c3ab14'
p329
sg12
S'xxaf63fe8296b1da6e5ea7580dda2522b3'
p330
sg14
S'Mozilla/5.0 (Linux; Android 5.0; F103 Build/LRX21M) AppleWebKit/537.36 (KHTML, like Gecko) Version/4.0 Chrome/37.0.0.0 Mobile MQQBrowser/6.8 TBS/036849 Safari/537.36 MicroMessenger/6.3.27.880 NetType/WIFI Language/zh_CN'
p331
sg16
S'b68cfa1c03482b59fb4ef2400dc026d9'
p332
sa(dp333
g2
S'29512'
p334
sg4
S'4571'
p335
sg6
S'8ac4bc508bd0f308e6f7a0002f018e01'
p336
sg8
S'xx0b1018e3baa26e91a5e25df850a4ca5f'
p337
sg10
S'xxd2d1322c94225bf72057c5e674c3ab14'
p338
sg12
S'xxaf63fe8296b1da6e5ea7580dda2522b3'
p339
sg14
S'Mozilla/5.0 (Linux; Android 5.0; F103 Build/LRX21M) AppleWebKit/537.36 (KHTML, like Gecko) Version/4.0 Chrome/37.0.0.0 Mobile MQQBrowser/6.8 TBS/036849 Safari/537.36 MicroMessenger/6.3.27.880 NetType/WIFI Language/zh_CN'
p340
sg16
S'b68cfa1c03482b59fb4ef2400dc026d9'
p341
sa(dp342
g2
S'28208'
p343
sg4
S'5928'
p344
sg6
S'03058ff25b1b7f26625c3e6dad07f9c3'
p345
sg8
S'xxae0f32a4d854bf51d41ba93b60e1bd12'
p346
sg10
S'xxd2d1322c94225bf72057c5e674c3ab14'
p347
sg12
S'xxaf63fe8296b1da6e5ea7580dda2522b3'
p348
sg14
S'Mozilla/5.0 (Linux; Android 5.0.2; F103 Build/LRX21M) AppleWebKit/537.36 (KHTML, like Gecko) Version/4.0 Chrome/37.0.0.0 Mobile MQQBrowser/6.8 TBS/036865 Safari/537.36 MicroMessenger/6.3.25.861 NetType/WIFI Language/zh_CN'
p349
sg16
S'e206d913a607fd29f291b661976d0894'
p350
sa(dp351
g2
S'28208'
p352
sg4
S'5947'
p353
sg6
S'03058ff25b1b7f26625c3e6dad07f9c3'
p354
sg8
S'xxae0f32a4d854bf51d41ba93b60e1bd12'
p355
sg10
S'xxd2d1322c94225bf72057c5e674c3ab14'
p356
sg12
S'xxaf63fe8296b1da6e5ea7580dda2522b3'
p357
sg14
S'Mozilla/5.0 (Linux; Android 5.0.2; F103 Build/LRX21M) AppleWebKit/537.36 (KHTML, like Gecko) Version/4.0 Chrome/37.0.0.0 Mobile MQQBrowser/6.8 TBS/036865 Safari/537.36 MicroMessenger/6.3.25.861 NetType/WIFI Language/zh_CN'
p358
sg16
S'e206d913a607fd29f291b661976d0894'
p359
sa(dp360
g2
S'28208'
p361
sg4
S'5983'
p362
sg6
S'03058ff25b1b7f26625c3e6dad07f9c3'
p363
sg8
S'xxae0f32a4d854bf51d41ba93b60e1bd12'
p364
sg10
S'xxd2d1322c94225bf72057c5e674c3ab14'
p365
sg12
S'xxaf63fe8296b1da6e5ea7580dda2522b3'
p366
sg14
S'Mozilla/5.0 (Linux; Android 5.0.2; F103 Build/LRX21M) AppleWebKit/537.36 (KHTML, like Gecko) Version/4.0 Chrome/37.0.0.0 Mobile MQQBrowser/6.8 TBS/036865 Safari/537.36 MicroMessenger/6.3.25.861 NetType/WIFI Language/zh_CN'
p367
sg16
S'e206d913a607fd29f291b661976d0894'
p368
sa(dp369
g2
S'28208'
p370
sg4
S'5998'
p371
sg6
S'03058ff25b1b7f26625c3e6dad07f9c3'
p372
sg8
S'xxae0f32a4d854bf51d41ba93b60e1bd12'
p373
sg10
S'xxd2d1322c94225bf72057c5e674c3ab14'
p374
sg12
S'xxaf63fe8296b1da6e5ea7580dda2522b3'
p375
sg14
S'Mozilla/5.0 (Linux; Android 5.0.2; F103 Build/LRX21M) AppleWebKit/537.36 (KHTML, like Gecko) Version/4.0 Chrome/37.0.0.0 Mobile MQQBrowser/6.8 TBS/036865 Safari/537.36 MicroMessenger/6.3.25.861 NetType/WIFI Language/zh_CN'
p376
sg16
S'e206d913a607fd29f291b661976d0894'
p377
sa(dp378
g2
S'28208'
p379
sg4
S'6355'
p380
sg6
S'03058ff25b1b7f26625c3e6dad07f9c3'
p381
sg8
S'xxae0f32a4d854bf51d41ba93b60e1bd12'
p382
sg10
S'xxd2d1322c94225bf72057c5e674c3ab14'
p383
sg12
S'xxaf63fe8296b1da6e5ea7580dda2522b3'
p384
sg14
S'Mozilla/5.0 (Linux; Android 5.0.2; F103 Build/LRX21M) AppleWebKit/537.36 (KHTML, like Gecko) Version/4.0 Chrome/37.0.0.0 Mobile MQQBrowser/6.8 TBS/036865 Safari/537.36 MicroMessenger/6.3.25.861 NetType/WIFI Language/zh_CN'
p385
sg16
S'e206d913a607fd29f291b661976d0894'
p386
sa(dp387
g2
S'28208'
p388
sg4
S'6372'
p389
sg6
S'03058ff25b1b7f26625c3e6dad07f9c3'
p390
sg8
S'xxae0f32a4d854bf51d41ba93b60e1bd12'
p391
sg10
S'xxd2d1322c94225bf72057c5e674c3ab14'
p392
sg12
S'xxaf63fe8296b1da6e5ea7580dda2522b3'
p393
sg14
S'Mozilla/5.0 (Linux; Android 5.0.2; F103 Build/LRX21M) AppleWebKit/537.36 (KHTML, like Gecko) Version/4.0 Chrome/37.0.0.0 Mobile MQQBrowser/6.8 TBS/036865 Safari/537.36 MicroMessenger/6.3.25.861 NetType/WIFI Language/zh_CN'
p394
sg16
S'e206d913a607fd29f291b661976d0894'
p395
sa(dp396
g2
S'28208'
p397
sg4
S'6389'
p398
sg6
S'03058ff25b1b7f26625c3e6dad07f9c3'
p399
sg8
S'xxae0f32a4d854bf51d41ba93b60e1bd12'
p400
sg10
S'xxd2d1322c94225bf72057c5e674c3ab14'
p401
sg12
S'xxaf63fe8296b1da6e5ea7580dda2522b3'
p402
sg14
S'Mozilla/5.0 (Linux; Android 5.0.2; F103 Build/LRX21M) AppleWebKit/537.36 (KHTML, like Gecko) Version/4.0 Chrome/37.0.0.0 Mobile MQQBrowser/6.8 TBS/036865 Safari/537.36 MicroMessenger/6.3.25.861 NetType/WIFI Language/zh_CN'
p403
sg16
S'e206d913a607fd29f291b661976d0894'
p404
sa(dp405
g2
S'49820'
p406
sg4
S'6830'
p407
sg6
S'ac94386e7a288746a37b833fdab04f64'
p408
sg8
S'xx51da622fc261dd1db2cf731514564fe1'
p409
sg10
S'xxd2d1322c94225bf72057c5e674c3ab14'
p410
sg12
S'xxaf63fe8296b1da6e5ea7580dda2522b3'
p411
sg14
S'Mozilla/5.0 (Linux; Android 5.0.2; F103 Build/LRX21M) AppleWebKit/537.36 (KHTML, like Gecko) Version/4.0 Chrome/37.0.0.0 Mobile MQQBrowser/6.8 TBS/036869 Safari/537.36 MicroMessenger/6.3.27.880 NetType/cmnet Language/zh_CN'
p412
sg16
S'f2825b178d89681fcdd37d728d4d362c'
p413
sa(dp414
g2
S'49820'
p415
sg4
S'6841'
p416
sg6
S'ac94386e7a288746a37b833fdab04f64'
p417
sg8
S'xx51da622fc261dd1db2cf731514564fe1'
p418
sg10
S'xxd2d1322c94225bf72057c5e674c3ab14'
p419
sg12
S'xxaf63fe8296b1da6e5ea7580dda2522b3'
p420
sg14
S'Mozilla/5.0 (Linux; Android 5.0.2; F103 Build/LRX21M) AppleWebKit/537.36 (KHTML, like Gecko) Version/4.0 Chrome/37.0.0.0 Mobile MQQBrowser/6.8 TBS/036869 Safari/537.36 MicroMessenger/6.3.27.880 NetType/cmnet Language/zh_CN'
p421
sg16
S'f2825b178d89681fcdd37d728d4d362c'
p422
sa(dp423
g2
S'28208'
p424
sg4
S'7095'
p425
sg6
S'03058ff25b1b7f26625c3e6dad07f9c3'
p426
sg8
S'xxae0f32a4d854bf51d41ba93b60e1bd12'
p427
sg10
S'xxd2d1322c94225bf72057c5e674c3ab14'
p428
sg12
S'xxaf63fe8296b1da6e5ea7580dda2522b3'
p429
sg14
S'Mozilla/5.0 (Linux; Android 5.0.2; F103 Build/LRX21M) AppleWebKit/537.36 (KHTML, like Gecko) Version/4.0 Chrome/37.0.0.0 Mobile MQQBrowser/6.8 TBS/036865 Safari/537.36 MicroMessenger/6.3.25.861 NetType/WIFI Language/zh_CN'
p430
sg16
S'e206d913a607fd29f291b661976d0894'
p431
sa(dp432
g2
S'28208'
p433
sg4
S'7112'
p434
sg6
S'03058ff25b1b7f26625c3e6dad07f9c3'
p435
sg8
S'xxae0f32a4d854bf51d41ba93b60e1bd12'
p436
sg10
S'xxd2d1322c94225bf72057c5e674c3ab14'
p437
sg12
S'xxaf63fe8296b1da6e5ea7580dda2522b3'
p438
sg14
S'Mozilla/5.0 (Linux; Android 5.0.2; F103 Build/LRX21M) AppleWebKit/537.36 (KHTML, like Gecko) Version/4.0 Chrome/37.0.0.0 Mobile MQQBrowser/6.8 TBS/036865 Safari/537.36 MicroMessenger/6.3.25.861 NetType/WIFI Language/zh_CN'
p439
sg16
S'e206d913a607fd29f291b661976d0894'
p440
sa(dp441
g2
S'28208'
p442
sg4
S'7157'
p443
sg6
S'03058ff25b1b7f26625c3e6dad07f9c3'
p444
sg8
S'xxae0f32a4d854bf51d41ba93b60e1bd12'
p445
sg10
S'xxd2d1322c94225bf72057c5e674c3ab14'
p446
sg12
S'xxaf63fe8296b1da6e5ea7580dda2522b3'
p447
sg14
S'Mozilla/5.0 (Linux; Android 5.0.2; F103 Build/LRX21M) AppleWebKit/537.36 (KHTML, like Gecko) Version/4.0 Chrome/37.0.0.0 Mobile MQQBrowser/6.8 TBS/036865 Safari/537.36 MicroMessenger/6.3.25.861 NetType/WIFI Language/zh_CN'
p448
sg16
S'e206d913a607fd29f291b661976d0894'
p449
sa(dp450
g2
S'28208'
p451
sg4
S'7173'
p452
sg6
S'03058ff25b1b7f26625c3e6dad07f9c3'
p453
sg8
S'xxae0f32a4d854bf51d41ba93b60e1bd12'
p454
sg10
S'xxd2d1322c94225bf72057c5e674c3ab14'
p455
sg12
S'xxaf63fe8296b1da6e5ea7580dda2522b3'
p456
sg14
S'Mozilla/5.0 (Linux; Android 5.0.2; F103 Build/LRX21M) AppleWebKit/537.36 (KHTML, like Gecko) Version/4.0 Chrome/37.0.0.0 Mobile MQQBrowser/6.8 TBS/036865 Safari/537.36 MicroMessenger/6.3.25.861 NetType/WIFI Language/zh_CN'
p457
sg16
S'e206d913a607fd29f291b661976d0894'
p458
sa(dp459
g2
S'37336'
p460
sg4
S'7872'
p461
sg6
S'651d00502aad95b0440fe75e33201e05'
p462
sg8
S'xx9072fc1167b716fbb7d93e21726faeab'
p463
sg10
S'xxd2d1322c94225bf72057c5e674c3ab14'
p464
sg12
S'xxaf63fe8296b1da6e5ea7580dda2522b3'
p465
sg14
S'Mozilla/5.0 (Linux; Android 5.0.2; F103 Build/LRX21M) AppleWebKit/537.36 (KHTML, like Gecko) Version/4.0 Chrome/37.0.0.0 Mobile MQQBrowser/6.8 TBS/036849 Safari/537.36 MicroMessenger/6.3.27.880 NetType/WIFI Language/zh_CN'
p466
sg16
S'3ea0af991a0efede943042bbdc8a765e'
p467
sa(dp468
g2
S'37336'
p469
sg4
S'7885'
p470
sg6
S'651d00502aad95b0440fe75e33201e05'
p471
sg8
S'xx9072fc1167b716fbb7d93e21726faeab'
p472
sg10
S'xxd2d1322c94225bf72057c5e674c3ab14'
p473
sg12
S'xxaf63fe8296b1da6e5ea7580dda2522b3'
p474
sg14
S'Mozilla/5.0 (Linux; Android 5.0.2; F103 Build/LRX21M) AppleWebKit/537.36 (KHTML, like Gecko) Version/4.0 Chrome/37.0.0.0 Mobile MQQBrowser/6.8 TBS/036849 Safari/537.36 MicroMessenger/6.3.27.880 NetType/WIFI Language/zh_CN'
p475
sg16
S'3ea0af991a0efede943042bbdc8a765e'
p476
sa(dp477
g2
S'37336'
p478
sg4
S'7897'
p479
sg6
S'651d00502aad95b0440fe75e33201e05'
p480
sg8
S'xx9072fc1167b716fbb7d93e21726faeab'
p481
sg10
S'xxd2d1322c94225bf72057c5e674c3ab14'
p482
sg12
S'xxaf63fe8296b1da6e5ea7580dda2522b3'
p483
sg14
S'Mozilla/5.0 (Linux; Android 5.0.2; F103 Build/LRX21M) AppleWebKit/537.36 (KHTML, like Gecko) Version/4.0 Chrome/37.0.0.0 Mobile MQQBrowser/6.8 TBS/036849 Safari/537.36 MicroMessenger/6.3.27.880 NetType/WIFI Language/zh_CN'
p484
sg16
S'3ea0af991a0efede943042bbdc8a765e'
p485
sa(dp486
g2
S'37314'
p487
sg4
S'8203'
p488
sg6
S'651d00502aad95b0440fe75e33201e05'
p489
sg8
S'xx9072fc1167b716fbb7d93e21726faeab'
p490
sg10
S'xxd2d1322c94225bf72057c5e674c3ab14'
p491
sg12
S'xxaf63fe8296b1da6e5ea7580dda2522b3'
p492
sg14
S'Mozilla/5.0 (Linux; Android 5.0.2; F103 Build/LRX21M) AppleWebKit/537.36 (KHTML, like Gecko) Version/4.0 Chrome/37.0.0.0 Mobile MQQBrowser/6.8 TBS/036849 Safari/537.36 MicroMessenger/6.3.27.880 NetType/WIFI Language/zh_CN'
p493
sg16
S'3ea0af991a0efede943042bbdc8a765e'
p494
sa(dp495
g2
S'28208'
p496
sg4
S'8596'
p497
sg6
S'03058ff25b1b7f26625c3e6dad07f9c3'
p498
sg8
S'xxae0f32a4d854bf51d41ba93b60e1bd12'
p499
sg10
S'xxd2d1322c94225bf72057c5e674c3ab14'
p500
sg12
S'xxaf63fe8296b1da6e5ea7580dda2522b3'
p501
sg14
S'Mozilla/5.0 (Linux; Android 5.0.2; F103 Build/LRX21M) AppleWebKit/537.36 (KHTML, like Gecko) Version/4.0 Chrome/37.0.0.0 Mobile MQQBrowser/6.8 TBS/036865 Safari/537.36 MicroMessenger/6.3.25.861 NetType/WIFI Language/zh_CN'
p502
sg16
S'e206d913a607fd29f291b661976d0894'
p503
sa(dp504
g2
S'28208'
p505
sg4
S'8617'
p506
sg6
S'03058ff25b1b7f26625c3e6dad07f9c3'
p507
sg8
S'xxae0f32a4d854bf51d41ba93b60e1bd12'
p508
sg10
S'xxd2d1322c94225bf72057c5e674c3ab14'
p509
sg12
S'xxaf63fe8296b1da6e5ea7580dda2522b3'
p510
sg14
S'Mozilla/5.0 (Linux; Android 5.0.2; F103 Build/LRX21M) AppleWebKit/537.36 (KHTML, like Gecko) Version/4.0 Chrome/37.0.0.0 Mobile MQQBrowser/6.8 TBS/036865 Safari/537.36 MicroMessenger/6.3.25.861 NetType/WIFI Language/zh_CN'
p511
sg16
S'e206d913a607fd29f291b661976d0894'
p512
sa(dp513
g2
S'28208'
p514
sg4
S'8637'
p515
sg6
S'03058ff25b1b7f26625c3e6dad07f9c3'
p516
sg8
S'xxae0f32a4d854bf51d41ba93b60e1bd12'
p517
sg10
S'xxd2d1322c94225bf72057c5e674c3ab14'
p518
sg12
S'xxaf63fe8296b1da6e5ea7580dda2522b3'
p519
sg14
S'Mozilla/5.0 (Linux; Android 5.0.2; F103 Build/LRX21M) AppleWebKit/537.36 (KHTML, like Gecko) Version/4.0 Chrome/37.0.0.0 Mobile MQQBrowser/6.8 TBS/036865 Safari/537.36 MicroMessenger/6.3.25.861 NetType/WIFI Language/zh_CN'
p520
sg16
S'e206d913a607fd29f291b661976d0894'
p521
sa(dp522
g2
S'28208'
p523
sg4
S'8660'
p524
sg6
S'03058ff25b1b7f26625c3e6dad07f9c3'
p525
sg8
S'xxae0f32a4d854bf51d41ba93b60e1bd12'
p526
sg10
S'xxd2d1322c94225bf72057c5e674c3ab14'
p527
sg12
S'xxaf63fe8296b1da6e5ea7580dda2522b3'
p528
sg14
S'Mozilla/5.0 (Linux; Android 5.0.2; F103 Build/LRX21M) AppleWebKit/537.36 (KHTML, like Gecko) Version/4.0 Chrome/37.0.0.0 Mobile MQQBrowser/6.8 TBS/036865 Safari/537.36 MicroMessenger/6.3.25.861 NetType/WIFI Language/zh_CN'
p529
sg16
S'e206d913a607fd29f291b661976d0894'
p530
sa(dp531
g2
S'49041'
p532
sg4
S'8680'
p533
sg6
S'f412a8cb99e4fffe9827df4de354aef5'
p534
sg8
S'xxa6a2a43962be94af9278a40854b9eff5'
p535
sg10
S'xxd2d1322c94225bf72057c5e674c3ab14'
p536
sg12
S'xxaf63fe8296b1da6e5ea7580dda2522b3'
p537
sg14
S'Mozilla/5.0 (Linux; Android 5.0.2; F103 Build/LRX21M) AppleWebKit/537.36 (KHTML, like Gecko) Version/4.0 Chrome/37.0.0.0 Mobile MQQBrowser/6.8 TBS/036869 Safari/537.36 MicroMessenger/6.3.27.880 NetType/WIFI Language/zh_CN'
p538
sg16
S'bc636995b127fc9c4ea8913e29288c0d'
p539
sa(dp540
g2
S'28208'
p541
sg4
S'8689'
p542
sg6
S'03058ff25b1b7f26625c3e6dad07f9c3'
p543
sg8
S'xxae0f32a4d854bf51d41ba93b60e1bd12'
p544
sg10
S'xxd2d1322c94225bf72057c5e674c3ab14'
p545
sg12
S'xxaf63fe8296b1da6e5ea7580dda2522b3'
p546
sg14
S'Mozilla/5.0 (Linux; Android 5.0.2; F103 Build/LRX21M) AppleWebKit/537.36 (KHTML, like Gecko) Version/4.0 Chrome/37.0.0.0 Mobile MQQBrowser/6.8 TBS/036865 Safari/537.36 MicroMessenger/6.3.25.861 NetType/WIFI Language/zh_CN'
p547
sg16
S'e206d913a607fd29f291b661976d0894'
p548
sa(dp549
g2
S'49041'
p550
sg4
S'8698'
p551
sg6
S'f412a8cb99e4fffe9827df4de354aef5'
p552
sg8
S'xxa6a2a43962be94af9278a40854b9eff5'
p553
sg10
S'xxd2d1322c94225bf72057c5e674c3ab14'
p554
sg12
S'xxaf63fe8296b1da6e5ea7580dda2522b3'
p555
sg14
S'Mozilla/5.0 (Linux; Android 5.0.2; F103 Build/LRX21M) AppleWebKit/537.36 (KHTML, like Gecko) Version/4.0 Chrome/37.0.0.0 Mobile MQQBrowser/6.8 TBS/036869 Safari/537.36 MicroMessenger/6.3.27.880 NetType/WIFI Language/zh_CN'
p556
sg16
S'bc636995b127fc9c4ea8913e29288c0d'
p557
sa(dp558
g2
S'28208'
p559
sg4
S'8710'
p560
sg6
S'03058ff25b1b7f26625c3e6dad07f9c3'
p561
sg8
S'xxae0f32a4d854bf51d41ba93b60e1bd12'
p562
sg10
S'xxd2d1322c94225bf72057c5e674c3ab14'
p563
sg12
S'xxaf63fe8296b1da6e5ea7580dda2522b3'
p564
sg14
S'Mozilla/5.0 (Linux; Android 5.0.2; F103 Build/LRX21M) AppleWebKit/537.36 (KHTML, like Gecko) Version/4.0 Chrome/37.0.0.0 Mobile MQQBrowser/6.8 TBS/036865 Safari/537.36 MicroMessenger/6.3.25.861 NetType/WIFI Language/zh_CN'
p565
sg16
S'e206d913a607fd29f291b661976d0894'
p566
sa(dp567
g2
S'28208'
p568
sg4
S'8725'
p569
sg6
S'03058ff25b1b7f26625c3e6dad07f9c3'
p570
sg8
S'xxae0f32a4d854bf51d41ba93b60e1bd12'
p571
sg10
S'xxd2d1322c94225bf72057c5e674c3ab14'
p572
sg12
S'xxaf63fe8296b1da6e5ea7580dda2522b3'
p573
sg14
S'Mozilla/5.0 (Linux; Android 5.0.2; F103 Build/LRX21M) AppleWebKit/537.36 (KHTML, like Gecko) Version/4.0 Chrome/37.0.0.0 Mobile MQQBrowser/6.8 TBS/036865 Safari/537.36 MicroMessenger/6.3.25.861 NetType/WIFI Language/zh_CN'
p574
sg16
S'e206d913a607fd29f291b661976d0894'
p575
sa.