(lp0
(dp1
S'user_id'
p2
S'36462'
p3
sS'data_id'
p4
S'2879'
p5
sS'ip'
p6
S'6b387e72cd73a7cffbebce68dd596ff7'
p7
sS'phone_B'
p8
S'xx17c8ac4cdcb47208ee1b393923ee1ebe'
p9
sS'phone_C'
p10
S'xx40127b3a140751e77a9cc1579b2ecdf2'
p11
sS'phone_A'
p12
S'xxaf9e08eb8f4c0349937df7c002cb667d'
p13
sS'user_agent'
p14
S'Mozilla/5.0 (Linux; Android 5.1.1; OPPO A53t Build/LMY47V) AppleWebKit/537.36 (KHTML, like Gecko) Version/4.0 Chrome/37.0.0.0 Mobile MQQBrowser/6.8 TBS/036849 Safari/537.36 MicroMessenger/6.3.27.880 NetType/WIFI Language/zh_CN'
p15
sS'ua'
p16
S'e499c14bdb7a9ecce7ab6a0bef3820f9'
p17
sa(dp18
g2
S'36462'
p19
sg4
S'2903'
p20
sg6
S'6b387e72cd73a7cffbebce68dd596ff7'
p21
sg8
S'xx17c8ac4cdcb47208ee1b393923ee1ebe'
p22
sg10
S'xx40127b3a140751e77a9cc1579b2ecdf2'
p23
sg12
S'xxaf9e08eb8f4c0349937df7c002cb667d'
p24
sg14
S'Mozilla/5.0 (Linux; Android 5.1.1; OPPO A53t Build/LMY47V) AppleWebKit/537.36 (KHTML, like Gecko) Version/4.0 Chrome/37.0.0.0 Mobile MQQBrowser/6.8 TBS/036849 Safari/537.36 MicroMessenger/6.3.27.880 NetType/WIFI Language/zh_CN'
p25
sg16
S'e499c14bdb7a9ecce7ab6a0bef3820f9'
p26
sa(dp27
g2
S'33986'
p28
sg4
S'3749'
p29
sg6
S'6b387e72cd73a7cffbebce68dd596ff7'
p30
sg8
S'xx17c8ac4cdcb47208ee1b393923ee1ebe'
p31
sg10
S'xx40127b3a140751e77a9cc1579b2ecdf2'
p32
sg12
S'xxaf9e08eb8f4c0349937df7c002cb667d'
p33
sg14
S'Mozilla/5.0 (Linux; Android 5.1.1; OPPO A53t Build/LMY47V) AppleWebKit/537.36 (KHTML, like Gecko) Version/4.0 Chrome/37.0.0.0 Mobile MQQBrowser/6.8 TBS/036849 Safari/537.36 MicroMessenger/6.3.27.880 NetType/WIFI Language/zh_CN'
p34
sg16
S'e499c14bdb7a9ecce7ab6a0bef3820f9'
p35
sa(dp36
g2
S'33986'
p37
sg4
S'3767'
p38
sg6
S'6b387e72cd73a7cffbebce68dd596ff7'
p39
sg8
S'xx17c8ac4cdcb47208ee1b393923ee1ebe'
p40
sg10
S'xx40127b3a140751e77a9cc1579b2ecdf2'
p41
sg12
S'xxaf9e08eb8f4c0349937df7c002cb667d'
p42
sg14
S'Mozilla/5.0 (Linux; Android 5.1.1; OPPO A53t Build/LMY47V) AppleWebKit/537.36 (KHTML, like Gecko) Version/4.0 Chrome/37.0.0.0 Mobile MQQBrowser/6.8 TBS/036849 Safari/537.36 MicroMessenger/6.3.27.880 NetType/WIFI Language/zh_CN'
p43
sg16
S'e499c14bdb7a9ecce7ab6a0bef3820f9'
p44
sa.