(lp0
(dp1
S'user_id'
p2
S'35075'
p3
sS'data_id'
p4
S'5010'
p5
sS'ip'
p6
S'6d9be4f3deb5c49bc8d2d61f4a867a09'
p7
sS'phone_B'
p8
S'xx6561a805d878d2d2645fe9094c11c776'
p9
sS'phone_C'
p10
S'xx2fc281c040f7e66306f1dff2a9d65551'
p11
sS'phone_A'
p12
S'xxb0cc16f2a9904a14a8e187874e6b6a74'
p13
sS'user_agent'
p14
S'Mozilla/5.0 (Linux; Android 4.4.4; L833-1 Build/KOT49H) AppleWebKit/537.36 (KHTML, like Gecko) Version/4.0 Chrome/37.0.0.0 Mobile MQQBrowser/6.8 TBS/036849 Safari/537.36 MicroMessenger/6.3.27.880 NetType/WIFI Language/zh_CN'
p15
sS'ua'
p16
S'5ebe74be2a039fc6817c0f710bd0b295'
p17
sa(dp18
g2
S'35075'
p19
sg4
S'5031'
p20
sg6
S'6d9be4f3deb5c49bc8d2d61f4a867a09'
p21
sg8
S'xx6561a805d878d2d2645fe9094c11c776'
p22
sg10
S'xx2fc281c040f7e66306f1dff2a9d65551'
p23
sg12
S'xxb0cc16f2a9904a14a8e187874e6b6a74'
p24
sg14
S'Mozilla/5.0 (Linux; Android 4.4.4; L833-1 Build/KOT49H) AppleWebKit/537.36 (KHTML, like Gecko) Version/4.0 Chrome/37.0.0.0 Mobile MQQBrowser/6.8 TBS/036849 Safari/537.36 MicroMessenger/6.3.27.880 NetType/WIFI Language/zh_CN'
p25
sg16
S'5ebe74be2a039fc6817c0f710bd0b295'
p26
sa(dp27
g2
S'33935'
p28
sg4
S'6236'
p29
sg6
S'6d9be4f3deb5c49bc8d2d61f4a867a09'
p30
sg8
S'xxf5b7bf38c8ee484b083308618c5845ac'
p31
sg10
S'xxaef30ea57653772b80655091bfa8537f'
p32
sg12
S'xxb0cc16f2a9904a14a8e187874e6b6a74'
p33
sg14
S'Mozilla/5.0 (Linux; Android 4.4.4; L833-1 Build/KOT49H) AppleWebKit/537.36 (KHTML, like Gecko) Version/4.0 Chrome/30.0.0.0 Mobile Safari/537.36 MicroMessenger/6.3.27.880 NetType/WIFI Language/zh_CN'
p34
sg16
S'2ce6089f5dd1ecf68227d4dc6cb3a61a'
p35
sa(dp36
g2
S'33935'
p37
sg4
S'6251'
p38
sg6
S'6d9be4f3deb5c49bc8d2d61f4a867a09'
p39
sg8
S'xxf5b7bf38c8ee484b083308618c5845ac'
p40
sg10
S'xxaef30ea57653772b80655091bfa8537f'
p41
sg12
S'xxb0cc16f2a9904a14a8e187874e6b6a74'
p42
sg14
S'Mozilla/5.0 (Linux; Android 4.4.4; L833-1 Build/KOT49H) AppleWebKit/537.36 (KHTML, like Gecko) Version/4.0 Chrome/30.0.0.0 Mobile Safari/537.36 MicroMessenger/6.3.27.880 NetType/WIFI Language/zh_CN'
p43
sg16
S'2ce6089f5dd1ecf68227d4dc6cb3a61a'
p44
sa(dp45
g2
S'35075'
p46
sg4
S'6622'
p47
sg6
S'6d9be4f3deb5c49bc8d2d61f4a867a09'
p48
sg8
S'xx6561a805d878d2d2645fe9094c11c776'
p49
sg10
S'xx2fc281c040f7e66306f1dff2a9d65551'
p50
sg12
S'xxb0cc16f2a9904a14a8e187874e6b6a74'
p51
sg14
S'Mozilla/5.0 (Linux; Android 4.4.4; L833-1 Build/KOT49H) AppleWebKit/537.36 (KHTML, like Gecko) Version/4.0 Chrome/37.0.0.0 Mobile MQQBrowser/6.8 TBS/036849 Safari/537.36 MicroMessenger/6.3.27.880 NetType/WIFI Language/zh_CN'
p52
sg16
S'5ebe74be2a039fc6817c0f710bd0b295'
p53
sa(dp54
g2
S'35075'
p55
sg4
S'6640'
p56
sg6
S'6d9be4f3deb5c49bc8d2d61f4a867a09'
p57
sg8
S'xx6561a805d878d2d2645fe9094c11c776'
p58
sg10
S'xx2fc281c040f7e66306f1dff2a9d65551'
p59
sg12
S'xxb0cc16f2a9904a14a8e187874e6b6a74'
p60
sg14
S'Mozilla/5.0 (Linux; Android 4.4.4; L833-1 Build/KOT49H) AppleWebKit/537.36 (KHTML, like Gecko) Version/4.0 Chrome/37.0.0.0 Mobile MQQBrowser/6.8 TBS/036849 Safari/537.36 MicroMessenger/6.3.27.880 NetType/WIFI Language/zh_CN'
p61
sg16
S'5ebe74be2a039fc6817c0f710bd0b295'
p62
sa(dp63
g2
S'35075'
p64
sg4
S'6659'
p65
sg6
S'6d9be4f3deb5c49bc8d2d61f4a867a09'
p66
sg8
S'xx6561a805d878d2d2645fe9094c11c776'
p67
sg10
S'xx2fc281c040f7e66306f1dff2a9d65551'
p68
sg12
S'xxb0cc16f2a9904a14a8e187874e6b6a74'
p69
sg14
S'Mozilla/5.0 (Linux; Android 4.4.4; L833-1 Build/KOT49H) AppleWebKit/537.36 (KHTML, like Gecko) Version/4.0 Chrome/37.0.0.0 Mobile MQQBrowser/6.8 TBS/036849 Safari/537.36 MicroMessenger/6.3.27.880 NetType/WIFI Language/zh_CN'
p70
sg16
S'5ebe74be2a039fc6817c0f710bd0b295'
p71
sa(dp72
g2
S'33935'
p73
sg4
S'6809'
p74
sg6
S'6d9be4f3deb5c49bc8d2d61f4a867a09'
p75
sg8
S'xx3850f43a000869922083d08b2d81cc11'
p76
sg10
S'xx2fc281c040f7e66306f1dff2a9d65551'
p77
sg12
S'xxb0cc16f2a9904a14a8e187874e6b6a74'
p78
sg14
S'Mozilla/5.0 (Linux; Android 4.4.4; L833-1 Build/KOT49H) AppleWebKit/537.36 (KHTML, like Gecko) Version/4.0 Chrome/37.0.0.0 Mobile MQQBrowser/6.8 TBS/036869 Safari/537.36 MicroMessenger/6.3.27.880 NetType/WIFI Language/zh_CN'
p79
sg16
S'7e920f352ded320fc83bb7ed2c2273de'
p80
sa(dp81
g2
S'33935'
p82
sg4
S'6820'
p83
sg6
S'6d9be4f3deb5c49bc8d2d61f4a867a09'
p84
sg8
S'xx3850f43a000869922083d08b2d81cc11'
p85
sg10
S'xx2fc281c040f7e66306f1dff2a9d65551'
p86
sg12
S'xxb0cc16f2a9904a14a8e187874e6b6a74'
p87
sg14
S'Mozilla/5.0 (Linux; Android 4.4.4; L833-1 Build/KOT49H) AppleWebKit/537.36 (KHTML, like Gecko) Version/4.0 Chrome/37.0.0.0 Mobile MQQBrowser/6.8 TBS/036869 Safari/537.36 MicroMessenger/6.3.27.880 NetType/WIFI Language/zh_CN'
p88
sg16
S'7e920f352ded320fc83bb7ed2c2273de'
p89
sa(dp90
g2
S'35075'
p91
sg4
S'6958'
p92
sg6
S'6d9be4f3deb5c49bc8d2d61f4a867a09'
p93
sg8
S'xx6561a805d878d2d2645fe9094c11c776'
p94
sg10
S'xx2fc281c040f7e66306f1dff2a9d65551'
p95
sg12
S'xxb0cc16f2a9904a14a8e187874e6b6a74'
p96
sg14
S'Mozilla/5.0 (Linux; Android 4.4.4; L833-1 Build/KOT49H) AppleWebKit/537.36 (KHTML, like Gecko) Version/4.0 Chrome/37.0.0.0 Mobile MQQBrowser/6.8 TBS/036849 Safari/537.36 MicroMessenger/6.3.27.880 NetType/WIFI Language/zh_CN'
p97
sg16
S'5ebe74be2a039fc6817c0f710bd0b295'
p98
sa(dp99
g2
S'35075'
p100
sg4
S'6975'
p101
sg6
S'6d9be4f3deb5c49bc8d2d61f4a867a09'
p102
sg8
S'xx6561a805d878d2d2645fe9094c11c776'
p103
sg10
S'xx2fc281c040f7e66306f1dff2a9d65551'
p104
sg12
S'xxb0cc16f2a9904a14a8e187874e6b6a74'
p105
sg14
S'Mozilla/5.0 (Linux; Android 4.4.4; L833-1 Build/KOT49H) AppleWebKit/537.36 (KHTML, like Gecko) Version/4.0 Chrome/37.0.0.0 Mobile MQQBrowser/6.8 TBS/036849 Safari/537.36 MicroMessenger/6.3.27.880 NetType/WIFI Language/zh_CN'
p106
sg16
S'5ebe74be2a039fc6817c0f710bd0b295'
p107
sa(dp108
g2
S'35075'
p109
sg4
S'6988'
p110
sg6
S'6d9be4f3deb5c49bc8d2d61f4a867a09'
p111
sg8
S'xx6561a805d878d2d2645fe9094c11c776'
p112
sg10
S'xx2fc281c040f7e66306f1dff2a9d65551'
p113
sg12
S'xxb0cc16f2a9904a14a8e187874e6b6a74'
p114
sg14
S'Mozilla/5.0 (Linux; Android 4.4.4; L833-1 Build/KOT49H) AppleWebKit/537.36 (KHTML, like Gecko) Version/4.0 Chrome/37.0.0.0 Mobile MQQBrowser/6.8 TBS/036849 Safari/537.36 MicroMessenger/6.3.27.880 NetType/WIFI Language/zh_CN'
p115
sg16
S'5ebe74be2a039fc6817c0f710bd0b295'
p116
sa(dp117
g2
S'35075'
p118
sg4
S'7001'
p119
sg6
S'6d9be4f3deb5c49bc8d2d61f4a867a09'
p120
sg8
S'xx6561a805d878d2d2645fe9094c11c776'
p121
sg10
S'xx2fc281c040f7e66306f1dff2a9d65551'
p122
sg12
S'xxb0cc16f2a9904a14a8e187874e6b6a74'
p123
sg14
S'Mozilla/5.0 (Linux; Android 4.4.4; L833-1 Build/KOT49H) AppleWebKit/537.36 (KHTML, like Gecko) Version/4.0 Chrome/37.0.0.0 Mobile MQQBrowser/6.8 TBS/036849 Safari/537.36 MicroMessenger/6.3.27.880 NetType/WIFI Language/zh_CN'
p124
sg16
S'5ebe74be2a039fc6817c0f710bd0b295'
p125
sa(dp126
g2
S'35075'
p127
sg4
S'7033'
p128
sg6
S'6d9be4f3deb5c49bc8d2d61f4a867a09'
p129
sg8
S'xx6561a805d878d2d2645fe9094c11c776'
p130
sg10
S'xx2fc281c040f7e66306f1dff2a9d65551'
p131
sg12
S'xxb0cc16f2a9904a14a8e187874e6b6a74'
p132
sg14
S'Mozilla/5.0 (Linux; Android 4.4.4; L833-1 Build/KOT49H) AppleWebKit/537.36 (KHTML, like Gecko) Version/4.0 Chrome/37.0.0.0 Mobile MQQBrowser/6.8 TBS/036849 Safari/537.36 MicroMessenger/6.3.27.880 NetType/WIFI Language/zh_CN'
p133
sg16
S'5ebe74be2a039fc6817c0f710bd0b295'
p134
sa(dp135
g2
S'35075'
p136
sg4
S'7081'
p137
sg6
S'6d9be4f3deb5c49bc8d2d61f4a867a09'
p138
sg8
S'xx6561a805d878d2d2645fe9094c11c776'
p139
sg10
S'xx2fc281c040f7e66306f1dff2a9d65551'
p140
sg12
S'xxb0cc16f2a9904a14a8e187874e6b6a74'
p141
sg14
S'Mozilla/5.0 (Linux; Android 4.4.4; L833-1 Build/KOT49H) AppleWebKit/537.36 (KHTML, like Gecko) Version/4.0 Chrome/37.0.0.0 Mobile MQQBrowser/6.8 TBS/036849 Safari/537.36 MicroMessenger/6.3.27.880 NetType/WIFI Language/zh_CN'
p142
sg16
S'5ebe74be2a039fc6817c0f710bd0b295'
p143
sa(dp144
g2
S'35075'
p145
sg4
S'7098'
p146
sg6
S'6d9be4f3deb5c49bc8d2d61f4a867a09'
p147
sg8
S'xx6561a805d878d2d2645fe9094c11c776'
p148
sg10
S'xx2fc281c040f7e66306f1dff2a9d65551'
p149
sg12
S'xxb0cc16f2a9904a14a8e187874e6b6a74'
p150
sg14
S'Mozilla/5.0 (Linux; Android 4.4.4; L833-1 Build/KOT49H) AppleWebKit/537.36 (KHTML, like Gecko) Version/4.0 Chrome/37.0.0.0 Mobile MQQBrowser/6.8 TBS/036849 Safari/537.36 MicroMessenger/6.3.27.880 NetType/WIFI Language/zh_CN'
p151
sg16
S'5ebe74be2a039fc6817c0f710bd0b295'
p152
sa(dp153
g2
S'35075'
p154
sg4
S'7116'
p155
sg6
S'6d9be4f3deb5c49bc8d2d61f4a867a09'
p156
sg8
S'xx6561a805d878d2d2645fe9094c11c776'
p157
sg10
S'xx2fc281c040f7e66306f1dff2a9d65551'
p158
sg12
S'xxb0cc16f2a9904a14a8e187874e6b6a74'
p159
sg14
S'Mozilla/5.0 (Linux; Android 4.4.4; L833-1 Build/KOT49H) AppleWebKit/537.36 (KHTML, like Gecko) Version/4.0 Chrome/37.0.0.0 Mobile MQQBrowser/6.8 TBS/036849 Safari/537.36 MicroMessenger/6.3.27.880 NetType/WIFI Language/zh_CN'
p160
sg16
S'5ebe74be2a039fc6817c0f710bd0b295'
p161
sa(dp162
g2
S'35075'
p163
sg4
S'7135'
p164
sg6
S'6d9be4f3deb5c49bc8d2d61f4a867a09'
p165
sg8
S'xx6561a805d878d2d2645fe9094c11c776'
p166
sg10
S'xx2fc281c040f7e66306f1dff2a9d65551'
p167
sg12
S'xxb0cc16f2a9904a14a8e187874e6b6a74'
p168
sg14
S'Mozilla/5.0 (Linux; Android 4.4.4; L833-1 Build/KOT49H) AppleWebKit/537.36 (KHTML, like Gecko) Version/4.0 Chrome/37.0.0.0 Mobile MQQBrowser/6.8 TBS/036849 Safari/537.36 MicroMessenger/6.3.27.880 NetType/WIFI Language/zh_CN'
p169
sg16
S'5ebe74be2a039fc6817c0f710bd0b295'
p170
sa(dp171
g2
S'35075'
p172
sg4
S'7151'
p173
sg6
S'6d9be4f3deb5c49bc8d2d61f4a867a09'
p174
sg8
S'xx6561a805d878d2d2645fe9094c11c776'
p175
sg10
S'xx2fc281c040f7e66306f1dff2a9d65551'
p176
sg12
S'xxb0cc16f2a9904a14a8e187874e6b6a74'
p177
sg14
S'Mozilla/5.0 (Linux; Android 4.4.4; L833-1 Build/KOT49H) AppleWebKit/537.36 (KHTML, like Gecko) Version/4.0 Chrome/37.0.0.0 Mobile MQQBrowser/6.8 TBS/036849 Safari/537.36 MicroMessenger/6.3.27.880 NetType/WIFI Language/zh_CN'
p178
sg16
S'5ebe74be2a039fc6817c0f710bd0b295'
p179
sa(dp180
g2
S'35075'
p181
sg4
S'7167'
p182
sg6
S'6d9be4f3deb5c49bc8d2d61f4a867a09'
p183
sg8
S'xx6561a805d878d2d2645fe9094c11c776'
p184
sg10
S'xx2fc281c040f7e66306f1dff2a9d65551'
p185
sg12
S'xxb0cc16f2a9904a14a8e187874e6b6a74'
p186
sg14
S'Mozilla/5.0 (Linux; Android 4.4.4; L833-1 Build/KOT49H) AppleWebKit/537.36 (KHTML, like Gecko) Version/4.0 Chrome/37.0.0.0 Mobile MQQBrowser/6.8 TBS/036849 Safari/537.36 MicroMessenger/6.3.27.880 NetType/WIFI Language/zh_CN'
p187
sg16
S'5ebe74be2a039fc6817c0f710bd0b295'
p188
sa(dp189
g2
S'33935'
p190
sg4
S'7319'
p191
sg6
S'6d9be4f3deb5c49bc8d2d61f4a867a09'
p192
sg8
S'xx3850f43a000869922083d08b2d81cc11'
p193
sg10
S'xx2fc281c040f7e66306f1dff2a9d65551'
p194
sg12
S'xxb0cc16f2a9904a14a8e187874e6b6a74'
p195
sg14
S'Mozilla/5.0 (Linux; Android 4.4.4; L833-1 Build/KOT49H) AppleWebKit/537.36 (KHTML, like Gecko) Version/4.0 Chrome/37.0.0.0 Mobile MQQBrowser/6.8 TBS/036869 Safari/537.36 MicroMessenger/6.3.27.880 NetType/WIFI Language/zh_CN'
p196
sg16
S'7e920f352ded320fc83bb7ed2c2273de'
p197
sa(dp198
g2
S'33935'
p199
sg4
S'7334'
p200
sg6
S'6d9be4f3deb5c49bc8d2d61f4a867a09'
p201
sg8
S'xx3850f43a000869922083d08b2d81cc11'
p202
sg10
S'xx2fc281c040f7e66306f1dff2a9d65551'
p203
sg12
S'xxb0cc16f2a9904a14a8e187874e6b6a74'
p204
sg14
S'Mozilla/5.0 (Linux; Android 4.4.4; L833-1 Build/KOT49H) AppleWebKit/537.36 (KHTML, like Gecko) Version/4.0 Chrome/37.0.0.0 Mobile MQQBrowser/6.8 TBS/036869 Safari/537.36 MicroMessenger/6.3.27.880 NetType/WIFI Language/zh_CN'
p205
sg16
S'7e920f352ded320fc83bb7ed2c2273de'
p206
sa(dp207
g2
S'35075'
p208
sg4
S'7401'
p209
sg6
S'6d9be4f3deb5c49bc8d2d61f4a867a09'
p210
sg8
S'xx6561a805d878d2d2645fe9094c11c776'
p211
sg10
S'xx2fc281c040f7e66306f1dff2a9d65551'
p212
sg12
S'xxb0cc16f2a9904a14a8e187874e6b6a74'
p213
sg14
S'Mozilla/5.0 (Linux; Android 4.4.4; L833-1 Build/KOT49H) AppleWebKit/537.36 (KHTML, like Gecko) Version/4.0 Chrome/37.0.0.0 Mobile MQQBrowser/6.8 TBS/036849 Safari/537.36 MicroMessenger/6.3.27.880 NetType/WIFI Language/zh_CN'
p214
sg16
S'5ebe74be2a039fc6817c0f710bd0b295'
p215
sa(dp216
g2
S'35075'
p217
sg4
S'7430'
p218
sg6
S'6d9be4f3deb5c49bc8d2d61f4a867a09'
p219
sg8
S'xx6561a805d878d2d2645fe9094c11c776'
p220
sg10
S'xx2fc281c040f7e66306f1dff2a9d65551'
p221
sg12
S'xxb0cc16f2a9904a14a8e187874e6b6a74'
p222
sg14
S'Mozilla/5.0 (Linux; Android 4.4.4; L833-1 Build/KOT49H) AppleWebKit/537.36 (KHTML, like Gecko) Version/4.0 Chrome/37.0.0.0 Mobile MQQBrowser/6.8 TBS/036849 Safari/537.36 MicroMessenger/6.3.27.880 NetType/WIFI Language/zh_CN'
p223
sg16
S'5ebe74be2a039fc6817c0f710bd0b295'
p224
sa(dp225
g2
S'35075'
p226
sg4
S'7489'
p227
sg6
S'6d9be4f3deb5c49bc8d2d61f4a867a09'
p228
sg8
S'xx6561a805d878d2d2645fe9094c11c776'
p229
sg10
S'xx2fc281c040f7e66306f1dff2a9d65551'
p230
sg12
S'xxb0cc16f2a9904a14a8e187874e6b6a74'
p231
sg14
S'Mozilla/5.0 (Linux; Android 4.4.4; L833-1 Build/KOT49H) AppleWebKit/537.36 (KHTML, like Gecko) Version/4.0 Chrome/37.0.0.0 Mobile MQQBrowser/6.8 TBS/036849 Safari/537.36 MicroMessenger/6.3.27.880 NetType/WIFI Language/zh_CN'
p232
sg16
S'5ebe74be2a039fc6817c0f710bd0b295'
p233
sa(dp234
g2
S'35075'
p235
sg4
S'7515'
p236
sg6
S'6d9be4f3deb5c49bc8d2d61f4a867a09'
p237
sg8
S'xx6561a805d878d2d2645fe9094c11c776'
p238
sg10
S'xx2fc281c040f7e66306f1dff2a9d65551'
p239
sg12
S'xxb0cc16f2a9904a14a8e187874e6b6a74'
p240
sg14
S'Mozilla/5.0 (Linux; Android 4.4.4; L833-1 Build/KOT49H) AppleWebKit/537.36 (KHTML, like Gecko) Version/4.0 Chrome/37.0.0.0 Mobile MQQBrowser/6.8 TBS/036849 Safari/537.36 MicroMessenger/6.3.27.880 NetType/WIFI Language/zh_CN'
p241
sg16
S'5ebe74be2a039fc6817c0f710bd0b295'
p242
sa(dp243
g2
S'35075'
p244
sg4
S'7527'
p245
sg6
S'6d9be4f3deb5c49bc8d2d61f4a867a09'
p246
sg8
S'xx6561a805d878d2d2645fe9094c11c776'
p247
sg10
S'xx2fc281c040f7e66306f1dff2a9d65551'
p248
sg12
S'xxb0cc16f2a9904a14a8e187874e6b6a74'
p249
sg14
S'Mozilla/5.0 (Linux; Android 4.4.4; L833-1 Build/KOT49H) AppleWebKit/537.36 (KHTML, like Gecko) Version/4.0 Chrome/37.0.0.0 Mobile MQQBrowser/6.8 TBS/036849 Safari/537.36 MicroMessenger/6.3.27.880 NetType/WIFI Language/zh_CN'
p250
sg16
S'5ebe74be2a039fc6817c0f710bd0b295'
p251
sa(dp252
g2
S'35075'
p253
sg4
S'7545'
p254
sg6
S'6d9be4f3deb5c49bc8d2d61f4a867a09'
p255
sg8
S'xx6561a805d878d2d2645fe9094c11c776'
p256
sg10
S'xx2fc281c040f7e66306f1dff2a9d65551'
p257
sg12
S'xxb0cc16f2a9904a14a8e187874e6b6a74'
p258
sg14
S'Mozilla/5.0 (Linux; Android 4.4.4; L833-1 Build/KOT49H) AppleWebKit/537.36 (KHTML, like Gecko) Version/4.0 Chrome/37.0.0.0 Mobile MQQBrowser/6.8 TBS/036849 Safari/537.36 MicroMessenger/6.3.27.880 NetType/WIFI Language/zh_CN'
p259
sg16
S'5ebe74be2a039fc6817c0f710bd0b295'
p260
sa(dp261
g2
S'35075'
p262
sg4
S'7574'
p263
sg6
S'6d9be4f3deb5c49bc8d2d61f4a867a09'
p264
sg8
S'xx6561a805d878d2d2645fe9094c11c776'
p265
sg10
S'xx2fc281c040f7e66306f1dff2a9d65551'
p266
sg12
S'xxb0cc16f2a9904a14a8e187874e6b6a74'
p267
sg14
S'Mozilla/5.0 (Linux; Android 4.4.4; L833-1 Build/KOT49H) AppleWebKit/537.36 (KHTML, like Gecko) Version/4.0 Chrome/37.0.0.0 Mobile MQQBrowser/6.8 TBS/036849 Safari/537.36 MicroMessenger/6.3.27.880 NetType/WIFI Language/zh_CN'
p268
sg16
S'5ebe74be2a039fc6817c0f710bd0b295'
p269
sa(dp270
g2
S'35075'
p271
sg4
S'7648'
p272
sg6
S'6d9be4f3deb5c49bc8d2d61f4a867a09'
p273
sg8
S'xx6561a805d878d2d2645fe9094c11c776'
p274
sg10
S'xx2fc281c040f7e66306f1dff2a9d65551'
p275
sg12
S'xxb0cc16f2a9904a14a8e187874e6b6a74'
p276
sg14
S'Mozilla/5.0 (Linux; Android 4.4.4; L833-1 Build/KOT49H) AppleWebKit/537.36 (KHTML, like Gecko) Version/4.0 Chrome/37.0.0.0 Mobile MQQBrowser/6.8 TBS/036849 Safari/537.36 MicroMessenger/6.3.27.880 NetType/WIFI Language/zh_CN'
p277
sg16
S'5ebe74be2a039fc6817c0f710bd0b295'
p278
sa(dp279
g2
S'35075'
p280
sg4
S'7705'
p281
sg6
S'6d9be4f3deb5c49bc8d2d61f4a867a09'
p282
sg8
S'xx6561a805d878d2d2645fe9094c11c776'
p283
sg10
S'xx2fc281c040f7e66306f1dff2a9d65551'
p284
sg12
S'xxb0cc16f2a9904a14a8e187874e6b6a74'
p285
sg14
S'Mozilla/5.0 (Linux; Android 4.4.4; L833-1 Build/KOT49H) AppleWebKit/537.36 (KHTML, like Gecko) Version/4.0 Chrome/37.0.0.0 Mobile MQQBrowser/6.8 TBS/036849 Safari/537.36 MicroMessenger/6.3.27.880 NetType/WIFI Language/zh_CN'
p286
sg16
S'5ebe74be2a039fc6817c0f710bd0b295'
p287
sa(dp288
g2
S'35075'
p289
sg4
S'7716'
p290
sg6
S'6d9be4f3deb5c49bc8d2d61f4a867a09'
p291
sg8
S'xx6561a805d878d2d2645fe9094c11c776'
p292
sg10
S'xx2fc281c040f7e66306f1dff2a9d65551'
p293
sg12
S'xxb0cc16f2a9904a14a8e187874e6b6a74'
p294
sg14
S'Mozilla/5.0 (Linux; Android 4.4.4; L833-1 Build/KOT49H) AppleWebKit/537.36 (KHTML, like Gecko) Version/4.0 Chrome/37.0.0.0 Mobile MQQBrowser/6.8 TBS/036849 Safari/537.36 MicroMessenger/6.3.27.880 NetType/WIFI Language/zh_CN'
p295
sg16
S'5ebe74be2a039fc6817c0f710bd0b295'
p296
sa(dp297
g2
S'35075'
p298
sg4
S'7728'
p299
sg6
S'6d9be4f3deb5c49bc8d2d61f4a867a09'
p300
sg8
S'xx6561a805d878d2d2645fe9094c11c776'
p301
sg10
S'xx2fc281c040f7e66306f1dff2a9d65551'
p302
sg12
S'xxb0cc16f2a9904a14a8e187874e6b6a74'
p303
sg14
S'Mozilla/5.0 (Linux; Android 4.4.4; L833-1 Build/KOT49H) AppleWebKit/537.36 (KHTML, like Gecko) Version/4.0 Chrome/37.0.0.0 Mobile MQQBrowser/6.8 TBS/036849 Safari/537.36 MicroMessenger/6.3.27.880 NetType/WIFI Language/zh_CN'
p304
sg16
S'5ebe74be2a039fc6817c0f710bd0b295'
p305
sa(dp306
g2
S'33935'
p307
sg4
S'7807'
p308
sg6
S'6d9be4f3deb5c49bc8d2d61f4a867a09'
p309
sg8
S'xx3850f43a000869922083d08b2d81cc11'
p310
sg10
S'xx2fc281c040f7e66306f1dff2a9d65551'
p311
sg12
S'xxb0cc16f2a9904a14a8e187874e6b6a74'
p312
sg14
S'Mozilla/5.0 (Linux; Android 4.4.4; L833-1 Build/KOT49H) AppleWebKit/537.36 (KHTML, like Gecko) Version/4.0 Chrome/37.0.0.0 Mobile MQQBrowser/6.8 TBS/036869 Safari/537.36 MicroMessenger/6.3.27.880 NetType/WIFI Language/zh_CN'
p313
sg16
S'7e920f352ded320fc83bb7ed2c2273de'
p314
sa(dp315
g2
S'33935'
p316
sg4
S'7817'
p317
sg6
S'6d9be4f3deb5c49bc8d2d61f4a867a09'
p318
sg8
S'xx3850f43a000869922083d08b2d81cc11'
p319
sg10
S'xx2fc281c040f7e66306f1dff2a9d65551'
p320
sg12
S'xxb0cc16f2a9904a14a8e187874e6b6a74'
p321
sg14
S'Mozilla/5.0 (Linux; Android 4.4.4; L833-1 Build/KOT49H) AppleWebKit/537.36 (KHTML, like Gecko) Version/4.0 Chrome/37.0.0.0 Mobile MQQBrowser/6.8 TBS/036869 Safari/537.36 MicroMessenger/6.3.27.880 NetType/WIFI Language/zh_CN'
p322
sg16
S'7e920f352ded320fc83bb7ed2c2273de'
p323
sa(dp324
g2
S'35075'
p325
sg4
S'7854'
p326
sg6
S'6d9be4f3deb5c49bc8d2d61f4a867a09'
p327
sg8
S'xx6561a805d878d2d2645fe9094c11c776'
p328
sg10
S'xx2fc281c040f7e66306f1dff2a9d65551'
p329
sg12
S'xxb0cc16f2a9904a14a8e187874e6b6a74'
p330
sg14
S'Mozilla/5.0 (Linux; Android 4.4.4; L833-1 Build/KOT49H) AppleWebKit/537.36 (KHTML, like Gecko) Version/4.0 Chrome/37.0.0.0 Mobile MQQBrowser/6.8 TBS/036849 Safari/537.36 MicroMessenger/6.3.27.880 NetType/WIFI Language/zh_CN'
p331
sg16
S'5ebe74be2a039fc6817c0f710bd0b295'
p332
sa(dp333
g2
S'35075'
p334
sg4
S'7867'
p335
sg6
S'6d9be4f3deb5c49bc8d2d61f4a867a09'
p336
sg8
S'xx6561a805d878d2d2645fe9094c11c776'
p337
sg10
S'xx2fc281c040f7e66306f1dff2a9d65551'
p338
sg12
S'xxb0cc16f2a9904a14a8e187874e6b6a74'
p339
sg14
S'Mozilla/5.0 (Linux; Android 4.4.4; L833-1 Build/KOT49H) AppleWebKit/537.36 (KHTML, like Gecko) Version/4.0 Chrome/37.0.0.0 Mobile MQQBrowser/6.8 TBS/036849 Safari/537.36 MicroMessenger/6.3.27.880 NetType/WIFI Language/zh_CN'
p340
sg16
S'5ebe74be2a039fc6817c0f710bd0b295'
p341
sa(dp342
g2
S'35075'
p343
sg4
S'7888'
p344
sg6
S'6d9be4f3deb5c49bc8d2d61f4a867a09'
p345
sg8
S'xx6561a805d878d2d2645fe9094c11c776'
p346
sg10
S'xx2fc281c040f7e66306f1dff2a9d65551'
p347
sg12
S'xxb0cc16f2a9904a14a8e187874e6b6a74'
p348
sg14
S'Mozilla/5.0 (Linux; Android 4.4.4; L833-1 Build/KOT49H) AppleWebKit/537.36 (KHTML, like Gecko) Version/4.0 Chrome/37.0.0.0 Mobile MQQBrowser/6.8 TBS/036849 Safari/537.36 MicroMessenger/6.3.27.880 NetType/WIFI Language/zh_CN'
p349
sg16
S'5ebe74be2a039fc6817c0f710bd0b295'
p350
sa(dp351
g2
S'35075'
p352
sg4
S'7901'
p353
sg6
S'6d9be4f3deb5c49bc8d2d61f4a867a09'
p354
sg8
S'xx6561a805d878d2d2645fe9094c11c776'
p355
sg10
S'xx2fc281c040f7e66306f1dff2a9d65551'
p356
sg12
S'xxb0cc16f2a9904a14a8e187874e6b6a74'
p357
sg14
S'Mozilla/5.0 (Linux; Android 4.4.4; L833-1 Build/KOT49H) AppleWebKit/537.36 (KHTML, like Gecko) Version/4.0 Chrome/37.0.0.0 Mobile MQQBrowser/6.8 TBS/036849 Safari/537.36 MicroMessenger/6.3.27.880 NetType/WIFI Language/zh_CN'
p358
sg16
S'5ebe74be2a039fc6817c0f710bd0b295'
p359
sa(dp360
g2
S'35075'
p361
sg4
S'7930'
p362
sg6
S'6d9be4f3deb5c49bc8d2d61f4a867a09'
p363
sg8
S'xx6561a805d878d2d2645fe9094c11c776'
p364
sg10
S'xx2fc281c040f7e66306f1dff2a9d65551'
p365
sg12
S'xxb0cc16f2a9904a14a8e187874e6b6a74'
p366
sg14
S'Mozilla/5.0 (Linux; Android 4.4.4; L833-1 Build/KOT49H) AppleWebKit/537.36 (KHTML, like Gecko) Version/4.0 Chrome/37.0.0.0 Mobile MQQBrowser/6.8 TBS/036849 Safari/537.36 MicroMessenger/6.3.27.880 NetType/WIFI Language/zh_CN'
p367
sg16
S'5ebe74be2a039fc6817c0f710bd0b295'
p368
sa(dp369
g2
S'35075'
p370
sg4
S'7989'
p371
sg6
S'6d9be4f3deb5c49bc8d2d61f4a867a09'
p372
sg8
S'xx6561a805d878d2d2645fe9094c11c776'
p373
sg10
S'xx2fc281c040f7e66306f1dff2a9d65551'
p374
sg12
S'xxb0cc16f2a9904a14a8e187874e6b6a74'
p375
sg14
S'Mozilla/5.0 (Linux; Android 4.4.4; L833-1 Build/KOT49H) AppleWebKit/537.36 (KHTML, like Gecko) Version/4.0 Chrome/37.0.0.0 Mobile MQQBrowser/6.8 TBS/036849 Safari/537.36 MicroMessenger/6.3.27.880 NetType/WIFI Language/zh_CN'
p376
sg16
S'5ebe74be2a039fc6817c0f710bd0b295'
p377
sa(dp378
g2
S'35075'
p379
sg4
S'8012'
p380
sg6
S'6d9be4f3deb5c49bc8d2d61f4a867a09'
p381
sg8
S'xx6561a805d878d2d2645fe9094c11c776'
p382
sg10
S'xx2fc281c040f7e66306f1dff2a9d65551'
p383
sg12
S'xxb0cc16f2a9904a14a8e187874e6b6a74'
p384
sg14
S'Mozilla/5.0 (Linux; Android 4.4.4; L833-1 Build/KOT49H) AppleWebKit/537.36 (KHTML, like Gecko) Version/4.0 Chrome/37.0.0.0 Mobile MQQBrowser/6.8 TBS/036849 Safari/537.36 MicroMessenger/6.3.27.880 NetType/WIFI Language/zh_CN'
p385
sg16
S'5ebe74be2a039fc6817c0f710bd0b295'
p386
sa(dp387
g2
S'35075'
p388
sg4
S'8078'
p389
sg6
S'6d9be4f3deb5c49bc8d2d61f4a867a09'
p390
sg8
S'xx6561a805d878d2d2645fe9094c11c776'
p391
sg10
S'xx2fc281c040f7e66306f1dff2a9d65551'
p392
sg12
S'xxb0cc16f2a9904a14a8e187874e6b6a74'
p393
sg14
S'Mozilla/5.0 (Linux; Android 4.4.4; L833-1 Build/KOT49H) AppleWebKit/537.36 (KHTML, like Gecko) Version/4.0 Chrome/37.0.0.0 Mobile MQQBrowser/6.8 TBS/036849 Safari/537.36 MicroMessenger/6.3.27.880 NetType/WIFI Language/zh_CN'
p394
sg16
S'5ebe74be2a039fc6817c0f710bd0b295'
p395
sa(dp396
g2
S'35075'
p397
sg4
S'8199'
p398
sg6
S'6d9be4f3deb5c49bc8d2d61f4a867a09'
p399
sg8
S'xx6561a805d878d2d2645fe9094c11c776'
p400
sg10
S'xx2fc281c040f7e66306f1dff2a9d65551'
p401
sg12
S'xxb0cc16f2a9904a14a8e187874e6b6a74'
p402
sg14
S'Mozilla/5.0 (Linux; Android 4.4.4; L833-1 Build/KOT49H) AppleWebKit/537.36 (KHTML, like Gecko) Version/4.0 Chrome/37.0.0.0 Mobile MQQBrowser/6.8 TBS/036849 Safari/537.36 MicroMessenger/6.3.27.880 NetType/WIFI Language/zh_CN'
p403
sg16
S'5ebe74be2a039fc6817c0f710bd0b295'
p404
sa(dp405
g2
S'35075'
p406
sg4
S'8214'
p407
sg6
S'6d9be4f3deb5c49bc8d2d61f4a867a09'
p408
sg8
S'xx6561a805d878d2d2645fe9094c11c776'
p409
sg10
S'xx2fc281c040f7e66306f1dff2a9d65551'
p410
sg12
S'xxb0cc16f2a9904a14a8e187874e6b6a74'
p411
sg14
S'Mozilla/5.0 (Linux; Android 4.4.4; L833-1 Build/KOT49H) AppleWebKit/537.36 (KHTML, like Gecko) Version/4.0 Chrome/37.0.0.0 Mobile MQQBrowser/6.8 TBS/036849 Safari/537.36 MicroMessenger/6.3.27.880 NetType/WIFI Language/zh_CN'
p412
sg16
S'5ebe74be2a039fc6817c0f710bd0b295'
p413
sa(dp414
g2
S'35075'
p415
sg4
S'8227'
p416
sg6
S'6d9be4f3deb5c49bc8d2d61f4a867a09'
p417
sg8
S'xx6561a805d878d2d2645fe9094c11c776'
p418
sg10
S'xx2fc281c040f7e66306f1dff2a9d65551'
p419
sg12
S'xxb0cc16f2a9904a14a8e187874e6b6a74'
p420
sg14
S'Mozilla/5.0 (Linux; Android 4.4.4; L833-1 Build/KOT49H) AppleWebKit/537.36 (KHTML, like Gecko) Version/4.0 Chrome/37.0.0.0 Mobile MQQBrowser/6.8 TBS/036849 Safari/537.36 MicroMessenger/6.3.27.880 NetType/WIFI Language/zh_CN'
p421
sg16
S'5ebe74be2a039fc6817c0f710bd0b295'
p422
sa(dp423
g2
S'35075'
p424
sg4
S'8259'
p425
sg6
S'6d9be4f3deb5c49bc8d2d61f4a867a09'
p426
sg8
S'xx6561a805d878d2d2645fe9094c11c776'
p427
sg10
S'xx2fc281c040f7e66306f1dff2a9d65551'
p428
sg12
S'xxb0cc16f2a9904a14a8e187874e6b6a74'
p429
sg14
S'Mozilla/5.0 (Linux; Android 4.4.4; L833-1 Build/KOT49H) AppleWebKit/537.36 (KHTML, like Gecko) Version/4.0 Chrome/37.0.0.0 Mobile MQQBrowser/6.8 TBS/036849 Safari/537.36 MicroMessenger/6.3.27.880 NetType/WIFI Language/zh_CN'
p430
sg16
S'5ebe74be2a039fc6817c0f710bd0b295'
p431
sa(dp432
g2
S'35075'
p433
sg4
S'8306'
p434
sg6
S'6d9be4f3deb5c49bc8d2d61f4a867a09'
p435
sg8
S'xx6561a805d878d2d2645fe9094c11c776'
p436
sg10
S'xx2fc281c040f7e66306f1dff2a9d65551'
p437
sg12
S'xxb0cc16f2a9904a14a8e187874e6b6a74'
p438
sg14
S'Mozilla/5.0 (Linux; Android 4.4.4; L833-1 Build/KOT49H) AppleWebKit/537.36 (KHTML, like Gecko) Version/4.0 Chrome/37.0.0.0 Mobile MQQBrowser/6.8 TBS/036849 Safari/537.36 MicroMessenger/6.3.27.880 NetType/WIFI Language/zh_CN'
p439
sg16
S'5ebe74be2a039fc6817c0f710bd0b295'
p440
sa(dp441
g2
S'35075'
p442
sg4
S'8324'
p443
sg6
S'6d9be4f3deb5c49bc8d2d61f4a867a09'
p444
sg8
S'xx6561a805d878d2d2645fe9094c11c776'
p445
sg10
S'xx2fc281c040f7e66306f1dff2a9d65551'
p446
sg12
S'xxb0cc16f2a9904a14a8e187874e6b6a74'
p447
sg14
S'Mozilla/5.0 (Linux; Android 4.4.4; L833-1 Build/KOT49H) AppleWebKit/537.36 (KHTML, like Gecko) Version/4.0 Chrome/37.0.0.0 Mobile MQQBrowser/6.8 TBS/036849 Safari/537.36 MicroMessenger/6.3.27.880 NetType/WIFI Language/zh_CN'
p448
sg16
S'5ebe74be2a039fc6817c0f710bd0b295'
p449
sa(dp450
g2
S'35075'
p451
sg4
S'8339'
p452
sg6
S'6d9be4f3deb5c49bc8d2d61f4a867a09'
p453
sg8
S'xx6561a805d878d2d2645fe9094c11c776'
p454
sg10
S'xx2fc281c040f7e66306f1dff2a9d65551'
p455
sg12
S'xxb0cc16f2a9904a14a8e187874e6b6a74'
p456
sg14
S'Mozilla/5.0 (Linux; Android 4.4.4; L833-1 Build/KOT49H) AppleWebKit/537.36 (KHTML, like Gecko) Version/4.0 Chrome/37.0.0.0 Mobile MQQBrowser/6.8 TBS/036849 Safari/537.36 MicroMessenger/6.3.27.880 NetType/WIFI Language/zh_CN'
p457
sg16
S'5ebe74be2a039fc6817c0f710bd0b295'
p458
sa(dp459
g2
S'35075'
p460
sg4
S'8352'
p461
sg6
S'6d9be4f3deb5c49bc8d2d61f4a867a09'
p462
sg8
S'xx6561a805d878d2d2645fe9094c11c776'
p463
sg10
S'xx2fc281c040f7e66306f1dff2a9d65551'
p464
sg12
S'xxb0cc16f2a9904a14a8e187874e6b6a74'
p465
sg14
S'Mozilla/5.0 (Linux; Android 4.4.4; L833-1 Build/KOT49H) AppleWebKit/537.36 (KHTML, like Gecko) Version/4.0 Chrome/37.0.0.0 Mobile MQQBrowser/6.8 TBS/036849 Safari/537.36 MicroMessenger/6.3.27.880 NetType/WIFI Language/zh_CN'
p466
sg16
S'5ebe74be2a039fc6817c0f710bd0b295'
p467
sa(dp468
g2
S'35075'
p469
sg4
S'8365'
p470
sg6
S'6d9be4f3deb5c49bc8d2d61f4a867a09'
p471
sg8
S'xx6561a805d878d2d2645fe9094c11c776'
p472
sg10
S'xx2fc281c040f7e66306f1dff2a9d65551'
p473
sg12
S'xxb0cc16f2a9904a14a8e187874e6b6a74'
p474
sg14
S'Mozilla/5.0 (Linux; Android 4.4.4; L833-1 Build/KOT49H) AppleWebKit/537.36 (KHTML, like Gecko) Version/4.0 Chrome/37.0.0.0 Mobile MQQBrowser/6.8 TBS/036849 Safari/537.36 MicroMessenger/6.3.27.880 NetType/WIFI Language/zh_CN'
p475
sg16
S'5ebe74be2a039fc6817c0f710bd0b295'
p476
sa(dp477
g2
S'35075'
p478
sg4
S'8386'
p479
sg6
S'6d9be4f3deb5c49bc8d2d61f4a867a09'
p480
sg8
S'xx6561a805d878d2d2645fe9094c11c776'
p481
sg10
S'xx2fc281c040f7e66306f1dff2a9d65551'
p482
sg12
S'xxb0cc16f2a9904a14a8e187874e6b6a74'
p483
sg14
S'Mozilla/5.0 (Linux; Android 4.4.4; L833-1 Build/KOT49H) AppleWebKit/537.36 (KHTML, like Gecko) Version/4.0 Chrome/37.0.0.0 Mobile MQQBrowser/6.8 TBS/036849 Safari/537.36 MicroMessenger/6.3.27.880 NetType/WIFI Language/zh_CN'
p484
sg16
S'5ebe74be2a039fc6817c0f710bd0b295'
p485
sa(dp486
g2
S'35075'
p487
sg4
S'8407'
p488
sg6
S'6d9be4f3deb5c49bc8d2d61f4a867a09'
p489
sg8
S'xx6561a805d878d2d2645fe9094c11c776'
p490
sg10
S'xx2fc281c040f7e66306f1dff2a9d65551'
p491
sg12
S'xxb0cc16f2a9904a14a8e187874e6b6a74'
p492
sg14
S'Mozilla/5.0 (Linux; Android 4.4.4; L833-1 Build/KOT49H) AppleWebKit/537.36 (KHTML, like Gecko) Version/4.0 Chrome/37.0.0.0 Mobile MQQBrowser/6.8 TBS/036849 Safari/537.36 MicroMessenger/6.3.27.880 NetType/WIFI Language/zh_CN'
p493
sg16
S'5ebe74be2a039fc6817c0f710bd0b295'
p494
sa(dp495
g2
S'33935'
p496
sg4
S'8451'
p497
sg6
S'6d9be4f3deb5c49bc8d2d61f4a867a09'
p498
sg8
S'xx3850f43a000869922083d08b2d81cc11'
p499
sg10
S'xx2fc281c040f7e66306f1dff2a9d65551'
p500
sg12
S'xxb0cc16f2a9904a14a8e187874e6b6a74'
p501
sg14
S'Mozilla/5.0 (Linux; Android 4.4.4; L833-1 Build/KOT49H) AppleWebKit/537.36 (KHTML, like Gecko) Version/4.0 Chrome/37.0.0.0 Mobile MQQBrowser/6.8 TBS/036869 Safari/537.36 MicroMessenger/6.3.27.880 NetType/WIFI Language/zh_CN'
p502
sg16
S'7e920f352ded320fc83bb7ed2c2273de'
p503
sa(dp504
g2
S'33935'
p505
sg4
S'8465'
p506
sg6
S'6d9be4f3deb5c49bc8d2d61f4a867a09'
p507
sg8
S'xx3850f43a000869922083d08b2d81cc11'
p508
sg10
S'xx2fc281c040f7e66306f1dff2a9d65551'
p509
sg12
S'xxb0cc16f2a9904a14a8e187874e6b6a74'
p510
sg14
S'Mozilla/5.0 (Linux; Android 4.4.4; L833-1 Build/KOT49H) AppleWebKit/537.36 (KHTML, like Gecko) Version/4.0 Chrome/37.0.0.0 Mobile MQQBrowser/6.8 TBS/036869 Safari/537.36 MicroMessenger/6.3.27.880 NetType/WIFI Language/zh_CN'
p511
sg16
S'7e920f352ded320fc83bb7ed2c2273de'
p512
sa(dp513
g2
S'35075'
p514
sg4
S'8494'
p515
sg6
S'6d9be4f3deb5c49bc8d2d61f4a867a09'
p516
sg8
S'xx6561a805d878d2d2645fe9094c11c776'
p517
sg10
S'xx2fc281c040f7e66306f1dff2a9d65551'
p518
sg12
S'xxb0cc16f2a9904a14a8e187874e6b6a74'
p519
sg14
S'Mozilla/5.0 (Linux; Android 4.4.4; L833-1 Build/KOT49H) AppleWebKit/537.36 (KHTML, like Gecko) Version/4.0 Chrome/37.0.0.0 Mobile MQQBrowser/6.8 TBS/036849 Safari/537.36 MicroMessenger/6.3.27.880 NetType/WIFI Language/zh_CN'
p520
sg16
S'5ebe74be2a039fc6817c0f710bd0b295'
p521
sa(dp522
g2
S'35075'
p523
sg4
S'8506'
p524
sg6
S'6d9be4f3deb5c49bc8d2d61f4a867a09'
p525
sg8
S'xx6561a805d878d2d2645fe9094c11c776'
p526
sg10
S'xx2fc281c040f7e66306f1dff2a9d65551'
p527
sg12
S'xxb0cc16f2a9904a14a8e187874e6b6a74'
p528
sg14
S'Mozilla/5.0 (Linux; Android 4.4.4; L833-1 Build/KOT49H) AppleWebKit/537.36 (KHTML, like Gecko) Version/4.0 Chrome/37.0.0.0 Mobile MQQBrowser/6.8 TBS/036849 Safari/537.36 MicroMessenger/6.3.27.880 NetType/WIFI Language/zh_CN'
p529
sg16
S'5ebe74be2a039fc6817c0f710bd0b295'
p530
sa(dp531
g2
S'35075'
p532
sg4
S'8542'
p533
sg6
S'6d9be4f3deb5c49bc8d2d61f4a867a09'
p534
sg8
S'xx6561a805d878d2d2645fe9094c11c776'
p535
sg10
S'xx2fc281c040f7e66306f1dff2a9d65551'
p536
sg12
S'xxb0cc16f2a9904a14a8e187874e6b6a74'
p537
sg14
S'Mozilla/5.0 (Linux; Android 4.4.4; L833-1 Build/KOT49H) AppleWebKit/537.36 (KHTML, like Gecko) Version/4.0 Chrome/37.0.0.0 Mobile MQQBrowser/6.8 TBS/036849 Safari/537.36 MicroMessenger/6.3.27.880 NetType/WIFI Language/zh_CN'
p538
sg16
S'5ebe74be2a039fc6817c0f710bd0b295'
p539
sa(dp540
g2
S'35075'
p541
sg4
S'8667'
p542
sg6
S'6d9be4f3deb5c49bc8d2d61f4a867a09'
p543
sg8
S'xx6561a805d878d2d2645fe9094c11c776'
p544
sg10
S'xx2fc281c040f7e66306f1dff2a9d65551'
p545
sg12
S'xxb0cc16f2a9904a14a8e187874e6b6a74'
p546
sg14
S'Mozilla/5.0 (Linux; Android 4.4.4; L833-1 Build/KOT49H) AppleWebKit/537.36 (KHTML, like Gecko) Version/4.0 Chrome/37.0.0.0 Mobile MQQBrowser/6.8 TBS/036849 Safari/537.36 MicroMessenger/6.3.27.880 NetType/WIFI Language/zh_CN'
p547
sg16
S'5ebe74be2a039fc6817c0f710bd0b295'
p548
sa(dp549
g2
S'35075'
p550
sg4
S'8752'
p551
sg6
S'6d9be4f3deb5c49bc8d2d61f4a867a09'
p552
sg8
S'xx6561a805d878d2d2645fe9094c11c776'
p553
sg10
S'xx2fc281c040f7e66306f1dff2a9d65551'
p554
sg12
S'xxb0cc16f2a9904a14a8e187874e6b6a74'
p555
sg14
S'Mozilla/5.0 (Linux; Android 4.4.4; L833-1 Build/KOT49H) AppleWebKit/537.36 (KHTML, like Gecko) Version/4.0 Chrome/37.0.0.0 Mobile MQQBrowser/6.8 TBS/036849 Safari/537.36 MicroMessenger/6.3.27.880 NetType/WIFI Language/zh_CN'
p556
sg16
S'5ebe74be2a039fc6817c0f710bd0b295'
p557
sa(dp558
g2
S'35075'
p559
sg4
S'8795'
p560
sg6
S'6d9be4f3deb5c49bc8d2d61f4a867a09'
p561
sg8
S'xx6561a805d878d2d2645fe9094c11c776'
p562
sg10
S'xx2fc281c040f7e66306f1dff2a9d65551'
p563
sg12
S'xxb0cc16f2a9904a14a8e187874e6b6a74'
p564
sg14
S'Mozilla/5.0 (Linux; Android 4.4.4; L833-1 Build/KOT49H) AppleWebKit/537.36 (KHTML, like Gecko) Version/4.0 Chrome/37.0.0.0 Mobile MQQBrowser/6.8 TBS/036849 Safari/537.36 MicroMessenger/6.3.27.880 NetType/WIFI Language/zh_CN'
p565
sg16
S'5ebe74be2a039fc6817c0f710bd0b295'
p566
sa(dp567
g2
S'35075'
p568
sg4
S'8807'
p569
sg6
S'6d9be4f3deb5c49bc8d2d61f4a867a09'
p570
sg8
S'xx6561a805d878d2d2645fe9094c11c776'
p571
sg10
S'xx2fc281c040f7e66306f1dff2a9d65551'
p572
sg12
S'xxb0cc16f2a9904a14a8e187874e6b6a74'
p573
sg14
S'Mozilla/5.0 (Linux; Android 4.4.4; L833-1 Build/KOT49H) AppleWebKit/537.36 (KHTML, like Gecko) Version/4.0 Chrome/37.0.0.0 Mobile MQQBrowser/6.8 TBS/036849 Safari/537.36 MicroMessenger/6.3.27.880 NetType/WIFI Language/zh_CN'
p574
sg16
S'5ebe74be2a039fc6817c0f710bd0b295'
p575
sa.