(lp0
(dp1
S'user_id'
p2
S'17206'
p3
sS'data_id'
p4
S'1822'
p5
sS'ip'
p6
S'e1eda596336c6eaa93b502e1936d9e66'
p7
sS'phone_B'
p8
S'xxce3a3939f3eada5dd5c82c46110f081a'
p9
sS'phone_C'
p10
S'xx631361e845f1f19485b650e74f9e36e2'
p11
sS'phone_A'
p12
S'xxb1c34fd633a23ce95fab09939ccd89ba'
p13
sS'user_agent'
p14
S'Mozilla/5.0 (Linux; Android 6.0; Letv X501 Build/DBXCNOP5801810092S) AppleWebKit/537.36 (KHTML, like Gecko) Version/4.0 Chrome/37.0.0.0 Mobile MQQBrowser/6.8 TBS/036869 Safari/537.36 MicroMessenger/6.3.27.880 NetType/3gnet Language/zh_CN'
p15
sS'ua'
p16
S'c1ddbff32518f7b4ef09d210587b29a7'
p17
sa(dp18
g2
S'17206'
p19
sg4
S'1833'
p20
sg6
S'e1eda596336c6eaa93b502e1936d9e66'
p21
sg8
S'xxce3a3939f3eada5dd5c82c46110f081a'
p22
sg10
S'xx631361e845f1f19485b650e74f9e36e2'
p23
sg12
S'xxb1c34fd633a23ce95fab09939ccd89ba'
p24
sg14
S'Mozilla/5.0 (Linux; Android 6.0; Letv X501 Build/DBXCNOP5801810092S) AppleWebKit/537.36 (KHTML, like Gecko) Version/4.0 Chrome/37.0.0.0 Mobile MQQBrowser/6.8 TBS/036869 Safari/537.36 MicroMessenger/6.3.27.880 NetType/3gnet Language/zh_CN'
p25
sg16
S'c1ddbff32518f7b4ef09d210587b29a7'
p26
sa(dp27
g2
S'17206'
p28
sg4
S'2018'
p29
sg6
S'e1eda596336c6eaa93b502e1936d9e66'
p30
sg8
S'xxce3a3939f3eada5dd5c82c46110f081a'
p31
sg10
S'xx631361e845f1f19485b650e74f9e36e2'
p32
sg12
S'xxb1c34fd633a23ce95fab09939ccd89ba'
p33
sg14
S'Mozilla/5.0 (Linux; Android 6.0; Letv X501 Build/DBXCNOP5801810092S) AppleWebKit/537.36 (KHTML, like Gecko) Version/4.0 Chrome/37.0.0.0 Mobile MQQBrowser/6.8 TBS/036869 Safari/537.36 MicroMessenger/6.3.27.880 NetType/3gnet Language/zh_CN'
p34
sg16
S'c1ddbff32518f7b4ef09d210587b29a7'
p35
sa(dp36
g2
S'17206'
p37
sg4
S'2026'
p38
sg6
S'e1eda596336c6eaa93b502e1936d9e66'
p39
sg8
S'xxce3a3939f3eada5dd5c82c46110f081a'
p40
sg10
S'xx631361e845f1f19485b650e74f9e36e2'
p41
sg12
S'xxb1c34fd633a23ce95fab09939ccd89ba'
p42
sg14
S'Mozilla/5.0 (Linux; Android 6.0; Letv X501 Build/DBXCNOP5801810092S) AppleWebKit/537.36 (KHTML, like Gecko) Version/4.0 Chrome/37.0.0.0 Mobile MQQBrowser/6.8 TBS/036869 Safari/537.36 MicroMessenger/6.3.27.880 NetType/3gnet Language/zh_CN'
p43
sg16
S'c1ddbff32518f7b4ef09d210587b29a7'
p44
sa(dp45
g2
S'17206'
p46
sg4
S'2034'
p47
sg6
S'e1eda596336c6eaa93b502e1936d9e66'
p48
sg8
S'xxce3a3939f3eada5dd5c82c46110f081a'
p49
sg10
S'xx631361e845f1f19485b650e74f9e36e2'
p50
sg12
S'xxb1c34fd633a23ce95fab09939ccd89ba'
p51
sg14
S'Mozilla/5.0 (Linux; Android 6.0; Letv X501 Build/DBXCNOP5801810092S) AppleWebKit/537.36 (KHTML, like Gecko) Version/4.0 Chrome/37.0.0.0 Mobile MQQBrowser/6.8 TBS/036869 Safari/537.36 MicroMessenger/6.3.27.880 NetType/3gnet Language/zh_CN'
p52
sg16
S'c1ddbff32518f7b4ef09d210587b29a7'
p53
sa(dp54
g2
S'17206'
p55
sg4
S'2046'
p56
sg6
S'e1eda596336c6eaa93b502e1936d9e66'
p57
sg8
S'xxce3a3939f3eada5dd5c82c46110f081a'
p58
sg10
S'xx631361e845f1f19485b650e74f9e36e2'
p59
sg12
S'xxb1c34fd633a23ce95fab09939ccd89ba'
p60
sg14
S'Mozilla/5.0 (Linux; Android 6.0; Letv X501 Build/DBXCNOP5801810092S) AppleWebKit/537.36 (KHTML, like Gecko) Version/4.0 Chrome/37.0.0.0 Mobile MQQBrowser/6.8 TBS/036869 Safari/537.36 MicroMessenger/6.3.27.880 NetType/3gnet Language/zh_CN'
p61
sg16
S'c1ddbff32518f7b4ef09d210587b29a7'
p62
sa(dp63
g2
S'17206'
p64
sg4
S'2053'
p65
sg6
S'e1eda596336c6eaa93b502e1936d9e66'
p66
sg8
S'xxce3a3939f3eada5dd5c82c46110f081a'
p67
sg10
S'xx631361e845f1f19485b650e74f9e36e2'
p68
sg12
S'xxb1c34fd633a23ce95fab09939ccd89ba'
p69
sg14
S'Mozilla/5.0 (Linux; Android 6.0; Letv X501 Build/DBXCNOP5801810092S) AppleWebKit/537.36 (KHTML, like Gecko) Version/4.0 Chrome/37.0.0.0 Mobile MQQBrowser/6.8 TBS/036869 Safari/537.36 MicroMessenger/6.3.27.880 NetType/3gnet Language/zh_CN'
p70
sg16
S'c1ddbff32518f7b4ef09d210587b29a7'
p71
sa(dp72
g2
S'17206'
p73
sg4
S'2197'
p74
sg6
S'e1eda596336c6eaa93b502e1936d9e66'
p75
sg8
S'xxce3a3939f3eada5dd5c82c46110f081a'
p76
sg10
S'xx631361e845f1f19485b650e74f9e36e2'
p77
sg12
S'xxb1c34fd633a23ce95fab09939ccd89ba'
p78
sg14
S'Mozilla/5.0 (Linux; Android 6.0; Letv X501 Build/DBXCNOP5801810092S) AppleWebKit/537.36 (KHTML, like Gecko) Version/4.0 Chrome/37.0.0.0 Mobile MQQBrowser/6.8 TBS/036869 Safari/537.36 MicroMessenger/6.3.27.880 NetType/3gnet Language/zh_CN'
p79
sg16
S'c1ddbff32518f7b4ef09d210587b29a7'
p80
sa(dp81
g2
S'17206'
p82
sg4
S'2205'
p83
sg6
S'e1eda596336c6eaa93b502e1936d9e66'
p84
sg8
S'xxce3a3939f3eada5dd5c82c46110f081a'
p85
sg10
S'xx631361e845f1f19485b650e74f9e36e2'
p86
sg12
S'xxb1c34fd633a23ce95fab09939ccd89ba'
p87
sg14
S'Mozilla/5.0 (Linux; Android 6.0; Letv X501 Build/DBXCNOP5801810092S) AppleWebKit/537.36 (KHTML, like Gecko) Version/4.0 Chrome/37.0.0.0 Mobile MQQBrowser/6.8 TBS/036869 Safari/537.36 MicroMessenger/6.3.27.880 NetType/3gnet Language/zh_CN'
p88
sg16
S'c1ddbff32518f7b4ef09d210587b29a7'
p89
sa(dp90
g2
S'17206'
p91
sg4
S'2223'
p92
sg6
S'e1eda596336c6eaa93b502e1936d9e66'
p93
sg8
S'xxce3a3939f3eada5dd5c82c46110f081a'
p94
sg10
S'xx631361e845f1f19485b650e74f9e36e2'
p95
sg12
S'xxb1c34fd633a23ce95fab09939ccd89ba'
p96
sg14
S'Mozilla/5.0 (Linux; Android 6.0; Letv X501 Build/DBXCNOP5801810092S) AppleWebKit/537.36 (KHTML, like Gecko) Version/4.0 Chrome/37.0.0.0 Mobile MQQBrowser/6.8 TBS/036869 Safari/537.36 MicroMessenger/6.3.27.880 NetType/3gnet Language/zh_CN'
p97
sg16
S'c1ddbff32518f7b4ef09d210587b29a7'
p98
sa(dp99
g2
S'17206'
p100
sg4
S'2307'
p101
sg6
S'e1eda596336c6eaa93b502e1936d9e66'
p102
sg8
S'xxce3a3939f3eada5dd5c82c46110f081a'
p103
sg10
S'xx631361e845f1f19485b650e74f9e36e2'
p104
sg12
S'xxb1c34fd633a23ce95fab09939ccd89ba'
p105
sg14
S'Mozilla/5.0 (Linux; Android 6.0; Letv X501 Build/DBXCNOP5801810092S) AppleWebKit/537.36 (KHTML, like Gecko) Version/4.0 Chrome/37.0.0.0 Mobile MQQBrowser/6.8 TBS/036869 Safari/537.36 MicroMessenger/6.3.27.880 NetType/3gnet Language/zh_CN'
p106
sg16
S'c1ddbff32518f7b4ef09d210587b29a7'
p107
sa(dp108
g2
S'17206'
p109
sg4
S'2320'
p110
sg6
S'e1eda596336c6eaa93b502e1936d9e66'
p111
sg8
S'xxce3a3939f3eada5dd5c82c46110f081a'
p112
sg10
S'xx631361e845f1f19485b650e74f9e36e2'
p113
sg12
S'xxb1c34fd633a23ce95fab09939ccd89ba'
p114
sg14
S'Mozilla/5.0 (Linux; Android 6.0; Letv X501 Build/DBXCNOP5801810092S) AppleWebKit/537.36 (KHTML, like Gecko) Version/4.0 Chrome/37.0.0.0 Mobile MQQBrowser/6.8 TBS/036869 Safari/537.36 MicroMessenger/6.3.27.880 NetType/3gnet Language/zh_CN'
p115
sg16
S'c1ddbff32518f7b4ef09d210587b29a7'
p116
sa(dp117
g2
S'17206'
p118
sg4
S'2938'
p119
sg6
S'e1eda596336c6eaa93b502e1936d9e66'
p120
sg8
S'xxce3a3939f3eada5dd5c82c46110f081a'
p121
sg10
S'xx631361e845f1f19485b650e74f9e36e2'
p122
sg12
S'xxb1c34fd633a23ce95fab09939ccd89ba'
p123
sg14
S'Mozilla/5.0 (Linux; Android 6.0; Letv X501 Build/DBXCNOP5801810092S) AppleWebKit/537.36 (KHTML, like Gecko) Version/4.0 Chrome/37.0.0.0 Mobile MQQBrowser/6.8 TBS/036869 Safari/537.36 MicroMessenger/6.3.27.880 NetType/3gnet Language/zh_CN'
p124
sg16
S'c1ddbff32518f7b4ef09d210587b29a7'
p125
sa(dp126
g2
S'17206'
p127
sg4
S'2956'
p128
sg6
S'e1eda596336c6eaa93b502e1936d9e66'
p129
sg8
S'xxce3a3939f3eada5dd5c82c46110f081a'
p130
sg10
S'xx631361e845f1f19485b650e74f9e36e2'
p131
sg12
S'xxb1c34fd633a23ce95fab09939ccd89ba'
p132
sg14
S'Mozilla/5.0 (Linux; Android 6.0; Letv X501 Build/DBXCNOP5801810092S) AppleWebKit/537.36 (KHTML, like Gecko) Version/4.0 Chrome/37.0.0.0 Mobile MQQBrowser/6.8 TBS/036869 Safari/537.36 MicroMessenger/6.3.27.880 NetType/3gnet Language/zh_CN'
p133
sg16
S'c1ddbff32518f7b4ef09d210587b29a7'
p134
sa(dp135
g2
S'17206'
p136
sg4
S'3589'
p137
sg6
S'e1eda596336c6eaa93b502e1936d9e66'
p138
sg8
S'xxce3a3939f3eada5dd5c82c46110f081a'
p139
sg10
S'xx631361e845f1f19485b650e74f9e36e2'
p140
sg12
S'xxb1c34fd633a23ce95fab09939ccd89ba'
p141
sg14
S'Mozilla/5.0 (Linux; Android 6.0; Letv X501 Build/DBXCNOP5801810092S) AppleWebKit/537.36 (KHTML, like Gecko) Version/4.0 Chrome/37.0.0.0 Mobile MQQBrowser/6.8 TBS/036869 Safari/537.36 MicroMessenger/6.3.27.880 NetType/3gnet Language/zh_CN'
p142
sg16
S'c1ddbff32518f7b4ef09d210587b29a7'
p143
sa(dp144
g2
S'17206'
p145
sg4
S'3601'
p146
sg6
S'e1eda596336c6eaa93b502e1936d9e66'
p147
sg8
S'xxce3a3939f3eada5dd5c82c46110f081a'
p148
sg10
S'xx631361e845f1f19485b650e74f9e36e2'
p149
sg12
S'xxb1c34fd633a23ce95fab09939ccd89ba'
p150
sg14
S'Mozilla/5.0 (Linux; Android 6.0; Letv X501 Build/DBXCNOP5801810092S) AppleWebKit/537.36 (KHTML, like Gecko) Version/4.0 Chrome/37.0.0.0 Mobile MQQBrowser/6.8 TBS/036869 Safari/537.36 MicroMessenger/6.3.27.880 NetType/3gnet Language/zh_CN'
p151
sg16
S'c1ddbff32518f7b4ef09d210587b29a7'
p152
sa(dp153
g2
S'17206'
p154
sg4
S'3620'
p155
sg6
S'e1eda596336c6eaa93b502e1936d9e66'
p156
sg8
S'xxce3a3939f3eada5dd5c82c46110f081a'
p157
sg10
S'xx631361e845f1f19485b650e74f9e36e2'
p158
sg12
S'xxb1c34fd633a23ce95fab09939ccd89ba'
p159
sg14
S'Mozilla/5.0 (Linux; Android 6.0; Letv X501 Build/DBXCNOP5801810092S) AppleWebKit/537.36 (KHTML, like Gecko) Version/4.0 Chrome/37.0.0.0 Mobile MQQBrowser/6.8 TBS/036869 Safari/537.36 MicroMessenger/6.3.27.880 NetType/3gnet Language/zh_CN'
p160
sg16
S'c1ddbff32518f7b4ef09d210587b29a7'
p161
sa(dp162
g2
S'49281'
p163
sg4
S'3871'
p164
sg6
S'0399a46f8e0a2d72ddac2f7e95ed29b2'
p165
sg8
S'xx0c505e965decaf5802ce738501629851'
p166
sg10
S'xx631361e845f1f19485b650e74f9e36e2'
p167
sg12
S'xxb1c34fd633a23ce95fab09939ccd89ba'
p168
sg14
S'Mozilla/5.0 (Linux; Android 6.0; Letv X501 Build/DBXCNOP5801810092S) AppleWebKit/537.36 (KHTML, like Gecko) Version/4.0 Chrome/37.0.0.0 Mobile MQQBrowser/6.8 TBS/036849 Safari/537.36 MicroMessenger/6.3.25.861 NetType/cmnet Language/zh_CN'
p169
sg16
S'e3fc9198a487f6d20cf94ca214af08d7'
p170
sa(dp171
g2
S'49281'
p172
sg4
S'3893'
p173
sg6
S'0399a46f8e0a2d72ddac2f7e95ed29b2'
p174
sg8
S'xx0c505e965decaf5802ce738501629851'
p175
sg10
S'xx631361e845f1f19485b650e74f9e36e2'
p176
sg12
S'xxb1c34fd633a23ce95fab09939ccd89ba'
p177
sg14
S'Mozilla/5.0 (Linux; Android 6.0; Letv X501 Build/DBXCNOP5801810092S) AppleWebKit/537.36 (KHTML, like Gecko) Version/4.0 Chrome/37.0.0.0 Mobile MQQBrowser/6.8 TBS/036849 Safari/537.36 MicroMessenger/6.3.25.861 NetType/cmnet Language/zh_CN'
p178
sg16
S'e3fc9198a487f6d20cf94ca214af08d7'
p179
sa(dp180
g2
S'17206'
p181
sg4
S'3995'
p182
sg6
S'e1eda596336c6eaa93b502e1936d9e66'
p183
sg8
S'xxce3a3939f3eada5dd5c82c46110f081a'
p184
sg10
S'xx631361e845f1f19485b650e74f9e36e2'
p185
sg12
S'xxb1c34fd633a23ce95fab09939ccd89ba'
p186
sg14
S'Mozilla/5.0 (Linux; Android 6.0; Letv X501 Build/DBXCNOP5801810092S) AppleWebKit/537.36 (KHTML, like Gecko) Version/4.0 Chrome/37.0.0.0 Mobile MQQBrowser/6.8 TBS/036869 Safari/537.36 MicroMessenger/6.3.27.880 NetType/3gnet Language/zh_CN'
p187
sg16
S'c1ddbff32518f7b4ef09d210587b29a7'
p188
sa(dp189
g2
S'17206'
p190
sg4
S'4014'
p191
sg6
S'e1eda596336c6eaa93b502e1936d9e66'
p192
sg8
S'xxce3a3939f3eada5dd5c82c46110f081a'
p193
sg10
S'xx631361e845f1f19485b650e74f9e36e2'
p194
sg12
S'xxb1c34fd633a23ce95fab09939ccd89ba'
p195
sg14
S'Mozilla/5.0 (Linux; Android 6.0; Letv X501 Build/DBXCNOP5801810092S) AppleWebKit/537.36 (KHTML, like Gecko) Version/4.0 Chrome/37.0.0.0 Mobile MQQBrowser/6.8 TBS/036869 Safari/537.36 MicroMessenger/6.3.27.880 NetType/3gnet Language/zh_CN'
p196
sg16
S'c1ddbff32518f7b4ef09d210587b29a7'
p197
sa(dp198
g2
S'33121'
p199
sg4
S'4057'
p200
sg6
S'4f3bae007f71f966a9131e92c0626932'
p201
sg8
S'xx306ef7fa8782d3cf35812c275c2305d2'
p202
sg10
S'xx631361e845f1f19485b650e74f9e36e2'
p203
sg12
S'xxb1c34fd633a23ce95fab09939ccd89ba'
p204
sg14
S'Mozilla/5.0 (Linux; Android 6.0; Letv X501 Build/DBXCNOP5801810092S) AppleWebKit/537.36 (KHTML, like Gecko) Version/4.0 Chrome/37.0.0.0 Mobile MQQBrowser/6.8 TBS/036865 Safari/537.36 MicroMessenger/6.3.27.880 NetType/cmnet Language/zh_CN'
p205
sg16
S'707b72117fbca6d97b422a0a989facab'
p206
sa(dp207
g2
S'17206'
p208
sg4
S'4133'
p209
sg6
S'e1eda596336c6eaa93b502e1936d9e66'
p210
sg8
S'xxce3a3939f3eada5dd5c82c46110f081a'
p211
sg10
S'xx631361e845f1f19485b650e74f9e36e2'
p212
sg12
S'xxb1c34fd633a23ce95fab09939ccd89ba'
p213
sg14
S'Mozilla/5.0 (Linux; Android 6.0; Letv X501 Build/DBXCNOP5801810092S) AppleWebKit/537.36 (KHTML, like Gecko) Version/4.0 Chrome/37.0.0.0 Mobile MQQBrowser/6.8 TBS/036869 Safari/537.36 MicroMessenger/6.3.27.880 NetType/3gnet Language/zh_CN'
p214
sg16
S'c1ddbff32518f7b4ef09d210587b29a7'
p215
sa(dp216
g2
S'17206'
p217
sg4
S'4318'
p218
sg6
S'e1eda596336c6eaa93b502e1936d9e66'
p219
sg8
S'xxce3a3939f3eada5dd5c82c46110f081a'
p220
sg10
S'xx631361e845f1f19485b650e74f9e36e2'
p221
sg12
S'xxb1c34fd633a23ce95fab09939ccd89ba'
p222
sg14
S'Mozilla/5.0 (Linux; Android 6.0; Letv X501 Build/DBXCNOP5801810092S) AppleWebKit/537.36 (KHTML, like Gecko) Version/4.0 Chrome/37.0.0.0 Mobile MQQBrowser/6.8 TBS/036869 Safari/537.36 MicroMessenger/6.3.27.880 NetType/3gnet Language/zh_CN'
p223
sg16
S'c1ddbff32518f7b4ef09d210587b29a7'
p224
sa(dp225
g2
S'17206'
p226
sg4
S'4340'
p227
sg6
S'e1eda596336c6eaa93b502e1936d9e66'
p228
sg8
S'xxce3a3939f3eada5dd5c82c46110f081a'
p229
sg10
S'xx631361e845f1f19485b650e74f9e36e2'
p230
sg12
S'xxb1c34fd633a23ce95fab09939ccd89ba'
p231
sg14
S'Mozilla/5.0 (Linux; Android 6.0; Letv X501 Build/DBXCNOP5801810092S) AppleWebKit/537.36 (KHTML, like Gecko) Version/4.0 Chrome/37.0.0.0 Mobile MQQBrowser/6.8 TBS/036869 Safari/537.36 MicroMessenger/6.3.27.880 NetType/3gnet Language/zh_CN'
p232
sg16
S'c1ddbff32518f7b4ef09d210587b29a7'
p233
sa(dp234
g2
S'17206'
p235
sg4
S'4354'
p236
sg6
S'e1eda596336c6eaa93b502e1936d9e66'
p237
sg8
S'xxce3a3939f3eada5dd5c82c46110f081a'
p238
sg10
S'xx631361e845f1f19485b650e74f9e36e2'
p239
sg12
S'xxb1c34fd633a23ce95fab09939ccd89ba'
p240
sg14
S'Mozilla/5.0 (Linux; Android 6.0; Letv X501 Build/DBXCNOP5801810092S) AppleWebKit/537.36 (KHTML, like Gecko) Version/4.0 Chrome/37.0.0.0 Mobile MQQBrowser/6.8 TBS/036869 Safari/537.36 MicroMessenger/6.3.27.880 NetType/3gnet Language/zh_CN'
p241
sg16
S'c1ddbff32518f7b4ef09d210587b29a7'
p242
sa(dp243
g2
S'17206'
p244
sg4
S'4375'
p245
sg6
S'e1eda596336c6eaa93b502e1936d9e66'
p246
sg8
S'xxce3a3939f3eada5dd5c82c46110f081a'
p247
sg10
S'xx631361e845f1f19485b650e74f9e36e2'
p248
sg12
S'xxb1c34fd633a23ce95fab09939ccd89ba'
p249
sg14
S'Mozilla/5.0 (Linux; Android 6.0; Letv X501 Build/DBXCNOP5801810092S) AppleWebKit/537.36 (KHTML, like Gecko) Version/4.0 Chrome/37.0.0.0 Mobile MQQBrowser/6.8 TBS/036869 Safari/537.36 MicroMessenger/6.3.27.880 NetType/3gnet Language/zh_CN'
p250
sg16
S'c1ddbff32518f7b4ef09d210587b29a7'
p251
sa(dp252
g2
S'17206'
p253
sg4
S'5112'
p254
sg6
S'e1eda596336c6eaa93b502e1936d9e66'
p255
sg8
S'xxce3a3939f3eada5dd5c82c46110f081a'
p256
sg10
S'xx631361e845f1f19485b650e74f9e36e2'
p257
sg12
S'xxb1c34fd633a23ce95fab09939ccd89ba'
p258
sg14
S'Mozilla/5.0 (Linux; Android 6.0; Letv X501 Build/DBXCNOP5801810092S) AppleWebKit/537.36 (KHTML, like Gecko) Version/4.0 Chrome/37.0.0.0 Mobile MQQBrowser/6.8 TBS/036869 Safari/537.36 MicroMessenger/6.3.27.880 NetType/3gnet Language/zh_CN'
p259
sg16
S'c1ddbff32518f7b4ef09d210587b29a7'
p260
sa(dp261
g2
S'17206'
p262
sg4
S'5125'
p263
sg6
S'e1eda596336c6eaa93b502e1936d9e66'
p264
sg8
S'xxce3a3939f3eada5dd5c82c46110f081a'
p265
sg10
S'xx631361e845f1f19485b650e74f9e36e2'
p266
sg12
S'xxb1c34fd633a23ce95fab09939ccd89ba'
p267
sg14
S'Mozilla/5.0 (Linux; Android 6.0; Letv X501 Build/DBXCNOP5801810092S) AppleWebKit/537.36 (KHTML, like Gecko) Version/4.0 Chrome/37.0.0.0 Mobile MQQBrowser/6.8 TBS/036869 Safari/537.36 MicroMessenger/6.3.27.880 NetType/3gnet Language/zh_CN'
p268
sg16
S'c1ddbff32518f7b4ef09d210587b29a7'
p269
sa(dp270
g2
S'33121'
p271
sg4
S'5592'
p272
sg6
S'4f3bae007f71f966a9131e92c0626932'
p273
sg8
S'xx306ef7fa8782d3cf35812c275c2305d2'
p274
sg10
S'xx631361e845f1f19485b650e74f9e36e2'
p275
sg12
S'xxb1c34fd633a23ce95fab09939ccd89ba'
p276
sg14
S'Mozilla/5.0 (Linux; Android 6.0; Letv X501 Build/DBXCNOP5801810092S) AppleWebKit/537.36 (KHTML, like Gecko) Version/4.0 Chrome/37.0.0.0 Mobile MQQBrowser/6.8 TBS/036865 Safari/537.36 MicroMessenger/6.3.27.880 NetType/cmnet Language/zh_CN'
p277
sg16
S'707b72117fbca6d97b422a0a989facab'
p278
sa(dp279
g2
S'17206'
p280
sg4
S'5804'
p281
sg6
S'e1eda596336c6eaa93b502e1936d9e66'
p282
sg8
S'xxce3a3939f3eada5dd5c82c46110f081a'
p283
sg10
S'xx631361e845f1f19485b650e74f9e36e2'
p284
sg12
S'xxb1c34fd633a23ce95fab09939ccd89ba'
p285
sg14
S'Mozilla/5.0 (Linux; Android 6.0; Letv X501 Build/DBXCNOP5801810092S) AppleWebKit/537.36 (KHTML, like Gecko) Version/4.0 Chrome/37.0.0.0 Mobile MQQBrowser/6.8 TBS/036869 Safari/537.36 MicroMessenger/6.3.27.880 NetType/3gnet Language/zh_CN'
p286
sg16
S'c1ddbff32518f7b4ef09d210587b29a7'
p287
sa(dp288
g2
S'33121'
p289
sg4
S'5815'
p290
sg6
S'4f3bae007f71f966a9131e92c0626932'
p291
sg8
S'xx306ef7fa8782d3cf35812c275c2305d2'
p292
sg10
S'xx631361e845f1f19485b650e74f9e36e2'
p293
sg12
S'xxb1c34fd633a23ce95fab09939ccd89ba'
p294
sg14
S'Mozilla/5.0 (Linux; Android 6.0; Letv X501 Build/DBXCNOP5801810092S) AppleWebKit/537.36 (KHTML, like Gecko) Version/4.0 Chrome/37.0.0.0 Mobile MQQBrowser/6.8 TBS/036865 Safari/537.36 MicroMessenger/6.3.27.880 NetType/cmnet Language/zh_CN'
p295
sg16
S'707b72117fbca6d97b422a0a989facab'
p296
sa(dp297
g2
S'17206'
p298
sg4
S'5823'
p299
sg6
S'e1eda596336c6eaa93b502e1936d9e66'
p300
sg8
S'xxce3a3939f3eada5dd5c82c46110f081a'
p301
sg10
S'xx631361e845f1f19485b650e74f9e36e2'
p302
sg12
S'xxb1c34fd633a23ce95fab09939ccd89ba'
p303
sg14
S'Mozilla/5.0 (Linux; Android 6.0; Letv X501 Build/DBXCNOP5801810092S) AppleWebKit/537.36 (KHTML, like Gecko) Version/4.0 Chrome/37.0.0.0 Mobile MQQBrowser/6.8 TBS/036869 Safari/537.36 MicroMessenger/6.3.27.880 NetType/3gnet Language/zh_CN'
p304
sg16
S'c1ddbff32518f7b4ef09d210587b29a7'
p305
sa(dp306
g2
S'33121'
p307
sg4
S'5833'
p308
sg6
S'4f3bae007f71f966a9131e92c0626932'
p309
sg8
S'xx306ef7fa8782d3cf35812c275c2305d2'
p310
sg10
S'xx631361e845f1f19485b650e74f9e36e2'
p311
sg12
S'xxb1c34fd633a23ce95fab09939ccd89ba'
p312
sg14
S'Mozilla/5.0 (Linux; Android 6.0; Letv X501 Build/DBXCNOP5801810092S) AppleWebKit/537.36 (KHTML, like Gecko) Version/4.0 Chrome/37.0.0.0 Mobile MQQBrowser/6.8 TBS/036865 Safari/537.36 MicroMessenger/6.3.27.880 NetType/cmnet Language/zh_CN'
p313
sg16
S'707b72117fbca6d97b422a0a989facab'
p314
sa(dp315
g2
S'33121'
p316
sg4
S'5864'
p317
sg6
S'4f3bae007f71f966a9131e92c0626932'
p318
sg8
S'xx306ef7fa8782d3cf35812c275c2305d2'
p319
sg10
S'xx631361e845f1f19485b650e74f9e36e2'
p320
sg12
S'xxb1c34fd633a23ce95fab09939ccd89ba'
p321
sg14
S'Mozilla/5.0 (Linux; Android 6.0; Letv X501 Build/DBXCNOP5801810092S) AppleWebKit/537.36 (KHTML, like Gecko) Version/4.0 Chrome/37.0.0.0 Mobile MQQBrowser/6.8 TBS/036865 Safari/537.36 MicroMessenger/6.3.27.880 NetType/cmnet Language/zh_CN'
p322
sg16
S'707b72117fbca6d97b422a0a989facab'
p323
sa(dp324
g2
S'17206'
p325
sg4
S'5900'
p326
sg6
S'e1eda596336c6eaa93b502e1936d9e66'
p327
sg8
S'xxce3a3939f3eada5dd5c82c46110f081a'
p328
sg10
S'xx631361e845f1f19485b650e74f9e36e2'
p329
sg12
S'xxb1c34fd633a23ce95fab09939ccd89ba'
p330
sg14
S'Mozilla/5.0 (Linux; Android 6.0; Letv X501 Build/DBXCNOP5801810092S) AppleWebKit/537.36 (KHTML, like Gecko) Version/4.0 Chrome/37.0.0.0 Mobile MQQBrowser/6.8 TBS/036869 Safari/537.36 MicroMessenger/6.3.27.880 NetType/3gnet Language/zh_CN'
p331
sg16
S'c1ddbff32518f7b4ef09d210587b29a7'
p332
sa(dp333
g2
S'17206'
p334
sg4
S'5918'
p335
sg6
S'e1eda596336c6eaa93b502e1936d9e66'
p336
sg8
S'xxce3a3939f3eada5dd5c82c46110f081a'
p337
sg10
S'xx631361e845f1f19485b650e74f9e36e2'
p338
sg12
S'xxb1c34fd633a23ce95fab09939ccd89ba'
p339
sg14
S'Mozilla/5.0 (Linux; Android 6.0; Letv X501 Build/DBXCNOP5801810092S) AppleWebKit/537.36 (KHTML, like Gecko) Version/4.0 Chrome/37.0.0.0 Mobile MQQBrowser/6.8 TBS/036869 Safari/537.36 MicroMessenger/6.3.27.880 NetType/3gnet Language/zh_CN'
p340
sg16
S'c1ddbff32518f7b4ef09d210587b29a7'
p341
sa(dp342
g2
S'17206'
p343
sg4
S'5937'
p344
sg6
S'e1eda596336c6eaa93b502e1936d9e66'
p345
sg8
S'xxce3a3939f3eada5dd5c82c46110f081a'
p346
sg10
S'xx631361e845f1f19485b650e74f9e36e2'
p347
sg12
S'xxb1c34fd633a23ce95fab09939ccd89ba'
p348
sg14
S'Mozilla/5.0 (Linux; Android 6.0; Letv X501 Build/DBXCNOP5801810092S) AppleWebKit/537.36 (KHTML, like Gecko) Version/4.0 Chrome/37.0.0.0 Mobile MQQBrowser/6.8 TBS/036869 Safari/537.36 MicroMessenger/6.3.27.880 NetType/3gnet Language/zh_CN'
p349
sg16
S'c1ddbff32518f7b4ef09d210587b29a7'
p350
sa(dp351
g2
S'17206'
p352
sg4
S'5955'
p353
sg6
S'e1eda596336c6eaa93b502e1936d9e66'
p354
sg8
S'xxce3a3939f3eada5dd5c82c46110f081a'
p355
sg10
S'xx631361e845f1f19485b650e74f9e36e2'
p356
sg12
S'xxb1c34fd633a23ce95fab09939ccd89ba'
p357
sg14
S'Mozilla/5.0 (Linux; Android 6.0; Letv X501 Build/DBXCNOP5801810092S) AppleWebKit/537.36 (KHTML, like Gecko) Version/4.0 Chrome/37.0.0.0 Mobile MQQBrowser/6.8 TBS/036869 Safari/537.36 MicroMessenger/6.3.27.880 NetType/3gnet Language/zh_CN'
p358
sg16
S'c1ddbff32518f7b4ef09d210587b29a7'
p359
sa(dp360
g2
S'17206'
p361
sg4
S'5986'
p362
sg6
S'e1eda596336c6eaa93b502e1936d9e66'
p363
sg8
S'xxce3a3939f3eada5dd5c82c46110f081a'
p364
sg10
S'xx631361e845f1f19485b650e74f9e36e2'
p365
sg12
S'xxb1c34fd633a23ce95fab09939ccd89ba'
p366
sg14
S'Mozilla/5.0 (Linux; Android 6.0; Letv X501 Build/DBXCNOP5801810092S) AppleWebKit/537.36 (KHTML, like Gecko) Version/4.0 Chrome/37.0.0.0 Mobile MQQBrowser/6.8 TBS/036869 Safari/537.36 MicroMessenger/6.3.27.880 NetType/3gnet Language/zh_CN'
p367
sg16
S'c1ddbff32518f7b4ef09d210587b29a7'
p368
sa(dp369
g2
S'17206'
p370
sg4
S'6016'
p371
sg6
S'e1eda596336c6eaa93b502e1936d9e66'
p372
sg8
S'xxce3a3939f3eada5dd5c82c46110f081a'
p373
sg10
S'xx631361e845f1f19485b650e74f9e36e2'
p374
sg12
S'xxb1c34fd633a23ce95fab09939ccd89ba'
p375
sg14
S'Mozilla/5.0 (Linux; Android 6.0; Letv X501 Build/DBXCNOP5801810092S) AppleWebKit/537.36 (KHTML, like Gecko) Version/4.0 Chrome/37.0.0.0 Mobile MQQBrowser/6.8 TBS/036869 Safari/537.36 MicroMessenger/6.3.27.880 NetType/3gnet Language/zh_CN'
p376
sg16
S'c1ddbff32518f7b4ef09d210587b29a7'
p377
sa(dp378
g2
S'17206'
p379
sg4
S'6041'
p380
sg6
S'e1eda596336c6eaa93b502e1936d9e66'
p381
sg8
S'xxce3a3939f3eada5dd5c82c46110f081a'
p382
sg10
S'xx631361e845f1f19485b650e74f9e36e2'
p383
sg12
S'xxb1c34fd633a23ce95fab09939ccd89ba'
p384
sg14
S'Mozilla/5.0 (Linux; Android 6.0; Letv X501 Build/DBXCNOP5801810092S) AppleWebKit/537.36 (KHTML, like Gecko) Version/4.0 Chrome/37.0.0.0 Mobile MQQBrowser/6.8 TBS/036869 Safari/537.36 MicroMessenger/6.3.27.880 NetType/3gnet Language/zh_CN'
p385
sg16
S'c1ddbff32518f7b4ef09d210587b29a7'
p386
sa(dp387
g2
S'17206'
p388
sg4
S'6124'
p389
sg6
S'e1eda596336c6eaa93b502e1936d9e66'
p390
sg8
S'xxce3a3939f3eada5dd5c82c46110f081a'
p391
sg10
S'xx631361e845f1f19485b650e74f9e36e2'
p392
sg12
S'xxb1c34fd633a23ce95fab09939ccd89ba'
p393
sg14
S'Mozilla/5.0 (Linux; Android 6.0; Letv X501 Build/DBXCNOP5801810092S) AppleWebKit/537.36 (KHTML, like Gecko) Version/4.0 Chrome/37.0.0.0 Mobile MQQBrowser/6.8 TBS/036869 Safari/537.36 MicroMessenger/6.3.27.880 NetType/3gnet Language/zh_CN'
p394
sg16
S'c1ddbff32518f7b4ef09d210587b29a7'
p395
sa(dp396
g2
S'17206'
p397
sg4
S'6140'
p398
sg6
S'e1eda596336c6eaa93b502e1936d9e66'
p399
sg8
S'xxce3a3939f3eada5dd5c82c46110f081a'
p400
sg10
S'xx631361e845f1f19485b650e74f9e36e2'
p401
sg12
S'xxb1c34fd633a23ce95fab09939ccd89ba'
p402
sg14
S'Mozilla/5.0 (Linux; Android 6.0; Letv X501 Build/DBXCNOP5801810092S) AppleWebKit/537.36 (KHTML, like Gecko) Version/4.0 Chrome/37.0.0.0 Mobile MQQBrowser/6.8 TBS/036869 Safari/537.36 MicroMessenger/6.3.27.880 NetType/3gnet Language/zh_CN'
p403
sg16
S'c1ddbff32518f7b4ef09d210587b29a7'
p404
sa(dp405
g2
S'17206'
p406
sg4
S'6155'
p407
sg6
S'e1eda596336c6eaa93b502e1936d9e66'
p408
sg8
S'xxce3a3939f3eada5dd5c82c46110f081a'
p409
sg10
S'xx631361e845f1f19485b650e74f9e36e2'
p410
sg12
S'xxb1c34fd633a23ce95fab09939ccd89ba'
p411
sg14
S'Mozilla/5.0 (Linux; Android 6.0; Letv X501 Build/DBXCNOP5801810092S) AppleWebKit/537.36 (KHTML, like Gecko) Version/4.0 Chrome/37.0.0.0 Mobile MQQBrowser/6.8 TBS/036869 Safari/537.36 MicroMessenger/6.3.27.880 NetType/3gnet Language/zh_CN'
p412
sg16
S'c1ddbff32518f7b4ef09d210587b29a7'
p413
sa(dp414
g2
S'17206'
p415
sg4
S'6175'
p416
sg6
S'e1eda596336c6eaa93b502e1936d9e66'
p417
sg8
S'xxce3a3939f3eada5dd5c82c46110f081a'
p418
sg10
S'xx631361e845f1f19485b650e74f9e36e2'
p419
sg12
S'xxb1c34fd633a23ce95fab09939ccd89ba'
p420
sg14
S'Mozilla/5.0 (Linux; Android 6.0; Letv X501 Build/DBXCNOP5801810092S) AppleWebKit/537.36 (KHTML, like Gecko) Version/4.0 Chrome/37.0.0.0 Mobile MQQBrowser/6.8 TBS/036869 Safari/537.36 MicroMessenger/6.3.27.880 NetType/3gnet Language/zh_CN'
p421
sg16
S'c1ddbff32518f7b4ef09d210587b29a7'
p422
sa(dp423
g2
S'17206'
p424
sg4
S'6478'
p425
sg6
S'e1eda596336c6eaa93b502e1936d9e66'
p426
sg8
S'xxce3a3939f3eada5dd5c82c46110f081a'
p427
sg10
S'xx631361e845f1f19485b650e74f9e36e2'
p428
sg12
S'xxb1c34fd633a23ce95fab09939ccd89ba'
p429
sg14
S'Mozilla/5.0 (Linux; Android 6.0; Letv X501 Build/DBXCNOP5801810092S) AppleWebKit/537.36 (KHTML, like Gecko) Version/4.0 Chrome/37.0.0.0 Mobile MQQBrowser/6.8 TBS/036869 Safari/537.36 MicroMessenger/6.3.27.880 NetType/3gnet Language/zh_CN'
p430
sg16
S'c1ddbff32518f7b4ef09d210587b29a7'
p431
sa.