(lp0
(dp1
S'user_id'
p2
S'29400'
p3
sS'data_id'
p4
S'5193'
p5
sS'ip'
p6
S'0d54477eba18a611ad79ae225517a929'
p7
sS'phone_B'
p8
S'xxdc994e9117a6703fb7169d48315c7af7'
p9
sS'phone_C'
p10
S'xx0cd7a6f2e85b8e05fb014b9b634a62b4'
p11
sS'phone_A'
p12
S'xxb174d81f81553d06b3ef32e175cc4229'
p13
sS'user_agent'
p14
S'Mozilla/5.0 (Linux; Android 5.1; F1 Build/LMY47D) AppleWebKit/537.36 (KHTML, like Gecko) Version/4.0 Chrome/37.0.0.0 Mobile MQQBrowser/6.8 TBS/036824 Safari/537.36 MicroMessenger/6.3.27.880 NetType/WIFI Language/zh_CN'
p15
sS'ua'
p16
S'c44af55dc00416cf4e15d6bcd8856f1d'
p17
sa(dp18
g2
S'29400'
p19
sg4
S'5209'
p20
sg6
S'0d54477eba18a611ad79ae225517a929'
p21
sg8
S'xxdc994e9117a6703fb7169d48315c7af7'
p22
sg10
S'xx0cd7a6f2e85b8e05fb014b9b634a62b4'
p23
sg12
S'xxb174d81f81553d06b3ef32e175cc4229'
p24
sg14
S'Mozilla/5.0 (Linux; Android 5.1; F1 Build/LMY47D) AppleWebKit/537.36 (KHTML, like Gecko) Version/4.0 Chrome/37.0.0.0 Mobile MQQBrowser/6.8 TBS/036824 Safari/537.36 MicroMessenger/6.3.27.880 NetType/WIFI Language/zh_CN'
p25
sg16
S'c44af55dc00416cf4e15d6bcd8856f1d'
p26
sa.