(lp0
(dp1
S'user_id'
p2
S'38705'
p3
sS'data_id'
p4
S'368'
p5
sS'ip'
p6
S'c0d0973a880a3fef7d1c538f026d6873'
p7
sS'phone_B'
p8
S'xx906e0ff09176c44324e60706c298ba50'
p9
sS'phone_C'
p10
S'xx5475fc0ba51de281e444e9160b83d926'
p11
sS'phone_A'
p12
S'xxb1ec23e88222e2f76e9fd47236750c20'
p13
sS'user_agent'
p14
S'Mozilla/5.0 (Linux; Android 6.0; HUAWEI NXT-AL10 Build/HUAWEINXT-AL10) AppleWebKit/537.36 (KHTML, like Gecko) Version/4.0 Chrome/37.0.0.0 Mobile MQQBrowser/6.8 TBS/036824 Safari/537.36 MicroMessenger/6.3.25.861 NetType/cmnet Language/zh_CN'
p15
sS'ua'
p16
S'78651fc76f86c44ed9089b57a1bac85a'
p17
sa(dp18
g2
S'38705'
p19
sg4
S'377'
p20
sg6
S'c0d0973a880a3fef7d1c538f026d6873'
p21
sg8
S'xx906e0ff09176c44324e60706c298ba50'
p22
sg10
S'xx5475fc0ba51de281e444e9160b83d926'
p23
sg12
S'xxb1ec23e88222e2f76e9fd47236750c20'
p24
sg14
S'Mozilla/5.0 (Linux; Android 6.0; HUAWEI NXT-AL10 Build/HUAWEINXT-AL10) AppleWebKit/537.36 (KHTML, like Gecko) Version/4.0 Chrome/37.0.0.0 Mobile MQQBrowser/6.8 TBS/036824 Safari/537.36 MicroMessenger/6.3.25.861 NetType/cmnet Language/zh_CN'
p25
sg16
S'78651fc76f86c44ed9089b57a1bac85a'
p26
sa(dp27
g2
S'38705'
p28
sg4
S'397'
p29
sg6
S'c0d0973a880a3fef7d1c538f026d6873'
p30
sg8
S'xx906e0ff09176c44324e60706c298ba50'
p31
sg10
S'xx5475fc0ba51de281e444e9160b83d926'
p32
sg12
S'xxb1ec23e88222e2f76e9fd47236750c20'
p33
sg14
S'Mozilla/5.0 (Linux; Android 6.0; HUAWEI NXT-AL10 Build/HUAWEINXT-AL10) AppleWebKit/537.36 (KHTML, like Gecko) Version/4.0 Chrome/37.0.0.0 Mobile MQQBrowser/6.8 TBS/036824 Safari/537.36 MicroMessenger/6.3.25.861 NetType/cmnet Language/zh_CN'
p34
sg16
S'78651fc76f86c44ed9089b57a1bac85a'
p35
sa(dp36
g2
S'38705'
p37
sg4
S'413'
p38
sg6
S'c0d0973a880a3fef7d1c538f026d6873'
p39
sg8
S'xx906e0ff09176c44324e60706c298ba50'
p40
sg10
S'xx5475fc0ba51de281e444e9160b83d926'
p41
sg12
S'xxb1ec23e88222e2f76e9fd47236750c20'
p42
sg14
S'Mozilla/5.0 (Linux; Android 6.0; HUAWEI NXT-AL10 Build/HUAWEINXT-AL10) AppleWebKit/537.36 (KHTML, like Gecko) Version/4.0 Chrome/37.0.0.0 Mobile MQQBrowser/6.8 TBS/036824 Safari/537.36 MicroMessenger/6.3.25.861 NetType/cmnet Language/zh_CN'
p43
sg16
S'78651fc76f86c44ed9089b57a1bac85a'
p44
sa(dp45
g2
S'38705'
p46
sg4
S'423'
p47
sg6
S'c0d0973a880a3fef7d1c538f026d6873'
p48
sg8
S'xx906e0ff09176c44324e60706c298ba50'
p49
sg10
S'xx5475fc0ba51de281e444e9160b83d926'
p50
sg12
S'xxb1ec23e88222e2f76e9fd47236750c20'
p51
sg14
S'Mozilla/5.0 (Linux; Android 6.0; HUAWEI NXT-AL10 Build/HUAWEINXT-AL10) AppleWebKit/537.36 (KHTML, like Gecko) Version/4.0 Chrome/37.0.0.0 Mobile MQQBrowser/6.8 TBS/036824 Safari/537.36 MicroMessenger/6.3.25.861 NetType/cmnet Language/zh_CN'
p52
sg16
S'78651fc76f86c44ed9089b57a1bac85a'
p53
sa(dp54
g2
S'38705'
p55
sg4
S'450'
p56
sg6
S'c0d0973a880a3fef7d1c538f026d6873'
p57
sg8
S'xx906e0ff09176c44324e60706c298ba50'
p58
sg10
S'xx5475fc0ba51de281e444e9160b83d926'
p59
sg12
S'xxb1ec23e88222e2f76e9fd47236750c20'
p60
sg14
S'Mozilla/5.0 (Linux; Android 6.0; HUAWEI NXT-AL10 Build/HUAWEINXT-AL10) AppleWebKit/537.36 (KHTML, like Gecko) Version/4.0 Chrome/37.0.0.0 Mobile MQQBrowser/6.8 TBS/036824 Safari/537.36 MicroMessenger/6.3.25.861 NetType/cmnet Language/zh_CN'
p61
sg16
S'78651fc76f86c44ed9089b57a1bac85a'
p62
sa(dp63
g2
S'38705'
p64
sg4
S'740'
p65
sg6
S'c0d0973a880a3fef7d1c538f026d6873'
p66
sg8
S'xx906e0ff09176c44324e60706c298ba50'
p67
sg10
S'xx5475fc0ba51de281e444e9160b83d926'
p68
sg12
S'xxb1ec23e88222e2f76e9fd47236750c20'
p69
sg14
S'Mozilla/5.0 (Linux; Android 6.0; HUAWEI NXT-AL10 Build/HUAWEINXT-AL10) AppleWebKit/537.36 (KHTML, like Gecko) Version/4.0 Chrome/37.0.0.0 Mobile MQQBrowser/6.8 TBS/036824 Safari/537.36 MicroMessenger/6.3.25.861 NetType/cmnet Language/zh_CN'
p70
sg16
S'78651fc76f86c44ed9089b57a1bac85a'
p71
sa(dp72
g2
S'38705'
p73
sg4
S'4053'
p74
sg6
S'c0d0973a880a3fef7d1c538f026d6873'
p75
sg8
S'xx906e0ff09176c44324e60706c298ba50'
p76
sg10
S'xx5475fc0ba51de281e444e9160b83d926'
p77
sg12
S'xxb1ec23e88222e2f76e9fd47236750c20'
p78
sg14
S'Mozilla/5.0 (Linux; Android 6.0; HUAWEI NXT-AL10 Build/HUAWEINXT-AL10) AppleWebKit/537.36 (KHTML, like Gecko) Version/4.0 Chrome/37.0.0.0 Mobile MQQBrowser/6.8 TBS/036824 Safari/537.36 MicroMessenger/6.3.25.861 NetType/cmnet Language/zh_CN'
p79
sg16
S'78651fc76f86c44ed9089b57a1bac85a'
p80
sa(dp81
g2
S'38705'
p82
sg4
S'4079'
p83
sg6
S'c0d0973a880a3fef7d1c538f026d6873'
p84
sg8
S'xx906e0ff09176c44324e60706c298ba50'
p85
sg10
S'xx5475fc0ba51de281e444e9160b83d926'
p86
sg12
S'xxb1ec23e88222e2f76e9fd47236750c20'
p87
sg14
S'Mozilla/5.0 (Linux; Android 6.0; HUAWEI NXT-AL10 Build/HUAWEINXT-AL10) AppleWebKit/537.36 (KHTML, like Gecko) Version/4.0 Chrome/37.0.0.0 Mobile MQQBrowser/6.8 TBS/036824 Safari/537.36 MicroMessenger/6.3.25.861 NetType/cmnet Language/zh_CN'
p88
sg16
S'78651fc76f86c44ed9089b57a1bac85a'
p89
sa(dp90
g2
S'38705'
p91
sg4
S'4104'
p92
sg6
S'c0d0973a880a3fef7d1c538f026d6873'
p93
sg8
S'xx906e0ff09176c44324e60706c298ba50'
p94
sg10
S'xx5475fc0ba51de281e444e9160b83d926'
p95
sg12
S'xxb1ec23e88222e2f76e9fd47236750c20'
p96
sg14
S'Mozilla/5.0 (Linux; Android 6.0; HUAWEI NXT-AL10 Build/HUAWEINXT-AL10) AppleWebKit/537.36 (KHTML, like Gecko) Version/4.0 Chrome/37.0.0.0 Mobile MQQBrowser/6.8 TBS/036824 Safari/537.36 MicroMessenger/6.3.25.861 NetType/cmnet Language/zh_CN'
p97
sg16
S'78651fc76f86c44ed9089b57a1bac85a'
p98
sa(dp99
g2
S'38705'
p100
sg4
S'4132'
p101
sg6
S'c0d0973a880a3fef7d1c538f026d6873'
p102
sg8
S'xx906e0ff09176c44324e60706c298ba50'
p103
sg10
S'xx5475fc0ba51de281e444e9160b83d926'
p104
sg12
S'xxb1ec23e88222e2f76e9fd47236750c20'
p105
sg14
S'Mozilla/5.0 (Linux; Android 6.0; HUAWEI NXT-AL10 Build/HUAWEINXT-AL10) AppleWebKit/537.36 (KHTML, like Gecko) Version/4.0 Chrome/37.0.0.0 Mobile MQQBrowser/6.8 TBS/036824 Safari/537.36 MicroMessenger/6.3.25.861 NetType/cmnet Language/zh_CN'
p106
sg16
S'78651fc76f86c44ed9089b57a1bac85a'
p107
sa(dp108
g2
S'38705'
p109
sg4
S'4157'
p110
sg6
S'c0d0973a880a3fef7d1c538f026d6873'
p111
sg8
S'xx906e0ff09176c44324e60706c298ba50'
p112
sg10
S'xx5475fc0ba51de281e444e9160b83d926'
p113
sg12
S'xxb1ec23e88222e2f76e9fd47236750c20'
p114
sg14
S'Mozilla/5.0 (Linux; Android 6.0; HUAWEI NXT-AL10 Build/HUAWEINXT-AL10) AppleWebKit/537.36 (KHTML, like Gecko) Version/4.0 Chrome/37.0.0.0 Mobile MQQBrowser/6.8 TBS/036824 Safari/537.36 MicroMessenger/6.3.25.861 NetType/cmnet Language/zh_CN'
p115
sg16
S'78651fc76f86c44ed9089b57a1bac85a'
p116
sa(dp117
g2
S'38705'
p118
sg4
S'4173'
p119
sg6
S'c0d0973a880a3fef7d1c538f026d6873'
p120
sg8
S'xx906e0ff09176c44324e60706c298ba50'
p121
sg10
S'xx5475fc0ba51de281e444e9160b83d926'
p122
sg12
S'xxb1ec23e88222e2f76e9fd47236750c20'
p123
sg14
S'Mozilla/5.0 (Linux; Android 6.0; HUAWEI NXT-AL10 Build/HUAWEINXT-AL10) AppleWebKit/537.36 (KHTML, like Gecko) Version/4.0 Chrome/37.0.0.0 Mobile MQQBrowser/6.8 TBS/036824 Safari/537.36 MicroMessenger/6.3.25.861 NetType/cmnet Language/zh_CN'
p124
sg16
S'78651fc76f86c44ed9089b57a1bac85a'
p125
sa.