(lp0
(dp1
S'user_id'
p2
S'148'
p3
sS'data_id'
p4
S'2134'
p5
sS'ip'
p6
S'73ede5e346b8c0de1d4f0dcb4bc19f1e'
p7
sS'phone_B'
p8
S'xx34ab58200718261e6a5c224ee283e574'
p9
sS'phone_C'
p10
S'xx7a5e2b65768432d15aa7144976b3cb60'
p11
sS'phone_A'
p12
S'xxb2c34f5d14bc32bbddd30a87eb88c720'
p13
sS'user_agent'
p14
S'Mozilla/5.0 (Linux; Android 5.0.2; ASUS_Z00UDB Build/LRX22G) AppleWebKit/537.36 (KHTML, like Gecko) Version/4.0 Chrome/37.0.0.0 Mobile MQQBrowser/6.8 TBS/036849 Safari/537.36 MicroMessenger/6.3.27.880 NetType/WIFI Language/zh_CN'
p15
sS'ua'
p16
S'18d17eefbe09534b206fefc9540e49a1'
p17
sa(dp18
g2
S'148'
p19
sg4
S'2142'
p20
sg6
S'73ede5e346b8c0de1d4f0dcb4bc19f1e'
p21
sg8
S'xx34ab58200718261e6a5c224ee283e574'
p22
sg10
S'xx7a5e2b65768432d15aa7144976b3cb60'
p23
sg12
S'xxb2c34f5d14bc32bbddd30a87eb88c720'
p24
sg14
S'Mozilla/5.0 (Linux; Android 5.0.2; ASUS_Z00UDB Build/LRX22G) AppleWebKit/537.36 (KHTML, like Gecko) Version/4.0 Chrome/37.0.0.0 Mobile MQQBrowser/6.8 TBS/036849 Safari/537.36 MicroMessenger/6.3.27.880 NetType/WIFI Language/zh_CN'
p25
sg16
S'18d17eefbe09534b206fefc9540e49a1'
p26
sa(dp27
g2
S'148'
p28
sg4
S'2166'
p29
sg6
S'73ede5e346b8c0de1d4f0dcb4bc19f1e'
p30
sg8
S'xx34ab58200718261e6a5c224ee283e574'
p31
sg10
S'xx7a5e2b65768432d15aa7144976b3cb60'
p32
sg12
S'xxb2c34f5d14bc32bbddd30a87eb88c720'
p33
sg14
S'Mozilla/5.0 (Linux; Android 5.0.2; ASUS_Z00UDB Build/LRX22G) AppleWebKit/537.36 (KHTML, like Gecko) Version/4.0 Chrome/37.0.0.0 Mobile MQQBrowser/6.8 TBS/036849 Safari/537.36 MicroMessenger/6.3.27.880 NetType/WIFI Language/zh_CN'
p34
sg16
S'18d17eefbe09534b206fefc9540e49a1'
p35
sa(dp36
g2
S'148'
p37
sg4
S'2195'
p38
sg6
S'73ede5e346b8c0de1d4f0dcb4bc19f1e'
p39
sg8
S'xx34ab58200718261e6a5c224ee283e574'
p40
sg10
S'xx7a5e2b65768432d15aa7144976b3cb60'
p41
sg12
S'xxb2c34f5d14bc32bbddd30a87eb88c720'
p42
sg14
S'Mozilla/5.0 (Linux; Android 5.0.2; ASUS_Z00UDB Build/LRX22G) AppleWebKit/537.36 (KHTML, like Gecko) Version/4.0 Chrome/37.0.0.0 Mobile MQQBrowser/6.8 TBS/036849 Safari/537.36 MicroMessenger/6.3.27.880 NetType/WIFI Language/zh_CN'
p43
sg16
S'18d17eefbe09534b206fefc9540e49a1'
p44
sa.