(lp0
(dp1
S'user_id'
p2
S'1220'
p3
sS'data_id'
p4
S'109'
p5
sS'ip'
p6
S'84ad30ef1fedccf967f98cfbda6b9419'
p7
sS'phone_B'
p8
S'xx319f624a84f85a4936b5e41db95131e8'
p9
sS'phone_C'
p10
S'xx4d803d6691a66cdb11c74b445c52457d'
p11
sS'phone_A'
p12
S'xxb36d302c1c15de8202e608695d199649'
p13
sS'user_agent'
p14
S'Mozilla/5.0 (Linux; Android 5.0; SM-N9008V Build/LRX21V; wv) AppleWebKit/537.36 (KHTML, like Gecko) Version/4.0 Chrome/43.0.2357.121 Mobile Safari/537.36 MicroMessenger/6.3.27.880 NetType/WIFI Language/zh_CN'
p15
sS'ua'
p16
S'1f3bdb4653fa168520451dc0eb974c2a'
p17
sa(dp18
g2
S'1220'
p19
sg4
S'126'
p20
sg6
S'84ad30ef1fedccf967f98cfbda6b9419'
p21
sg8
S'xx319f624a84f85a4936b5e41db95131e8'
p22
sg10
S'xx4d803d6691a66cdb11c74b445c52457d'
p23
sg12
S'xxb36d302c1c15de8202e608695d199649'
p24
sg14
S'Mozilla/5.0 (Linux; Android 5.0; SM-N9008V Build/LRX21V; wv) AppleWebKit/537.36 (KHTML, like Gecko) Version/4.0 Chrome/43.0.2357.121 Mobile Safari/537.36 MicroMessenger/6.3.27.880 NetType/WIFI Language/zh_CN'
p25
sg16
S'1f3bdb4653fa168520451dc0eb974c2a'
p26
sa.