(lp0
(dp1
S'user_id'
p2
S'42593'
p3
sS'data_id'
p4
S'5363'
p5
sS'ip'
p6
S'85e86bc33001f577eb94e194f8624e55'
p7
sS'phone_B'
p8
S'xxe6c68c16a7bac0cffe19e3bf43f812ff'
p9
sS'phone_C'
p10
S'xxf0ce69602a68e5d82c03993c78018e89'
p11
sS'phone_A'
p12
S'xxb30a8ea0e4cdca96e59c4db0b90a955b'
p13
sS'user_agent'
p14
S'Mozilla/5.0 (Linux; Android 4.4.4; Lenovo A5800-D Build/KTU84P) AppleWebKit/537.36 (KHTML, like Gecko) Version/4.0 Chrome/37.0.0.0 Mobile MQQBrowser/6.8 TBS/036849 Safari/537.36 MicroMessenger/6.3.28.880 NetType/cmnet Language/zh_CN'
p15
sS'ua'
p16
S'99f5b4e02d97d4ed56fd86c7599c6797'
p17
sa(dp18
g2
S'42593'
p19
sg4
S'5379'
p20
sg6
S'85e86bc33001f577eb94e194f8624e55'
p21
sg8
S'xxe6c68c16a7bac0cffe19e3bf43f812ff'
p22
sg10
S'xxf0ce69602a68e5d82c03993c78018e89'
p23
sg12
S'xxb30a8ea0e4cdca96e59c4db0b90a955b'
p24
sg14
S'Mozilla/5.0 (Linux; Android 4.4.4; Lenovo A5800-D Build/KTU84P) AppleWebKit/537.36 (KHTML, like Gecko) Version/4.0 Chrome/37.0.0.0 Mobile MQQBrowser/6.8 TBS/036849 Safari/537.36 MicroMessenger/6.3.28.880 NetType/cmnet Language/zh_CN'
p25
sg16
S'99f5b4e02d97d4ed56fd86c7599c6797'
p26
sa(dp27
g2
S'42593'
p28
sg4
S'5402'
p29
sg6
S'85e86bc33001f577eb94e194f8624e55'
p30
sg8
S'xxe6c68c16a7bac0cffe19e3bf43f812ff'
p31
sg10
S'xxf0ce69602a68e5d82c03993c78018e89'
p32
sg12
S'xxb30a8ea0e4cdca96e59c4db0b90a955b'
p33
sg14
S'Mozilla/5.0 (Linux; Android 4.4.4; Lenovo A5800-D Build/KTU84P) AppleWebKit/537.36 (KHTML, like Gecko) Version/4.0 Chrome/37.0.0.0 Mobile MQQBrowser/6.8 TBS/036849 Safari/537.36 MicroMessenger/6.3.28.880 NetType/cmnet Language/zh_CN'
p34
sg16
S'99f5b4e02d97d4ed56fd86c7599c6797'
p35
sa(dp36
g2
S'42593'
p37
sg4
S'5418'
p38
sg6
S'85e86bc33001f577eb94e194f8624e55'
p39
sg8
S'xxe6c68c16a7bac0cffe19e3bf43f812ff'
p40
sg10
S'xxf0ce69602a68e5d82c03993c78018e89'
p41
sg12
S'xxb30a8ea0e4cdca96e59c4db0b90a955b'
p42
sg14
S'Mozilla/5.0 (Linux; Android 4.4.4; Lenovo A5800-D Build/KTU84P) AppleWebKit/537.36 (KHTML, like Gecko) Version/4.0 Chrome/37.0.0.0 Mobile MQQBrowser/6.8 TBS/036849 Safari/537.36 MicroMessenger/6.3.28.880 NetType/cmnet Language/zh_CN'
p43
sg16
S'99f5b4e02d97d4ed56fd86c7599c6797'
p44
sa(dp45
g2
S'42593'
p46
sg4
S'5433'
p47
sg6
S'85e86bc33001f577eb94e194f8624e55'
p48
sg8
S'xxe6c68c16a7bac0cffe19e3bf43f812ff'
p49
sg10
S'xxf0ce69602a68e5d82c03993c78018e89'
p50
sg12
S'xxb30a8ea0e4cdca96e59c4db0b90a955b'
p51
sg14
S'Mozilla/5.0 (Linux; Android 4.4.4; Lenovo A5800-D Build/KTU84P) AppleWebKit/537.36 (KHTML, like Gecko) Version/4.0 Chrome/37.0.0.0 Mobile MQQBrowser/6.8 TBS/036849 Safari/537.36 MicroMessenger/6.3.28.880 NetType/cmnet Language/zh_CN'
p52
sg16
S'99f5b4e02d97d4ed56fd86c7599c6797'
p53
sa.