(lp0
(dp1
S'user_id'
p2
S'31877'
p3
sS'data_id'
p4
S'3457'
p5
sS'ip'
p6
S'bc3b56a50391324ac99b90f502561d1b'
p7
sS'phone_B'
p8
S'xx77f71165b181575d4e73a19f1d897983'
p9
sS'phone_C'
p10
S'xx1973121695db2f180215a77f8aceaf46'
p11
sS'phone_A'
p12
S'xxb3a7f575c9aaf898321dec1691ac17b7'
p13
sS'user_agent'
p14
S'Mozilla/5.0 (Linux; Android 5.0; vivo Y33L Build/LRX21M) AppleWebKit/537.36 (KHTML, like Gecko) Version/4.0 Chrome/37.0.0.0 Mobile MQQBrowser/6.8 TBS/036849 Safari/537.36 MicroMessenger/6.3.27.880 NetType/cmnet Language/zh_CN'
p15
sS'ua'
p16
S'544b0486bca2e49919d17f045a458efd'
p17
sa(dp18
g2
S'31877'
p19
sg4
S'3472'
p20
sg6
S'bc3b56a50391324ac99b90f502561d1b'
p21
sg8
S'xx77f71165b181575d4e73a19f1d897983'
p22
sg10
S'xx1973121695db2f180215a77f8aceaf46'
p23
sg12
S'xxb3a7f575c9aaf898321dec1691ac17b7'
p24
sg14
S'Mozilla/5.0 (Linux; Android 5.0; vivo Y33L Build/LRX21M) AppleWebKit/537.36 (KHTML, like Gecko) Version/4.0 Chrome/37.0.0.0 Mobile MQQBrowser/6.8 TBS/036849 Safari/537.36 MicroMessenger/6.3.27.880 NetType/cmnet Language/zh_CN'
p25
sg16
S'544b0486bca2e49919d17f045a458efd'
p26
sa.