(lp0
(dp1
S'user_id'
p2
S'49128'
p3
sS'data_id'
p4
S'2837'
p5
sS'ip'
p6
S'dd357e7ebd99f0c5ef623e8d1aec9934'
p7
sS'phone_B'
p8
S'xxd6e799abea3f944268db51b3b8332014'
p9
sS'phone_C'
p10
S'xxa0a897545828b819c57b43fd483e4c66'
p11
sS'phone_A'
p12
S'xxb4254a0d0033936c751913c1de1cf8e2'
p13
sS'user_agent'
p14
S'Mozilla/5.0 (Linux; Android 5.1; HUAWEI TIT-TL00 Build/HUAWEITIT-TL00) AppleWebKit/537.36 (KHTML, like Gecko) Version/4.0 Chrome/37.0.0.0 Mobile MQQBrowser/6.8 TBS/036824 Safari/537.36 MicroMessenger/6.3.27.880 NetType/cmnet Language/zh_CN'
p15
sS'ua'
p16
S'faf92a07d15da56cfba9901306445951'
p17
sa(dp18
g2
S'49128'
p19
sg4
S'2857'
p20
sg6
S'dd357e7ebd99f0c5ef623e8d1aec9934'
p21
sg8
S'xxd6e799abea3f944268db51b3b8332014'
p22
sg10
S'xxa0a897545828b819c57b43fd483e4c66'
p23
sg12
S'xxb4254a0d0033936c751913c1de1cf8e2'
p24
sg14
S'Mozilla/5.0 (Linux; Android 5.1; HUAWEI TIT-TL00 Build/HUAWEITIT-TL00) AppleWebKit/537.36 (KHTML, like Gecko) Version/4.0 Chrome/37.0.0.0 Mobile MQQBrowser/6.8 TBS/036824 Safari/537.36 MicroMessenger/6.3.27.880 NetType/cmnet Language/zh_CN'
p25
sg16
S'faf92a07d15da56cfba9901306445951'
p26
sa(dp27
g2
S'49854'
p28
sg4
S'8477'
p29
sg6
S'37ec7b91655b3c964292df15710fad2a'
p30
sg8
S'xx2df5700ef75ff577e284f970fcd3361b'
p31
sg10
S'xxa0a897545828b819c57b43fd483e4c66'
p32
sg12
S'xxb4254a0d0033936c751913c1de1cf8e2'
p33
sg14
S'Mozilla/5.0 (Linux; Android 5.1; HUAWEI TIT-TL00 Build/HUAWEITIT-TL00) AppleWebKit/537.36 (KHTML, like Gecko) Version/4.0 Chrome/37.0.0.0 Mobile MQQBrowser/6.8 TBS/036849 Safari/537.36 MicroMessenger/6.3.27.880 NetType/WIFI Language/zh_CN'
p34
sg16
S'b489a6a08fd34aa7edc46f04a38e309f'
p35
sa(dp36
g2
S'49854'
p37
sg4
S'8485'
p38
sg6
S'37ec7b91655b3c964292df15710fad2a'
p39
sg8
S'xx2df5700ef75ff577e284f970fcd3361b'
p40
sg10
S'xxa0a897545828b819c57b43fd483e4c66'
p41
sg12
S'xxb4254a0d0033936c751913c1de1cf8e2'
p42
sg14
S'Mozilla/5.0 (Linux; Android 5.1; HUAWEI TIT-TL00 Build/HUAWEITIT-TL00) AppleWebKit/537.36 (KHTML, like Gecko) Version/4.0 Chrome/37.0.0.0 Mobile MQQBrowser/6.8 TBS/036849 Safari/537.36 MicroMessenger/6.3.27.880 NetType/WIFI Language/zh_CN'
p43
sg16
S'b489a6a08fd34aa7edc46f04a38e309f'
p44
sa.