(lp0
(dp1
S'user_id'
p2
S'38372'
p3
sS'data_id'
p4
S'847'
p5
sS'ip'
p6
S'6713efd9151e3a6e09b763363ee0a432'
p7
sS'phone_B'
p8
S'xx1249a9a93992e5e32c652d9835e105b1'
p9
sS'phone_C'
p10
S'xxa6d6c8e9e0447e2601cc502360739b8e'
p11
sS'phone_A'
p12
S'xxb4cfe83cca6c140d5bb82ae4287fdb43'
p13
sS'user_agent'
p14
S'Mozilla/5.0 (Linux; Android 5.1.1; SCL-AL00 Build/HonorSCL-AL00) AppleWebKit/537.36 (KHTML, like Gecko) Version/4.0 Chrome/37.0.0.0 Mobile MQQBrowser/6.8 TBS/036869 Safari/537.36 MicroMessenger/6.3.27.880 NetType/WIFI Language/zh_CN'
p15
sS'ua'
p16
S'9013efd0e2b92e1c2d8b2c8d53ff067c'
p17
sa(dp18
g2
S'38372'
p19
sg4
S'869'
p20
sg6
S'6713efd9151e3a6e09b763363ee0a432'
p21
sg8
S'xx1249a9a93992e5e32c652d9835e105b1'
p22
sg10
S'xxa6d6c8e9e0447e2601cc502360739b8e'
p23
sg12
S'xxb4cfe83cca6c140d5bb82ae4287fdb43'
p24
sg14
S'Mozilla/5.0 (Linux; Android 5.1.1; SCL-AL00 Build/HonorSCL-AL00) AppleWebKit/537.36 (KHTML, like Gecko) Version/4.0 Chrome/37.0.0.0 Mobile MQQBrowser/6.8 TBS/036869 Safari/537.36 MicroMessenger/6.3.27.880 NetType/WIFI Language/zh_CN'
p25
sg16
S'9013efd0e2b92e1c2d8b2c8d53ff067c'
p26
sa(dp27
g2
S'38372'
p28
sg4
S'894'
p29
sg6
S'6713efd9151e3a6e09b763363ee0a432'
p30
sg8
S'xx1249a9a93992e5e32c652d9835e105b1'
p31
sg10
S'xxa6d6c8e9e0447e2601cc502360739b8e'
p32
sg12
S'xxb4cfe83cca6c140d5bb82ae4287fdb43'
p33
sg14
S'Mozilla/5.0 (Linux; Android 5.1.1; SCL-AL00 Build/HonorSCL-AL00) AppleWebKit/537.36 (KHTML, like Gecko) Version/4.0 Chrome/37.0.0.0 Mobile MQQBrowser/6.8 TBS/036869 Safari/537.36 MicroMessenger/6.3.27.880 NetType/WIFI Language/zh_CN'
p34
sg16
S'9013efd0e2b92e1c2d8b2c8d53ff067c'
p35
sa(dp36
g2
S'48025'
p37
sg4
S'3415'
p38
sg6
S'c79aaf8cd2dd549616d334c1307c2091'
p39
sg8
S'xxdb1f2a1779a61051d4842c383b75861b'
p40
sg10
S'xxa6d6c8e9e0447e2601cc502360739b8e'
p41
sg12
S'xxb4cfe83cca6c140d5bb82ae4287fdb43'
p42
sg14
S'Mozilla/5.0 (Linux; Android 5.1.1; SCL-AL00 Build/HonorSCL-AL00) AppleWebKit/537.36 (KHTML, like Gecko) Version/4.0 Chrome/37.0.0.0 Mobile MQQBrowser/6.8 TBS/036849 Safari/537.36 MicroMessenger/6.3.25.861 NetType/WIFI Language/zh_CN'
p43
sg16
S'603b436da7f785c36932f1e8a50cab34'
p44
sa(dp45
g2
S'48025'
p46
sg4
S'3428'
p47
sg6
S'c79aaf8cd2dd549616d334c1307c2091'
p48
sg8
S'xxdb1f2a1779a61051d4842c383b75861b'
p49
sg10
S'xxa6d6c8e9e0447e2601cc502360739b8e'
p50
sg12
S'xxb4cfe83cca6c140d5bb82ae4287fdb43'
p51
sg14
S'Mozilla/5.0 (Linux; Android 5.1.1; SCL-AL00 Build/HonorSCL-AL00) AppleWebKit/537.36 (KHTML, like Gecko) Version/4.0 Chrome/37.0.0.0 Mobile MQQBrowser/6.8 TBS/036849 Safari/537.36 MicroMessenger/6.3.25.861 NetType/WIFI Language/zh_CN'
p52
sg16
S'603b436da7f785c36932f1e8a50cab34'
p53
sa(dp54
g2
S'48025'
p55
sg4
S'3443'
p56
sg6
S'c79aaf8cd2dd549616d334c1307c2091'
p57
sg8
S'xxdb1f2a1779a61051d4842c383b75861b'
p58
sg10
S'xxa6d6c8e9e0447e2601cc502360739b8e'
p59
sg12
S'xxb4cfe83cca6c140d5bb82ae4287fdb43'
p60
sg14
S'Mozilla/5.0 (Linux; Android 5.1.1; SCL-AL00 Build/HonorSCL-AL00) AppleWebKit/537.36 (KHTML, like Gecko) Version/4.0 Chrome/37.0.0.0 Mobile MQQBrowser/6.8 TBS/036849 Safari/537.36 MicroMessenger/6.3.25.861 NetType/WIFI Language/zh_CN'
p61
sg16
S'603b436da7f785c36932f1e8a50cab34'
p62
sa.