(lp0
(dp1
S'user_id'
p2
S'48230'
p3
sS'data_id'
p4
S'1920'
p5
sS'ip'
p6
S'9a3bb90ea999051f1b5a6584aa020244'
p7
sS'phone_B'
p8
S'xx4442858096081935bcdbd2f81591c33b'
p9
sS'phone_C'
p10
S'xx179f2fd6e39560d98de9df392ed32b20'
p11
sS'phone_A'
p12
S'xxb507624c3e3d7d598a4a3e6638e9c8e8'
p13
sS'user_agent'
p14
S'Mozilla/5.0 (Linux; Android 5.1.1; OPPO R7sm Build/LMY47V) AppleWebKit/537.36 (KHTML, like Gecko) Version/4.0 Chrome/37.0.0.0 Mobile MQQBrowser/6.8 TBS/036849 Safari/537.36 MicroMessenger/6.3.27.880 NetType/WIFI Language/zh_CN'
p15
sS'ua'
p16
S'7cd58cffac0b0e01cd405fbe4ef96b3c'
p17
sa(dp18
g2
S'48230'
p19
sg4
S'1944'
p20
sg6
S'9a3bb90ea999051f1b5a6584aa020244'
p21
sg8
S'xx4442858096081935bcdbd2f81591c33b'
p22
sg10
S'xx179f2fd6e39560d98de9df392ed32b20'
p23
sg12
S'xxb507624c3e3d7d598a4a3e6638e9c8e8'
p24
sg14
S'Mozilla/5.0 (Linux; Android 5.1.1; OPPO R7sm Build/LMY47V) AppleWebKit/537.36 (KHTML, like Gecko) Version/4.0 Chrome/37.0.0.0 Mobile MQQBrowser/6.8 TBS/036849 Safari/537.36 MicroMessenger/6.3.27.880 NetType/WIFI Language/zh_CN'
p25
sg16
S'7cd58cffac0b0e01cd405fbe4ef96b3c'
p26
sa(dp27
g2
S'48230'
p28
sg4
S'1964'
p29
sg6
S'9a3bb90ea999051f1b5a6584aa020244'
p30
sg8
S'xx4442858096081935bcdbd2f81591c33b'
p31
sg10
S'xx179f2fd6e39560d98de9df392ed32b20'
p32
sg12
S'xxb507624c3e3d7d598a4a3e6638e9c8e8'
p33
sg14
S'Mozilla/5.0 (Linux; Android 5.1.1; OPPO R7sm Build/LMY47V) AppleWebKit/537.36 (KHTML, like Gecko) Version/4.0 Chrome/37.0.0.0 Mobile MQQBrowser/6.8 TBS/036849 Safari/537.36 MicroMessenger/6.3.27.880 NetType/WIFI Language/zh_CN'
p34
sg16
S'7cd58cffac0b0e01cd405fbe4ef96b3c'
p35
sa(dp36
g2
S'43353'
p37
sg4
S'2004'
p38
sg6
S'561efc192d2b8ba0ed46aa1774bc53e3'
p39
sg8
S'xx4442858096081935bcdbd2f81591c33b'
p40
sg10
S'xx179f2fd6e39560d98de9df392ed32b20'
p41
sg12
S'xxb507624c3e3d7d598a4a3e6638e9c8e8'
p42
sg14
S'Mozilla/5.0 (Linux; Android 5.1.1; OPPO R7sm Build/LMY47V) AppleWebKit/537.36 (KHTML, like Gecko) Version/4.0 Chrome/37.0.0.0 Mobile MQQBrowser/6.8 TBS/036849 Safari/537.36 MicroMessenger/6.3.27.880 NetType/WIFI Language/zh_CN'
p43
sg16
S'7cd58cffac0b0e01cd405fbe4ef96b3c'
p44
sa(dp45
g2
S'43353'
p46
sg4
S'2021'
p47
sg6
S'561efc192d2b8ba0ed46aa1774bc53e3'
p48
sg8
S'xx4442858096081935bcdbd2f81591c33b'
p49
sg10
S'xx179f2fd6e39560d98de9df392ed32b20'
p50
sg12
S'xxb507624c3e3d7d598a4a3e6638e9c8e8'
p51
sg14
S'Mozilla/5.0 (Linux; Android 5.1.1; OPPO R7sm Build/LMY47V) AppleWebKit/537.36 (KHTML, like Gecko) Version/4.0 Chrome/37.0.0.0 Mobile MQQBrowser/6.8 TBS/036849 Safari/537.36 MicroMessenger/6.3.27.880 NetType/WIFI Language/zh_CN'
p52
sg16
S'7cd58cffac0b0e01cd405fbe4ef96b3c'
p53
sa(dp54
g2
S'48240'
p55
sg4
S'2292'
p56
sg6
S'561efc192d2b8ba0ed46aa1774bc53e3'
p57
sg8
S'xx4442858096081935bcdbd2f81591c33b'
p58
sg10
S'xx179f2fd6e39560d98de9df392ed32b20'
p59
sg12
S'xxb507624c3e3d7d598a4a3e6638e9c8e8'
p60
sg14
S'Mozilla/5.0 (Linux; Android 5.1.1; OPPO R7sm Build/LMY47V) AppleWebKit/537.36 (KHTML, like Gecko) Version/4.0 Chrome/37.0.0.0 Mobile MQQBrowser/6.8 TBS/036849 Safari/537.36 MicroMessenger/6.3.27.880 NetType/WIFI Language/zh_CN'
p61
sg16
S'7cd58cffac0b0e01cd405fbe4ef96b3c'
p62
sa(dp63
g2
S'48240'
p64
sg4
S'2934'
p65
sg6
S'561efc192d2b8ba0ed46aa1774bc53e3'
p66
sg8
S'xx4442858096081935bcdbd2f81591c33b'
p67
sg10
S'xx179f2fd6e39560d98de9df392ed32b20'
p68
sg12
S'xxb507624c3e3d7d598a4a3e6638e9c8e8'
p69
sg14
S'Mozilla/5.0 (Linux; Android 5.1.1; OPPO R7sm Build/LMY47V) AppleWebKit/537.36 (KHTML, like Gecko) Version/4.0 Chrome/37.0.0.0 Mobile MQQBrowser/6.8 TBS/036849 Safari/537.36 MicroMessenger/6.3.27.880 NetType/WIFI Language/zh_CN'
p70
sg16
S'7cd58cffac0b0e01cd405fbe4ef96b3c'
p71
sa(dp72
g2
S'48240'
p73
sg4
S'3230'
p74
sg6
S'561efc192d2b8ba0ed46aa1774bc53e3'
p75
sg8
S'xx4442858096081935bcdbd2f81591c33b'
p76
sg10
S'xx179f2fd6e39560d98de9df392ed32b20'
p77
sg12
S'xxb507624c3e3d7d598a4a3e6638e9c8e8'
p78
sg14
S'Mozilla/5.0 (Linux; Android 5.1.1; OPPO R7sm Build/LMY47V) AppleWebKit/537.36 (KHTML, like Gecko) Version/4.0 Chrome/37.0.0.0 Mobile MQQBrowser/6.8 TBS/036849 Safari/537.36 MicroMessenger/6.3.27.880 NetType/WIFI Language/zh_CN'
p79
sg16
S'7cd58cffac0b0e01cd405fbe4ef96b3c'
p80
sa(dp81
g2
S'48240'
p82
sg4
S'3710'
p83
sg6
S'561efc192d2b8ba0ed46aa1774bc53e3'
p84
sg8
S'xx4442858096081935bcdbd2f81591c33b'
p85
sg10
S'xx179f2fd6e39560d98de9df392ed32b20'
p86
sg12
S'xxb507624c3e3d7d598a4a3e6638e9c8e8'
p87
sg14
S'Mozilla/5.0 (Linux; Android 5.1.1; OPPO R7sm Build/LMY47V) AppleWebKit/537.36 (KHTML, like Gecko) Version/4.0 Chrome/37.0.0.0 Mobile MQQBrowser/6.8 TBS/036849 Safari/537.36 MicroMessenger/6.3.27.880 NetType/WIFI Language/zh_CN'
p88
sg16
S'7cd58cffac0b0e01cd405fbe4ef96b3c'
p89
sa(dp90
g2
S'48240'
p91
sg4
S'3726'
p92
sg6
S'561efc192d2b8ba0ed46aa1774bc53e3'
p93
sg8
S'xx4442858096081935bcdbd2f81591c33b'
p94
sg10
S'xx179f2fd6e39560d98de9df392ed32b20'
p95
sg12
S'xxb507624c3e3d7d598a4a3e6638e9c8e8'
p96
sg14
S'Mozilla/5.0 (Linux; Android 5.1.1; OPPO R7sm Build/LMY47V) AppleWebKit/537.36 (KHTML, like Gecko) Version/4.0 Chrome/37.0.0.0 Mobile MQQBrowser/6.8 TBS/036849 Safari/537.36 MicroMessenger/6.3.27.880 NetType/WIFI Language/zh_CN'
p97
sg16
S'7cd58cffac0b0e01cd405fbe4ef96b3c'
p98
sa(dp99
g2
S'48240'
p100
sg4
S'3741'
p101
sg6
S'561efc192d2b8ba0ed46aa1774bc53e3'
p102
sg8
S'xx4442858096081935bcdbd2f81591c33b'
p103
sg10
S'xx179f2fd6e39560d98de9df392ed32b20'
p104
sg12
S'xxb507624c3e3d7d598a4a3e6638e9c8e8'
p105
sg14
S'Mozilla/5.0 (Linux; Android 5.1.1; OPPO R7sm Build/LMY47V) AppleWebKit/537.36 (KHTML, like Gecko) Version/4.0 Chrome/37.0.0.0 Mobile MQQBrowser/6.8 TBS/036849 Safari/537.36 MicroMessenger/6.3.27.880 NetType/WIFI Language/zh_CN'
p106
sg16
S'7cd58cffac0b0e01cd405fbe4ef96b3c'
p107
sa(dp108
g2
S'48240'
p109
sg4
S'4756'
p110
sg6
S'561efc192d2b8ba0ed46aa1774bc53e3'
p111
sg8
S'xx4442858096081935bcdbd2f81591c33b'
p112
sg10
S'xx179f2fd6e39560d98de9df392ed32b20'
p113
sg12
S'xxb507624c3e3d7d598a4a3e6638e9c8e8'
p114
sg14
S'Mozilla/5.0 (Linux; Android 5.1.1; OPPO R7sm Build/LMY47V) AppleWebKit/537.36 (KHTML, like Gecko) Version/4.0 Chrome/37.0.0.0 Mobile MQQBrowser/6.8 TBS/036849 Safari/537.36 MicroMessenger/6.3.27.880 NetType/WIFI Language/zh_CN'
p115
sg16
S'7cd58cffac0b0e01cd405fbe4ef96b3c'
p116
sa(dp117
g2
S'48240'
p118
sg4
S'4768'
p119
sg6
S'561efc192d2b8ba0ed46aa1774bc53e3'
p120
sg8
S'xx4442858096081935bcdbd2f81591c33b'
p121
sg10
S'xx179f2fd6e39560d98de9df392ed32b20'
p122
sg12
S'xxb507624c3e3d7d598a4a3e6638e9c8e8'
p123
sg14
S'Mozilla/5.0 (Linux; Android 5.1.1; OPPO R7sm Build/LMY47V) AppleWebKit/537.36 (KHTML, like Gecko) Version/4.0 Chrome/37.0.0.0 Mobile MQQBrowser/6.8 TBS/036849 Safari/537.36 MicroMessenger/6.3.27.880 NetType/WIFI Language/zh_CN'
p124
sg16
S'7cd58cffac0b0e01cd405fbe4ef96b3c'
p125
sa(dp126
g2
S'48240'
p127
sg4
S'4792'
p128
sg6
S'561efc192d2b8ba0ed46aa1774bc53e3'
p129
sg8
S'xx4442858096081935bcdbd2f81591c33b'
p130
sg10
S'xx179f2fd6e39560d98de9df392ed32b20'
p131
sg12
S'xxb507624c3e3d7d598a4a3e6638e9c8e8'
p132
sg14
S'Mozilla/5.0 (Linux; Android 5.1.1; OPPO R7sm Build/LMY47V) AppleWebKit/537.36 (KHTML, like Gecko) Version/4.0 Chrome/37.0.0.0 Mobile MQQBrowser/6.8 TBS/036849 Safari/537.36 MicroMessenger/6.3.27.880 NetType/WIFI Language/zh_CN'
p133
sg16
S'7cd58cffac0b0e01cd405fbe4ef96b3c'
p134
sa(dp135
g2
S'48240'
p136
sg4
S'5171'
p137
sg6
S'561efc192d2b8ba0ed46aa1774bc53e3'
p138
sg8
S'xx4442858096081935bcdbd2f81591c33b'
p139
sg10
S'xx179f2fd6e39560d98de9df392ed32b20'
p140
sg12
S'xxb507624c3e3d7d598a4a3e6638e9c8e8'
p141
sg14
S'Mozilla/5.0 (Linux; Android 5.1.1; OPPO R7sm Build/LMY47V) AppleWebKit/537.36 (KHTML, like Gecko) Version/4.0 Chrome/37.0.0.0 Mobile MQQBrowser/6.8 TBS/036849 Safari/537.36 MicroMessenger/6.3.27.880 NetType/WIFI Language/zh_CN'
p142
sg16
S'7cd58cffac0b0e01cd405fbe4ef96b3c'
p143
sa(dp144
g2
S'48240'
p145
sg4
S'5270'
p146
sg6
S'561efc192d2b8ba0ed46aa1774bc53e3'
p147
sg8
S'xx4442858096081935bcdbd2f81591c33b'
p148
sg10
S'xx179f2fd6e39560d98de9df392ed32b20'
p149
sg12
S'xxb507624c3e3d7d598a4a3e6638e9c8e8'
p150
sg14
S'Mozilla/5.0 (Linux; Android 5.1.1; OPPO R7sm Build/LMY47V) AppleWebKit/537.36 (KHTML, like Gecko) Version/4.0 Chrome/37.0.0.0 Mobile MQQBrowser/6.8 TBS/036849 Safari/537.36 MicroMessenger/6.3.27.880 NetType/WIFI Language/zh_CN'
p151
sg16
S'7cd58cffac0b0e01cd405fbe4ef96b3c'
p152
sa(dp153
g2
S'48240'
p154
sg4
S'5536'
p155
sg6
S'561efc192d2b8ba0ed46aa1774bc53e3'
p156
sg8
S'xx4442858096081935bcdbd2f81591c33b'
p157
sg10
S'xx179f2fd6e39560d98de9df392ed32b20'
p158
sg12
S'xxb507624c3e3d7d598a4a3e6638e9c8e8'
p159
sg14
S'Mozilla/5.0 (Linux; Android 5.1.1; OPPO R7sm Build/LMY47V) AppleWebKit/537.36 (KHTML, like Gecko) Version/4.0 Chrome/37.0.0.0 Mobile MQQBrowser/6.8 TBS/036849 Safari/537.36 MicroMessenger/6.3.27.880 NetType/WIFI Language/zh_CN'
p160
sg16
S'7cd58cffac0b0e01cd405fbe4ef96b3c'
p161
sa(dp162
g2
S'48240'
p163
sg4
S'5552'
p164
sg6
S'561efc192d2b8ba0ed46aa1774bc53e3'
p165
sg8
S'xx4442858096081935bcdbd2f81591c33b'
p166
sg10
S'xx179f2fd6e39560d98de9df392ed32b20'
p167
sg12
S'xxb507624c3e3d7d598a4a3e6638e9c8e8'
p168
sg14
S'Mozilla/5.0 (Linux; Android 5.1.1; OPPO R7sm Build/LMY47V) AppleWebKit/537.36 (KHTML, like Gecko) Version/4.0 Chrome/37.0.0.0 Mobile MQQBrowser/6.8 TBS/036849 Safari/537.36 MicroMessenger/6.3.27.880 NetType/WIFI Language/zh_CN'
p169
sg16
S'7cd58cffac0b0e01cd405fbe4ef96b3c'
p170
sa(dp171
g2
S'48240'
p172
sg4
S'6032'
p173
sg6
S'561efc192d2b8ba0ed46aa1774bc53e3'
p174
sg8
S'xx4442858096081935bcdbd2f81591c33b'
p175
sg10
S'xx179f2fd6e39560d98de9df392ed32b20'
p176
sg12
S'xxb507624c3e3d7d598a4a3e6638e9c8e8'
p177
sg14
S'Mozilla/5.0 (Linux; Android 5.1.1; OPPO R7sm Build/LMY47V) AppleWebKit/537.36 (KHTML, like Gecko) Version/4.0 Chrome/37.0.0.0 Mobile MQQBrowser/6.8 TBS/036849 Safari/537.36 MicroMessenger/6.3.27.880 NetType/WIFI Language/zh_CN'
p178
sg16
S'7cd58cffac0b0e01cd405fbe4ef96b3c'
p179
sa(dp180
g2
S'48240'
p181
sg4
S'6090'
p182
sg6
S'561efc192d2b8ba0ed46aa1774bc53e3'
p183
sg8
S'xx4442858096081935bcdbd2f81591c33b'
p184
sg10
S'xx179f2fd6e39560d98de9df392ed32b20'
p185
sg12
S'xxb507624c3e3d7d598a4a3e6638e9c8e8'
p186
sg14
S'Mozilla/5.0 (Linux; Android 5.1.1; OPPO R7sm Build/LMY47V) AppleWebKit/537.36 (KHTML, like Gecko) Version/4.0 Chrome/37.0.0.0 Mobile MQQBrowser/6.8 TBS/036849 Safari/537.36 MicroMessenger/6.3.27.880 NetType/WIFI Language/zh_CN'
p187
sg16
S'7cd58cffac0b0e01cd405fbe4ef96b3c'
p188
sa(dp189
g2
S'48240'
p190
sg4
S'6109'
p191
sg6
S'561efc192d2b8ba0ed46aa1774bc53e3'
p192
sg8
S'xx4442858096081935bcdbd2f81591c33b'
p193
sg10
S'xx179f2fd6e39560d98de9df392ed32b20'
p194
sg12
S'xxb507624c3e3d7d598a4a3e6638e9c8e8'
p195
sg14
S'Mozilla/5.0 (Linux; Android 5.1.1; OPPO R7sm Build/LMY47V) AppleWebKit/537.36 (KHTML, like Gecko) Version/4.0 Chrome/37.0.0.0 Mobile MQQBrowser/6.8 TBS/036849 Safari/537.36 MicroMessenger/6.3.27.880 NetType/WIFI Language/zh_CN'
p196
sg16
S'7cd58cffac0b0e01cd405fbe4ef96b3c'
p197
sa(dp198
g2
S'48240'
p199
sg4
S'6129'
p200
sg6
S'561efc192d2b8ba0ed46aa1774bc53e3'
p201
sg8
S'xx4442858096081935bcdbd2f81591c33b'
p202
sg10
S'xx179f2fd6e39560d98de9df392ed32b20'
p203
sg12
S'xxb507624c3e3d7d598a4a3e6638e9c8e8'
p204
sg14
S'Mozilla/5.0 (Linux; Android 5.1.1; OPPO R7sm Build/LMY47V) AppleWebKit/537.36 (KHTML, like Gecko) Version/4.0 Chrome/37.0.0.0 Mobile MQQBrowser/6.8 TBS/036849 Safari/537.36 MicroMessenger/6.3.27.880 NetType/WIFI Language/zh_CN'
p205
sg16
S'7cd58cffac0b0e01cd405fbe4ef96b3c'
p206
sa(dp207
g2
S'48240'
p208
sg4
S'6782'
p209
sg6
S'561efc192d2b8ba0ed46aa1774bc53e3'
p210
sg8
S'xx4442858096081935bcdbd2f81591c33b'
p211
sg10
S'xx179f2fd6e39560d98de9df392ed32b20'
p212
sg12
S'xxb507624c3e3d7d598a4a3e6638e9c8e8'
p213
sg14
S'Mozilla/5.0 (Linux; Android 5.1.1; OPPO R7sm Build/LMY47V) AppleWebKit/537.36 (KHTML, like Gecko) Version/4.0 Chrome/37.0.0.0 Mobile MQQBrowser/6.8 TBS/036849 Safari/537.36 MicroMessenger/6.3.27.880 NetType/WIFI Language/zh_CN'
p214
sg16
S'7cd58cffac0b0e01cd405fbe4ef96b3c'
p215
sa(dp216
g2
S'31769'
p217
sg4
S'7005'
p218
sg6
S'fc60ad7619b74392d457bea95b48afda'
p219
sg8
S'xx1d504db6cd4cb89f608bb7ee61fbb4af'
p220
sg10
S'xx179f2fd6e39560d98de9df392ed32b20'
p221
sg12
S'xxb507624c3e3d7d598a4a3e6638e9c8e8'
p222
sg14
S'Mozilla/5.0 (Linux; Android 5.1.1; OPPO R7sm Build/LMY47V) AppleWebKit/537.36 (KHTML, like Gecko) Version/4.0 Chrome/37.0.0.0 Mobile MQQBrowser/6.8 TBS/036865 Safari/537.36 MicroMessenger/6.3.27.880 NetType/3gnet Language/zh_CN'
p223
sg16
S'1457be416aeea1c161b87559ce0b7d4f'
p224
sa(dp225
g2
S'31769'
p226
sg4
S'7020'
p227
sg6
S'fc60ad7619b74392d457bea95b48afda'
p228
sg8
S'xx1d504db6cd4cb89f608bb7ee61fbb4af'
p229
sg10
S'xx179f2fd6e39560d98de9df392ed32b20'
p230
sg12
S'xxb507624c3e3d7d598a4a3e6638e9c8e8'
p231
sg14
S'Mozilla/5.0 (Linux; Android 5.1.1; OPPO R7sm Build/LMY47V) AppleWebKit/537.36 (KHTML, like Gecko) Version/4.0 Chrome/37.0.0.0 Mobile MQQBrowser/6.8 TBS/036865 Safari/537.36 MicroMessenger/6.3.27.880 NetType/3gnet Language/zh_CN'
p232
sg16
S'1457be416aeea1c161b87559ce0b7d4f'
p233
sa(dp234
g2
S'48240'
p235
sg4
S'7417'
p236
sg6
S'561efc192d2b8ba0ed46aa1774bc53e3'
p237
sg8
S'xx4442858096081935bcdbd2f81591c33b'
p238
sg10
S'xx179f2fd6e39560d98de9df392ed32b20'
p239
sg12
S'xxb507624c3e3d7d598a4a3e6638e9c8e8'
p240
sg14
S'Mozilla/5.0 (Linux; Android 5.1.1; OPPO R7sm Build/LMY47V) AppleWebKit/537.36 (KHTML, like Gecko) Version/4.0 Chrome/37.0.0.0 Mobile MQQBrowser/6.8 TBS/036849 Safari/537.36 MicroMessenger/6.3.27.880 NetType/WIFI Language/zh_CN'
p241
sg16
S'7cd58cffac0b0e01cd405fbe4ef96b3c'
p242
sa(dp243
g2
S'48240'
p244
sg4
S'7432'
p245
sg6
S'561efc192d2b8ba0ed46aa1774bc53e3'
p246
sg8
S'xx4442858096081935bcdbd2f81591c33b'
p247
sg10
S'xx179f2fd6e39560d98de9df392ed32b20'
p248
sg12
S'xxb507624c3e3d7d598a4a3e6638e9c8e8'
p249
sg14
S'Mozilla/5.0 (Linux; Android 5.1.1; OPPO R7sm Build/LMY47V) AppleWebKit/537.36 (KHTML, like Gecko) Version/4.0 Chrome/37.0.0.0 Mobile MQQBrowser/6.8 TBS/036849 Safari/537.36 MicroMessenger/6.3.27.880 NetType/WIFI Language/zh_CN'
p250
sg16
S'7cd58cffac0b0e01cd405fbe4ef96b3c'
p251
sa(dp252
g2
S'42900'
p253
sg4
S'8326'
p254
sg6
S'561efc192d2b8ba0ed46aa1774bc53e3'
p255
sg8
S'xx4442858096081935bcdbd2f81591c33b'
p256
sg10
S'xx179f2fd6e39560d98de9df392ed32b20'
p257
sg12
S'xxb507624c3e3d7d598a4a3e6638e9c8e8'
p258
sg14
S'Mozilla/5.0 (Linux; Android 5.1.1; OPPO R7sm Build/LMY47V) AppleWebKit/537.36 (KHTML, like Gecko) Version/4.0 Chrome/37.0.0.0 Mobile MQQBrowser/6.8 TBS/036849 Safari/537.36 MicroMessenger/6.3.27.880 NetType/WIFI Language/zh_CN'
p259
sg16
S'7cd58cffac0b0e01cd405fbe4ef96b3c'
p260
sa(dp261
g2
S'42900'
p262
sg4
S'8341'
p263
sg6
S'561efc192d2b8ba0ed46aa1774bc53e3'
p264
sg8
S'xx4442858096081935bcdbd2f81591c33b'
p265
sg10
S'xx179f2fd6e39560d98de9df392ed32b20'
p266
sg12
S'xxb507624c3e3d7d598a4a3e6638e9c8e8'
p267
sg14
S'Mozilla/5.0 (Linux; Android 5.1.1; OPPO R7sm Build/LMY47V) AppleWebKit/537.36 (KHTML, like Gecko) Version/4.0 Chrome/37.0.0.0 Mobile MQQBrowser/6.8 TBS/036849 Safari/537.36 MicroMessenger/6.3.27.880 NetType/WIFI Language/zh_CN'
p268
sg16
S'7cd58cffac0b0e01cd405fbe4ef96b3c'
p269
sa.