(lp0
(dp1
S'user_id'
p2
S'31195'
p3
sS'data_id'
p4
S'3792'
p5
sS'ip'
p6
S'ce007e11f3a51fcd3cd90d7ea97dda2d'
p7
sS'phone_B'
p8
S'xx5af25f6b15c9864468d04f3b5301311c'
p9
sS'phone_C'
p10
S'xxf6eeab0785428485236b0dd501e77e76'
p11
sS'phone_A'
p12
S'xxb50207daf6baf95c8ad41774bb51f295'
p13
sS'user_agent'
p14
S'Mozilla/5.0 (Linux; Android 4.4.4; Hisense M20-M Build/KTU84P) AppleWebKit/537.36 (KHTML, like Gecko) Version/4.0 Chrome/37.0.0.0 Mobile MQQBrowser/6.8 TBS/036865 Safari/537.36 MicroMessenger/6.3.27.880 NetType/WIFI Language/zh_CN'
p15
sS'ua'
p16
S'3b5f9b6f7e2e90e4e103a6d96143aeaa'
p17
sa(dp18
g2
S'31195'
p19
sg4
S'3808'
p20
sg6
S'ce007e11f3a51fcd3cd90d7ea97dda2d'
p21
sg8
S'xx5af25f6b15c9864468d04f3b5301311c'
p22
sg10
S'xxf6eeab0785428485236b0dd501e77e76'
p23
sg12
S'xxb50207daf6baf95c8ad41774bb51f295'
p24
sg14
S'Mozilla/5.0 (Linux; Android 4.4.4; Hisense M20-M Build/KTU84P) AppleWebKit/537.36 (KHTML, like Gecko) Version/4.0 Chrome/37.0.0.0 Mobile MQQBrowser/6.8 TBS/036865 Safari/537.36 MicroMessenger/6.3.27.880 NetType/WIFI Language/zh_CN'
p25
sg16
S'3b5f9b6f7e2e90e4e103a6d96143aeaa'
p26
sa.