(lp0
(dp1
S'user_id'
p2
S'36414'
p3
sS'data_id'
p4
S'2217'
p5
sS'ip'
p6
S'835be50cd66969bfef2bc10eb39cffe0'
p7
sS'phone_B'
p8
S'xxe5f6895b433af44948d86c91522549cc'
p9
sS'phone_C'
p10
S'xx4006016f077807be1693755fe7f3cb22'
p11
sS'phone_A'
p12
S'xxb567f761cdc31682d16f903ed5752115'
p13
sS'user_agent'
p14
S'Mozilla/5.0 (Linux; Android 5.1.1; SM-J3109 Build/LMY47X) AppleWebKit/537.36 (KHTML, like Gecko) Version/4.0 Chrome/37.0.0.0 Mobile MQQBrowser/6.8 TBS/036849 Safari/537.36 MicroMessenger/6.3.27.880 NetType/ctnet Language/zh_CN'
p15
sS'ua'
p16
S'a07202c37bd1bc8ce1d7ad28bdc28390'
p17
sa(dp18
g2
S'36414'
p19
sg4
S'2230'
p20
sg6
S'835be50cd66969bfef2bc10eb39cffe0'
p21
sg8
S'xxe5f6895b433af44948d86c91522549cc'
p22
sg10
S'xx4006016f077807be1693755fe7f3cb22'
p23
sg12
S'xxb567f761cdc31682d16f903ed5752115'
p24
sg14
S'Mozilla/5.0 (Linux; Android 5.1.1; SM-J3109 Build/LMY47X) AppleWebKit/537.36 (KHTML, like Gecko) Version/4.0 Chrome/37.0.0.0 Mobile MQQBrowser/6.8 TBS/036849 Safari/537.36 MicroMessenger/6.3.27.880 NetType/ctnet Language/zh_CN'
p25
sg16
S'a07202c37bd1bc8ce1d7ad28bdc28390'
p26
sa(dp27
g2
S'36414'
p28
sg4
S'2243'
p29
sg6
S'835be50cd66969bfef2bc10eb39cffe0'
p30
sg8
S'xxe5f6895b433af44948d86c91522549cc'
p31
sg10
S'xx4006016f077807be1693755fe7f3cb22'
p32
sg12
S'xxb567f761cdc31682d16f903ed5752115'
p33
sg14
S'Mozilla/5.0 (Linux; Android 5.1.1; SM-J3109 Build/LMY47X) AppleWebKit/537.36 (KHTML, like Gecko) Version/4.0 Chrome/37.0.0.0 Mobile MQQBrowser/6.8 TBS/036849 Safari/537.36 MicroMessenger/6.3.27.880 NetType/ctnet Language/zh_CN'
p34
sg16
S'a07202c37bd1bc8ce1d7ad28bdc28390'
p35
sa(dp36
g2
S'36414'
p37
sg4
S'2261'
p38
sg6
S'835be50cd66969bfef2bc10eb39cffe0'
p39
sg8
S'xxe5f6895b433af44948d86c91522549cc'
p40
sg10
S'xx4006016f077807be1693755fe7f3cb22'
p41
sg12
S'xxb567f761cdc31682d16f903ed5752115'
p42
sg14
S'Mozilla/5.0 (Linux; Android 5.1.1; SM-J3109 Build/LMY47X) AppleWebKit/537.36 (KHTML, like Gecko) Version/4.0 Chrome/37.0.0.0 Mobile MQQBrowser/6.8 TBS/036849 Safari/537.36 MicroMessenger/6.3.27.880 NetType/ctnet Language/zh_CN'
p43
sg16
S'a07202c37bd1bc8ce1d7ad28bdc28390'
p44
sa(dp45
g2
S'36414'
p46
sg4
S'2278'
p47
sg6
S'835be50cd66969bfef2bc10eb39cffe0'
p48
sg8
S'xxe5f6895b433af44948d86c91522549cc'
p49
sg10
S'xx4006016f077807be1693755fe7f3cb22'
p50
sg12
S'xxb567f761cdc31682d16f903ed5752115'
p51
sg14
S'Mozilla/5.0 (Linux; Android 5.1.1; SM-J3109 Build/LMY47X) AppleWebKit/537.36 (KHTML, like Gecko) Version/4.0 Chrome/37.0.0.0 Mobile MQQBrowser/6.8 TBS/036849 Safari/537.36 MicroMessenger/6.3.27.880 NetType/ctnet Language/zh_CN'
p52
sg16
S'a07202c37bd1bc8ce1d7ad28bdc28390'
p53
sa(dp54
g2
S'36414'
p55
sg4
S'2290'
p56
sg6
S'835be50cd66969bfef2bc10eb39cffe0'
p57
sg8
S'xxe5f6895b433af44948d86c91522549cc'
p58
sg10
S'xx4006016f077807be1693755fe7f3cb22'
p59
sg12
S'xxb567f761cdc31682d16f903ed5752115'
p60
sg14
S'Mozilla/5.0 (Linux; Android 5.1.1; SM-J3109 Build/LMY47X) AppleWebKit/537.36 (KHTML, like Gecko) Version/4.0 Chrome/37.0.0.0 Mobile MQQBrowser/6.8 TBS/036849 Safari/537.36 MicroMessenger/6.3.27.880 NetType/ctnet Language/zh_CN'
p61
sg16
S'a07202c37bd1bc8ce1d7ad28bdc28390'
p62
sa(dp63
g2
S'36414'
p64
sg4
S'2300'
p65
sg6
S'835be50cd66969bfef2bc10eb39cffe0'
p66
sg8
S'xxe5f6895b433af44948d86c91522549cc'
p67
sg10
S'xx4006016f077807be1693755fe7f3cb22'
p68
sg12
S'xxb567f761cdc31682d16f903ed5752115'
p69
sg14
S'Mozilla/5.0 (Linux; Android 5.1.1; SM-J3109 Build/LMY47X) AppleWebKit/537.36 (KHTML, like Gecko) Version/4.0 Chrome/37.0.0.0 Mobile MQQBrowser/6.8 TBS/036849 Safari/537.36 MicroMessenger/6.3.27.880 NetType/ctnet Language/zh_CN'
p70
sg16
S'a07202c37bd1bc8ce1d7ad28bdc28390'
p71
sa(dp72
g2
S'36414'
p73
sg4
S'2319'
p74
sg6
S'835be50cd66969bfef2bc10eb39cffe0'
p75
sg8
S'xxe5f6895b433af44948d86c91522549cc'
p76
sg10
S'xx4006016f077807be1693755fe7f3cb22'
p77
sg12
S'xxb567f761cdc31682d16f903ed5752115'
p78
sg14
S'Mozilla/5.0 (Linux; Android 5.1.1; SM-J3109 Build/LMY47X) AppleWebKit/537.36 (KHTML, like Gecko) Version/4.0 Chrome/37.0.0.0 Mobile MQQBrowser/6.8 TBS/036849 Safari/537.36 MicroMessenger/6.3.27.880 NetType/ctnet Language/zh_CN'
p79
sg16
S'a07202c37bd1bc8ce1d7ad28bdc28390'
p80
sa(dp81
g2
S'36414'
p82
sg4
S'2330'
p83
sg6
S'835be50cd66969bfef2bc10eb39cffe0'
p84
sg8
S'xxe5f6895b433af44948d86c91522549cc'
p85
sg10
S'xx4006016f077807be1693755fe7f3cb22'
p86
sg12
S'xxb567f761cdc31682d16f903ed5752115'
p87
sg14
S'Mozilla/5.0 (Linux; Android 5.1.1; SM-J3109 Build/LMY47X) AppleWebKit/537.36 (KHTML, like Gecko) Version/4.0 Chrome/37.0.0.0 Mobile MQQBrowser/6.8 TBS/036849 Safari/537.36 MicroMessenger/6.3.27.880 NetType/ctnet Language/zh_CN'
p88
sg16
S'a07202c37bd1bc8ce1d7ad28bdc28390'
p89
sa(dp90
g2
S'36414'
p91
sg4
S'2340'
p92
sg6
S'835be50cd66969bfef2bc10eb39cffe0'
p93
sg8
S'xxe5f6895b433af44948d86c91522549cc'
p94
sg10
S'xx4006016f077807be1693755fe7f3cb22'
p95
sg12
S'xxb567f761cdc31682d16f903ed5752115'
p96
sg14
S'Mozilla/5.0 (Linux; Android 5.1.1; SM-J3109 Build/LMY47X) AppleWebKit/537.36 (KHTML, like Gecko) Version/4.0 Chrome/37.0.0.0 Mobile MQQBrowser/6.8 TBS/036849 Safari/537.36 MicroMessenger/6.3.27.880 NetType/ctnet Language/zh_CN'
p97
sg16
S'a07202c37bd1bc8ce1d7ad28bdc28390'
p98
sa(dp99
g2
S'36414'
p100
sg4
S'2352'
p101
sg6
S'835be50cd66969bfef2bc10eb39cffe0'
p102
sg8
S'xxe5f6895b433af44948d86c91522549cc'
p103
sg10
S'xx4006016f077807be1693755fe7f3cb22'
p104
sg12
S'xxb567f761cdc31682d16f903ed5752115'
p105
sg14
S'Mozilla/5.0 (Linux; Android 5.1.1; SM-J3109 Build/LMY47X) AppleWebKit/537.36 (KHTML, like Gecko) Version/4.0 Chrome/37.0.0.0 Mobile MQQBrowser/6.8 TBS/036849 Safari/537.36 MicroMessenger/6.3.27.880 NetType/ctnet Language/zh_CN'
p106
sg16
S'a07202c37bd1bc8ce1d7ad28bdc28390'
p107
sa(dp108
g2
S'36414'
p109
sg4
S'2373'
p110
sg6
S'835be50cd66969bfef2bc10eb39cffe0'
p111
sg8
S'xxe5f6895b433af44948d86c91522549cc'
p112
sg10
S'xx4006016f077807be1693755fe7f3cb22'
p113
sg12
S'xxb567f761cdc31682d16f903ed5752115'
p114
sg14
S'Mozilla/5.0 (Linux; Android 5.1.1; SM-J3109 Build/LMY47X) AppleWebKit/537.36 (KHTML, like Gecko) Version/4.0 Chrome/37.0.0.0 Mobile MQQBrowser/6.8 TBS/036849 Safari/537.36 MicroMessenger/6.3.27.880 NetType/ctnet Language/zh_CN'
p115
sg16
S'a07202c37bd1bc8ce1d7ad28bdc28390'
p116
sa(dp117
g2
S'36414'
p118
sg4
S'2392'
p119
sg6
S'835be50cd66969bfef2bc10eb39cffe0'
p120
sg8
S'xxe5f6895b433af44948d86c91522549cc'
p121
sg10
S'xx4006016f077807be1693755fe7f3cb22'
p122
sg12
S'xxb567f761cdc31682d16f903ed5752115'
p123
sg14
S'Mozilla/5.0 (Linux; Android 5.1.1; SM-J3109 Build/LMY47X) AppleWebKit/537.36 (KHTML, like Gecko) Version/4.0 Chrome/37.0.0.0 Mobile MQQBrowser/6.8 TBS/036849 Safari/537.36 MicroMessenger/6.3.27.880 NetType/ctnet Language/zh_CN'
p124
sg16
S'a07202c37bd1bc8ce1d7ad28bdc28390'
p125
sa(dp126
g2
S'36414'
p127
sg4
S'2403'
p128
sg6
S'835be50cd66969bfef2bc10eb39cffe0'
p129
sg8
S'xxe5f6895b433af44948d86c91522549cc'
p130
sg10
S'xx4006016f077807be1693755fe7f3cb22'
p131
sg12
S'xxb567f761cdc31682d16f903ed5752115'
p132
sg14
S'Mozilla/5.0 (Linux; Android 5.1.1; SM-J3109 Build/LMY47X) AppleWebKit/537.36 (KHTML, like Gecko) Version/4.0 Chrome/37.0.0.0 Mobile MQQBrowser/6.8 TBS/036849 Safari/537.36 MicroMessenger/6.3.27.880 NetType/ctnet Language/zh_CN'
p133
sg16
S'a07202c37bd1bc8ce1d7ad28bdc28390'
p134
sa(dp135
g2
S'36414'
p136
sg4
S'2418'
p137
sg6
S'835be50cd66969bfef2bc10eb39cffe0'
p138
sg8
S'xxe5f6895b433af44948d86c91522549cc'
p139
sg10
S'xx4006016f077807be1693755fe7f3cb22'
p140
sg12
S'xxb567f761cdc31682d16f903ed5752115'
p141
sg14
S'Mozilla/5.0 (Linux; Android 5.1.1; SM-J3109 Build/LMY47X) AppleWebKit/537.36 (KHTML, like Gecko) Version/4.0 Chrome/37.0.0.0 Mobile MQQBrowser/6.8 TBS/036849 Safari/537.36 MicroMessenger/6.3.27.880 NetType/ctnet Language/zh_CN'
p142
sg16
S'a07202c37bd1bc8ce1d7ad28bdc28390'
p143
sa(dp144
g2
S'36414'
p145
sg4
S'2441'
p146
sg6
S'835be50cd66969bfef2bc10eb39cffe0'
p147
sg8
S'xxe5f6895b433af44948d86c91522549cc'
p148
sg10
S'xx4006016f077807be1693755fe7f3cb22'
p149
sg12
S'xxb567f761cdc31682d16f903ed5752115'
p150
sg14
S'Mozilla/5.0 (Linux; Android 5.1.1; SM-J3109 Build/LMY47X) AppleWebKit/537.36 (KHTML, like Gecko) Version/4.0 Chrome/37.0.0.0 Mobile MQQBrowser/6.8 TBS/036849 Safari/537.36 MicroMessenger/6.3.27.880 NetType/ctnet Language/zh_CN'
p151
sg16
S'a07202c37bd1bc8ce1d7ad28bdc28390'
p152
sa(dp153
g2
S'36414'
p154
sg4
S'2457'
p155
sg6
S'835be50cd66969bfef2bc10eb39cffe0'
p156
sg8
S'xxe5f6895b433af44948d86c91522549cc'
p157
sg10
S'xx4006016f077807be1693755fe7f3cb22'
p158
sg12
S'xxb567f761cdc31682d16f903ed5752115'
p159
sg14
S'Mozilla/5.0 (Linux; Android 5.1.1; SM-J3109 Build/LMY47X) AppleWebKit/537.36 (KHTML, like Gecko) Version/4.0 Chrome/37.0.0.0 Mobile MQQBrowser/6.8 TBS/036849 Safari/537.36 MicroMessenger/6.3.27.880 NetType/ctnet Language/zh_CN'
p160
sg16
S'a07202c37bd1bc8ce1d7ad28bdc28390'
p161
sa(dp162
g2
S'36414'
p163
sg4
S'2480'
p164
sg6
S'835be50cd66969bfef2bc10eb39cffe0'
p165
sg8
S'xxe5f6895b433af44948d86c91522549cc'
p166
sg10
S'xx4006016f077807be1693755fe7f3cb22'
p167
sg12
S'xxb567f761cdc31682d16f903ed5752115'
p168
sg14
S'Mozilla/5.0 (Linux; Android 5.1.1; SM-J3109 Build/LMY47X) AppleWebKit/537.36 (KHTML, like Gecko) Version/4.0 Chrome/37.0.0.0 Mobile MQQBrowser/6.8 TBS/036849 Safari/537.36 MicroMessenger/6.3.27.880 NetType/ctnet Language/zh_CN'
p169
sg16
S'a07202c37bd1bc8ce1d7ad28bdc28390'
p170
sa(dp171
g2
S'36414'
p172
sg4
S'2505'
p173
sg6
S'835be50cd66969bfef2bc10eb39cffe0'
p174
sg8
S'xxe5f6895b433af44948d86c91522549cc'
p175
sg10
S'xx4006016f077807be1693755fe7f3cb22'
p176
sg12
S'xxb567f761cdc31682d16f903ed5752115'
p177
sg14
S'Mozilla/5.0 (Linux; Android 5.1.1; SM-J3109 Build/LMY47X) AppleWebKit/537.36 (KHTML, like Gecko) Version/4.0 Chrome/37.0.0.0 Mobile MQQBrowser/6.8 TBS/036849 Safari/537.36 MicroMessenger/6.3.27.880 NetType/ctnet Language/zh_CN'
p178
sg16
S'a07202c37bd1bc8ce1d7ad28bdc28390'
p179
sa(dp180
g2
S'36414'
p181
sg4
S'2534'
p182
sg6
S'835be50cd66969bfef2bc10eb39cffe0'
p183
sg8
S'xxe5f6895b433af44948d86c91522549cc'
p184
sg10
S'xx4006016f077807be1693755fe7f3cb22'
p185
sg12
S'xxb567f761cdc31682d16f903ed5752115'
p186
sg14
S'Mozilla/5.0 (Linux; Android 5.1.1; SM-J3109 Build/LMY47X) AppleWebKit/537.36 (KHTML, like Gecko) Version/4.0 Chrome/37.0.0.0 Mobile MQQBrowser/6.8 TBS/036849 Safari/537.36 MicroMessenger/6.3.27.880 NetType/ctnet Language/zh_CN'
p187
sg16
S'a07202c37bd1bc8ce1d7ad28bdc28390'
p188
sa(dp189
g2
S'36414'
p190
sg4
S'2560'
p191
sg6
S'835be50cd66969bfef2bc10eb39cffe0'
p192
sg8
S'xxe5f6895b433af44948d86c91522549cc'
p193
sg10
S'xx4006016f077807be1693755fe7f3cb22'
p194
sg12
S'xxb567f761cdc31682d16f903ed5752115'
p195
sg14
S'Mozilla/5.0 (Linux; Android 5.1.1; SM-J3109 Build/LMY47X) AppleWebKit/537.36 (KHTML, like Gecko) Version/4.0 Chrome/37.0.0.0 Mobile MQQBrowser/6.8 TBS/036849 Safari/537.36 MicroMessenger/6.3.27.880 NetType/ctnet Language/zh_CN'
p196
sg16
S'a07202c37bd1bc8ce1d7ad28bdc28390'
p197
sa(dp198
g2
S'36414'
p199
sg4
S'2586'
p200
sg6
S'ec4e871cfbc6ccc7a105c3e3b618c539'
p201
sg8
S'xxe5f6895b433af44948d86c91522549cc'
p202
sg10
S'xx4006016f077807be1693755fe7f3cb22'
p203
sg12
S'xxb567f761cdc31682d16f903ed5752115'
p204
sg14
S'Mozilla/5.0 (Linux; Android 5.1.1; SM-J3109 Build/LMY47X) AppleWebKit/537.36 (KHTML, like Gecko) Version/4.0 Chrome/37.0.0.0 Mobile MQQBrowser/6.8 TBS/036849 Safari/537.36 MicroMessenger/6.3.27.880 NetType/ctnet Language/zh_CN'
p205
sg16
S'a07202c37bd1bc8ce1d7ad28bdc28390'
p206
sa(dp207
g2
S'36414'
p208
sg4
S'2599'
p209
sg6
S'ec4e871cfbc6ccc7a105c3e3b618c539'
p210
sg8
S'xxe5f6895b433af44948d86c91522549cc'
p211
sg10
S'xx4006016f077807be1693755fe7f3cb22'
p212
sg12
S'xxb567f761cdc31682d16f903ed5752115'
p213
sg14
S'Mozilla/5.0 (Linux; Android 5.1.1; SM-J3109 Build/LMY47X) AppleWebKit/537.36 (KHTML, like Gecko) Version/4.0 Chrome/37.0.0.0 Mobile MQQBrowser/6.8 TBS/036849 Safari/537.36 MicroMessenger/6.3.27.880 NetType/ctnet Language/zh_CN'
p214
sg16
S'a07202c37bd1bc8ce1d7ad28bdc28390'
p215
sa(dp216
g2
S'36414'
p217
sg4
S'2636'
p218
sg6
S'ec4e871cfbc6ccc7a105c3e3b618c539'
p219
sg8
S'xxfd0cb1fb0b3435f71439437a76c0550b'
p220
sg10
S'xx4006016f077807be1693755fe7f3cb22'
p221
sg12
S'xxb567f761cdc31682d16f903ed5752115'
p222
sg14
S'Mozilla/5.0 (Linux; Android 5.1.1; SM-J3109 Build/LMY47X) AppleWebKit/537.36 (KHTML, like Gecko) Version/4.0 Chrome/37.0.0.0 Mobile MQQBrowser/6.8 TBS/036849 Safari/537.36 MicroMessenger/6.3.27.880 NetType/WIFI Language/zh_CN'
p223
sg16
S'49eef1ebeadd55b9161052d5c57f72f2'
p224
sa(dp225
g2
S'36414'
p226
sg4
S'2655'
p227
sg6
S'ec4e871cfbc6ccc7a105c3e3b618c539'
p228
sg8
S'xxfd0cb1fb0b3435f71439437a76c0550b'
p229
sg10
S'xx4006016f077807be1693755fe7f3cb22'
p230
sg12
S'xxb567f761cdc31682d16f903ed5752115'
p231
sg14
S'Mozilla/5.0 (Linux; Android 5.1.1; SM-J3109 Build/LMY47X) AppleWebKit/537.36 (KHTML, like Gecko) Version/4.0 Chrome/37.0.0.0 Mobile MQQBrowser/6.8 TBS/036849 Safari/537.36 MicroMessenger/6.3.27.880 NetType/WIFI Language/zh_CN'
p232
sg16
S'49eef1ebeadd55b9161052d5c57f72f2'
p233
sa(dp234
g2
S'36414'
p235
sg4
S'2676'
p236
sg6
S'ec4e871cfbc6ccc7a105c3e3b618c539'
p237
sg8
S'xxfd0cb1fb0b3435f71439437a76c0550b'
p238
sg10
S'xx4006016f077807be1693755fe7f3cb22'
p239
sg12
S'xxb567f761cdc31682d16f903ed5752115'
p240
sg14
S'Mozilla/5.0 (Linux; Android 5.1.1; SM-J3109 Build/LMY47X) AppleWebKit/537.36 (KHTML, like Gecko) Version/4.0 Chrome/37.0.0.0 Mobile MQQBrowser/6.8 TBS/036849 Safari/537.36 MicroMessenger/6.3.27.880 NetType/WIFI Language/zh_CN'
p241
sg16
S'49eef1ebeadd55b9161052d5c57f72f2'
p242
sa(dp243
g2
S'36414'
p244
sg4
S'2714'
p245
sg6
S'ec4e871cfbc6ccc7a105c3e3b618c539'
p246
sg8
S'xxfd0cb1fb0b3435f71439437a76c0550b'
p247
sg10
S'xx4006016f077807be1693755fe7f3cb22'
p248
sg12
S'xxb567f761cdc31682d16f903ed5752115'
p249
sg14
S'Mozilla/5.0 (Linux; Android 5.1.1; SM-J3109 Build/LMY47X) AppleWebKit/537.36 (KHTML, like Gecko) Version/4.0 Chrome/37.0.0.0 Mobile MQQBrowser/6.8 TBS/036849 Safari/537.36 MicroMessenger/6.3.27.880 NetType/WIFI Language/zh_CN'
p250
sg16
S'49eef1ebeadd55b9161052d5c57f72f2'
p251
sa(dp252
g2
S'36414'
p253
sg4
S'2731'
p254
sg6
S'ec4e871cfbc6ccc7a105c3e3b618c539'
p255
sg8
S'xxfd0cb1fb0b3435f71439437a76c0550b'
p256
sg10
S'xx4006016f077807be1693755fe7f3cb22'
p257
sg12
S'xxb567f761cdc31682d16f903ed5752115'
p258
sg14
S'Mozilla/5.0 (Linux; Android 5.1.1; SM-J3109 Build/LMY47X) AppleWebKit/537.36 (KHTML, like Gecko) Version/4.0 Chrome/37.0.0.0 Mobile MQQBrowser/6.8 TBS/036849 Safari/537.36 MicroMessenger/6.3.27.880 NetType/WIFI Language/zh_CN'
p259
sg16
S'49eef1ebeadd55b9161052d5c57f72f2'
p260
sa(dp261
g2
S'36414'
p262
sg4
S'2742'
p263
sg6
S'ec4e871cfbc6ccc7a105c3e3b618c539'
p264
sg8
S'xxfd0cb1fb0b3435f71439437a76c0550b'
p265
sg10
S'xx4006016f077807be1693755fe7f3cb22'
p266
sg12
S'xxb567f761cdc31682d16f903ed5752115'
p267
sg14
S'Mozilla/5.0 (Linux; Android 5.1.1; SM-J3109 Build/LMY47X) AppleWebKit/537.36 (KHTML, like Gecko) Version/4.0 Chrome/37.0.0.0 Mobile MQQBrowser/6.8 TBS/036849 Safari/537.36 MicroMessenger/6.3.27.880 NetType/WIFI Language/zh_CN'
p268
sg16
S'49eef1ebeadd55b9161052d5c57f72f2'
p269
sa(dp270
g2
S'36414'
p271
sg4
S'4315'
p272
sg6
S'ec4e871cfbc6ccc7a105c3e3b618c539'
p273
sg8
S'xxfd0cb1fb0b3435f71439437a76c0550b'
p274
sg10
S'xx4006016f077807be1693755fe7f3cb22'
p275
sg12
S'xxb567f761cdc31682d16f903ed5752115'
p276
sg14
S'Mozilla/5.0 (Linux; Android 5.1.1; SM-J3109 Build/LMY47X) AppleWebKit/537.36 (KHTML, like Gecko) Version/4.0 Chrome/37.0.0.0 Mobile MQQBrowser/6.8 TBS/036849 Safari/537.36 MicroMessenger/6.3.27.880 NetType/WIFI Language/zh_CN'
p277
sg16
S'49eef1ebeadd55b9161052d5c57f72f2'
p278
sa(dp279
g2
S'36414'
p280
sg4
S'4333'
p281
sg6
S'ec4e871cfbc6ccc7a105c3e3b618c539'
p282
sg8
S'xxfd0cb1fb0b3435f71439437a76c0550b'
p283
sg10
S'xx4006016f077807be1693755fe7f3cb22'
p284
sg12
S'xxb567f761cdc31682d16f903ed5752115'
p285
sg14
S'Mozilla/5.0 (Linux; Android 5.1.1; SM-J3109 Build/LMY47X) AppleWebKit/537.36 (KHTML, like Gecko) Version/4.0 Chrome/37.0.0.0 Mobile MQQBrowser/6.8 TBS/036849 Safari/537.36 MicroMessenger/6.3.27.880 NetType/WIFI Language/zh_CN'
p286
sg16
S'49eef1ebeadd55b9161052d5c57f72f2'
p287
sa(dp288
g2
S'36414'
p289
sg4
S'4351'
p290
sg6
S'ec4e871cfbc6ccc7a105c3e3b618c539'
p291
sg8
S'xxfd0cb1fb0b3435f71439437a76c0550b'
p292
sg10
S'xx4006016f077807be1693755fe7f3cb22'
p293
sg12
S'xxb567f761cdc31682d16f903ed5752115'
p294
sg14
S'Mozilla/5.0 (Linux; Android 5.1.1; SM-J3109 Build/LMY47X) AppleWebKit/537.36 (KHTML, like Gecko) Version/4.0 Chrome/37.0.0.0 Mobile MQQBrowser/6.8 TBS/036849 Safari/537.36 MicroMessenger/6.3.27.880 NetType/WIFI Language/zh_CN'
p295
sg16
S'49eef1ebeadd55b9161052d5c57f72f2'
p296
sa(dp297
g2
S'36414'
p298
sg4
S'4392'
p299
sg6
S'ec4e871cfbc6ccc7a105c3e3b618c539'
p300
sg8
S'xxfd0cb1fb0b3435f71439437a76c0550b'
p301
sg10
S'xx4006016f077807be1693755fe7f3cb22'
p302
sg12
S'xxb567f761cdc31682d16f903ed5752115'
p303
sg14
S'Mozilla/5.0 (Linux; Android 5.1.1; SM-J3109 Build/LMY47X) AppleWebKit/537.36 (KHTML, like Gecko) Version/4.0 Chrome/37.0.0.0 Mobile MQQBrowser/6.8 TBS/036849 Safari/537.36 MicroMessenger/6.3.27.880 NetType/WIFI Language/zh_CN'
p304
sg16
S'49eef1ebeadd55b9161052d5c57f72f2'
p305
sa(dp306
g2
S'36414'
p307
sg4
S'4452'
p308
sg6
S'ec4e871cfbc6ccc7a105c3e3b618c539'
p309
sg8
S'xxfd0cb1fb0b3435f71439437a76c0550b'
p310
sg10
S'xx4006016f077807be1693755fe7f3cb22'
p311
sg12
S'xxb567f761cdc31682d16f903ed5752115'
p312
sg14
S'Mozilla/5.0 (Linux; Android 5.1.1; SM-J3109 Build/LMY47X) AppleWebKit/537.36 (KHTML, like Gecko) Version/4.0 Chrome/37.0.0.0 Mobile MQQBrowser/6.8 TBS/036849 Safari/537.36 MicroMessenger/6.3.27.880 NetType/WIFI Language/zh_CN'
p313
sg16
S'49eef1ebeadd55b9161052d5c57f72f2'
p314
sa(dp315
g2
S'36414'
p316
sg4
S'4463'
p317
sg6
S'ec4e871cfbc6ccc7a105c3e3b618c539'
p318
sg8
S'xxfd0cb1fb0b3435f71439437a76c0550b'
p319
sg10
S'xx4006016f077807be1693755fe7f3cb22'
p320
sg12
S'xxb567f761cdc31682d16f903ed5752115'
p321
sg14
S'Mozilla/5.0 (Linux; Android 5.1.1; SM-J3109 Build/LMY47X) AppleWebKit/537.36 (KHTML, like Gecko) Version/4.0 Chrome/37.0.0.0 Mobile MQQBrowser/6.8 TBS/036849 Safari/537.36 MicroMessenger/6.3.27.880 NetType/WIFI Language/zh_CN'
p322
sg16
S'49eef1ebeadd55b9161052d5c57f72f2'
p323
sa(dp324
g2
S'36414'
p325
sg4
S'4477'
p326
sg6
S'ec4e871cfbc6ccc7a105c3e3b618c539'
p327
sg8
S'xxfd0cb1fb0b3435f71439437a76c0550b'
p328
sg10
S'xx4006016f077807be1693755fe7f3cb22'
p329
sg12
S'xxb567f761cdc31682d16f903ed5752115'
p330
sg14
S'Mozilla/5.0 (Linux; Android 5.1.1; SM-J3109 Build/LMY47X) AppleWebKit/537.36 (KHTML, like Gecko) Version/4.0 Chrome/37.0.0.0 Mobile MQQBrowser/6.8 TBS/036849 Safari/537.36 MicroMessenger/6.3.27.880 NetType/WIFI Language/zh_CN'
p331
sg16
S'49eef1ebeadd55b9161052d5c57f72f2'
p332
sa(dp333
g2
S'36414'
p334
sg4
S'4493'
p335
sg6
S'ec4e871cfbc6ccc7a105c3e3b618c539'
p336
sg8
S'xxfd0cb1fb0b3435f71439437a76c0550b'
p337
sg10
S'xx4006016f077807be1693755fe7f3cb22'
p338
sg12
S'xxb567f761cdc31682d16f903ed5752115'
p339
sg14
S'Mozilla/5.0 (Linux; Android 5.1.1; SM-J3109 Build/LMY47X) AppleWebKit/537.36 (KHTML, like Gecko) Version/4.0 Chrome/37.0.0.0 Mobile MQQBrowser/6.8 TBS/036849 Safari/537.36 MicroMessenger/6.3.27.880 NetType/WIFI Language/zh_CN'
p340
sg16
S'49eef1ebeadd55b9161052d5c57f72f2'
p341
sa(dp342
g2
S'36414'
p343
sg4
S'4499'
p344
sg6
S'ec4e871cfbc6ccc7a105c3e3b618c539'
p345
sg8
S'xxfd0cb1fb0b3435f71439437a76c0550b'
p346
sg10
S'xx4006016f077807be1693755fe7f3cb22'
p347
sg12
S'xxb567f761cdc31682d16f903ed5752115'
p348
sg14
S'Mozilla/5.0 (Linux; Android 5.1.1; SM-J3109 Build/LMY47X) AppleWebKit/537.36 (KHTML, like Gecko) Version/4.0 Chrome/37.0.0.0 Mobile MQQBrowser/6.8 TBS/036849 Safari/537.36 MicroMessenger/6.3.27.880 NetType/WIFI Language/zh_CN'
p349
sg16
S'49eef1ebeadd55b9161052d5c57f72f2'
p350
sa(dp351
g2
S'36414'
p352
sg4
S'4515'
p353
sg6
S'ec4e871cfbc6ccc7a105c3e3b618c539'
p354
sg8
S'xxfd0cb1fb0b3435f71439437a76c0550b'
p355
sg10
S'xx4006016f077807be1693755fe7f3cb22'
p356
sg12
S'xxb567f761cdc31682d16f903ed5752115'
p357
sg14
S'Mozilla/5.0 (Linux; Android 5.1.1; SM-J3109 Build/LMY47X) AppleWebKit/537.36 (KHTML, like Gecko) Version/4.0 Chrome/37.0.0.0 Mobile MQQBrowser/6.8 TBS/036849 Safari/537.36 MicroMessenger/6.3.27.880 NetType/WIFI Language/zh_CN'
p358
sg16
S'49eef1ebeadd55b9161052d5c57f72f2'
p359
sa(dp360
g2
S'36414'
p361
sg4
S'4533'
p362
sg6
S'ec4e871cfbc6ccc7a105c3e3b618c539'
p363
sg8
S'xxfd0cb1fb0b3435f71439437a76c0550b'
p364
sg10
S'xx4006016f077807be1693755fe7f3cb22'
p365
sg12
S'xxb567f761cdc31682d16f903ed5752115'
p366
sg14
S'Mozilla/5.0 (Linux; Android 5.1.1; SM-J3109 Build/LMY47X) AppleWebKit/537.36 (KHTML, like Gecko) Version/4.0 Chrome/37.0.0.0 Mobile MQQBrowser/6.8 TBS/036849 Safari/537.36 MicroMessenger/6.3.27.880 NetType/WIFI Language/zh_CN'
p367
sg16
S'49eef1ebeadd55b9161052d5c57f72f2'
p368
sa(dp369
g2
S'36414'
p370
sg4
S'5463'
p371
sg6
S'ec4e871cfbc6ccc7a105c3e3b618c539'
p372
sg8
S'xxfd0cb1fb0b3435f71439437a76c0550b'
p373
sg10
S'xx4006016f077807be1693755fe7f3cb22'
p374
sg12
S'xxb567f761cdc31682d16f903ed5752115'
p375
sg14
S'Mozilla/5.0 (Linux; Android 5.1.1; SM-J3109 Build/LMY47X) AppleWebKit/537.36 (KHTML, like Gecko) Version/4.0 Chrome/37.0.0.0 Mobile MQQBrowser/6.8 TBS/036849 Safari/537.36 MicroMessenger/6.3.27.880 NetType/WIFI Language/zh_CN'
p376
sg16
S'49eef1ebeadd55b9161052d5c57f72f2'
p377
sa(dp378
g2
S'36414'
p379
sg4
S'5503'
p380
sg6
S'ec4e871cfbc6ccc7a105c3e3b618c539'
p381
sg8
S'xxfd0cb1fb0b3435f71439437a76c0550b'
p382
sg10
S'xx4006016f077807be1693755fe7f3cb22'
p383
sg12
S'xxb567f761cdc31682d16f903ed5752115'
p384
sg14
S'Mozilla/5.0 (Linux; Android 5.1.1; SM-J3109 Build/LMY47X) AppleWebKit/537.36 (KHTML, like Gecko) Version/4.0 Chrome/37.0.0.0 Mobile MQQBrowser/6.8 TBS/036849 Safari/537.36 MicroMessenger/6.3.27.880 NetType/WIFI Language/zh_CN'
p385
sg16
S'49eef1ebeadd55b9161052d5c57f72f2'
p386
sa(dp387
g2
S'36414'
p388
sg4
S'5531'
p389
sg6
S'ec4e871cfbc6ccc7a105c3e3b618c539'
p390
sg8
S'xxfd0cb1fb0b3435f71439437a76c0550b'
p391
sg10
S'xx4006016f077807be1693755fe7f3cb22'
p392
sg12
S'xxb567f761cdc31682d16f903ed5752115'
p393
sg14
S'Mozilla/5.0 (Linux; Android 5.1.1; SM-J3109 Build/LMY47X) AppleWebKit/537.36 (KHTML, like Gecko) Version/4.0 Chrome/37.0.0.0 Mobile MQQBrowser/6.8 TBS/036849 Safari/537.36 MicroMessenger/6.3.27.880 NetType/WIFI Language/zh_CN'
p394
sg16
S'49eef1ebeadd55b9161052d5c57f72f2'
p395
sa.