(lp0
(dp1
S'user_id'
p2
S'47574'
p3
sS'data_id'
p4
S'330'
p5
sS'ip'
p6
S'a9e8e53824340659367f1904559c70b5'
p7
sS'phone_B'
p8
S'xx31ac48bd69a7d163cbb813fa8d966e3e'
p9
sS'phone_C'
p10
S'xx187835aa663823c02a0fd4a58258fed8'
p11
sS'phone_A'
p12
S'xxb59626609c745f16674e091043dd1add'
p13
sS'user_agent'
p14
S'Mozilla/5.0 (Linux; Android 5.1; m3 Build/LMY47I) AppleWebKit/537.36 (KHTML, like Gecko) Version/4.0 Chrome/37.0.0.0 Mobile MQQBrowser/6.8 TBS/036849 Safari/537.36 MicroMessenger/6.3.25.861 NetType/WIFI Language/zh_CN'
p15
sS'ua'
p16
S'3040de4d9a1520625f26f6a6e7f93216'
p17
sa(dp18
g2
S'47574'
p19
sg4
S'348'
p20
sg6
S'a9e8e53824340659367f1904559c70b5'
p21
sg8
S'xx31ac48bd69a7d163cbb813fa8d966e3e'
p22
sg10
S'xx187835aa663823c02a0fd4a58258fed8'
p23
sg12
S'xxb59626609c745f16674e091043dd1add'
p24
sg14
S'Mozilla/5.0 (Linux; Android 5.1; m3 Build/LMY47I) AppleWebKit/537.36 (KHTML, like Gecko) Version/4.0 Chrome/37.0.0.0 Mobile MQQBrowser/6.8 TBS/036849 Safari/537.36 MicroMessenger/6.3.25.861 NetType/WIFI Language/zh_CN'
p25
sg16
S'3040de4d9a1520625f26f6a6e7f93216'
p26
sa(dp27
g2
S'47574'
p28
sg4
S'362'
p29
sg6
S'a9e8e53824340659367f1904559c70b5'
p30
sg8
S'xx31ac48bd69a7d163cbb813fa8d966e3e'
p31
sg10
S'xx187835aa663823c02a0fd4a58258fed8'
p32
sg12
S'xxb59626609c745f16674e091043dd1add'
p33
sg14
S'Mozilla/5.0 (Linux; Android 5.1; m3 Build/LMY47I) AppleWebKit/537.36 (KHTML, like Gecko) Version/4.0 Chrome/37.0.0.0 Mobile MQQBrowser/6.8 TBS/036849 Safari/537.36 MicroMessenger/6.3.25.861 NetType/WIFI Language/zh_CN'
p34
sg16
S'3040de4d9a1520625f26f6a6e7f93216'
p35
sa(dp36
g2
S'32722'
p37
sg4
S'837'
p38
sg6
S'52a0bab373c81620f2a13e511f182807'
p39
sg8
S'xx0e1a5e64b9589db780ef144af631889e'
p40
sg10
S'xxfaa9b187d15f260fce56440494337126'
p41
sg12
S'xxb59626609c745f16674e091043dd1add'
p42
sg14
S'Mozilla/5.0 (Linux; Android 5.1; m3 Build/LMY47I) AppleWebKit/537.36 (KHTML, like Gecko) Version/4.0 Chrome/37.0.0.0 Mobile MQQBrowser/6.8 TBS/036865 Safari/537.36 MicroMessenger/6.3.27.880 NetType/cmnet Language/zh_CN'
p43
sg16
S'ebf53a4bef1ca2ced4db625e2f5b6d4e'
p44
sa(dp45
g2
S'32722'
p46
sg4
S'851'
p47
sg6
S'52a0bab373c81620f2a13e511f182807'
p48
sg8
S'xx0e1a5e64b9589db780ef144af631889e'
p49
sg10
S'xxfaa9b187d15f260fce56440494337126'
p50
sg12
S'xxb59626609c745f16674e091043dd1add'
p51
sg14
S'Mozilla/5.0 (Linux; Android 5.1; m3 Build/LMY47I) AppleWebKit/537.36 (KHTML, like Gecko) Version/4.0 Chrome/37.0.0.0 Mobile MQQBrowser/6.8 TBS/036865 Safari/537.36 MicroMessenger/6.3.27.880 NetType/cmnet Language/zh_CN'
p52
sg16
S'ebf53a4bef1ca2ced4db625e2f5b6d4e'
p53
sa(dp54
g2
S'32722'
p55
sg4
S'873'
p56
sg6
S'52a0bab373c81620f2a13e511f182807'
p57
sg8
S'xx0e1a5e64b9589db780ef144af631889e'
p58
sg10
S'xxfaa9b187d15f260fce56440494337126'
p59
sg12
S'xxb59626609c745f16674e091043dd1add'
p60
sg14
S'Mozilla/5.0 (Linux; Android 5.1; m3 Build/LMY47I) AppleWebKit/537.36 (KHTML, like Gecko) Version/4.0 Chrome/37.0.0.0 Mobile MQQBrowser/6.8 TBS/036865 Safari/537.36 MicroMessenger/6.3.27.880 NetType/cmnet Language/zh_CN'
p61
sg16
S'ebf53a4bef1ca2ced4db625e2f5b6d4e'
p62
sa(dp63
g2
S'32722'
p64
sg4
S'895'
p65
sg6
S'52a0bab373c81620f2a13e511f182807'
p66
sg8
S'xx0e1a5e64b9589db780ef144af631889e'
p67
sg10
S'xxfaa9b187d15f260fce56440494337126'
p68
sg12
S'xxb59626609c745f16674e091043dd1add'
p69
sg14
S'Mozilla/5.0 (Linux; Android 5.1; m3 Build/LMY47I) AppleWebKit/537.36 (KHTML, like Gecko) Version/4.0 Chrome/37.0.0.0 Mobile MQQBrowser/6.8 TBS/036865 Safari/537.36 MicroMessenger/6.3.27.880 NetType/cmnet Language/zh_CN'
p70
sg16
S'ebf53a4bef1ca2ced4db625e2f5b6d4e'
p71
sa(dp72
g2
S'32722'
p73
sg4
S'911'
p74
sg6
S'52a0bab373c81620f2a13e511f182807'
p75
sg8
S'xx0e1a5e64b9589db780ef144af631889e'
p76
sg10
S'xxfaa9b187d15f260fce56440494337126'
p77
sg12
S'xxb59626609c745f16674e091043dd1add'
p78
sg14
S'Mozilla/5.0 (Linux; Android 5.1; m3 Build/LMY47I) AppleWebKit/537.36 (KHTML, like Gecko) Version/4.0 Chrome/37.0.0.0 Mobile MQQBrowser/6.8 TBS/036865 Safari/537.36 MicroMessenger/6.3.27.880 NetType/cmnet Language/zh_CN'
p79
sg16
S'ebf53a4bef1ca2ced4db625e2f5b6d4e'
p80
sa(dp81
g2
S'32722'
p82
sg4
S'926'
p83
sg6
S'52a0bab373c81620f2a13e511f182807'
p84
sg8
S'xx0e1a5e64b9589db780ef144af631889e'
p85
sg10
S'xxfaa9b187d15f260fce56440494337126'
p86
sg12
S'xxb59626609c745f16674e091043dd1add'
p87
sg14
S'Mozilla/5.0 (Linux; Android 5.1; m3 Build/LMY47I) AppleWebKit/537.36 (KHTML, like Gecko) Version/4.0 Chrome/37.0.0.0 Mobile MQQBrowser/6.8 TBS/036865 Safari/537.36 MicroMessenger/6.3.27.880 NetType/cmnet Language/zh_CN'
p88
sg16
S'ebf53a4bef1ca2ced4db625e2f5b6d4e'
p89
sa(dp90
g2
S'20453'
p91
sg4
S'5013'
p92
sg6
S'f11f98e1e5b868e6c885824550c2942b'
p93
sg8
S'xxfdd721a84272b660af2424c8ac09bcc6'
p94
sg10
S'xx187835aa663823c02a0fd4a58258fed8'
p95
sg12
S'xxb59626609c745f16674e091043dd1add'
p96
sg14
S'Mozilla/5.0 (Linux; Android 5.1; m3 Build/LMY47I) AppleWebKit/537.36 (KHTML, like Gecko) Version/4.0 Chrome/37.0.0.0 Mobile MQQBrowser/6.8 TBS/036849 Safari/537.36 MicroMessenger/6.3.27.880 NetType/cmnet Language/zh_CN'
p97
sg16
S'bd2e1cd290d668b7e8aac5d30a3fe428'
p98
sa(dp99
g2
S'20453'
p100
sg4
S'5032'
p101
sg6
S'f11f98e1e5b868e6c885824550c2942b'
p102
sg8
S'xxfdd721a84272b660af2424c8ac09bcc6'
p103
sg10
S'xx187835aa663823c02a0fd4a58258fed8'
p104
sg12
S'xxb59626609c745f16674e091043dd1add'
p105
sg14
S'Mozilla/5.0 (Linux; Android 5.1; m3 Build/LMY47I) AppleWebKit/537.36 (KHTML, like Gecko) Version/4.0 Chrome/37.0.0.0 Mobile MQQBrowser/6.8 TBS/036849 Safari/537.36 MicroMessenger/6.3.27.880 NetType/cmnet Language/zh_CN'
p106
sg16
S'bd2e1cd290d668b7e8aac5d30a3fe428'
p107
sa(dp108
g2
S'20453'
p109
sg4
S'5070'
p110
sg6
S'f11f98e1e5b868e6c885824550c2942b'
p111
sg8
S'xxfdd721a84272b660af2424c8ac09bcc6'
p112
sg10
S'xx187835aa663823c02a0fd4a58258fed8'
p113
sg12
S'xxb59626609c745f16674e091043dd1add'
p114
sg14
S'Mozilla/5.0 (Linux; Android 5.1; m3 Build/LMY47I) AppleWebKit/537.36 (KHTML, like Gecko) Version/4.0 Chrome/37.0.0.0 Mobile MQQBrowser/6.8 TBS/036849 Safari/537.36 MicroMessenger/6.3.27.880 NetType/cmnet Language/zh_CN'
p115
sg16
S'bd2e1cd290d668b7e8aac5d30a3fe428'
p116
sa(dp117
g2
S'20453'
p118
sg4
S'5089'
p119
sg6
S'f11f98e1e5b868e6c885824550c2942b'
p120
sg8
S'xxfdd721a84272b660af2424c8ac09bcc6'
p121
sg10
S'xx187835aa663823c02a0fd4a58258fed8'
p122
sg12
S'xxb59626609c745f16674e091043dd1add'
p123
sg14
S'Mozilla/5.0 (Linux; Android 5.1; m3 Build/LMY47I) AppleWebKit/537.36 (KHTML, like Gecko) Version/4.0 Chrome/37.0.0.0 Mobile MQQBrowser/6.8 TBS/036849 Safari/537.36 MicroMessenger/6.3.27.880 NetType/cmnet Language/zh_CN'
p124
sg16
S'bd2e1cd290d668b7e8aac5d30a3fe428'
p125
sa(dp126
g2
S'20453'
p127
sg4
S'5099'
p128
sg6
S'f11f98e1e5b868e6c885824550c2942b'
p129
sg8
S'xxfdd721a84272b660af2424c8ac09bcc6'
p130
sg10
S'xx187835aa663823c02a0fd4a58258fed8'
p131
sg12
S'xxb59626609c745f16674e091043dd1add'
p132
sg14
S'Mozilla/5.0 (Linux; Android 5.1; m3 Build/LMY47I) AppleWebKit/537.36 (KHTML, like Gecko) Version/4.0 Chrome/37.0.0.0 Mobile MQQBrowser/6.8 TBS/036849 Safari/537.36 MicroMessenger/6.3.27.880 NetType/cmnet Language/zh_CN'
p133
sg16
S'bd2e1cd290d668b7e8aac5d30a3fe428'
p134
sa(dp135
g2
S'20453'
p136
sg4
S'5176'
p137
sg6
S'f11f98e1e5b868e6c885824550c2942b'
p138
sg8
S'xxfdd721a84272b660af2424c8ac09bcc6'
p139
sg10
S'xx187835aa663823c02a0fd4a58258fed8'
p140
sg12
S'xxb59626609c745f16674e091043dd1add'
p141
sg14
S'Mozilla/5.0 (Linux; Android 5.1; m3 Build/LMY47I) AppleWebKit/537.36 (KHTML, like Gecko) Version/4.0 Chrome/37.0.0.0 Mobile MQQBrowser/6.8 TBS/036849 Safari/537.36 MicroMessenger/6.3.27.880 NetType/cmnet Language/zh_CN'
p142
sg16
S'bd2e1cd290d668b7e8aac5d30a3fe428'
p143
sa(dp144
g2
S'20453'
p145
sg4
S'5205'
p146
sg6
S'f11f98e1e5b868e6c885824550c2942b'
p147
sg8
S'xxfdd721a84272b660af2424c8ac09bcc6'
p148
sg10
S'xx187835aa663823c02a0fd4a58258fed8'
p149
sg12
S'xxb59626609c745f16674e091043dd1add'
p150
sg14
S'Mozilla/5.0 (Linux; Android 5.1; m3 Build/LMY47I) AppleWebKit/537.36 (KHTML, like Gecko) Version/4.0 Chrome/37.0.0.0 Mobile MQQBrowser/6.8 TBS/036849 Safari/537.36 MicroMessenger/6.3.27.880 NetType/cmnet Language/zh_CN'
p151
sg16
S'bd2e1cd290d668b7e8aac5d30a3fe428'
p152
sa(dp153
g2
S'20453'
p154
sg4
S'5261'
p155
sg6
S'a8604f655d49d7cc971018facf4a3abb'
p156
sg8
S'xxfdd721a84272b660af2424c8ac09bcc6'
p157
sg10
S'xx187835aa663823c02a0fd4a58258fed8'
p158
sg12
S'xxb59626609c745f16674e091043dd1add'
p159
sg14
S'Mozilla/5.0 (Linux; Android 5.1; m3 Build/LMY47I) AppleWebKit/537.36 (KHTML, like Gecko) Version/4.0 Chrome/37.0.0.0 Mobile MQQBrowser/6.8 TBS/036849 Safari/537.36 MicroMessenger/6.3.27.880 NetType/cmnet Language/zh_CN'
p160
sg16
S'bd2e1cd290d668b7e8aac5d30a3fe428'
p161
sa(dp162
g2
S'20453'
p163
sg4
S'8067'
p164
sg6
S'f02e73d3ee53a8be3393ae89beb88c6f'
p165
sg8
S'xxfdd721a84272b660af2424c8ac09bcc6'
p166
sg10
S'xx187835aa663823c02a0fd4a58258fed8'
p167
sg12
S'xxb59626609c745f16674e091043dd1add'
p168
sg14
S'Mozilla/5.0 (Linux; Android 5.1; m3 Build/LMY47I) AppleWebKit/537.36 (KHTML, like Gecko) Version/4.0 Chrome/37.0.0.0 Mobile MQQBrowser/6.8 TBS/036849 Safari/537.36 MicroMessenger/6.3.27.880 NetType/cmnet Language/zh_CN'
p169
sg16
S'bd2e1cd290d668b7e8aac5d30a3fe428'
p170
sa(dp171
g2
S'20453'
p172
sg4
S'8083'
p173
sg6
S'f02e73d3ee53a8be3393ae89beb88c6f'
p174
sg8
S'xxfdd721a84272b660af2424c8ac09bcc6'
p175
sg10
S'xx187835aa663823c02a0fd4a58258fed8'
p176
sg12
S'xxb59626609c745f16674e091043dd1add'
p177
sg14
S'Mozilla/5.0 (Linux; Android 5.1; m3 Build/LMY47I) AppleWebKit/537.36 (KHTML, like Gecko) Version/4.0 Chrome/37.0.0.0 Mobile MQQBrowser/6.8 TBS/036849 Safari/537.36 MicroMessenger/6.3.27.880 NetType/cmnet Language/zh_CN'
p178
sg16
S'bd2e1cd290d668b7e8aac5d30a3fe428'
p179
sa(dp180
g2
S'20453'
p181
sg4
S'8240'
p182
sg6
S'2f56ee7cbd51d43bc41c58e14dd58604'
p183
sg8
S'xxfdd721a84272b660af2424c8ac09bcc6'
p184
sg10
S'xx187835aa663823c02a0fd4a58258fed8'
p185
sg12
S'xxb59626609c745f16674e091043dd1add'
p186
sg14
S'Mozilla/5.0 (Linux; Android 5.1; m3 Build/LMY47I) AppleWebKit/537.36 (KHTML, like Gecko) Version/4.0 Chrome/37.0.0.0 Mobile MQQBrowser/6.8 TBS/036849 Safari/537.36 MicroMessenger/6.3.27.880 NetType/cmnet Language/zh_CN'
p187
sg16
S'bd2e1cd290d668b7e8aac5d30a3fe428'
p188
sa(dp189
g2
S'20453'
p190
sg4
S'8486'
p191
sg6
S'869ea3d970846584cde098d46f624cea'
p192
sg8
S'xxfdd721a84272b660af2424c8ac09bcc6'
p193
sg10
S'xx187835aa663823c02a0fd4a58258fed8'
p194
sg12
S'xxb59626609c745f16674e091043dd1add'
p195
sg14
S'Mozilla/5.0 (Linux; Android 5.1; m3 Build/LMY47I) AppleWebKit/537.36 (KHTML, like Gecko) Version/4.0 Chrome/37.0.0.0 Mobile MQQBrowser/6.8 TBS/036849 Safari/537.36 MicroMessenger/6.3.27.880 NetType/cmnet Language/zh_CN'
p196
sg16
S'bd2e1cd290d668b7e8aac5d30a3fe428'
p197
sa(dp198
g2
S'20453'
p199
sg4
S'8497'
p200
sg6
S'869ea3d970846584cde098d46f624cea'
p201
sg8
S'xxfdd721a84272b660af2424c8ac09bcc6'
p202
sg10
S'xx187835aa663823c02a0fd4a58258fed8'
p203
sg12
S'xxb59626609c745f16674e091043dd1add'
p204
sg14
S'Mozilla/5.0 (Linux; Android 5.1; m3 Build/LMY47I) AppleWebKit/537.36 (KHTML, like Gecko) Version/4.0 Chrome/37.0.0.0 Mobile MQQBrowser/6.8 TBS/036849 Safari/537.36 MicroMessenger/6.3.27.880 NetType/cmnet Language/zh_CN'
p205
sg16
S'bd2e1cd290d668b7e8aac5d30a3fe428'
p206
sa.