(lp0
(dp1
S'user_id'
p2
S'47271'
p3
sS'data_id'
p4
S'4181'
p5
sS'ip'
p6
S'98a7d9a4ff2e97e34f24f1ab39ba3feb'
p7
sS'phone_B'
p8
S'xx1e8435df3643fa8fb9d3bef6afb7cf4e'
p9
sS'phone_C'
p10
S'xx2adf3e3470a5aea8372c77808537a599'
p11
sS'phone_A'
p12
S'xxb7a82d4792e64360618425e0bf9132eb'
p13
sS'user_agent'
p14
S'Mozilla/5.0 (Linux; Android 6.0.1; MI 4W Build/MMB29M) AppleWebKit/537.36 (KHTML, like Gecko) Version/4.0 Chrome/37.0.0.0 Mobile MQQBrowser/6.8 TBS/036869 Safari/537.36 MicroMessenger/6.3.27.880 NetType/WIFI Language/zh_CN'
p15
sS'ua'
p16
S'2b55ee196f5d5e2a77bcc1a0f8960bfa'
p17
sa(dp18
g2
S'47271'
p19
sg4
S'4194'
p20
sg6
S'98a7d9a4ff2e97e34f24f1ab39ba3feb'
p21
sg8
S'xx1e8435df3643fa8fb9d3bef6afb7cf4e'
p22
sg10
S'xx2adf3e3470a5aea8372c77808537a599'
p23
sg12
S'xxb7a82d4792e64360618425e0bf9132eb'
p24
sg14
S'Mozilla/5.0 (Linux; Android 6.0.1; MI 4W Build/MMB29M) AppleWebKit/537.36 (KHTML, like Gecko) Version/4.0 Chrome/37.0.0.0 Mobile MQQBrowser/6.8 TBS/036869 Safari/537.36 MicroMessenger/6.3.27.880 NetType/WIFI Language/zh_CN'
p25
sg16
S'2b55ee196f5d5e2a77bcc1a0f8960bfa'
p26
sa.