(lp0
(dp1
S'user_id'
p2
S'35651'
p3
sS'data_id'
p4
S'826'
p5
sS'ip'
p6
S'5aed78690d86fb465be0e63a638c1bb9'
p7
sS'phone_B'
p8
S'xx53f4f2acb5e694dc59a695919d70d763'
p9
sS'phone_C'
p10
S'xxd97dd7eee73baae3a7dfdc15564df154'
p11
sS'phone_A'
p12
S'xxba5b8f533f15fb88f55726d1c34c737b'
p13
sS'user_agent'
p14
S'Mozilla/5.0 (Linux; Android 5.1.1; HUAWEI MT2-C00 Build/HuaweiMT2-C00) AppleWebKit/537.36 (KHTML, like Gecko) Version/4.0 Chrome/37.0.0.0 Mobile MQQBrowser/6.8 TBS/036849 Safari/537.36 MicroMessenger/6.3.25.861 NetType/WIFI Language/zh_CN'
p15
sS'ua'
p16
S'30e1da3398fa9403ecbb4cb8a30875ad'
p17
sa(dp18
g2
S'35651'
p19
sg4
S'840'
p20
sg6
S'5aed78690d86fb465be0e63a638c1bb9'
p21
sg8
S'xx53f4f2acb5e694dc59a695919d70d763'
p22
sg10
S'xxd97dd7eee73baae3a7dfdc15564df154'
p23
sg12
S'xxba5b8f533f15fb88f55726d1c34c737b'
p24
sg14
S'Mozilla/5.0 (Linux; Android 5.1.1; HUAWEI MT2-C00 Build/HuaweiMT2-C00) AppleWebKit/537.36 (KHTML, like Gecko) Version/4.0 Chrome/37.0.0.0 Mobile MQQBrowser/6.8 TBS/036849 Safari/537.36 MicroMessenger/6.3.25.861 NetType/WIFI Language/zh_CN'
p25
sg16
S'30e1da3398fa9403ecbb4cb8a30875ad'
p26
sa.