(lp0
(dp1
S'user_id'
p2
S'34076'
p3
sS'data_id'
p4
S'2444'
p5
sS'ip'
p6
S'95d253042540f1ba3b0c441c92f9404d'
p7
sS'phone_B'
p8
S'xx431b55a5e81762310e7e94ab6339245d'
p9
sS'phone_C'
p10
S'xxf2153cde48d7931109fd96fdc755fe7d'
p11
sS'phone_A'
p12
S'xxbb355f01ebb48ca5ef7e457bf680cc22'
p13
sS'user_agent'
p14
S'Mozilla/5.0 (Linux; Android 4.4.4; HUAWEI G7-TL00 Build/HuaweiG7-TL00) AppleWebKit/537.36 (KHTML, like Gecko) Version/4.0 Chrome/37.0.0.0 Mobile MQQBrowser/6.8 TBS/036849 Safari/537.36 MicroMessenger/6.3.27.880 NetType/cmnet Language/zh_CN'
p15
sS'ua'
p16
S'995886e068cba2d98de9f9e549277f44'
p17
sa(dp18
g2
S'34076'
p19
sg4
S'2460'
p20
sg6
S'95d253042540f1ba3b0c441c92f9404d'
p21
sg8
S'xx431b55a5e81762310e7e94ab6339245d'
p22
sg10
S'xxf2153cde48d7931109fd96fdc755fe7d'
p23
sg12
S'xxbb355f01ebb48ca5ef7e457bf680cc22'
p24
sg14
S'Mozilla/5.0 (Linux; Android 4.4.4; HUAWEI G7-TL00 Build/HuaweiG7-TL00) AppleWebKit/537.36 (KHTML, like Gecko) Version/4.0 Chrome/37.0.0.0 Mobile MQQBrowser/6.8 TBS/036849 Safari/537.36 MicroMessenger/6.3.27.880 NetType/cmnet Language/zh_CN'
p25
sg16
S'995886e068cba2d98de9f9e549277f44'
p26
sa(dp27
g2
S'34076'
p28
sg4
S'2484'
p29
sg6
S'95d253042540f1ba3b0c441c92f9404d'
p30
sg8
S'xx431b55a5e81762310e7e94ab6339245d'
p31
sg10
S'xxf2153cde48d7931109fd96fdc755fe7d'
p32
sg12
S'xxbb355f01ebb48ca5ef7e457bf680cc22'
p33
sg14
S'Mozilla/5.0 (Linux; Android 4.4.4; HUAWEI G7-TL00 Build/HuaweiG7-TL00) AppleWebKit/537.36 (KHTML, like Gecko) Version/4.0 Chrome/37.0.0.0 Mobile MQQBrowser/6.8 TBS/036849 Safari/537.36 MicroMessenger/6.3.27.880 NetType/cmnet Language/zh_CN'
p34
sg16
S'995886e068cba2d98de9f9e549277f44'
p35
sa(dp36
g2
S'34076'
p37
sg4
S'2504'
p38
sg6
S'95d253042540f1ba3b0c441c92f9404d'
p39
sg8
S'xx431b55a5e81762310e7e94ab6339245d'
p40
sg10
S'xxf2153cde48d7931109fd96fdc755fe7d'
p41
sg12
S'xxbb355f01ebb48ca5ef7e457bf680cc22'
p42
sg14
S'Mozilla/5.0 (Linux; Android 4.4.4; HUAWEI G7-TL00 Build/HuaweiG7-TL00) AppleWebKit/537.36 (KHTML, like Gecko) Version/4.0 Chrome/37.0.0.0 Mobile MQQBrowser/6.8 TBS/036849 Safari/537.36 MicroMessenger/6.3.27.880 NetType/cmnet Language/zh_CN'
p43
sg16
S'995886e068cba2d98de9f9e549277f44'
p44
sa(dp45
g2
S'34076'
p46
sg4
S'2533'
p47
sg6
S'95d253042540f1ba3b0c441c92f9404d'
p48
sg8
S'xx431b55a5e81762310e7e94ab6339245d'
p49
sg10
S'xxf2153cde48d7931109fd96fdc755fe7d'
p50
sg12
S'xxbb355f01ebb48ca5ef7e457bf680cc22'
p51
sg14
S'Mozilla/5.0 (Linux; Android 4.4.4; HUAWEI G7-TL00 Build/HuaweiG7-TL00) AppleWebKit/537.36 (KHTML, like Gecko) Version/4.0 Chrome/37.0.0.0 Mobile MQQBrowser/6.8 TBS/036849 Safari/537.36 MicroMessenger/6.3.27.880 NetType/cmnet Language/zh_CN'
p52
sg16
S'995886e068cba2d98de9f9e549277f44'
p53
sa(dp54
g2
S'32304'
p55
sg4
S'7028'
p56
sg6
S'7e2000ebab7c43b0c7fc851d1e875257'
p57
sg8
S'xx526e86b44ce8cc2d19bc7411e8b50385'
p58
sg10
S'xxf2153cde48d7931109fd96fdc755fe7d'
p59
sg12
S'xxbb355f01ebb48ca5ef7e457bf680cc22'
p60
sg14
S'Mozilla/5.0 (Linux; Android 4.4.4; HUAWEI G7-TL00 Build/HuaweiG7-TL00) AppleWebKit/537.36 (KHTML, like Gecko) Version/4.0 Chrome/37.0.0.0 Mobile MQQBrowser/6.8 TBS/036849 Safari/537.36 MicroMessenger/6.3.27.880 NetType/WIFI Language/zh_CN'
p61
sg16
S'6f16034a28eed6363ace334e1de2267f'
p62
sa(dp63
g2
S'32304'
p64
sg4
S'7043'
p65
sg6
S'7e2000ebab7c43b0c7fc851d1e875257'
p66
sg8
S'xx526e86b44ce8cc2d19bc7411e8b50385'
p67
sg10
S'xxf2153cde48d7931109fd96fdc755fe7d'
p68
sg12
S'xxbb355f01ebb48ca5ef7e457bf680cc22'
p69
sg14
S'Mozilla/5.0 (Linux; Android 4.4.4; HUAWEI G7-TL00 Build/HuaweiG7-TL00) AppleWebKit/537.36 (KHTML, like Gecko) Version/4.0 Chrome/37.0.0.0 Mobile MQQBrowser/6.8 TBS/036849 Safari/537.36 MicroMessenger/6.3.27.880 NetType/WIFI Language/zh_CN'
p70
sg16
S'6f16034a28eed6363ace334e1de2267f'
p71
sa.