(lp0
(dp1
S'user_id'
p2
S'34661'
p3
sS'data_id'
p4
S'4876'
p5
sS'ip'
p6
S'e26b86c713a9424819ef7d06bfab265a'
p7
sS'phone_B'
p8
S'xx5f6d69efc4efb8492d8c6b0ce8235bac'
p9
sS'phone_C'
p10
S'xx01360b0d21a7251257ca464552de09e1'
p11
sS'phone_A'
p12
S'xxbb960eca2bd6083f997d2268ef769399'
p13
sS'user_agent'
p14
S'Mozilla/5.0 (Linux; Android 6.0.1; ATH-TL00 Build/HONORATH-TL00) AppleWebKit/537.36 (KHTML, like Gecko) Version/4.0 Chrome/37.0.0.0 Mobile MQQBrowser/6.8 TBS/036849 Safari/537.36 MicroMessenger/6.3.27.880 NetType/WIFI Language/zh_CN'
p15
sS'ua'
p16
S'f81ab90de876d8f6b55f064c17616753'
p17
sa(dp18
g2
S'34661'
p19
sg4
S'4893'
p20
sg6
S'e26b86c713a9424819ef7d06bfab265a'
p21
sg8
S'xx5f6d69efc4efb8492d8c6b0ce8235bac'
p22
sg10
S'xx01360b0d21a7251257ca464552de09e1'
p23
sg12
S'xxbb960eca2bd6083f997d2268ef769399'
p24
sg14
S'Mozilla/5.0 (Linux; Android 6.0.1; ATH-TL00 Build/HONORATH-TL00) AppleWebKit/537.36 (KHTML, like Gecko) Version/4.0 Chrome/37.0.0.0 Mobile MQQBrowser/6.8 TBS/036849 Safari/537.36 MicroMessenger/6.3.27.880 NetType/WIFI Language/zh_CN'
p25
sg16
S'f81ab90de876d8f6b55f064c17616753'
p26
sa.