(lp0
(dp1
S'user_id'
p2
S'44807'
p3
sS'data_id'
p4
S'409'
p5
sS'ip'
p6
S'b1600bdca2a74f5f77f8758d9e6f829f'
p7
sS'phone_B'
p8
S'xxc523559437b0e9dbbefccf8a4ed8f675'
p9
sS'phone_C'
p10
S'xx7e646eea0f29eb71bc7b01925e3fd738'
p11
sS'phone_A'
p12
S'xxbbacb969dcf0dd6d1494065895576b62'
p13
sS'user_agent'
p14
S'Mozilla/5.0 (Linux; Android 4.4.4; YEPEN Build/KTU84P) AppleWebKit/537.36 (KHTML, like Gecko) Version/4.0 Chrome/37.0.0.0 Mobile MQQBrowser/6.8 TBS/036849 Safari/537.36 MicroMessenger/6.3.27.880 NetType/WIFI Language/zh_CN'
p15
sS'ua'
p16
S'5d5fa9f597148f7885ca41ef9aa060ec'
p17
sa(dp18
g2
S'44807'
p19
sg4
S'571'
p20
sg6
S'b1600bdca2a74f5f77f8758d9e6f829f'
p21
sg8
S'xxc523559437b0e9dbbefccf8a4ed8f675'
p22
sg10
S'xx7e646eea0f29eb71bc7b01925e3fd738'
p23
sg12
S'xxbbacb969dcf0dd6d1494065895576b62'
p24
sg14
S'Mozilla/5.0 (Linux; Android 4.4.4; YEPEN Build/KTU84P) AppleWebKit/537.36 (KHTML, like Gecko) Version/4.0 Chrome/37.0.0.0 Mobile MQQBrowser/6.8 TBS/036849 Safari/537.36 MicroMessenger/6.3.27.880 NetType/WIFI Language/zh_CN'
p25
sg16
S'5d5fa9f597148f7885ca41ef9aa060ec'
p26
sa(dp27
g2
S'44807'
p28
sg4
S'588'
p29
sg6
S'b1600bdca2a74f5f77f8758d9e6f829f'
p30
sg8
S'xxc523559437b0e9dbbefccf8a4ed8f675'
p31
sg10
S'xx7e646eea0f29eb71bc7b01925e3fd738'
p32
sg12
S'xxbbacb969dcf0dd6d1494065895576b62'
p33
sg14
S'Mozilla/5.0 (Linux; Android 4.4.4; YEPEN Build/KTU84P) AppleWebKit/537.36 (KHTML, like Gecko) Version/4.0 Chrome/37.0.0.0 Mobile MQQBrowser/6.8 TBS/036849 Safari/537.36 MicroMessenger/6.3.27.880 NetType/WIFI Language/zh_CN'
p34
sg16
S'5d5fa9f597148f7885ca41ef9aa060ec'
p35
sa(dp36
g2
S'44807'
p37
sg4
S'605'
p38
sg6
S'b1600bdca2a74f5f77f8758d9e6f829f'
p39
sg8
S'xxc523559437b0e9dbbefccf8a4ed8f675'
p40
sg10
S'xx7e646eea0f29eb71bc7b01925e3fd738'
p41
sg12
S'xxbbacb969dcf0dd6d1494065895576b62'
p42
sg14
S'Mozilla/5.0 (Linux; Android 4.4.4; YEPEN Build/KTU84P) AppleWebKit/537.36 (KHTML, like Gecko) Version/4.0 Chrome/37.0.0.0 Mobile MQQBrowser/6.8 TBS/036849 Safari/537.36 MicroMessenger/6.3.27.880 NetType/WIFI Language/zh_CN'
p43
sg16
S'5d5fa9f597148f7885ca41ef9aa060ec'
p44
sa(dp45
g2
S'44807'
p46
sg4
S'619'
p47
sg6
S'b1600bdca2a74f5f77f8758d9e6f829f'
p48
sg8
S'xxc523559437b0e9dbbefccf8a4ed8f675'
p49
sg10
S'xx7e646eea0f29eb71bc7b01925e3fd738'
p50
sg12
S'xxbbacb969dcf0dd6d1494065895576b62'
p51
sg14
S'Mozilla/5.0 (Linux; Android 4.4.4; YEPEN Build/KTU84P) AppleWebKit/537.36 (KHTML, like Gecko) Version/4.0 Chrome/37.0.0.0 Mobile MQQBrowser/6.8 TBS/036849 Safari/537.36 MicroMessenger/6.3.27.880 NetType/WIFI Language/zh_CN'
p52
sg16
S'5d5fa9f597148f7885ca41ef9aa060ec'
p53
sa(dp54
g2
S'44807'
p55
sg4
S'636'
p56
sg6
S'b1600bdca2a74f5f77f8758d9e6f829f'
p57
sg8
S'xxc523559437b0e9dbbefccf8a4ed8f675'
p58
sg10
S'xx7e646eea0f29eb71bc7b01925e3fd738'
p59
sg12
S'xxbbacb969dcf0dd6d1494065895576b62'
p60
sg14
S'Mozilla/5.0 (Linux; Android 4.4.4; YEPEN Build/KTU84P) AppleWebKit/537.36 (KHTML, like Gecko) Version/4.0 Chrome/37.0.0.0 Mobile MQQBrowser/6.8 TBS/036849 Safari/537.36 MicroMessenger/6.3.27.880 NetType/WIFI Language/zh_CN'
p61
sg16
S'5d5fa9f597148f7885ca41ef9aa060ec'
p62
sa(dp63
g2
S'44807'
p64
sg4
S'696'
p65
sg6
S'b1600bdca2a74f5f77f8758d9e6f829f'
p66
sg8
S'xxc523559437b0e9dbbefccf8a4ed8f675'
p67
sg10
S'xx7e646eea0f29eb71bc7b01925e3fd738'
p68
sg12
S'xxbbacb969dcf0dd6d1494065895576b62'
p69
sg14
S'Mozilla/5.0 (Linux; Android 4.4.4; YEPEN Build/KTU84P) AppleWebKit/537.36 (KHTML, like Gecko) Version/4.0 Chrome/37.0.0.0 Mobile MQQBrowser/6.8 TBS/036849 Safari/537.36 MicroMessenger/6.3.27.880 NetType/WIFI Language/zh_CN'
p70
sg16
S'5d5fa9f597148f7885ca41ef9aa060ec'
p71
sa(dp72
g2
S'44807'
p73
sg4
S'737'
p74
sg6
S'b1600bdca2a74f5f77f8758d9e6f829f'
p75
sg8
S'xxc523559437b0e9dbbefccf8a4ed8f675'
p76
sg10
S'xx7e646eea0f29eb71bc7b01925e3fd738'
p77
sg12
S'xxbbacb969dcf0dd6d1494065895576b62'
p78
sg14
S'Mozilla/5.0 (Linux; Android 4.4.4; YEPEN Build/KTU84P) AppleWebKit/537.36 (KHTML, like Gecko) Version/4.0 Chrome/37.0.0.0 Mobile MQQBrowser/6.8 TBS/036849 Safari/537.36 MicroMessenger/6.3.27.880 NetType/WIFI Language/zh_CN'
p79
sg16
S'5d5fa9f597148f7885ca41ef9aa060ec'
p80
sa(dp81
g2
S'44807'
p82
sg4
S'755'
p83
sg6
S'b1600bdca2a74f5f77f8758d9e6f829f'
p84
sg8
S'xxc523559437b0e9dbbefccf8a4ed8f675'
p85
sg10
S'xx7e646eea0f29eb71bc7b01925e3fd738'
p86
sg12
S'xxbbacb969dcf0dd6d1494065895576b62'
p87
sg14
S'Mozilla/5.0 (Linux; Android 4.4.4; YEPEN Build/KTU84P) AppleWebKit/537.36 (KHTML, like Gecko) Version/4.0 Chrome/37.0.0.0 Mobile MQQBrowser/6.8 TBS/036849 Safari/537.36 MicroMessenger/6.3.27.880 NetType/WIFI Language/zh_CN'
p88
sg16
S'5d5fa9f597148f7885ca41ef9aa060ec'
p89
sa(dp90
g2
S'45098'
p91
sg4
S'6963'
p92
sg6
S'b1600bdca2a74f5f77f8758d9e6f829f'
p93
sg8
S'xxc523559437b0e9dbbefccf8a4ed8f675'
p94
sg10
S'xx7e646eea0f29eb71bc7b01925e3fd738'
p95
sg12
S'xxbbacb969dcf0dd6d1494065895576b62'
p96
sg14
S'Mozilla/5.0 (Linux; Android 4.4.4; YEPEN Build/KTU84P) AppleWebKit/537.36 (KHTML, like Gecko) Version/4.0 Chrome/37.0.0.0 Mobile MQQBrowser/6.8 TBS/036849 Safari/537.36 MicroMessenger/6.3.27.880 NetType/WIFI Language/zh_CN'
p97
sg16
S'5d5fa9f597148f7885ca41ef9aa060ec'
p98
sa(dp99
g2
S'45098'
p100
sg4
S'6971'
p101
sg6
S'b1600bdca2a74f5f77f8758d9e6f829f'
p102
sg8
S'xxc523559437b0e9dbbefccf8a4ed8f675'
p103
sg10
S'xx7e646eea0f29eb71bc7b01925e3fd738'
p104
sg12
S'xxbbacb969dcf0dd6d1494065895576b62'
p105
sg14
S'Mozilla/5.0 (Linux; Android 4.4.4; YEPEN Build/KTU84P) AppleWebKit/537.36 (KHTML, like Gecko) Version/4.0 Chrome/37.0.0.0 Mobile MQQBrowser/6.8 TBS/036849 Safari/537.36 MicroMessenger/6.3.27.880 NetType/WIFI Language/zh_CN'
p106
sg16
S'5d5fa9f597148f7885ca41ef9aa060ec'
p107
sa(dp108
g2
S'44807'
p109
sg4
S'7109'
p110
sg6
S'b1600bdca2a74f5f77f8758d9e6f829f'
p111
sg8
S'xxc523559437b0e9dbbefccf8a4ed8f675'
p112
sg10
S'xx7e646eea0f29eb71bc7b01925e3fd738'
p113
sg12
S'xxbbacb969dcf0dd6d1494065895576b62'
p114
sg14
S'Mozilla/5.0 (Linux; Android 4.4.4; YEPEN Build/KTU84P) AppleWebKit/537.36 (KHTML, like Gecko) Version/4.0 Chrome/37.0.0.0 Mobile MQQBrowser/6.8 TBS/036849 Safari/537.36 MicroMessenger/6.3.27.880 NetType/WIFI Language/zh_CN'
p115
sg16
S'5d5fa9f597148f7885ca41ef9aa060ec'
p116
sa(dp117
g2
S'44807'
p118
sg4
S'7126'
p119
sg6
S'b1600bdca2a74f5f77f8758d9e6f829f'
p120
sg8
S'xxc523559437b0e9dbbefccf8a4ed8f675'
p121
sg10
S'xx7e646eea0f29eb71bc7b01925e3fd738'
p122
sg12
S'xxbbacb969dcf0dd6d1494065895576b62'
p123
sg14
S'Mozilla/5.0 (Linux; Android 4.4.4; YEPEN Build/KTU84P) AppleWebKit/537.36 (KHTML, like Gecko) Version/4.0 Chrome/37.0.0.0 Mobile MQQBrowser/6.8 TBS/036849 Safari/537.36 MicroMessenger/6.3.27.880 NetType/WIFI Language/zh_CN'
p124
sg16
S'5d5fa9f597148f7885ca41ef9aa060ec'
p125
sa(dp126
g2
S'44807'
p127
sg4
S'7139'
p128
sg6
S'b1600bdca2a74f5f77f8758d9e6f829f'
p129
sg8
S'xxc523559437b0e9dbbefccf8a4ed8f675'
p130
sg10
S'xx7e646eea0f29eb71bc7b01925e3fd738'
p131
sg12
S'xxbbacb969dcf0dd6d1494065895576b62'
p132
sg14
S'Mozilla/5.0 (Linux; Android 4.4.4; YEPEN Build/KTU84P) AppleWebKit/537.36 (KHTML, like Gecko) Version/4.0 Chrome/37.0.0.0 Mobile MQQBrowser/6.8 TBS/036849 Safari/537.36 MicroMessenger/6.3.27.880 NetType/WIFI Language/zh_CN'
p133
sg16
S'5d5fa9f597148f7885ca41ef9aa060ec'
p134
sa(dp135
g2
S'44807'
p136
sg4
S'7156'
p137
sg6
S'b1600bdca2a74f5f77f8758d9e6f829f'
p138
sg8
S'xxc523559437b0e9dbbefccf8a4ed8f675'
p139
sg10
S'xx7e646eea0f29eb71bc7b01925e3fd738'
p140
sg12
S'xxbbacb969dcf0dd6d1494065895576b62'
p141
sg14
S'Mozilla/5.0 (Linux; Android 4.4.4; YEPEN Build/KTU84P) AppleWebKit/537.36 (KHTML, like Gecko) Version/4.0 Chrome/37.0.0.0 Mobile MQQBrowser/6.8 TBS/036849 Safari/537.36 MicroMessenger/6.3.27.880 NetType/WIFI Language/zh_CN'
p142
sg16
S'5d5fa9f597148f7885ca41ef9aa060ec'
p143
sa(dp144
g2
S'45098'
p145
sg4
S'7906'
p146
sg6
S'b1600bdca2a74f5f77f8758d9e6f829f'
p147
sg8
S'xxc523559437b0e9dbbefccf8a4ed8f675'
p148
sg10
S'xx7e646eea0f29eb71bc7b01925e3fd738'
p149
sg12
S'xxbbacb969dcf0dd6d1494065895576b62'
p150
sg14
S'Mozilla/5.0 (Linux; Android 4.4.4; YEPEN Build/KTU84P) AppleWebKit/537.36 (KHTML, like Gecko) Version/4.0 Chrome/37.0.0.0 Mobile MQQBrowser/6.8 TBS/036849 Safari/537.36 MicroMessenger/6.3.27.880 NetType/WIFI Language/zh_CN'
p151
sg16
S'5d5fa9f597148f7885ca41ef9aa060ec'
p152
sa(dp153
g2
S'45098'
p154
sg4
S'7934'
p155
sg6
S'b1600bdca2a74f5f77f8758d9e6f829f'
p156
sg8
S'xxc523559437b0e9dbbefccf8a4ed8f675'
p157
sg10
S'xx7e646eea0f29eb71bc7b01925e3fd738'
p158
sg12
S'xxbbacb969dcf0dd6d1494065895576b62'
p159
sg14
S'Mozilla/5.0 (Linux; Android 4.4.4; YEPEN Build/KTU84P) AppleWebKit/537.36 (KHTML, like Gecko) Version/4.0 Chrome/37.0.0.0 Mobile MQQBrowser/6.8 TBS/036849 Safari/537.36 MicroMessenger/6.3.27.880 NetType/WIFI Language/zh_CN'
p160
sg16
S'5d5fa9f597148f7885ca41ef9aa060ec'
p161
sa(dp162
g2
S'45098'
p163
sg4
S'7944'
p164
sg6
S'b1600bdca2a74f5f77f8758d9e6f829f'
p165
sg8
S'xxc523559437b0e9dbbefccf8a4ed8f675'
p166
sg10
S'xx7e646eea0f29eb71bc7b01925e3fd738'
p167
sg12
S'xxbbacb969dcf0dd6d1494065895576b62'
p168
sg14
S'Mozilla/5.0 (Linux; Android 4.4.4; YEPEN Build/KTU84P) AppleWebKit/537.36 (KHTML, like Gecko) Version/4.0 Chrome/37.0.0.0 Mobile MQQBrowser/6.8 TBS/036849 Safari/537.36 MicroMessenger/6.3.27.880 NetType/WIFI Language/zh_CN'
p169
sg16
S'5d5fa9f597148f7885ca41ef9aa060ec'
p170
sa(dp171
g2
S'45098'
p172
sg4
S'7963'
p173
sg6
S'b1600bdca2a74f5f77f8758d9e6f829f'
p174
sg8
S'xxc523559437b0e9dbbefccf8a4ed8f675'
p175
sg10
S'xx7e646eea0f29eb71bc7b01925e3fd738'
p176
sg12
S'xxbbacb969dcf0dd6d1494065895576b62'
p177
sg14
S'Mozilla/5.0 (Linux; Android 4.4.4; YEPEN Build/KTU84P) AppleWebKit/537.36 (KHTML, like Gecko) Version/4.0 Chrome/37.0.0.0 Mobile MQQBrowser/6.8 TBS/036849 Safari/537.36 MicroMessenger/6.3.27.880 NetType/WIFI Language/zh_CN'
p178
sg16
S'5d5fa9f597148f7885ca41ef9aa060ec'
p179
sa(dp180
g2
S'45098'
p181
sg4
S'7978'
p182
sg6
S'b1600bdca2a74f5f77f8758d9e6f829f'
p183
sg8
S'xxc523559437b0e9dbbefccf8a4ed8f675'
p184
sg10
S'xx7e646eea0f29eb71bc7b01925e3fd738'
p185
sg12
S'xxbbacb969dcf0dd6d1494065895576b62'
p186
sg14
S'Mozilla/5.0 (Linux; Android 4.4.4; YEPEN Build/KTU84P) AppleWebKit/537.36 (KHTML, like Gecko) Version/4.0 Chrome/37.0.0.0 Mobile MQQBrowser/6.8 TBS/036849 Safari/537.36 MicroMessenger/6.3.27.880 NetType/WIFI Language/zh_CN'
p187
sg16
S'5d5fa9f597148f7885ca41ef9aa060ec'
p188
sa(dp189
g2
S'45098'
p190
sg4
S'7992'
p191
sg6
S'b1600bdca2a74f5f77f8758d9e6f829f'
p192
sg8
S'xxc523559437b0e9dbbefccf8a4ed8f675'
p193
sg10
S'xx7e646eea0f29eb71bc7b01925e3fd738'
p194
sg12
S'xxbbacb969dcf0dd6d1494065895576b62'
p195
sg14
S'Mozilla/5.0 (Linux; Android 4.4.4; YEPEN Build/KTU84P) AppleWebKit/537.36 (KHTML, like Gecko) Version/4.0 Chrome/37.0.0.0 Mobile MQQBrowser/6.8 TBS/036849 Safari/537.36 MicroMessenger/6.3.27.880 NetType/WIFI Language/zh_CN'
p196
sg16
S'5d5fa9f597148f7885ca41ef9aa060ec'
p197
sa(dp198
g2
S'45098'
p199
sg4
S'8011'
p200
sg6
S'b1600bdca2a74f5f77f8758d9e6f829f'
p201
sg8
S'xxc523559437b0e9dbbefccf8a4ed8f675'
p202
sg10
S'xx7e646eea0f29eb71bc7b01925e3fd738'
p203
sg12
S'xxbbacb969dcf0dd6d1494065895576b62'
p204
sg14
S'Mozilla/5.0 (Linux; Android 4.4.4; YEPEN Build/KTU84P) AppleWebKit/537.36 (KHTML, like Gecko) Version/4.0 Chrome/37.0.0.0 Mobile MQQBrowser/6.8 TBS/036849 Safari/537.36 MicroMessenger/6.3.27.880 NetType/WIFI Language/zh_CN'
p205
sg16
S'5d5fa9f597148f7885ca41ef9aa060ec'
p206
sa(dp207
g2
S'45098'
p208
sg4
S'8030'
p209
sg6
S'b1600bdca2a74f5f77f8758d9e6f829f'
p210
sg8
S'xxc523559437b0e9dbbefccf8a4ed8f675'
p211
sg10
S'xx7e646eea0f29eb71bc7b01925e3fd738'
p212
sg12
S'xxbbacb969dcf0dd6d1494065895576b62'
p213
sg14
S'Mozilla/5.0 (Linux; Android 4.4.4; YEPEN Build/KTU84P) AppleWebKit/537.36 (KHTML, like Gecko) Version/4.0 Chrome/37.0.0.0 Mobile MQQBrowser/6.8 TBS/036849 Safari/537.36 MicroMessenger/6.3.27.880 NetType/WIFI Language/zh_CN'
p214
sg16
S'5d5fa9f597148f7885ca41ef9aa060ec'
p215
sa(dp216
g2
S'45098'
p217
sg4
S'8043'
p218
sg6
S'b1600bdca2a74f5f77f8758d9e6f829f'
p219
sg8
S'xxc523559437b0e9dbbefccf8a4ed8f675'
p220
sg10
S'xx7e646eea0f29eb71bc7b01925e3fd738'
p221
sg12
S'xxbbacb969dcf0dd6d1494065895576b62'
p222
sg14
S'Mozilla/5.0 (Linux; Android 4.4.4; YEPEN Build/KTU84P) AppleWebKit/537.36 (KHTML, like Gecko) Version/4.0 Chrome/37.0.0.0 Mobile MQQBrowser/6.8 TBS/036849 Safari/537.36 MicroMessenger/6.3.27.880 NetType/WIFI Language/zh_CN'
p223
sg16
S'5d5fa9f597148f7885ca41ef9aa060ec'
p224
sa(dp225
g2
S'45098'
p226
sg4
S'8057'
p227
sg6
S'b1600bdca2a74f5f77f8758d9e6f829f'
p228
sg8
S'xxc523559437b0e9dbbefccf8a4ed8f675'
p229
sg10
S'xx7e646eea0f29eb71bc7b01925e3fd738'
p230
sg12
S'xxbbacb969dcf0dd6d1494065895576b62'
p231
sg14
S'Mozilla/5.0 (Linux; Android 4.4.4; YEPEN Build/KTU84P) AppleWebKit/537.36 (KHTML, like Gecko) Version/4.0 Chrome/37.0.0.0 Mobile MQQBrowser/6.8 TBS/036849 Safari/537.36 MicroMessenger/6.3.27.880 NetType/WIFI Language/zh_CN'
p232
sg16
S'5d5fa9f597148f7885ca41ef9aa060ec'
p233
sa(dp234
g2
S'45098'
p235
sg4
S'8070'
p236
sg6
S'b1600bdca2a74f5f77f8758d9e6f829f'
p237
sg8
S'xxc523559437b0e9dbbefccf8a4ed8f675'
p238
sg10
S'xx7e646eea0f29eb71bc7b01925e3fd738'
p239
sg12
S'xxbbacb969dcf0dd6d1494065895576b62'
p240
sg14
S'Mozilla/5.0 (Linux; Android 4.4.4; YEPEN Build/KTU84P) AppleWebKit/537.36 (KHTML, like Gecko) Version/4.0 Chrome/37.0.0.0 Mobile MQQBrowser/6.8 TBS/036849 Safari/537.36 MicroMessenger/6.3.27.880 NetType/WIFI Language/zh_CN'
p241
sg16
S'5d5fa9f597148f7885ca41ef9aa060ec'
p242
sa(dp243
g2
S'45098'
p244
sg4
S'8086'
p245
sg6
S'b1600bdca2a74f5f77f8758d9e6f829f'
p246
sg8
S'xxc523559437b0e9dbbefccf8a4ed8f675'
p247
sg10
S'xx7e646eea0f29eb71bc7b01925e3fd738'
p248
sg12
S'xxbbacb969dcf0dd6d1494065895576b62'
p249
sg14
S'Mozilla/5.0 (Linux; Android 4.4.4; YEPEN Build/KTU84P) AppleWebKit/537.36 (KHTML, like Gecko) Version/4.0 Chrome/37.0.0.0 Mobile MQQBrowser/6.8 TBS/036849 Safari/537.36 MicroMessenger/6.3.27.880 NetType/WIFI Language/zh_CN'
p250
sg16
S'5d5fa9f597148f7885ca41ef9aa060ec'
p251
sa(dp252
g2
S'45098'
p253
sg4
S'8095'
p254
sg6
S'b1600bdca2a74f5f77f8758d9e6f829f'
p255
sg8
S'xxc523559437b0e9dbbefccf8a4ed8f675'
p256
sg10
S'xx7e646eea0f29eb71bc7b01925e3fd738'
p257
sg12
S'xxbbacb969dcf0dd6d1494065895576b62'
p258
sg14
S'Mozilla/5.0 (Linux; Android 4.4.4; YEPEN Build/KTU84P) AppleWebKit/537.36 (KHTML, like Gecko) Version/4.0 Chrome/37.0.0.0 Mobile MQQBrowser/6.8 TBS/036849 Safari/537.36 MicroMessenger/6.3.27.880 NetType/WIFI Language/zh_CN'
p259
sg16
S'5d5fa9f597148f7885ca41ef9aa060ec'
p260
sa(dp261
g2
S'45098'
p262
sg4
S'8106'
p263
sg6
S'b1600bdca2a74f5f77f8758d9e6f829f'
p264
sg8
S'xxc523559437b0e9dbbefccf8a4ed8f675'
p265
sg10
S'xx7e646eea0f29eb71bc7b01925e3fd738'
p266
sg12
S'xxbbacb969dcf0dd6d1494065895576b62'
p267
sg14
S'Mozilla/5.0 (Linux; Android 4.4.4; YEPEN Build/KTU84P) AppleWebKit/537.36 (KHTML, like Gecko) Version/4.0 Chrome/37.0.0.0 Mobile MQQBrowser/6.8 TBS/036849 Safari/537.36 MicroMessenger/6.3.27.880 NetType/WIFI Language/zh_CN'
p268
sg16
S'5d5fa9f597148f7885ca41ef9aa060ec'
p269
sa(dp270
g2
S'45098'
p271
sg4
S'8120'
p272
sg6
S'b1600bdca2a74f5f77f8758d9e6f829f'
p273
sg8
S'xxc523559437b0e9dbbefccf8a4ed8f675'
p274
sg10
S'xx7e646eea0f29eb71bc7b01925e3fd738'
p275
sg12
S'xxbbacb969dcf0dd6d1494065895576b62'
p276
sg14
S'Mozilla/5.0 (Linux; Android 4.4.4; YEPEN Build/KTU84P) AppleWebKit/537.36 (KHTML, like Gecko) Version/4.0 Chrome/37.0.0.0 Mobile MQQBrowser/6.8 TBS/036849 Safari/537.36 MicroMessenger/6.3.27.880 NetType/WIFI Language/zh_CN'
p277
sg16
S'5d5fa9f597148f7885ca41ef9aa060ec'
p278
sa(dp279
g2
S'45098'
p280
sg4
S'8131'
p281
sg6
S'b1600bdca2a74f5f77f8758d9e6f829f'
p282
sg8
S'xxc523559437b0e9dbbefccf8a4ed8f675'
p283
sg10
S'xx7e646eea0f29eb71bc7b01925e3fd738'
p284
sg12
S'xxbbacb969dcf0dd6d1494065895576b62'
p285
sg14
S'Mozilla/5.0 (Linux; Android 4.4.4; YEPEN Build/KTU84P) AppleWebKit/537.36 (KHTML, like Gecko) Version/4.0 Chrome/37.0.0.0 Mobile MQQBrowser/6.8 TBS/036849 Safari/537.36 MicroMessenger/6.3.27.880 NetType/WIFI Language/zh_CN'
p286
sg16
S'5d5fa9f597148f7885ca41ef9aa060ec'
p287
sa(dp288
g2
S'45098'
p289
sg4
S'8144'
p290
sg6
S'b1600bdca2a74f5f77f8758d9e6f829f'
p291
sg8
S'xxc523559437b0e9dbbefccf8a4ed8f675'
p292
sg10
S'xx7e646eea0f29eb71bc7b01925e3fd738'
p293
sg12
S'xxbbacb969dcf0dd6d1494065895576b62'
p294
sg14
S'Mozilla/5.0 (Linux; Android 4.4.4; YEPEN Build/KTU84P) AppleWebKit/537.36 (KHTML, like Gecko) Version/4.0 Chrome/37.0.0.0 Mobile MQQBrowser/6.8 TBS/036849 Safari/537.36 MicroMessenger/6.3.27.880 NetType/WIFI Language/zh_CN'
p295
sg16
S'5d5fa9f597148f7885ca41ef9aa060ec'
p296
sa(dp297
g2
S'45098'
p298
sg4
S'8156'
p299
sg6
S'b1600bdca2a74f5f77f8758d9e6f829f'
p300
sg8
S'xxc523559437b0e9dbbefccf8a4ed8f675'
p301
sg10
S'xx7e646eea0f29eb71bc7b01925e3fd738'
p302
sg12
S'xxbbacb969dcf0dd6d1494065895576b62'
p303
sg14
S'Mozilla/5.0 (Linux; Android 4.4.4; YEPEN Build/KTU84P) AppleWebKit/537.36 (KHTML, like Gecko) Version/4.0 Chrome/37.0.0.0 Mobile MQQBrowser/6.8 TBS/036849 Safari/537.36 MicroMessenger/6.3.27.880 NetType/WIFI Language/zh_CN'
p304
sg16
S'5d5fa9f597148f7885ca41ef9aa060ec'
p305
sa(dp306
g2
S'45098'
p307
sg4
S'8169'
p308
sg6
S'b1600bdca2a74f5f77f8758d9e6f829f'
p309
sg8
S'xxc523559437b0e9dbbefccf8a4ed8f675'
p310
sg10
S'xx7e646eea0f29eb71bc7b01925e3fd738'
p311
sg12
S'xxbbacb969dcf0dd6d1494065895576b62'
p312
sg14
S'Mozilla/5.0 (Linux; Android 4.4.4; YEPEN Build/KTU84P) AppleWebKit/537.36 (KHTML, like Gecko) Version/4.0 Chrome/37.0.0.0 Mobile MQQBrowser/6.8 TBS/036849 Safari/537.36 MicroMessenger/6.3.27.880 NetType/WIFI Language/zh_CN'
p313
sg16
S'5d5fa9f597148f7885ca41ef9aa060ec'
p314
sa(dp315
g2
S'45098'
p316
sg4
S'8177'
p317
sg6
S'b1600bdca2a74f5f77f8758d9e6f829f'
p318
sg8
S'xxc523559437b0e9dbbefccf8a4ed8f675'
p319
sg10
S'xx7e646eea0f29eb71bc7b01925e3fd738'
p320
sg12
S'xxbbacb969dcf0dd6d1494065895576b62'
p321
sg14
S'Mozilla/5.0 (Linux; Android 4.4.4; YEPEN Build/KTU84P) AppleWebKit/537.36 (KHTML, like Gecko) Version/4.0 Chrome/37.0.0.0 Mobile MQQBrowser/6.8 TBS/036849 Safari/537.36 MicroMessenger/6.3.27.880 NetType/WIFI Language/zh_CN'
p322
sg16
S'5d5fa9f597148f7885ca41ef9aa060ec'
p323
sa(dp324
g2
S'45098'
p325
sg4
S'8308'
p326
sg6
S'b1600bdca2a74f5f77f8758d9e6f829f'
p327
sg8
S'xxc523559437b0e9dbbefccf8a4ed8f675'
p328
sg10
S'xx7e646eea0f29eb71bc7b01925e3fd738'
p329
sg12
S'xxbbacb969dcf0dd6d1494065895576b62'
p330
sg14
S'Mozilla/5.0 (Linux; Android 4.4.4; YEPEN Build/KTU84P) AppleWebKit/537.36 (KHTML, like Gecko) Version/4.0 Chrome/37.0.0.0 Mobile MQQBrowser/6.8 TBS/036849 Safari/537.36 MicroMessenger/6.3.27.880 NetType/WIFI Language/zh_CN'
p331
sg16
S'5d5fa9f597148f7885ca41ef9aa060ec'
p332
sa(dp333
g2
S'45098'
p334
sg4
S'8315'
p335
sg6
S'b1600bdca2a74f5f77f8758d9e6f829f'
p336
sg8
S'xxc523559437b0e9dbbefccf8a4ed8f675'
p337
sg10
S'xx7e646eea0f29eb71bc7b01925e3fd738'
p338
sg12
S'xxbbacb969dcf0dd6d1494065895576b62'
p339
sg14
S'Mozilla/5.0 (Linux; Android 4.4.4; YEPEN Build/KTU84P) AppleWebKit/537.36 (KHTML, like Gecko) Version/4.0 Chrome/37.0.0.0 Mobile MQQBrowser/6.8 TBS/036849 Safari/537.36 MicroMessenger/6.3.27.880 NetType/WIFI Language/zh_CN'
p340
sg16
S'5d5fa9f597148f7885ca41ef9aa060ec'
p341
sa(dp342
g2
S'45098'
p343
sg4
S'8327'
p344
sg6
S'b1600bdca2a74f5f77f8758d9e6f829f'
p345
sg8
S'xxc523559437b0e9dbbefccf8a4ed8f675'
p346
sg10
S'xx7e646eea0f29eb71bc7b01925e3fd738'
p347
sg12
S'xxbbacb969dcf0dd6d1494065895576b62'
p348
sg14
S'Mozilla/5.0 (Linux; Android 4.4.4; YEPEN Build/KTU84P) AppleWebKit/537.36 (KHTML, like Gecko) Version/4.0 Chrome/37.0.0.0 Mobile MQQBrowser/6.8 TBS/036849 Safari/537.36 MicroMessenger/6.3.27.880 NetType/WIFI Language/zh_CN'
p349
sg16
S'5d5fa9f597148f7885ca41ef9aa060ec'
p350
sa(dp351
g2
S'45098'
p352
sg4
S'8342'
p353
sg6
S'b1600bdca2a74f5f77f8758d9e6f829f'
p354
sg8
S'xxc523559437b0e9dbbefccf8a4ed8f675'
p355
sg10
S'xx7e646eea0f29eb71bc7b01925e3fd738'
p356
sg12
S'xxbbacb969dcf0dd6d1494065895576b62'
p357
sg14
S'Mozilla/5.0 (Linux; Android 4.4.4; YEPEN Build/KTU84P) AppleWebKit/537.36 (KHTML, like Gecko) Version/4.0 Chrome/37.0.0.0 Mobile MQQBrowser/6.8 TBS/036849 Safari/537.36 MicroMessenger/6.3.27.880 NetType/WIFI Language/zh_CN'
p358
sg16
S'5d5fa9f597148f7885ca41ef9aa060ec'
p359
sa(dp360
g2
S'45098'
p361
sg4
S'8353'
p362
sg6
S'b1600bdca2a74f5f77f8758d9e6f829f'
p363
sg8
S'xxc523559437b0e9dbbefccf8a4ed8f675'
p364
sg10
S'xx7e646eea0f29eb71bc7b01925e3fd738'
p365
sg12
S'xxbbacb969dcf0dd6d1494065895576b62'
p366
sg14
S'Mozilla/5.0 (Linux; Android 4.4.4; YEPEN Build/KTU84P) AppleWebKit/537.36 (KHTML, like Gecko) Version/4.0 Chrome/37.0.0.0 Mobile MQQBrowser/6.8 TBS/036849 Safari/537.36 MicroMessenger/6.3.27.880 NetType/WIFI Language/zh_CN'
p367
sg16
S'5d5fa9f597148f7885ca41ef9aa060ec'
p368
sa(dp369
g2
S'45098'
p370
sg4
S'8368'
p371
sg6
S'b1600bdca2a74f5f77f8758d9e6f829f'
p372
sg8
S'xxc523559437b0e9dbbefccf8a4ed8f675'
p373
sg10
S'xx7e646eea0f29eb71bc7b01925e3fd738'
p374
sg12
S'xxbbacb969dcf0dd6d1494065895576b62'
p375
sg14
S'Mozilla/5.0 (Linux; Android 4.4.4; YEPEN Build/KTU84P) AppleWebKit/537.36 (KHTML, like Gecko) Version/4.0 Chrome/37.0.0.0 Mobile MQQBrowser/6.8 TBS/036849 Safari/537.36 MicroMessenger/6.3.27.880 NetType/WIFI Language/zh_CN'
p376
sg16
S'5d5fa9f597148f7885ca41ef9aa060ec'
p377
sa(dp378
g2
S'45098'
p379
sg4
S'8379'
p380
sg6
S'b1600bdca2a74f5f77f8758d9e6f829f'
p381
sg8
S'xxc523559437b0e9dbbefccf8a4ed8f675'
p382
sg10
S'xx7e646eea0f29eb71bc7b01925e3fd738'
p383
sg12
S'xxbbacb969dcf0dd6d1494065895576b62'
p384
sg14
S'Mozilla/5.0 (Linux; Android 4.4.4; YEPEN Build/KTU84P) AppleWebKit/537.36 (KHTML, like Gecko) Version/4.0 Chrome/37.0.0.0 Mobile MQQBrowser/6.8 TBS/036849 Safari/537.36 MicroMessenger/6.3.27.880 NetType/WIFI Language/zh_CN'
p385
sg16
S'5d5fa9f597148f7885ca41ef9aa060ec'
p386
sa(dp387
g2
S'45098'
p388
sg4
S'8395'
p389
sg6
S'b1600bdca2a74f5f77f8758d9e6f829f'
p390
sg8
S'xxc523559437b0e9dbbefccf8a4ed8f675'
p391
sg10
S'xx7e646eea0f29eb71bc7b01925e3fd738'
p392
sg12
S'xxbbacb969dcf0dd6d1494065895576b62'
p393
sg14
S'Mozilla/5.0 (Linux; Android 4.4.4; YEPEN Build/KTU84P) AppleWebKit/537.36 (KHTML, like Gecko) Version/4.0 Chrome/37.0.0.0 Mobile MQQBrowser/6.8 TBS/036849 Safari/537.36 MicroMessenger/6.3.27.880 NetType/WIFI Language/zh_CN'
p394
sg16
S'5d5fa9f597148f7885ca41ef9aa060ec'
p395
sa(dp396
g2
S'45098'
p397
sg4
S'8409'
p398
sg6
S'b1600bdca2a74f5f77f8758d9e6f829f'
p399
sg8
S'xxc523559437b0e9dbbefccf8a4ed8f675'
p400
sg10
S'xx7e646eea0f29eb71bc7b01925e3fd738'
p401
sg12
S'xxbbacb969dcf0dd6d1494065895576b62'
p402
sg14
S'Mozilla/5.0 (Linux; Android 4.4.4; YEPEN Build/KTU84P) AppleWebKit/537.36 (KHTML, like Gecko) Version/4.0 Chrome/37.0.0.0 Mobile MQQBrowser/6.8 TBS/036849 Safari/537.36 MicroMessenger/6.3.27.880 NetType/WIFI Language/zh_CN'
p403
sg16
S'5d5fa9f597148f7885ca41ef9aa060ec'
p404
sa(dp405
g2
S'45098'
p406
sg4
S'8420'
p407
sg6
S'b1600bdca2a74f5f77f8758d9e6f829f'
p408
sg8
S'xxc523559437b0e9dbbefccf8a4ed8f675'
p409
sg10
S'xx7e646eea0f29eb71bc7b01925e3fd738'
p410
sg12
S'xxbbacb969dcf0dd6d1494065895576b62'
p411
sg14
S'Mozilla/5.0 (Linux; Android 4.4.4; YEPEN Build/KTU84P) AppleWebKit/537.36 (KHTML, like Gecko) Version/4.0 Chrome/37.0.0.0 Mobile MQQBrowser/6.8 TBS/036849 Safari/537.36 MicroMessenger/6.3.27.880 NetType/WIFI Language/zh_CN'
p412
sg16
S'5d5fa9f597148f7885ca41ef9aa060ec'
p413
sa(dp414
g2
S'45098'
p415
sg4
S'8429'
p416
sg6
S'b1600bdca2a74f5f77f8758d9e6f829f'
p417
sg8
S'xxc523559437b0e9dbbefccf8a4ed8f675'
p418
sg10
S'xx7e646eea0f29eb71bc7b01925e3fd738'
p419
sg12
S'xxbbacb969dcf0dd6d1494065895576b62'
p420
sg14
S'Mozilla/5.0 (Linux; Android 4.4.4; YEPEN Build/KTU84P) AppleWebKit/537.36 (KHTML, like Gecko) Version/4.0 Chrome/37.0.0.0 Mobile MQQBrowser/6.8 TBS/036849 Safari/537.36 MicroMessenger/6.3.27.880 NetType/WIFI Language/zh_CN'
p421
sg16
S'5d5fa9f597148f7885ca41ef9aa060ec'
p422
sa(dp423
g2
S'45098'
p424
sg4
S'8442'
p425
sg6
S'b1600bdca2a74f5f77f8758d9e6f829f'
p426
sg8
S'xxc523559437b0e9dbbefccf8a4ed8f675'
p427
sg10
S'xx7e646eea0f29eb71bc7b01925e3fd738'
p428
sg12
S'xxbbacb969dcf0dd6d1494065895576b62'
p429
sg14
S'Mozilla/5.0 (Linux; Android 4.4.4; YEPEN Build/KTU84P) AppleWebKit/537.36 (KHTML, like Gecko) Version/4.0 Chrome/37.0.0.0 Mobile MQQBrowser/6.8 TBS/036849 Safari/537.36 MicroMessenger/6.3.27.880 NetType/WIFI Language/zh_CN'
p430
sg16
S'5d5fa9f597148f7885ca41ef9aa060ec'
p431
sa(dp432
g2
S'45098'
p433
sg4
S'8457'
p434
sg6
S'b1600bdca2a74f5f77f8758d9e6f829f'
p435
sg8
S'xxc523559437b0e9dbbefccf8a4ed8f675'
p436
sg10
S'xx7e646eea0f29eb71bc7b01925e3fd738'
p437
sg12
S'xxbbacb969dcf0dd6d1494065895576b62'
p438
sg14
S'Mozilla/5.0 (Linux; Android 4.4.4; YEPEN Build/KTU84P) AppleWebKit/537.36 (KHTML, like Gecko) Version/4.0 Chrome/37.0.0.0 Mobile MQQBrowser/6.8 TBS/036849 Safari/537.36 MicroMessenger/6.3.27.880 NetType/WIFI Language/zh_CN'
p439
sg16
S'5d5fa9f597148f7885ca41ef9aa060ec'
p440
sa(dp441
g2
S'45098'
p442
sg4
S'8472'
p443
sg6
S'b1600bdca2a74f5f77f8758d9e6f829f'
p444
sg8
S'xxc523559437b0e9dbbefccf8a4ed8f675'
p445
sg10
S'xx7e646eea0f29eb71bc7b01925e3fd738'
p446
sg12
S'xxbbacb969dcf0dd6d1494065895576b62'
p447
sg14
S'Mozilla/5.0 (Linux; Android 4.4.4; YEPEN Build/KTU84P) AppleWebKit/537.36 (KHTML, like Gecko) Version/4.0 Chrome/37.0.0.0 Mobile MQQBrowser/6.8 TBS/036849 Safari/537.36 MicroMessenger/6.3.27.880 NetType/WIFI Language/zh_CN'
p448
sg16
S'5d5fa9f597148f7885ca41ef9aa060ec'
p449
sa(dp450
g2
S'45098'
p451
sg4
S'8481'
p452
sg6
S'b1600bdca2a74f5f77f8758d9e6f829f'
p453
sg8
S'xxc523559437b0e9dbbefccf8a4ed8f675'
p454
sg10
S'xx7e646eea0f29eb71bc7b01925e3fd738'
p455
sg12
S'xxbbacb969dcf0dd6d1494065895576b62'
p456
sg14
S'Mozilla/5.0 (Linux; Android 4.4.4; YEPEN Build/KTU84P) AppleWebKit/537.36 (KHTML, like Gecko) Version/4.0 Chrome/37.0.0.0 Mobile MQQBrowser/6.8 TBS/036849 Safari/537.36 MicroMessenger/6.3.27.880 NetType/WIFI Language/zh_CN'
p457
sg16
S'5d5fa9f597148f7885ca41ef9aa060ec'
p458
sa(dp459
g2
S'45098'
p460
sg4
S'8493'
p461
sg6
S'b1600bdca2a74f5f77f8758d9e6f829f'
p462
sg8
S'xxc523559437b0e9dbbefccf8a4ed8f675'
p463
sg10
S'xx7e646eea0f29eb71bc7b01925e3fd738'
p464
sg12
S'xxbbacb969dcf0dd6d1494065895576b62'
p465
sg14
S'Mozilla/5.0 (Linux; Android 4.4.4; YEPEN Build/KTU84P) AppleWebKit/537.36 (KHTML, like Gecko) Version/4.0 Chrome/37.0.0.0 Mobile MQQBrowser/6.8 TBS/036849 Safari/537.36 MicroMessenger/6.3.27.880 NetType/WIFI Language/zh_CN'
p466
sg16
S'5d5fa9f597148f7885ca41ef9aa060ec'
p467
sa(dp468
g2
S'45098'
p469
sg4
S'8501'
p470
sg6
S'b1600bdca2a74f5f77f8758d9e6f829f'
p471
sg8
S'xxc523559437b0e9dbbefccf8a4ed8f675'
p472
sg10
S'xx7e646eea0f29eb71bc7b01925e3fd738'
p473
sg12
S'xxbbacb969dcf0dd6d1494065895576b62'
p474
sg14
S'Mozilla/5.0 (Linux; Android 4.4.4; YEPEN Build/KTU84P) AppleWebKit/537.36 (KHTML, like Gecko) Version/4.0 Chrome/37.0.0.0 Mobile MQQBrowser/6.8 TBS/036849 Safari/537.36 MicroMessenger/6.3.27.880 NetType/WIFI Language/zh_CN'
p475
sg16
S'5d5fa9f597148f7885ca41ef9aa060ec'
p476
sa(dp477
g2
S'45098'
p478
sg4
S'8512'
p479
sg6
S'b1600bdca2a74f5f77f8758d9e6f829f'
p480
sg8
S'xxc523559437b0e9dbbefccf8a4ed8f675'
p481
sg10
S'xx7e646eea0f29eb71bc7b01925e3fd738'
p482
sg12
S'xxbbacb969dcf0dd6d1494065895576b62'
p483
sg14
S'Mozilla/5.0 (Linux; Android 4.4.4; YEPEN Build/KTU84P) AppleWebKit/537.36 (KHTML, like Gecko) Version/4.0 Chrome/37.0.0.0 Mobile MQQBrowser/6.8 TBS/036849 Safari/537.36 MicroMessenger/6.3.27.880 NetType/WIFI Language/zh_CN'
p484
sg16
S'5d5fa9f597148f7885ca41ef9aa060ec'
p485
sa(dp486
g2
S'45098'
p487
sg4
S'8521'
p488
sg6
S'b1600bdca2a74f5f77f8758d9e6f829f'
p489
sg8
S'xxc523559437b0e9dbbefccf8a4ed8f675'
p490
sg10
S'xx7e646eea0f29eb71bc7b01925e3fd738'
p491
sg12
S'xxbbacb969dcf0dd6d1494065895576b62'
p492
sg14
S'Mozilla/5.0 (Linux; Android 4.4.4; YEPEN Build/KTU84P) AppleWebKit/537.36 (KHTML, like Gecko) Version/4.0 Chrome/37.0.0.0 Mobile MQQBrowser/6.8 TBS/036849 Safari/537.36 MicroMessenger/6.3.27.880 NetType/WIFI Language/zh_CN'
p493
sg16
S'5d5fa9f597148f7885ca41ef9aa060ec'
p494
sa(dp495
g2
S'45098'
p496
sg4
S'8534'
p497
sg6
S'b1600bdca2a74f5f77f8758d9e6f829f'
p498
sg8
S'xxc523559437b0e9dbbefccf8a4ed8f675'
p499
sg10
S'xx7e646eea0f29eb71bc7b01925e3fd738'
p500
sg12
S'xxbbacb969dcf0dd6d1494065895576b62'
p501
sg14
S'Mozilla/5.0 (Linux; Android 4.4.4; YEPEN Build/KTU84P) AppleWebKit/537.36 (KHTML, like Gecko) Version/4.0 Chrome/37.0.0.0 Mobile MQQBrowser/6.8 TBS/036849 Safari/537.36 MicroMessenger/6.3.27.880 NetType/WIFI Language/zh_CN'
p502
sg16
S'5d5fa9f597148f7885ca41ef9aa060ec'
p503
sa(dp504
g2
S'45098'
p505
sg4
S'8549'
p506
sg6
S'b1600bdca2a74f5f77f8758d9e6f829f'
p507
sg8
S'xxc523559437b0e9dbbefccf8a4ed8f675'
p508
sg10
S'xx7e646eea0f29eb71bc7b01925e3fd738'
p509
sg12
S'xxbbacb969dcf0dd6d1494065895576b62'
p510
sg14
S'Mozilla/5.0 (Linux; Android 4.4.4; YEPEN Build/KTU84P) AppleWebKit/537.36 (KHTML, like Gecko) Version/4.0 Chrome/37.0.0.0 Mobile MQQBrowser/6.8 TBS/036849 Safari/537.36 MicroMessenger/6.3.27.880 NetType/WIFI Language/zh_CN'
p511
sg16
S'5d5fa9f597148f7885ca41ef9aa060ec'
p512
sa(dp513
g2
S'45098'
p514
sg4
S'8566'
p515
sg6
S'b1600bdca2a74f5f77f8758d9e6f829f'
p516
sg8
S'xxc523559437b0e9dbbefccf8a4ed8f675'
p517
sg10
S'xx7e646eea0f29eb71bc7b01925e3fd738'
p518
sg12
S'xxbbacb969dcf0dd6d1494065895576b62'
p519
sg14
S'Mozilla/5.0 (Linux; Android 4.4.4; YEPEN Build/KTU84P) AppleWebKit/537.36 (KHTML, like Gecko) Version/4.0 Chrome/37.0.0.0 Mobile MQQBrowser/6.8 TBS/036849 Safari/537.36 MicroMessenger/6.3.27.880 NetType/WIFI Language/zh_CN'
p520
sg16
S'5d5fa9f597148f7885ca41ef9aa060ec'
p521
sa(dp522
g2
S'45098'
p523
sg4
S'8583'
p524
sg6
S'b1600bdca2a74f5f77f8758d9e6f829f'
p525
sg8
S'xxc523559437b0e9dbbefccf8a4ed8f675'
p526
sg10
S'xx7e646eea0f29eb71bc7b01925e3fd738'
p527
sg12
S'xxbbacb969dcf0dd6d1494065895576b62'
p528
sg14
S'Mozilla/5.0 (Linux; Android 4.4.4; YEPEN Build/KTU84P) AppleWebKit/537.36 (KHTML, like Gecko) Version/4.0 Chrome/37.0.0.0 Mobile MQQBrowser/6.8 TBS/036849 Safari/537.36 MicroMessenger/6.3.27.880 NetType/WIFI Language/zh_CN'
p529
sg16
S'5d5fa9f597148f7885ca41ef9aa060ec'
p530
sa(dp531
g2
S'45098'
p532
sg4
S'8601'
p533
sg6
S'b1600bdca2a74f5f77f8758d9e6f829f'
p534
sg8
S'xxc523559437b0e9dbbefccf8a4ed8f675'
p535
sg10
S'xx7e646eea0f29eb71bc7b01925e3fd738'
p536
sg12
S'xxbbacb969dcf0dd6d1494065895576b62'
p537
sg14
S'Mozilla/5.0 (Linux; Android 4.4.4; YEPEN Build/KTU84P) AppleWebKit/537.36 (KHTML, like Gecko) Version/4.0 Chrome/37.0.0.0 Mobile MQQBrowser/6.8 TBS/036849 Safari/537.36 MicroMessenger/6.3.27.880 NetType/WIFI Language/zh_CN'
p538
sg16
S'5d5fa9f597148f7885ca41ef9aa060ec'
p539
sa(dp540
g2
S'45098'
p541
sg4
S'8624'
p542
sg6
S'b1600bdca2a74f5f77f8758d9e6f829f'
p543
sg8
S'xxc523559437b0e9dbbefccf8a4ed8f675'
p544
sg10
S'xx7e646eea0f29eb71bc7b01925e3fd738'
p545
sg12
S'xxbbacb969dcf0dd6d1494065895576b62'
p546
sg14
S'Mozilla/5.0 (Linux; Android 4.4.4; YEPEN Build/KTU84P) AppleWebKit/537.36 (KHTML, like Gecko) Version/4.0 Chrome/37.0.0.0 Mobile MQQBrowser/6.8 TBS/036849 Safari/537.36 MicroMessenger/6.3.27.880 NetType/WIFI Language/zh_CN'
p547
sg16
S'5d5fa9f597148f7885ca41ef9aa060ec'
p548
sa(dp549
g2
S'45098'
p550
sg4
S'8642'
p551
sg6
S'b1600bdca2a74f5f77f8758d9e6f829f'
p552
sg8
S'xxc523559437b0e9dbbefccf8a4ed8f675'
p553
sg10
S'xx7e646eea0f29eb71bc7b01925e3fd738'
p554
sg12
S'xxbbacb969dcf0dd6d1494065895576b62'
p555
sg14
S'Mozilla/5.0 (Linux; Android 4.4.4; YEPEN Build/KTU84P) AppleWebKit/537.36 (KHTML, like Gecko) Version/4.0 Chrome/37.0.0.0 Mobile MQQBrowser/6.8 TBS/036849 Safari/537.36 MicroMessenger/6.3.27.880 NetType/WIFI Language/zh_CN'
p556
sg16
S'5d5fa9f597148f7885ca41ef9aa060ec'
p557
sa(dp558
g2
S'45098'
p559
sg4
S'8659'
p560
sg6
S'b1600bdca2a74f5f77f8758d9e6f829f'
p561
sg8
S'xxc523559437b0e9dbbefccf8a4ed8f675'
p562
sg10
S'xx7e646eea0f29eb71bc7b01925e3fd738'
p563
sg12
S'xxbbacb969dcf0dd6d1494065895576b62'
p564
sg14
S'Mozilla/5.0 (Linux; Android 4.4.4; YEPEN Build/KTU84P) AppleWebKit/537.36 (KHTML, like Gecko) Version/4.0 Chrome/37.0.0.0 Mobile MQQBrowser/6.8 TBS/036849 Safari/537.36 MicroMessenger/6.3.27.880 NetType/WIFI Language/zh_CN'
p565
sg16
S'5d5fa9f597148f7885ca41ef9aa060ec'
p566
sa(dp567
g2
S'45098'
p568
sg4
S'8679'
p569
sg6
S'b1600bdca2a74f5f77f8758d9e6f829f'
p570
sg8
S'xxc523559437b0e9dbbefccf8a4ed8f675'
p571
sg10
S'xx7e646eea0f29eb71bc7b01925e3fd738'
p572
sg12
S'xxbbacb969dcf0dd6d1494065895576b62'
p573
sg14
S'Mozilla/5.0 (Linux; Android 4.4.4; YEPEN Build/KTU84P) AppleWebKit/537.36 (KHTML, like Gecko) Version/4.0 Chrome/37.0.0.0 Mobile MQQBrowser/6.8 TBS/036849 Safari/537.36 MicroMessenger/6.3.27.880 NetType/WIFI Language/zh_CN'
p574
sg16
S'5d5fa9f597148f7885ca41ef9aa060ec'
p575
sa(dp576
g2
S'45098'
p577
sg4
S'8697'
p578
sg6
S'b1600bdca2a74f5f77f8758d9e6f829f'
p579
sg8
S'xxc523559437b0e9dbbefccf8a4ed8f675'
p580
sg10
S'xx7e646eea0f29eb71bc7b01925e3fd738'
p581
sg12
S'xxbbacb969dcf0dd6d1494065895576b62'
p582
sg14
S'Mozilla/5.0 (Linux; Android 4.4.4; YEPEN Build/KTU84P) AppleWebKit/537.36 (KHTML, like Gecko) Version/4.0 Chrome/37.0.0.0 Mobile MQQBrowser/6.8 TBS/036849 Safari/537.36 MicroMessenger/6.3.27.880 NetType/WIFI Language/zh_CN'
p583
sg16
S'5d5fa9f597148f7885ca41ef9aa060ec'
p584
sa(dp585
g2
S'45098'
p586
sg4
S'8717'
p587
sg6
S'b1600bdca2a74f5f77f8758d9e6f829f'
p588
sg8
S'xxc523559437b0e9dbbefccf8a4ed8f675'
p589
sg10
S'xx7e646eea0f29eb71bc7b01925e3fd738'
p590
sg12
S'xxbbacb969dcf0dd6d1494065895576b62'
p591
sg14
S'Mozilla/5.0 (Linux; Android 4.4.4; YEPEN Build/KTU84P) AppleWebKit/537.36 (KHTML, like Gecko) Version/4.0 Chrome/37.0.0.0 Mobile MQQBrowser/6.8 TBS/036849 Safari/537.36 MicroMessenger/6.3.27.880 NetType/WIFI Language/zh_CN'
p592
sg16
S'5d5fa9f597148f7885ca41ef9aa060ec'
p593
sa(dp594
g2
S'45098'
p595
sg4
S'8734'
p596
sg6
S'b1600bdca2a74f5f77f8758d9e6f829f'
p597
sg8
S'xxc523559437b0e9dbbefccf8a4ed8f675'
p598
sg10
S'xx7e646eea0f29eb71bc7b01925e3fd738'
p599
sg12
S'xxbbacb969dcf0dd6d1494065895576b62'
p600
sg14
S'Mozilla/5.0 (Linux; Android 4.4.4; YEPEN Build/KTU84P) AppleWebKit/537.36 (KHTML, like Gecko) Version/4.0 Chrome/37.0.0.0 Mobile MQQBrowser/6.8 TBS/036849 Safari/537.36 MicroMessenger/6.3.27.880 NetType/WIFI Language/zh_CN'
p601
sg16
S'5d5fa9f597148f7885ca41ef9aa060ec'
p602
sa(dp603
g2
S'45098'
p604
sg4
S'8751'
p605
sg6
S'b1600bdca2a74f5f77f8758d9e6f829f'
p606
sg8
S'xxc523559437b0e9dbbefccf8a4ed8f675'
p607
sg10
S'xx7e646eea0f29eb71bc7b01925e3fd738'
p608
sg12
S'xxbbacb969dcf0dd6d1494065895576b62'
p609
sg14
S'Mozilla/5.0 (Linux; Android 4.4.4; YEPEN Build/KTU84P) AppleWebKit/537.36 (KHTML, like Gecko) Version/4.0 Chrome/37.0.0.0 Mobile MQQBrowser/6.8 TBS/036849 Safari/537.36 MicroMessenger/6.3.27.880 NetType/WIFI Language/zh_CN'
p610
sg16
S'5d5fa9f597148f7885ca41ef9aa060ec'
p611
sa(dp612
g2
S'45098'
p613
sg4
S'8764'
p614
sg6
S'b1600bdca2a74f5f77f8758d9e6f829f'
p615
sg8
S'xxc523559437b0e9dbbefccf8a4ed8f675'
p616
sg10
S'xx7e646eea0f29eb71bc7b01925e3fd738'
p617
sg12
S'xxbbacb969dcf0dd6d1494065895576b62'
p618
sg14
S'Mozilla/5.0 (Linux; Android 4.4.4; YEPEN Build/KTU84P) AppleWebKit/537.36 (KHTML, like Gecko) Version/4.0 Chrome/37.0.0.0 Mobile MQQBrowser/6.8 TBS/036849 Safari/537.36 MicroMessenger/6.3.27.880 NetType/WIFI Language/zh_CN'
p619
sg16
S'5d5fa9f597148f7885ca41ef9aa060ec'
p620
sa(dp621
g2
S'45098'
p622
sg4
S'8774'
p623
sg6
S'b1600bdca2a74f5f77f8758d9e6f829f'
p624
sg8
S'xxc523559437b0e9dbbefccf8a4ed8f675'
p625
sg10
S'xx7e646eea0f29eb71bc7b01925e3fd738'
p626
sg12
S'xxbbacb969dcf0dd6d1494065895576b62'
p627
sg14
S'Mozilla/5.0 (Linux; Android 4.4.4; YEPEN Build/KTU84P) AppleWebKit/537.36 (KHTML, like Gecko) Version/4.0 Chrome/37.0.0.0 Mobile MQQBrowser/6.8 TBS/036849 Safari/537.36 MicroMessenger/6.3.27.880 NetType/WIFI Language/zh_CN'
p628
sg16
S'5d5fa9f597148f7885ca41ef9aa060ec'
p629
sa(dp630
g2
S'45098'
p631
sg4
S'8785'
p632
sg6
S'b1600bdca2a74f5f77f8758d9e6f829f'
p633
sg8
S'xxc523559437b0e9dbbefccf8a4ed8f675'
p634
sg10
S'xx7e646eea0f29eb71bc7b01925e3fd738'
p635
sg12
S'xxbbacb969dcf0dd6d1494065895576b62'
p636
sg14
S'Mozilla/5.0 (Linux; Android 4.4.4; YEPEN Build/KTU84P) AppleWebKit/537.36 (KHTML, like Gecko) Version/4.0 Chrome/37.0.0.0 Mobile MQQBrowser/6.8 TBS/036849 Safari/537.36 MicroMessenger/6.3.27.880 NetType/WIFI Language/zh_CN'
p637
sg16
S'5d5fa9f597148f7885ca41ef9aa060ec'
p638
sa(dp639
g2
S'45098'
p640
sg4
S'8799'
p641
sg6
S'b1600bdca2a74f5f77f8758d9e6f829f'
p642
sg8
S'xxc523559437b0e9dbbefccf8a4ed8f675'
p643
sg10
S'xx7e646eea0f29eb71bc7b01925e3fd738'
p644
sg12
S'xxbbacb969dcf0dd6d1494065895576b62'
p645
sg14
S'Mozilla/5.0 (Linux; Android 4.4.4; YEPEN Build/KTU84P) AppleWebKit/537.36 (KHTML, like Gecko) Version/4.0 Chrome/37.0.0.0 Mobile MQQBrowser/6.8 TBS/036849 Safari/537.36 MicroMessenger/6.3.27.880 NetType/WIFI Language/zh_CN'
p646
sg16
S'5d5fa9f597148f7885ca41ef9aa060ec'
p647
sa(dp648
g2
S'45098'
p649
sg4
S'8809'
p650
sg6
S'b1600bdca2a74f5f77f8758d9e6f829f'
p651
sg8
S'xxc523559437b0e9dbbefccf8a4ed8f675'
p652
sg10
S'xx7e646eea0f29eb71bc7b01925e3fd738'
p653
sg12
S'xxbbacb969dcf0dd6d1494065895576b62'
p654
sg14
S'Mozilla/5.0 (Linux; Android 4.4.4; YEPEN Build/KTU84P) AppleWebKit/537.36 (KHTML, like Gecko) Version/4.0 Chrome/37.0.0.0 Mobile MQQBrowser/6.8 TBS/036849 Safari/537.36 MicroMessenger/6.3.27.880 NetType/WIFI Language/zh_CN'
p655
sg16
S'5d5fa9f597148f7885ca41ef9aa060ec'
p656
sa(dp657
g2
S'45098'
p658
sg4
S'8817'
p659
sg6
S'b1600bdca2a74f5f77f8758d9e6f829f'
p660
sg8
S'xxc523559437b0e9dbbefccf8a4ed8f675'
p661
sg10
S'xx7e646eea0f29eb71bc7b01925e3fd738'
p662
sg12
S'xxbbacb969dcf0dd6d1494065895576b62'
p663
sg14
S'Mozilla/5.0 (Linux; Android 4.4.4; YEPEN Build/KTU84P) AppleWebKit/537.36 (KHTML, like Gecko) Version/4.0 Chrome/37.0.0.0 Mobile MQQBrowser/6.8 TBS/036849 Safari/537.36 MicroMessenger/6.3.27.880 NetType/WIFI Language/zh_CN'
p664
sg16
S'5d5fa9f597148f7885ca41ef9aa060ec'
p665
sa(dp666
g2
S'45098'
p667
sg4
S'8827'
p668
sg6
S'b1600bdca2a74f5f77f8758d9e6f829f'
p669
sg8
S'xxc523559437b0e9dbbefccf8a4ed8f675'
p670
sg10
S'xx7e646eea0f29eb71bc7b01925e3fd738'
p671
sg12
S'xxbbacb969dcf0dd6d1494065895576b62'
p672
sg14
S'Mozilla/5.0 (Linux; Android 4.4.4; YEPEN Build/KTU84P) AppleWebKit/537.36 (KHTML, like Gecko) Version/4.0 Chrome/37.0.0.0 Mobile MQQBrowser/6.8 TBS/036849 Safari/537.36 MicroMessenger/6.3.27.880 NetType/WIFI Language/zh_CN'
p673
sg16
S'5d5fa9f597148f7885ca41ef9aa060ec'
p674
sa(dp675
g2
S'45098'
p676
sg4
S'8839'
p677
sg6
S'b1600bdca2a74f5f77f8758d9e6f829f'
p678
sg8
S'xxc523559437b0e9dbbefccf8a4ed8f675'
p679
sg10
S'xx7e646eea0f29eb71bc7b01925e3fd738'
p680
sg12
S'xxbbacb969dcf0dd6d1494065895576b62'
p681
sg14
S'Mozilla/5.0 (Linux; Android 4.4.4; YEPEN Build/KTU84P) AppleWebKit/537.36 (KHTML, like Gecko) Version/4.0 Chrome/37.0.0.0 Mobile MQQBrowser/6.8 TBS/036849 Safari/537.36 MicroMessenger/6.3.27.880 NetType/WIFI Language/zh_CN'
p682
sg16
S'5d5fa9f597148f7885ca41ef9aa060ec'
p683
sa.