(lp0
(dp1
S'user_id'
p2
S'27155'
p3
sS'data_id'
p4
S'3190'
p5
sS'ip'
p6
S'c17e96ac34d43b5a75b94e6c10c2580f'
p7
sS'phone_B'
p8
S'xx160266e767d6b949bf367c0436d4b7fd'
p9
sS'phone_C'
p10
S'xxa4a42593ecd3ae659f21d7349973d22a'
p11
sS'phone_A'
p12
S'xxbbf170f53811c622ce4184f5fe26b7f2'
p13
sS'user_agent'
p14
S'Mozilla/5.0 (Linux; Android 6.0; Le X620 Build/HEXCNFN5801607142S; wv) AppleWebKit/537.36 (KHTML, like Gecko) Version/4.0 Chrome/49.0.2623.91 Mobile Safari/537.36 MicroMessenger/6.3.25.861 NetType/WIFI Language/zh_CN'
p15
sS'ua'
p16
S'90e4eb2ff46877114755bdd4fbd24cc2'
p17
sa(dp18
g2
S'27155'
p19
sg4
S'3205'
p20
sg6
S'c17e96ac34d43b5a75b94e6c10c2580f'
p21
sg8
S'xx160266e767d6b949bf367c0436d4b7fd'
p22
sg10
S'xxa4a42593ecd3ae659f21d7349973d22a'
p23
sg12
S'xxbbf170f53811c622ce4184f5fe26b7f2'
p24
sg14
S'Mozilla/5.0 (Linux; Android 6.0; Le X620 Build/HEXCNFN5801607142S; wv) AppleWebKit/537.36 (KHTML, like Gecko) Version/4.0 Chrome/49.0.2623.91 Mobile Safari/537.36 MicroMessenger/6.3.25.861 NetType/WIFI Language/zh_CN'
p25
sg16
S'90e4eb2ff46877114755bdd4fbd24cc2'
p26
sa(dp27
g2
S'31803'
p28
sg4
S'3269'
p29
sg6
S'c17e96ac34d43b5a75b94e6c10c2580f'
p30
sg8
S'xx86157923aeea35a1ff7f646c1daf3ce3'
p31
sg10
S'xxa4a42593ecd3ae659f21d7349973d22a'
p32
sg12
S'xxbbf170f53811c622ce4184f5fe26b7f2'
p33
sg14
S'Mozilla/5.0 (Linux; Android 6.0; Le X620 Build/HEXCNFN5801607142S; wv) AppleWebKit/537.36 (KHTML, like Gecko) Version/4.0 Chrome/49.0.2623.91 Mobile Safari/537.36 MicroMessenger/6.3.27.880 NetType/WIFI Language/zh_CN'
p34
sg16
S'c4c45e6a1561e1092ca3576cebef56f9'
p35
sa(dp36
g2
S'31803'
p37
sg4
S'3284'
p38
sg6
S'c17e96ac34d43b5a75b94e6c10c2580f'
p39
sg8
S'xx86157923aeea35a1ff7f646c1daf3ce3'
p40
sg10
S'xxa4a42593ecd3ae659f21d7349973d22a'
p41
sg12
S'xxbbf170f53811c622ce4184f5fe26b7f2'
p42
sg14
S'Mozilla/5.0 (Linux; Android 6.0; Le X620 Build/HEXCNFN5801607142S; wv) AppleWebKit/537.36 (KHTML, like Gecko) Version/4.0 Chrome/49.0.2623.91 Mobile Safari/537.36 MicroMessenger/6.3.27.880 NetType/WIFI Language/zh_CN'
p43
sg16
S'c4c45e6a1561e1092ca3576cebef56f9'
p44
sa(dp45
g2
S'31997'
p46
sg4
S'3354'
p47
sg6
S'c17e96ac34d43b5a75b94e6c10c2580f'
p48
sg8
S'xx86157923aeea35a1ff7f646c1daf3ce3'
p49
sg10
S'xxa4a42593ecd3ae659f21d7349973d22a'
p50
sg12
S'xxbbf170f53811c622ce4184f5fe26b7f2'
p51
sg14
S'Mozilla/5.0 (Linux; Android 6.0; Le X620 Build/HEXCNFN5801607142S; wv) AppleWebKit/537.36 (KHTML, like Gecko) Version/4.0 Chrome/49.0.2623.91 Mobile Safari/537.36 MicroMessenger/6.3.27.880 NetType/WIFI Language/zh_CN'
p52
sg16
S'c4c45e6a1561e1092ca3576cebef56f9'
p53
sa(dp54
g2
S'27155'
p55
sg4
S'4416'
p56
sg6
S'c17e96ac34d43b5a75b94e6c10c2580f'
p57
sg8
S'xx160266e767d6b949bf367c0436d4b7fd'
p58
sg10
S'xxa4a42593ecd3ae659f21d7349973d22a'
p59
sg12
S'xxbbf170f53811c622ce4184f5fe26b7f2'
p60
sg14
S'Mozilla/5.0 (Linux; Android 6.0; Le X620 Build/HEXCNFN5801607142S; wv) AppleWebKit/537.36 (KHTML, like Gecko) Version/4.0 Chrome/49.0.2623.91 Mobile Safari/537.36 MicroMessenger/6.3.25.861 NetType/WIFI Language/zh_CN'
p61
sg16
S'90e4eb2ff46877114755bdd4fbd24cc2'
p62
sa(dp63
g2
S'27155'
p64
sg4
S'4438'
p65
sg6
S'c17e96ac34d43b5a75b94e6c10c2580f'
p66
sg8
S'xx160266e767d6b949bf367c0436d4b7fd'
p67
sg10
S'xxa4a42593ecd3ae659f21d7349973d22a'
p68
sg12
S'xxbbf170f53811c622ce4184f5fe26b7f2'
p69
sg14
S'Mozilla/5.0 (Linux; Android 6.0; Le X620 Build/HEXCNFN5801607142S; wv) AppleWebKit/537.36 (KHTML, like Gecko) Version/4.0 Chrome/49.0.2623.91 Mobile Safari/537.36 MicroMessenger/6.3.25.861 NetType/WIFI Language/zh_CN'
p70
sg16
S'90e4eb2ff46877114755bdd4fbd24cc2'
p71
sa(dp72
g2
S'27155'
p73
sg4
S'4454'
p74
sg6
S'c17e96ac34d43b5a75b94e6c10c2580f'
p75
sg8
S'xx160266e767d6b949bf367c0436d4b7fd'
p76
sg10
S'xxa4a42593ecd3ae659f21d7349973d22a'
p77
sg12
S'xxbbf170f53811c622ce4184f5fe26b7f2'
p78
sg14
S'Mozilla/5.0 (Linux; Android 6.0; Le X620 Build/HEXCNFN5801607142S; wv) AppleWebKit/537.36 (KHTML, like Gecko) Version/4.0 Chrome/49.0.2623.91 Mobile Safari/537.36 MicroMessenger/6.3.25.861 NetType/WIFI Language/zh_CN'
p79
sg16
S'90e4eb2ff46877114755bdd4fbd24cc2'
p80
sa(dp81
g2
S'31803'
p82
sg4
S'4566'
p83
sg6
S'c17e96ac34d43b5a75b94e6c10c2580f'
p84
sg8
S'xx86157923aeea35a1ff7f646c1daf3ce3'
p85
sg10
S'xxa4a42593ecd3ae659f21d7349973d22a'
p86
sg12
S'xxbbf170f53811c622ce4184f5fe26b7f2'
p87
sg14
S'Mozilla/5.0 (Linux; Android 6.0; Le X620 Build/HEXCNFN5801607142S; wv) AppleWebKit/537.36 (KHTML, like Gecko) Version/4.0 Chrome/49.0.2623.91 Mobile Safari/537.36 MicroMessenger/6.3.27.880 NetType/WIFI Language/zh_CN'
p88
sg16
S'c4c45e6a1561e1092ca3576cebef56f9'
p89
sa(dp90
g2
S'31997'
p91
sg4
S'4711'
p92
sg6
S'c17e96ac34d43b5a75b94e6c10c2580f'
p93
sg8
S'xx86157923aeea35a1ff7f646c1daf3ce3'
p94
sg10
S'xxa4a42593ecd3ae659f21d7349973d22a'
p95
sg12
S'xxbbf170f53811c622ce4184f5fe26b7f2'
p96
sg14
S'Mozilla/5.0 (Linux; Android 6.0; Le X620 Build/HEXCNFN5801607142S; wv) AppleWebKit/537.36 (KHTML, like Gecko) Version/4.0 Chrome/49.0.2623.91 Mobile Safari/537.36 MicroMessenger/6.3.27.880 NetType/WIFI Language/zh_CN'
p97
sg16
S'c4c45e6a1561e1092ca3576cebef56f9'
p98
sa(dp99
g2
S'31997'
p100
sg4
S'4730'
p101
sg6
S'c17e96ac34d43b5a75b94e6c10c2580f'
p102
sg8
S'xx86157923aeea35a1ff7f646c1daf3ce3'
p103
sg10
S'xxa4a42593ecd3ae659f21d7349973d22a'
p104
sg12
S'xxbbf170f53811c622ce4184f5fe26b7f2'
p105
sg14
S'Mozilla/5.0 (Linux; Android 6.0; Le X620 Build/HEXCNFN5801607142S; wv) AppleWebKit/537.36 (KHTML, like Gecko) Version/4.0 Chrome/49.0.2623.91 Mobile Safari/537.36 MicroMessenger/6.3.27.880 NetType/WIFI Language/zh_CN'
p106
sg16
S'c4c45e6a1561e1092ca3576cebef56f9'
p107
sa.