(lp0
(dp1
S'user_id'
p2
S'36517'
p3
sS'data_id'
p4
S'3701'
p5
sS'ip'
p6
S'812d9d112200b3816bebfb4966d51b33'
p7
sS'phone_B'
p8
S'xx1a62c4b61864bfaf09264596d7a2fdd9'
p9
sS'phone_C'
p10
S'xx345474f7f4c162365ccc980e6a4738c3'
p11
sS'phone_A'
p12
S'xxbd18dfbadc86f7f06cd2d2ddcd8fc6d5'
p13
sS'user_agent'
p14
S'Mozilla/5.0 (Linux; Android 6.0; Le X620 Build/HEXCNFN5801809301S) AppleWebKit/537.36 (KHTML, like Gecko) Version/4.0 Chrome/37.0.0.0 Mobile MQQBrowser/6.8 TBS/036849 Safari/537.36 MicroMessenger/6.3.25.861 NetType/WIFI Language/zh_CN'
p15
sS'ua'
p16
S'2fc27e811df7b6daf762f787ae44f88f'
p17
sa(dp18
g2
S'36517'
p19
sg4
S'3718'
p20
sg6
S'812d9d112200b3816bebfb4966d51b33'
p21
sg8
S'xx1a62c4b61864bfaf09264596d7a2fdd9'
p22
sg10
S'xx345474f7f4c162365ccc980e6a4738c3'
p23
sg12
S'xxbd18dfbadc86f7f06cd2d2ddcd8fc6d5'
p24
sg14
S'Mozilla/5.0 (Linux; Android 6.0; Le X620 Build/HEXCNFN5801809301S) AppleWebKit/537.36 (KHTML, like Gecko) Version/4.0 Chrome/37.0.0.0 Mobile MQQBrowser/6.8 TBS/036849 Safari/537.36 MicroMessenger/6.3.25.861 NetType/WIFI Language/zh_CN'
p25
sg16
S'2fc27e811df7b6daf762f787ae44f88f'
p26
sa(dp27
g2
S'36517'
p28
sg4
S'3736'
p29
sg6
S'812d9d112200b3816bebfb4966d51b33'
p30
sg8
S'xx1a62c4b61864bfaf09264596d7a2fdd9'
p31
sg10
S'xx345474f7f4c162365ccc980e6a4738c3'
p32
sg12
S'xxbd18dfbadc86f7f06cd2d2ddcd8fc6d5'
p33
sg14
S'Mozilla/5.0 (Linux; Android 6.0; Le X620 Build/HEXCNFN5801809301S) AppleWebKit/537.36 (KHTML, like Gecko) Version/4.0 Chrome/37.0.0.0 Mobile MQQBrowser/6.8 TBS/036849 Safari/537.36 MicroMessenger/6.3.25.861 NetType/WIFI Language/zh_CN'
p34
sg16
S'2fc27e811df7b6daf762f787ae44f88f'
p35
sa(dp36
g2
S'41291'
p37
sg4
S'3941'
p38
sg6
S'812d9d112200b3816bebfb4966d51b33'
p39
sg8
S'xx1a62c4b61864bfaf09264596d7a2fdd9'
p40
sg10
S'xx345474f7f4c162365ccc980e6a4738c3'
p41
sg12
S'xxbd18dfbadc86f7f06cd2d2ddcd8fc6d5'
p42
sg14
S'Mozilla/5.0 (Linux; Android 6.0; Le X620 Build/HEXCNFN5801809301S) AppleWebKit/537.36 (KHTML, like Gecko) Version/4.0 Chrome/37.0.0.0 Mobile MQQBrowser/6.8 TBS/036849 Safari/537.36 MicroMessenger/6.3.25.861 NetType/WIFI Language/zh_CN'
p43
sg16
S'2fc27e811df7b6daf762f787ae44f88f'
p44
sa(dp45
g2
S'41291'
p46
sg4
S'3963'
p47
sg6
S'812d9d112200b3816bebfb4966d51b33'
p48
sg8
S'xx1a62c4b61864bfaf09264596d7a2fdd9'
p49
sg10
S'xx345474f7f4c162365ccc980e6a4738c3'
p50
sg12
S'xxbd18dfbadc86f7f06cd2d2ddcd8fc6d5'
p51
sg14
S'Mozilla/5.0 (Linux; Android 6.0; Le X620 Build/HEXCNFN5801809301S) AppleWebKit/537.36 (KHTML, like Gecko) Version/4.0 Chrome/37.0.0.0 Mobile MQQBrowser/6.8 TBS/036849 Safari/537.36 MicroMessenger/6.3.25.861 NetType/WIFI Language/zh_CN'
p52
sg16
S'2fc27e811df7b6daf762f787ae44f88f'
p53
sa.