(lp0
(dp1
S'user_id'
p2
S'6068'
p3
sS'data_id'
p4
S'2683'
p5
sS'ip'
p6
S'cda826045d4be2fc639c100a065a492b'
p7
sS'phone_B'
p8
S'xx8a5dcd1e28937a9ae23bf2ac40963b03'
p9
sS'phone_C'
p10
S'xx08f8a5ec362ecde54e047f6f49d62a09'
p11
sS'phone_A'
p12
S'xxbe04417138fe18a82831440b9d4f227c'
p13
sS'user_agent'
p14
S'Mozilla/5.0 (Linux; Android 4.4.2; PE-UL00 Build/HuaweiPE-UL00) AppleWebKit/537.36 (KHTML, like Gecko) Version/4.0 Chrome/37.0.0.0 Mobile MQQBrowser/6.8 TBS/036860 Safari/537.36 MicroMessenger/6.3.27.880 NetType/3gnet Language/zh_CN'
p15
sS'ua'
p16
S'd52d646667dc1865449e9c05b03634b5'
p17
sa(dp18
g2
S'6068'
p19
sg4
S'2706'
p20
sg6
S'cda826045d4be2fc639c100a065a492b'
p21
sg8
S'xx8a5dcd1e28937a9ae23bf2ac40963b03'
p22
sg10
S'xx08f8a5ec362ecde54e047f6f49d62a09'
p23
sg12
S'xxbe04417138fe18a82831440b9d4f227c'
p24
sg14
S'Mozilla/5.0 (Linux; Android 4.4.2; PE-UL00 Build/HuaweiPE-UL00) AppleWebKit/537.36 (KHTML, like Gecko) Version/4.0 Chrome/37.0.0.0 Mobile MQQBrowser/6.8 TBS/036860 Safari/537.36 MicroMessenger/6.3.27.880 NetType/3gnet Language/zh_CN'
p25
sg16
S'd52d646667dc1865449e9c05b03634b5'
p26
sa.