(lp0
(dp1
S'user_id'
p2
S'42112'
p3
sS'data_id'
p4
S'2930'
p5
sS'ip'
p6
S'dd357e7ebd99f0c5ef623e8d1aec9934'
p7
sS'phone_B'
p8
S'xx906405d7b36e01ac099aeec1542b799a'
p9
sS'phone_C'
p10
S'xxe67f94617ae6cf7ce8020bf478c70c03'
p11
sS'phone_A'
p12
S'xxbeeaff09fafcc2ab8dd665586ddf9b37'
p13
sS'user_agent'
p14
S'Mozilla/5.0 (Linux; Android 5.1.1; SUGAR C6 Build/LMY47V) AppleWebKit/537.36 (KHTML, like Gecko) Version/4.0 Chrome/37.0.0.0 Mobile MQQBrowser/6.8 TBS/036849 Safari/537.36 MicroMessenger/6.3.27.880 NetType/WIFI Language/zh_CN'
p15
sS'ua'
p16
S'657c994b8047876ce2587906c8e581a8'
p17
sa(dp18
g2
S'42112'
p19
sg4
S'2950'
p20
sg6
S'dd357e7ebd99f0c5ef623e8d1aec9934'
p21
sg8
S'xx906405d7b36e01ac099aeec1542b799a'
p22
sg10
S'xxe67f94617ae6cf7ce8020bf478c70c03'
p23
sg12
S'xxbeeaff09fafcc2ab8dd665586ddf9b37'
p24
sg14
S'Mozilla/5.0 (Linux; Android 5.1.1; SUGAR C6 Build/LMY47V) AppleWebKit/537.36 (KHTML, like Gecko) Version/4.0 Chrome/37.0.0.0 Mobile MQQBrowser/6.8 TBS/036849 Safari/537.36 MicroMessenger/6.3.27.880 NetType/WIFI Language/zh_CN'
p25
sg16
S'657c994b8047876ce2587906c8e581a8'
p26
sa(dp27
g2
S'42112'
p28
sg4
S'2975'
p29
sg6
S'dd357e7ebd99f0c5ef623e8d1aec9934'
p30
sg8
S'xx906405d7b36e01ac099aeec1542b799a'
p31
sg10
S'xxe67f94617ae6cf7ce8020bf478c70c03'
p32
sg12
S'xxbeeaff09fafcc2ab8dd665586ddf9b37'
p33
sg14
S'Mozilla/5.0 (Linux; Android 5.1.1; SUGAR C6 Build/LMY47V) AppleWebKit/537.36 (KHTML, like Gecko) Version/4.0 Chrome/37.0.0.0 Mobile MQQBrowser/6.8 TBS/036849 Safari/537.36 MicroMessenger/6.3.27.880 NetType/WIFI Language/zh_CN'
p34
sg16
S'657c994b8047876ce2587906c8e581a8'
p35
sa.