(lp0
(dp1
S'user_id'
p2
S'21188'
p3
sS'data_id'
p4
S'296'
p5
sS'ip'
p6
S'6857f71e4441648634da0f203af8440b'
p7
sS'phone_B'
p8
S'xx25fa9dbd159f4c4f8ee4dc40a3e76b53'
p9
sS'phone_C'
p10
S'xxf184c8f88197d10b8d3344ac0323a7ee'
p11
sS'phone_A'
p12
S'xxbf068e7ac2f3c6348418dd8d6b3f5aa8'
p13
sS'user_agent'
p14
S'Mozilla/5.0 (Linux; Android 4.4.4; HM 1S Build/KTU84P) AppleWebKit/537.36 (KHTML, like Gecko) Version/4.0 Chrome/37.0.0.0 Mobile MQQBrowser/6.8 TBS/036849 Safari/537.36 MicroMessenger/6.3.25.861 NetType/WIFI Language/zh_CN'
p15
sS'ua'
p16
S'07aefb7d9d40a03182b182c4702508e6'
p17
sa(dp18
g2
S'21188'
p19
sg4
S'315'
p20
sg6
S'6857f71e4441648634da0f203af8440b'
p21
sg8
S'xx25fa9dbd159f4c4f8ee4dc40a3e76b53'
p22
sg10
S'xxf184c8f88197d10b8d3344ac0323a7ee'
p23
sg12
S'xxbf068e7ac2f3c6348418dd8d6b3f5aa8'
p24
sg14
S'Mozilla/5.0 (Linux; Android 4.4.4; HM 1S Build/KTU84P) AppleWebKit/537.36 (KHTML, like Gecko) Version/4.0 Chrome/37.0.0.0 Mobile MQQBrowser/6.8 TBS/036849 Safari/537.36 MicroMessenger/6.3.25.861 NetType/WIFI Language/zh_CN'
p25
sg16
S'07aefb7d9d40a03182b182c4702508e6'
p26
sa(dp27
g2
S'22344'
p28
sg4
S'432'
p29
sg6
S'6857f71e4441648634da0f203af8440b'
p30
sg8
S'xx25fa9dbd159f4c4f8ee4dc40a3e76b53'
p31
sg10
S'xxf184c8f88197d10b8d3344ac0323a7ee'
p32
sg12
S'xxbf068e7ac2f3c6348418dd8d6b3f5aa8'
p33
sg14
S'Mozilla/5.0 (Linux; Android 4.4.4; HM 1S Build/KTU84P) AppleWebKit/537.36 (KHTML, like Gecko) Version/4.0 Chrome/37.0.0.0 Mobile MQQBrowser/6.8 TBS/036849 Safari/537.36 MicroMessenger/6.3.25.861 NetType/WIFI Language/zh_CN'
p34
sg16
S'07aefb7d9d40a03182b182c4702508e6'
p35
sa(dp36
g2
S'22344'
p37
sg4
S'443'
p38
sg6
S'6857f71e4441648634da0f203af8440b'
p39
sg8
S'xx25fa9dbd159f4c4f8ee4dc40a3e76b53'
p40
sg10
S'xxf184c8f88197d10b8d3344ac0323a7ee'
p41
sg12
S'xxbf068e7ac2f3c6348418dd8d6b3f5aa8'
p42
sg14
S'Mozilla/5.0 (Linux; Android 4.4.4; HM 1S Build/KTU84P) AppleWebKit/537.36 (KHTML, like Gecko) Version/4.0 Chrome/37.0.0.0 Mobile MQQBrowser/6.8 TBS/036849 Safari/537.36 MicroMessenger/6.3.25.861 NetType/WIFI Language/zh_CN'
p43
sg16
S'07aefb7d9d40a03182b182c4702508e6'
p44
sa(dp45
g2
S'22344'
p46
sg4
S'456'
p47
sg6
S'6857f71e4441648634da0f203af8440b'
p48
sg8
S'xx25fa9dbd159f4c4f8ee4dc40a3e76b53'
p49
sg10
S'xxf184c8f88197d10b8d3344ac0323a7ee'
p50
sg12
S'xxbf068e7ac2f3c6348418dd8d6b3f5aa8'
p51
sg14
S'Mozilla/5.0 (Linux; Android 4.4.4; HM 1S Build/KTU84P) AppleWebKit/537.36 (KHTML, like Gecko) Version/4.0 Chrome/37.0.0.0 Mobile MQQBrowser/6.8 TBS/036849 Safari/537.36 MicroMessenger/6.3.25.861 NetType/WIFI Language/zh_CN'
p52
sg16
S'07aefb7d9d40a03182b182c4702508e6'
p53
sa(dp54
g2
S'22344'
p55
sg4
S'465'
p56
sg6
S'6857f71e4441648634da0f203af8440b'
p57
sg8
S'xx25fa9dbd159f4c4f8ee4dc40a3e76b53'
p58
sg10
S'xxf184c8f88197d10b8d3344ac0323a7ee'
p59
sg12
S'xxbf068e7ac2f3c6348418dd8d6b3f5aa8'
p60
sg14
S'Mozilla/5.0 (Linux; Android 4.4.4; HM 1S Build/KTU84P) AppleWebKit/537.36 (KHTML, like Gecko) Version/4.0 Chrome/37.0.0.0 Mobile MQQBrowser/6.8 TBS/036849 Safari/537.36 MicroMessenger/6.3.25.861 NetType/WIFI Language/zh_CN'
p61
sg16
S'07aefb7d9d40a03182b182c4702508e6'
p62
sa(dp63
g2
S'22344'
p64
sg4
S'473'
p65
sg6
S'6857f71e4441648634da0f203af8440b'
p66
sg8
S'xx25fa9dbd159f4c4f8ee4dc40a3e76b53'
p67
sg10
S'xxf184c8f88197d10b8d3344ac0323a7ee'
p68
sg12
S'xxbf068e7ac2f3c6348418dd8d6b3f5aa8'
p69
sg14
S'Mozilla/5.0 (Linux; Android 4.4.4; HM 1S Build/KTU84P) AppleWebKit/537.36 (KHTML, like Gecko) Version/4.0 Chrome/37.0.0.0 Mobile MQQBrowser/6.8 TBS/036849 Safari/537.36 MicroMessenger/6.3.25.861 NetType/WIFI Language/zh_CN'
p70
sg16
S'07aefb7d9d40a03182b182c4702508e6'
p71
sa(dp72
g2
S'29531'
p73
sg4
S'946'
p74
sg6
S'8ac4bc508bd0f308e6f7a0002f018e01'
p75
sg8
S'xx25fa9dbd159f4c4f8ee4dc40a3e76b53'
p76
sg10
S'xxf184c8f88197d10b8d3344ac0323a7ee'
p77
sg12
S'xxbf068e7ac2f3c6348418dd8d6b3f5aa8'
p78
sg14
S'Mozilla/5.0 (Linux; Android 4.4.4; HM 1S Build/KTU84P) AppleWebKit/537.36 (KHTML, like Gecko) Version/4.0 Chrome/37.0.0.0 Mobile MQQBrowser/6.8 TBS/036849 Safari/537.36 MicroMessenger/6.3.25.861 NetType/WIFI Language/zh_CN'
p79
sg16
S'07aefb7d9d40a03182b182c4702508e6'
p80
sa(dp81
g2
S'29531'
p82
sg4
S'965'
p83
sg6
S'8ac4bc508bd0f308e6f7a0002f018e01'
p84
sg8
S'xx25fa9dbd159f4c4f8ee4dc40a3e76b53'
p85
sg10
S'xxf184c8f88197d10b8d3344ac0323a7ee'
p86
sg12
S'xxbf068e7ac2f3c6348418dd8d6b3f5aa8'
p87
sg14
S'Mozilla/5.0 (Linux; Android 4.4.4; HM 1S Build/KTU84P) AppleWebKit/537.36 (KHTML, like Gecko) Version/4.0 Chrome/37.0.0.0 Mobile MQQBrowser/6.8 TBS/036849 Safari/537.36 MicroMessenger/6.3.25.861 NetType/WIFI Language/zh_CN'
p88
sg16
S'07aefb7d9d40a03182b182c4702508e6'
p89
sa(dp90
g2
S'29531'
p91
sg4
S'985'
p92
sg6
S'8ac4bc508bd0f308e6f7a0002f018e01'
p93
sg8
S'xx25fa9dbd159f4c4f8ee4dc40a3e76b53'
p94
sg10
S'xxf184c8f88197d10b8d3344ac0323a7ee'
p95
sg12
S'xxbf068e7ac2f3c6348418dd8d6b3f5aa8'
p96
sg14
S'Mozilla/5.0 (Linux; Android 4.4.4; HM 1S Build/KTU84P) AppleWebKit/537.36 (KHTML, like Gecko) Version/4.0 Chrome/37.0.0.0 Mobile MQQBrowser/6.8 TBS/036849 Safari/537.36 MicroMessenger/6.3.25.861 NetType/WIFI Language/zh_CN'
p97
sg16
S'07aefb7d9d40a03182b182c4702508e6'
p98
sa(dp99
g2
S'30633'
p100
sg4
S'3016'
p101
sg6
S'8c45aec587d8586e0964fb81b7ce4547'
p102
sg8
S'xx36649336e62770e04434c3567259088a'
p103
sg10
S'xxf184c8f88197d10b8d3344ac0323a7ee'
p104
sg12
S'xxbf068e7ac2f3c6348418dd8d6b3f5aa8'
p105
sg14
S'Mozilla/5.0 (Linux; Android 4.4.4; HM 1S Build/KTU84P) AppleWebKit/537.36 (KHTML, like Gecko) Version/4.0 Chrome/37.0.0.0 Mobile MQQBrowser/6.8 TBS/036824 Safari/537.36 MicroMessenger/6.3.27.880 NetType/WIFI Language/zh_CN'
p106
sg16
S'c4fc0a91e18e77c0854910a88ab8c32c'
p107
sa(dp108
g2
S'30633'
p109
sg4
S'3030'
p110
sg6
S'8c45aec587d8586e0964fb81b7ce4547'
p111
sg8
S'xx36649336e62770e04434c3567259088a'
p112
sg10
S'xxf184c8f88197d10b8d3344ac0323a7ee'
p113
sg12
S'xxbf068e7ac2f3c6348418dd8d6b3f5aa8'
p114
sg14
S'Mozilla/5.0 (Linux; Android 4.4.4; HM 1S Build/KTU84P) AppleWebKit/537.36 (KHTML, like Gecko) Version/4.0 Chrome/37.0.0.0 Mobile MQQBrowser/6.8 TBS/036824 Safari/537.36 MicroMessenger/6.3.27.880 NetType/WIFI Language/zh_CN'
p115
sg16
S'c4fc0a91e18e77c0854910a88ab8c32c'
p116
sa(dp117
g2
S'49782'
p118
sg4
S'4338'
p119
sg6
S'83f5d8cfcd78f29466dca6167994ebe7'
p120
sg8
S'xxdedcc3ca43a816367cfc071391ba89df'
p121
sg10
S'xxf184c8f88197d10b8d3344ac0323a7ee'
p122
sg12
S'xxbf068e7ac2f3c6348418dd8d6b3f5aa8'
p123
sg14
S'Mozilla/5.0 (Linux; Android 4.4.4; HM 1S Build/KTU84P) AppleWebKit/537.36 (KHTML, like Gecko) Version/4.0 Chrome/37.0.0.0 Mobile MQQBrowser/6.8 TBS/036849 Safari/537.36 MicroMessenger/6.3.27.880 NetType/WIFI Language/zh_CN'
p124
sg16
S'3607fbcca20406a12fe06bf245697b55'
p125
sa(dp126
g2
S'49782'
p127
sg4
S'4362'
p128
sg6
S'83f5d8cfcd78f29466dca6167994ebe7'
p129
sg8
S'xxdedcc3ca43a816367cfc071391ba89df'
p130
sg10
S'xxf184c8f88197d10b8d3344ac0323a7ee'
p131
sg12
S'xxbf068e7ac2f3c6348418dd8d6b3f5aa8'
p132
sg14
S'Mozilla/5.0 (Linux; Android 4.4.4; HM 1S Build/KTU84P) AppleWebKit/537.36 (KHTML, like Gecko) Version/4.0 Chrome/37.0.0.0 Mobile MQQBrowser/6.8 TBS/036849 Safari/537.36 MicroMessenger/6.3.27.880 NetType/WIFI Language/zh_CN'
p133
sg16
S'3607fbcca20406a12fe06bf245697b55'
p134
sa(dp135
g2
S'49782'
p136
sg4
S'4388'
p137
sg6
S'83f5d8cfcd78f29466dca6167994ebe7'
p138
sg8
S'xxdedcc3ca43a816367cfc071391ba89df'
p139
sg10
S'xxf184c8f88197d10b8d3344ac0323a7ee'
p140
sg12
S'xxbf068e7ac2f3c6348418dd8d6b3f5aa8'
p141
sg14
S'Mozilla/5.0 (Linux; Android 4.4.4; HM 1S Build/KTU84P) AppleWebKit/537.36 (KHTML, like Gecko) Version/4.0 Chrome/37.0.0.0 Mobile MQQBrowser/6.8 TBS/036849 Safari/537.36 MicroMessenger/6.3.27.880 NetType/WIFI Language/zh_CN'
p142
sg16
S'3607fbcca20406a12fe06bf245697b55'
p143
sa(dp144
g2
S'30595'
p145
sg4
S'4856'
p146
sg6
S'8c45aec587d8586e0964fb81b7ce4547'
p147
sg8
S'xx36649336e62770e04434c3567259088a'
p148
sg10
S'xxf184c8f88197d10b8d3344ac0323a7ee'
p149
sg12
S'xxbf068e7ac2f3c6348418dd8d6b3f5aa8'
p150
sg14
S'Mozilla/5.0 (Linux; Android 4.4.4; HM 1S Build/KTU84P) AppleWebKit/537.36 (KHTML, like Gecko) Version/4.0 Chrome/37.0.0.0 Mobile MQQBrowser/6.8 TBS/036824 Safari/537.36 MicroMessenger/6.3.27.880 NetType/WIFI Language/zh_CN'
p151
sg16
S'c4fc0a91e18e77c0854910a88ab8c32c'
p152
sa(dp153
g2
S'30595'
p154
sg4
S'4874'
p155
sg6
S'8c45aec587d8586e0964fb81b7ce4547'
p156
sg8
S'xx36649336e62770e04434c3567259088a'
p157
sg10
S'xxf184c8f88197d10b8d3344ac0323a7ee'
p158
sg12
S'xxbf068e7ac2f3c6348418dd8d6b3f5aa8'
p159
sg14
S'Mozilla/5.0 (Linux; Android 4.4.4; HM 1S Build/KTU84P) AppleWebKit/537.36 (KHTML, like Gecko) Version/4.0 Chrome/37.0.0.0 Mobile MQQBrowser/6.8 TBS/036824 Safari/537.36 MicroMessenger/6.3.27.880 NetType/WIFI Language/zh_CN'
p160
sg16
S'c4fc0a91e18e77c0854910a88ab8c32c'
p161
sa.