(lp0
(dp1
S'user_id'
p2
S'32637'
p3
sS'data_id'
p4
S'2080'
p5
sS'ip'
p6
S'678a38af6fe266519e206db2a83f446b'
p7
sS'phone_B'
p8
S'xx80101aa3df49df43dac39fe1504b0c27'
p9
sS'phone_C'
p10
S'xx52151d64d779d05003cb50bd155cc58b'
p11
sS'phone_A'
p12
S'xxbf903fee7d48270fc7168fea7b2a63dc'
p13
sS'user_agent'
p14
S'Mozilla/5.0 (Linux; Android 4.3; HM 1S Build/JLS36C) AppleWebKit/537.36 (KHTML, like Gecko) Version/4.0 Chrome/37.0.0.0 Mobile MQQBrowser/6.8 TBS/036824 Safari/537.36 MicroMessenger/6.3.27.880 NetType/WIFI Language/zh_CN'
p15
sS'ua'
p16
S'440a236980e7ccc6e459476aac8cb94e'
p17
sa(dp18
g2
S'32637'
p19
sg4
S'2091'
p20
sg6
S'678a38af6fe266519e206db2a83f446b'
p21
sg8
S'xx80101aa3df49df43dac39fe1504b0c27'
p22
sg10
S'xx52151d64d779d05003cb50bd155cc58b'
p23
sg12
S'xxbf903fee7d48270fc7168fea7b2a63dc'
p24
sg14
S'Mozilla/5.0 (Linux; Android 4.3; HM 1S Build/JLS36C) AppleWebKit/537.36 (KHTML, like Gecko) Version/4.0 Chrome/37.0.0.0 Mobile MQQBrowser/6.8 TBS/036824 Safari/537.36 MicroMessenger/6.3.27.880 NetType/WIFI Language/zh_CN'
p25
sg16
S'440a236980e7ccc6e459476aac8cb94e'
p26
sa(dp27
g2
S'4950'
p28
sg4
S'2360'
p29
sg6
S'01951f40ebf23358e1f942506c44c8f2'
p30
sg8
S'xxb613b6cdc403ab132ed1d6ffaa4e28ef'
p31
sg10
S'xx52151d64d779d05003cb50bd155cc58b'
p32
sg12
S'xxbf903fee7d48270fc7168fea7b2a63dc'
p33
sg14
S'Mozilla/5.0 (Linux; Android 4.3; HM 1S Build/JLS36C) AppleWebKit/537.36 (KHTML, like Gecko) Version/4.0 Chrome/37.0.0.0 Mobile MQQBrowser/6.8 TBS/036824 Safari/537.36 MicroMessenger/6.3.27.880 NetType/ctnet Language/zh_CN'
p34
sg16
S'9e80ebbb93e680780461fee19d1fe379'
p35
sa(dp36
g2
S'4950'
p37
sg4
S'2381'
p38
sg6
S'01951f40ebf23358e1f942506c44c8f2'
p39
sg8
S'xxb613b6cdc403ab132ed1d6ffaa4e28ef'
p40
sg10
S'xx52151d64d779d05003cb50bd155cc58b'
p41
sg12
S'xxbf903fee7d48270fc7168fea7b2a63dc'
p42
sg14
S'Mozilla/5.0 (Linux; Android 4.3; HM 1S Build/JLS36C) AppleWebKit/537.36 (KHTML, like Gecko) Version/4.0 Chrome/37.0.0.0 Mobile MQQBrowser/6.8 TBS/036824 Safari/537.36 MicroMessenger/6.3.27.880 NetType/ctnet Language/zh_CN'
p43
sg16
S'9e80ebbb93e680780461fee19d1fe379'
p44
sa(dp45
g2
S'32635'
p46
sg4
S'2588'
p47
sg6
S'678a38af6fe266519e206db2a83f446b'
p48
sg8
S'xx80101aa3df49df43dac39fe1504b0c27'
p49
sg10
S'xx52151d64d779d05003cb50bd155cc58b'
p50
sg12
S'xxbf903fee7d48270fc7168fea7b2a63dc'
p51
sg14
S'Mozilla/5.0 (Linux; Android 4.3; HM 1S Build/JLS36C) AppleWebKit/537.36 (KHTML, like Gecko) Version/4.0 Chrome/37.0.0.0 Mobile MQQBrowser/6.8 TBS/036824 Safari/537.36 MicroMessenger/6.3.27.880 NetType/WIFI Language/zh_CN'
p52
sg16
S'440a236980e7ccc6e459476aac8cb94e'
p53
sa(dp54
g2
S'32635'
p55
sg4
S'2603'
p56
sg6
S'678a38af6fe266519e206db2a83f446b'
p57
sg8
S'xx80101aa3df49df43dac39fe1504b0c27'
p58
sg10
S'xx52151d64d779d05003cb50bd155cc58b'
p59
sg12
S'xxbf903fee7d48270fc7168fea7b2a63dc'
p60
sg14
S'Mozilla/5.0 (Linux; Android 4.3; HM 1S Build/JLS36C) AppleWebKit/537.36 (KHTML, like Gecko) Version/4.0 Chrome/37.0.0.0 Mobile MQQBrowser/6.8 TBS/036824 Safari/537.36 MicroMessenger/6.3.27.880 NetType/WIFI Language/zh_CN'
p61
sg16
S'440a236980e7ccc6e459476aac8cb94e'
p62
sa(dp63
g2
S'4950'
p64
sg4
S'7761'
p65
sg6
S'c280e6c4e545783a0e18b67273cebcbd'
p66
sg8
S'xxb613b6cdc403ab132ed1d6ffaa4e28ef'
p67
sg10
S'xx52151d64d779d05003cb50bd155cc58b'
p68
sg12
S'xxbf903fee7d48270fc7168fea7b2a63dc'
p69
sg14
S'Mozilla/5.0 (Linux; Android 4.3; HM 1S Build/JLS36C) AppleWebKit/537.36 (KHTML, like Gecko) Version/4.0 Chrome/37.0.0.0 Mobile MQQBrowser/6.8 TBS/036824 Safari/537.36 MicroMessenger/6.3.27.880 NetType/ctnet Language/zh_CN'
p70
sg16
S'9e80ebbb93e680780461fee19d1fe379'
p71
sa(dp72
g2
S'4950'
p73
sg4
S'7775'
p74
sg6
S'c280e6c4e545783a0e18b67273cebcbd'
p75
sg8
S'xxb613b6cdc403ab132ed1d6ffaa4e28ef'
p76
sg10
S'xx52151d64d779d05003cb50bd155cc58b'
p77
sg12
S'xxbf903fee7d48270fc7168fea7b2a63dc'
p78
sg14
S'Mozilla/5.0 (Linux; Android 4.3; HM 1S Build/JLS36C) AppleWebKit/537.36 (KHTML, like Gecko) Version/4.0 Chrome/37.0.0.0 Mobile MQQBrowser/6.8 TBS/036824 Safari/537.36 MicroMessenger/6.3.27.880 NetType/ctnet Language/zh_CN'
p79
sg16
S'9e80ebbb93e680780461fee19d1fe379'
p80
sa.