(lp0
(dp1
S'user_id'
p2
S'25669'
p3
sS'data_id'
p4
S'1120'
p5
sS'ip'
p6
S'2ce0651b083d18eb999a8712e4df2720'
p7
sS'phone_B'
p8
S'xx96c9a6dd131676686217e24c3b88c508'
p9
sS'phone_C'
p10
S'xxa0a897545828b819c57b43fd483e4c66'
p11
sS'phone_A'
p12
S'xxc10dc28aeebcb406e7aa023f95015ec4'
p13
sS'user_agent'
p14
S'Mozilla/5.0 (Linux; Android 5.1; CK3-01 Build/LMY47D) AppleWebKit/537.36 (KHTML, like Gecko) Version/4.0 Chrome/37.0.0.0 Mobile MQQBrowser/6.8 TBS/036824 Safari/537.36 MicroMessenger/6.3.25.861 NetType/3gnet Language/zh_CN'
p15
sS'ua'
p16
S'1507f8066dc4c6c868c972562d0c0a5c'
p17
sa(dp18
g2
S'25669'
p19
sg4
S'1139'
p20
sg6
S'2ce0651b083d18eb999a8712e4df2720'
p21
sg8
S'xx96c9a6dd131676686217e24c3b88c508'
p22
sg10
S'xxa0a897545828b819c57b43fd483e4c66'
p23
sg12
S'xxc10dc28aeebcb406e7aa023f95015ec4'
p24
sg14
S'Mozilla/5.0 (Linux; Android 5.1; CK3-01 Build/LMY47D) AppleWebKit/537.36 (KHTML, like Gecko) Version/4.0 Chrome/37.0.0.0 Mobile MQQBrowser/6.8 TBS/036824 Safari/537.36 MicroMessenger/6.3.25.861 NetType/3gnet Language/zh_CN'
p25
sg16
S'1507f8066dc4c6c868c972562d0c0a5c'
p26
sa.