(lp0
(dp1
S'user_id'
p2
S'29229'
p3
sS'data_id'
p4
S'4190'
p5
sS'ip'
p6
S'cfb17fbc28c2dd50823277fab4d3864d'
p7
sS'phone_B'
p8
S'xx90530958d1ad0e7c7f2d06533ae989ab'
p9
sS'phone_C'
p10
S'xx03be2750ef1431c9ff6bd97440bdc3f9'
p11
sS'phone_A'
p12
S'xxc1c1fe206eff000a71c894d2e258e029'
p13
sS'user_agent'
p14
S'Mozilla/5.0 (Linux; Android 4.4.4; vivo Y13i Build/KTU84P) AppleWebKit/537.36 (KHTML, like Gecko) Version/4.0 Chrome/37.0.0.0 Mobile MQQBrowser/6.8 TBS/036849 Safari/537.36 MicroMessenger/6.3.27.880 NetType/WIFI Language/zh_CN'
p15
sS'ua'
p16
S'13e60e11f39d2a18fc6d5edbfd45cc8b'
p17
sa(dp18
g2
S'29229'
p19
sg4
S'4215'
p20
sg6
S'cfb17fbc28c2dd50823277fab4d3864d'
p21
sg8
S'xx90530958d1ad0e7c7f2d06533ae989ab'
p22
sg10
S'xx03be2750ef1431c9ff6bd97440bdc3f9'
p23
sg12
S'xxc1c1fe206eff000a71c894d2e258e029'
p24
sg14
S'Mozilla/5.0 (Linux; Android 4.4.4; vivo Y13i Build/KTU84P) AppleWebKit/537.36 (KHTML, like Gecko) Version/4.0 Chrome/37.0.0.0 Mobile MQQBrowser/6.8 TBS/036849 Safari/537.36 MicroMessenger/6.3.27.880 NetType/WIFI Language/zh_CN'
p25
sg16
S'13e60e11f39d2a18fc6d5edbfd45cc8b'
p26
sa(dp27
g2
S'29229'
p28
sg4
S'4236'
p29
sg6
S'cfb17fbc28c2dd50823277fab4d3864d'
p30
sg8
S'xx90530958d1ad0e7c7f2d06533ae989ab'
p31
sg10
S'xx03be2750ef1431c9ff6bd97440bdc3f9'
p32
sg12
S'xxc1c1fe206eff000a71c894d2e258e029'
p33
sg14
S'Mozilla/5.0 (Linux; Android 4.4.4; vivo Y13i Build/KTU84P) AppleWebKit/537.36 (KHTML, like Gecko) Version/4.0 Chrome/37.0.0.0 Mobile MQQBrowser/6.8 TBS/036849 Safari/537.36 MicroMessenger/6.3.27.880 NetType/WIFI Language/zh_CN'
p34
sg16
S'13e60e11f39d2a18fc6d5edbfd45cc8b'
p35
sa(dp36
g2
S'29229'
p37
sg4
S'4258'
p38
sg6
S'cfb17fbc28c2dd50823277fab4d3864d'
p39
sg8
S'xx90530958d1ad0e7c7f2d06533ae989ab'
p40
sg10
S'xx03be2750ef1431c9ff6bd97440bdc3f9'
p41
sg12
S'xxc1c1fe206eff000a71c894d2e258e029'
p42
sg14
S'Mozilla/5.0 (Linux; Android 4.4.4; vivo Y13i Build/KTU84P) AppleWebKit/537.36 (KHTML, like Gecko) Version/4.0 Chrome/37.0.0.0 Mobile MQQBrowser/6.8 TBS/036849 Safari/537.36 MicroMessenger/6.3.27.880 NetType/WIFI Language/zh_CN'
p43
sg16
S'13e60e11f39d2a18fc6d5edbfd45cc8b'
p44
sa.