(lp0
(dp1
S'user_id'
p2
S'34678'
p3
sS'data_id'
p4
S'6287'
p5
sS'ip'
p6
S'293cd6897d2aa0b2e64e9914c4cb0447'
p7
sS'phone_B'
p8
S'xx731c21c0a508a6c2c90b4faa13bc4a7c'
p9
sS'phone_C'
p10
S'xx2b7563cc73215352322caca1db088e1a'
p11
sS'phone_A'
p12
S'xxc3131c76373edce7fa229578f21bcde5'
p13
sS'user_agent'
p14
S'Mozilla/5.0 (Linux; Android 6.0; PE-TL20 Build/HuaweiPE-TL20) AppleWebKit/537.36 (KHTML, like Gecko) Version/4.0 Chrome/37.0.0.0 Mobile MQQBrowser/6.8 TBS/036849 Safari/537.36 MicroMessenger/6.3.27.880 NetType/WIFI Language/zh_CN'
p15
sS'ua'
p16
S'c3276a8dbbb6774b4da9785cacc3552e'
p17
sa(dp18
g2
S'34678'
p19
sg4
S'6302'
p20
sg6
S'293cd6897d2aa0b2e64e9914c4cb0447'
p21
sg8
S'xx731c21c0a508a6c2c90b4faa13bc4a7c'
p22
sg10
S'xx2b7563cc73215352322caca1db088e1a'
p23
sg12
S'xxc3131c76373edce7fa229578f21bcde5'
p24
sg14
S'Mozilla/5.0 (Linux; Android 6.0; PE-TL20 Build/HuaweiPE-TL20) AppleWebKit/537.36 (KHTML, like Gecko) Version/4.0 Chrome/37.0.0.0 Mobile MQQBrowser/6.8 TBS/036849 Safari/537.36 MicroMessenger/6.3.27.880 NetType/WIFI Language/zh_CN'
p25
sg16
S'c3276a8dbbb6774b4da9785cacc3552e'
p26
sa(dp27
g2
S'34678'
p28
sg4
S'6317'
p29
sg6
S'293cd6897d2aa0b2e64e9914c4cb0447'
p30
sg8
S'xx731c21c0a508a6c2c90b4faa13bc4a7c'
p31
sg10
S'xx2b7563cc73215352322caca1db088e1a'
p32
sg12
S'xxc3131c76373edce7fa229578f21bcde5'
p33
sg14
S'Mozilla/5.0 (Linux; Android 6.0; PE-TL20 Build/HuaweiPE-TL20) AppleWebKit/537.36 (KHTML, like Gecko) Version/4.0 Chrome/37.0.0.0 Mobile MQQBrowser/6.8 TBS/036849 Safari/537.36 MicroMessenger/6.3.27.880 NetType/WIFI Language/zh_CN'
p34
sg16
S'c3276a8dbbb6774b4da9785cacc3552e'
p35
sa.