(lp0
(dp1
S'user_id'
p2
S'6016'
p3
sS'data_id'
p4
S'2413'
p5
sS'ip'
p6
S'03058ff25b1b7f26625c3e6dad07f9c3'
p7
sS'phone_B'
p8
S'xx25812fb6c26231b8412984ecbaaa144a'
p9
sS'phone_C'
p10
S'xx9980fb173daef44041dd71591e96dd05'
p11
sS'phone_A'
p12
S'xxc34784ff41aca2844b56adbdd8d1f400'
p13
sS'user_agent'
p14
S'Mozilla/5.0 (Linux; Android 4.4.4; SM-G3608 Build/KTU84P) AppleWebKit/537.36 (KHTML, like Gecko) Version/4.0 Chrome/37.0.0.0 Mobile MQQBrowser/6.8 TBS/036849 Safari/537.36 MicroMessenger/6.3.27.880 NetType/WIFI Language/zh_CN'
p15
sS'ua'
p16
S'81cc058bdda2db1f4378f881ece1512e'
p17
sa(dp18
g2
S'6016'
p19
sg4
S'2435'
p20
sg6
S'03058ff25b1b7f26625c3e6dad07f9c3'
p21
sg8
S'xx25812fb6c26231b8412984ecbaaa144a'
p22
sg10
S'xx9980fb173daef44041dd71591e96dd05'
p23
sg12
S'xxc34784ff41aca2844b56adbdd8d1f400'
p24
sg14
S'Mozilla/5.0 (Linux; Android 4.4.4; SM-G3608 Build/KTU84P) AppleWebKit/537.36 (KHTML, like Gecko) Version/4.0 Chrome/37.0.0.0 Mobile MQQBrowser/6.8 TBS/036849 Safari/537.36 MicroMessenger/6.3.27.880 NetType/WIFI Language/zh_CN'
p25
sg16
S'81cc058bdda2db1f4378f881ece1512e'
p26
sa.