(lp0
(dp1
S'user_id'
p2
S'49753'
p3
sS'data_id'
p4
S'1552'
p5
sS'ip'
p6
S'56623cd17d5742d7d39cf64511741eb4'
p7
sS'phone_B'
p8
S'xx235c7ec728b87a638d0c2486dd28b7cd'
p9
sS'phone_C'
p10
S'xx4006016f077807be1693755fe7f3cb22'
p11
sS'phone_A'
p12
S'xxc3c020e5c9885ba566aedab75fcb3f29'
p13
sS'user_agent'
p14
S'Mozilla/5.0 (Linux; Android 5.0.2; SM-A5009 Build/LRX22G) AppleWebKit/537.36 (KHTML, like Gecko) Version/4.0 Chrome/37.0.0.0 Mobile MQQBrowser/6.8 TBS/036849 Safari/537.36 MicroMessenger/6.3.27.880 NetType/WIFI Language/zh_CN'
p15
sS'ua'
p16
S'1c53489ac663140d153fc89fd8cabe28'
p17
sa(dp18
g2
S'49753'
p19
sg4
S'1570'
p20
sg6
S'56623cd17d5742d7d39cf64511741eb4'
p21
sg8
S'xx235c7ec728b87a638d0c2486dd28b7cd'
p22
sg10
S'xx4006016f077807be1693755fe7f3cb22'
p23
sg12
S'xxc3c020e5c9885ba566aedab75fcb3f29'
p24
sg14
S'Mozilla/5.0 (Linux; Android 5.0.2; SM-A5009 Build/LRX22G) AppleWebKit/537.36 (KHTML, like Gecko) Version/4.0 Chrome/37.0.0.0 Mobile MQQBrowser/6.8 TBS/036849 Safari/537.36 MicroMessenger/6.3.27.880 NetType/WIFI Language/zh_CN'
p25
sg16
S'1c53489ac663140d153fc89fd8cabe28'
p26
sa(dp27
g2
S'49753'
p28
sg4
S'1584'
p29
sg6
S'56623cd17d5742d7d39cf64511741eb4'
p30
sg8
S'xx235c7ec728b87a638d0c2486dd28b7cd'
p31
sg10
S'xx4006016f077807be1693755fe7f3cb22'
p32
sg12
S'xxc3c020e5c9885ba566aedab75fcb3f29'
p33
sg14
S'Mozilla/5.0 (Linux; Android 5.0.2; SM-A5009 Build/LRX22G) AppleWebKit/537.36 (KHTML, like Gecko) Version/4.0 Chrome/37.0.0.0 Mobile MQQBrowser/6.8 TBS/036849 Safari/537.36 MicroMessenger/6.3.27.880 NetType/WIFI Language/zh_CN'
p34
sg16
S'1c53489ac663140d153fc89fd8cabe28'
p35
sa(dp36
g2
S'49753'
p37
sg4
S'1600'
p38
sg6
S'56623cd17d5742d7d39cf64511741eb4'
p39
sg8
S'xx235c7ec728b87a638d0c2486dd28b7cd'
p40
sg10
S'xx4006016f077807be1693755fe7f3cb22'
p41
sg12
S'xxc3c020e5c9885ba566aedab75fcb3f29'
p42
sg14
S'Mozilla/5.0 (Linux; Android 5.0.2; SM-A5009 Build/LRX22G) AppleWebKit/537.36 (KHTML, like Gecko) Version/4.0 Chrome/37.0.0.0 Mobile MQQBrowser/6.8 TBS/036849 Safari/537.36 MicroMessenger/6.3.27.880 NetType/WIFI Language/zh_CN'
p43
sg16
S'1c53489ac663140d153fc89fd8cabe28'
p44
sa.