(lp0
(dp1
S'user_id'
p2
S'8817'
p3
sS'data_id'
p4
S'321'
p5
sS'ip'
p6
S'3524b242e99d6697ace53ba2b14d449e'
p7
sS'phone_B'
p8
S'xxaebe0107b0777c77b379f9bef3b10df5'
p9
sS'phone_C'
p10
S'xxc4f2d6a36cf8d95ecdcb1fb9e4652d34'
p11
sS'phone_A'
p12
S'xxc39b2f1defdca99a11f40adcdef3442c'
p13
sS'user_agent'
p14
S'Mozilla/5.0 (Linux; Android 5.1; m3 note Build/LMY47I) AppleWebKit/537.36 (KHTML, like Gecko) Version/4.0 Chrome/37.0.0.0 Mobile MQQBrowser/6.8 TBS/036869 Safari/537.36 MicroMessenger/6.3.27.880 NetType/cmnet Language/zh_CN'
p15
sS'ua'
p16
S'9a46b96d392e95b8d52cd900925118f6'
p17
sa(dp18
g2
S'8817'
p19
sg4
S'336'
p20
sg6
S'3524b242e99d6697ace53ba2b14d449e'
p21
sg8
S'xxaebe0107b0777c77b379f9bef3b10df5'
p22
sg10
S'xxc4f2d6a36cf8d95ecdcb1fb9e4652d34'
p23
sg12
S'xxc39b2f1defdca99a11f40adcdef3442c'
p24
sg14
S'Mozilla/5.0 (Linux; Android 5.1; m3 note Build/LMY47I) AppleWebKit/537.36 (KHTML, like Gecko) Version/4.0 Chrome/37.0.0.0 Mobile MQQBrowser/6.8 TBS/036869 Safari/537.36 MicroMessenger/6.3.27.880 NetType/cmnet Language/zh_CN'
p25
sg16
S'9a46b96d392e95b8d52cd900925118f6'
p26
sa(dp27
g2
S'8817'
p28
sg4
S'371'
p29
sg6
S'3524b242e99d6697ace53ba2b14d449e'
p30
sg8
S'xxaebe0107b0777c77b379f9bef3b10df5'
p31
sg10
S'xxc4f2d6a36cf8d95ecdcb1fb9e4652d34'
p32
sg12
S'xxc39b2f1defdca99a11f40adcdef3442c'
p33
sg14
S'Mozilla/5.0 (Linux; Android 5.1; m3 note Build/LMY47I) AppleWebKit/537.36 (KHTML, like Gecko) Version/4.0 Chrome/37.0.0.0 Mobile MQQBrowser/6.8 TBS/036869 Safari/537.36 MicroMessenger/6.3.27.880 NetType/cmnet Language/zh_CN'
p34
sg16
S'9a46b96d392e95b8d52cd900925118f6'
p35
sa(dp36
g2
S'8817'
p37
sg4
S'470'
p38
sg6
S'3524b242e99d6697ace53ba2b14d449e'
p39
sg8
S'xxaebe0107b0777c77b379f9bef3b10df5'
p40
sg10
S'xxc4f2d6a36cf8d95ecdcb1fb9e4652d34'
p41
sg12
S'xxc39b2f1defdca99a11f40adcdef3442c'
p42
sg14
S'Mozilla/5.0 (Linux; Android 5.1; m3 note Build/LMY47I) AppleWebKit/537.36 (KHTML, like Gecko) Version/4.0 Chrome/37.0.0.0 Mobile MQQBrowser/6.8 TBS/036869 Safari/537.36 MicroMessenger/6.3.27.880 NetType/cmnet Language/zh_CN'
p43
sg16
S'9a46b96d392e95b8d52cd900925118f6'
p44
sa(dp45
g2
S'8817'
p46
sg4
S'542'
p47
sg6
S'3524b242e99d6697ace53ba2b14d449e'
p48
sg8
S'xxaebe0107b0777c77b379f9bef3b10df5'
p49
sg10
S'xxc4f2d6a36cf8d95ecdcb1fb9e4652d34'
p50
sg12
S'xxc39b2f1defdca99a11f40adcdef3442c'
p51
sg14
S'Mozilla/5.0 (Linux; Android 5.1; m3 note Build/LMY47I) AppleWebKit/537.36 (KHTML, like Gecko) Version/4.0 Chrome/37.0.0.0 Mobile MQQBrowser/6.8 TBS/036869 Safari/537.36 MicroMessenger/6.3.27.880 NetType/cmnet Language/zh_CN'
p52
sg16
S'9a46b96d392e95b8d52cd900925118f6'
p53
sa(dp54
g2
S'8817'
p55
sg4
S'766'
p56
sg6
S'3524b242e99d6697ace53ba2b14d449e'
p57
sg8
S'xxaebe0107b0777c77b379f9bef3b10df5'
p58
sg10
S'xxc4f2d6a36cf8d95ecdcb1fb9e4652d34'
p59
sg12
S'xxc39b2f1defdca99a11f40adcdef3442c'
p60
sg14
S'Mozilla/5.0 (Linux; Android 5.1; m3 note Build/LMY47I) AppleWebKit/537.36 (KHTML, like Gecko) Version/4.0 Chrome/37.0.0.0 Mobile MQQBrowser/6.8 TBS/036869 Safari/537.36 MicroMessenger/6.3.27.880 NetType/cmnet Language/zh_CN'
p61
sg16
S'9a46b96d392e95b8d52cd900925118f6'
p62
sa(dp63
g2
S'8817'
p64
sg4
S'776'
p65
sg6
S'3524b242e99d6697ace53ba2b14d449e'
p66
sg8
S'xxaebe0107b0777c77b379f9bef3b10df5'
p67
sg10
S'xxc4f2d6a36cf8d95ecdcb1fb9e4652d34'
p68
sg12
S'xxc39b2f1defdca99a11f40adcdef3442c'
p69
sg14
S'Mozilla/5.0 (Linux; Android 5.1; m3 note Build/LMY47I) AppleWebKit/537.36 (KHTML, like Gecko) Version/4.0 Chrome/37.0.0.0 Mobile MQQBrowser/6.8 TBS/036869 Safari/537.36 MicroMessenger/6.3.27.880 NetType/cmnet Language/zh_CN'
p70
sg16
S'9a46b96d392e95b8d52cd900925118f6'
p71
sa(dp72
g2
S'8817'
p73
sg4
S'797'
p74
sg6
S'3524b242e99d6697ace53ba2b14d449e'
p75
sg8
S'xxaebe0107b0777c77b379f9bef3b10df5'
p76
sg10
S'xxc4f2d6a36cf8d95ecdcb1fb9e4652d34'
p77
sg12
S'xxc39b2f1defdca99a11f40adcdef3442c'
p78
sg14
S'Mozilla/5.0 (Linux; Android 5.1; m3 note Build/LMY47I) AppleWebKit/537.36 (KHTML, like Gecko) Version/4.0 Chrome/37.0.0.0 Mobile MQQBrowser/6.8 TBS/036869 Safari/537.36 MicroMessenger/6.3.27.880 NetType/cmnet Language/zh_CN'
p79
sg16
S'9a46b96d392e95b8d52cd900925118f6'
p80
sa(dp81
g2
S'8817'
p82
sg4
S'820'
p83
sg6
S'3524b242e99d6697ace53ba2b14d449e'
p84
sg8
S'xxaebe0107b0777c77b379f9bef3b10df5'
p85
sg10
S'xxc4f2d6a36cf8d95ecdcb1fb9e4652d34'
p86
sg12
S'xxc39b2f1defdca99a11f40adcdef3442c'
p87
sg14
S'Mozilla/5.0 (Linux; Android 5.1; m3 note Build/LMY47I) AppleWebKit/537.36 (KHTML, like Gecko) Version/4.0 Chrome/37.0.0.0 Mobile MQQBrowser/6.8 TBS/036869 Safari/537.36 MicroMessenger/6.3.27.880 NetType/cmnet Language/zh_CN'
p88
sg16
S'9a46b96d392e95b8d52cd900925118f6'
p89
sa(dp90
g2
S'8817'
p91
sg4
S'905'
p92
sg6
S'3524b242e99d6697ace53ba2b14d449e'
p93
sg8
S'xxaebe0107b0777c77b379f9bef3b10df5'
p94
sg10
S'xxc4f2d6a36cf8d95ecdcb1fb9e4652d34'
p95
sg12
S'xxc39b2f1defdca99a11f40adcdef3442c'
p96
sg14
S'Mozilla/5.0 (Linux; Android 5.1; m3 note Build/LMY47I) AppleWebKit/537.36 (KHTML, like Gecko) Version/4.0 Chrome/37.0.0.0 Mobile MQQBrowser/6.8 TBS/036869 Safari/537.36 MicroMessenger/6.3.27.880 NetType/cmnet Language/zh_CN'
p97
sg16
S'9a46b96d392e95b8d52cd900925118f6'
p98
sa(dp99
g2
S'8817'
p100
sg4
S'922'
p101
sg6
S'3524b242e99d6697ace53ba2b14d449e'
p102
sg8
S'xxaebe0107b0777c77b379f9bef3b10df5'
p103
sg10
S'xxc4f2d6a36cf8d95ecdcb1fb9e4652d34'
p104
sg12
S'xxc39b2f1defdca99a11f40adcdef3442c'
p105
sg14
S'Mozilla/5.0 (Linux; Android 5.1; m3 note Build/LMY47I) AppleWebKit/537.36 (KHTML, like Gecko) Version/4.0 Chrome/37.0.0.0 Mobile MQQBrowser/6.8 TBS/036869 Safari/537.36 MicroMessenger/6.3.27.880 NetType/cmnet Language/zh_CN'
p106
sg16
S'9a46b96d392e95b8d52cd900925118f6'
p107
sa(dp108
g2
S'8817'
p109
sg4
S'935'
p110
sg6
S'3524b242e99d6697ace53ba2b14d449e'
p111
sg8
S'xxaebe0107b0777c77b379f9bef3b10df5'
p112
sg10
S'xxc4f2d6a36cf8d95ecdcb1fb9e4652d34'
p113
sg12
S'xxc39b2f1defdca99a11f40adcdef3442c'
p114
sg14
S'Mozilla/5.0 (Linux; Android 5.1; m3 note Build/LMY47I) AppleWebKit/537.36 (KHTML, like Gecko) Version/4.0 Chrome/37.0.0.0 Mobile MQQBrowser/6.8 TBS/036869 Safari/537.36 MicroMessenger/6.3.27.880 NetType/cmnet Language/zh_CN'
p115
sg16
S'9a46b96d392e95b8d52cd900925118f6'
p116
sa(dp117
g2
S'8817'
p118
sg4
S'949'
p119
sg6
S'3524b242e99d6697ace53ba2b14d449e'
p120
sg8
S'xxaebe0107b0777c77b379f9bef3b10df5'
p121
sg10
S'xxc4f2d6a36cf8d95ecdcb1fb9e4652d34'
p122
sg12
S'xxc39b2f1defdca99a11f40adcdef3442c'
p123
sg14
S'Mozilla/5.0 (Linux; Android 5.1; m3 note Build/LMY47I) AppleWebKit/537.36 (KHTML, like Gecko) Version/4.0 Chrome/37.0.0.0 Mobile MQQBrowser/6.8 TBS/036869 Safari/537.36 MicroMessenger/6.3.27.880 NetType/cmnet Language/zh_CN'
p124
sg16
S'9a46b96d392e95b8d52cd900925118f6'
p125
sa(dp126
g2
S'8817'
p127
sg4
S'967'
p128
sg6
S'3524b242e99d6697ace53ba2b14d449e'
p129
sg8
S'xxaebe0107b0777c77b379f9bef3b10df5'
p130
sg10
S'xxc4f2d6a36cf8d95ecdcb1fb9e4652d34'
p131
sg12
S'xxc39b2f1defdca99a11f40adcdef3442c'
p132
sg14
S'Mozilla/5.0 (Linux; Android 5.1; m3 note Build/LMY47I) AppleWebKit/537.36 (KHTML, like Gecko) Version/4.0 Chrome/37.0.0.0 Mobile MQQBrowser/6.8 TBS/036869 Safari/537.36 MicroMessenger/6.3.27.880 NetType/cmnet Language/zh_CN'
p133
sg16
S'9a46b96d392e95b8d52cd900925118f6'
p134
sa(dp135
g2
S'8817'
p136
sg4
S'1032'
p137
sg6
S'3524b242e99d6697ace53ba2b14d449e'
p138
sg8
S'xxaebe0107b0777c77b379f9bef3b10df5'
p139
sg10
S'xxc4f2d6a36cf8d95ecdcb1fb9e4652d34'
p140
sg12
S'xxc39b2f1defdca99a11f40adcdef3442c'
p141
sg14
S'Mozilla/5.0 (Linux; Android 5.1; m3 note Build/LMY47I) AppleWebKit/537.36 (KHTML, like Gecko) Version/4.0 Chrome/37.0.0.0 Mobile MQQBrowser/6.8 TBS/036869 Safari/537.36 MicroMessenger/6.3.27.880 NetType/cmnet Language/zh_CN'
p142
sg16
S'9a46b96d392e95b8d52cd900925118f6'
p143
sa(dp144
g2
S'8817'
p145
sg4
S'1051'
p146
sg6
S'3524b242e99d6697ace53ba2b14d449e'
p147
sg8
S'xxaebe0107b0777c77b379f9bef3b10df5'
p148
sg10
S'xxc4f2d6a36cf8d95ecdcb1fb9e4652d34'
p149
sg12
S'xxc39b2f1defdca99a11f40adcdef3442c'
p150
sg14
S'Mozilla/5.0 (Linux; Android 5.1; m3 note Build/LMY47I) AppleWebKit/537.36 (KHTML, like Gecko) Version/4.0 Chrome/37.0.0.0 Mobile MQQBrowser/6.8 TBS/036869 Safari/537.36 MicroMessenger/6.3.27.880 NetType/cmnet Language/zh_CN'
p151
sg16
S'9a46b96d392e95b8d52cd900925118f6'
p152
sa(dp153
g2
S'8817'
p154
sg4
S'1059'
p155
sg6
S'3524b242e99d6697ace53ba2b14d449e'
p156
sg8
S'xxaebe0107b0777c77b379f9bef3b10df5'
p157
sg10
S'xxc4f2d6a36cf8d95ecdcb1fb9e4652d34'
p158
sg12
S'xxc39b2f1defdca99a11f40adcdef3442c'
p159
sg14
S'Mozilla/5.0 (Linux; Android 5.1; m3 note Build/LMY47I) AppleWebKit/537.36 (KHTML, like Gecko) Version/4.0 Chrome/37.0.0.0 Mobile MQQBrowser/6.8 TBS/036869 Safari/537.36 MicroMessenger/6.3.27.880 NetType/cmnet Language/zh_CN'
p160
sg16
S'9a46b96d392e95b8d52cd900925118f6'
p161
sa(dp162
g2
S'8817'
p163
sg4
S'1088'
p164
sg6
S'3524b242e99d6697ace53ba2b14d449e'
p165
sg8
S'xxaebe0107b0777c77b379f9bef3b10df5'
p166
sg10
S'xxc4f2d6a36cf8d95ecdcb1fb9e4652d34'
p167
sg12
S'xxc39b2f1defdca99a11f40adcdef3442c'
p168
sg14
S'Mozilla/5.0 (Linux; Android 5.1; m3 note Build/LMY47I) AppleWebKit/537.36 (KHTML, like Gecko) Version/4.0 Chrome/37.0.0.0 Mobile MQQBrowser/6.8 TBS/036869 Safari/537.36 MicroMessenger/6.3.27.880 NetType/cmnet Language/zh_CN'
p169
sg16
S'9a46b96d392e95b8d52cd900925118f6'
p170
sa(dp171
g2
S'8817'
p172
sg4
S'1163'
p173
sg6
S'3524b242e99d6697ace53ba2b14d449e'
p174
sg8
S'xxaebe0107b0777c77b379f9bef3b10df5'
p175
sg10
S'xxc4f2d6a36cf8d95ecdcb1fb9e4652d34'
p176
sg12
S'xxc39b2f1defdca99a11f40adcdef3442c'
p177
sg14
S'Mozilla/5.0 (Linux; Android 5.1; m3 note Build/LMY47I) AppleWebKit/537.36 (KHTML, like Gecko) Version/4.0 Chrome/37.0.0.0 Mobile MQQBrowser/6.8 TBS/036869 Safari/537.36 MicroMessenger/6.3.27.880 NetType/cmnet Language/zh_CN'
p178
sg16
S'9a46b96d392e95b8d52cd900925118f6'
p179
sa(dp180
g2
S'8817'
p181
sg4
S'1177'
p182
sg6
S'3524b242e99d6697ace53ba2b14d449e'
p183
sg8
S'xxaebe0107b0777c77b379f9bef3b10df5'
p184
sg10
S'xxc4f2d6a36cf8d95ecdcb1fb9e4652d34'
p185
sg12
S'xxc39b2f1defdca99a11f40adcdef3442c'
p186
sg14
S'Mozilla/5.0 (Linux; Android 5.1; m3 note Build/LMY47I) AppleWebKit/537.36 (KHTML, like Gecko) Version/4.0 Chrome/37.0.0.0 Mobile MQQBrowser/6.8 TBS/036869 Safari/537.36 MicroMessenger/6.3.27.880 NetType/cmnet Language/zh_CN'
p187
sg16
S'9a46b96d392e95b8d52cd900925118f6'
p188
sa(dp189
g2
S'8817'
p190
sg4
S'1188'
p191
sg6
S'3524b242e99d6697ace53ba2b14d449e'
p192
sg8
S'xxaebe0107b0777c77b379f9bef3b10df5'
p193
sg10
S'xxc4f2d6a36cf8d95ecdcb1fb9e4652d34'
p194
sg12
S'xxc39b2f1defdca99a11f40adcdef3442c'
p195
sg14
S'Mozilla/5.0 (Linux; Android 5.1; m3 note Build/LMY47I) AppleWebKit/537.36 (KHTML, like Gecko) Version/4.0 Chrome/37.0.0.0 Mobile MQQBrowser/6.8 TBS/036869 Safari/537.36 MicroMessenger/6.3.27.880 NetType/cmnet Language/zh_CN'
p196
sg16
S'9a46b96d392e95b8d52cd900925118f6'
p197
sa(dp198
g2
S'8817'
p199
sg4
S'1190'
p200
sg6
S'3524b242e99d6697ace53ba2b14d449e'
p201
sg8
S'xxaebe0107b0777c77b379f9bef3b10df5'
p202
sg10
S'xxc4f2d6a36cf8d95ecdcb1fb9e4652d34'
p203
sg12
S'xxc39b2f1defdca99a11f40adcdef3442c'
p204
sg14
S'Mozilla/5.0 (Linux; Android 5.1; m3 note Build/LMY47I) AppleWebKit/537.36 (KHTML, like Gecko) Version/4.0 Chrome/37.0.0.0 Mobile MQQBrowser/6.8 TBS/036869 Safari/537.36 MicroMessenger/6.3.27.880 NetType/cmnet Language/zh_CN'
p205
sg16
S'9a46b96d392e95b8d52cd900925118f6'
p206
sa(dp207
g2
S'8817'
p208
sg4
S'1200'
p209
sg6
S'3524b242e99d6697ace53ba2b14d449e'
p210
sg8
S'xxaebe0107b0777c77b379f9bef3b10df5'
p211
sg10
S'xxc4f2d6a36cf8d95ecdcb1fb9e4652d34'
p212
sg12
S'xxc39b2f1defdca99a11f40adcdef3442c'
p213
sg14
S'Mozilla/5.0 (Linux; Android 5.1; m3 note Build/LMY47I) AppleWebKit/537.36 (KHTML, like Gecko) Version/4.0 Chrome/37.0.0.0 Mobile MQQBrowser/6.8 TBS/036869 Safari/537.36 MicroMessenger/6.3.27.880 NetType/cmnet Language/zh_CN'
p214
sg16
S'9a46b96d392e95b8d52cd900925118f6'
p215
sa(dp216
g2
S'8817'
p217
sg4
S'1214'
p218
sg6
S'3524b242e99d6697ace53ba2b14d449e'
p219
sg8
S'xxaebe0107b0777c77b379f9bef3b10df5'
p220
sg10
S'xxc4f2d6a36cf8d95ecdcb1fb9e4652d34'
p221
sg12
S'xxc39b2f1defdca99a11f40adcdef3442c'
p222
sg14
S'Mozilla/5.0 (Linux; Android 5.1; m3 note Build/LMY47I) AppleWebKit/537.36 (KHTML, like Gecko) Version/4.0 Chrome/37.0.0.0 Mobile MQQBrowser/6.8 TBS/036869 Safari/537.36 MicroMessenger/6.3.27.880 NetType/cmnet Language/zh_CN'
p223
sg16
S'9a46b96d392e95b8d52cd900925118f6'
p224
sa.