(lp0
(dp1
S'user_id'
p2
S'44368'
p3
sS'data_id'
p4
S'4772'
p5
sS'ip'
p6
S'1dc889c5d6202d34a546b88afcfd9686'
p7
sS'phone_B'
p8
S'xx486068197a8a76aef3e3c220d1da3ef9'
p9
sS'phone_C'
p10
S'xxa0a897545828b819c57b43fd483e4c66'
p11
sS'phone_A'
p12
S'xxc30059a4a4dd5af5421ab68db7850214'
p13
sS'user_agent'
p14
S'Mozilla/5.0 (Linux; Android 5.1; Coolpad 7722 Build/LMY47D) AppleWebKit/537.36 (KHTML, like Gecko) Version/4.0 Chrome/37.0.0.0 Mobile MQQBrowser/6.8 TBS/036849 Safari/537.36 MicroMessenger/6.3.25.861 NetType/WIFI Language/zh_CN'
p15
sS'ua'
p16
S'9ea8109e25daaac48a90db86f152efb3'
p17
sa(dp18
g2
S'44368'
p19
sg4
S'4787'
p20
sg6
S'1dc889c5d6202d34a546b88afcfd9686'
p21
sg8
S'xx486068197a8a76aef3e3c220d1da3ef9'
p22
sg10
S'xxa0a897545828b819c57b43fd483e4c66'
p23
sg12
S'xxc30059a4a4dd5af5421ab68db7850214'
p24
sg14
S'Mozilla/5.0 (Linux; Android 5.1; Coolpad 7722 Build/LMY47D) AppleWebKit/537.36 (KHTML, like Gecko) Version/4.0 Chrome/37.0.0.0 Mobile MQQBrowser/6.8 TBS/036849 Safari/537.36 MicroMessenger/6.3.25.861 NetType/WIFI Language/zh_CN'
p25
sg16
S'9ea8109e25daaac48a90db86f152efb3'
p26
sa(dp27
g2
S'44368'
p28
sg4
S'4801'
p29
sg6
S'1dc889c5d6202d34a546b88afcfd9686'
p30
sg8
S'xx486068197a8a76aef3e3c220d1da3ef9'
p31
sg10
S'xxa0a897545828b819c57b43fd483e4c66'
p32
sg12
S'xxc30059a4a4dd5af5421ab68db7850214'
p33
sg14
S'Mozilla/5.0 (Linux; Android 5.1; Coolpad 7722 Build/LMY47D) AppleWebKit/537.36 (KHTML, like Gecko) Version/4.0 Chrome/37.0.0.0 Mobile MQQBrowser/6.8 TBS/036849 Safari/537.36 MicroMessenger/6.3.25.861 NetType/WIFI Language/zh_CN'
p34
sg16
S'9ea8109e25daaac48a90db86f152efb3'
p35
sa(dp36
g2
S'44368'
p37
sg4
S'4817'
p38
sg6
S'1dc889c5d6202d34a546b88afcfd9686'
p39
sg8
S'xx486068197a8a76aef3e3c220d1da3ef9'
p40
sg10
S'xxa0a897545828b819c57b43fd483e4c66'
p41
sg12
S'xxc30059a4a4dd5af5421ab68db7850214'
p42
sg14
S'Mozilla/5.0 (Linux; Android 5.1; Coolpad 7722 Build/LMY47D) AppleWebKit/537.36 (KHTML, like Gecko) Version/4.0 Chrome/37.0.0.0 Mobile MQQBrowser/6.8 TBS/036849 Safari/537.36 MicroMessenger/6.3.25.861 NetType/WIFI Language/zh_CN'
p43
sg16
S'9ea8109e25daaac48a90db86f152efb3'
p44
sa(dp45
g2
S'44368'
p46
sg4
S'4830'
p47
sg6
S'1dc889c5d6202d34a546b88afcfd9686'
p48
sg8
S'xx486068197a8a76aef3e3c220d1da3ef9'
p49
sg10
S'xxa0a897545828b819c57b43fd483e4c66'
p50
sg12
S'xxc30059a4a4dd5af5421ab68db7850214'
p51
sg14
S'Mozilla/5.0 (Linux; Android 5.1; Coolpad 7722 Build/LMY47D) AppleWebKit/537.36 (KHTML, like Gecko) Version/4.0 Chrome/37.0.0.0 Mobile MQQBrowser/6.8 TBS/036849 Safari/537.36 MicroMessenger/6.3.25.861 NetType/WIFI Language/zh_CN'
p52
sg16
S'9ea8109e25daaac48a90db86f152efb3'
p53
sa(dp54
g2
S'44368'
p55
sg4
S'4846'
p56
sg6
S'1dc889c5d6202d34a546b88afcfd9686'
p57
sg8
S'xx486068197a8a76aef3e3c220d1da3ef9'
p58
sg10
S'xxa0a897545828b819c57b43fd483e4c66'
p59
sg12
S'xxc30059a4a4dd5af5421ab68db7850214'
p60
sg14
S'Mozilla/5.0 (Linux; Android 5.1; Coolpad 7722 Build/LMY47D) AppleWebKit/537.36 (KHTML, like Gecko) Version/4.0 Chrome/37.0.0.0 Mobile MQQBrowser/6.8 TBS/036849 Safari/537.36 MicroMessenger/6.3.25.861 NetType/WIFI Language/zh_CN'
p61
sg16
S'9ea8109e25daaac48a90db86f152efb3'
p62
sa(dp63
g2
S'44368'
p64
sg4
S'4864'
p65
sg6
S'1dc889c5d6202d34a546b88afcfd9686'
p66
sg8
S'xx486068197a8a76aef3e3c220d1da3ef9'
p67
sg10
S'xxa0a897545828b819c57b43fd483e4c66'
p68
sg12
S'xxc30059a4a4dd5af5421ab68db7850214'
p69
sg14
S'Mozilla/5.0 (Linux; Android 5.1; Coolpad 7722 Build/LMY47D) AppleWebKit/537.36 (KHTML, like Gecko) Version/4.0 Chrome/37.0.0.0 Mobile MQQBrowser/6.8 TBS/036849 Safari/537.36 MicroMessenger/6.3.25.861 NetType/WIFI Language/zh_CN'
p70
sg16
S'9ea8109e25daaac48a90db86f152efb3'
p71
sa(dp72
g2
S'44368'
p73
sg4
S'4884'
p74
sg6
S'1dc889c5d6202d34a546b88afcfd9686'
p75
sg8
S'xx486068197a8a76aef3e3c220d1da3ef9'
p76
sg10
S'xxa0a897545828b819c57b43fd483e4c66'
p77
sg12
S'xxc30059a4a4dd5af5421ab68db7850214'
p78
sg14
S'Mozilla/5.0 (Linux; Android 5.1; Coolpad 7722 Build/LMY47D) AppleWebKit/537.36 (KHTML, like Gecko) Version/4.0 Chrome/37.0.0.0 Mobile MQQBrowser/6.8 TBS/036849 Safari/537.36 MicroMessenger/6.3.25.861 NetType/WIFI Language/zh_CN'
p79
sg16
S'9ea8109e25daaac48a90db86f152efb3'
p80
sa(dp81
g2
S'44368'
p82
sg4
S'4902'
p83
sg6
S'1dc889c5d6202d34a546b88afcfd9686'
p84
sg8
S'xx486068197a8a76aef3e3c220d1da3ef9'
p85
sg10
S'xxa0a897545828b819c57b43fd483e4c66'
p86
sg12
S'xxc30059a4a4dd5af5421ab68db7850214'
p87
sg14
S'Mozilla/5.0 (Linux; Android 5.1; Coolpad 7722 Build/LMY47D) AppleWebKit/537.36 (KHTML, like Gecko) Version/4.0 Chrome/37.0.0.0 Mobile MQQBrowser/6.8 TBS/036849 Safari/537.36 MicroMessenger/6.3.25.861 NetType/WIFI Language/zh_CN'
p88
sg16
S'9ea8109e25daaac48a90db86f152efb3'
p89
sa.