(lp0
(dp1
S'user_id'
p2
S'30470'
p3
sS'data_id'
p4
S'6925'
p5
sS'ip'
p6
S'37ec7b91655b3c964292df15710fad2a'
p7
sS'phone_B'
p8
S'xxaffd78979b48b1378e53b2a51780bfc1'
p9
sS'phone_C'
p10
S'xxf5e91a1c43c75a70c163f72442acc408'
p11
sS'phone_A'
p12
S'xxc3734645fe3eed8ccc80496ec64fc9ea'
p13
sS'user_agent'
p14
S'Mozilla/5.0 (Linux; Android 5.1.1; KIW-CL00 Build/HONORKIW-CL00) AppleWebKit/537.36 (KHTML, like Gecko) Version/4.0 Chrome/37.0.0.0 Mobile MQQBrowser/6.8 TBS/036849 Safari/537.36 MicroMessenger/6.3.27.880 NetType/WIFI Language/zh_CN'
p15
sS'ua'
p16
S'0b8af24c19cfe661b74f2cdc4a690648'
p17
sa(dp18
g2
S'30470'
p19
sg4
S'6940'
p20
sg6
S'37ec7b91655b3c964292df15710fad2a'
p21
sg8
S'xxaffd78979b48b1378e53b2a51780bfc1'
p22
sg10
S'xxf5e91a1c43c75a70c163f72442acc408'
p23
sg12
S'xxc3734645fe3eed8ccc80496ec64fc9ea'
p24
sg14
S'Mozilla/5.0 (Linux; Android 5.1.1; KIW-CL00 Build/HONORKIW-CL00) AppleWebKit/537.36 (KHTML, like Gecko) Version/4.0 Chrome/37.0.0.0 Mobile MQQBrowser/6.8 TBS/036849 Safari/537.36 MicroMessenger/6.3.27.880 NetType/WIFI Language/zh_CN'
p25
sg16
S'0b8af24c19cfe661b74f2cdc4a690648'
p26
sa.