(lp0
(dp1
S'user_id'
p2
S'19307'
p3
sS'data_id'
p4
S'150'
p5
sS'ip'
p6
S'79b2b9904f23a9b5f103957129608106'
p7
sS'phone_B'
p8
S'xxdfe6b713e3b4558930a1bd6aa0f5f570'
p9
sS'phone_C'
p10
S'xx735186072d5994cda8147412d31f90b3'
p11
sS'phone_A'
p12
S'xxc5bb625321e9fac5a8a19a6014971183'
p13
sS'user_agent'
p14
S'Mozilla/5.0 (Linux; Android 4.4.4; MI 3W Build/KTU84P) AppleWebKit/537.36 (KHTML, like Gecko) Version/4.0 Chrome/37.0.0.0 Mobile MQQBrowser/6.8 TBS/036849 Safari/537.36 MicroMessenger/6.3.27.880 NetType/WIFI Language/zh_CN'
p15
sS'ua'
p16
S'96e8b32735533b6b2c0af51c42ca9b27'
p17
sa(dp18
g2
S'19307'
p19
sg4
S'165'
p20
sg6
S'79b2b9904f23a9b5f103957129608106'
p21
sg8
S'xxdfe6b713e3b4558930a1bd6aa0f5f570'
p22
sg10
S'xx735186072d5994cda8147412d31f90b3'
p23
sg12
S'xxc5bb625321e9fac5a8a19a6014971183'
p24
sg14
S'Mozilla/5.0 (Linux; Android 4.4.4; MI 3W Build/KTU84P) AppleWebKit/537.36 (KHTML, like Gecko) Version/4.0 Chrome/37.0.0.0 Mobile MQQBrowser/6.8 TBS/036849 Safari/537.36 MicroMessenger/6.3.27.880 NetType/WIFI Language/zh_CN'
p25
sg16
S'96e8b32735533b6b2c0af51c42ca9b27'
p26
sa(dp27
g2
S'46963'
p28
sg4
S'258'
p29
sg6
S'79b2b9904f23a9b5f103957129608106'
p30
sg8
S'xxdfe6b713e3b4558930a1bd6aa0f5f570'
p31
sg10
S'xx735186072d5994cda8147412d31f90b3'
p32
sg12
S'xxc5bb625321e9fac5a8a19a6014971183'
p33
sg14
S'Mozilla/5.0 (Linux; Android 4.4.4; MI 3W Build/KTU84P) AppleWebKit/537.36 (KHTML, like Gecko) Version/4.0 Chrome/37.0.0.0 Mobile MQQBrowser/6.8 TBS/036849 Safari/537.36 MicroMessenger/6.3.27.880 NetType/WIFI Language/zh_CN'
p34
sg16
S'96e8b32735533b6b2c0af51c42ca9b27'
p35
sa(dp36
g2
S'46963'
p37
sg4
S'271'
p38
sg6
S'79b2b9904f23a9b5f103957129608106'
p39
sg8
S'xxdfe6b713e3b4558930a1bd6aa0f5f570'
p40
sg10
S'xx735186072d5994cda8147412d31f90b3'
p41
sg12
S'xxc5bb625321e9fac5a8a19a6014971183'
p42
sg14
S'Mozilla/5.0 (Linux; Android 4.4.4; MI 3W Build/KTU84P) AppleWebKit/537.36 (KHTML, like Gecko) Version/4.0 Chrome/37.0.0.0 Mobile MQQBrowser/6.8 TBS/036849 Safari/537.36 MicroMessenger/6.3.27.880 NetType/WIFI Language/zh_CN'
p43
sg16
S'96e8b32735533b6b2c0af51c42ca9b27'
p44
sa(dp45
g2
S'46963'
p46
sg4
S'767'
p47
sg6
S'79b2b9904f23a9b5f103957129608106'
p48
sg8
S'xxdfe6b713e3b4558930a1bd6aa0f5f570'
p49
sg10
S'xx735186072d5994cda8147412d31f90b3'
p50
sg12
S'xxc5bb625321e9fac5a8a19a6014971183'
p51
sg14
S'Mozilla/5.0 (Linux; Android 4.4.4; MI 3W Build/KTU84P) AppleWebKit/537.36 (KHTML, like Gecko) Version/4.0 Chrome/37.0.0.0 Mobile MQQBrowser/6.8 TBS/036849 Safari/537.36 MicroMessenger/6.3.27.880 NetType/WIFI Language/zh_CN'
p52
sg16
S'96e8b32735533b6b2c0af51c42ca9b27'
p53
sa(dp54
g2
S'10687'
p55
sg4
S'771'
p56
sg6
S'bb253c38f47e65ae996b4ea409b55318'
p57
sg8
S'xx66277935bebb11fc87ee179483884bfc'
p58
sg10
S'xxd9087b7cfb123a34278000eb05b0e18f'
p59
sg12
S'xxc5bb625321e9fac5a8a19a6014971183'
p60
sg14
S'Mozilla/5.0 (Linux; Android 4.4.4; MI 3W Build/KTU84P) AppleWebKit/537.36 (KHTML, like Gecko) Version/4.0 Chrome/37.0.0.0 Mobile MQQBrowser/6.8 TBS/036849 Safari/537.36 MicroMessenger/6.3.27.880 NetType/WIFI Language/zh_CN'
p61
sg16
S'96e8b32735533b6b2c0af51c42ca9b27'
p62
sa(dp63
g2
S'46963'
p64
sg4
S'777'
p65
sg6
S'79b2b9904f23a9b5f103957129608106'
p66
sg8
S'xxdfe6b713e3b4558930a1bd6aa0f5f570'
p67
sg10
S'xx735186072d5994cda8147412d31f90b3'
p68
sg12
S'xxc5bb625321e9fac5a8a19a6014971183'
p69
sg14
S'Mozilla/5.0 (Linux; Android 4.4.4; MI 3W Build/KTU84P) AppleWebKit/537.36 (KHTML, like Gecko) Version/4.0 Chrome/37.0.0.0 Mobile MQQBrowser/6.8 TBS/036849 Safari/537.36 MicroMessenger/6.3.27.880 NetType/WIFI Language/zh_CN'
p70
sg16
S'96e8b32735533b6b2c0af51c42ca9b27'
p71
sa(dp72
g2
S'10687'
p73
sg4
S'779'
p74
sg6
S'bb253c38f47e65ae996b4ea409b55318'
p75
sg8
S'xx66277935bebb11fc87ee179483884bfc'
p76
sg10
S'xxd9087b7cfb123a34278000eb05b0e18f'
p77
sg12
S'xxc5bb625321e9fac5a8a19a6014971183'
p78
sg14
S'Mozilla/5.0 (Linux; Android 4.4.4; MI 3W Build/KTU84P) AppleWebKit/537.36 (KHTML, like Gecko) Version/4.0 Chrome/37.0.0.0 Mobile MQQBrowser/6.8 TBS/036849 Safari/537.36 MicroMessenger/6.3.27.880 NetType/WIFI Language/zh_CN'
p79
sg16
S'96e8b32735533b6b2c0af51c42ca9b27'
p80
sa(dp81
g2
S'10687'
p82
sg4
S'790'
p83
sg6
S'bb253c38f47e65ae996b4ea409b55318'
p84
sg8
S'xx66277935bebb11fc87ee179483884bfc'
p85
sg10
S'xxd9087b7cfb123a34278000eb05b0e18f'
p86
sg12
S'xxc5bb625321e9fac5a8a19a6014971183'
p87
sg14
S'Mozilla/5.0 (Linux; Android 4.4.4; MI 3W Build/KTU84P) AppleWebKit/537.36 (KHTML, like Gecko) Version/4.0 Chrome/37.0.0.0 Mobile MQQBrowser/6.8 TBS/036849 Safari/537.36 MicroMessenger/6.3.27.880 NetType/WIFI Language/zh_CN'
p88
sg16
S'96e8b32735533b6b2c0af51c42ca9b27'
p89
sa(dp90
g2
S'10687'
p91
sg4
S'812'
p92
sg6
S'bb253c38f47e65ae996b4ea409b55318'
p93
sg8
S'xx66277935bebb11fc87ee179483884bfc'
p94
sg10
S'xxd9087b7cfb123a34278000eb05b0e18f'
p95
sg12
S'xxc5bb625321e9fac5a8a19a6014971183'
p96
sg14
S'Mozilla/5.0 (Linux; Android 4.4.4; MI 3W Build/KTU84P) AppleWebKit/537.36 (KHTML, like Gecko) Version/4.0 Chrome/37.0.0.0 Mobile MQQBrowser/6.8 TBS/036849 Safari/537.36 MicroMessenger/6.3.27.880 NetType/WIFI Language/zh_CN'
p97
sg16
S'96e8b32735533b6b2c0af51c42ca9b27'
p98
sa(dp99
g2
S'19307'
p100
sg4
S'887'
p101
sg6
S'79b2b9904f23a9b5f103957129608106'
p102
sg8
S'xxdfe6b713e3b4558930a1bd6aa0f5f570'
p103
sg10
S'xx735186072d5994cda8147412d31f90b3'
p104
sg12
S'xxc5bb625321e9fac5a8a19a6014971183'
p105
sg14
S'Mozilla/5.0 (Linux; Android 4.4.4; MI 3W Build/KTU84P) AppleWebKit/537.36 (KHTML, like Gecko) Version/4.0 Chrome/37.0.0.0 Mobile MQQBrowser/6.8 TBS/036849 Safari/537.36 MicroMessenger/6.3.27.880 NetType/WIFI Language/zh_CN'
p106
sg16
S'96e8b32735533b6b2c0af51c42ca9b27'
p107
sa(dp108
g2
S'19307'
p109
sg4
S'906'
p110
sg6
S'79b2b9904f23a9b5f103957129608106'
p111
sg8
S'xxdfe6b713e3b4558930a1bd6aa0f5f570'
p112
sg10
S'xx735186072d5994cda8147412d31f90b3'
p113
sg12
S'xxc5bb625321e9fac5a8a19a6014971183'
p114
sg14
S'Mozilla/5.0 (Linux; Android 4.4.4; MI 3W Build/KTU84P) AppleWebKit/537.36 (KHTML, like Gecko) Version/4.0 Chrome/37.0.0.0 Mobile MQQBrowser/6.8 TBS/036849 Safari/537.36 MicroMessenger/6.3.27.880 NetType/WIFI Language/zh_CN'
p115
sg16
S'96e8b32735533b6b2c0af51c42ca9b27'
p116
sa(dp117
g2
S'19307'
p118
sg4
S'1591'
p119
sg6
S'79b2b9904f23a9b5f103957129608106'
p120
sg8
S'xxdfe6b713e3b4558930a1bd6aa0f5f570'
p121
sg10
S'xx735186072d5994cda8147412d31f90b3'
p122
sg12
S'xxc5bb625321e9fac5a8a19a6014971183'
p123
sg14
S'Mozilla/5.0 (Linux; Android 4.4.4; MI 3W Build/KTU84P) AppleWebKit/537.36 (KHTML, like Gecko) Version/4.0 Chrome/37.0.0.0 Mobile MQQBrowser/6.8 TBS/036849 Safari/537.36 MicroMessenger/6.3.27.880 NetType/WIFI Language/zh_CN'
p124
sg16
S'96e8b32735533b6b2c0af51c42ca9b27'
p125
sa(dp126
g2
S'19307'
p127
sg4
S'1609'
p128
sg6
S'79b2b9904f23a9b5f103957129608106'
p129
sg8
S'xxdfe6b713e3b4558930a1bd6aa0f5f570'
p130
sg10
S'xx735186072d5994cda8147412d31f90b3'
p131
sg12
S'xxc5bb625321e9fac5a8a19a6014971183'
p132
sg14
S'Mozilla/5.0 (Linux; Android 4.4.4; MI 3W Build/KTU84P) AppleWebKit/537.36 (KHTML, like Gecko) Version/4.0 Chrome/37.0.0.0 Mobile MQQBrowser/6.8 TBS/036849 Safari/537.36 MicroMessenger/6.3.27.880 NetType/WIFI Language/zh_CN'
p133
sg16
S'96e8b32735533b6b2c0af51c42ca9b27'
p134
sa(dp135
g2
S'46963'
p136
sg4
S'1704'
p137
sg6
S'79b2b9904f23a9b5f103957129608106'
p138
sg8
S'xxdfe6b713e3b4558930a1bd6aa0f5f570'
p139
sg10
S'xx735186072d5994cda8147412d31f90b3'
p140
sg12
S'xxc5bb625321e9fac5a8a19a6014971183'
p141
sg14
S'Mozilla/5.0 (Linux; Android 4.4.4; MI 3W Build/KTU84P) AppleWebKit/537.36 (KHTML, like Gecko) Version/4.0 Chrome/37.0.0.0 Mobile MQQBrowser/6.8 TBS/036849 Safari/537.36 MicroMessenger/6.3.27.880 NetType/WIFI Language/zh_CN'
p142
sg16
S'96e8b32735533b6b2c0af51c42ca9b27'
p143
sa(dp144
g2
S'46963'
p145
sg4
S'1715'
p146
sg6
S'79b2b9904f23a9b5f103957129608106'
p147
sg8
S'xxdfe6b713e3b4558930a1bd6aa0f5f570'
p148
sg10
S'xx735186072d5994cda8147412d31f90b3'
p149
sg12
S'xxc5bb625321e9fac5a8a19a6014971183'
p150
sg14
S'Mozilla/5.0 (Linux; Android 4.4.4; MI 3W Build/KTU84P) AppleWebKit/537.36 (KHTML, like Gecko) Version/4.0 Chrome/37.0.0.0 Mobile MQQBrowser/6.8 TBS/036849 Safari/537.36 MicroMessenger/6.3.27.880 NetType/WIFI Language/zh_CN'
p151
sg16
S'96e8b32735533b6b2c0af51c42ca9b27'
p152
sa(dp153
g2
S'46963'
p154
sg4
S'2615'
p155
sg6
S'79b2b9904f23a9b5f103957129608106'
p156
sg8
S'xxdfe6b713e3b4558930a1bd6aa0f5f570'
p157
sg10
S'xx735186072d5994cda8147412d31f90b3'
p158
sg12
S'xxc5bb625321e9fac5a8a19a6014971183'
p159
sg14
S'Mozilla/5.0 (Linux; Android 4.4.4; MI 3W Build/KTU84P) AppleWebKit/537.36 (KHTML, like Gecko) Version/4.0 Chrome/37.0.0.0 Mobile MQQBrowser/6.8 TBS/036849 Safari/537.36 MicroMessenger/6.3.27.880 NetType/WIFI Language/zh_CN'
p160
sg16
S'96e8b32735533b6b2c0af51c42ca9b27'
p161
sa(dp162
g2
S'46963'
p163
sg4
S'2633'
p164
sg6
S'79b2b9904f23a9b5f103957129608106'
p165
sg8
S'xxdfe6b713e3b4558930a1bd6aa0f5f570'
p166
sg10
S'xx735186072d5994cda8147412d31f90b3'
p167
sg12
S'xxc5bb625321e9fac5a8a19a6014971183'
p168
sg14
S'Mozilla/5.0 (Linux; Android 4.4.4; MI 3W Build/KTU84P) AppleWebKit/537.36 (KHTML, like Gecko) Version/4.0 Chrome/37.0.0.0 Mobile MQQBrowser/6.8 TBS/036849 Safari/537.36 MicroMessenger/6.3.27.880 NetType/WIFI Language/zh_CN'
p169
sg16
S'96e8b32735533b6b2c0af51c42ca9b27'
p170
sa(dp171
g2
S'19307'
p172
sg4
S'2796'
p173
sg6
S'79b2b9904f23a9b5f103957129608106'
p174
sg8
S'xxdfe6b713e3b4558930a1bd6aa0f5f570'
p175
sg10
S'xx735186072d5994cda8147412d31f90b3'
p176
sg12
S'xxc5bb625321e9fac5a8a19a6014971183'
p177
sg14
S'Mozilla/5.0 (Linux; Android 4.4.4; MI 3W Build/KTU84P) AppleWebKit/537.36 (KHTML, like Gecko) Version/4.0 Chrome/37.0.0.0 Mobile MQQBrowser/6.8 TBS/036849 Safari/537.36 MicroMessenger/6.3.27.880 NetType/WIFI Language/zh_CN'
p178
sg16
S'96e8b32735533b6b2c0af51c42ca9b27'
p179
sa(dp180
g2
S'19307'
p181
sg4
S'2814'
p182
sg6
S'79b2b9904f23a9b5f103957129608106'
p183
sg8
S'xxdfe6b713e3b4558930a1bd6aa0f5f570'
p184
sg10
S'xx735186072d5994cda8147412d31f90b3'
p185
sg12
S'xxc5bb625321e9fac5a8a19a6014971183'
p186
sg14
S'Mozilla/5.0 (Linux; Android 4.4.4; MI 3W Build/KTU84P) AppleWebKit/537.36 (KHTML, like Gecko) Version/4.0 Chrome/37.0.0.0 Mobile MQQBrowser/6.8 TBS/036849 Safari/537.36 MicroMessenger/6.3.27.880 NetType/WIFI Language/zh_CN'
p187
sg16
S'96e8b32735533b6b2c0af51c42ca9b27'
p188
sa(dp189
g2
S'19307'
p190
sg4
S'3521'
p191
sg6
S'79b2b9904f23a9b5f103957129608106'
p192
sg8
S'xxdfe6b713e3b4558930a1bd6aa0f5f570'
p193
sg10
S'xx735186072d5994cda8147412d31f90b3'
p194
sg12
S'xxc5bb625321e9fac5a8a19a6014971183'
p195
sg14
S'Mozilla/5.0 (Linux; Android 4.4.4; MI 3W Build/KTU84P) AppleWebKit/537.36 (KHTML, like Gecko) Version/4.0 Chrome/37.0.0.0 Mobile MQQBrowser/6.8 TBS/036849 Safari/537.36 MicroMessenger/6.3.27.880 NetType/WIFI Language/zh_CN'
p196
sg16
S'96e8b32735533b6b2c0af51c42ca9b27'
p197
sa(dp198
g2
S'19307'
p199
sg4
S'3533'
p200
sg6
S'79b2b9904f23a9b5f103957129608106'
p201
sg8
S'xxdfe6b713e3b4558930a1bd6aa0f5f570'
p202
sg10
S'xx735186072d5994cda8147412d31f90b3'
p203
sg12
S'xxc5bb625321e9fac5a8a19a6014971183'
p204
sg14
S'Mozilla/5.0 (Linux; Android 4.4.4; MI 3W Build/KTU84P) AppleWebKit/537.36 (KHTML, like Gecko) Version/4.0 Chrome/37.0.0.0 Mobile MQQBrowser/6.8 TBS/036849 Safari/537.36 MicroMessenger/6.3.27.880 NetType/WIFI Language/zh_CN'
p205
sg16
S'96e8b32735533b6b2c0af51c42ca9b27'
p206
sa(dp207
g2
S'46963'
p208
sg4
S'3656'
p209
sg6
S'79b2b9904f23a9b5f103957129608106'
p210
sg8
S'xxdfe6b713e3b4558930a1bd6aa0f5f570'
p211
sg10
S'xx735186072d5994cda8147412d31f90b3'
p212
sg12
S'xxc5bb625321e9fac5a8a19a6014971183'
p213
sg14
S'Mozilla/5.0 (Linux; Android 4.4.4; MI 3W Build/KTU84P) AppleWebKit/537.36 (KHTML, like Gecko) Version/4.0 Chrome/37.0.0.0 Mobile MQQBrowser/6.8 TBS/036849 Safari/537.36 MicroMessenger/6.3.27.880 NetType/WIFI Language/zh_CN'
p214
sg16
S'96e8b32735533b6b2c0af51c42ca9b27'
p215
sa(dp216
g2
S'46963'
p217
sg4
S'4422'
p218
sg6
S'79b2b9904f23a9b5f103957129608106'
p219
sg8
S'xxdfe6b713e3b4558930a1bd6aa0f5f570'
p220
sg10
S'xx735186072d5994cda8147412d31f90b3'
p221
sg12
S'xxc5bb625321e9fac5a8a19a6014971183'
p222
sg14
S'Mozilla/5.0 (Linux; Android 4.4.4; MI 3W Build/KTU84P) AppleWebKit/537.36 (KHTML, like Gecko) Version/4.0 Chrome/37.0.0.0 Mobile MQQBrowser/6.8 TBS/036849 Safari/537.36 MicroMessenger/6.3.27.880 NetType/WIFI Language/zh_CN'
p223
sg16
S'96e8b32735533b6b2c0af51c42ca9b27'
p224
sa(dp225
g2
S'46963'
p226
sg4
S'4440'
p227
sg6
S'79b2b9904f23a9b5f103957129608106'
p228
sg8
S'xxdfe6b713e3b4558930a1bd6aa0f5f570'
p229
sg10
S'xx735186072d5994cda8147412d31f90b3'
p230
sg12
S'xxc5bb625321e9fac5a8a19a6014971183'
p231
sg14
S'Mozilla/5.0 (Linux; Android 4.4.4; MI 3W Build/KTU84P) AppleWebKit/537.36 (KHTML, like Gecko) Version/4.0 Chrome/37.0.0.0 Mobile MQQBrowser/6.8 TBS/036849 Safari/537.36 MicroMessenger/6.3.27.880 NetType/WIFI Language/zh_CN'
p232
sg16
S'96e8b32735533b6b2c0af51c42ca9b27'
p233
sa(dp234
g2
S'19307'
p235
sg4
S'4614'
p236
sg6
S'79b2b9904f23a9b5f103957129608106'
p237
sg8
S'xxdfe6b713e3b4558930a1bd6aa0f5f570'
p238
sg10
S'xx735186072d5994cda8147412d31f90b3'
p239
sg12
S'xxc5bb625321e9fac5a8a19a6014971183'
p240
sg14
S'Mozilla/5.0 (Linux; Android 4.4.4; MI 3W Build/KTU84P) AppleWebKit/537.36 (KHTML, like Gecko) Version/4.0 Chrome/37.0.0.0 Mobile MQQBrowser/6.8 TBS/036849 Safari/537.36 MicroMessenger/6.3.27.880 NetType/WIFI Language/zh_CN'
p241
sg16
S'96e8b32735533b6b2c0af51c42ca9b27'
p242
sa(dp243
g2
S'19307'
p244
sg4
S'4627'
p245
sg6
S'79b2b9904f23a9b5f103957129608106'
p246
sg8
S'xxdfe6b713e3b4558930a1bd6aa0f5f570'
p247
sg10
S'xx735186072d5994cda8147412d31f90b3'
p248
sg12
S'xxc5bb625321e9fac5a8a19a6014971183'
p249
sg14
S'Mozilla/5.0 (Linux; Android 4.4.4; MI 3W Build/KTU84P) AppleWebKit/537.36 (KHTML, like Gecko) Version/4.0 Chrome/37.0.0.0 Mobile MQQBrowser/6.8 TBS/036849 Safari/537.36 MicroMessenger/6.3.27.880 NetType/WIFI Language/zh_CN'
p250
sg16
S'96e8b32735533b6b2c0af51c42ca9b27'
p251
sa(dp252
g2
S'19307'
p253
sg4
S'5394'
p254
sg6
S'79b2b9904f23a9b5f103957129608106'
p255
sg8
S'xxdfe6b713e3b4558930a1bd6aa0f5f570'
p256
sg10
S'xx735186072d5994cda8147412d31f90b3'
p257
sg12
S'xxc5bb625321e9fac5a8a19a6014971183'
p258
sg14
S'Mozilla/5.0 (Linux; Android 4.4.4; MI 3W Build/KTU84P) AppleWebKit/537.36 (KHTML, like Gecko) Version/4.0 Chrome/37.0.0.0 Mobile MQQBrowser/6.8 TBS/036849 Safari/537.36 MicroMessenger/6.3.27.880 NetType/WIFI Language/zh_CN'
p259
sg16
S'96e8b32735533b6b2c0af51c42ca9b27'
p260
sa(dp261
g2
S'19307'
p262
sg4
S'5410'
p263
sg6
S'79b2b9904f23a9b5f103957129608106'
p264
sg8
S'xxdfe6b713e3b4558930a1bd6aa0f5f570'
p265
sg10
S'xx735186072d5994cda8147412d31f90b3'
p266
sg12
S'xxc5bb625321e9fac5a8a19a6014971183'
p267
sg14
S'Mozilla/5.0 (Linux; Android 4.4.4; MI 3W Build/KTU84P) AppleWebKit/537.36 (KHTML, like Gecko) Version/4.0 Chrome/37.0.0.0 Mobile MQQBrowser/6.8 TBS/036849 Safari/537.36 MicroMessenger/6.3.27.880 NetType/WIFI Language/zh_CN'
p268
sg16
S'96e8b32735533b6b2c0af51c42ca9b27'
p269
sa(dp270
g2
S'46963'
p271
sg4
S'5565'
p272
sg6
S'79b2b9904f23a9b5f103957129608106'
p273
sg8
S'xxdfe6b713e3b4558930a1bd6aa0f5f570'
p274
sg10
S'xx735186072d5994cda8147412d31f90b3'
p275
sg12
S'xxc5bb625321e9fac5a8a19a6014971183'
p276
sg14
S'Mozilla/5.0 (Linux; Android 4.4.4; MI 3W Build/KTU84P) AppleWebKit/537.36 (KHTML, like Gecko) Version/4.0 Chrome/37.0.0.0 Mobile MQQBrowser/6.8 TBS/036849 Safari/537.36 MicroMessenger/6.3.27.880 NetType/WIFI Language/zh_CN'
p277
sg16
S'96e8b32735533b6b2c0af51c42ca9b27'
p278
sa(dp279
g2
S'46963'
p280
sg4
S'5581'
p281
sg6
S'79b2b9904f23a9b5f103957129608106'
p282
sg8
S'xxdfe6b713e3b4558930a1bd6aa0f5f570'
p283
sg10
S'xx735186072d5994cda8147412d31f90b3'
p284
sg12
S'xxc5bb625321e9fac5a8a19a6014971183'
p285
sg14
S'Mozilla/5.0 (Linux; Android 4.4.4; MI 3W Build/KTU84P) AppleWebKit/537.36 (KHTML, like Gecko) Version/4.0 Chrome/37.0.0.0 Mobile MQQBrowser/6.8 TBS/036849 Safari/537.36 MicroMessenger/6.3.27.880 NetType/WIFI Language/zh_CN'
p286
sg16
S'96e8b32735533b6b2c0af51c42ca9b27'
p287
sa(dp288
g2
S'46963'
p289
sg4
S'6262'
p290
sg6
S'79b2b9904f23a9b5f103957129608106'
p291
sg8
S'xxdfe6b713e3b4558930a1bd6aa0f5f570'
p292
sg10
S'xx735186072d5994cda8147412d31f90b3'
p293
sg12
S'xxc5bb625321e9fac5a8a19a6014971183'
p294
sg14
S'Mozilla/5.0 (Linux; Android 4.4.4; MI 3W Build/KTU84P) AppleWebKit/537.36 (KHTML, like Gecko) Version/4.0 Chrome/37.0.0.0 Mobile MQQBrowser/6.8 TBS/036849 Safari/537.36 MicroMessenger/6.3.27.880 NetType/WIFI Language/zh_CN'
p295
sg16
S'96e8b32735533b6b2c0af51c42ca9b27'
p296
sa(dp297
g2
S'46963'
p298
sg4
S'6273'
p299
sg6
S'79b2b9904f23a9b5f103957129608106'
p300
sg8
S'xxdfe6b713e3b4558930a1bd6aa0f5f570'
p301
sg10
S'xx735186072d5994cda8147412d31f90b3'
p302
sg12
S'xxc5bb625321e9fac5a8a19a6014971183'
p303
sg14
S'Mozilla/5.0 (Linux; Android 4.4.4; MI 3W Build/KTU84P) AppleWebKit/537.36 (KHTML, like Gecko) Version/4.0 Chrome/37.0.0.0 Mobile MQQBrowser/6.8 TBS/036849 Safari/537.36 MicroMessenger/6.3.27.880 NetType/WIFI Language/zh_CN'
p304
sg16
S'96e8b32735533b6b2c0af51c42ca9b27'
p305
sa(dp306
g2
S'19307'
p307
sg4
S'6396'
p308
sg6
S'79b2b9904f23a9b5f103957129608106'
p309
sg8
S'xxdfe6b713e3b4558930a1bd6aa0f5f570'
p310
sg10
S'xx735186072d5994cda8147412d31f90b3'
p311
sg12
S'xxc5bb625321e9fac5a8a19a6014971183'
p312
sg14
S'Mozilla/5.0 (Linux; Android 4.4.4; MI 3W Build/KTU84P) AppleWebKit/537.36 (KHTML, like Gecko) Version/4.0 Chrome/37.0.0.0 Mobile MQQBrowser/6.8 TBS/036849 Safari/537.36 MicroMessenger/6.3.27.880 NetType/WIFI Language/zh_CN'
p313
sg16
S'96e8b32735533b6b2c0af51c42ca9b27'
p314
sa(dp315
g2
S'19307'
p316
sg4
S'6413'
p317
sg6
S'79b2b9904f23a9b5f103957129608106'
p318
sg8
S'xxdfe6b713e3b4558930a1bd6aa0f5f570'
p319
sg10
S'xx735186072d5994cda8147412d31f90b3'
p320
sg12
S'xxc5bb625321e9fac5a8a19a6014971183'
p321
sg14
S'Mozilla/5.0 (Linux; Android 4.4.4; MI 3W Build/KTU84P) AppleWebKit/537.36 (KHTML, like Gecko) Version/4.0 Chrome/37.0.0.0 Mobile MQQBrowser/6.8 TBS/036849 Safari/537.36 MicroMessenger/6.3.27.880 NetType/WIFI Language/zh_CN'
p322
sg16
S'96e8b32735533b6b2c0af51c42ca9b27'
p323
sa(dp324
g2
S'19307'
p325
sg4
S'7461'
p326
sg6
S'79b2b9904f23a9b5f103957129608106'
p327
sg8
S'xxdfe6b713e3b4558930a1bd6aa0f5f570'
p328
sg10
S'xx735186072d5994cda8147412d31f90b3'
p329
sg12
S'xxc5bb625321e9fac5a8a19a6014971183'
p330
sg14
S'Mozilla/5.0 (Linux; Android 4.4.4; MI 3W Build/KTU84P) AppleWebKit/537.36 (KHTML, like Gecko) Version/4.0 Chrome/37.0.0.0 Mobile MQQBrowser/6.8 TBS/036849 Safari/537.36 MicroMessenger/6.3.27.880 NetType/WIFI Language/zh_CN'
p331
sg16
S'96e8b32735533b6b2c0af51c42ca9b27'
p332
sa(dp333
g2
S'19307'
p334
sg4
S'7473'
p335
sg6
S'79b2b9904f23a9b5f103957129608106'
p336
sg8
S'xxdfe6b713e3b4558930a1bd6aa0f5f570'
p337
sg10
S'xx735186072d5994cda8147412d31f90b3'
p338
sg12
S'xxc5bb625321e9fac5a8a19a6014971183'
p339
sg14
S'Mozilla/5.0 (Linux; Android 4.4.4; MI 3W Build/KTU84P) AppleWebKit/537.36 (KHTML, like Gecko) Version/4.0 Chrome/37.0.0.0 Mobile MQQBrowser/6.8 TBS/036849 Safari/537.36 MicroMessenger/6.3.27.880 NetType/WIFI Language/zh_CN'
p340
sg16
S'96e8b32735533b6b2c0af51c42ca9b27'
p341
sa(dp342
g2
S'46963'
p343
sg4
S'7641'
p344
sg6
S'79b2b9904f23a9b5f103957129608106'
p345
sg8
S'xxdfe6b713e3b4558930a1bd6aa0f5f570'
p346
sg10
S'xx735186072d5994cda8147412d31f90b3'
p347
sg12
S'xxc5bb625321e9fac5a8a19a6014971183'
p348
sg14
S'Mozilla/5.0 (Linux; Android 4.4.4; MI 3W Build/KTU84P) AppleWebKit/537.36 (KHTML, like Gecko) Version/4.0 Chrome/37.0.0.0 Mobile MQQBrowser/6.8 TBS/036849 Safari/537.36 MicroMessenger/6.3.27.880 NetType/WIFI Language/zh_CN'
p349
sg16
S'96e8b32735533b6b2c0af51c42ca9b27'
p350
sa(dp351
g2
S'46963'
p352
sg4
S'7651'
p353
sg6
S'79b2b9904f23a9b5f103957129608106'
p354
sg8
S'xxdfe6b713e3b4558930a1bd6aa0f5f570'
p355
sg10
S'xx735186072d5994cda8147412d31f90b3'
p356
sg12
S'xxc5bb625321e9fac5a8a19a6014971183'
p357
sg14
S'Mozilla/5.0 (Linux; Android 4.4.4; MI 3W Build/KTU84P) AppleWebKit/537.36 (KHTML, like Gecko) Version/4.0 Chrome/37.0.0.0 Mobile MQQBrowser/6.8 TBS/036849 Safari/537.36 MicroMessenger/6.3.27.880 NetType/WIFI Language/zh_CN'
p358
sg16
S'96e8b32735533b6b2c0af51c42ca9b27'
p359
sa(dp360
g2
S'37139'
p361
sg4
S'7932'
p362
sg6
S'aac65f91c03c0705eabcdaeb2d84468c'
p363
sg8
S'xx46235c5c33563499d95cdef0ab6606de'
p364
sg10
S'xxd9087b7cfb123a34278000eb05b0e18f'
p365
sg12
S'xxc5bb625321e9fac5a8a19a6014971183'
p366
sg14
S'Mozilla/5.0 (Linux; Android 4.4.4; MI 3W Build/KTU84P) AppleWebKit/537.36 (KHTML, like Gecko) Version/4.0 Chrome/37.0.0.0 Mobile MQQBrowser/6.8 TBS/036869 Safari/537.36 MicroMessenger/6.3.27.880 NetType/WIFI Language/zh_CN'
p367
sg16
S'71578258e2237ccaf2dd2e7f256dbcb3'
p368
sa(dp369
g2
S'37139'
p370
sg4
S'7961'
p371
sg6
S'aac65f91c03c0705eabcdaeb2d84468c'
p372
sg8
S'xx46235c5c33563499d95cdef0ab6606de'
p373
sg10
S'xxd9087b7cfb123a34278000eb05b0e18f'
p374
sg12
S'xxc5bb625321e9fac5a8a19a6014971183'
p375
sg14
S'Mozilla/5.0 (Linux; Android 4.4.4; MI 3W Build/KTU84P) AppleWebKit/537.36 (KHTML, like Gecko) Version/4.0 Chrome/37.0.0.0 Mobile MQQBrowser/6.8 TBS/036869 Safari/537.36 MicroMessenger/6.3.27.880 NetType/WIFI Language/zh_CN'
p376
sg16
S'71578258e2237ccaf2dd2e7f256dbcb3'
p377
sa(dp378
g2
S'37139'
p379
sg4
S'8052'
p380
sg6
S'aac65f91c03c0705eabcdaeb2d84468c'
p381
sg8
S'xx46235c5c33563499d95cdef0ab6606de'
p382
sg10
S'xxd9087b7cfb123a34278000eb05b0e18f'
p383
sg12
S'xxc5bb625321e9fac5a8a19a6014971183'
p384
sg14
S'Mozilla/5.0 (Linux; Android 4.4.4; MI 3W Build/KTU84P) AppleWebKit/537.36 (KHTML, like Gecko) Version/4.0 Chrome/37.0.0.0 Mobile MQQBrowser/6.8 TBS/036869 Safari/537.36 MicroMessenger/6.3.27.880 NetType/WIFI Language/zh_CN'
p385
sg16
S'71578258e2237ccaf2dd2e7f256dbcb3'
p386
sa(dp387
g2
S'37139'
p388
sg4
S'8082'
p389
sg6
S'aac65f91c03c0705eabcdaeb2d84468c'
p390
sg8
S'xx46235c5c33563499d95cdef0ab6606de'
p391
sg10
S'xxd9087b7cfb123a34278000eb05b0e18f'
p392
sg12
S'xxc5bb625321e9fac5a8a19a6014971183'
p393
sg14
S'Mozilla/5.0 (Linux; Android 4.4.4; MI 3W Build/KTU84P) AppleWebKit/537.36 (KHTML, like Gecko) Version/4.0 Chrome/37.0.0.0 Mobile MQQBrowser/6.8 TBS/036869 Safari/537.36 MicroMessenger/6.3.27.880 NetType/WIFI Language/zh_CN'
p394
sg16
S'71578258e2237ccaf2dd2e7f256dbcb3'
p395
sa(dp396
g2
S'46963'
p397
sg4
S'8201'
p398
sg6
S'79b2b9904f23a9b5f103957129608106'
p399
sg8
S'xxdfe6b713e3b4558930a1bd6aa0f5f570'
p400
sg10
S'xx735186072d5994cda8147412d31f90b3'
p401
sg12
S'xxc5bb625321e9fac5a8a19a6014971183'
p402
sg14
S'Mozilla/5.0 (Linux; Android 4.4.4; MI 3W Build/KTU84P) AppleWebKit/537.36 (KHTML, like Gecko) Version/4.0 Chrome/37.0.0.0 Mobile MQQBrowser/6.8 TBS/036849 Safari/537.36 MicroMessenger/6.3.27.880 NetType/WIFI Language/zh_CN'
p403
sg16
S'96e8b32735533b6b2c0af51c42ca9b27'
p404
sa(dp405
g2
S'46963'
p406
sg4
S'8215'
p407
sg6
S'79b2b9904f23a9b5f103957129608106'
p408
sg8
S'xxdfe6b713e3b4558930a1bd6aa0f5f570'
p409
sg10
S'xx735186072d5994cda8147412d31f90b3'
p410
sg12
S'xxc5bb625321e9fac5a8a19a6014971183'
p411
sg14
S'Mozilla/5.0 (Linux; Android 4.4.4; MI 3W Build/KTU84P) AppleWebKit/537.36 (KHTML, like Gecko) Version/4.0 Chrome/37.0.0.0 Mobile MQQBrowser/6.8 TBS/036849 Safari/537.36 MicroMessenger/6.3.27.880 NetType/WIFI Language/zh_CN'
p412
sg16
S'96e8b32735533b6b2c0af51c42ca9b27'
p413
sa(dp414
g2
S'19307'
p415
sg4
S'8419'
p416
sg6
S'79b2b9904f23a9b5f103957129608106'
p417
sg8
S'xxdfe6b713e3b4558930a1bd6aa0f5f570'
p418
sg10
S'xx735186072d5994cda8147412d31f90b3'
p419
sg12
S'xxc5bb625321e9fac5a8a19a6014971183'
p420
sg14
S'Mozilla/5.0 (Linux; Android 4.4.4; MI 3W Build/KTU84P) AppleWebKit/537.36 (KHTML, like Gecko) Version/4.0 Chrome/37.0.0.0 Mobile MQQBrowser/6.8 TBS/036849 Safari/537.36 MicroMessenger/6.3.27.880 NetType/WIFI Language/zh_CN'
p421
sg16
S'96e8b32735533b6b2c0af51c42ca9b27'
p422
sa(dp423
g2
S'19307'
p424
sg4
S'8428'
p425
sg6
S'79b2b9904f23a9b5f103957129608106'
p426
sg8
S'xxdfe6b713e3b4558930a1bd6aa0f5f570'
p427
sg10
S'xx735186072d5994cda8147412d31f90b3'
p428
sg12
S'xxc5bb625321e9fac5a8a19a6014971183'
p429
sg14
S'Mozilla/5.0 (Linux; Android 4.4.4; MI 3W Build/KTU84P) AppleWebKit/537.36 (KHTML, like Gecko) Version/4.0 Chrome/37.0.0.0 Mobile MQQBrowser/6.8 TBS/036849 Safari/537.36 MicroMessenger/6.3.27.880 NetType/WIFI Language/zh_CN'
p430
sg16
S'96e8b32735533b6b2c0af51c42ca9b27'
p431
sa.