(lp0
(dp1
S'user_id'
p2
S'48239'
p3
sS'data_id'
p4
S'2617'
p5
sS'ip'
p6
S'6a35363b15127e34b07c9fc3875f652f'
p7
sS'phone_B'
p8
S'xx1a0ae21aa5635aa697dfdfdd7740560b'
p9
sS'phone_C'
p10
S'xx57ad19992fa8b0d072ed7e7251a9999f'
p11
sS'phone_A'
p12
S'xxc70d8e813ad88e87b9ade34a3a2df6cc'
p13
sS'user_agent'
p14
S'Mozilla/5.0 (Linux; Android 6.0.1; Lenovo P1c72 Build/MMB29M) AppleWebKit/537.36 (KHTML, like Gecko) Version/4.0 Chrome/37.0.0.0 Mobile MQQBrowser/6.8 TBS/036865 Safari/537.36 MicroMessenger/6.3.27.880 NetType/WIFI Language/zh_CN'
p15
sS'ua'
p16
S'eeb1fa530d867b639635e0d0d36c1e74'
p17
sa.