(lp0
(dp1
S'user_id'
p2
S'22570'
p3
sS'data_id'
p4
S'4'
p5
sS'ip'
p6
S'fca8f5236f19ebce72d5785aa76f8758'
p7
sS'phone_B'
p8
S'xxc1a8877eb88184e7e02b49651064e3c0'
p9
sS'phone_C'
p10
S'xx3c1f9145ecee6dd814d4425abc6c369c'
p11
sS'phone_A'
p12
S'xxc8347c9a822c6da30835948e168bbbcc'
p13
sS'user_agent'
p14
S'Mozilla/5.0 (Linux; Android 4.4.2; HUAWEI MT7-TL00 Build/HuaweiMT7-TL00) AppleWebKit/537.36 (KHTML, like Gecko) Version/4.0 Chrome/37.0.0.0 Mobile MQQBrowser/6.8 TBS/036849 Safari/537.36 MicroMessenger/6.3.27.880 NetType/WIFI Language/zh_CN'
p15
sS'ua'
p16
S'63374afa2d3ae6f7e7afe710494763a6'
p17
sa(dp18
g2
S'22570'
p19
sg4
S'16'
p20
sg6
S'fca8f5236f19ebce72d5785aa76f8758'
p21
sg8
S'xxc1a8877eb88184e7e02b49651064e3c0'
p22
sg10
S'xx3c1f9145ecee6dd814d4425abc6c369c'
p23
sg12
S'xxc8347c9a822c6da30835948e168bbbcc'
p24
sg14
S'Mozilla/5.0 (Linux; Android 4.4.2; HUAWEI MT7-TL00 Build/HuaweiMT7-TL00) AppleWebKit/537.36 (KHTML, like Gecko) Version/4.0 Chrome/37.0.0.0 Mobile MQQBrowser/6.8 TBS/036849 Safari/537.36 MicroMessenger/6.3.27.880 NetType/WIFI Language/zh_CN'
p25
sg16
S'63374afa2d3ae6f7e7afe710494763a6'
p26
sa(dp27
g2
S'22570'
p28
sg4
S'27'
p29
sg6
S'fca8f5236f19ebce72d5785aa76f8758'
p30
sg8
S'xxc1a8877eb88184e7e02b49651064e3c0'
p31
sg10
S'xx3c1f9145ecee6dd814d4425abc6c369c'
p32
sg12
S'xxc8347c9a822c6da30835948e168bbbcc'
p33
sg14
S'Mozilla/5.0 (Linux; Android 4.4.2; HUAWEI MT7-TL00 Build/HuaweiMT7-TL00) AppleWebKit/537.36 (KHTML, like Gecko) Version/4.0 Chrome/37.0.0.0 Mobile MQQBrowser/6.8 TBS/036849 Safari/537.36 MicroMessenger/6.3.27.880 NetType/WIFI Language/zh_CN'
p34
sg16
S'63374afa2d3ae6f7e7afe710494763a6'
p35
sa.