(lp0
(dp1
S'user_id'
p2
S'39179'
p3
sS'data_id'
p4
S'2207'
p5
sS'ip'
p6
S'4a68e8cc1ecc376c45c43aa3ea4b1dd3'
p7
sS'phone_B'
p8
S'xxf0e3a3f80c31795e9398d9cccd6c3505'
p9
sS'phone_C'
p10
S'xx508a15e92c48bd9e9348fc5e01f4633f'
p11
sS'phone_A'
p12
S'xxc8404b5a863db60c31d3aeff0d2db335'
p13
sS'user_agent'
p14
S'Mozilla/5.0 (Linux; Android 4.4.4; AoleDior Build/KTU84P) AppleWebKit/537.36 (KHTML, like Gecko) Version/4.0 Chrome/37.0.0.0 Mobile MQQBrowser/6.8 TBS/036869 Safari/537.36 MicroMessenger/6.3.27.880 NetType/WIFI Language/zh_CN'
p15
sS'ua'
p16
S'7cb7b8deddf7b8b9781bb1757712afe1'
p17
sa(dp18
g2
S'39179'
p19
sg4
S'2227'
p20
sg6
S'4a68e8cc1ecc376c45c43aa3ea4b1dd3'
p21
sg8
S'xxf0e3a3f80c31795e9398d9cccd6c3505'
p22
sg10
S'xx508a15e92c48bd9e9348fc5e01f4633f'
p23
sg12
S'xxc8404b5a863db60c31d3aeff0d2db335'
p24
sg14
S'Mozilla/5.0 (Linux; Android 4.4.4; AoleDior Build/KTU84P) AppleWebKit/537.36 (KHTML, like Gecko) Version/4.0 Chrome/37.0.0.0 Mobile MQQBrowser/6.8 TBS/036869 Safari/537.36 MicroMessenger/6.3.27.880 NetType/WIFI Language/zh_CN'
p25
sg16
S'7cb7b8deddf7b8b9781bb1757712afe1'
p26
sa(dp27
g2
S'39179'
p28
sg4
S'2264'
p29
sg6
S'4a68e8cc1ecc376c45c43aa3ea4b1dd3'
p30
sg8
S'xxf0e3a3f80c31795e9398d9cccd6c3505'
p31
sg10
S'xx508a15e92c48bd9e9348fc5e01f4633f'
p32
sg12
S'xxc8404b5a863db60c31d3aeff0d2db335'
p33
sg14
S'Mozilla/5.0 (Linux; Android 4.4.4; AoleDior Build/KTU84P) AppleWebKit/537.36 (KHTML, like Gecko) Version/4.0 Chrome/37.0.0.0 Mobile MQQBrowser/6.8 TBS/036869 Safari/537.36 MicroMessenger/6.3.27.880 NetType/WIFI Language/zh_CN'
p34
sg16
S'7cb7b8deddf7b8b9781bb1757712afe1'
p35
sa(dp36
g2
S'39179'
p37
sg4
S'2277'
p38
sg6
S'4a68e8cc1ecc376c45c43aa3ea4b1dd3'
p39
sg8
S'xxf0e3a3f80c31795e9398d9cccd6c3505'
p40
sg10
S'xx508a15e92c48bd9e9348fc5e01f4633f'
p41
sg12
S'xxc8404b5a863db60c31d3aeff0d2db335'
p42
sg14
S'Mozilla/5.0 (Linux; Android 4.4.4; AoleDior Build/KTU84P) AppleWebKit/537.36 (KHTML, like Gecko) Version/4.0 Chrome/37.0.0.0 Mobile MQQBrowser/6.8 TBS/036869 Safari/537.36 MicroMessenger/6.3.27.880 NetType/WIFI Language/zh_CN'
p43
sg16
S'7cb7b8deddf7b8b9781bb1757712afe1'
p44
sa(dp45
g2
S'39179'
p46
sg4
S'2722'
p47
sg6
S'4a68e8cc1ecc376c45c43aa3ea4b1dd3'
p48
sg8
S'xxf0e3a3f80c31795e9398d9cccd6c3505'
p49
sg10
S'xx508a15e92c48bd9e9348fc5e01f4633f'
p50
sg12
S'xxc8404b5a863db60c31d3aeff0d2db335'
p51
sg14
S'Mozilla/5.0 (Linux; Android 4.4.4; AoleDior Build/KTU84P) AppleWebKit/537.36 (KHTML, like Gecko) Version/4.0 Chrome/37.0.0.0 Mobile MQQBrowser/6.8 TBS/036869 Safari/537.36 MicroMessenger/6.3.27.880 NetType/WIFI Language/zh_CN'
p52
sg16
S'7cb7b8deddf7b8b9781bb1757712afe1'
p53
sa(dp54
g2
S'39179'
p55
sg4
S'2767'
p56
sg6
S'4a68e8cc1ecc376c45c43aa3ea4b1dd3'
p57
sg8
S'xxf0e3a3f80c31795e9398d9cccd6c3505'
p58
sg10
S'xx508a15e92c48bd9e9348fc5e01f4633f'
p59
sg12
S'xxc8404b5a863db60c31d3aeff0d2db335'
p60
sg14
S'Mozilla/5.0 (Linux; Android 4.4.4; AoleDior Build/KTU84P) AppleWebKit/537.36 (KHTML, like Gecko) Version/4.0 Chrome/37.0.0.0 Mobile MQQBrowser/6.8 TBS/036869 Safari/537.36 MicroMessenger/6.3.27.880 NetType/WIFI Language/zh_CN'
p61
sg16
S'7cb7b8deddf7b8b9781bb1757712afe1'
p62
sa.