(lp0
(dp1
S'user_id'
p2
S'8651'
p3
sS'data_id'
p4
S'1377'
p5
sS'ip'
p6
S'032c203bce8c4679f158b3e98ea55f79'
p7
sS'phone_B'
p8
S'xxf33309ab2e6aab0934900f654726777b'
p9
sS'phone_C'
p10
S'xxc1cd734209e018836686af9790a79ffe'
p11
sS'phone_A'
p12
S'xxc8b20d403e3697b80acbae6eba7cd198'
p13
sS'user_agent'
p14
S'Mozilla/5.0 (Linux; Android 5.1; MX5 Build/LMY47I) AppleWebKit/537.36 (KHTML, like Gecko) Version/4.0 Chrome/37.0.0.0 Mobile MQQBrowser/6.8 TBS/036849 Safari/537.36 MicroMessenger/6.3.27.880 NetType/WIFI Language/zh_CN'
p15
sS'ua'
p16
S'0d63fb649fb38b87ec3ff9c3edd37d37'
p17
sa(dp18
g2
S'8651'
p19
sg4
S'1392'
p20
sg6
S'032c203bce8c4679f158b3e98ea55f79'
p21
sg8
S'xxf33309ab2e6aab0934900f654726777b'
p22
sg10
S'xxc1cd734209e018836686af9790a79ffe'
p23
sg12
S'xxc8b20d403e3697b80acbae6eba7cd198'
p24
sg14
S'Mozilla/5.0 (Linux; Android 5.1; MX5 Build/LMY47I) AppleWebKit/537.36 (KHTML, like Gecko) Version/4.0 Chrome/37.0.0.0 Mobile MQQBrowser/6.8 TBS/036849 Safari/537.36 MicroMessenger/6.3.27.880 NetType/WIFI Language/zh_CN'
p25
sg16
S'0d63fb649fb38b87ec3ff9c3edd37d37'
p26
sa(dp27
g2
S'8651'
p28
sg4
S'1418'
p29
sg6
S'032c203bce8c4679f158b3e98ea55f79'
p30
sg8
S'xxf33309ab2e6aab0934900f654726777b'
p31
sg10
S'xxc1cd734209e018836686af9790a79ffe'
p32
sg12
S'xxc8b20d403e3697b80acbae6eba7cd198'
p33
sg14
S'Mozilla/5.0 (Linux; Android 5.1; MX5 Build/LMY47I) AppleWebKit/537.36 (KHTML, like Gecko) Version/4.0 Chrome/37.0.0.0 Mobile MQQBrowser/6.8 TBS/036849 Safari/537.36 MicroMessenger/6.3.27.880 NetType/WIFI Language/zh_CN'
p34
sg16
S'0d63fb649fb38b87ec3ff9c3edd37d37'
p35
sa(dp36
g2
S'8651'
p37
sg4
S'1424'
p38
sg6
S'032c203bce8c4679f158b3e98ea55f79'
p39
sg8
S'xxf33309ab2e6aab0934900f654726777b'
p40
sg10
S'xxc1cd734209e018836686af9790a79ffe'
p41
sg12
S'xxc8b20d403e3697b80acbae6eba7cd198'
p42
sg14
S'Mozilla/5.0 (Linux; Android 5.1; MX5 Build/LMY47I) AppleWebKit/537.36 (KHTML, like Gecko) Version/4.0 Chrome/37.0.0.0 Mobile MQQBrowser/6.8 TBS/036849 Safari/537.36 MicroMessenger/6.3.27.880 NetType/WIFI Language/zh_CN'
p43
sg16
S'0d63fb649fb38b87ec3ff9c3edd37d37'
p44
sa(dp45
g2
S'8651'
p46
sg4
S'1433'
p47
sg6
S'032c203bce8c4679f158b3e98ea55f79'
p48
sg8
S'xxf33309ab2e6aab0934900f654726777b'
p49
sg10
S'xxc1cd734209e018836686af9790a79ffe'
p50
sg12
S'xxc8b20d403e3697b80acbae6eba7cd198'
p51
sg14
S'Mozilla/5.0 (Linux; Android 5.1; MX5 Build/LMY47I) AppleWebKit/537.36 (KHTML, like Gecko) Version/4.0 Chrome/37.0.0.0 Mobile MQQBrowser/6.8 TBS/036849 Safari/537.36 MicroMessenger/6.3.27.880 NetType/WIFI Language/zh_CN'
p52
sg16
S'0d63fb649fb38b87ec3ff9c3edd37d37'
p53
sa(dp54
g2
S'8651'
p55
sg4
S'1442'
p56
sg6
S'032c203bce8c4679f158b3e98ea55f79'
p57
sg8
S'xxf33309ab2e6aab0934900f654726777b'
p58
sg10
S'xxc1cd734209e018836686af9790a79ffe'
p59
sg12
S'xxc8b20d403e3697b80acbae6eba7cd198'
p60
sg14
S'Mozilla/5.0 (Linux; Android 5.1; MX5 Build/LMY47I) AppleWebKit/537.36 (KHTML, like Gecko) Version/4.0 Chrome/37.0.0.0 Mobile MQQBrowser/6.8 TBS/036849 Safari/537.36 MicroMessenger/6.3.27.880 NetType/WIFI Language/zh_CN'
p61
sg16
S'0d63fb649fb38b87ec3ff9c3edd37d37'
p62
sa(dp63
g2
S'8651'
p64
sg4
S'1451'
p65
sg6
S'032c203bce8c4679f158b3e98ea55f79'
p66
sg8
S'xxf33309ab2e6aab0934900f654726777b'
p67
sg10
S'xxc1cd734209e018836686af9790a79ffe'
p68
sg12
S'xxc8b20d403e3697b80acbae6eba7cd198'
p69
sg14
S'Mozilla/5.0 (Linux; Android 5.1; MX5 Build/LMY47I) AppleWebKit/537.36 (KHTML, like Gecko) Version/4.0 Chrome/37.0.0.0 Mobile MQQBrowser/6.8 TBS/036849 Safari/537.36 MicroMessenger/6.3.27.880 NetType/WIFI Language/zh_CN'
p70
sg16
S'0d63fb649fb38b87ec3ff9c3edd37d37'
p71
sa(dp72
g2
S'8651'
p73
sg4
S'1469'
p74
sg6
S'032c203bce8c4679f158b3e98ea55f79'
p75
sg8
S'xxf33309ab2e6aab0934900f654726777b'
p76
sg10
S'xxc1cd734209e018836686af9790a79ffe'
p77
sg12
S'xxc8b20d403e3697b80acbae6eba7cd198'
p78
sg14
S'Mozilla/5.0 (Linux; Android 5.1; MX5 Build/LMY47I) AppleWebKit/537.36 (KHTML, like Gecko) Version/4.0 Chrome/37.0.0.0 Mobile MQQBrowser/6.8 TBS/036849 Safari/537.36 MicroMessenger/6.3.27.880 NetType/WIFI Language/zh_CN'
p79
sg16
S'0d63fb649fb38b87ec3ff9c3edd37d37'
p80
sa(dp81
g2
S'8651'
p82
sg4
S'1489'
p83
sg6
S'032c203bce8c4679f158b3e98ea55f79'
p84
sg8
S'xxf33309ab2e6aab0934900f654726777b'
p85
sg10
S'xxc1cd734209e018836686af9790a79ffe'
p86
sg12
S'xxc8b20d403e3697b80acbae6eba7cd198'
p87
sg14
S'Mozilla/5.0 (Linux; Android 5.1; MX5 Build/LMY47I) AppleWebKit/537.36 (KHTML, like Gecko) Version/4.0 Chrome/37.0.0.0 Mobile MQQBrowser/6.8 TBS/036849 Safari/537.36 MicroMessenger/6.3.27.880 NetType/WIFI Language/zh_CN'
p88
sg16
S'0d63fb649fb38b87ec3ff9c3edd37d37'
p89
sa(dp90
g2
S'8651'
p91
sg4
S'1498'
p92
sg6
S'032c203bce8c4679f158b3e98ea55f79'
p93
sg8
S'xxf33309ab2e6aab0934900f654726777b'
p94
sg10
S'xxc1cd734209e018836686af9790a79ffe'
p95
sg12
S'xxc8b20d403e3697b80acbae6eba7cd198'
p96
sg14
S'Mozilla/5.0 (Linux; Android 5.1; MX5 Build/LMY47I) AppleWebKit/537.36 (KHTML, like Gecko) Version/4.0 Chrome/37.0.0.0 Mobile MQQBrowser/6.8 TBS/036849 Safari/537.36 MicroMessenger/6.3.27.880 NetType/WIFI Language/zh_CN'
p97
sg16
S'0d63fb649fb38b87ec3ff9c3edd37d37'
p98
sa(dp99
g2
S'8651'
p100
sg4
S'1511'
p101
sg6
S'032c203bce8c4679f158b3e98ea55f79'
p102
sg8
S'xxf33309ab2e6aab0934900f654726777b'
p103
sg10
S'xxc1cd734209e018836686af9790a79ffe'
p104
sg12
S'xxc8b20d403e3697b80acbae6eba7cd198'
p105
sg14
S'Mozilla/5.0 (Linux; Android 5.1; MX5 Build/LMY47I) AppleWebKit/537.36 (KHTML, like Gecko) Version/4.0 Chrome/37.0.0.0 Mobile MQQBrowser/6.8 TBS/036849 Safari/537.36 MicroMessenger/6.3.27.880 NetType/WIFI Language/zh_CN'
p106
sg16
S'0d63fb649fb38b87ec3ff9c3edd37d37'
p107
sa(dp108
g2
S'8651'
p109
sg4
S'1523'
p110
sg6
S'032c203bce8c4679f158b3e98ea55f79'
p111
sg8
S'xxf33309ab2e6aab0934900f654726777b'
p112
sg10
S'xxc1cd734209e018836686af9790a79ffe'
p113
sg12
S'xxc8b20d403e3697b80acbae6eba7cd198'
p114
sg14
S'Mozilla/5.0 (Linux; Android 5.1; MX5 Build/LMY47I) AppleWebKit/537.36 (KHTML, like Gecko) Version/4.0 Chrome/37.0.0.0 Mobile MQQBrowser/6.8 TBS/036849 Safari/537.36 MicroMessenger/6.3.27.880 NetType/WIFI Language/zh_CN'
p115
sg16
S'0d63fb649fb38b87ec3ff9c3edd37d37'
p116
sa(dp117
g2
S'8651'
p118
sg4
S'1524'
p119
sg6
S'032c203bce8c4679f158b3e98ea55f79'
p120
sg8
S'xxf33309ab2e6aab0934900f654726777b'
p121
sg10
S'xxc1cd734209e018836686af9790a79ffe'
p122
sg12
S'xxc8b20d403e3697b80acbae6eba7cd198'
p123
sg14
S'Mozilla/5.0 (Linux; Android 5.1; MX5 Build/LMY47I) AppleWebKit/537.36 (KHTML, like Gecko) Version/4.0 Chrome/37.0.0.0 Mobile MQQBrowser/6.8 TBS/036849 Safari/537.36 MicroMessenger/6.3.27.880 NetType/WIFI Language/zh_CN'
p124
sg16
S'0d63fb649fb38b87ec3ff9c3edd37d37'
p125
sa(dp126
g2
S'8651'
p127
sg4
S'1555'
p128
sg6
S'032c203bce8c4679f158b3e98ea55f79'
p129
sg8
S'xxf33309ab2e6aab0934900f654726777b'
p130
sg10
S'xxc1cd734209e018836686af9790a79ffe'
p131
sg12
S'xxc8b20d403e3697b80acbae6eba7cd198'
p132
sg14
S'Mozilla/5.0 (Linux; Android 5.1; MX5 Build/LMY47I) AppleWebKit/537.36 (KHTML, like Gecko) Version/4.0 Chrome/37.0.0.0 Mobile MQQBrowser/6.8 TBS/036849 Safari/537.36 MicroMessenger/6.3.27.880 NetType/WIFI Language/zh_CN'
p133
sg16
S'0d63fb649fb38b87ec3ff9c3edd37d37'
p134
sa(dp135
g2
S'8651'
p136
sg4
S'1560'
p137
sg6
S'032c203bce8c4679f158b3e98ea55f79'
p138
sg8
S'xxf33309ab2e6aab0934900f654726777b'
p139
sg10
S'xxc1cd734209e018836686af9790a79ffe'
p140
sg12
S'xxc8b20d403e3697b80acbae6eba7cd198'
p141
sg14
S'Mozilla/5.0 (Linux; Android 5.1; MX5 Build/LMY47I) AppleWebKit/537.36 (KHTML, like Gecko) Version/4.0 Chrome/37.0.0.0 Mobile MQQBrowser/6.8 TBS/036849 Safari/537.36 MicroMessenger/6.3.27.880 NetType/WIFI Language/zh_CN'
p142
sg16
S'0d63fb649fb38b87ec3ff9c3edd37d37'
p143
sa(dp144
g2
S'8651'
p145
sg4
S'1573'
p146
sg6
S'032c203bce8c4679f158b3e98ea55f79'
p147
sg8
S'xxf33309ab2e6aab0934900f654726777b'
p148
sg10
S'xxc1cd734209e018836686af9790a79ffe'
p149
sg12
S'xxc8b20d403e3697b80acbae6eba7cd198'
p150
sg14
S'Mozilla/5.0 (Linux; Android 5.1; MX5 Build/LMY47I) AppleWebKit/537.36 (KHTML, like Gecko) Version/4.0 Chrome/37.0.0.0 Mobile MQQBrowser/6.8 TBS/036849 Safari/537.36 MicroMessenger/6.3.27.880 NetType/WIFI Language/zh_CN'
p151
sg16
S'0d63fb649fb38b87ec3ff9c3edd37d37'
p152
sa(dp153
g2
S'47437'
p154
sg4
S'4476'
p155
sg6
S'abad02f2fe898d8c3c955487be4d167e'
p156
sg8
S'xxa6dfc66dc1c315da9062bec3454b195e'
p157
sg10
S'xxc7b2fece2e10c769b8b065ad8e0d18a7'
p158
sg12
S'xxc8b20d403e3697b80acbae6eba7cd198'
p159
sg14
S'Mozilla/5.0 (Linux; Android 5.1; MX5 Build/LMY47I) AppleWebKit/537.36 (KHTML, like Gecko) Version/4.0 Chrome/37.0.0.0 Mobile MQQBrowser/6.8 TBS/036849 Safari/537.36 MicroMessenger/6.3.27.880 NetType/cmnet Language/zh_CN'
p160
sg16
S'b1f3f749187c03d72433fec40f4083e2'
p161
sa(dp162
g2
S'47437'
p163
sg4
S'4496'
p164
sg6
S'abad02f2fe898d8c3c955487be4d167e'
p165
sg8
S'xxa6dfc66dc1c315da9062bec3454b195e'
p166
sg10
S'xxc7b2fece2e10c769b8b065ad8e0d18a7'
p167
sg12
S'xxc8b20d403e3697b80acbae6eba7cd198'
p168
sg14
S'Mozilla/5.0 (Linux; Android 5.1; MX5 Build/LMY47I) AppleWebKit/537.36 (KHTML, like Gecko) Version/4.0 Chrome/37.0.0.0 Mobile MQQBrowser/6.8 TBS/036849 Safari/537.36 MicroMessenger/6.3.27.880 NetType/cmnet Language/zh_CN'
p169
sg16
S'b1f3f749187c03d72433fec40f4083e2'
p170
sa(dp171
g2
S'48011'
p172
sg4
S'4897'
p173
sg6
S'0bccc9bd92cec250153f52f822777683'
p174
sg8
S'xxc77f2f37dd0e928316008405da40ca9d'
p175
sg10
S'xxc7b2fece2e10c769b8b065ad8e0d18a7'
p176
sg12
S'xxc8b20d403e3697b80acbae6eba7cd198'
p177
sg14
S'Mozilla/5.0 (Linux; Android 5.1; MX5 Build/LMY47I) AppleWebKit/537.36 (KHTML, like Gecko) Version/4.0 Chrome/37.0.0.0 Mobile MQQBrowser/6.8 TBS/036849 Safari/537.36 MicroMessenger/6.3.27.880 NetType/WIFI Language/zh_CN'
p178
sg16
S'0d63fb649fb38b87ec3ff9c3edd37d37'
p179
sa(dp180
g2
S'48011'
p181
sg4
S'4911'
p182
sg6
S'0bccc9bd92cec250153f52f822777683'
p183
sg8
S'xxc77f2f37dd0e928316008405da40ca9d'
p184
sg10
S'xxc7b2fece2e10c769b8b065ad8e0d18a7'
p185
sg12
S'xxc8b20d403e3697b80acbae6eba7cd198'
p186
sg14
S'Mozilla/5.0 (Linux; Android 5.1; MX5 Build/LMY47I) AppleWebKit/537.36 (KHTML, like Gecko) Version/4.0 Chrome/37.0.0.0 Mobile MQQBrowser/6.8 TBS/036849 Safari/537.36 MicroMessenger/6.3.27.880 NetType/WIFI Language/zh_CN'
p187
sg16
S'0d63fb649fb38b87ec3ff9c3edd37d37'
p188
sa(dp189
g2
S'17096'
p190
sg4
S'6888'
p191
sg6
S'ace4d695af69806e8929e12f16f2dbeb'
p192
sg8
S'xx2acad2db6b2f443aa5d593cdc420b57b'
p193
sg10
S'xxc7b2fece2e10c769b8b065ad8e0d18a7'
p194
sg12
S'xxc8b20d403e3697b80acbae6eba7cd198'
p195
sg14
S'Mozilla/5.0 (Linux; Android 5.1; MX5 Build/LMY47I) AppleWebKit/537.36 (KHTML, like Gecko) Version/4.0 Chrome/37.0.0.0 Mobile MQQBrowser/6.8 TBS/036849 Safari/537.36 MicroMessenger/6.3.27.880 NetType/3gnet Language/zh_CN'
p196
sg16
S'9f8011262a6948dcfeca89d94b2095bf'
p197
sa(dp198
g2
S'17096'
p199
sg4
S'6903'
p200
sg6
S'ace4d695af69806e8929e12f16f2dbeb'
p201
sg8
S'xx2acad2db6b2f443aa5d593cdc420b57b'
p202
sg10
S'xxc7b2fece2e10c769b8b065ad8e0d18a7'
p203
sg12
S'xxc8b20d403e3697b80acbae6eba7cd198'
p204
sg14
S'Mozilla/5.0 (Linux; Android 5.1; MX5 Build/LMY47I) AppleWebKit/537.36 (KHTML, like Gecko) Version/4.0 Chrome/37.0.0.0 Mobile MQQBrowser/6.8 TBS/036849 Safari/537.36 MicroMessenger/6.3.27.880 NetType/3gnet Language/zh_CN'
p205
sg16
S'9f8011262a6948dcfeca89d94b2095bf'
p206
sa(dp207
g2
S'38131'
p208
sg4
S'7286'
p209
sg6
S'18de35e6e256f43dd7a9885b3484a2e4'
p210
sg8
S'xx921f9df73681429cd0ff022183015768'
p211
sg10
S'xxc7b2fece2e10c769b8b065ad8e0d18a7'
p212
sg12
S'xxc8b20d403e3697b80acbae6eba7cd198'
p213
sg14
S'Mozilla/5.0 (Linux; Android 5.1; MX5 Build/LMY47I) AppleWebKit/537.36 (KHTML, like Gecko) Version/4.0 Chrome/37.0.0.0 Mobile MQQBrowser/6.8 TBS/036869 Safari/537.36 MicroMessenger/6.3.27.880 NetType/cmnet Language/zh_CN'
p214
sg16
S'ccba6ac67441f849bb792ae82e5d834b'
p215
sa(dp216
g2
S'38131'
p217
sg4
S'7303'
p218
sg6
S'18de35e6e256f43dd7a9885b3484a2e4'
p219
sg8
S'xx921f9df73681429cd0ff022183015768'
p220
sg10
S'xxc7b2fece2e10c769b8b065ad8e0d18a7'
p221
sg12
S'xxc8b20d403e3697b80acbae6eba7cd198'
p222
sg14
S'Mozilla/5.0 (Linux; Android 5.1; MX5 Build/LMY47I) AppleWebKit/537.36 (KHTML, like Gecko) Version/4.0 Chrome/37.0.0.0 Mobile MQQBrowser/6.8 TBS/036869 Safari/537.36 MicroMessenger/6.3.27.880 NetType/cmnet Language/zh_CN'
p223
sg16
S'ccba6ac67441f849bb792ae82e5d834b'
p224
sa.