(lp0
(dp1
S'user_id'
p2
S'34682'
p3
sS'data_id'
p4
S'4314'
p5
sS'ip'
p6
S'0d8e220763bf5a76d8f523f67895bde3'
p7
sS'phone_B'
p8
S'xx648254a887538b3adab37c4e73b07362'
p9
sS'phone_C'
p10
S'xxa0a897545828b819c57b43fd483e4c66'
p11
sS'phone_A'
p12
S'xxc8ce2bd0fc80b28939bc303682a3eac6'
p13
sS'user_agent'
p14
S'Mozilla/5.0 (Linux; Android 5.1; HUAWEI TAG-AL00 Build/HUAWEITAG-AL00) AppleWebKit/537.36 (KHTML, like Gecko) Version/4.0 Chrome/37.0.0.0 Mobile MQQBrowser/6.8 TBS/036849 Safari/537.36 MicroMessenger/6.3.27.880 NetType/WIFI Language/zh_CN'
p15
sS'ua'
p16
S'a4833ad278c866eec950cb943ab955c8'
p17
sa(dp18
g2
S'34682'
p19
sg4
S'4330'
p20
sg6
S'0d8e220763bf5a76d8f523f67895bde3'
p21
sg8
S'xx648254a887538b3adab37c4e73b07362'
p22
sg10
S'xxa0a897545828b819c57b43fd483e4c66'
p23
sg12
S'xxc8ce2bd0fc80b28939bc303682a3eac6'
p24
sg14
S'Mozilla/5.0 (Linux; Android 5.1; HUAWEI TAG-AL00 Build/HUAWEITAG-AL00) AppleWebKit/537.36 (KHTML, like Gecko) Version/4.0 Chrome/37.0.0.0 Mobile MQQBrowser/6.8 TBS/036849 Safari/537.36 MicroMessenger/6.3.27.880 NetType/WIFI Language/zh_CN'
p25
sg16
S'a4833ad278c866eec950cb943ab955c8'
p26
sa(dp27
g2
S'36724'
p28
sg4
S'6641'
p29
sg6
S'175b45cc5a9b735c4cdb9e07c003b981'
p30
sg8
S'xx648254a887538b3adab37c4e73b07362'
p31
sg10
S'xxa0a897545828b819c57b43fd483e4c66'
p32
sg12
S'xxc8ce2bd0fc80b28939bc303682a3eac6'
p33
sg14
S'Mozilla/5.0 (Linux; Android 5.1; HUAWEI TAG-AL00 Build/HUAWEITAG-AL00) AppleWebKit/537.36 (KHTML, like Gecko) Version/4.0 Chrome/37.0.0.0 Mobile MQQBrowser/6.8 TBS/036849 Safari/537.36 MicroMessenger/6.3.27.880 NetType/WIFI Language/zh_CN'
p34
sg16
S'a4833ad278c866eec950cb943ab955c8'
p35
sa(dp36
g2
S'36724'
p37
sg4
S'6658'
p38
sg6
S'175b45cc5a9b735c4cdb9e07c003b981'
p39
sg8
S'xx648254a887538b3adab37c4e73b07362'
p40
sg10
S'xxa0a897545828b819c57b43fd483e4c66'
p41
sg12
S'xxc8ce2bd0fc80b28939bc303682a3eac6'
p42
sg14
S'Mozilla/5.0 (Linux; Android 5.1; HUAWEI TAG-AL00 Build/HUAWEITAG-AL00) AppleWebKit/537.36 (KHTML, like Gecko) Version/4.0 Chrome/37.0.0.0 Mobile MQQBrowser/6.8 TBS/036849 Safari/537.36 MicroMessenger/6.3.27.880 NetType/WIFI Language/zh_CN'
p43
sg16
S'a4833ad278c866eec950cb943ab955c8'
p44
sa(dp45
g2
S'36724'
p46
sg4
S'6680'
p47
sg6
S'175b45cc5a9b735c4cdb9e07c003b981'
p48
sg8
S'xx648254a887538b3adab37c4e73b07362'
p49
sg10
S'xxa0a897545828b819c57b43fd483e4c66'
p50
sg12
S'xxc8ce2bd0fc80b28939bc303682a3eac6'
p51
sg14
S'Mozilla/5.0 (Linux; Android 5.1; HUAWEI TAG-AL00 Build/HUAWEITAG-AL00) AppleWebKit/537.36 (KHTML, like Gecko) Version/4.0 Chrome/37.0.0.0 Mobile MQQBrowser/6.8 TBS/036849 Safari/537.36 MicroMessenger/6.3.27.880 NetType/WIFI Language/zh_CN'
p52
sg16
S'a4833ad278c866eec950cb943ab955c8'
p53
sa(dp54
g2
S'30577'
p55
sg4
S'7599'
p56
sg6
S'f7569616c9cabfcda10b9a4d51694372'
p57
sg8
S'xx648254a887538b3adab37c4e73b07362'
p58
sg10
S'xxa0a897545828b819c57b43fd483e4c66'
p59
sg12
S'xxc8ce2bd0fc80b28939bc303682a3eac6'
p60
sg14
S'Mozilla/5.0 (Linux; Android 5.1; HUAWEI TAG-AL00 Build/HUAWEITAG-AL00) AppleWebKit/537.36 (KHTML, like Gecko) Version/4.0 Chrome/37.0.0.0 Mobile MQQBrowser/6.8 TBS/036849 Safari/537.36 MicroMessenger/6.3.27.880 NetType/WIFI Language/zh_CN'
p61
sg16
S'a4833ad278c866eec950cb943ab955c8'
p62
sa(dp63
g2
S'30577'
p64
sg4
S'7606'
p65
sg6
S'f7569616c9cabfcda10b9a4d51694372'
p66
sg8
S'xx648254a887538b3adab37c4e73b07362'
p67
sg10
S'xxa0a897545828b819c57b43fd483e4c66'
p68
sg12
S'xxc8ce2bd0fc80b28939bc303682a3eac6'
p69
sg14
S'Mozilla/5.0 (Linux; Android 5.1; HUAWEI TAG-AL00 Build/HUAWEITAG-AL00) AppleWebKit/537.36 (KHTML, like Gecko) Version/4.0 Chrome/37.0.0.0 Mobile MQQBrowser/6.8 TBS/036849 Safari/537.36 MicroMessenger/6.3.27.880 NetType/WIFI Language/zh_CN'
p70
sg16
S'a4833ad278c866eec950cb943ab955c8'
p71
sa(dp72
g2
S'49848'
p73
sg4
S'8180'
p74
sg6
S'66fbc862137fa3dcc4bec3cc12249d1e'
p75
sg8
S'xx343f36f715984a740617898ff3769e23'
p76
sg10
S'xxa0a897545828b819c57b43fd483e4c66'
p77
sg12
S'xxc8ce2bd0fc80b28939bc303682a3eac6'
p78
sg14
S'Mozilla/5.0 (Linux; Android 5.1; HUAWEI TAG-AL00 Build/HUAWEITAG-AL00) AppleWebKit/537.36 (KHTML, like Gecko) Version/4.0 Chrome/37.0.0.0 Mobile MQQBrowser/6.8 TBS/036865 Safari/537.36 MicroMessenger/6.3.27.880 NetType/3gnet Language/zh_CN'
p79
sg16
S'c617ff79a5e75a20894783a804386321'
p80
sa(dp81
g2
S'49848'
p82
sg4
S'8193'
p83
sg6
S'66fbc862137fa3dcc4bec3cc12249d1e'
p84
sg8
S'xx343f36f715984a740617898ff3769e23'
p85
sg10
S'xxa0a897545828b819c57b43fd483e4c66'
p86
sg12
S'xxc8ce2bd0fc80b28939bc303682a3eac6'
p87
sg14
S'Mozilla/5.0 (Linux; Android 5.1; HUAWEI TAG-AL00 Build/HUAWEITAG-AL00) AppleWebKit/537.36 (KHTML, like Gecko) Version/4.0 Chrome/37.0.0.0 Mobile MQQBrowser/6.8 TBS/036865 Safari/537.36 MicroMessenger/6.3.27.880 NetType/3gnet Language/zh_CN'
p88
sg16
S'c617ff79a5e75a20894783a804386321'
p89
sa(dp90
g2
S'49848'
p91
sg4
S'8207'
p92
sg6
S'66fbc862137fa3dcc4bec3cc12249d1e'
p93
sg8
S'xx343f36f715984a740617898ff3769e23'
p94
sg10
S'xxa0a897545828b819c57b43fd483e4c66'
p95
sg12
S'xxc8ce2bd0fc80b28939bc303682a3eac6'
p96
sg14
S'Mozilla/5.0 (Linux; Android 5.1; HUAWEI TAG-AL00 Build/HUAWEITAG-AL00) AppleWebKit/537.36 (KHTML, like Gecko) Version/4.0 Chrome/37.0.0.0 Mobile MQQBrowser/6.8 TBS/036865 Safari/537.36 MicroMessenger/6.3.27.880 NetType/3gnet Language/zh_CN'
p97
sg16
S'c617ff79a5e75a20894783a804386321'
p98
sa(dp99
g2
S'30500'
p100
sg4
S'8430'
p101
sg6
S'900e82ca21d8374e94d56fba96771783'
p102
sg8
S'xx4e931c809e94407d85dede1351b3c5d9'
p103
sg10
S'xxa0a897545828b819c57b43fd483e4c66'
p104
sg12
S'xxc8ce2bd0fc80b28939bc303682a3eac6'
p105
sg14
S'Mozilla/5.0 (Linux; Android 5.1; HUAWEI TAG-AL00 Build/HUAWEITAG-AL00) AppleWebKit/537.36 (KHTML, like Gecko) Version/4.0 Chrome/37.0.0.0 Mobile MQQBrowser/6.8 TBS/036849 Safari/537.36 MicroMessenger/6.3.27.880 NetType/3gnet Language/zh_CN'
p106
sg16
S'6b200b56a718de2e692ae613552336af'
p107
sa(dp108
g2
S'30500'
p109
sg4
S'8441'
p110
sg6
S'900e82ca21d8374e94d56fba96771783'
p111
sg8
S'xx4e931c809e94407d85dede1351b3c5d9'
p112
sg10
S'xxa0a897545828b819c57b43fd483e4c66'
p113
sg12
S'xxc8ce2bd0fc80b28939bc303682a3eac6'
p114
sg14
S'Mozilla/5.0 (Linux; Android 5.1; HUAWEI TAG-AL00 Build/HUAWEITAG-AL00) AppleWebKit/537.36 (KHTML, like Gecko) Version/4.0 Chrome/37.0.0.0 Mobile MQQBrowser/6.8 TBS/036849 Safari/537.36 MicroMessenger/6.3.27.880 NetType/3gnet Language/zh_CN'
p115
sg16
S'6b200b56a718de2e692ae613552336af'
p116
sa(dp117
g2
S'48456'
p118
sg4
S'8568'
p119
sg6
S'dc84fa7c4b6fff77af54a8168e29b84d'
p120
sg8
S'xx648254a887538b3adab37c4e73b07362'
p121
sg10
S'xxa0a897545828b819c57b43fd483e4c66'
p122
sg12
S'xxc8ce2bd0fc80b28939bc303682a3eac6'
p123
sg14
S'Mozilla/5.0 (Linux; Android 5.1; HUAWEI TAG-AL00 Build/HUAWEITAG-AL00) AppleWebKit/537.36 (KHTML, like Gecko) Version/4.0 Chrome/37.0.0.0 Mobile MQQBrowser/6.8 TBS/036849 Safari/537.36 MicroMessenger/6.3.27.880 NetType/WIFI Language/zh_CN'
p124
sg16
S'a4833ad278c866eec950cb943ab955c8'
p125
sa(dp126
g2
S'48456'
p127
sg4
S'8584'
p128
sg6
S'dc84fa7c4b6fff77af54a8168e29b84d'
p129
sg8
S'xx648254a887538b3adab37c4e73b07362'
p130
sg10
S'xxa0a897545828b819c57b43fd483e4c66'
p131
sg12
S'xxc8ce2bd0fc80b28939bc303682a3eac6'
p132
sg14
S'Mozilla/5.0 (Linux; Android 5.1; HUAWEI TAG-AL00 Build/HUAWEITAG-AL00) AppleWebKit/537.36 (KHTML, like Gecko) Version/4.0 Chrome/37.0.0.0 Mobile MQQBrowser/6.8 TBS/036849 Safari/537.36 MicroMessenger/6.3.27.880 NetType/WIFI Language/zh_CN'
p133
sg16
S'a4833ad278c866eec950cb943ab955c8'
p134
sa.