(lp0
(dp1
S'user_id'
p2
S'49822'
p3
sS'data_id'
p4
S'6878'
p5
sS'ip'
p6
S'beec388610dcd676528d676aee1d4273'
p7
sS'phone_B'
p8
S'xx4b80a56899fd9fef658e07b5e3bc3e2d'
p9
sS'phone_C'
p10
S'xx71964f2e0a73f45abbe4bb280e6438b3'
p11
sS'phone_A'
p12
S'xxca1294d9ba19e127cf88d05fad9594a8'
p13
sS'user_agent'
p14
S'Mozilla/5.0 (Linux; Android 4.3; SM-G7108 Build/JLS36C) AppleWebKit/537.36 (KHTML, like Gecko) Version/4.0 Chrome/37.0.0.0 Mobile MQQBrowser/6.8 TBS/036869 Safari/537.36 MicroMessenger/6.3.27.880 NetType/cmnet Language/zh_CN'
p15
sS'ua'
p16
S'0fb23ad02a3a4159b032ee199cd450f1'
p17
sa(dp18
g2
S'49822'
p19
sg4
S'6893'
p20
sg6
S'beec388610dcd676528d676aee1d4273'
p21
sg8
S'xx4b80a56899fd9fef658e07b5e3bc3e2d'
p22
sg10
S'xx71964f2e0a73f45abbe4bb280e6438b3'
p23
sg12
S'xxca1294d9ba19e127cf88d05fad9594a8'
p24
sg14
S'Mozilla/5.0 (Linux; Android 4.3; SM-G7108 Build/JLS36C) AppleWebKit/537.36 (KHTML, like Gecko) Version/4.0 Chrome/37.0.0.0 Mobile MQQBrowser/6.8 TBS/036869 Safari/537.36 MicroMessenger/6.3.27.880 NetType/cmnet Language/zh_CN'
p25
sg16
S'0fb23ad02a3a4159b032ee199cd450f1'
p26
sa(dp27
g2
S'49822'
p28
sg4
S'6912'
p29
sg6
S'beec388610dcd676528d676aee1d4273'
p30
sg8
S'xx4b80a56899fd9fef658e07b5e3bc3e2d'
p31
sg10
S'xx71964f2e0a73f45abbe4bb280e6438b3'
p32
sg12
S'xxca1294d9ba19e127cf88d05fad9594a8'
p33
sg14
S'Mozilla/5.0 (Linux; Android 4.3; SM-G7108 Build/JLS36C) AppleWebKit/537.36 (KHTML, like Gecko) Version/4.0 Chrome/37.0.0.0 Mobile MQQBrowser/6.8 TBS/036869 Safari/537.36 MicroMessenger/6.3.27.880 NetType/cmnet Language/zh_CN'
p34
sg16
S'0fb23ad02a3a4159b032ee199cd450f1'
p35
sa(dp36
g2
S'49822'
p37
sg4
S'6931'
p38
sg6
S'beec388610dcd676528d676aee1d4273'
p39
sg8
S'xx4b80a56899fd9fef658e07b5e3bc3e2d'
p40
sg10
S'xx71964f2e0a73f45abbe4bb280e6438b3'
p41
sg12
S'xxca1294d9ba19e127cf88d05fad9594a8'
p42
sg14
S'Mozilla/5.0 (Linux; Android 4.3; SM-G7108 Build/JLS36C) AppleWebKit/537.36 (KHTML, like Gecko) Version/4.0 Chrome/37.0.0.0 Mobile MQQBrowser/6.8 TBS/036869 Safari/537.36 MicroMessenger/6.3.27.880 NetType/cmnet Language/zh_CN'
p43
sg16
S'0fb23ad02a3a4159b032ee199cd450f1'
p44
sa(dp45
g2
S'49822'
p46
sg4
S'6948'
p47
sg6
S'beec388610dcd676528d676aee1d4273'
p48
sg8
S'xx4b80a56899fd9fef658e07b5e3bc3e2d'
p49
sg10
S'xx71964f2e0a73f45abbe4bb280e6438b3'
p50
sg12
S'xxca1294d9ba19e127cf88d05fad9594a8'
p51
sg14
S'Mozilla/5.0 (Linux; Android 4.3; SM-G7108 Build/JLS36C) AppleWebKit/537.36 (KHTML, like Gecko) Version/4.0 Chrome/37.0.0.0 Mobile MQQBrowser/6.8 TBS/036869 Safari/537.36 MicroMessenger/6.3.27.880 NetType/cmnet Language/zh_CN'
p52
sg16
S'0fb23ad02a3a4159b032ee199cd450f1'
p53
sa.