(lp0
(dp1
S'user_id'
p2
S'28880'
p3
sS'data_id'
p4
S'166'
p5
sS'ip'
p6
S'e5a62a752734972906b64d8f512efe92'
p7
sS'phone_B'
p8
S'xxacd4c6ddbffb9d9fec614a7f4d9f1c88'
p9
sS'phone_C'
p10
S'xx21ef2add7f5cbd50376b35ff47e55e00'
p11
sS'phone_A'
p12
S'xxca1881a1d6a808df021a7397932a0668'
p13
sS'user_agent'
p14
S'Mozilla/5.0 (Linux; Android 5.1.1; vivo Y31A Build/LMY47V) AppleWebKit/537.36 (KHTML, like Gecko) Version/4.0 Chrome/37.0.0.0 Mobile MQQBrowser/6.8 TBS/036849 Safari/537.36 MicroMessenger/6.3.27.880 NetType/3gnet Language/zh_CN'
p15
sS'ua'
p16
S'33a2b6235fde809bee18d2c883c3b9e4'
p17
sa(dp18
g2
S'28880'
p19
sg4
S'181'
p20
sg6
S'e5a62a752734972906b64d8f512efe92'
p21
sg8
S'xxacd4c6ddbffb9d9fec614a7f4d9f1c88'
p22
sg10
S'xx21ef2add7f5cbd50376b35ff47e55e00'
p23
sg12
S'xxca1881a1d6a808df021a7397932a0668'
p24
sg14
S'Mozilla/5.0 (Linux; Android 5.1.1; vivo Y31A Build/LMY47V) AppleWebKit/537.36 (KHTML, like Gecko) Version/4.0 Chrome/37.0.0.0 Mobile MQQBrowser/6.8 TBS/036849 Safari/537.36 MicroMessenger/6.3.27.880 NetType/3gnet Language/zh_CN'
p25
sg16
S'33a2b6235fde809bee18d2c883c3b9e4'
p26
sa(dp27
g2
S'28880'
p28
sg4
S'197'
p29
sg6
S'e5a62a752734972906b64d8f512efe92'
p30
sg8
S'xxacd4c6ddbffb9d9fec614a7f4d9f1c88'
p31
sg10
S'xx21ef2add7f5cbd50376b35ff47e55e00'
p32
sg12
S'xxca1881a1d6a808df021a7397932a0668'
p33
sg14
S'Mozilla/5.0 (Linux; Android 5.1.1; vivo Y31A Build/LMY47V) AppleWebKit/537.36 (KHTML, like Gecko) Version/4.0 Chrome/37.0.0.0 Mobile MQQBrowser/6.8 TBS/036849 Safari/537.36 MicroMessenger/6.3.27.880 NetType/3gnet Language/zh_CN'
p34
sg16
S'33a2b6235fde809bee18d2c883c3b9e4'
p35
sa(dp36
g2
S'28880'
p37
sg4
S'210'
p38
sg6
S'e5a62a752734972906b64d8f512efe92'
p39
sg8
S'xxacd4c6ddbffb9d9fec614a7f4d9f1c88'
p40
sg10
S'xx21ef2add7f5cbd50376b35ff47e55e00'
p41
sg12
S'xxca1881a1d6a808df021a7397932a0668'
p42
sg14
S'Mozilla/5.0 (Linux; Android 5.1.1; vivo Y31A Build/LMY47V) AppleWebKit/537.36 (KHTML, like Gecko) Version/4.0 Chrome/37.0.0.0 Mobile MQQBrowser/6.8 TBS/036849 Safari/537.36 MicroMessenger/6.3.27.880 NetType/3gnet Language/zh_CN'
p43
sg16
S'33a2b6235fde809bee18d2c883c3b9e4'
p44
sa(dp45
g2
S'28880'
p46
sg4
S'235'
p47
sg6
S'e5a62a752734972906b64d8f512efe92'
p48
sg8
S'xxacd4c6ddbffb9d9fec614a7f4d9f1c88'
p49
sg10
S'xx21ef2add7f5cbd50376b35ff47e55e00'
p50
sg12
S'xxca1881a1d6a808df021a7397932a0668'
p51
sg14
S'Mozilla/5.0 (Linux; Android 5.1.1; vivo Y31A Build/LMY47V) AppleWebKit/537.36 (KHTML, like Gecko) Version/4.0 Chrome/37.0.0.0 Mobile MQQBrowser/6.8 TBS/036849 Safari/537.36 MicroMessenger/6.3.27.880 NetType/3gnet Language/zh_CN'
p52
sg16
S'33a2b6235fde809bee18d2c883c3b9e4'
p53
sa(dp54
g2
S'28880'
p55
sg4
S'245'
p56
sg6
S'e5a62a752734972906b64d8f512efe92'
p57
sg8
S'xxacd4c6ddbffb9d9fec614a7f4d9f1c88'
p58
sg10
S'xx21ef2add7f5cbd50376b35ff47e55e00'
p59
sg12
S'xxca1881a1d6a808df021a7397932a0668'
p60
sg14
S'Mozilla/5.0 (Linux; Android 5.1.1; vivo Y31A Build/LMY47V) AppleWebKit/537.36 (KHTML, like Gecko) Version/4.0 Chrome/37.0.0.0 Mobile MQQBrowser/6.8 TBS/036849 Safari/537.36 MicroMessenger/6.3.27.880 NetType/3gnet Language/zh_CN'
p61
sg16
S'33a2b6235fde809bee18d2c883c3b9e4'
p62
sa(dp63
g2
S'28880'
p64
sg4
S'254'
p65
sg6
S'e5a62a752734972906b64d8f512efe92'
p66
sg8
S'xxacd4c6ddbffb9d9fec614a7f4d9f1c88'
p67
sg10
S'xx21ef2add7f5cbd50376b35ff47e55e00'
p68
sg12
S'xxca1881a1d6a808df021a7397932a0668'
p69
sg14
S'Mozilla/5.0 (Linux; Android 5.1.1; vivo Y31A Build/LMY47V) AppleWebKit/537.36 (KHTML, like Gecko) Version/4.0 Chrome/37.0.0.0 Mobile MQQBrowser/6.8 TBS/036849 Safari/537.36 MicroMessenger/6.3.27.880 NetType/3gnet Language/zh_CN'
p70
sg16
S'33a2b6235fde809bee18d2c883c3b9e4'
p71
sa(dp72
g2
S'28880'
p73
sg4
S'617'
p74
sg6
S'e5a62a752734972906b64d8f512efe92'
p75
sg8
S'xxacd4c6ddbffb9d9fec614a7f4d9f1c88'
p76
sg10
S'xx21ef2add7f5cbd50376b35ff47e55e00'
p77
sg12
S'xxca1881a1d6a808df021a7397932a0668'
p78
sg14
S'Mozilla/5.0 (Linux; Android 5.1.1; vivo Y31A Build/LMY47V) AppleWebKit/537.36 (KHTML, like Gecko) Version/4.0 Chrome/37.0.0.0 Mobile MQQBrowser/6.8 TBS/036849 Safari/537.36 MicroMessenger/6.3.27.880 NetType/3gnet Language/zh_CN'
p79
sg16
S'33a2b6235fde809bee18d2c883c3b9e4'
p80
sa(dp81
g2
S'28880'
p82
sg4
S'634'
p83
sg6
S'e5a62a752734972906b64d8f512efe92'
p84
sg8
S'xxacd4c6ddbffb9d9fec614a7f4d9f1c88'
p85
sg10
S'xx21ef2add7f5cbd50376b35ff47e55e00'
p86
sg12
S'xxca1881a1d6a808df021a7397932a0668'
p87
sg14
S'Mozilla/5.0 (Linux; Android 5.1.1; vivo Y31A Build/LMY47V) AppleWebKit/537.36 (KHTML, like Gecko) Version/4.0 Chrome/37.0.0.0 Mobile MQQBrowser/6.8 TBS/036849 Safari/537.36 MicroMessenger/6.3.27.880 NetType/3gnet Language/zh_CN'
p88
sg16
S'33a2b6235fde809bee18d2c883c3b9e4'
p89
sa(dp90
g2
S'28880'
p91
sg4
S'672'
p92
sg6
S'e5a62a752734972906b64d8f512efe92'
p93
sg8
S'xxacd4c6ddbffb9d9fec614a7f4d9f1c88'
p94
sg10
S'xx21ef2add7f5cbd50376b35ff47e55e00'
p95
sg12
S'xxca1881a1d6a808df021a7397932a0668'
p96
sg14
S'Mozilla/5.0 (Linux; Android 5.1.1; vivo Y31A Build/LMY47V) AppleWebKit/537.36 (KHTML, like Gecko) Version/4.0 Chrome/37.0.0.0 Mobile MQQBrowser/6.8 TBS/036849 Safari/537.36 MicroMessenger/6.3.27.880 NetType/3gnet Language/zh_CN'
p97
sg16
S'33a2b6235fde809bee18d2c883c3b9e4'
p98
sa(dp99
g2
S'28880'
p100
sg4
S'995'
p101
sg6
S'e5a62a752734972906b64d8f512efe92'
p102
sg8
S'xxacd4c6ddbffb9d9fec614a7f4d9f1c88'
p103
sg10
S'xx21ef2add7f5cbd50376b35ff47e55e00'
p104
sg12
S'xxca1881a1d6a808df021a7397932a0668'
p105
sg14
S'Mozilla/5.0 (Linux; Android 5.1.1; vivo Y31A Build/LMY47V) AppleWebKit/537.36 (KHTML, like Gecko) Version/4.0 Chrome/37.0.0.0 Mobile MQQBrowser/6.8 TBS/036849 Safari/537.36 MicroMessenger/6.3.27.880 NetType/3gnet Language/zh_CN'
p106
sg16
S'33a2b6235fde809bee18d2c883c3b9e4'
p107
sa(dp108
g2
S'28880'
p109
sg4
S'1076'
p110
sg6
S'e5a62a752734972906b64d8f512efe92'
p111
sg8
S'xxacd4c6ddbffb9d9fec614a7f4d9f1c88'
p112
sg10
S'xx21ef2add7f5cbd50376b35ff47e55e00'
p113
sg12
S'xxca1881a1d6a808df021a7397932a0668'
p114
sg14
S'Mozilla/5.0 (Linux; Android 5.1.1; vivo Y31A Build/LMY47V) AppleWebKit/537.36 (KHTML, like Gecko) Version/4.0 Chrome/37.0.0.0 Mobile MQQBrowser/6.8 TBS/036849 Safari/537.36 MicroMessenger/6.3.27.880 NetType/3gnet Language/zh_CN'
p115
sg16
S'33a2b6235fde809bee18d2c883c3b9e4'
p116
sa(dp117
g2
S'28880'
p118
sg4
S'1116'
p119
sg6
S'e5a62a752734972906b64d8f512efe92'
p120
sg8
S'xxacd4c6ddbffb9d9fec614a7f4d9f1c88'
p121
sg10
S'xx21ef2add7f5cbd50376b35ff47e55e00'
p122
sg12
S'xxca1881a1d6a808df021a7397932a0668'
p123
sg14
S'Mozilla/5.0 (Linux; Android 5.1.1; vivo Y31A Build/LMY47V) AppleWebKit/537.36 (KHTML, like Gecko) Version/4.0 Chrome/37.0.0.0 Mobile MQQBrowser/6.8 TBS/036849 Safari/537.36 MicroMessenger/6.3.27.880 NetType/3gnet Language/zh_CN'
p124
sg16
S'33a2b6235fde809bee18d2c883c3b9e4'
p125
sa(dp126
g2
S'28880'
p127
sg4
S'1138'
p128
sg6
S'e5a62a752734972906b64d8f512efe92'
p129
sg8
S'xxacd4c6ddbffb9d9fec614a7f4d9f1c88'
p130
sg10
S'xx21ef2add7f5cbd50376b35ff47e55e00'
p131
sg12
S'xxca1881a1d6a808df021a7397932a0668'
p132
sg14
S'Mozilla/5.0 (Linux; Android 5.1.1; vivo Y31A Build/LMY47V) AppleWebKit/537.36 (KHTML, like Gecko) Version/4.0 Chrome/37.0.0.0 Mobile MQQBrowser/6.8 TBS/036849 Safari/537.36 MicroMessenger/6.3.27.880 NetType/3gnet Language/zh_CN'
p133
sg16
S'33a2b6235fde809bee18d2c883c3b9e4'
p134
sa(dp135
g2
S'28880'
p136
sg4
S'1158'
p137
sg6
S'e5a62a752734972906b64d8f512efe92'
p138
sg8
S'xxacd4c6ddbffb9d9fec614a7f4d9f1c88'
p139
sg10
S'xx21ef2add7f5cbd50376b35ff47e55e00'
p140
sg12
S'xxca1881a1d6a808df021a7397932a0668'
p141
sg14
S'Mozilla/5.0 (Linux; Android 5.1.1; vivo Y31A Build/LMY47V) AppleWebKit/537.36 (KHTML, like Gecko) Version/4.0 Chrome/37.0.0.0 Mobile MQQBrowser/6.8 TBS/036849 Safari/537.36 MicroMessenger/6.3.27.880 NetType/3gnet Language/zh_CN'
p142
sg16
S'33a2b6235fde809bee18d2c883c3b9e4'
p143
sa(dp144
g2
S'28880'
p145
sg4
S'1563'
p146
sg6
S'e5a62a752734972906b64d8f512efe92'
p147
sg8
S'xxacd4c6ddbffb9d9fec614a7f4d9f1c88'
p148
sg10
S'xx21ef2add7f5cbd50376b35ff47e55e00'
p149
sg12
S'xxca1881a1d6a808df021a7397932a0668'
p150
sg14
S'Mozilla/5.0 (Linux; Android 5.1.1; vivo Y31A Build/LMY47V) AppleWebKit/537.36 (KHTML, like Gecko) Version/4.0 Chrome/37.0.0.0 Mobile MQQBrowser/6.8 TBS/036849 Safari/537.36 MicroMessenger/6.3.27.880 NetType/3gnet Language/zh_CN'
p151
sg16
S'33a2b6235fde809bee18d2c883c3b9e4'
p152
sa(dp153
g2
S'28880'
p154
sg4
S'1590'
p155
sg6
S'e5a62a752734972906b64d8f512efe92'
p156
sg8
S'xxacd4c6ddbffb9d9fec614a7f4d9f1c88'
p157
sg10
S'xx21ef2add7f5cbd50376b35ff47e55e00'
p158
sg12
S'xxca1881a1d6a808df021a7397932a0668'
p159
sg14
S'Mozilla/5.0 (Linux; Android 5.1.1; vivo Y31A Build/LMY47V) AppleWebKit/537.36 (KHTML, like Gecko) Version/4.0 Chrome/37.0.0.0 Mobile MQQBrowser/6.8 TBS/036849 Safari/537.36 MicroMessenger/6.3.27.880 NetType/3gnet Language/zh_CN'
p160
sg16
S'33a2b6235fde809bee18d2c883c3b9e4'
p161
sa(dp162
g2
S'28880'
p163
sg4
S'1613'
p164
sg6
S'e5a62a752734972906b64d8f512efe92'
p165
sg8
S'xxacd4c6ddbffb9d9fec614a7f4d9f1c88'
p166
sg10
S'xx21ef2add7f5cbd50376b35ff47e55e00'
p167
sg12
S'xxca1881a1d6a808df021a7397932a0668'
p168
sg14
S'Mozilla/5.0 (Linux; Android 5.1.1; vivo Y31A Build/LMY47V) AppleWebKit/537.36 (KHTML, like Gecko) Version/4.0 Chrome/37.0.0.0 Mobile MQQBrowser/6.8 TBS/036849 Safari/537.36 MicroMessenger/6.3.27.880 NetType/3gnet Language/zh_CN'
p169
sg16
S'33a2b6235fde809bee18d2c883c3b9e4'
p170
sa(dp171
g2
S'28880'
p172
sg4
S'1630'
p173
sg6
S'e5a62a752734972906b64d8f512efe92'
p174
sg8
S'xxacd4c6ddbffb9d9fec614a7f4d9f1c88'
p175
sg10
S'xx21ef2add7f5cbd50376b35ff47e55e00'
p176
sg12
S'xxca1881a1d6a808df021a7397932a0668'
p177
sg14
S'Mozilla/5.0 (Linux; Android 5.1.1; vivo Y31A Build/LMY47V) AppleWebKit/537.36 (KHTML, like Gecko) Version/4.0 Chrome/37.0.0.0 Mobile MQQBrowser/6.8 TBS/036849 Safari/537.36 MicroMessenger/6.3.27.880 NetType/3gnet Language/zh_CN'
p178
sg16
S'33a2b6235fde809bee18d2c883c3b9e4'
p179
sa(dp180
g2
S'28880'
p181
sg4
S'1643'
p182
sg6
S'e5a62a752734972906b64d8f512efe92'
p183
sg8
S'xxacd4c6ddbffb9d9fec614a7f4d9f1c88'
p184
sg10
S'xx21ef2add7f5cbd50376b35ff47e55e00'
p185
sg12
S'xxca1881a1d6a808df021a7397932a0668'
p186
sg14
S'Mozilla/5.0 (Linux; Android 5.1.1; vivo Y31A Build/LMY47V) AppleWebKit/537.36 (KHTML, like Gecko) Version/4.0 Chrome/37.0.0.0 Mobile MQQBrowser/6.8 TBS/036849 Safari/537.36 MicroMessenger/6.3.27.880 NetType/3gnet Language/zh_CN'
p187
sg16
S'33a2b6235fde809bee18d2c883c3b9e4'
p188
sa(dp189
g2
S'28880'
p190
sg4
S'1657'
p191
sg6
S'e5a62a752734972906b64d8f512efe92'
p192
sg8
S'xxacd4c6ddbffb9d9fec614a7f4d9f1c88'
p193
sg10
S'xx21ef2add7f5cbd50376b35ff47e55e00'
p194
sg12
S'xxca1881a1d6a808df021a7397932a0668'
p195
sg14
S'Mozilla/5.0 (Linux; Android 5.1.1; vivo Y31A Build/LMY47V) AppleWebKit/537.36 (KHTML, like Gecko) Version/4.0 Chrome/37.0.0.0 Mobile MQQBrowser/6.8 TBS/036849 Safari/537.36 MicroMessenger/6.3.27.880 NetType/3gnet Language/zh_CN'
p196
sg16
S'33a2b6235fde809bee18d2c883c3b9e4'
p197
sa.