(lp0
(dp1
S'user_id'
p2
S'49206'
p3
sS'data_id'
p4
S'5683'
p5
sS'ip'
p6
S'008f05ac96bad95da1f6d2e57dda5583'
p7
sS'phone_B'
p8
S'xx1621511e87ed43d789c75728b3610471'
p9
sS'phone_C'
p10
S'xx5ba6e83ab19ca3a94d39ebfc36eb8d6b'
p11
sS'phone_A'
p12
S'xxcb15324aa433ba1a66440e349b54fe08'
p13
sS'user_agent'
p14
S'Mozilla/5.0 (Linux; Android 4.4.4; 2014812 Build/KTU84P) AppleWebKit/537.36 (KHTML, like Gecko) Version/4.0 Chrome/37.0.0.0 Mobile MQQBrowser/6.8 TBS/036849 Safari/537.36 MicroMessenger/6.3.27.880 NetType/WIFI Language/zh_CN'
p15
sS'ua'
p16
S'b3c16a3ca4434543ddb8cb8c5d9503e9'
p17
sa(dp18
g2
S'49206'
p19
sg4
S'5699'
p20
sg6
S'008f05ac96bad95da1f6d2e57dda5583'
p21
sg8
S'xx1621511e87ed43d789c75728b3610471'
p22
sg10
S'xx5ba6e83ab19ca3a94d39ebfc36eb8d6b'
p23
sg12
S'xxcb15324aa433ba1a66440e349b54fe08'
p24
sg14
S'Mozilla/5.0 (Linux; Android 4.4.4; 2014812 Build/KTU84P) AppleWebKit/537.36 (KHTML, like Gecko) Version/4.0 Chrome/37.0.0.0 Mobile MQQBrowser/6.8 TBS/036849 Safari/537.36 MicroMessenger/6.3.27.880 NetType/WIFI Language/zh_CN'
p25
sg16
S'b3c16a3ca4434543ddb8cb8c5d9503e9'
p26
sa.