(lp0
(dp1
S'user_id'
p2
S'43097'
p3
sS'data_id'
p4
S'5667'
p5
sS'ip'
p6
S'c4d94e07ee63fb7f0f0213c510252947'
p7
sS'phone_B'
p8
S'xx21e504065d49e8714f72bc6a1fa6b184'
p9
sS'phone_C'
p10
S'xxff160a34fc58fd114c5e55c3e6dde882'
p11
sS'phone_A'
p12
S'xxcbac6e7c32c293b0c789e6a1f018bd75'
p13
sS'user_agent'
p14
S'Mozilla/5.0 (Linux; Android 4.3; GT-I9308 Build/JSS15J) AppleWebKit/537.36 (KHTML, like Gecko) Version/4.0 Chrome/37.0.0.0 Mobile MQQBrowser/6.8 TBS/036869 Safari/537.36 MicroMessenger/6.3.27.880 NetType/cmnet Language/zh_CN'
p15
sS'ua'
p16
S'0dadc640efca5fb14602d07076f13884'
p17
sa(dp18
g2
S'43097'
p19
sg4
S'5693'
p20
sg6
S'c4d94e07ee63fb7f0f0213c510252947'
p21
sg8
S'xx21e504065d49e8714f72bc6a1fa6b184'
p22
sg10
S'xxff160a34fc58fd114c5e55c3e6dde882'
p23
sg12
S'xxcbac6e7c32c293b0c789e6a1f018bd75'
p24
sg14
S'Mozilla/5.0 (Linux; Android 4.3; GT-I9308 Build/JSS15J) AppleWebKit/537.36 (KHTML, like Gecko) Version/4.0 Chrome/37.0.0.0 Mobile MQQBrowser/6.8 TBS/036869 Safari/537.36 MicroMessenger/6.3.27.880 NetType/cmnet Language/zh_CN'
p25
sg16
S'0dadc640efca5fb14602d07076f13884'
p26
sa(dp27
g2
S'43097'
p28
sg4
S'5836'
p29
sg6
S'fca8f5236f19ebce72d5785aa76f8758'
p30
sg8
S'xx31b719017c7303caae1703d30d05af18'
p31
sg10
S'xxff160a34fc58fd114c5e55c3e6dde882'
p32
sg12
S'xxcbac6e7c32c293b0c789e6a1f018bd75'
p33
sg14
S'Mozilla/5.0 (Linux; Android 4.3; GT-I9308 Build/JSS15J) AppleWebKit/537.36 (KHTML, like Gecko) Version/4.0 Chrome/37.0.0.0 Mobile MQQBrowser/6.8 TBS/036869 Safari/537.36 MicroMessenger/6.3.27.880 NetType/WIFI Language/zh_CN'
p34
sg16
S'8aac6e612dc2300aae0a2da5b3cdcf15'
p35
sa(dp36
g2
S'43097'
p37
sg4
S'5849'
p38
sg6
S'fca8f5236f19ebce72d5785aa76f8758'
p39
sg8
S'xx31b719017c7303caae1703d30d05af18'
p40
sg10
S'xxff160a34fc58fd114c5e55c3e6dde882'
p41
sg12
S'xxcbac6e7c32c293b0c789e6a1f018bd75'
p42
sg14
S'Mozilla/5.0 (Linux; Android 4.3; GT-I9308 Build/JSS15J) AppleWebKit/537.36 (KHTML, like Gecko) Version/4.0 Chrome/37.0.0.0 Mobile MQQBrowser/6.8 TBS/036869 Safari/537.36 MicroMessenger/6.3.27.880 NetType/WIFI Language/zh_CN'
p43
sg16
S'8aac6e612dc2300aae0a2da5b3cdcf15'
p44
sa(dp45
g2
S'43097'
p46
sg4
S'6025'
p47
sg6
S'fca8f5236f19ebce72d5785aa76f8758'
p48
sg8
S'xx31b719017c7303caae1703d30d05af18'
p49
sg10
S'xxff160a34fc58fd114c5e55c3e6dde882'
p50
sg12
S'xxcbac6e7c32c293b0c789e6a1f018bd75'
p51
sg14
S'Mozilla/5.0 (Linux; Android 4.3; GT-I9308 Build/JSS15J) AppleWebKit/537.36 (KHTML, like Gecko) Version/4.0 Chrome/37.0.0.0 Mobile MQQBrowser/6.8 TBS/036869 Safari/537.36 MicroMessenger/6.3.27.880 NetType/WIFI Language/zh_CN'
p52
sg16
S'8aac6e612dc2300aae0a2da5b3cdcf15'
p53
sa(dp54
g2
S'43097'
p55
sg4
S'6039'
p56
sg6
S'fca8f5236f19ebce72d5785aa76f8758'
p57
sg8
S'xx31b719017c7303caae1703d30d05af18'
p58
sg10
S'xxff160a34fc58fd114c5e55c3e6dde882'
p59
sg12
S'xxcbac6e7c32c293b0c789e6a1f018bd75'
p60
sg14
S'Mozilla/5.0 (Linux; Android 4.3; GT-I9308 Build/JSS15J) AppleWebKit/537.36 (KHTML, like Gecko) Version/4.0 Chrome/37.0.0.0 Mobile MQQBrowser/6.8 TBS/036869 Safari/537.36 MicroMessenger/6.3.27.880 NetType/WIFI Language/zh_CN'
p61
sg16
S'8aac6e612dc2300aae0a2da5b3cdcf15'
p62
sa.