(lp0
(dp1
S'user_id'
p2
S'21712'
p3
sS'data_id'
p4
S'2839'
p5
sS'ip'
p6
S'cb1f876f264de3e6820a60f9f976cfd5'
p7
sS'phone_B'
p8
S'xx1435c3af4b26f1c714592ce3429ee992'
p9
sS'phone_C'
p10
S'xx01360b0d21a7251257ca464552de09e1'
p11
sS'phone_A'
p12
S'xxcb1b9c75adfea3a37420b3849dedb192'
p13
sS'user_agent'
p14
S'Mozilla/5.0 (Linux; Android 6.0.1; KIW-AL10 Build/HONORKIW-AL10) AppleWebKit/537.36 (KHTML, like Gecko) Version/4.0 Chrome/37.0.0.0 Mobile MQQBrowser/6.8 TBS/036849 Safari/537.36 MicroMessenger/6.3.27.880 NetType/WIFI Language/zh_CN'
p15
sS'ua'
p16
S'fb77222674e7289dd1ed90df9f88e78b'
p17
sa(dp18
g2
S'21712'
p19
sg4
S'2858'
p20
sg6
S'cb1f876f264de3e6820a60f9f976cfd5'
p21
sg8
S'xx1435c3af4b26f1c714592ce3429ee992'
p22
sg10
S'xx01360b0d21a7251257ca464552de09e1'
p23
sg12
S'xxcb1b9c75adfea3a37420b3849dedb192'
p24
sg14
S'Mozilla/5.0 (Linux; Android 6.0.1; KIW-AL10 Build/HONORKIW-AL10) AppleWebKit/537.36 (KHTML, like Gecko) Version/4.0 Chrome/37.0.0.0 Mobile MQQBrowser/6.8 TBS/036849 Safari/537.36 MicroMessenger/6.3.27.880 NetType/WIFI Language/zh_CN'
p25
sg16
S'fb77222674e7289dd1ed90df9f88e78b'
p26
sa(dp27
g2
S'21712'
p28
sg4
S'2875'
p29
sg6
S'cb1f876f264de3e6820a60f9f976cfd5'
p30
sg8
S'xx1435c3af4b26f1c714592ce3429ee992'
p31
sg10
S'xx01360b0d21a7251257ca464552de09e1'
p32
sg12
S'xxcb1b9c75adfea3a37420b3849dedb192'
p33
sg14
S'Mozilla/5.0 (Linux; Android 6.0.1; KIW-AL10 Build/HONORKIW-AL10) AppleWebKit/537.36 (KHTML, like Gecko) Version/4.0 Chrome/37.0.0.0 Mobile MQQBrowser/6.8 TBS/036849 Safari/537.36 MicroMessenger/6.3.27.880 NetType/WIFI Language/zh_CN'
p34
sg16
S'fb77222674e7289dd1ed90df9f88e78b'
p35
sa(dp36
g2
S'21712'
p37
sg4
S'2908'
p38
sg6
S'cb1f876f264de3e6820a60f9f976cfd5'
p39
sg8
S'xx1435c3af4b26f1c714592ce3429ee992'
p40
sg10
S'xx01360b0d21a7251257ca464552de09e1'
p41
sg12
S'xxcb1b9c75adfea3a37420b3849dedb192'
p42
sg14
S'Mozilla/5.0 (Linux; Android 6.0.1; KIW-AL10 Build/HONORKIW-AL10) AppleWebKit/537.36 (KHTML, like Gecko) Version/4.0 Chrome/37.0.0.0 Mobile MQQBrowser/6.8 TBS/036849 Safari/537.36 MicroMessenger/6.3.27.880 NetType/WIFI Language/zh_CN'
p43
sg16
S'fb77222674e7289dd1ed90df9f88e78b'
p44
sa(dp45
g2
S'21712'
p46
sg4
S'2925'
p47
sg6
S'cb1f876f264de3e6820a60f9f976cfd5'
p48
sg8
S'xx1435c3af4b26f1c714592ce3429ee992'
p49
sg10
S'xx01360b0d21a7251257ca464552de09e1'
p50
sg12
S'xxcb1b9c75adfea3a37420b3849dedb192'
p51
sg14
S'Mozilla/5.0 (Linux; Android 6.0.1; KIW-AL10 Build/HONORKIW-AL10) AppleWebKit/537.36 (KHTML, like Gecko) Version/4.0 Chrome/37.0.0.0 Mobile MQQBrowser/6.8 TBS/036849 Safari/537.36 MicroMessenger/6.3.27.880 NetType/WIFI Language/zh_CN'
p52
sg16
S'fb77222674e7289dd1ed90df9f88e78b'
p53
sa(dp54
g2
S'21712'
p55
sg4
S'2941'
p56
sg6
S'cb1f876f264de3e6820a60f9f976cfd5'
p57
sg8
S'xx1435c3af4b26f1c714592ce3429ee992'
p58
sg10
S'xx01360b0d21a7251257ca464552de09e1'
p59
sg12
S'xxcb1b9c75adfea3a37420b3849dedb192'
p60
sg14
S'Mozilla/5.0 (Linux; Android 6.0.1; KIW-AL10 Build/HONORKIW-AL10) AppleWebKit/537.36 (KHTML, like Gecko) Version/4.0 Chrome/37.0.0.0 Mobile MQQBrowser/6.8 TBS/036849 Safari/537.36 MicroMessenger/6.3.27.880 NetType/WIFI Language/zh_CN'
p61
sg16
S'fb77222674e7289dd1ed90df9f88e78b'
p62
sa(dp63
g2
S'26613'
p64
sg4
S'3068'
p65
sg6
S'cb1f876f264de3e6820a60f9f976cfd5'
p66
sg8
S'xx1435c3af4b26f1c714592ce3429ee992'
p67
sg10
S'xx01360b0d21a7251257ca464552de09e1'
p68
sg12
S'xxcb1b9c75adfea3a37420b3849dedb192'
p69
sg14
S'Mozilla/5.0 (Linux; Android 6.0.1; KIW-AL10 Build/HONORKIW-AL10) AppleWebKit/537.36 (KHTML, like Gecko) Version/4.0 Chrome/37.0.0.0 Mobile MQQBrowser/6.8 TBS/036849 Safari/537.36 MicroMessenger/6.3.27.880 NetType/WIFI Language/zh_CN'
p70
sg16
S'fb77222674e7289dd1ed90df9f88e78b'
p71
sa(dp72
g2
S'26613'
p73
sg4
S'3088'
p74
sg6
S'cb1f876f264de3e6820a60f9f976cfd5'
p75
sg8
S'xx1435c3af4b26f1c714592ce3429ee992'
p76
sg10
S'xx01360b0d21a7251257ca464552de09e1'
p77
sg12
S'xxcb1b9c75adfea3a37420b3849dedb192'
p78
sg14
S'Mozilla/5.0 (Linux; Android 6.0.1; KIW-AL10 Build/HONORKIW-AL10) AppleWebKit/537.36 (KHTML, like Gecko) Version/4.0 Chrome/37.0.0.0 Mobile MQQBrowser/6.8 TBS/036849 Safari/537.36 MicroMessenger/6.3.27.880 NetType/WIFI Language/zh_CN'
p79
sg16
S'fb77222674e7289dd1ed90df9f88e78b'
p80
sa(dp81
g2
S'26613'
p82
sg4
S'3101'
p83
sg6
S'cb1f876f264de3e6820a60f9f976cfd5'
p84
sg8
S'xx1435c3af4b26f1c714592ce3429ee992'
p85
sg10
S'xx01360b0d21a7251257ca464552de09e1'
p86
sg12
S'xxcb1b9c75adfea3a37420b3849dedb192'
p87
sg14
S'Mozilla/5.0 (Linux; Android 6.0.1; KIW-AL10 Build/HONORKIW-AL10) AppleWebKit/537.36 (KHTML, like Gecko) Version/4.0 Chrome/37.0.0.0 Mobile MQQBrowser/6.8 TBS/036849 Safari/537.36 MicroMessenger/6.3.27.880 NetType/WIFI Language/zh_CN'
p88
sg16
S'fb77222674e7289dd1ed90df9f88e78b'
p89
sa(dp90
g2
S'26613'
p91
sg4
S'3118'
p92
sg6
S'cb1f876f264de3e6820a60f9f976cfd5'
p93
sg8
S'xx1435c3af4b26f1c714592ce3429ee992'
p94
sg10
S'xx01360b0d21a7251257ca464552de09e1'
p95
sg12
S'xxcb1b9c75adfea3a37420b3849dedb192'
p96
sg14
S'Mozilla/5.0 (Linux; Android 6.0.1; KIW-AL10 Build/HONORKIW-AL10) AppleWebKit/537.36 (KHTML, like Gecko) Version/4.0 Chrome/37.0.0.0 Mobile MQQBrowser/6.8 TBS/036849 Safari/537.36 MicroMessenger/6.3.27.880 NetType/WIFI Language/zh_CN'
p97
sg16
S'fb77222674e7289dd1ed90df9f88e78b'
p98
sa(dp99
g2
S'26613'
p100
sg4
S'3401'
p101
sg6
S'cb1f876f264de3e6820a60f9f976cfd5'
p102
sg8
S'xx1435c3af4b26f1c714592ce3429ee992'
p103
sg10
S'xx01360b0d21a7251257ca464552de09e1'
p104
sg12
S'xxcb1b9c75adfea3a37420b3849dedb192'
p105
sg14
S'Mozilla/5.0 (Linux; Android 6.0.1; KIW-AL10 Build/HONORKIW-AL10) AppleWebKit/537.36 (KHTML, like Gecko) Version/4.0 Chrome/37.0.0.0 Mobile MQQBrowser/6.8 TBS/036849 Safari/537.36 MicroMessenger/6.3.27.880 NetType/WIFI Language/zh_CN'
p106
sg16
S'fb77222674e7289dd1ed90df9f88e78b'
p107
sa(dp108
g2
S'26613'
p109
sg4
S'3536'
p110
sg6
S'cb1f876f264de3e6820a60f9f976cfd5'
p111
sg8
S'xx1435c3af4b26f1c714592ce3429ee992'
p112
sg10
S'xx01360b0d21a7251257ca464552de09e1'
p113
sg12
S'xxcb1b9c75adfea3a37420b3849dedb192'
p114
sg14
S'Mozilla/5.0 (Linux; Android 6.0.1; KIW-AL10 Build/HONORKIW-AL10) AppleWebKit/537.36 (KHTML, like Gecko) Version/4.0 Chrome/37.0.0.0 Mobile MQQBrowser/6.8 TBS/036849 Safari/537.36 MicroMessenger/6.3.27.880 NetType/WIFI Language/zh_CN'
p115
sg16
S'fb77222674e7289dd1ed90df9f88e78b'
p116
sa(dp117
g2
S'26613'
p118
sg4
S'3727'
p119
sg6
S'cb1f876f264de3e6820a60f9f976cfd5'
p120
sg8
S'xx1435c3af4b26f1c714592ce3429ee992'
p121
sg10
S'xx01360b0d21a7251257ca464552de09e1'
p122
sg12
S'xxcb1b9c75adfea3a37420b3849dedb192'
p123
sg14
S'Mozilla/5.0 (Linux; Android 6.0.1; KIW-AL10 Build/HONORKIW-AL10) AppleWebKit/537.36 (KHTML, like Gecko) Version/4.0 Chrome/37.0.0.0 Mobile MQQBrowser/6.8 TBS/036849 Safari/537.36 MicroMessenger/6.3.27.880 NetType/WIFI Language/zh_CN'
p124
sg16
S'fb77222674e7289dd1ed90df9f88e78b'
p125
sa(dp126
g2
S'44453'
p127
sg4
S'4063'
p128
sg6
S'52b3de8191b13dbe0a1b8027f23314c9'
p129
sg8
S'xx1435c3af4b26f1c714592ce3429ee992'
p130
sg10
S'xx01360b0d21a7251257ca464552de09e1'
p131
sg12
S'xxcb1b9c75adfea3a37420b3849dedb192'
p132
sg14
S'Mozilla/5.0 (Linux; Android 6.0.1; KIW-AL10 Build/HONORKIW-AL10) AppleWebKit/537.36 (KHTML, like Gecko) Version/4.0 Chrome/37.0.0.0 Mobile MQQBrowser/6.8 TBS/036849 Safari/537.36 MicroMessenger/6.3.27.880 NetType/WIFI Language/zh_CN'
p133
sg16
S'fb77222674e7289dd1ed90df9f88e78b'
p134
sa(dp135
g2
S'44453'
p136
sg4
S'4093'
p137
sg6
S'52b3de8191b13dbe0a1b8027f23314c9'
p138
sg8
S'xx1435c3af4b26f1c714592ce3429ee992'
p139
sg10
S'xx01360b0d21a7251257ca464552de09e1'
p140
sg12
S'xxcb1b9c75adfea3a37420b3849dedb192'
p141
sg14
S'Mozilla/5.0 (Linux; Android 6.0.1; KIW-AL10 Build/HONORKIW-AL10) AppleWebKit/537.36 (KHTML, like Gecko) Version/4.0 Chrome/37.0.0.0 Mobile MQQBrowser/6.8 TBS/036849 Safari/537.36 MicroMessenger/6.3.27.880 NetType/WIFI Language/zh_CN'
p142
sg16
S'fb77222674e7289dd1ed90df9f88e78b'
p143
sa(dp144
g2
S'44453'
p145
sg4
S'4119'
p146
sg6
S'52b3de8191b13dbe0a1b8027f23314c9'
p147
sg8
S'xx1435c3af4b26f1c714592ce3429ee992'
p148
sg10
S'xx01360b0d21a7251257ca464552de09e1'
p149
sg12
S'xxcb1b9c75adfea3a37420b3849dedb192'
p150
sg14
S'Mozilla/5.0 (Linux; Android 6.0.1; KIW-AL10 Build/HONORKIW-AL10) AppleWebKit/537.36 (KHTML, like Gecko) Version/4.0 Chrome/37.0.0.0 Mobile MQQBrowser/6.8 TBS/036849 Safari/537.36 MicroMessenger/6.3.27.880 NetType/WIFI Language/zh_CN'
p151
sg16
S'fb77222674e7289dd1ed90df9f88e78b'
p152
sa(dp153
g2
S'44453'
p154
sg4
S'4148'
p155
sg6
S'52b3de8191b13dbe0a1b8027f23314c9'
p156
sg8
S'xx1435c3af4b26f1c714592ce3429ee992'
p157
sg10
S'xx01360b0d21a7251257ca464552de09e1'
p158
sg12
S'xxcb1b9c75adfea3a37420b3849dedb192'
p159
sg14
S'Mozilla/5.0 (Linux; Android 6.0.1; KIW-AL10 Build/HONORKIW-AL10) AppleWebKit/537.36 (KHTML, like Gecko) Version/4.0 Chrome/37.0.0.0 Mobile MQQBrowser/6.8 TBS/036849 Safari/537.36 MicroMessenger/6.3.27.880 NetType/WIFI Language/zh_CN'
p160
sg16
S'fb77222674e7289dd1ed90df9f88e78b'
p161
sa(dp162
g2
S'44453'
p163
sg4
S'4168'
p164
sg6
S'52b3de8191b13dbe0a1b8027f23314c9'
p165
sg8
S'xx1435c3af4b26f1c714592ce3429ee992'
p166
sg10
S'xx01360b0d21a7251257ca464552de09e1'
p167
sg12
S'xxcb1b9c75adfea3a37420b3849dedb192'
p168
sg14
S'Mozilla/5.0 (Linux; Android 6.0.1; KIW-AL10 Build/HONORKIW-AL10) AppleWebKit/537.36 (KHTML, like Gecko) Version/4.0 Chrome/37.0.0.0 Mobile MQQBrowser/6.8 TBS/036849 Safari/537.36 MicroMessenger/6.3.27.880 NetType/WIFI Language/zh_CN'
p169
sg16
S'fb77222674e7289dd1ed90df9f88e78b'
p170
sa(dp171
g2
S'44453'
p172
sg4
S'4183'
p173
sg6
S'52b3de8191b13dbe0a1b8027f23314c9'
p174
sg8
S'xx1435c3af4b26f1c714592ce3429ee992'
p175
sg10
S'xx01360b0d21a7251257ca464552de09e1'
p176
sg12
S'xxcb1b9c75adfea3a37420b3849dedb192'
p177
sg14
S'Mozilla/5.0 (Linux; Android 6.0.1; KIW-AL10 Build/HONORKIW-AL10) AppleWebKit/537.36 (KHTML, like Gecko) Version/4.0 Chrome/37.0.0.0 Mobile MQQBrowser/6.8 TBS/036849 Safari/537.36 MicroMessenger/6.3.27.880 NetType/WIFI Language/zh_CN'
p178
sg16
S'fb77222674e7289dd1ed90df9f88e78b'
p179
sa(dp180
g2
S'44453'
p181
sg4
S'4201'
p182
sg6
S'52b3de8191b13dbe0a1b8027f23314c9'
p183
sg8
S'xx1435c3af4b26f1c714592ce3429ee992'
p184
sg10
S'xx01360b0d21a7251257ca464552de09e1'
p185
sg12
S'xxcb1b9c75adfea3a37420b3849dedb192'
p186
sg14
S'Mozilla/5.0 (Linux; Android 6.0.1; KIW-AL10 Build/HONORKIW-AL10) AppleWebKit/537.36 (KHTML, like Gecko) Version/4.0 Chrome/37.0.0.0 Mobile MQQBrowser/6.8 TBS/036849 Safari/537.36 MicroMessenger/6.3.27.880 NetType/WIFI Language/zh_CN'
p187
sg16
S'fb77222674e7289dd1ed90df9f88e78b'
p188
sa(dp189
g2
S'44453'
p190
sg4
S'4220'
p191
sg6
S'52b3de8191b13dbe0a1b8027f23314c9'
p192
sg8
S'xx1435c3af4b26f1c714592ce3429ee992'
p193
sg10
S'xx01360b0d21a7251257ca464552de09e1'
p194
sg12
S'xxcb1b9c75adfea3a37420b3849dedb192'
p195
sg14
S'Mozilla/5.0 (Linux; Android 6.0.1; KIW-AL10 Build/HONORKIW-AL10) AppleWebKit/537.36 (KHTML, like Gecko) Version/4.0 Chrome/37.0.0.0 Mobile MQQBrowser/6.8 TBS/036849 Safari/537.36 MicroMessenger/6.3.27.880 NetType/WIFI Language/zh_CN'
p196
sg16
S'fb77222674e7289dd1ed90df9f88e78b'
p197
sa(dp198
g2
S'26613'
p199
sg4
S'4290'
p200
sg6
S'cb1f876f264de3e6820a60f9f976cfd5'
p201
sg8
S'xx1435c3af4b26f1c714592ce3429ee992'
p202
sg10
S'xx01360b0d21a7251257ca464552de09e1'
p203
sg12
S'xxcb1b9c75adfea3a37420b3849dedb192'
p204
sg14
S'Mozilla/5.0 (Linux; Android 6.0.1; KIW-AL10 Build/HONORKIW-AL10) AppleWebKit/537.36 (KHTML, like Gecko) Version/4.0 Chrome/37.0.0.0 Mobile MQQBrowser/6.8 TBS/036849 Safari/537.36 MicroMessenger/6.3.27.880 NetType/WIFI Language/zh_CN'
p205
sg16
S'fb77222674e7289dd1ed90df9f88e78b'
p206
sa(dp207
g2
S'49769'
p208
sg4
S'4378'
p209
sg6
S'6b8292cd01348b012a4f15655f0a7058'
p210
sg8
S'xx366832a7a574614105733dc6288b5b9e'
p211
sg10
S'xxf5e91a1c43c75a70c163f72442acc408'
p212
sg12
S'xxcb1b9c75adfea3a37420b3849dedb192'
p213
sg14
S'Mozilla/5.0 (Linux; Android 5.1.1; KIW-AL10 Build/HONORKIW-AL10) AppleWebKit/537.36 (KHTML, like Gecko) Version/4.0 Chrome/37.0.0.0 Mobile MQQBrowser/6.8 TBS/036849 Safari/537.36 MicroMessenger/6.3.27.880 NetType/ctlte Language/zh_CN'
p214
sg16
S'4b1a1c023470848ffc10ddddd3bd9781'
p215
sa(dp216
g2
S'49769'
p217
sg4
S'4406'
p218
sg6
S'6b8292cd01348b012a4f15655f0a7058'
p219
sg8
S'xx366832a7a574614105733dc6288b5b9e'
p220
sg10
S'xxf5e91a1c43c75a70c163f72442acc408'
p221
sg12
S'xxcb1b9c75adfea3a37420b3849dedb192'
p222
sg14
S'Mozilla/5.0 (Linux; Android 5.1.1; KIW-AL10 Build/HONORKIW-AL10) AppleWebKit/537.36 (KHTML, like Gecko) Version/4.0 Chrome/37.0.0.0 Mobile MQQBrowser/6.8 TBS/036849 Safari/537.36 MicroMessenger/6.3.27.880 NetType/ctlte Language/zh_CN'
p223
sg16
S'4b1a1c023470848ffc10ddddd3bd9781'
p224
sa(dp225
g2
S'49769'
p226
sg4
S'4539'
p227
sg6
S'6b8292cd01348b012a4f15655f0a7058'
p228
sg8
S'xx366832a7a574614105733dc6288b5b9e'
p229
sg10
S'xxf5e91a1c43c75a70c163f72442acc408'
p230
sg12
S'xxcb1b9c75adfea3a37420b3849dedb192'
p231
sg14
S'Mozilla/5.0 (Linux; Android 5.1.1; KIW-AL10 Build/HONORKIW-AL10) AppleWebKit/537.36 (KHTML, like Gecko) Version/4.0 Chrome/37.0.0.0 Mobile MQQBrowser/6.8 TBS/036849 Safari/537.36 MicroMessenger/6.3.27.880 NetType/ctlte Language/zh_CN'
p232
sg16
S'4b1a1c023470848ffc10ddddd3bd9781'
p233
sa(dp234
g2
S'49769'
p235
sg4
S'4564'
p236
sg6
S'6b8292cd01348b012a4f15655f0a7058'
p237
sg8
S'xx366832a7a574614105733dc6288b5b9e'
p238
sg10
S'xxf5e91a1c43c75a70c163f72442acc408'
p239
sg12
S'xxcb1b9c75adfea3a37420b3849dedb192'
p240
sg14
S'Mozilla/5.0 (Linux; Android 5.1.1; KIW-AL10 Build/HONORKIW-AL10) AppleWebKit/537.36 (KHTML, like Gecko) Version/4.0 Chrome/37.0.0.0 Mobile MQQBrowser/6.8 TBS/036849 Safari/537.36 MicroMessenger/6.3.27.880 NetType/ctlte Language/zh_CN'
p241
sg16
S'4b1a1c023470848ffc10ddddd3bd9781'
p242
sa(dp243
g2
S'49769'
p244
sg4
S'4587'
p245
sg6
S'6b8292cd01348b012a4f15655f0a7058'
p246
sg8
S'xx366832a7a574614105733dc6288b5b9e'
p247
sg10
S'xxf5e91a1c43c75a70c163f72442acc408'
p248
sg12
S'xxcb1b9c75adfea3a37420b3849dedb192'
p249
sg14
S'Mozilla/5.0 (Linux; Android 5.1.1; KIW-AL10 Build/HONORKIW-AL10) AppleWebKit/537.36 (KHTML, like Gecko) Version/4.0 Chrome/37.0.0.0 Mobile MQQBrowser/6.8 TBS/036849 Safari/537.36 MicroMessenger/6.3.27.880 NetType/ctlte Language/zh_CN'
p250
sg16
S'4b1a1c023470848ffc10ddddd3bd9781'
p251
sa(dp252
g2
S'45634'
p253
sg4
S'4689'
p254
sg6
S'b70d85bf78bf55a8ab113483e63cce38'
p255
sg8
S'xxb12ceaf215ad1ac1bfcf826a2f56621d'
p256
sg10
S'xx72763e39f3b27868a30bf164b8ce8da4'
p257
sg12
S'xxcb1b9c75adfea3a37420b3849dedb192'
p258
sg14
S'Mozilla/5.0 (Linux; Android 6.0.1; KIW-AL10 Build/HONORKIW-AL10) AppleWebKit/537.36 (KHTML, like Gecko) Version/4.0 Chrome/37.0.0.0 Mobile MQQBrowser/6.8 TBS/036849 Safari/537.36 MicroMessenger/6.3.27.880 NetType/ctnet Language/zh_CN'
p259
sg16
S'd1ad5fec60321976f970575359049ef3'
p260
sa(dp261
g2
S'45634'
p262
sg4
S'4704'
p263
sg6
S'b70d85bf78bf55a8ab113483e63cce38'
p264
sg8
S'xxb12ceaf215ad1ac1bfcf826a2f56621d'
p265
sg10
S'xx72763e39f3b27868a30bf164b8ce8da4'
p266
sg12
S'xxcb1b9c75adfea3a37420b3849dedb192'
p267
sg14
S'Mozilla/5.0 (Linux; Android 6.0.1; KIW-AL10 Build/HONORKIW-AL10) AppleWebKit/537.36 (KHTML, like Gecko) Version/4.0 Chrome/37.0.0.0 Mobile MQQBrowser/6.8 TBS/036849 Safari/537.36 MicroMessenger/6.3.27.880 NetType/ctnet Language/zh_CN'
p268
sg16
S'd1ad5fec60321976f970575359049ef3'
p269
sa(dp270
g2
S'26613'
p271
sg4
S'4803'
p272
sg6
S'cb1f876f264de3e6820a60f9f976cfd5'
p273
sg8
S'xx1435c3af4b26f1c714592ce3429ee992'
p274
sg10
S'xx01360b0d21a7251257ca464552de09e1'
p275
sg12
S'xxcb1b9c75adfea3a37420b3849dedb192'
p276
sg14
S'Mozilla/5.0 (Linux; Android 6.0.1; KIW-AL10 Build/HONORKIW-AL10) AppleWebKit/537.36 (KHTML, like Gecko) Version/4.0 Chrome/37.0.0.0 Mobile MQQBrowser/6.8 TBS/036849 Safari/537.36 MicroMessenger/6.3.27.880 NetType/WIFI Language/zh_CN'
p277
sg16
S'fb77222674e7289dd1ed90df9f88e78b'
p278
sa(dp279
g2
S'26613'
p280
sg4
S'5325'
p281
sg6
S'cb1f876f264de3e6820a60f9f976cfd5'
p282
sg8
S'xx1435c3af4b26f1c714592ce3429ee992'
p283
sg10
S'xx01360b0d21a7251257ca464552de09e1'
p284
sg12
S'xxcb1b9c75adfea3a37420b3849dedb192'
p285
sg14
S'Mozilla/5.0 (Linux; Android 6.0.1; KIW-AL10 Build/HONORKIW-AL10) AppleWebKit/537.36 (KHTML, like Gecko) Version/4.0 Chrome/37.0.0.0 Mobile MQQBrowser/6.8 TBS/036849 Safari/537.36 MicroMessenger/6.3.27.880 NetType/WIFI Language/zh_CN'
p286
sg16
S'fb77222674e7289dd1ed90df9f88e78b'
p287
sa(dp288
g2
S'26613'
p289
sg4
S'5586'
p290
sg6
S'cb1f876f264de3e6820a60f9f976cfd5'
p291
sg8
S'xx1435c3af4b26f1c714592ce3429ee992'
p292
sg10
S'xx01360b0d21a7251257ca464552de09e1'
p293
sg12
S'xxcb1b9c75adfea3a37420b3849dedb192'
p294
sg14
S'Mozilla/5.0 (Linux; Android 6.0.1; KIW-AL10 Build/HONORKIW-AL10) AppleWebKit/537.36 (KHTML, like Gecko) Version/4.0 Chrome/37.0.0.0 Mobile MQQBrowser/6.8 TBS/036849 Safari/537.36 MicroMessenger/6.3.27.880 NetType/WIFI Language/zh_CN'
p295
sg16
S'fb77222674e7289dd1ed90df9f88e78b'
p296
sa(dp297
g2
S'26613'
p298
sg4
S'5603'
p299
sg6
S'cb1f876f264de3e6820a60f9f976cfd5'
p300
sg8
S'xx1435c3af4b26f1c714592ce3429ee992'
p301
sg10
S'xx01360b0d21a7251257ca464552de09e1'
p302
sg12
S'xxcb1b9c75adfea3a37420b3849dedb192'
p303
sg14
S'Mozilla/5.0 (Linux; Android 6.0.1; KIW-AL10 Build/HONORKIW-AL10) AppleWebKit/537.36 (KHTML, like Gecko) Version/4.0 Chrome/37.0.0.0 Mobile MQQBrowser/6.8 TBS/036849 Safari/537.36 MicroMessenger/6.3.27.880 NetType/WIFI Language/zh_CN'
p304
sg16
S'fb77222674e7289dd1ed90df9f88e78b'
p305
sa(dp306
g2
S'43051'
p307
sg4
S'5869'
p308
sg6
S'cb1f876f264de3e6820a60f9f976cfd5'
p309
sg8
S'xx1435c3af4b26f1c714592ce3429ee992'
p310
sg10
S'xx01360b0d21a7251257ca464552de09e1'
p311
sg12
S'xxcb1b9c75adfea3a37420b3849dedb192'
p312
sg14
S'Mozilla/5.0 (Linux; Android 6.0.1; KIW-AL10 Build/HONORKIW-AL10) AppleWebKit/537.36 (KHTML, like Gecko) Version/4.0 Chrome/37.0.0.0 Mobile MQQBrowser/6.8 TBS/036849 Safari/537.36 MicroMessenger/6.3.27.880 NetType/WIFI Language/zh_CN'
p313
sg16
S'fb77222674e7289dd1ed90df9f88e78b'
p314
sa(dp315
g2
S'43051'
p316
sg4
S'5901'
p317
sg6
S'cb1f876f264de3e6820a60f9f976cfd5'
p318
sg8
S'xx1435c3af4b26f1c714592ce3429ee992'
p319
sg10
S'xx01360b0d21a7251257ca464552de09e1'
p320
sg12
S'xxcb1b9c75adfea3a37420b3849dedb192'
p321
sg14
S'Mozilla/5.0 (Linux; Android 6.0.1; KIW-AL10 Build/HONORKIW-AL10) AppleWebKit/537.36 (KHTML, like Gecko) Version/4.0 Chrome/37.0.0.0 Mobile MQQBrowser/6.8 TBS/036849 Safari/537.36 MicroMessenger/6.3.27.880 NetType/WIFI Language/zh_CN'
p322
sg16
S'fb77222674e7289dd1ed90df9f88e78b'
p323
sa(dp324
g2
S'43051'
p325
sg4
S'5916'
p326
sg6
S'cb1f876f264de3e6820a60f9f976cfd5'
p327
sg8
S'xx1435c3af4b26f1c714592ce3429ee992'
p328
sg10
S'xx01360b0d21a7251257ca464552de09e1'
p329
sg12
S'xxcb1b9c75adfea3a37420b3849dedb192'
p330
sg14
S'Mozilla/5.0 (Linux; Android 6.0.1; KIW-AL10 Build/HONORKIW-AL10) AppleWebKit/537.36 (KHTML, like Gecko) Version/4.0 Chrome/37.0.0.0 Mobile MQQBrowser/6.8 TBS/036849 Safari/537.36 MicroMessenger/6.3.27.880 NetType/WIFI Language/zh_CN'
p331
sg16
S'fb77222674e7289dd1ed90df9f88e78b'
p332
sa(dp333
g2
S'21712'
p334
sg4
S'7840'
p335
sg6
S'cb1f876f264de3e6820a60f9f976cfd5'
p336
sg8
S'xx1435c3af4b26f1c714592ce3429ee992'
p337
sg10
S'xx01360b0d21a7251257ca464552de09e1'
p338
sg12
S'xxcb1b9c75adfea3a37420b3849dedb192'
p339
sg14
S'Mozilla/5.0 (Linux; Android 6.0.1; KIW-AL10 Build/HONORKIW-AL10) AppleWebKit/537.36 (KHTML, like Gecko) Version/4.0 Chrome/37.0.0.0 Mobile MQQBrowser/6.8 TBS/036849 Safari/537.36 MicroMessenger/6.3.27.880 NetType/WIFI Language/zh_CN'
p340
sg16
S'fb77222674e7289dd1ed90df9f88e78b'
p341
sa(dp342
g2
S'21712'
p343
sg4
S'7855'
p344
sg6
S'cb1f876f264de3e6820a60f9f976cfd5'
p345
sg8
S'xx1435c3af4b26f1c714592ce3429ee992'
p346
sg10
S'xx01360b0d21a7251257ca464552de09e1'
p347
sg12
S'xxcb1b9c75adfea3a37420b3849dedb192'
p348
sg14
S'Mozilla/5.0 (Linux; Android 6.0.1; KIW-AL10 Build/HONORKIW-AL10) AppleWebKit/537.36 (KHTML, like Gecko) Version/4.0 Chrome/37.0.0.0 Mobile MQQBrowser/6.8 TBS/036849 Safari/537.36 MicroMessenger/6.3.27.880 NetType/WIFI Language/zh_CN'
p349
sg16
S'fb77222674e7289dd1ed90df9f88e78b'
p350
sa(dp351
g2
S'21712'
p352
sg4
S'7871'
p353
sg6
S'cb1f876f264de3e6820a60f9f976cfd5'
p354
sg8
S'xx1435c3af4b26f1c714592ce3429ee992'
p355
sg10
S'xx01360b0d21a7251257ca464552de09e1'
p356
sg12
S'xxcb1b9c75adfea3a37420b3849dedb192'
p357
sg14
S'Mozilla/5.0 (Linux; Android 6.0.1; KIW-AL10 Build/HONORKIW-AL10) AppleWebKit/537.36 (KHTML, like Gecko) Version/4.0 Chrome/37.0.0.0 Mobile MQQBrowser/6.8 TBS/036849 Safari/537.36 MicroMessenger/6.3.27.880 NetType/WIFI Language/zh_CN'
p358
sg16
S'fb77222674e7289dd1ed90df9f88e78b'
p359
sa(dp360
g2
S'43051'
p361
sg4
S'8673'
p362
sg6
S'cb1f876f264de3e6820a60f9f976cfd5'
p363
sg8
S'xx1435c3af4b26f1c714592ce3429ee992'
p364
sg10
S'xx01360b0d21a7251257ca464552de09e1'
p365
sg12
S'xxcb1b9c75adfea3a37420b3849dedb192'
p366
sg14
S'Mozilla/5.0 (Linux; Android 6.0.1; KIW-AL10 Build/HONORKIW-AL10) AppleWebKit/537.36 (KHTML, like Gecko) Version/4.0 Chrome/37.0.0.0 Mobile MQQBrowser/6.8 TBS/036849 Safari/537.36 MicroMessenger/6.3.27.880 NetType/WIFI Language/zh_CN'
p367
sg16
S'fb77222674e7289dd1ed90df9f88e78b'
p368
sa(dp369
g2
S'43051'
p370
sg4
S'8690'
p371
sg6
S'cb1f876f264de3e6820a60f9f976cfd5'
p372
sg8
S'xx1435c3af4b26f1c714592ce3429ee992'
p373
sg10
S'xx01360b0d21a7251257ca464552de09e1'
p374
sg12
S'xxcb1b9c75adfea3a37420b3849dedb192'
p375
sg14
S'Mozilla/5.0 (Linux; Android 6.0.1; KIW-AL10 Build/HONORKIW-AL10) AppleWebKit/537.36 (KHTML, like Gecko) Version/4.0 Chrome/37.0.0.0 Mobile MQQBrowser/6.8 TBS/036849 Safari/537.36 MicroMessenger/6.3.27.880 NetType/WIFI Language/zh_CN'
p376
sg16
S'fb77222674e7289dd1ed90df9f88e78b'
p377
sa.