(lp0
(dp1
S'user_id'
p2
S'153'
p3
sS'data_id'
p4
S'76'
p5
sS'ip'
p6
S'84ad30ef1fedccf967f98cfbda6b9419'
p7
sS'phone_B'
p8
S'xx01a5237e7e68a910b2304c9470bd81cd'
p9
sS'phone_C'
p10
S'xxe4de87140e1bdb5e853a6fb37f537c00'
p11
sS'phone_A'
p12
S'xxcc458920e498aaac7714e99259d086ab'
p13
sS'user_agent'
p14
S'Mozilla/5.0 (Linux; Android 5.1.1; Redmi Note 3 Build/LMY47V) AppleWebKit/537.36 (KHTML, like Gecko) Version/4.0 Chrome/37.0.0.0 Mobile MQQBrowser/6.8 TBS/036849 Safari/537.36 MicroMessenger/6.3.27.880 NetType/WIFI Language/zh_CN'
p15
sS'ua'
p16
S'e5e55eadd31333dc0403af5757921e00'
p17
sa(dp18
g2
S'41631'
p19
sg4
S'1096'
p20
sg6
S'71a5cb77f047009749ba3db533fa0732'
p21
sg8
S'xx151c684626ef41ae0e26a9afb6deb79d'
p22
sg10
S'xxe4de87140e1bdb5e853a6fb37f537c00'
p23
sg12
S'xxcc458920e498aaac7714e99259d086ab'
p24
sg14
S'Mozilla/5.0 (Linux; Android 5.1.1; Redmi Note 3 Build/LMY47V) AppleWebKit/537.36 (KHTML, like Gecko) Version/4.0 Chrome/37.0.0.0 Mobile MQQBrowser/6.8 TBS/036865 Safari/537.36 MicroMessenger/6.3.27.880 NetType/WIFI Language/zh_CN'
p25
sg16
S'3c43e65c6a599483f3ed3165ff6404d2'
p26
sa(dp27
g2
S'41631'
p28
sg4
S'1112'
p29
sg6
S'71a5cb77f047009749ba3db533fa0732'
p30
sg8
S'xx151c684626ef41ae0e26a9afb6deb79d'
p31
sg10
S'xxe4de87140e1bdb5e853a6fb37f537c00'
p32
sg12
S'xxcc458920e498aaac7714e99259d086ab'
p33
sg14
S'Mozilla/5.0 (Linux; Android 5.1.1; Redmi Note 3 Build/LMY47V) AppleWebKit/537.36 (KHTML, like Gecko) Version/4.0 Chrome/37.0.0.0 Mobile MQQBrowser/6.8 TBS/036865 Safari/537.36 MicroMessenger/6.3.27.880 NetType/WIFI Language/zh_CN'
p34
sg16
S'3c43e65c6a599483f3ed3165ff6404d2'
p35
sa(dp36
g2
S'43448'
p37
sg4
S'2146'
p38
sg6
S'2e347977711fa4dd6ee63b1331dd6582'
p39
sg8
S'xxe6e3f5f2ad3e6a7ba489a62634e157ee'
p40
sg10
S'xxe4de87140e1bdb5e853a6fb37f537c00'
p41
sg12
S'xxcc458920e498aaac7714e99259d086ab'
p42
sg14
S'Mozilla/5.0 (Linux; Android 5.1.1; Redmi Note 3 Build/LMY47V) AppleWebKit/537.36 (KHTML, like Gecko) Version/4.0 Chrome/37.0.0.0 Mobile MQQBrowser/6.8 TBS/036849 Safari/537.36 MicroMessenger/6.3.25.861 NetType/cmnet Language/zh_CN'
p43
sg16
S'76f7fb94afa9fd3cd84f8066d1d4b558'
p44
sa(dp45
g2
S'43448'
p46
sg4
S'2152'
p47
sg6
S'2e347977711fa4dd6ee63b1331dd6582'
p48
sg8
S'xxe6e3f5f2ad3e6a7ba489a62634e157ee'
p49
sg10
S'xxe4de87140e1bdb5e853a6fb37f537c00'
p50
sg12
S'xxcc458920e498aaac7714e99259d086ab'
p51
sg14
S'Mozilla/5.0 (Linux; Android 5.1.1; Redmi Note 3 Build/LMY47V) AppleWebKit/537.36 (KHTML, like Gecko) Version/4.0 Chrome/37.0.0.0 Mobile MQQBrowser/6.8 TBS/036849 Safari/537.36 MicroMessenger/6.3.25.861 NetType/cmnet Language/zh_CN'
p52
sg16
S'76f7fb94afa9fd3cd84f8066d1d4b558'
p53
sa(dp54
g2
S'17720'
p55
sg4
S'2369'
p56
sg6
S'03f52a4f7e66c7ccc384ce91e7bd50e9'
p57
sg8
S'xx01a5237e7e68a910b2304c9470bd81cd'
p58
sg10
S'xxe4de87140e1bdb5e853a6fb37f537c00'
p59
sg12
S'xxcc458920e498aaac7714e99259d086ab'
p60
sg14
S'Mozilla/5.0 (Linux; Android 5.1.1; Redmi Note 3 Build/LMY47V) AppleWebKit/537.36 (KHTML, like Gecko) Version/4.0 Chrome/37.0.0.0 Mobile MQQBrowser/6.8 TBS/036849 Safari/537.36 MicroMessenger/6.3.27.880 NetType/WIFI Language/zh_CN'
p61
sg16
S'e5e55eadd31333dc0403af5757921e00'
p62
sa(dp63
g2
S'17720'
p64
sg4
S'2385'
p65
sg6
S'03f52a4f7e66c7ccc384ce91e7bd50e9'
p66
sg8
S'xx01a5237e7e68a910b2304c9470bd81cd'
p67
sg10
S'xxe4de87140e1bdb5e853a6fb37f537c00'
p68
sg12
S'xxcc458920e498aaac7714e99259d086ab'
p69
sg14
S'Mozilla/5.0 (Linux; Android 5.1.1; Redmi Note 3 Build/LMY47V) AppleWebKit/537.36 (KHTML, like Gecko) Version/4.0 Chrome/37.0.0.0 Mobile MQQBrowser/6.8 TBS/036849 Safari/537.36 MicroMessenger/6.3.27.880 NetType/WIFI Language/zh_CN'
p70
sg16
S'e5e55eadd31333dc0403af5757921e00'
p71
sa(dp72
g2
S'17720'
p73
sg4
S'2512'
p74
sg6
S'03f52a4f7e66c7ccc384ce91e7bd50e9'
p75
sg8
S'xx01a5237e7e68a910b2304c9470bd81cd'
p76
sg10
S'xxe4de87140e1bdb5e853a6fb37f537c00'
p77
sg12
S'xxcc458920e498aaac7714e99259d086ab'
p78
sg14
S'Mozilla/5.0 (Linux; Android 5.1.1; Redmi Note 3 Build/LMY47V) AppleWebKit/537.36 (KHTML, like Gecko) Version/4.0 Chrome/37.0.0.0 Mobile MQQBrowser/6.8 TBS/036849 Safari/537.36 MicroMessenger/6.3.27.880 NetType/WIFI Language/zh_CN'
p79
sg16
S'e5e55eadd31333dc0403af5757921e00'
p80
sa(dp81
g2
S'17720'
p82
sg4
S'2535'
p83
sg6
S'03f52a4f7e66c7ccc384ce91e7bd50e9'
p84
sg8
S'xx01a5237e7e68a910b2304c9470bd81cd'
p85
sg10
S'xxe4de87140e1bdb5e853a6fb37f537c00'
p86
sg12
S'xxcc458920e498aaac7714e99259d086ab'
p87
sg14
S'Mozilla/5.0 (Linux; Android 5.1.1; Redmi Note 3 Build/LMY47V) AppleWebKit/537.36 (KHTML, like Gecko) Version/4.0 Chrome/37.0.0.0 Mobile MQQBrowser/6.8 TBS/036849 Safari/537.36 MicroMessenger/6.3.27.880 NetType/WIFI Language/zh_CN'
p88
sg16
S'e5e55eadd31333dc0403af5757921e00'
p89
sa(dp90
g2
S'17720'
p91
sg4
S'2558'
p92
sg6
S'03f52a4f7e66c7ccc384ce91e7bd50e9'
p93
sg8
S'xx01a5237e7e68a910b2304c9470bd81cd'
p94
sg10
S'xxe4de87140e1bdb5e853a6fb37f537c00'
p95
sg12
S'xxcc458920e498aaac7714e99259d086ab'
p96
sg14
S'Mozilla/5.0 (Linux; Android 5.1.1; Redmi Note 3 Build/LMY47V) AppleWebKit/537.36 (KHTML, like Gecko) Version/4.0 Chrome/37.0.0.0 Mobile MQQBrowser/6.8 TBS/036849 Safari/537.36 MicroMessenger/6.3.27.880 NetType/WIFI Language/zh_CN'
p97
sg16
S'e5e55eadd31333dc0403af5757921e00'
p98
sa(dp99
g2
S'17720'
p100
sg4
S'2575'
p101
sg6
S'03f52a4f7e66c7ccc384ce91e7bd50e9'
p102
sg8
S'xx01a5237e7e68a910b2304c9470bd81cd'
p103
sg10
S'xxe4de87140e1bdb5e853a6fb37f537c00'
p104
sg12
S'xxcc458920e498aaac7714e99259d086ab'
p105
sg14
S'Mozilla/5.0 (Linux; Android 5.1.1; Redmi Note 3 Build/LMY47V) AppleWebKit/537.36 (KHTML, like Gecko) Version/4.0 Chrome/37.0.0.0 Mobile MQQBrowser/6.8 TBS/036849 Safari/537.36 MicroMessenger/6.3.27.880 NetType/WIFI Language/zh_CN'
p106
sg16
S'e5e55eadd31333dc0403af5757921e00'
p107
sa(dp108
g2
S'17720'
p109
sg4
S'2594'
p110
sg6
S'03f52a4f7e66c7ccc384ce91e7bd50e9'
p111
sg8
S'xx01a5237e7e68a910b2304c9470bd81cd'
p112
sg10
S'xxe4de87140e1bdb5e853a6fb37f537c00'
p113
sg12
S'xxcc458920e498aaac7714e99259d086ab'
p114
sg14
S'Mozilla/5.0 (Linux; Android 5.1.1; Redmi Note 3 Build/LMY47V) AppleWebKit/537.36 (KHTML, like Gecko) Version/4.0 Chrome/37.0.0.0 Mobile MQQBrowser/6.8 TBS/036849 Safari/537.36 MicroMessenger/6.3.27.880 NetType/WIFI Language/zh_CN'
p115
sg16
S'e5e55eadd31333dc0403af5757921e00'
p116
sa(dp117
g2
S'17720'
p118
sg4
S'2610'
p119
sg6
S'03f52a4f7e66c7ccc384ce91e7bd50e9'
p120
sg8
S'xx01a5237e7e68a910b2304c9470bd81cd'
p121
sg10
S'xxe4de87140e1bdb5e853a6fb37f537c00'
p122
sg12
S'xxcc458920e498aaac7714e99259d086ab'
p123
sg14
S'Mozilla/5.0 (Linux; Android 5.1.1; Redmi Note 3 Build/LMY47V) AppleWebKit/537.36 (KHTML, like Gecko) Version/4.0 Chrome/37.0.0.0 Mobile MQQBrowser/6.8 TBS/036849 Safari/537.36 MicroMessenger/6.3.27.880 NetType/WIFI Language/zh_CN'
p124
sg16
S'e5e55eadd31333dc0403af5757921e00'
p125
sa(dp126
g2
S'17720'
p127
sg4
S'2624'
p128
sg6
S'03f52a4f7e66c7ccc384ce91e7bd50e9'
p129
sg8
S'xx01a5237e7e68a910b2304c9470bd81cd'
p130
sg10
S'xxe4de87140e1bdb5e853a6fb37f537c00'
p131
sg12
S'xxcc458920e498aaac7714e99259d086ab'
p132
sg14
S'Mozilla/5.0 (Linux; Android 5.1.1; Redmi Note 3 Build/LMY47V) AppleWebKit/537.36 (KHTML, like Gecko) Version/4.0 Chrome/37.0.0.0 Mobile MQQBrowser/6.8 TBS/036849 Safari/537.36 MicroMessenger/6.3.27.880 NetType/WIFI Language/zh_CN'
p133
sg16
S'e5e55eadd31333dc0403af5757921e00'
p134
sa(dp135
g2
S'17720'
p136
sg4
S'2641'
p137
sg6
S'03f52a4f7e66c7ccc384ce91e7bd50e9'
p138
sg8
S'xx01a5237e7e68a910b2304c9470bd81cd'
p139
sg10
S'xxe4de87140e1bdb5e853a6fb37f537c00'
p140
sg12
S'xxcc458920e498aaac7714e99259d086ab'
p141
sg14
S'Mozilla/5.0 (Linux; Android 5.1.1; Redmi Note 3 Build/LMY47V) AppleWebKit/537.36 (KHTML, like Gecko) Version/4.0 Chrome/37.0.0.0 Mobile MQQBrowser/6.8 TBS/036849 Safari/537.36 MicroMessenger/6.3.27.880 NetType/WIFI Language/zh_CN'
p142
sg16
S'e5e55eadd31333dc0403af5757921e00'
p143
sa(dp144
g2
S'17720'
p145
sg4
S'2666'
p146
sg6
S'03f52a4f7e66c7ccc384ce91e7bd50e9'
p147
sg8
S'xx01a5237e7e68a910b2304c9470bd81cd'
p148
sg10
S'xxe4de87140e1bdb5e853a6fb37f537c00'
p149
sg12
S'xxcc458920e498aaac7714e99259d086ab'
p150
sg14
S'Mozilla/5.0 (Linux; Android 5.1.1; Redmi Note 3 Build/LMY47V) AppleWebKit/537.36 (KHTML, like Gecko) Version/4.0 Chrome/37.0.0.0 Mobile MQQBrowser/6.8 TBS/036849 Safari/537.36 MicroMessenger/6.3.27.880 NetType/WIFI Language/zh_CN'
p151
sg16
S'e5e55eadd31333dc0403af5757921e00'
p152
sa(dp153
g2
S'17720'
p154
sg4
S'2686'
p155
sg6
S'03f52a4f7e66c7ccc384ce91e7bd50e9'
p156
sg8
S'xx01a5237e7e68a910b2304c9470bd81cd'
p157
sg10
S'xxe4de87140e1bdb5e853a6fb37f537c00'
p158
sg12
S'xxcc458920e498aaac7714e99259d086ab'
p159
sg14
S'Mozilla/5.0 (Linux; Android 5.1.1; Redmi Note 3 Build/LMY47V) AppleWebKit/537.36 (KHTML, like Gecko) Version/4.0 Chrome/37.0.0.0 Mobile MQQBrowser/6.8 TBS/036849 Safari/537.36 MicroMessenger/6.3.27.880 NetType/WIFI Language/zh_CN'
p160
sg16
S'e5e55eadd31333dc0403af5757921e00'
p161
sa(dp162
g2
S'17720'
p163
sg4
S'2703'
p164
sg6
S'03f52a4f7e66c7ccc384ce91e7bd50e9'
p165
sg8
S'xx01a5237e7e68a910b2304c9470bd81cd'
p166
sg10
S'xxe4de87140e1bdb5e853a6fb37f537c00'
p167
sg12
S'xxcc458920e498aaac7714e99259d086ab'
p168
sg14
S'Mozilla/5.0 (Linux; Android 5.1.1; Redmi Note 3 Build/LMY47V) AppleWebKit/537.36 (KHTML, like Gecko) Version/4.0 Chrome/37.0.0.0 Mobile MQQBrowser/6.8 TBS/036849 Safari/537.36 MicroMessenger/6.3.27.880 NetType/WIFI Language/zh_CN'
p169
sg16
S'e5e55eadd31333dc0403af5757921e00'
p170
sa(dp171
g2
S'17720'
p172
sg4
S'2721'
p173
sg6
S'03f52a4f7e66c7ccc384ce91e7bd50e9'
p174
sg8
S'xx01a5237e7e68a910b2304c9470bd81cd'
p175
sg10
S'xxe4de87140e1bdb5e853a6fb37f537c00'
p176
sg12
S'xxcc458920e498aaac7714e99259d086ab'
p177
sg14
S'Mozilla/5.0 (Linux; Android 5.1.1; Redmi Note 3 Build/LMY47V) AppleWebKit/537.36 (KHTML, like Gecko) Version/4.0 Chrome/37.0.0.0 Mobile MQQBrowser/6.8 TBS/036849 Safari/537.36 MicroMessenger/6.3.27.880 NetType/WIFI Language/zh_CN'
p178
sg16
S'e5e55eadd31333dc0403af5757921e00'
p179
sa(dp180
g2
S'17720'
p181
sg4
S'2740'
p182
sg6
S'03f52a4f7e66c7ccc384ce91e7bd50e9'
p183
sg8
S'xx01a5237e7e68a910b2304c9470bd81cd'
p184
sg10
S'xxe4de87140e1bdb5e853a6fb37f537c00'
p185
sg12
S'xxcc458920e498aaac7714e99259d086ab'
p186
sg14
S'Mozilla/5.0 (Linux; Android 5.1.1; Redmi Note 3 Build/LMY47V) AppleWebKit/537.36 (KHTML, like Gecko) Version/4.0 Chrome/37.0.0.0 Mobile MQQBrowser/6.8 TBS/036849 Safari/537.36 MicroMessenger/6.3.27.880 NetType/WIFI Language/zh_CN'
p187
sg16
S'e5e55eadd31333dc0403af5757921e00'
p188
sa(dp189
g2
S'17720'
p190
sg4
S'2762'
p191
sg6
S'03f52a4f7e66c7ccc384ce91e7bd50e9'
p192
sg8
S'xx01a5237e7e68a910b2304c9470bd81cd'
p193
sg10
S'xxe4de87140e1bdb5e853a6fb37f537c00'
p194
sg12
S'xxcc458920e498aaac7714e99259d086ab'
p195
sg14
S'Mozilla/5.0 (Linux; Android 5.1.1; Redmi Note 3 Build/LMY47V) AppleWebKit/537.36 (KHTML, like Gecko) Version/4.0 Chrome/37.0.0.0 Mobile MQQBrowser/6.8 TBS/036849 Safari/537.36 MicroMessenger/6.3.27.880 NetType/WIFI Language/zh_CN'
p196
sg16
S'e5e55eadd31333dc0403af5757921e00'
p197
sa(dp198
g2
S'17720'
p199
sg4
S'2775'
p200
sg6
S'03f52a4f7e66c7ccc384ce91e7bd50e9'
p201
sg8
S'xx01a5237e7e68a910b2304c9470bd81cd'
p202
sg10
S'xxe4de87140e1bdb5e853a6fb37f537c00'
p203
sg12
S'xxcc458920e498aaac7714e99259d086ab'
p204
sg14
S'Mozilla/5.0 (Linux; Android 5.1.1; Redmi Note 3 Build/LMY47V) AppleWebKit/537.36 (KHTML, like Gecko) Version/4.0 Chrome/37.0.0.0 Mobile MQQBrowser/6.8 TBS/036849 Safari/537.36 MicroMessenger/6.3.27.880 NetType/WIFI Language/zh_CN'
p205
sg16
S'e5e55eadd31333dc0403af5757921e00'
p206
sa(dp207
g2
S'17720'
p208
sg4
S'2794'
p209
sg6
S'03f52a4f7e66c7ccc384ce91e7bd50e9'
p210
sg8
S'xx01a5237e7e68a910b2304c9470bd81cd'
p211
sg10
S'xxe4de87140e1bdb5e853a6fb37f537c00'
p212
sg12
S'xxcc458920e498aaac7714e99259d086ab'
p213
sg14
S'Mozilla/5.0 (Linux; Android 5.1.1; Redmi Note 3 Build/LMY47V) AppleWebKit/537.36 (KHTML, like Gecko) Version/4.0 Chrome/37.0.0.0 Mobile MQQBrowser/6.8 TBS/036849 Safari/537.36 MicroMessenger/6.3.27.880 NetType/WIFI Language/zh_CN'
p214
sg16
S'e5e55eadd31333dc0403af5757921e00'
p215
sa(dp216
g2
S'17720'
p217
sg4
S'2810'
p218
sg6
S'03f52a4f7e66c7ccc384ce91e7bd50e9'
p219
sg8
S'xx01a5237e7e68a910b2304c9470bd81cd'
p220
sg10
S'xxe4de87140e1bdb5e853a6fb37f537c00'
p221
sg12
S'xxcc458920e498aaac7714e99259d086ab'
p222
sg14
S'Mozilla/5.0 (Linux; Android 5.1.1; Redmi Note 3 Build/LMY47V) AppleWebKit/537.36 (KHTML, like Gecko) Version/4.0 Chrome/37.0.0.0 Mobile MQQBrowser/6.8 TBS/036849 Safari/537.36 MicroMessenger/6.3.27.880 NetType/WIFI Language/zh_CN'
p223
sg16
S'e5e55eadd31333dc0403af5757921e00'
p224
sa(dp225
g2
S'17720'
p226
sg4
S'2826'
p227
sg6
S'03f52a4f7e66c7ccc384ce91e7bd50e9'
p228
sg8
S'xx01a5237e7e68a910b2304c9470bd81cd'
p229
sg10
S'xxe4de87140e1bdb5e853a6fb37f537c00'
p230
sg12
S'xxcc458920e498aaac7714e99259d086ab'
p231
sg14
S'Mozilla/5.0 (Linux; Android 5.1.1; Redmi Note 3 Build/LMY47V) AppleWebKit/537.36 (KHTML, like Gecko) Version/4.0 Chrome/37.0.0.0 Mobile MQQBrowser/6.8 TBS/036849 Safari/537.36 MicroMessenger/6.3.27.880 NetType/WIFI Language/zh_CN'
p232
sg16
S'e5e55eadd31333dc0403af5757921e00'
p233
sa(dp234
g2
S'17720'
p235
sg4
S'2846'
p236
sg6
S'03f52a4f7e66c7ccc384ce91e7bd50e9'
p237
sg8
S'xx01a5237e7e68a910b2304c9470bd81cd'
p238
sg10
S'xxe4de87140e1bdb5e853a6fb37f537c00'
p239
sg12
S'xxcc458920e498aaac7714e99259d086ab'
p240
sg14
S'Mozilla/5.0 (Linux; Android 5.1.1; Redmi Note 3 Build/LMY47V) AppleWebKit/537.36 (KHTML, like Gecko) Version/4.0 Chrome/37.0.0.0 Mobile MQQBrowser/6.8 TBS/036849 Safari/537.36 MicroMessenger/6.3.27.880 NetType/WIFI Language/zh_CN'
p241
sg16
S'e5e55eadd31333dc0403af5757921e00'
p242
sa(dp243
g2
S'17720'
p244
sg4
S'2865'
p245
sg6
S'03f52a4f7e66c7ccc384ce91e7bd50e9'
p246
sg8
S'xx01a5237e7e68a910b2304c9470bd81cd'
p247
sg10
S'xxe4de87140e1bdb5e853a6fb37f537c00'
p248
sg12
S'xxcc458920e498aaac7714e99259d086ab'
p249
sg14
S'Mozilla/5.0 (Linux; Android 5.1.1; Redmi Note 3 Build/LMY47V) AppleWebKit/537.36 (KHTML, like Gecko) Version/4.0 Chrome/37.0.0.0 Mobile MQQBrowser/6.8 TBS/036849 Safari/537.36 MicroMessenger/6.3.27.880 NetType/WIFI Language/zh_CN'
p250
sg16
S'e5e55eadd31333dc0403af5757921e00'
p251
sa(dp252
g2
S'17720'
p253
sg4
S'2888'
p254
sg6
S'03f52a4f7e66c7ccc384ce91e7bd50e9'
p255
sg8
S'xx01a5237e7e68a910b2304c9470bd81cd'
p256
sg10
S'xxe4de87140e1bdb5e853a6fb37f537c00'
p257
sg12
S'xxcc458920e498aaac7714e99259d086ab'
p258
sg14
S'Mozilla/5.0 (Linux; Android 5.1.1; Redmi Note 3 Build/LMY47V) AppleWebKit/537.36 (KHTML, like Gecko) Version/4.0 Chrome/37.0.0.0 Mobile MQQBrowser/6.8 TBS/036849 Safari/537.36 MicroMessenger/6.3.27.880 NetType/WIFI Language/zh_CN'
p259
sg16
S'e5e55eadd31333dc0403af5757921e00'
p260
sa(dp261
g2
S'17720'
p262
sg4
S'2911'
p263
sg6
S'03f52a4f7e66c7ccc384ce91e7bd50e9'
p264
sg8
S'xx01a5237e7e68a910b2304c9470bd81cd'
p265
sg10
S'xxe4de87140e1bdb5e853a6fb37f537c00'
p266
sg12
S'xxcc458920e498aaac7714e99259d086ab'
p267
sg14
S'Mozilla/5.0 (Linux; Android 5.1.1; Redmi Note 3 Build/LMY47V) AppleWebKit/537.36 (KHTML, like Gecko) Version/4.0 Chrome/37.0.0.0 Mobile MQQBrowser/6.8 TBS/036849 Safari/537.36 MicroMessenger/6.3.27.880 NetType/WIFI Language/zh_CN'
p268
sg16
S'e5e55eadd31333dc0403af5757921e00'
p269
sa(dp270
g2
S'17720'
p271
sg4
S'2932'
p272
sg6
S'03f52a4f7e66c7ccc384ce91e7bd50e9'
p273
sg8
S'xx01a5237e7e68a910b2304c9470bd81cd'
p274
sg10
S'xxe4de87140e1bdb5e853a6fb37f537c00'
p275
sg12
S'xxcc458920e498aaac7714e99259d086ab'
p276
sg14
S'Mozilla/5.0 (Linux; Android 5.1.1; Redmi Note 3 Build/LMY47V) AppleWebKit/537.36 (KHTML, like Gecko) Version/4.0 Chrome/37.0.0.0 Mobile MQQBrowser/6.8 TBS/036849 Safari/537.36 MicroMessenger/6.3.27.880 NetType/WIFI Language/zh_CN'
p277
sg16
S'e5e55eadd31333dc0403af5757921e00'
p278
sa(dp279
g2
S'17720'
p280
sg4
S'2953'
p281
sg6
S'03f52a4f7e66c7ccc384ce91e7bd50e9'
p282
sg8
S'xx01a5237e7e68a910b2304c9470bd81cd'
p283
sg10
S'xxe4de87140e1bdb5e853a6fb37f537c00'
p284
sg12
S'xxcc458920e498aaac7714e99259d086ab'
p285
sg14
S'Mozilla/5.0 (Linux; Android 5.1.1; Redmi Note 3 Build/LMY47V) AppleWebKit/537.36 (KHTML, like Gecko) Version/4.0 Chrome/37.0.0.0 Mobile MQQBrowser/6.8 TBS/036849 Safari/537.36 MicroMessenger/6.3.27.880 NetType/WIFI Language/zh_CN'
p286
sg16
S'e5e55eadd31333dc0403af5757921e00'
p287
sa(dp288
g2
S'17720'
p289
sg4
S'2968'
p290
sg6
S'03f52a4f7e66c7ccc384ce91e7bd50e9'
p291
sg8
S'xx01a5237e7e68a910b2304c9470bd81cd'
p292
sg10
S'xxe4de87140e1bdb5e853a6fb37f537c00'
p293
sg12
S'xxcc458920e498aaac7714e99259d086ab'
p294
sg14
S'Mozilla/5.0 (Linux; Android 5.1.1; Redmi Note 3 Build/LMY47V) AppleWebKit/537.36 (KHTML, like Gecko) Version/4.0 Chrome/37.0.0.0 Mobile MQQBrowser/6.8 TBS/036849 Safari/537.36 MicroMessenger/6.3.27.880 NetType/WIFI Language/zh_CN'
p295
sg16
S'e5e55eadd31333dc0403af5757921e00'
p296
sa(dp297
g2
S'17720'
p298
sg4
S'2985'
p299
sg6
S'03f52a4f7e66c7ccc384ce91e7bd50e9'
p300
sg8
S'xx01a5237e7e68a910b2304c9470bd81cd'
p301
sg10
S'xxe4de87140e1bdb5e853a6fb37f537c00'
p302
sg12
S'xxcc458920e498aaac7714e99259d086ab'
p303
sg14
S'Mozilla/5.0 (Linux; Android 5.1.1; Redmi Note 3 Build/LMY47V) AppleWebKit/537.36 (KHTML, like Gecko) Version/4.0 Chrome/37.0.0.0 Mobile MQQBrowser/6.8 TBS/036849 Safari/537.36 MicroMessenger/6.3.27.880 NetType/WIFI Language/zh_CN'
p304
sg16
S'e5e55eadd31333dc0403af5757921e00'
p305
sa(dp306
g2
S'17720'
p307
sg4
S'3000'
p308
sg6
S'03f52a4f7e66c7ccc384ce91e7bd50e9'
p309
sg8
S'xx01a5237e7e68a910b2304c9470bd81cd'
p310
sg10
S'xxe4de87140e1bdb5e853a6fb37f537c00'
p311
sg12
S'xxcc458920e498aaac7714e99259d086ab'
p312
sg14
S'Mozilla/5.0 (Linux; Android 5.1.1; Redmi Note 3 Build/LMY47V) AppleWebKit/537.36 (KHTML, like Gecko) Version/4.0 Chrome/37.0.0.0 Mobile MQQBrowser/6.8 TBS/036849 Safari/537.36 MicroMessenger/6.3.27.880 NetType/WIFI Language/zh_CN'
p313
sg16
S'e5e55eadd31333dc0403af5757921e00'
p314
sa(dp315
g2
S'17720'
p316
sg4
S'3017'
p317
sg6
S'03f52a4f7e66c7ccc384ce91e7bd50e9'
p318
sg8
S'xx01a5237e7e68a910b2304c9470bd81cd'
p319
sg10
S'xxe4de87140e1bdb5e853a6fb37f537c00'
p320
sg12
S'xxcc458920e498aaac7714e99259d086ab'
p321
sg14
S'Mozilla/5.0 (Linux; Android 5.1.1; Redmi Note 3 Build/LMY47V) AppleWebKit/537.36 (KHTML, like Gecko) Version/4.0 Chrome/37.0.0.0 Mobile MQQBrowser/6.8 TBS/036849 Safari/537.36 MicroMessenger/6.3.27.880 NetType/WIFI Language/zh_CN'
p322
sg16
S'e5e55eadd31333dc0403af5757921e00'
p323
sa(dp324
g2
S'17720'
p325
sg4
S'3031'
p326
sg6
S'03f52a4f7e66c7ccc384ce91e7bd50e9'
p327
sg8
S'xx01a5237e7e68a910b2304c9470bd81cd'
p328
sg10
S'xxe4de87140e1bdb5e853a6fb37f537c00'
p329
sg12
S'xxcc458920e498aaac7714e99259d086ab'
p330
sg14
S'Mozilla/5.0 (Linux; Android 5.1.1; Redmi Note 3 Build/LMY47V) AppleWebKit/537.36 (KHTML, like Gecko) Version/4.0 Chrome/37.0.0.0 Mobile MQQBrowser/6.8 TBS/036849 Safari/537.36 MicroMessenger/6.3.27.880 NetType/WIFI Language/zh_CN'
p331
sg16
S'e5e55eadd31333dc0403af5757921e00'
p332
sa(dp333
g2
S'17720'
p334
sg4
S'3049'
p335
sg6
S'03f52a4f7e66c7ccc384ce91e7bd50e9'
p336
sg8
S'xx01a5237e7e68a910b2304c9470bd81cd'
p337
sg10
S'xxe4de87140e1bdb5e853a6fb37f537c00'
p338
sg12
S'xxcc458920e498aaac7714e99259d086ab'
p339
sg14
S'Mozilla/5.0 (Linux; Android 5.1.1; Redmi Note 3 Build/LMY47V) AppleWebKit/537.36 (KHTML, like Gecko) Version/4.0 Chrome/37.0.0.0 Mobile MQQBrowser/6.8 TBS/036849 Safari/537.36 MicroMessenger/6.3.27.880 NetType/WIFI Language/zh_CN'
p340
sg16
S'e5e55eadd31333dc0403af5757921e00'
p341
sa(dp342
g2
S'17720'
p343
sg4
S'3122'
p344
sg6
S'03f52a4f7e66c7ccc384ce91e7bd50e9'
p345
sg8
S'xx01a5237e7e68a910b2304c9470bd81cd'
p346
sg10
S'xxe4de87140e1bdb5e853a6fb37f537c00'
p347
sg12
S'xxcc458920e498aaac7714e99259d086ab'
p348
sg14
S'Mozilla/5.0 (Linux; Android 5.1.1; Redmi Note 3 Build/LMY47V) AppleWebKit/537.36 (KHTML, like Gecko) Version/4.0 Chrome/37.0.0.0 Mobile MQQBrowser/6.8 TBS/036849 Safari/537.36 MicroMessenger/6.3.27.880 NetType/WIFI Language/zh_CN'
p349
sg16
S'e5e55eadd31333dc0403af5757921e00'
p350
sa(dp351
g2
S'17720'
p352
sg4
S'3140'
p353
sg6
S'03f52a4f7e66c7ccc384ce91e7bd50e9'
p354
sg8
S'xx01a5237e7e68a910b2304c9470bd81cd'
p355
sg10
S'xxe4de87140e1bdb5e853a6fb37f537c00'
p356
sg12
S'xxcc458920e498aaac7714e99259d086ab'
p357
sg14
S'Mozilla/5.0 (Linux; Android 5.1.1; Redmi Note 3 Build/LMY47V) AppleWebKit/537.36 (KHTML, like Gecko) Version/4.0 Chrome/37.0.0.0 Mobile MQQBrowser/6.8 TBS/036849 Safari/537.36 MicroMessenger/6.3.27.880 NetType/WIFI Language/zh_CN'
p358
sg16
S'e5e55eadd31333dc0403af5757921e00'
p359
sa(dp360
g2
S'17720'
p361
sg4
S'3155'
p362
sg6
S'03f52a4f7e66c7ccc384ce91e7bd50e9'
p363
sg8
S'xx01a5237e7e68a910b2304c9470bd81cd'
p364
sg10
S'xxe4de87140e1bdb5e853a6fb37f537c00'
p365
sg12
S'xxcc458920e498aaac7714e99259d086ab'
p366
sg14
S'Mozilla/5.0 (Linux; Android 5.1.1; Redmi Note 3 Build/LMY47V) AppleWebKit/537.36 (KHTML, like Gecko) Version/4.0 Chrome/37.0.0.0 Mobile MQQBrowser/6.8 TBS/036849 Safari/537.36 MicroMessenger/6.3.27.880 NetType/WIFI Language/zh_CN'
p367
sg16
S'e5e55eadd31333dc0403af5757921e00'
p368
sa(dp369
g2
S'17720'
p370
sg4
S'3163'
p371
sg6
S'03f52a4f7e66c7ccc384ce91e7bd50e9'
p372
sg8
S'xx01a5237e7e68a910b2304c9470bd81cd'
p373
sg10
S'xxe4de87140e1bdb5e853a6fb37f537c00'
p374
sg12
S'xxcc458920e498aaac7714e99259d086ab'
p375
sg14
S'Mozilla/5.0 (Linux; Android 5.1.1; Redmi Note 3 Build/LMY47V) AppleWebKit/537.36 (KHTML, like Gecko) Version/4.0 Chrome/37.0.0.0 Mobile MQQBrowser/6.8 TBS/036849 Safari/537.36 MicroMessenger/6.3.27.880 NetType/WIFI Language/zh_CN'
p376
sg16
S'e5e55eadd31333dc0403af5757921e00'
p377
sa(dp378
g2
S'17720'
p379
sg4
S'3175'
p380
sg6
S'03f52a4f7e66c7ccc384ce91e7bd50e9'
p381
sg8
S'xx01a5237e7e68a910b2304c9470bd81cd'
p382
sg10
S'xxe4de87140e1bdb5e853a6fb37f537c00'
p383
sg12
S'xxcc458920e498aaac7714e99259d086ab'
p384
sg14
S'Mozilla/5.0 (Linux; Android 5.1.1; Redmi Note 3 Build/LMY47V) AppleWebKit/537.36 (KHTML, like Gecko) Version/4.0 Chrome/37.0.0.0 Mobile MQQBrowser/6.8 TBS/036849 Safari/537.36 MicroMessenger/6.3.27.880 NetType/WIFI Language/zh_CN'
p385
sg16
S'e5e55eadd31333dc0403af5757921e00'
p386
sa(dp387
g2
S'17720'
p388
sg4
S'3191'
p389
sg6
S'03f52a4f7e66c7ccc384ce91e7bd50e9'
p390
sg8
S'xx01a5237e7e68a910b2304c9470bd81cd'
p391
sg10
S'xxe4de87140e1bdb5e853a6fb37f537c00'
p392
sg12
S'xxcc458920e498aaac7714e99259d086ab'
p393
sg14
S'Mozilla/5.0 (Linux; Android 5.1.1; Redmi Note 3 Build/LMY47V) AppleWebKit/537.36 (KHTML, like Gecko) Version/4.0 Chrome/37.0.0.0 Mobile MQQBrowser/6.8 TBS/036849 Safari/537.36 MicroMessenger/6.3.27.880 NetType/WIFI Language/zh_CN'
p394
sg16
S'e5e55eadd31333dc0403af5757921e00'
p395
sa(dp396
g2
S'17720'
p397
sg4
S'3206'
p398
sg6
S'03f52a4f7e66c7ccc384ce91e7bd50e9'
p399
sg8
S'xx01a5237e7e68a910b2304c9470bd81cd'
p400
sg10
S'xxe4de87140e1bdb5e853a6fb37f537c00'
p401
sg12
S'xxcc458920e498aaac7714e99259d086ab'
p402
sg14
S'Mozilla/5.0 (Linux; Android 5.1.1; Redmi Note 3 Build/LMY47V) AppleWebKit/537.36 (KHTML, like Gecko) Version/4.0 Chrome/37.0.0.0 Mobile MQQBrowser/6.8 TBS/036849 Safari/537.36 MicroMessenger/6.3.27.880 NetType/WIFI Language/zh_CN'
p403
sg16
S'e5e55eadd31333dc0403af5757921e00'
p404
sa(dp405
g2
S'17720'
p406
sg4
S'3219'
p407
sg6
S'03f52a4f7e66c7ccc384ce91e7bd50e9'
p408
sg8
S'xx01a5237e7e68a910b2304c9470bd81cd'
p409
sg10
S'xxe4de87140e1bdb5e853a6fb37f537c00'
p410
sg12
S'xxcc458920e498aaac7714e99259d086ab'
p411
sg14
S'Mozilla/5.0 (Linux; Android 5.1.1; Redmi Note 3 Build/LMY47V) AppleWebKit/537.36 (KHTML, like Gecko) Version/4.0 Chrome/37.0.0.0 Mobile MQQBrowser/6.8 TBS/036849 Safari/537.36 MicroMessenger/6.3.27.880 NetType/WIFI Language/zh_CN'
p412
sg16
S'e5e55eadd31333dc0403af5757921e00'
p413
sa(dp414
g2
S'17720'
p415
sg4
S'3233'
p416
sg6
S'03f52a4f7e66c7ccc384ce91e7bd50e9'
p417
sg8
S'xx01a5237e7e68a910b2304c9470bd81cd'
p418
sg10
S'xxe4de87140e1bdb5e853a6fb37f537c00'
p419
sg12
S'xxcc458920e498aaac7714e99259d086ab'
p420
sg14
S'Mozilla/5.0 (Linux; Android 5.1.1; Redmi Note 3 Build/LMY47V) AppleWebKit/537.36 (KHTML, like Gecko) Version/4.0 Chrome/37.0.0.0 Mobile MQQBrowser/6.8 TBS/036849 Safari/537.36 MicroMessenger/6.3.27.880 NetType/WIFI Language/zh_CN'
p421
sg16
S'e5e55eadd31333dc0403af5757921e00'
p422
sa(dp423
g2
S'17720'
p424
sg4
S'3249'
p425
sg6
S'03f52a4f7e66c7ccc384ce91e7bd50e9'
p426
sg8
S'xx01a5237e7e68a910b2304c9470bd81cd'
p427
sg10
S'xxe4de87140e1bdb5e853a6fb37f537c00'
p428
sg12
S'xxcc458920e498aaac7714e99259d086ab'
p429
sg14
S'Mozilla/5.0 (Linux; Android 5.1.1; Redmi Note 3 Build/LMY47V) AppleWebKit/537.36 (KHTML, like Gecko) Version/4.0 Chrome/37.0.0.0 Mobile MQQBrowser/6.8 TBS/036849 Safari/537.36 MicroMessenger/6.3.27.880 NetType/WIFI Language/zh_CN'
p430
sg16
S'e5e55eadd31333dc0403af5757921e00'
p431
sa(dp432
g2
S'17720'
p433
sg4
S'3266'
p434
sg6
S'03f52a4f7e66c7ccc384ce91e7bd50e9'
p435
sg8
S'xx01a5237e7e68a910b2304c9470bd81cd'
p436
sg10
S'xxe4de87140e1bdb5e853a6fb37f537c00'
p437
sg12
S'xxcc458920e498aaac7714e99259d086ab'
p438
sg14
S'Mozilla/5.0 (Linux; Android 5.1.1; Redmi Note 3 Build/LMY47V) AppleWebKit/537.36 (KHTML, like Gecko) Version/4.0 Chrome/37.0.0.0 Mobile MQQBrowser/6.8 TBS/036849 Safari/537.36 MicroMessenger/6.3.27.880 NetType/WIFI Language/zh_CN'
p439
sg16
S'e5e55eadd31333dc0403af5757921e00'
p440
sa(dp441
g2
S'17720'
p442
sg4
S'3280'
p443
sg6
S'03f52a4f7e66c7ccc384ce91e7bd50e9'
p444
sg8
S'xx01a5237e7e68a910b2304c9470bd81cd'
p445
sg10
S'xxe4de87140e1bdb5e853a6fb37f537c00'
p446
sg12
S'xxcc458920e498aaac7714e99259d086ab'
p447
sg14
S'Mozilla/5.0 (Linux; Android 5.1.1; Redmi Note 3 Build/LMY47V) AppleWebKit/537.36 (KHTML, like Gecko) Version/4.0 Chrome/37.0.0.0 Mobile MQQBrowser/6.8 TBS/036849 Safari/537.36 MicroMessenger/6.3.27.880 NetType/WIFI Language/zh_CN'
p448
sg16
S'e5e55eadd31333dc0403af5757921e00'
p449
sa(dp450
g2
S'17720'
p451
sg4
S'3291'
p452
sg6
S'03f52a4f7e66c7ccc384ce91e7bd50e9'
p453
sg8
S'xx01a5237e7e68a910b2304c9470bd81cd'
p454
sg10
S'xxe4de87140e1bdb5e853a6fb37f537c00'
p455
sg12
S'xxcc458920e498aaac7714e99259d086ab'
p456
sg14
S'Mozilla/5.0 (Linux; Android 5.1.1; Redmi Note 3 Build/LMY47V) AppleWebKit/537.36 (KHTML, like Gecko) Version/4.0 Chrome/37.0.0.0 Mobile MQQBrowser/6.8 TBS/036849 Safari/537.36 MicroMessenger/6.3.27.880 NetType/WIFI Language/zh_CN'
p457
sg16
S'e5e55eadd31333dc0403af5757921e00'
p458
sa(dp459
g2
S'17720'
p460
sg4
S'3305'
p461
sg6
S'03f52a4f7e66c7ccc384ce91e7bd50e9'
p462
sg8
S'xx01a5237e7e68a910b2304c9470bd81cd'
p463
sg10
S'xxe4de87140e1bdb5e853a6fb37f537c00'
p464
sg12
S'xxcc458920e498aaac7714e99259d086ab'
p465
sg14
S'Mozilla/5.0 (Linux; Android 5.1.1; Redmi Note 3 Build/LMY47V) AppleWebKit/537.36 (KHTML, like Gecko) Version/4.0 Chrome/37.0.0.0 Mobile MQQBrowser/6.8 TBS/036849 Safari/537.36 MicroMessenger/6.3.27.880 NetType/WIFI Language/zh_CN'
p466
sg16
S'e5e55eadd31333dc0403af5757921e00'
p467
sa(dp468
g2
S'17720'
p469
sg4
S'3314'
p470
sg6
S'03f52a4f7e66c7ccc384ce91e7bd50e9'
p471
sg8
S'xx01a5237e7e68a910b2304c9470bd81cd'
p472
sg10
S'xxe4de87140e1bdb5e853a6fb37f537c00'
p473
sg12
S'xxcc458920e498aaac7714e99259d086ab'
p474
sg14
S'Mozilla/5.0 (Linux; Android 5.1.1; Redmi Note 3 Build/LMY47V) AppleWebKit/537.36 (KHTML, like Gecko) Version/4.0 Chrome/37.0.0.0 Mobile MQQBrowser/6.8 TBS/036849 Safari/537.36 MicroMessenger/6.3.27.880 NetType/WIFI Language/zh_CN'
p475
sg16
S'e5e55eadd31333dc0403af5757921e00'
p476
sa(dp477
g2
S'17720'
p478
sg4
S'3321'
p479
sg6
S'03f52a4f7e66c7ccc384ce91e7bd50e9'
p480
sg8
S'xx01a5237e7e68a910b2304c9470bd81cd'
p481
sg10
S'xxe4de87140e1bdb5e853a6fb37f537c00'
p482
sg12
S'xxcc458920e498aaac7714e99259d086ab'
p483
sg14
S'Mozilla/5.0 (Linux; Android 5.1.1; Redmi Note 3 Build/LMY47V) AppleWebKit/537.36 (KHTML, like Gecko) Version/4.0 Chrome/37.0.0.0 Mobile MQQBrowser/6.8 TBS/036849 Safari/537.36 MicroMessenger/6.3.27.880 NetType/WIFI Language/zh_CN'
p484
sg16
S'e5e55eadd31333dc0403af5757921e00'
p485
sa(dp486
g2
S'17720'
p487
sg4
S'3332'
p488
sg6
S'03f52a4f7e66c7ccc384ce91e7bd50e9'
p489
sg8
S'xx01a5237e7e68a910b2304c9470bd81cd'
p490
sg10
S'xxe4de87140e1bdb5e853a6fb37f537c00'
p491
sg12
S'xxcc458920e498aaac7714e99259d086ab'
p492
sg14
S'Mozilla/5.0 (Linux; Android 5.1.1; Redmi Note 3 Build/LMY47V) AppleWebKit/537.36 (KHTML, like Gecko) Version/4.0 Chrome/37.0.0.0 Mobile MQQBrowser/6.8 TBS/036849 Safari/537.36 MicroMessenger/6.3.27.880 NetType/WIFI Language/zh_CN'
p493
sg16
S'e5e55eadd31333dc0403af5757921e00'
p494
sa(dp495
g2
S'17720'
p496
sg4
S'3342'
p497
sg6
S'03f52a4f7e66c7ccc384ce91e7bd50e9'
p498
sg8
S'xx01a5237e7e68a910b2304c9470bd81cd'
p499
sg10
S'xxe4de87140e1bdb5e853a6fb37f537c00'
p500
sg12
S'xxcc458920e498aaac7714e99259d086ab'
p501
sg14
S'Mozilla/5.0 (Linux; Android 5.1.1; Redmi Note 3 Build/LMY47V) AppleWebKit/537.36 (KHTML, like Gecko) Version/4.0 Chrome/37.0.0.0 Mobile MQQBrowser/6.8 TBS/036849 Safari/537.36 MicroMessenger/6.3.27.880 NetType/WIFI Language/zh_CN'
p502
sg16
S'e5e55eadd31333dc0403af5757921e00'
p503
sa(dp504
g2
S'17720'
p505
sg4
S'3357'
p506
sg6
S'03f52a4f7e66c7ccc384ce91e7bd50e9'
p507
sg8
S'xx01a5237e7e68a910b2304c9470bd81cd'
p508
sg10
S'xxe4de87140e1bdb5e853a6fb37f537c00'
p509
sg12
S'xxcc458920e498aaac7714e99259d086ab'
p510
sg14
S'Mozilla/5.0 (Linux; Android 5.1.1; Redmi Note 3 Build/LMY47V) AppleWebKit/537.36 (KHTML, like Gecko) Version/4.0 Chrome/37.0.0.0 Mobile MQQBrowser/6.8 TBS/036849 Safari/537.36 MicroMessenger/6.3.27.880 NetType/WIFI Language/zh_CN'
p511
sg16
S'e5e55eadd31333dc0403af5757921e00'
p512
sa(dp513
g2
S'17720'
p514
sg4
S'3378'
p515
sg6
S'03f52a4f7e66c7ccc384ce91e7bd50e9'
p516
sg8
S'xx01a5237e7e68a910b2304c9470bd81cd'
p517
sg10
S'xxe4de87140e1bdb5e853a6fb37f537c00'
p518
sg12
S'xxcc458920e498aaac7714e99259d086ab'
p519
sg14
S'Mozilla/5.0 (Linux; Android 5.1.1; Redmi Note 3 Build/LMY47V) AppleWebKit/537.36 (KHTML, like Gecko) Version/4.0 Chrome/37.0.0.0 Mobile MQQBrowser/6.8 TBS/036849 Safari/537.36 MicroMessenger/6.3.27.880 NetType/WIFI Language/zh_CN'
p520
sg16
S'e5e55eadd31333dc0403af5757921e00'
p521
sa(dp522
g2
S'17720'
p523
sg4
S'3396'
p524
sg6
S'03f52a4f7e66c7ccc384ce91e7bd50e9'
p525
sg8
S'xx01a5237e7e68a910b2304c9470bd81cd'
p526
sg10
S'xxe4de87140e1bdb5e853a6fb37f537c00'
p527
sg12
S'xxcc458920e498aaac7714e99259d086ab'
p528
sg14
S'Mozilla/5.0 (Linux; Android 5.1.1; Redmi Note 3 Build/LMY47V) AppleWebKit/537.36 (KHTML, like Gecko) Version/4.0 Chrome/37.0.0.0 Mobile MQQBrowser/6.8 TBS/036849 Safari/537.36 MicroMessenger/6.3.27.880 NetType/WIFI Language/zh_CN'
p529
sg16
S'e5e55eadd31333dc0403af5757921e00'
p530
sa(dp531
g2
S'17720'
p532
sg4
S'3411'
p533
sg6
S'03f52a4f7e66c7ccc384ce91e7bd50e9'
p534
sg8
S'xx01a5237e7e68a910b2304c9470bd81cd'
p535
sg10
S'xxe4de87140e1bdb5e853a6fb37f537c00'
p536
sg12
S'xxcc458920e498aaac7714e99259d086ab'
p537
sg14
S'Mozilla/5.0 (Linux; Android 5.1.1; Redmi Note 3 Build/LMY47V) AppleWebKit/537.36 (KHTML, like Gecko) Version/4.0 Chrome/37.0.0.0 Mobile MQQBrowser/6.8 TBS/036849 Safari/537.36 MicroMessenger/6.3.27.880 NetType/WIFI Language/zh_CN'
p538
sg16
S'e5e55eadd31333dc0403af5757921e00'
p539
sa(dp540
g2
S'17720'
p541
sg4
S'3422'
p542
sg6
S'03f52a4f7e66c7ccc384ce91e7bd50e9'
p543
sg8
S'xx01a5237e7e68a910b2304c9470bd81cd'
p544
sg10
S'xxe4de87140e1bdb5e853a6fb37f537c00'
p545
sg12
S'xxcc458920e498aaac7714e99259d086ab'
p546
sg14
S'Mozilla/5.0 (Linux; Android 5.1.1; Redmi Note 3 Build/LMY47V) AppleWebKit/537.36 (KHTML, like Gecko) Version/4.0 Chrome/37.0.0.0 Mobile MQQBrowser/6.8 TBS/036849 Safari/537.36 MicroMessenger/6.3.27.880 NetType/WIFI Language/zh_CN'
p547
sg16
S'e5e55eadd31333dc0403af5757921e00'
p548
sa(dp549
g2
S'17720'
p550
sg4
S'3439'
p551
sg6
S'03f52a4f7e66c7ccc384ce91e7bd50e9'
p552
sg8
S'xx01a5237e7e68a910b2304c9470bd81cd'
p553
sg10
S'xxe4de87140e1bdb5e853a6fb37f537c00'
p554
sg12
S'xxcc458920e498aaac7714e99259d086ab'
p555
sg14
S'Mozilla/5.0 (Linux; Android 5.1.1; Redmi Note 3 Build/LMY47V) AppleWebKit/537.36 (KHTML, like Gecko) Version/4.0 Chrome/37.0.0.0 Mobile MQQBrowser/6.8 TBS/036849 Safari/537.36 MicroMessenger/6.3.27.880 NetType/WIFI Language/zh_CN'
p556
sg16
S'e5e55eadd31333dc0403af5757921e00'
p557
sa(dp558
g2
S'17720'
p559
sg4
S'3455'
p560
sg6
S'03f52a4f7e66c7ccc384ce91e7bd50e9'
p561
sg8
S'xx01a5237e7e68a910b2304c9470bd81cd'
p562
sg10
S'xxe4de87140e1bdb5e853a6fb37f537c00'
p563
sg12
S'xxcc458920e498aaac7714e99259d086ab'
p564
sg14
S'Mozilla/5.0 (Linux; Android 5.1.1; Redmi Note 3 Build/LMY47V) AppleWebKit/537.36 (KHTML, like Gecko) Version/4.0 Chrome/37.0.0.0 Mobile MQQBrowser/6.8 TBS/036849 Safari/537.36 MicroMessenger/6.3.27.880 NetType/WIFI Language/zh_CN'
p565
sg16
S'e5e55eadd31333dc0403af5757921e00'
p566
sa(dp567
g2
S'17720'
p568
sg4
S'3468'
p569
sg6
S'03f52a4f7e66c7ccc384ce91e7bd50e9'
p570
sg8
S'xx01a5237e7e68a910b2304c9470bd81cd'
p571
sg10
S'xxe4de87140e1bdb5e853a6fb37f537c00'
p572
sg12
S'xxcc458920e498aaac7714e99259d086ab'
p573
sg14
S'Mozilla/5.0 (Linux; Android 5.1.1; Redmi Note 3 Build/LMY47V) AppleWebKit/537.36 (KHTML, like Gecko) Version/4.0 Chrome/37.0.0.0 Mobile MQQBrowser/6.8 TBS/036849 Safari/537.36 MicroMessenger/6.3.27.880 NetType/WIFI Language/zh_CN'
p574
sg16
S'e5e55eadd31333dc0403af5757921e00'
p575
sa(dp576
g2
S'17720'
p577
sg4
S'3485'
p578
sg6
S'03f52a4f7e66c7ccc384ce91e7bd50e9'
p579
sg8
S'xx01a5237e7e68a910b2304c9470bd81cd'
p580
sg10
S'xxe4de87140e1bdb5e853a6fb37f537c00'
p581
sg12
S'xxcc458920e498aaac7714e99259d086ab'
p582
sg14
S'Mozilla/5.0 (Linux; Android 5.1.1; Redmi Note 3 Build/LMY47V) AppleWebKit/537.36 (KHTML, like Gecko) Version/4.0 Chrome/37.0.0.0 Mobile MQQBrowser/6.8 TBS/036849 Safari/537.36 MicroMessenger/6.3.27.880 NetType/WIFI Language/zh_CN'
p583
sg16
S'e5e55eadd31333dc0403af5757921e00'
p584
sa(dp585
g2
S'17720'
p586
sg4
S'3503'
p587
sg6
S'03f52a4f7e66c7ccc384ce91e7bd50e9'
p588
sg8
S'xx01a5237e7e68a910b2304c9470bd81cd'
p589
sg10
S'xxe4de87140e1bdb5e853a6fb37f537c00'
p590
sg12
S'xxcc458920e498aaac7714e99259d086ab'
p591
sg14
S'Mozilla/5.0 (Linux; Android 5.1.1; Redmi Note 3 Build/LMY47V) AppleWebKit/537.36 (KHTML, like Gecko) Version/4.0 Chrome/37.0.0.0 Mobile MQQBrowser/6.8 TBS/036849 Safari/537.36 MicroMessenger/6.3.27.880 NetType/WIFI Language/zh_CN'
p592
sg16
S'e5e55eadd31333dc0403af5757921e00'
p593
sa(dp594
g2
S'17720'
p595
sg4
S'3517'
p596
sg6
S'03f52a4f7e66c7ccc384ce91e7bd50e9'
p597
sg8
S'xx01a5237e7e68a910b2304c9470bd81cd'
p598
sg10
S'xxe4de87140e1bdb5e853a6fb37f537c00'
p599
sg12
S'xxcc458920e498aaac7714e99259d086ab'
p600
sg14
S'Mozilla/5.0 (Linux; Android 5.1.1; Redmi Note 3 Build/LMY47V) AppleWebKit/537.36 (KHTML, like Gecko) Version/4.0 Chrome/37.0.0.0 Mobile MQQBrowser/6.8 TBS/036849 Safari/537.36 MicroMessenger/6.3.27.880 NetType/WIFI Language/zh_CN'
p601
sg16
S'e5e55eadd31333dc0403af5757921e00'
p602
sa(dp603
g2
S'17720'
p604
sg4
S'3528'
p605
sg6
S'03f52a4f7e66c7ccc384ce91e7bd50e9'
p606
sg8
S'xx01a5237e7e68a910b2304c9470bd81cd'
p607
sg10
S'xxe4de87140e1bdb5e853a6fb37f537c00'
p608
sg12
S'xxcc458920e498aaac7714e99259d086ab'
p609
sg14
S'Mozilla/5.0 (Linux; Android 5.1.1; Redmi Note 3 Build/LMY47V) AppleWebKit/537.36 (KHTML, like Gecko) Version/4.0 Chrome/37.0.0.0 Mobile MQQBrowser/6.8 TBS/036849 Safari/537.36 MicroMessenger/6.3.27.880 NetType/WIFI Language/zh_CN'
p610
sg16
S'e5e55eadd31333dc0403af5757921e00'
p611
sa(dp612
g2
S'17720'
p613
sg4
S'3540'
p614
sg6
S'03f52a4f7e66c7ccc384ce91e7bd50e9'
p615
sg8
S'xx01a5237e7e68a910b2304c9470bd81cd'
p616
sg10
S'xxe4de87140e1bdb5e853a6fb37f537c00'
p617
sg12
S'xxcc458920e498aaac7714e99259d086ab'
p618
sg14
S'Mozilla/5.0 (Linux; Android 5.1.1; Redmi Note 3 Build/LMY47V) AppleWebKit/537.36 (KHTML, like Gecko) Version/4.0 Chrome/37.0.0.0 Mobile MQQBrowser/6.8 TBS/036849 Safari/537.36 MicroMessenger/6.3.27.880 NetType/WIFI Language/zh_CN'
p619
sg16
S'e5e55eadd31333dc0403af5757921e00'
p620
sa(dp621
g2
S'17720'
p622
sg4
S'3555'
p623
sg6
S'03f52a4f7e66c7ccc384ce91e7bd50e9'
p624
sg8
S'xx01a5237e7e68a910b2304c9470bd81cd'
p625
sg10
S'xxe4de87140e1bdb5e853a6fb37f537c00'
p626
sg12
S'xxcc458920e498aaac7714e99259d086ab'
p627
sg14
S'Mozilla/5.0 (Linux; Android 5.1.1; Redmi Note 3 Build/LMY47V) AppleWebKit/537.36 (KHTML, like Gecko) Version/4.0 Chrome/37.0.0.0 Mobile MQQBrowser/6.8 TBS/036849 Safari/537.36 MicroMessenger/6.3.27.880 NetType/WIFI Language/zh_CN'
p628
sg16
S'e5e55eadd31333dc0403af5757921e00'
p629
sa(dp630
g2
S'17720'
p631
sg4
S'3571'
p632
sg6
S'03f52a4f7e66c7ccc384ce91e7bd50e9'
p633
sg8
S'xx01a5237e7e68a910b2304c9470bd81cd'
p634
sg10
S'xxe4de87140e1bdb5e853a6fb37f537c00'
p635
sg12
S'xxcc458920e498aaac7714e99259d086ab'
p636
sg14
S'Mozilla/5.0 (Linux; Android 5.1.1; Redmi Note 3 Build/LMY47V) AppleWebKit/537.36 (KHTML, like Gecko) Version/4.0 Chrome/37.0.0.0 Mobile MQQBrowser/6.8 TBS/036849 Safari/537.36 MicroMessenger/6.3.27.880 NetType/WIFI Language/zh_CN'
p637
sg16
S'e5e55eadd31333dc0403af5757921e00'
p638
sa(dp639
g2
S'48440'
p640
sg4
S'3574'
p641
sg6
S'862b00b74345318dda48d777ac2e62d4'
p642
sg8
S'xx9b0bd3097bdf09809f62d936673db5b8'
p643
sg10
S'xxe4de87140e1bdb5e853a6fb37f537c00'
p644
sg12
S'xxcc458920e498aaac7714e99259d086ab'
p645
sg14
S'Mozilla/5.0 (Linux; Android 5.1.1; Redmi Note 3 Build/LMY47V) AppleWebKit/537.36 (KHTML, like Gecko) Version/4.0 Chrome/37.0.0.0 Mobile MQQBrowser/6.8 TBS/036849 Safari/537.36 MicroMessenger/6.3.25.861 NetType/3gnet Language/zh_CN'
p646
sg16
S'c34b180d4f1e2f63d3f102be87affb3b'
p647
sa(dp648
g2
S'17720'
p649
sg4
S'3588'
p650
sg6
S'03f52a4f7e66c7ccc384ce91e7bd50e9'
p651
sg8
S'xx01a5237e7e68a910b2304c9470bd81cd'
p652
sg10
S'xxe4de87140e1bdb5e853a6fb37f537c00'
p653
sg12
S'xxcc458920e498aaac7714e99259d086ab'
p654
sg14
S'Mozilla/5.0 (Linux; Android 5.1.1; Redmi Note 3 Build/LMY47V) AppleWebKit/537.36 (KHTML, like Gecko) Version/4.0 Chrome/37.0.0.0 Mobile MQQBrowser/6.8 TBS/036849 Safari/537.36 MicroMessenger/6.3.27.880 NetType/WIFI Language/zh_CN'
p655
sg16
S'e5e55eadd31333dc0403af5757921e00'
p656
sa(dp657
g2
S'48440'
p658
sg4
S'3592'
p659
sg6
S'862b00b74345318dda48d777ac2e62d4'
p660
sg8
S'xx9b0bd3097bdf09809f62d936673db5b8'
p661
sg10
S'xxe4de87140e1bdb5e853a6fb37f537c00'
p662
sg12
S'xxcc458920e498aaac7714e99259d086ab'
p663
sg14
S'Mozilla/5.0 (Linux; Android 5.1.1; Redmi Note 3 Build/LMY47V) AppleWebKit/537.36 (KHTML, like Gecko) Version/4.0 Chrome/37.0.0.0 Mobile MQQBrowser/6.8 TBS/036849 Safari/537.36 MicroMessenger/6.3.25.861 NetType/3gnet Language/zh_CN'
p664
sg16
S'c34b180d4f1e2f63d3f102be87affb3b'
p665
sa(dp666
g2
S'17720'
p667
sg4
S'3599'
p668
sg6
S'03f52a4f7e66c7ccc384ce91e7bd50e9'
p669
sg8
S'xx01a5237e7e68a910b2304c9470bd81cd'
p670
sg10
S'xxe4de87140e1bdb5e853a6fb37f537c00'
p671
sg12
S'xxcc458920e498aaac7714e99259d086ab'
p672
sg14
S'Mozilla/5.0 (Linux; Android 5.1.1; Redmi Note 3 Build/LMY47V) AppleWebKit/537.36 (KHTML, like Gecko) Version/4.0 Chrome/37.0.0.0 Mobile MQQBrowser/6.8 TBS/036849 Safari/537.36 MicroMessenger/6.3.27.880 NetType/WIFI Language/zh_CN'
p673
sg16
S'e5e55eadd31333dc0403af5757921e00'
p674
sa(dp675
g2
S'17720'
p676
sg4
S'3617'
p677
sg6
S'03f52a4f7e66c7ccc384ce91e7bd50e9'
p678
sg8
S'xx01a5237e7e68a910b2304c9470bd81cd'
p679
sg10
S'xxe4de87140e1bdb5e853a6fb37f537c00'
p680
sg12
S'xxcc458920e498aaac7714e99259d086ab'
p681
sg14
S'Mozilla/5.0 (Linux; Android 5.1.1; Redmi Note 3 Build/LMY47V) AppleWebKit/537.36 (KHTML, like Gecko) Version/4.0 Chrome/37.0.0.0 Mobile MQQBrowser/6.8 TBS/036849 Safari/537.36 MicroMessenger/6.3.27.880 NetType/WIFI Language/zh_CN'
p682
sg16
S'e5e55eadd31333dc0403af5757921e00'
p683
sa(dp684
g2
S'17720'
p685
sg4
S'3632'
p686
sg6
S'03f52a4f7e66c7ccc384ce91e7bd50e9'
p687
sg8
S'xx01a5237e7e68a910b2304c9470bd81cd'
p688
sg10
S'xxe4de87140e1bdb5e853a6fb37f537c00'
p689
sg12
S'xxcc458920e498aaac7714e99259d086ab'
p690
sg14
S'Mozilla/5.0 (Linux; Android 5.1.1; Redmi Note 3 Build/LMY47V) AppleWebKit/537.36 (KHTML, like Gecko) Version/4.0 Chrome/37.0.0.0 Mobile MQQBrowser/6.8 TBS/036849 Safari/537.36 MicroMessenger/6.3.27.880 NetType/WIFI Language/zh_CN'
p691
sg16
S'e5e55eadd31333dc0403af5757921e00'
p692
sa(dp693
g2
S'17720'
p694
sg4
S'3644'
p695
sg6
S'03f52a4f7e66c7ccc384ce91e7bd50e9'
p696
sg8
S'xx01a5237e7e68a910b2304c9470bd81cd'
p697
sg10
S'xxe4de87140e1bdb5e853a6fb37f537c00'
p698
sg12
S'xxcc458920e498aaac7714e99259d086ab'
p699
sg14
S'Mozilla/5.0 (Linux; Android 5.1.1; Redmi Note 3 Build/LMY47V) AppleWebKit/537.36 (KHTML, like Gecko) Version/4.0 Chrome/37.0.0.0 Mobile MQQBrowser/6.8 TBS/036849 Safari/537.36 MicroMessenger/6.3.27.880 NetType/WIFI Language/zh_CN'
p700
sg16
S'e5e55eadd31333dc0403af5757921e00'
p701
sa(dp702
g2
S'17720'
p703
sg4
S'3655'
p704
sg6
S'03f52a4f7e66c7ccc384ce91e7bd50e9'
p705
sg8
S'xx01a5237e7e68a910b2304c9470bd81cd'
p706
sg10
S'xxe4de87140e1bdb5e853a6fb37f537c00'
p707
sg12
S'xxcc458920e498aaac7714e99259d086ab'
p708
sg14
S'Mozilla/5.0 (Linux; Android 5.1.1; Redmi Note 3 Build/LMY47V) AppleWebKit/537.36 (KHTML, like Gecko) Version/4.0 Chrome/37.0.0.0 Mobile MQQBrowser/6.8 TBS/036849 Safari/537.36 MicroMessenger/6.3.27.880 NetType/WIFI Language/zh_CN'
p709
sg16
S'e5e55eadd31333dc0403af5757921e00'
p710
sa(dp711
g2
S'17720'
p712
sg4
S'3668'
p713
sg6
S'03f52a4f7e66c7ccc384ce91e7bd50e9'
p714
sg8
S'xx01a5237e7e68a910b2304c9470bd81cd'
p715
sg10
S'xxe4de87140e1bdb5e853a6fb37f537c00'
p716
sg12
S'xxcc458920e498aaac7714e99259d086ab'
p717
sg14
S'Mozilla/5.0 (Linux; Android 5.1.1; Redmi Note 3 Build/LMY47V) AppleWebKit/537.36 (KHTML, like Gecko) Version/4.0 Chrome/37.0.0.0 Mobile MQQBrowser/6.8 TBS/036849 Safari/537.36 MicroMessenger/6.3.27.880 NetType/WIFI Language/zh_CN'
p718
sg16
S'e5e55eadd31333dc0403af5757921e00'
p719
sa(dp720
g2
S'17720'
p721
sg4
S'3682'
p722
sg6
S'03f52a4f7e66c7ccc384ce91e7bd50e9'
p723
sg8
S'xx01a5237e7e68a910b2304c9470bd81cd'
p724
sg10
S'xxe4de87140e1bdb5e853a6fb37f537c00'
p725
sg12
S'xxcc458920e498aaac7714e99259d086ab'
p726
sg14
S'Mozilla/5.0 (Linux; Android 5.1.1; Redmi Note 3 Build/LMY47V) AppleWebKit/537.36 (KHTML, like Gecko) Version/4.0 Chrome/37.0.0.0 Mobile MQQBrowser/6.8 TBS/036849 Safari/537.36 MicroMessenger/6.3.27.880 NetType/WIFI Language/zh_CN'
p727
sg16
S'e5e55eadd31333dc0403af5757921e00'
p728
sa(dp729
g2
S'17720'
p730
sg4
S'3697'
p731
sg6
S'03f52a4f7e66c7ccc384ce91e7bd50e9'
p732
sg8
S'xx01a5237e7e68a910b2304c9470bd81cd'
p733
sg10
S'xxe4de87140e1bdb5e853a6fb37f537c00'
p734
sg12
S'xxcc458920e498aaac7714e99259d086ab'
p735
sg14
S'Mozilla/5.0 (Linux; Android 5.1.1; Redmi Note 3 Build/LMY47V) AppleWebKit/537.36 (KHTML, like Gecko) Version/4.0 Chrome/37.0.0.0 Mobile MQQBrowser/6.8 TBS/036849 Safari/537.36 MicroMessenger/6.3.27.880 NetType/WIFI Language/zh_CN'
p736
sg16
S'e5e55eadd31333dc0403af5757921e00'
p737
sa(dp738
g2
S'17720'
p739
sg4
S'3714'
p740
sg6
S'03f52a4f7e66c7ccc384ce91e7bd50e9'
p741
sg8
S'xx01a5237e7e68a910b2304c9470bd81cd'
p742
sg10
S'xxe4de87140e1bdb5e853a6fb37f537c00'
p743
sg12
S'xxcc458920e498aaac7714e99259d086ab'
p744
sg14
S'Mozilla/5.0 (Linux; Android 5.1.1; Redmi Note 3 Build/LMY47V) AppleWebKit/537.36 (KHTML, like Gecko) Version/4.0 Chrome/37.0.0.0 Mobile MQQBrowser/6.8 TBS/036849 Safari/537.36 MicroMessenger/6.3.27.880 NetType/WIFI Language/zh_CN'
p745
sg16
S'e5e55eadd31333dc0403af5757921e00'
p746
sa(dp747
g2
S'17720'
p748
sg4
S'3732'
p749
sg6
S'03f52a4f7e66c7ccc384ce91e7bd50e9'
p750
sg8
S'xx01a5237e7e68a910b2304c9470bd81cd'
p751
sg10
S'xxe4de87140e1bdb5e853a6fb37f537c00'
p752
sg12
S'xxcc458920e498aaac7714e99259d086ab'
p753
sg14
S'Mozilla/5.0 (Linux; Android 5.1.1; Redmi Note 3 Build/LMY47V) AppleWebKit/537.36 (KHTML, like Gecko) Version/4.0 Chrome/37.0.0.0 Mobile MQQBrowser/6.8 TBS/036849 Safari/537.36 MicroMessenger/6.3.27.880 NetType/WIFI Language/zh_CN'
p754
sg16
S'e5e55eadd31333dc0403af5757921e00'
p755
sa(dp756
g2
S'17720'
p757
sg4
S'3751'
p758
sg6
S'03f52a4f7e66c7ccc384ce91e7bd50e9'
p759
sg8
S'xx01a5237e7e68a910b2304c9470bd81cd'
p760
sg10
S'xxe4de87140e1bdb5e853a6fb37f537c00'
p761
sg12
S'xxcc458920e498aaac7714e99259d086ab'
p762
sg14
S'Mozilla/5.0 (Linux; Android 5.1.1; Redmi Note 3 Build/LMY47V) AppleWebKit/537.36 (KHTML, like Gecko) Version/4.0 Chrome/37.0.0.0 Mobile MQQBrowser/6.8 TBS/036849 Safari/537.36 MicroMessenger/6.3.27.880 NetType/WIFI Language/zh_CN'
p763
sg16
S'e5e55eadd31333dc0403af5757921e00'
p764
sa(dp765
g2
S'17720'
p766
sg4
S'3770'
p767
sg6
S'03f52a4f7e66c7ccc384ce91e7bd50e9'
p768
sg8
S'xx01a5237e7e68a910b2304c9470bd81cd'
p769
sg10
S'xxe4de87140e1bdb5e853a6fb37f537c00'
p770
sg12
S'xxcc458920e498aaac7714e99259d086ab'
p771
sg14
S'Mozilla/5.0 (Linux; Android 5.1.1; Redmi Note 3 Build/LMY47V) AppleWebKit/537.36 (KHTML, like Gecko) Version/4.0 Chrome/37.0.0.0 Mobile MQQBrowser/6.8 TBS/036849 Safari/537.36 MicroMessenger/6.3.27.880 NetType/WIFI Language/zh_CN'
p772
sg16
S'e5e55eadd31333dc0403af5757921e00'
p773
sa(dp774
g2
S'17720'
p775
sg4
S'3785'
p776
sg6
S'03f52a4f7e66c7ccc384ce91e7bd50e9'
p777
sg8
S'xx01a5237e7e68a910b2304c9470bd81cd'
p778
sg10
S'xxe4de87140e1bdb5e853a6fb37f537c00'
p779
sg12
S'xxcc458920e498aaac7714e99259d086ab'
p780
sg14
S'Mozilla/5.0 (Linux; Android 5.1.1; Redmi Note 3 Build/LMY47V) AppleWebKit/537.36 (KHTML, like Gecko) Version/4.0 Chrome/37.0.0.0 Mobile MQQBrowser/6.8 TBS/036849 Safari/537.36 MicroMessenger/6.3.27.880 NetType/WIFI Language/zh_CN'
p781
sg16
S'e5e55eadd31333dc0403af5757921e00'
p782
sa(dp783
g2
S'17720'
p784
sg4
S'3799'
p785
sg6
S'03f52a4f7e66c7ccc384ce91e7bd50e9'
p786
sg8
S'xx01a5237e7e68a910b2304c9470bd81cd'
p787
sg10
S'xxe4de87140e1bdb5e853a6fb37f537c00'
p788
sg12
S'xxcc458920e498aaac7714e99259d086ab'
p789
sg14
S'Mozilla/5.0 (Linux; Android 5.1.1; Redmi Note 3 Build/LMY47V) AppleWebKit/537.36 (KHTML, like Gecko) Version/4.0 Chrome/37.0.0.0 Mobile MQQBrowser/6.8 TBS/036849 Safari/537.36 MicroMessenger/6.3.27.880 NetType/WIFI Language/zh_CN'
p790
sg16
S'e5e55eadd31333dc0403af5757921e00'
p791
sa(dp792
g2
S'17720'
p793
sg4
S'3815'
p794
sg6
S'03f52a4f7e66c7ccc384ce91e7bd50e9'
p795
sg8
S'xx01a5237e7e68a910b2304c9470bd81cd'
p796
sg10
S'xxe4de87140e1bdb5e853a6fb37f537c00'
p797
sg12
S'xxcc458920e498aaac7714e99259d086ab'
p798
sg14
S'Mozilla/5.0 (Linux; Android 5.1.1; Redmi Note 3 Build/LMY47V) AppleWebKit/537.36 (KHTML, like Gecko) Version/4.0 Chrome/37.0.0.0 Mobile MQQBrowser/6.8 TBS/036849 Safari/537.36 MicroMessenger/6.3.27.880 NetType/WIFI Language/zh_CN'
p799
sg16
S'e5e55eadd31333dc0403af5757921e00'
p800
sa(dp801
g2
S'17720'
p802
sg4
S'3834'
p803
sg6
S'03f52a4f7e66c7ccc384ce91e7bd50e9'
p804
sg8
S'xx01a5237e7e68a910b2304c9470bd81cd'
p805
sg10
S'xxe4de87140e1bdb5e853a6fb37f537c00'
p806
sg12
S'xxcc458920e498aaac7714e99259d086ab'
p807
sg14
S'Mozilla/5.0 (Linux; Android 5.1.1; Redmi Note 3 Build/LMY47V) AppleWebKit/537.36 (KHTML, like Gecko) Version/4.0 Chrome/37.0.0.0 Mobile MQQBrowser/6.8 TBS/036849 Safari/537.36 MicroMessenger/6.3.27.880 NetType/WIFI Language/zh_CN'
p808
sg16
S'e5e55eadd31333dc0403af5757921e00'
p809
sa(dp810
g2
S'17720'
p811
sg4
S'3853'
p812
sg6
S'03f52a4f7e66c7ccc384ce91e7bd50e9'
p813
sg8
S'xx01a5237e7e68a910b2304c9470bd81cd'
p814
sg10
S'xxe4de87140e1bdb5e853a6fb37f537c00'
p815
sg12
S'xxcc458920e498aaac7714e99259d086ab'
p816
sg14
S'Mozilla/5.0 (Linux; Android 5.1.1; Redmi Note 3 Build/LMY47V) AppleWebKit/537.36 (KHTML, like Gecko) Version/4.0 Chrome/37.0.0.0 Mobile MQQBrowser/6.8 TBS/036849 Safari/537.36 MicroMessenger/6.3.27.880 NetType/WIFI Language/zh_CN'
p817
sg16
S'e5e55eadd31333dc0403af5757921e00'
p818
sa(dp819
g2
S'17720'
p820
sg4
S'3872'
p821
sg6
S'03f52a4f7e66c7ccc384ce91e7bd50e9'
p822
sg8
S'xx01a5237e7e68a910b2304c9470bd81cd'
p823
sg10
S'xxe4de87140e1bdb5e853a6fb37f537c00'
p824
sg12
S'xxcc458920e498aaac7714e99259d086ab'
p825
sg14
S'Mozilla/5.0 (Linux; Android 5.1.1; Redmi Note 3 Build/LMY47V) AppleWebKit/537.36 (KHTML, like Gecko) Version/4.0 Chrome/37.0.0.0 Mobile MQQBrowser/6.8 TBS/036849 Safari/537.36 MicroMessenger/6.3.27.880 NetType/WIFI Language/zh_CN'
p826
sg16
S'e5e55eadd31333dc0403af5757921e00'
p827
sa(dp828
g2
S'17720'
p829
sg4
S'3894'
p830
sg6
S'03f52a4f7e66c7ccc384ce91e7bd50e9'
p831
sg8
S'xx01a5237e7e68a910b2304c9470bd81cd'
p832
sg10
S'xxe4de87140e1bdb5e853a6fb37f537c00'
p833
sg12
S'xxcc458920e498aaac7714e99259d086ab'
p834
sg14
S'Mozilla/5.0 (Linux; Android 5.1.1; Redmi Note 3 Build/LMY47V) AppleWebKit/537.36 (KHTML, like Gecko) Version/4.0 Chrome/37.0.0.0 Mobile MQQBrowser/6.8 TBS/036849 Safari/537.36 MicroMessenger/6.3.27.880 NetType/WIFI Language/zh_CN'
p835
sg16
S'e5e55eadd31333dc0403af5757921e00'
p836
sa(dp837
g2
S'17720'
p838
sg4
S'3914'
p839
sg6
S'03f52a4f7e66c7ccc384ce91e7bd50e9'
p840
sg8
S'xx01a5237e7e68a910b2304c9470bd81cd'
p841
sg10
S'xxe4de87140e1bdb5e853a6fb37f537c00'
p842
sg12
S'xxcc458920e498aaac7714e99259d086ab'
p843
sg14
S'Mozilla/5.0 (Linux; Android 5.1.1; Redmi Note 3 Build/LMY47V) AppleWebKit/537.36 (KHTML, like Gecko) Version/4.0 Chrome/37.0.0.0 Mobile MQQBrowser/6.8 TBS/036849 Safari/537.36 MicroMessenger/6.3.27.880 NetType/WIFI Language/zh_CN'
p844
sg16
S'e5e55eadd31333dc0403af5757921e00'
p845
sa(dp846
g2
S'17720'
p847
sg4
S'3937'
p848
sg6
S'03f52a4f7e66c7ccc384ce91e7bd50e9'
p849
sg8
S'xx01a5237e7e68a910b2304c9470bd81cd'
p850
sg10
S'xxe4de87140e1bdb5e853a6fb37f537c00'
p851
sg12
S'xxcc458920e498aaac7714e99259d086ab'
p852
sg14
S'Mozilla/5.0 (Linux; Android 5.1.1; Redmi Note 3 Build/LMY47V) AppleWebKit/537.36 (KHTML, like Gecko) Version/4.0 Chrome/37.0.0.0 Mobile MQQBrowser/6.8 TBS/036849 Safari/537.36 MicroMessenger/6.3.27.880 NetType/WIFI Language/zh_CN'
p853
sg16
S'e5e55eadd31333dc0403af5757921e00'
p854
sa(dp855
g2
S'17720'
p856
sg4
S'3958'
p857
sg6
S'03f52a4f7e66c7ccc384ce91e7bd50e9'
p858
sg8
S'xx01a5237e7e68a910b2304c9470bd81cd'
p859
sg10
S'xxe4de87140e1bdb5e853a6fb37f537c00'
p860
sg12
S'xxcc458920e498aaac7714e99259d086ab'
p861
sg14
S'Mozilla/5.0 (Linux; Android 5.1.1; Redmi Note 3 Build/LMY47V) AppleWebKit/537.36 (KHTML, like Gecko) Version/4.0 Chrome/37.0.0.0 Mobile MQQBrowser/6.8 TBS/036849 Safari/537.36 MicroMessenger/6.3.27.880 NetType/WIFI Language/zh_CN'
p862
sg16
S'e5e55eadd31333dc0403af5757921e00'
p863
sa(dp864
g2
S'17720'
p865
sg4
S'3975'
p866
sg6
S'03f52a4f7e66c7ccc384ce91e7bd50e9'
p867
sg8
S'xx01a5237e7e68a910b2304c9470bd81cd'
p868
sg10
S'xxe4de87140e1bdb5e853a6fb37f537c00'
p869
sg12
S'xxcc458920e498aaac7714e99259d086ab'
p870
sg14
S'Mozilla/5.0 (Linux; Android 5.1.1; Redmi Note 3 Build/LMY47V) AppleWebKit/537.36 (KHTML, like Gecko) Version/4.0 Chrome/37.0.0.0 Mobile MQQBrowser/6.8 TBS/036849 Safari/537.36 MicroMessenger/6.3.27.880 NetType/WIFI Language/zh_CN'
p871
sg16
S'e5e55eadd31333dc0403af5757921e00'
p872
sa(dp873
g2
S'17720'
p874
sg4
S'3992'
p875
sg6
S'03f52a4f7e66c7ccc384ce91e7bd50e9'
p876
sg8
S'xx01a5237e7e68a910b2304c9470bd81cd'
p877
sg10
S'xxe4de87140e1bdb5e853a6fb37f537c00'
p878
sg12
S'xxcc458920e498aaac7714e99259d086ab'
p879
sg14
S'Mozilla/5.0 (Linux; Android 5.1.1; Redmi Note 3 Build/LMY47V) AppleWebKit/537.36 (KHTML, like Gecko) Version/4.0 Chrome/37.0.0.0 Mobile MQQBrowser/6.8 TBS/036849 Safari/537.36 MicroMessenger/6.3.27.880 NetType/WIFI Language/zh_CN'
p880
sg16
S'e5e55eadd31333dc0403af5757921e00'
p881
sa(dp882
g2
S'17720'
p883
sg4
S'4010'
p884
sg6
S'03f52a4f7e66c7ccc384ce91e7bd50e9'
p885
sg8
S'xx01a5237e7e68a910b2304c9470bd81cd'
p886
sg10
S'xxe4de87140e1bdb5e853a6fb37f537c00'
p887
sg12
S'xxcc458920e498aaac7714e99259d086ab'
p888
sg14
S'Mozilla/5.0 (Linux; Android 5.1.1; Redmi Note 3 Build/LMY47V) AppleWebKit/537.36 (KHTML, like Gecko) Version/4.0 Chrome/37.0.0.0 Mobile MQQBrowser/6.8 TBS/036849 Safari/537.36 MicroMessenger/6.3.27.880 NetType/WIFI Language/zh_CN'
p889
sg16
S'e5e55eadd31333dc0403af5757921e00'
p890
sa(dp891
g2
S'17720'
p892
sg4
S'4026'
p893
sg6
S'03f52a4f7e66c7ccc384ce91e7bd50e9'
p894
sg8
S'xx01a5237e7e68a910b2304c9470bd81cd'
p895
sg10
S'xxe4de87140e1bdb5e853a6fb37f537c00'
p896
sg12
S'xxcc458920e498aaac7714e99259d086ab'
p897
sg14
S'Mozilla/5.0 (Linux; Android 5.1.1; Redmi Note 3 Build/LMY47V) AppleWebKit/537.36 (KHTML, like Gecko) Version/4.0 Chrome/37.0.0.0 Mobile MQQBrowser/6.8 TBS/036849 Safari/537.36 MicroMessenger/6.3.27.880 NetType/WIFI Language/zh_CN'
p898
sg16
S'e5e55eadd31333dc0403af5757921e00'
p899
sa(dp900
g2
S'17720'
p901
sg4
S'4088'
p902
sg6
S'03f52a4f7e66c7ccc384ce91e7bd50e9'
p903
sg8
S'xx01a5237e7e68a910b2304c9470bd81cd'
p904
sg10
S'xxe4de87140e1bdb5e853a6fb37f537c00'
p905
sg12
S'xxcc458920e498aaac7714e99259d086ab'
p906
sg14
S'Mozilla/5.0 (Linux; Android 5.1.1; Redmi Note 3 Build/LMY47V) AppleWebKit/537.36 (KHTML, like Gecko) Version/4.0 Chrome/37.0.0.0 Mobile MQQBrowser/6.8 TBS/036849 Safari/537.36 MicroMessenger/6.3.27.880 NetType/WIFI Language/zh_CN'
p907
sg16
S'e5e55eadd31333dc0403af5757921e00'
p908
sa(dp909
g2
S'17720'
p910
sg4
S'4111'
p911
sg6
S'03f52a4f7e66c7ccc384ce91e7bd50e9'
p912
sg8
S'xx01a5237e7e68a910b2304c9470bd81cd'
p913
sg10
S'xxe4de87140e1bdb5e853a6fb37f537c00'
p914
sg12
S'xxcc458920e498aaac7714e99259d086ab'
p915
sg14
S'Mozilla/5.0 (Linux; Android 5.1.1; Redmi Note 3 Build/LMY47V) AppleWebKit/537.36 (KHTML, like Gecko) Version/4.0 Chrome/37.0.0.0 Mobile MQQBrowser/6.8 TBS/036849 Safari/537.36 MicroMessenger/6.3.27.880 NetType/WIFI Language/zh_CN'
p916
sg16
S'e5e55eadd31333dc0403af5757921e00'
p917
sa(dp918
g2
S'17720'
p919
sg4
S'4141'
p920
sg6
S'03f52a4f7e66c7ccc384ce91e7bd50e9'
p921
sg8
S'xx01a5237e7e68a910b2304c9470bd81cd'
p922
sg10
S'xxe4de87140e1bdb5e853a6fb37f537c00'
p923
sg12
S'xxcc458920e498aaac7714e99259d086ab'
p924
sg14
S'Mozilla/5.0 (Linux; Android 5.1.1; Redmi Note 3 Build/LMY47V) AppleWebKit/537.36 (KHTML, like Gecko) Version/4.0 Chrome/37.0.0.0 Mobile MQQBrowser/6.8 TBS/036849 Safari/537.36 MicroMessenger/6.3.27.880 NetType/WIFI Language/zh_CN'
p925
sg16
S'e5e55eadd31333dc0403af5757921e00'
p926
sa(dp927
g2
S'17720'
p928
sg4
S'4162'
p929
sg6
S'03f52a4f7e66c7ccc384ce91e7bd50e9'
p930
sg8
S'xx01a5237e7e68a910b2304c9470bd81cd'
p931
sg10
S'xxe4de87140e1bdb5e853a6fb37f537c00'
p932
sg12
S'xxcc458920e498aaac7714e99259d086ab'
p933
sg14
S'Mozilla/5.0 (Linux; Android 5.1.1; Redmi Note 3 Build/LMY47V) AppleWebKit/537.36 (KHTML, like Gecko) Version/4.0 Chrome/37.0.0.0 Mobile MQQBrowser/6.8 TBS/036849 Safari/537.36 MicroMessenger/6.3.27.880 NetType/WIFI Language/zh_CN'
p934
sg16
S'e5e55eadd31333dc0403af5757921e00'
p935
sa(dp936
g2
S'17720'
p937
sg4
S'4179'
p938
sg6
S'03f52a4f7e66c7ccc384ce91e7bd50e9'
p939
sg8
S'xx01a5237e7e68a910b2304c9470bd81cd'
p940
sg10
S'xxe4de87140e1bdb5e853a6fb37f537c00'
p941
sg12
S'xxcc458920e498aaac7714e99259d086ab'
p942
sg14
S'Mozilla/5.0 (Linux; Android 5.1.1; Redmi Note 3 Build/LMY47V) AppleWebKit/537.36 (KHTML, like Gecko) Version/4.0 Chrome/37.0.0.0 Mobile MQQBrowser/6.8 TBS/036849 Safari/537.36 MicroMessenger/6.3.27.880 NetType/WIFI Language/zh_CN'
p943
sg16
S'e5e55eadd31333dc0403af5757921e00'
p944
sa(dp945
g2
S'17720'
p946
sg4
S'4192'
p947
sg6
S'03f52a4f7e66c7ccc384ce91e7bd50e9'
p948
sg8
S'xx01a5237e7e68a910b2304c9470bd81cd'
p949
sg10
S'xxe4de87140e1bdb5e853a6fb37f537c00'
p950
sg12
S'xxcc458920e498aaac7714e99259d086ab'
p951
sg14
S'Mozilla/5.0 (Linux; Android 5.1.1; Redmi Note 3 Build/LMY47V) AppleWebKit/537.36 (KHTML, like Gecko) Version/4.0 Chrome/37.0.0.0 Mobile MQQBrowser/6.8 TBS/036849 Safari/537.36 MicroMessenger/6.3.27.880 NetType/WIFI Language/zh_CN'
p952
sg16
S'e5e55eadd31333dc0403af5757921e00'
p953
sa(dp954
g2
S'17720'
p955
sg4
S'4217'
p956
sg6
S'03f52a4f7e66c7ccc384ce91e7bd50e9'
p957
sg8
S'xx01a5237e7e68a910b2304c9470bd81cd'
p958
sg10
S'xxe4de87140e1bdb5e853a6fb37f537c00'
p959
sg12
S'xxcc458920e498aaac7714e99259d086ab'
p960
sg14
S'Mozilla/5.0 (Linux; Android 5.1.1; Redmi Note 3 Build/LMY47V) AppleWebKit/537.36 (KHTML, like Gecko) Version/4.0 Chrome/37.0.0.0 Mobile MQQBrowser/6.8 TBS/036849 Safari/537.36 MicroMessenger/6.3.27.880 NetType/WIFI Language/zh_CN'
p961
sg16
S'e5e55eadd31333dc0403af5757921e00'
p962
sa(dp963
g2
S'17720'
p964
sg4
S'4237'
p965
sg6
S'03f52a4f7e66c7ccc384ce91e7bd50e9'
p966
sg8
S'xx01a5237e7e68a910b2304c9470bd81cd'
p967
sg10
S'xxe4de87140e1bdb5e853a6fb37f537c00'
p968
sg12
S'xxcc458920e498aaac7714e99259d086ab'
p969
sg14
S'Mozilla/5.0 (Linux; Android 5.1.1; Redmi Note 3 Build/LMY47V) AppleWebKit/537.36 (KHTML, like Gecko) Version/4.0 Chrome/37.0.0.0 Mobile MQQBrowser/6.8 TBS/036849 Safari/537.36 MicroMessenger/6.3.27.880 NetType/WIFI Language/zh_CN'
p970
sg16
S'e5e55eadd31333dc0403af5757921e00'
p971
sa(dp972
g2
S'17720'
p973
sg4
S'4261'
p974
sg6
S'03f52a4f7e66c7ccc384ce91e7bd50e9'
p975
sg8
S'xx01a5237e7e68a910b2304c9470bd81cd'
p976
sg10
S'xxe4de87140e1bdb5e853a6fb37f537c00'
p977
sg12
S'xxcc458920e498aaac7714e99259d086ab'
p978
sg14
S'Mozilla/5.0 (Linux; Android 5.1.1; Redmi Note 3 Build/LMY47V) AppleWebKit/537.36 (KHTML, like Gecko) Version/4.0 Chrome/37.0.0.0 Mobile MQQBrowser/6.8 TBS/036849 Safari/537.36 MicroMessenger/6.3.27.880 NetType/WIFI Language/zh_CN'
p979
sg16
S'e5e55eadd31333dc0403af5757921e00'
p980
sa(dp981
g2
S'17720'
p982
sg4
S'4281'
p983
sg6
S'03f52a4f7e66c7ccc384ce91e7bd50e9'
p984
sg8
S'xx01a5237e7e68a910b2304c9470bd81cd'
p985
sg10
S'xxe4de87140e1bdb5e853a6fb37f537c00'
p986
sg12
S'xxcc458920e498aaac7714e99259d086ab'
p987
sg14
S'Mozilla/5.0 (Linux; Android 5.1.1; Redmi Note 3 Build/LMY47V) AppleWebKit/537.36 (KHTML, like Gecko) Version/4.0 Chrome/37.0.0.0 Mobile MQQBrowser/6.8 TBS/036849 Safari/537.36 MicroMessenger/6.3.27.880 NetType/WIFI Language/zh_CN'
p988
sg16
S'e5e55eadd31333dc0403af5757921e00'
p989
sa(dp990
g2
S'17720'
p991
sg4
S'4299'
p992
sg6
S'03f52a4f7e66c7ccc384ce91e7bd50e9'
p993
sg8
S'xx01a5237e7e68a910b2304c9470bd81cd'
p994
sg10
S'xxe4de87140e1bdb5e853a6fb37f537c00'
p995
sg12
S'xxcc458920e498aaac7714e99259d086ab'
p996
sg14
S'Mozilla/5.0 (Linux; Android 5.1.1; Redmi Note 3 Build/LMY47V) AppleWebKit/537.36 (KHTML, like Gecko) Version/4.0 Chrome/37.0.0.0 Mobile MQQBrowser/6.8 TBS/036849 Safari/537.36 MicroMessenger/6.3.27.880 NetType/WIFI Language/zh_CN'
p997
sg16
S'e5e55eadd31333dc0403af5757921e00'
p998
sa(dp999
g2
S'17720'
p1000
sg4
S'4311'
p1001
sg6
S'03f52a4f7e66c7ccc384ce91e7bd50e9'
p1002
sg8
S'xx01a5237e7e68a910b2304c9470bd81cd'
p1003
sg10
S'xxe4de87140e1bdb5e853a6fb37f537c00'
p1004
sg12
S'xxcc458920e498aaac7714e99259d086ab'
p1005
sg14
S'Mozilla/5.0 (Linux; Android 5.1.1; Redmi Note 3 Build/LMY47V) AppleWebKit/537.36 (KHTML, like Gecko) Version/4.0 Chrome/37.0.0.0 Mobile MQQBrowser/6.8 TBS/036849 Safari/537.36 MicroMessenger/6.3.27.880 NetType/WIFI Language/zh_CN'
p1006
sg16
S'e5e55eadd31333dc0403af5757921e00'
p1007
sa(dp1008
g2
S'17720'
p1009
sg4
S'4324'
p1010
sg6
S'03f52a4f7e66c7ccc384ce91e7bd50e9'
p1011
sg8
S'xx01a5237e7e68a910b2304c9470bd81cd'
p1012
sg10
S'xxe4de87140e1bdb5e853a6fb37f537c00'
p1013
sg12
S'xxcc458920e498aaac7714e99259d086ab'
p1014
sg14
S'Mozilla/5.0 (Linux; Android 5.1.1; Redmi Note 3 Build/LMY47V) AppleWebKit/537.36 (KHTML, like Gecko) Version/4.0 Chrome/37.0.0.0 Mobile MQQBrowser/6.8 TBS/036849 Safari/537.36 MicroMessenger/6.3.27.880 NetType/WIFI Language/zh_CN'
p1015
sg16
S'e5e55eadd31333dc0403af5757921e00'
p1016
sa(dp1017
g2
S'17720'
p1018
sg4
S'4344'
p1019
sg6
S'03f52a4f7e66c7ccc384ce91e7bd50e9'
p1020
sg8
S'xx01a5237e7e68a910b2304c9470bd81cd'
p1021
sg10
S'xxe4de87140e1bdb5e853a6fb37f537c00'
p1022
sg12
S'xxcc458920e498aaac7714e99259d086ab'
p1023
sg14
S'Mozilla/5.0 (Linux; Android 5.1.1; Redmi Note 3 Build/LMY47V) AppleWebKit/537.36 (KHTML, like Gecko) Version/4.0 Chrome/37.0.0.0 Mobile MQQBrowser/6.8 TBS/036849 Safari/537.36 MicroMessenger/6.3.27.880 NetType/WIFI Language/zh_CN'
p1024
sg16
S'e5e55eadd31333dc0403af5757921e00'
p1025
sa(dp1026
g2
S'17720'
p1027
sg4
S'4367'
p1028
sg6
S'03f52a4f7e66c7ccc384ce91e7bd50e9'
p1029
sg8
S'xx01a5237e7e68a910b2304c9470bd81cd'
p1030
sg10
S'xxe4de87140e1bdb5e853a6fb37f537c00'
p1031
sg12
S'xxcc458920e498aaac7714e99259d086ab'
p1032
sg14
S'Mozilla/5.0 (Linux; Android 5.1.1; Redmi Note 3 Build/LMY47V) AppleWebKit/537.36 (KHTML, like Gecko) Version/4.0 Chrome/37.0.0.0 Mobile MQQBrowser/6.8 TBS/036849 Safari/537.36 MicroMessenger/6.3.27.880 NetType/WIFI Language/zh_CN'
p1033
sg16
S'e5e55eadd31333dc0403af5757921e00'
p1034
sa(dp1035
g2
S'17720'
p1036
sg4
S'4395'
p1037
sg6
S'03f52a4f7e66c7ccc384ce91e7bd50e9'
p1038
sg8
S'xx01a5237e7e68a910b2304c9470bd81cd'
p1039
sg10
S'xxe4de87140e1bdb5e853a6fb37f537c00'
p1040
sg12
S'xxcc458920e498aaac7714e99259d086ab'
p1041
sg14
S'Mozilla/5.0 (Linux; Android 5.1.1; Redmi Note 3 Build/LMY47V) AppleWebKit/537.36 (KHTML, like Gecko) Version/4.0 Chrome/37.0.0.0 Mobile MQQBrowser/6.8 TBS/036849 Safari/537.36 MicroMessenger/6.3.27.880 NetType/WIFI Language/zh_CN'
p1042
sg16
S'e5e55eadd31333dc0403af5757921e00'
p1043
sa(dp1044
g2
S'17720'
p1045
sg4
S'4417'
p1046
sg6
S'03f52a4f7e66c7ccc384ce91e7bd50e9'
p1047
sg8
S'xx01a5237e7e68a910b2304c9470bd81cd'
p1048
sg10
S'xxe4de87140e1bdb5e853a6fb37f537c00'
p1049
sg12
S'xxcc458920e498aaac7714e99259d086ab'
p1050
sg14
S'Mozilla/5.0 (Linux; Android 5.1.1; Redmi Note 3 Build/LMY47V) AppleWebKit/537.36 (KHTML, like Gecko) Version/4.0 Chrome/37.0.0.0 Mobile MQQBrowser/6.8 TBS/036849 Safari/537.36 MicroMessenger/6.3.27.880 NetType/WIFI Language/zh_CN'
p1051
sg16
S'e5e55eadd31333dc0403af5757921e00'
p1052
sa(dp1053
g2
S'17720'
p1054
sg4
S'4439'
p1055
sg6
S'03f52a4f7e66c7ccc384ce91e7bd50e9'
p1056
sg8
S'xx01a5237e7e68a910b2304c9470bd81cd'
p1057
sg10
S'xxe4de87140e1bdb5e853a6fb37f537c00'
p1058
sg12
S'xxcc458920e498aaac7714e99259d086ab'
p1059
sg14
S'Mozilla/5.0 (Linux; Android 5.1.1; Redmi Note 3 Build/LMY47V) AppleWebKit/537.36 (KHTML, like Gecko) Version/4.0 Chrome/37.0.0.0 Mobile MQQBrowser/6.8 TBS/036849 Safari/537.36 MicroMessenger/6.3.27.880 NetType/WIFI Language/zh_CN'
p1060
sg16
S'e5e55eadd31333dc0403af5757921e00'
p1061
sa(dp1062
g2
S'17720'
p1063
sg4
S'4455'
p1064
sg6
S'03f52a4f7e66c7ccc384ce91e7bd50e9'
p1065
sg8
S'xx01a5237e7e68a910b2304c9470bd81cd'
p1066
sg10
S'xxe4de87140e1bdb5e853a6fb37f537c00'
p1067
sg12
S'xxcc458920e498aaac7714e99259d086ab'
p1068
sg14
S'Mozilla/5.0 (Linux; Android 5.1.1; Redmi Note 3 Build/LMY47V) AppleWebKit/537.36 (KHTML, like Gecko) Version/4.0 Chrome/37.0.0.0 Mobile MQQBrowser/6.8 TBS/036849 Safari/537.36 MicroMessenger/6.3.27.880 NetType/WIFI Language/zh_CN'
p1069
sg16
S'e5e55eadd31333dc0403af5757921e00'
p1070
sa(dp1071
g2
S'17720'
p1072
sg4
S'4472'
p1073
sg6
S'03f52a4f7e66c7ccc384ce91e7bd50e9'
p1074
sg8
S'xx01a5237e7e68a910b2304c9470bd81cd'
p1075
sg10
S'xxe4de87140e1bdb5e853a6fb37f537c00'
p1076
sg12
S'xxcc458920e498aaac7714e99259d086ab'
p1077
sg14
S'Mozilla/5.0 (Linux; Android 5.1.1; Redmi Note 3 Build/LMY47V) AppleWebKit/537.36 (KHTML, like Gecko) Version/4.0 Chrome/37.0.0.0 Mobile MQQBrowser/6.8 TBS/036849 Safari/537.36 MicroMessenger/6.3.27.880 NetType/WIFI Language/zh_CN'
p1078
sg16
S'e5e55eadd31333dc0403af5757921e00'
p1079
sa(dp1080
g2
S'17720'
p1081
sg4
S'4494'
p1082
sg6
S'03f52a4f7e66c7ccc384ce91e7bd50e9'
p1083
sg8
S'xx01a5237e7e68a910b2304c9470bd81cd'
p1084
sg10
S'xxe4de87140e1bdb5e853a6fb37f537c00'
p1085
sg12
S'xxcc458920e498aaac7714e99259d086ab'
p1086
sg14
S'Mozilla/5.0 (Linux; Android 5.1.1; Redmi Note 3 Build/LMY47V) AppleWebKit/537.36 (KHTML, like Gecko) Version/4.0 Chrome/37.0.0.0 Mobile MQQBrowser/6.8 TBS/036849 Safari/537.36 MicroMessenger/6.3.27.880 NetType/WIFI Language/zh_CN'
p1087
sg16
S'e5e55eadd31333dc0403af5757921e00'
p1088
sa(dp1089
g2
S'17720'
p1090
sg4
S'4510'
p1091
sg6
S'03f52a4f7e66c7ccc384ce91e7bd50e9'
p1092
sg8
S'xx01a5237e7e68a910b2304c9470bd81cd'
p1093
sg10
S'xxe4de87140e1bdb5e853a6fb37f537c00'
p1094
sg12
S'xxcc458920e498aaac7714e99259d086ab'
p1095
sg14
S'Mozilla/5.0 (Linux; Android 5.1.1; Redmi Note 3 Build/LMY47V) AppleWebKit/537.36 (KHTML, like Gecko) Version/4.0 Chrome/37.0.0.0 Mobile MQQBrowser/6.8 TBS/036849 Safari/537.36 MicroMessenger/6.3.27.880 NetType/WIFI Language/zh_CN'
p1096
sg16
S'e5e55eadd31333dc0403af5757921e00'
p1097
sa(dp1098
g2
S'17720'
p1099
sg4
S'4532'
p1100
sg6
S'03f52a4f7e66c7ccc384ce91e7bd50e9'
p1101
sg8
S'xx01a5237e7e68a910b2304c9470bd81cd'
p1102
sg10
S'xxe4de87140e1bdb5e853a6fb37f537c00'
p1103
sg12
S'xxcc458920e498aaac7714e99259d086ab'
p1104
sg14
S'Mozilla/5.0 (Linux; Android 5.1.1; Redmi Note 3 Build/LMY47V) AppleWebKit/537.36 (KHTML, like Gecko) Version/4.0 Chrome/37.0.0.0 Mobile MQQBrowser/6.8 TBS/036849 Safari/537.36 MicroMessenger/6.3.27.880 NetType/WIFI Language/zh_CN'
p1105
sg16
S'e5e55eadd31333dc0403af5757921e00'
p1106
sa(dp1107
g2
S'17720'
p1108
sg4
S'4557'
p1109
sg6
S'03f52a4f7e66c7ccc384ce91e7bd50e9'
p1110
sg8
S'xx01a5237e7e68a910b2304c9470bd81cd'
p1111
sg10
S'xxe4de87140e1bdb5e853a6fb37f537c00'
p1112
sg12
S'xxcc458920e498aaac7714e99259d086ab'
p1113
sg14
S'Mozilla/5.0 (Linux; Android 5.1.1; Redmi Note 3 Build/LMY47V) AppleWebKit/537.36 (KHTML, like Gecko) Version/4.0 Chrome/37.0.0.0 Mobile MQQBrowser/6.8 TBS/036849 Safari/537.36 MicroMessenger/6.3.27.880 NetType/WIFI Language/zh_CN'
p1114
sg16
S'e5e55eadd31333dc0403af5757921e00'
p1115
sa(dp1116
g2
S'17720'
p1117
sg4
S'4581'
p1118
sg6
S'03f52a4f7e66c7ccc384ce91e7bd50e9'
p1119
sg8
S'xx01a5237e7e68a910b2304c9470bd81cd'
p1120
sg10
S'xxe4de87140e1bdb5e853a6fb37f537c00'
p1121
sg12
S'xxcc458920e498aaac7714e99259d086ab'
p1122
sg14
S'Mozilla/5.0 (Linux; Android 5.1.1; Redmi Note 3 Build/LMY47V) AppleWebKit/537.36 (KHTML, like Gecko) Version/4.0 Chrome/37.0.0.0 Mobile MQQBrowser/6.8 TBS/036849 Safari/537.36 MicroMessenger/6.3.27.880 NetType/WIFI Language/zh_CN'
p1123
sg16
S'e5e55eadd31333dc0403af5757921e00'
p1124
sa(dp1125
g2
S'17720'
p1126
sg4
S'4599'
p1127
sg6
S'03f52a4f7e66c7ccc384ce91e7bd50e9'
p1128
sg8
S'xx01a5237e7e68a910b2304c9470bd81cd'
p1129
sg10
S'xxe4de87140e1bdb5e853a6fb37f537c00'
p1130
sg12
S'xxcc458920e498aaac7714e99259d086ab'
p1131
sg14
S'Mozilla/5.0 (Linux; Android 5.1.1; Redmi Note 3 Build/LMY47V) AppleWebKit/537.36 (KHTML, like Gecko) Version/4.0 Chrome/37.0.0.0 Mobile MQQBrowser/6.8 TBS/036849 Safari/537.36 MicroMessenger/6.3.27.880 NetType/WIFI Language/zh_CN'
p1132
sg16
S'e5e55eadd31333dc0403af5757921e00'
p1133
sa(dp1134
g2
S'17720'
p1135
sg4
S'4616'
p1136
sg6
S'03f52a4f7e66c7ccc384ce91e7bd50e9'
p1137
sg8
S'xx01a5237e7e68a910b2304c9470bd81cd'
p1138
sg10
S'xxe4de87140e1bdb5e853a6fb37f537c00'
p1139
sg12
S'xxcc458920e498aaac7714e99259d086ab'
p1140
sg14
S'Mozilla/5.0 (Linux; Android 5.1.1; Redmi Note 3 Build/LMY47V) AppleWebKit/537.36 (KHTML, like Gecko) Version/4.0 Chrome/37.0.0.0 Mobile MQQBrowser/6.8 TBS/036849 Safari/537.36 MicroMessenger/6.3.27.880 NetType/WIFI Language/zh_CN'
p1141
sg16
S'e5e55eadd31333dc0403af5757921e00'
p1142
sa(dp1143
g2
S'17720'
p1144
sg4
S'4629'
p1145
sg6
S'03f52a4f7e66c7ccc384ce91e7bd50e9'
p1146
sg8
S'xx01a5237e7e68a910b2304c9470bd81cd'
p1147
sg10
S'xxe4de87140e1bdb5e853a6fb37f537c00'
p1148
sg12
S'xxcc458920e498aaac7714e99259d086ab'
p1149
sg14
S'Mozilla/5.0 (Linux; Android 5.1.1; Redmi Note 3 Build/LMY47V) AppleWebKit/537.36 (KHTML, like Gecko) Version/4.0 Chrome/37.0.0.0 Mobile MQQBrowser/6.8 TBS/036849 Safari/537.36 MicroMessenger/6.3.27.880 NetType/WIFI Language/zh_CN'
p1150
sg16
S'e5e55eadd31333dc0403af5757921e00'
p1151
sa(dp1152
g2
S'17720'
p1153
sg4
S'4644'
p1154
sg6
S'03f52a4f7e66c7ccc384ce91e7bd50e9'
p1155
sg8
S'xx01a5237e7e68a910b2304c9470bd81cd'
p1156
sg10
S'xxe4de87140e1bdb5e853a6fb37f537c00'
p1157
sg12
S'xxcc458920e498aaac7714e99259d086ab'
p1158
sg14
S'Mozilla/5.0 (Linux; Android 5.1.1; Redmi Note 3 Build/LMY47V) AppleWebKit/537.36 (KHTML, like Gecko) Version/4.0 Chrome/37.0.0.0 Mobile MQQBrowser/6.8 TBS/036849 Safari/537.36 MicroMessenger/6.3.27.880 NetType/WIFI Language/zh_CN'
p1159
sg16
S'e5e55eadd31333dc0403af5757921e00'
p1160
sa(dp1161
g2
S'17720'
p1162
sg4
S'4662'
p1163
sg6
S'03f52a4f7e66c7ccc384ce91e7bd50e9'
p1164
sg8
S'xx01a5237e7e68a910b2304c9470bd81cd'
p1165
sg10
S'xxe4de87140e1bdb5e853a6fb37f537c00'
p1166
sg12
S'xxcc458920e498aaac7714e99259d086ab'
p1167
sg14
S'Mozilla/5.0 (Linux; Android 5.1.1; Redmi Note 3 Build/LMY47V) AppleWebKit/537.36 (KHTML, like Gecko) Version/4.0 Chrome/37.0.0.0 Mobile MQQBrowser/6.8 TBS/036849 Safari/537.36 MicroMessenger/6.3.27.880 NetType/WIFI Language/zh_CN'
p1168
sg16
S'e5e55eadd31333dc0403af5757921e00'
p1169
sa(dp1170
g2
S'17720'
p1171
sg4
S'4678'
p1172
sg6
S'03f52a4f7e66c7ccc384ce91e7bd50e9'
p1173
sg8
S'xx01a5237e7e68a910b2304c9470bd81cd'
p1174
sg10
S'xxe4de87140e1bdb5e853a6fb37f537c00'
p1175
sg12
S'xxcc458920e498aaac7714e99259d086ab'
p1176
sg14
S'Mozilla/5.0 (Linux; Android 5.1.1; Redmi Note 3 Build/LMY47V) AppleWebKit/537.36 (KHTML, like Gecko) Version/4.0 Chrome/37.0.0.0 Mobile MQQBrowser/6.8 TBS/036849 Safari/537.36 MicroMessenger/6.3.27.880 NetType/WIFI Language/zh_CN'
p1177
sg16
S'e5e55eadd31333dc0403af5757921e00'
p1178
sa(dp1179
g2
S'17720'
p1180
sg4
S'4695'
p1181
sg6
S'03f52a4f7e66c7ccc384ce91e7bd50e9'
p1182
sg8
S'xx01a5237e7e68a910b2304c9470bd81cd'
p1183
sg10
S'xxe4de87140e1bdb5e853a6fb37f537c00'
p1184
sg12
S'xxcc458920e498aaac7714e99259d086ab'
p1185
sg14
S'Mozilla/5.0 (Linux; Android 5.1.1; Redmi Note 3 Build/LMY47V) AppleWebKit/537.36 (KHTML, like Gecko) Version/4.0 Chrome/37.0.0.0 Mobile MQQBrowser/6.8 TBS/036849 Safari/537.36 MicroMessenger/6.3.27.880 NetType/WIFI Language/zh_CN'
p1186
sg16
S'e5e55eadd31333dc0403af5757921e00'
p1187
sa(dp1188
g2
S'17720'
p1189
sg4
S'4713'
p1190
sg6
S'03f52a4f7e66c7ccc384ce91e7bd50e9'
p1191
sg8
S'xx01a5237e7e68a910b2304c9470bd81cd'
p1192
sg10
S'xxe4de87140e1bdb5e853a6fb37f537c00'
p1193
sg12
S'xxcc458920e498aaac7714e99259d086ab'
p1194
sg14
S'Mozilla/5.0 (Linux; Android 5.1.1; Redmi Note 3 Build/LMY47V) AppleWebKit/537.36 (KHTML, like Gecko) Version/4.0 Chrome/37.0.0.0 Mobile MQQBrowser/6.8 TBS/036849 Safari/537.36 MicroMessenger/6.3.27.880 NetType/WIFI Language/zh_CN'
p1195
sg16
S'e5e55eadd31333dc0403af5757921e00'
p1196
sa(dp1197
g2
S'17720'
p1198
sg4
S'4732'
p1199
sg6
S'03f52a4f7e66c7ccc384ce91e7bd50e9'
p1200
sg8
S'xx01a5237e7e68a910b2304c9470bd81cd'
p1201
sg10
S'xxe4de87140e1bdb5e853a6fb37f537c00'
p1202
sg12
S'xxcc458920e498aaac7714e99259d086ab'
p1203
sg14
S'Mozilla/5.0 (Linux; Android 5.1.1; Redmi Note 3 Build/LMY47V) AppleWebKit/537.36 (KHTML, like Gecko) Version/4.0 Chrome/37.0.0.0 Mobile MQQBrowser/6.8 TBS/036849 Safari/537.36 MicroMessenger/6.3.27.880 NetType/WIFI Language/zh_CN'
p1204
sg16
S'e5e55eadd31333dc0403af5757921e00'
p1205
sa(dp1206
g2
S'17720'
p1207
sg4
S'4749'
p1208
sg6
S'03f52a4f7e66c7ccc384ce91e7bd50e9'
p1209
sg8
S'xx01a5237e7e68a910b2304c9470bd81cd'
p1210
sg10
S'xxe4de87140e1bdb5e853a6fb37f537c00'
p1211
sg12
S'xxcc458920e498aaac7714e99259d086ab'
p1212
sg14
S'Mozilla/5.0 (Linux; Android 5.1.1; Redmi Note 3 Build/LMY47V) AppleWebKit/537.36 (KHTML, like Gecko) Version/4.0 Chrome/37.0.0.0 Mobile MQQBrowser/6.8 TBS/036849 Safari/537.36 MicroMessenger/6.3.27.880 NetType/WIFI Language/zh_CN'
p1213
sg16
S'e5e55eadd31333dc0403af5757921e00'
p1214
sa(dp1215
g2
S'17720'
p1216
sg4
S'4761'
p1217
sg6
S'03f52a4f7e66c7ccc384ce91e7bd50e9'
p1218
sg8
S'xx01a5237e7e68a910b2304c9470bd81cd'
p1219
sg10
S'xxe4de87140e1bdb5e853a6fb37f537c00'
p1220
sg12
S'xxcc458920e498aaac7714e99259d086ab'
p1221
sg14
S'Mozilla/5.0 (Linux; Android 5.1.1; Redmi Note 3 Build/LMY47V) AppleWebKit/537.36 (KHTML, like Gecko) Version/4.0 Chrome/37.0.0.0 Mobile MQQBrowser/6.8 TBS/036849 Safari/537.36 MicroMessenger/6.3.27.880 NetType/WIFI Language/zh_CN'
p1222
sg16
S'e5e55eadd31333dc0403af5757921e00'
p1223
sa(dp1224
g2
S'17720'
p1225
sg4
S'4775'
p1226
sg6
S'03f52a4f7e66c7ccc384ce91e7bd50e9'
p1227
sg8
S'xx01a5237e7e68a910b2304c9470bd81cd'
p1228
sg10
S'xxe4de87140e1bdb5e853a6fb37f537c00'
p1229
sg12
S'xxcc458920e498aaac7714e99259d086ab'
p1230
sg14
S'Mozilla/5.0 (Linux; Android 5.1.1; Redmi Note 3 Build/LMY47V) AppleWebKit/537.36 (KHTML, like Gecko) Version/4.0 Chrome/37.0.0.0 Mobile MQQBrowser/6.8 TBS/036849 Safari/537.36 MicroMessenger/6.3.27.880 NetType/WIFI Language/zh_CN'
p1231
sg16
S'e5e55eadd31333dc0403af5757921e00'
p1232
sa(dp1233
g2
S'17720'
p1234
sg4
S'4789'
p1235
sg6
S'03f52a4f7e66c7ccc384ce91e7bd50e9'
p1236
sg8
S'xx01a5237e7e68a910b2304c9470bd81cd'
p1237
sg10
S'xxe4de87140e1bdb5e853a6fb37f537c00'
p1238
sg12
S'xxcc458920e498aaac7714e99259d086ab'
p1239
sg14
S'Mozilla/5.0 (Linux; Android 5.1.1; Redmi Note 3 Build/LMY47V) AppleWebKit/537.36 (KHTML, like Gecko) Version/4.0 Chrome/37.0.0.0 Mobile MQQBrowser/6.8 TBS/036849 Safari/537.36 MicroMessenger/6.3.27.880 NetType/WIFI Language/zh_CN'
p1240
sg16
S'e5e55eadd31333dc0403af5757921e00'
p1241
sa(dp1242
g2
S'17720'
p1243
sg4
S'4804'
p1244
sg6
S'03f52a4f7e66c7ccc384ce91e7bd50e9'
p1245
sg8
S'xx01a5237e7e68a910b2304c9470bd81cd'
p1246
sg10
S'xxe4de87140e1bdb5e853a6fb37f537c00'
p1247
sg12
S'xxcc458920e498aaac7714e99259d086ab'
p1248
sg14
S'Mozilla/5.0 (Linux; Android 5.1.1; Redmi Note 3 Build/LMY47V) AppleWebKit/537.36 (KHTML, like Gecko) Version/4.0 Chrome/37.0.0.0 Mobile MQQBrowser/6.8 TBS/036849 Safari/537.36 MicroMessenger/6.3.27.880 NetType/WIFI Language/zh_CN'
p1249
sg16
S'e5e55eadd31333dc0403af5757921e00'
p1250
sa(dp1251
g2
S'17720'
p1252
sg4
S'4818'
p1253
sg6
S'03f52a4f7e66c7ccc384ce91e7bd50e9'
p1254
sg8
S'xx01a5237e7e68a910b2304c9470bd81cd'
p1255
sg10
S'xxe4de87140e1bdb5e853a6fb37f537c00'
p1256
sg12
S'xxcc458920e498aaac7714e99259d086ab'
p1257
sg14
S'Mozilla/5.0 (Linux; Android 5.1.1; Redmi Note 3 Build/LMY47V) AppleWebKit/537.36 (KHTML, like Gecko) Version/4.0 Chrome/37.0.0.0 Mobile MQQBrowser/6.8 TBS/036849 Safari/537.36 MicroMessenger/6.3.27.880 NetType/WIFI Language/zh_CN'
p1258
sg16
S'e5e55eadd31333dc0403af5757921e00'
p1259
sa(dp1260
g2
S'17720'
p1261
sg4
S'4833'
p1262
sg6
S'03f52a4f7e66c7ccc384ce91e7bd50e9'
p1263
sg8
S'xx01a5237e7e68a910b2304c9470bd81cd'
p1264
sg10
S'xxe4de87140e1bdb5e853a6fb37f537c00'
p1265
sg12
S'xxcc458920e498aaac7714e99259d086ab'
p1266
sg14
S'Mozilla/5.0 (Linux; Android 5.1.1; Redmi Note 3 Build/LMY47V) AppleWebKit/537.36 (KHTML, like Gecko) Version/4.0 Chrome/37.0.0.0 Mobile MQQBrowser/6.8 TBS/036849 Safari/537.36 MicroMessenger/6.3.27.880 NetType/WIFI Language/zh_CN'
p1267
sg16
S'e5e55eadd31333dc0403af5757921e00'
p1268
sa(dp1269
g2
S'17720'
p1270
sg4
S'4849'
p1271
sg6
S'03f52a4f7e66c7ccc384ce91e7bd50e9'
p1272
sg8
S'xx01a5237e7e68a910b2304c9470bd81cd'
p1273
sg10
S'xxe4de87140e1bdb5e853a6fb37f537c00'
p1274
sg12
S'xxcc458920e498aaac7714e99259d086ab'
p1275
sg14
S'Mozilla/5.0 (Linux; Android 5.1.1; Redmi Note 3 Build/LMY47V) AppleWebKit/537.36 (KHTML, like Gecko) Version/4.0 Chrome/37.0.0.0 Mobile MQQBrowser/6.8 TBS/036849 Safari/537.36 MicroMessenger/6.3.27.880 NetType/WIFI Language/zh_CN'
p1276
sg16
S'e5e55eadd31333dc0403af5757921e00'
p1277
sa(dp1278
g2
S'17720'
p1279
sg4
S'4865'
p1280
sg6
S'03f52a4f7e66c7ccc384ce91e7bd50e9'
p1281
sg8
S'xx01a5237e7e68a910b2304c9470bd81cd'
p1282
sg10
S'xxe4de87140e1bdb5e853a6fb37f537c00'
p1283
sg12
S'xxcc458920e498aaac7714e99259d086ab'
p1284
sg14
S'Mozilla/5.0 (Linux; Android 5.1.1; Redmi Note 3 Build/LMY47V) AppleWebKit/537.36 (KHTML, like Gecko) Version/4.0 Chrome/37.0.0.0 Mobile MQQBrowser/6.8 TBS/036849 Safari/537.36 MicroMessenger/6.3.27.880 NetType/WIFI Language/zh_CN'
p1285
sg16
S'e5e55eadd31333dc0403af5757921e00'
p1286
sa(dp1287
g2
S'17720'
p1288
sg4
S'4944'
p1289
sg6
S'03f52a4f7e66c7ccc384ce91e7bd50e9'
p1290
sg8
S'xx01a5237e7e68a910b2304c9470bd81cd'
p1291
sg10
S'xxe4de87140e1bdb5e853a6fb37f537c00'
p1292
sg12
S'xxcc458920e498aaac7714e99259d086ab'
p1293
sg14
S'Mozilla/5.0 (Linux; Android 5.1.1; Redmi Note 3 Build/LMY47V) AppleWebKit/537.36 (KHTML, like Gecko) Version/4.0 Chrome/37.0.0.0 Mobile MQQBrowser/6.8 TBS/036849 Safari/537.36 MicroMessenger/6.3.27.880 NetType/WIFI Language/zh_CN'
p1294
sg16
S'e5e55eadd31333dc0403af5757921e00'
p1295
sa(dp1296
g2
S'17720'
p1297
sg4
S'4958'
p1298
sg6
S'03f52a4f7e66c7ccc384ce91e7bd50e9'
p1299
sg8
S'xx01a5237e7e68a910b2304c9470bd81cd'
p1300
sg10
S'xxe4de87140e1bdb5e853a6fb37f537c00'
p1301
sg12
S'xxcc458920e498aaac7714e99259d086ab'
p1302
sg14
S'Mozilla/5.0 (Linux; Android 5.1.1; Redmi Note 3 Build/LMY47V) AppleWebKit/537.36 (KHTML, like Gecko) Version/4.0 Chrome/37.0.0.0 Mobile MQQBrowser/6.8 TBS/036849 Safari/537.36 MicroMessenger/6.3.27.880 NetType/WIFI Language/zh_CN'
p1303
sg16
S'e5e55eadd31333dc0403af5757921e00'
p1304
sa(dp1305
g2
S'17720'
p1306
sg4
S'4973'
p1307
sg6
S'03f52a4f7e66c7ccc384ce91e7bd50e9'
p1308
sg8
S'xx01a5237e7e68a910b2304c9470bd81cd'
p1309
sg10
S'xxe4de87140e1bdb5e853a6fb37f537c00'
p1310
sg12
S'xxcc458920e498aaac7714e99259d086ab'
p1311
sg14
S'Mozilla/5.0 (Linux; Android 5.1.1; Redmi Note 3 Build/LMY47V) AppleWebKit/537.36 (KHTML, like Gecko) Version/4.0 Chrome/37.0.0.0 Mobile MQQBrowser/6.8 TBS/036849 Safari/537.36 MicroMessenger/6.3.27.880 NetType/WIFI Language/zh_CN'
p1312
sg16
S'e5e55eadd31333dc0403af5757921e00'
p1313
sa(dp1314
g2
S'17720'
p1315
sg4
S'4990'
p1316
sg6
S'03f52a4f7e66c7ccc384ce91e7bd50e9'
p1317
sg8
S'xx01a5237e7e68a910b2304c9470bd81cd'
p1318
sg10
S'xxe4de87140e1bdb5e853a6fb37f537c00'
p1319
sg12
S'xxcc458920e498aaac7714e99259d086ab'
p1320
sg14
S'Mozilla/5.0 (Linux; Android 5.1.1; Redmi Note 3 Build/LMY47V) AppleWebKit/537.36 (KHTML, like Gecko) Version/4.0 Chrome/37.0.0.0 Mobile MQQBrowser/6.8 TBS/036849 Safari/537.36 MicroMessenger/6.3.27.880 NetType/WIFI Language/zh_CN'
p1321
sg16
S'e5e55eadd31333dc0403af5757921e00'
p1322
sa(dp1323
g2
S'17720'
p1324
sg4
S'5003'
p1325
sg6
S'03f52a4f7e66c7ccc384ce91e7bd50e9'
p1326
sg8
S'xx01a5237e7e68a910b2304c9470bd81cd'
p1327
sg10
S'xxe4de87140e1bdb5e853a6fb37f537c00'
p1328
sg12
S'xxcc458920e498aaac7714e99259d086ab'
p1329
sg14
S'Mozilla/5.0 (Linux; Android 5.1.1; Redmi Note 3 Build/LMY47V) AppleWebKit/537.36 (KHTML, like Gecko) Version/4.0 Chrome/37.0.0.0 Mobile MQQBrowser/6.8 TBS/036849 Safari/537.36 MicroMessenger/6.3.27.880 NetType/WIFI Language/zh_CN'
p1330
sg16
S'e5e55eadd31333dc0403af5757921e00'
p1331
sa(dp1332
g2
S'17720'
p1333
sg4
S'5016'
p1334
sg6
S'03f52a4f7e66c7ccc384ce91e7bd50e9'
p1335
sg8
S'xx01a5237e7e68a910b2304c9470bd81cd'
p1336
sg10
S'xxe4de87140e1bdb5e853a6fb37f537c00'
p1337
sg12
S'xxcc458920e498aaac7714e99259d086ab'
p1338
sg14
S'Mozilla/5.0 (Linux; Android 5.1.1; Redmi Note 3 Build/LMY47V) AppleWebKit/537.36 (KHTML, like Gecko) Version/4.0 Chrome/37.0.0.0 Mobile MQQBrowser/6.8 TBS/036849 Safari/537.36 MicroMessenger/6.3.27.880 NetType/WIFI Language/zh_CN'
p1339
sg16
S'e5e55eadd31333dc0403af5757921e00'
p1340
sa(dp1341
g2
S'17720'
p1342
sg4
S'5035'
p1343
sg6
S'03f52a4f7e66c7ccc384ce91e7bd50e9'
p1344
sg8
S'xx01a5237e7e68a910b2304c9470bd81cd'
p1345
sg10
S'xxe4de87140e1bdb5e853a6fb37f537c00'
p1346
sg12
S'xxcc458920e498aaac7714e99259d086ab'
p1347
sg14
S'Mozilla/5.0 (Linux; Android 5.1.1; Redmi Note 3 Build/LMY47V) AppleWebKit/537.36 (KHTML, like Gecko) Version/4.0 Chrome/37.0.0.0 Mobile MQQBrowser/6.8 TBS/036849 Safari/537.36 MicroMessenger/6.3.27.880 NetType/WIFI Language/zh_CN'
p1348
sg16
S'e5e55eadd31333dc0403af5757921e00'
p1349
sa(dp1350
g2
S'17720'
p1351
sg4
S'5052'
p1352
sg6
S'03f52a4f7e66c7ccc384ce91e7bd50e9'
p1353
sg8
S'xx01a5237e7e68a910b2304c9470bd81cd'
p1354
sg10
S'xxe4de87140e1bdb5e853a6fb37f537c00'
p1355
sg12
S'xxcc458920e498aaac7714e99259d086ab'
p1356
sg14
S'Mozilla/5.0 (Linux; Android 5.1.1; Redmi Note 3 Build/LMY47V) AppleWebKit/537.36 (KHTML, like Gecko) Version/4.0 Chrome/37.0.0.0 Mobile MQQBrowser/6.8 TBS/036849 Safari/537.36 MicroMessenger/6.3.27.880 NetType/WIFI Language/zh_CN'
p1357
sg16
S'e5e55eadd31333dc0403af5757921e00'
p1358
sa(dp1359
g2
S'17720'
p1360
sg4
S'5067'
p1361
sg6
S'03f52a4f7e66c7ccc384ce91e7bd50e9'
p1362
sg8
S'xx01a5237e7e68a910b2304c9470bd81cd'
p1363
sg10
S'xxe4de87140e1bdb5e853a6fb37f537c00'
p1364
sg12
S'xxcc458920e498aaac7714e99259d086ab'
p1365
sg14
S'Mozilla/5.0 (Linux; Android 5.1.1; Redmi Note 3 Build/LMY47V) AppleWebKit/537.36 (KHTML, like Gecko) Version/4.0 Chrome/37.0.0.0 Mobile MQQBrowser/6.8 TBS/036849 Safari/537.36 MicroMessenger/6.3.27.880 NetType/WIFI Language/zh_CN'
p1366
sg16
S'e5e55eadd31333dc0403af5757921e00'
p1367
sa(dp1368
g2
S'17720'
p1369
sg4
S'5084'
p1370
sg6
S'03f52a4f7e66c7ccc384ce91e7bd50e9'
p1371
sg8
S'xx01a5237e7e68a910b2304c9470bd81cd'
p1372
sg10
S'xxe4de87140e1bdb5e853a6fb37f537c00'
p1373
sg12
S'xxcc458920e498aaac7714e99259d086ab'
p1374
sg14
S'Mozilla/5.0 (Linux; Android 5.1.1; Redmi Note 3 Build/LMY47V) AppleWebKit/537.36 (KHTML, like Gecko) Version/4.0 Chrome/37.0.0.0 Mobile MQQBrowser/6.8 TBS/036849 Safari/537.36 MicroMessenger/6.3.27.880 NetType/WIFI Language/zh_CN'
p1375
sg16
S'e5e55eadd31333dc0403af5757921e00'
p1376
sa(dp1377
g2
S'17720'
p1378
sg4
S'5101'
p1379
sg6
S'03f52a4f7e66c7ccc384ce91e7bd50e9'
p1380
sg8
S'xx01a5237e7e68a910b2304c9470bd81cd'
p1381
sg10
S'xxe4de87140e1bdb5e853a6fb37f537c00'
p1382
sg12
S'xxcc458920e498aaac7714e99259d086ab'
p1383
sg14
S'Mozilla/5.0 (Linux; Android 5.1.1; Redmi Note 3 Build/LMY47V) AppleWebKit/537.36 (KHTML, like Gecko) Version/4.0 Chrome/37.0.0.0 Mobile MQQBrowser/6.8 TBS/036849 Safari/537.36 MicroMessenger/6.3.27.880 NetType/WIFI Language/zh_CN'
p1384
sg16
S'e5e55eadd31333dc0403af5757921e00'
p1385
sa(dp1386
g2
S'17720'
p1387
sg4
S'5118'
p1388
sg6
S'03f52a4f7e66c7ccc384ce91e7bd50e9'
p1389
sg8
S'xx01a5237e7e68a910b2304c9470bd81cd'
p1390
sg10
S'xxe4de87140e1bdb5e853a6fb37f537c00'
p1391
sg12
S'xxcc458920e498aaac7714e99259d086ab'
p1392
sg14
S'Mozilla/5.0 (Linux; Android 5.1.1; Redmi Note 3 Build/LMY47V) AppleWebKit/537.36 (KHTML, like Gecko) Version/4.0 Chrome/37.0.0.0 Mobile MQQBrowser/6.8 TBS/036849 Safari/537.36 MicroMessenger/6.3.27.880 NetType/WIFI Language/zh_CN'
p1393
sg16
S'e5e55eadd31333dc0403af5757921e00'
p1394
sa(dp1395
g2
S'17720'
p1396
sg4
S'5131'
p1397
sg6
S'03f52a4f7e66c7ccc384ce91e7bd50e9'
p1398
sg8
S'xx01a5237e7e68a910b2304c9470bd81cd'
p1399
sg10
S'xxe4de87140e1bdb5e853a6fb37f537c00'
p1400
sg12
S'xxcc458920e498aaac7714e99259d086ab'
p1401
sg14
S'Mozilla/5.0 (Linux; Android 5.1.1; Redmi Note 3 Build/LMY47V) AppleWebKit/537.36 (KHTML, like Gecko) Version/4.0 Chrome/37.0.0.0 Mobile MQQBrowser/6.8 TBS/036849 Safari/537.36 MicroMessenger/6.3.27.880 NetType/WIFI Language/zh_CN'
p1402
sg16
S'e5e55eadd31333dc0403af5757921e00'
p1403
sa(dp1404
g2
S'17720'
p1405
sg4
S'5145'
p1406
sg6
S'03f52a4f7e66c7ccc384ce91e7bd50e9'
p1407
sg8
S'xx01a5237e7e68a910b2304c9470bd81cd'
p1408
sg10
S'xxe4de87140e1bdb5e853a6fb37f537c00'
p1409
sg12
S'xxcc458920e498aaac7714e99259d086ab'
p1410
sg14
S'Mozilla/5.0 (Linux; Android 5.1.1; Redmi Note 3 Build/LMY47V) AppleWebKit/537.36 (KHTML, like Gecko) Version/4.0 Chrome/37.0.0.0 Mobile MQQBrowser/6.8 TBS/036849 Safari/537.36 MicroMessenger/6.3.27.880 NetType/WIFI Language/zh_CN'
p1411
sg16
S'e5e55eadd31333dc0403af5757921e00'
p1412
sa(dp1413
g2
S'17720'
p1414
sg4
S'5162'
p1415
sg6
S'03f52a4f7e66c7ccc384ce91e7bd50e9'
p1416
sg8
S'xx01a5237e7e68a910b2304c9470bd81cd'
p1417
sg10
S'xxe4de87140e1bdb5e853a6fb37f537c00'
p1418
sg12
S'xxcc458920e498aaac7714e99259d086ab'
p1419
sg14
S'Mozilla/5.0 (Linux; Android 5.1.1; Redmi Note 3 Build/LMY47V) AppleWebKit/537.36 (KHTML, like Gecko) Version/4.0 Chrome/37.0.0.0 Mobile MQQBrowser/6.8 TBS/036849 Safari/537.36 MicroMessenger/6.3.27.880 NetType/WIFI Language/zh_CN'
p1420
sg16
S'e5e55eadd31333dc0403af5757921e00'
p1421
sa(dp1422
g2
S'17720'
p1423
sg4
S'5180'
p1424
sg6
S'03f52a4f7e66c7ccc384ce91e7bd50e9'
p1425
sg8
S'xx01a5237e7e68a910b2304c9470bd81cd'
p1426
sg10
S'xxe4de87140e1bdb5e853a6fb37f537c00'
p1427
sg12
S'xxcc458920e498aaac7714e99259d086ab'
p1428
sg14
S'Mozilla/5.0 (Linux; Android 5.1.1; Redmi Note 3 Build/LMY47V) AppleWebKit/537.36 (KHTML, like Gecko) Version/4.0 Chrome/37.0.0.0 Mobile MQQBrowser/6.8 TBS/036849 Safari/537.36 MicroMessenger/6.3.27.880 NetType/WIFI Language/zh_CN'
p1429
sg16
S'e5e55eadd31333dc0403af5757921e00'
p1430
sa(dp1431
g2
S'17720'
p1432
sg4
S'5198'
p1433
sg6
S'03f52a4f7e66c7ccc384ce91e7bd50e9'
p1434
sg8
S'xx01a5237e7e68a910b2304c9470bd81cd'
p1435
sg10
S'xxe4de87140e1bdb5e853a6fb37f537c00'
p1436
sg12
S'xxcc458920e498aaac7714e99259d086ab'
p1437
sg14
S'Mozilla/5.0 (Linux; Android 5.1.1; Redmi Note 3 Build/LMY47V) AppleWebKit/537.36 (KHTML, like Gecko) Version/4.0 Chrome/37.0.0.0 Mobile MQQBrowser/6.8 TBS/036849 Safari/537.36 MicroMessenger/6.3.27.880 NetType/WIFI Language/zh_CN'
p1438
sg16
S'e5e55eadd31333dc0403af5757921e00'
p1439
sa(dp1440
g2
S'17720'
p1441
sg4
S'5213'
p1442
sg6
S'03f52a4f7e66c7ccc384ce91e7bd50e9'
p1443
sg8
S'xx01a5237e7e68a910b2304c9470bd81cd'
p1444
sg10
S'xxe4de87140e1bdb5e853a6fb37f537c00'
p1445
sg12
S'xxcc458920e498aaac7714e99259d086ab'
p1446
sg14
S'Mozilla/5.0 (Linux; Android 5.1.1; Redmi Note 3 Build/LMY47V) AppleWebKit/537.36 (KHTML, like Gecko) Version/4.0 Chrome/37.0.0.0 Mobile MQQBrowser/6.8 TBS/036849 Safari/537.36 MicroMessenger/6.3.27.880 NetType/WIFI Language/zh_CN'
p1447
sg16
S'e5e55eadd31333dc0403af5757921e00'
p1448
sa(dp1449
g2
S'17720'
p1450
sg4
S'5226'
p1451
sg6
S'03f52a4f7e66c7ccc384ce91e7bd50e9'
p1452
sg8
S'xx01a5237e7e68a910b2304c9470bd81cd'
p1453
sg10
S'xxe4de87140e1bdb5e853a6fb37f537c00'
p1454
sg12
S'xxcc458920e498aaac7714e99259d086ab'
p1455
sg14
S'Mozilla/5.0 (Linux; Android 5.1.1; Redmi Note 3 Build/LMY47V) AppleWebKit/537.36 (KHTML, like Gecko) Version/4.0 Chrome/37.0.0.0 Mobile MQQBrowser/6.8 TBS/036849 Safari/537.36 MicroMessenger/6.3.27.880 NetType/WIFI Language/zh_CN'
p1456
sg16
S'e5e55eadd31333dc0403af5757921e00'
p1457
sa(dp1458
g2
S'17720'
p1459
sg4
S'5238'
p1460
sg6
S'03f52a4f7e66c7ccc384ce91e7bd50e9'
p1461
sg8
S'xx01a5237e7e68a910b2304c9470bd81cd'
p1462
sg10
S'xxe4de87140e1bdb5e853a6fb37f537c00'
p1463
sg12
S'xxcc458920e498aaac7714e99259d086ab'
p1464
sg14
S'Mozilla/5.0 (Linux; Android 5.1.1; Redmi Note 3 Build/LMY47V) AppleWebKit/537.36 (KHTML, like Gecko) Version/4.0 Chrome/37.0.0.0 Mobile MQQBrowser/6.8 TBS/036849 Safari/537.36 MicroMessenger/6.3.27.880 NetType/WIFI Language/zh_CN'
p1465
sg16
S'e5e55eadd31333dc0403af5757921e00'
p1466
sa(dp1467
g2
S'17720'
p1468
sg4
S'5256'
p1469
sg6
S'03f52a4f7e66c7ccc384ce91e7bd50e9'
p1470
sg8
S'xx01a5237e7e68a910b2304c9470bd81cd'
p1471
sg10
S'xxe4de87140e1bdb5e853a6fb37f537c00'
p1472
sg12
S'xxcc458920e498aaac7714e99259d086ab'
p1473
sg14
S'Mozilla/5.0 (Linux; Android 5.1.1; Redmi Note 3 Build/LMY47V) AppleWebKit/537.36 (KHTML, like Gecko) Version/4.0 Chrome/37.0.0.0 Mobile MQQBrowser/6.8 TBS/036849 Safari/537.36 MicroMessenger/6.3.27.880 NetType/WIFI Language/zh_CN'
p1474
sg16
S'e5e55eadd31333dc0403af5757921e00'
p1475
sa(dp1476
g2
S'17720'
p1477
sg4
S'5272'
p1478
sg6
S'03f52a4f7e66c7ccc384ce91e7bd50e9'
p1479
sg8
S'xx01a5237e7e68a910b2304c9470bd81cd'
p1480
sg10
S'xxe4de87140e1bdb5e853a6fb37f537c00'
p1481
sg12
S'xxcc458920e498aaac7714e99259d086ab'
p1482
sg14
S'Mozilla/5.0 (Linux; Android 5.1.1; Redmi Note 3 Build/LMY47V) AppleWebKit/537.36 (KHTML, like Gecko) Version/4.0 Chrome/37.0.0.0 Mobile MQQBrowser/6.8 TBS/036849 Safari/537.36 MicroMessenger/6.3.27.880 NetType/WIFI Language/zh_CN'
p1483
sg16
S'e5e55eadd31333dc0403af5757921e00'
p1484
sa(dp1485
g2
S'17720'
p1486
sg4
S'5288'
p1487
sg6
S'03f52a4f7e66c7ccc384ce91e7bd50e9'
p1488
sg8
S'xx01a5237e7e68a910b2304c9470bd81cd'
p1489
sg10
S'xxe4de87140e1bdb5e853a6fb37f537c00'
p1490
sg12
S'xxcc458920e498aaac7714e99259d086ab'
p1491
sg14
S'Mozilla/5.0 (Linux; Android 5.1.1; Redmi Note 3 Build/LMY47V) AppleWebKit/537.36 (KHTML, like Gecko) Version/4.0 Chrome/37.0.0.0 Mobile MQQBrowser/6.8 TBS/036849 Safari/537.36 MicroMessenger/6.3.27.880 NetType/WIFI Language/zh_CN'
p1492
sg16
S'e5e55eadd31333dc0403af5757921e00'
p1493
sa(dp1494
g2
S'17720'
p1495
sg4
S'5303'
p1496
sg6
S'03f52a4f7e66c7ccc384ce91e7bd50e9'
p1497
sg8
S'xx01a5237e7e68a910b2304c9470bd81cd'
p1498
sg10
S'xxe4de87140e1bdb5e853a6fb37f537c00'
p1499
sg12
S'xxcc458920e498aaac7714e99259d086ab'
p1500
sg14
S'Mozilla/5.0 (Linux; Android 5.1.1; Redmi Note 3 Build/LMY47V) AppleWebKit/537.36 (KHTML, like Gecko) Version/4.0 Chrome/37.0.0.0 Mobile MQQBrowser/6.8 TBS/036849 Safari/537.36 MicroMessenger/6.3.27.880 NetType/WIFI Language/zh_CN'
p1501
sg16
S'e5e55eadd31333dc0403af5757921e00'
p1502
sa(dp1503
g2
S'17720'
p1504
sg4
S'5316'
p1505
sg6
S'03f52a4f7e66c7ccc384ce91e7bd50e9'
p1506
sg8
S'xx01a5237e7e68a910b2304c9470bd81cd'
p1507
sg10
S'xxe4de87140e1bdb5e853a6fb37f537c00'
p1508
sg12
S'xxcc458920e498aaac7714e99259d086ab'
p1509
sg14
S'Mozilla/5.0 (Linux; Android 5.1.1; Redmi Note 3 Build/LMY47V) AppleWebKit/537.36 (KHTML, like Gecko) Version/4.0 Chrome/37.0.0.0 Mobile MQQBrowser/6.8 TBS/036849 Safari/537.36 MicroMessenger/6.3.27.880 NetType/WIFI Language/zh_CN'
p1510
sg16
S'e5e55eadd31333dc0403af5757921e00'
p1511
sa(dp1512
g2
S'17720'
p1513
sg4
S'5333'
p1514
sg6
S'03f52a4f7e66c7ccc384ce91e7bd50e9'
p1515
sg8
S'xx01a5237e7e68a910b2304c9470bd81cd'
p1516
sg10
S'xxe4de87140e1bdb5e853a6fb37f537c00'
p1517
sg12
S'xxcc458920e498aaac7714e99259d086ab'
p1518
sg14
S'Mozilla/5.0 (Linux; Android 5.1.1; Redmi Note 3 Build/LMY47V) AppleWebKit/537.36 (KHTML, like Gecko) Version/4.0 Chrome/37.0.0.0 Mobile MQQBrowser/6.8 TBS/036849 Safari/537.36 MicroMessenger/6.3.27.880 NetType/WIFI Language/zh_CN'
p1519
sg16
S'e5e55eadd31333dc0403af5757921e00'
p1520
sa(dp1521
g2
S'17720'
p1522
sg4
S'5346'
p1523
sg6
S'03f52a4f7e66c7ccc384ce91e7bd50e9'
p1524
sg8
S'xx01a5237e7e68a910b2304c9470bd81cd'
p1525
sg10
S'xxe4de87140e1bdb5e853a6fb37f537c00'
p1526
sg12
S'xxcc458920e498aaac7714e99259d086ab'
p1527
sg14
S'Mozilla/5.0 (Linux; Android 5.1.1; Redmi Note 3 Build/LMY47V) AppleWebKit/537.36 (KHTML, like Gecko) Version/4.0 Chrome/37.0.0.0 Mobile MQQBrowser/6.8 TBS/036849 Safari/537.36 MicroMessenger/6.3.27.880 NetType/WIFI Language/zh_CN'
p1528
sg16
S'e5e55eadd31333dc0403af5757921e00'
p1529
sa(dp1530
g2
S'17720'
p1531
sg4
S'5364'
p1532
sg6
S'03f52a4f7e66c7ccc384ce91e7bd50e9'
p1533
sg8
S'xx01a5237e7e68a910b2304c9470bd81cd'
p1534
sg10
S'xxe4de87140e1bdb5e853a6fb37f537c00'
p1535
sg12
S'xxcc458920e498aaac7714e99259d086ab'
p1536
sg14
S'Mozilla/5.0 (Linux; Android 5.1.1; Redmi Note 3 Build/LMY47V) AppleWebKit/537.36 (KHTML, like Gecko) Version/4.0 Chrome/37.0.0.0 Mobile MQQBrowser/6.8 TBS/036849 Safari/537.36 MicroMessenger/6.3.27.880 NetType/WIFI Language/zh_CN'
p1537
sg16
S'e5e55eadd31333dc0403af5757921e00'
p1538
sa(dp1539
g2
S'17720'
p1540
sg4
S'5374'
p1541
sg6
S'03f52a4f7e66c7ccc384ce91e7bd50e9'
p1542
sg8
S'xx01a5237e7e68a910b2304c9470bd81cd'
p1543
sg10
S'xxe4de87140e1bdb5e853a6fb37f537c00'
p1544
sg12
S'xxcc458920e498aaac7714e99259d086ab'
p1545
sg14
S'Mozilla/5.0 (Linux; Android 5.1.1; Redmi Note 3 Build/LMY47V) AppleWebKit/537.36 (KHTML, like Gecko) Version/4.0 Chrome/37.0.0.0 Mobile MQQBrowser/6.8 TBS/036849 Safari/537.36 MicroMessenger/6.3.27.880 NetType/WIFI Language/zh_CN'
p1546
sg16
S'e5e55eadd31333dc0403af5757921e00'
p1547
sa(dp1548
g2
S'17720'
p1549
sg4
S'5388'
p1550
sg6
S'03f52a4f7e66c7ccc384ce91e7bd50e9'
p1551
sg8
S'xx01a5237e7e68a910b2304c9470bd81cd'
p1552
sg10
S'xxe4de87140e1bdb5e853a6fb37f537c00'
p1553
sg12
S'xxcc458920e498aaac7714e99259d086ab'
p1554
sg14
S'Mozilla/5.0 (Linux; Android 5.1.1; Redmi Note 3 Build/LMY47V) AppleWebKit/537.36 (KHTML, like Gecko) Version/4.0 Chrome/37.0.0.0 Mobile MQQBrowser/6.8 TBS/036849 Safari/537.36 MicroMessenger/6.3.27.880 NetType/WIFI Language/zh_CN'
p1555
sg16
S'e5e55eadd31333dc0403af5757921e00'
p1556
sa(dp1557
g2
S'17720'
p1558
sg4
S'5407'
p1559
sg6
S'03f52a4f7e66c7ccc384ce91e7bd50e9'
p1560
sg8
S'xx01a5237e7e68a910b2304c9470bd81cd'
p1561
sg10
S'xxe4de87140e1bdb5e853a6fb37f537c00'
p1562
sg12
S'xxcc458920e498aaac7714e99259d086ab'
p1563
sg14
S'Mozilla/5.0 (Linux; Android 5.1.1; Redmi Note 3 Build/LMY47V) AppleWebKit/537.36 (KHTML, like Gecko) Version/4.0 Chrome/37.0.0.0 Mobile MQQBrowser/6.8 TBS/036849 Safari/537.36 MicroMessenger/6.3.27.880 NetType/WIFI Language/zh_CN'
p1564
sg16
S'e5e55eadd31333dc0403af5757921e00'
p1565
sa(dp1566
g2
S'17720'
p1567
sg4
S'5521'
p1568
sg6
S'03f52a4f7e66c7ccc384ce91e7bd50e9'
p1569
sg8
S'xx01a5237e7e68a910b2304c9470bd81cd'
p1570
sg10
S'xxe4de87140e1bdb5e853a6fb37f537c00'
p1571
sg12
S'xxcc458920e498aaac7714e99259d086ab'
p1572
sg14
S'Mozilla/5.0 (Linux; Android 5.1.1; Redmi Note 3 Build/LMY47V) AppleWebKit/537.36 (KHTML, like Gecko) Version/4.0 Chrome/37.0.0.0 Mobile MQQBrowser/6.8 TBS/036849 Safari/537.36 MicroMessenger/6.3.27.880 NetType/WIFI Language/zh_CN'
p1573
sg16
S'e5e55eadd31333dc0403af5757921e00'
p1574
sa(dp1575
g2
S'17720'
p1576
sg4
S'5540'
p1577
sg6
S'03f52a4f7e66c7ccc384ce91e7bd50e9'
p1578
sg8
S'xx01a5237e7e68a910b2304c9470bd81cd'
p1579
sg10
S'xxe4de87140e1bdb5e853a6fb37f537c00'
p1580
sg12
S'xxcc458920e498aaac7714e99259d086ab'
p1581
sg14
S'Mozilla/5.0 (Linux; Android 5.1.1; Redmi Note 3 Build/LMY47V) AppleWebKit/537.36 (KHTML, like Gecko) Version/4.0 Chrome/37.0.0.0 Mobile MQQBrowser/6.8 TBS/036849 Safari/537.36 MicroMessenger/6.3.27.880 NetType/WIFI Language/zh_CN'
p1582
sg16
S'e5e55eadd31333dc0403af5757921e00'
p1583
sa(dp1584
g2
S'17720'
p1585
sg4
S'5557'
p1586
sg6
S'03f52a4f7e66c7ccc384ce91e7bd50e9'
p1587
sg8
S'xx01a5237e7e68a910b2304c9470bd81cd'
p1588
sg10
S'xxe4de87140e1bdb5e853a6fb37f537c00'
p1589
sg12
S'xxcc458920e498aaac7714e99259d086ab'
p1590
sg14
S'Mozilla/5.0 (Linux; Android 5.1.1; Redmi Note 3 Build/LMY47V) AppleWebKit/537.36 (KHTML, like Gecko) Version/4.0 Chrome/37.0.0.0 Mobile MQQBrowser/6.8 TBS/036849 Safari/537.36 MicroMessenger/6.3.27.880 NetType/WIFI Language/zh_CN'
p1591
sg16
S'e5e55eadd31333dc0403af5757921e00'
p1592
sa(dp1593
g2
S'17720'
p1594
sg4
S'5572'
p1595
sg6
S'03f52a4f7e66c7ccc384ce91e7bd50e9'
p1596
sg8
S'xx01a5237e7e68a910b2304c9470bd81cd'
p1597
sg10
S'xxe4de87140e1bdb5e853a6fb37f537c00'
p1598
sg12
S'xxcc458920e498aaac7714e99259d086ab'
p1599
sg14
S'Mozilla/5.0 (Linux; Android 5.1.1; Redmi Note 3 Build/LMY47V) AppleWebKit/537.36 (KHTML, like Gecko) Version/4.0 Chrome/37.0.0.0 Mobile MQQBrowser/6.8 TBS/036849 Safari/537.36 MicroMessenger/6.3.27.880 NetType/WIFI Language/zh_CN'
p1600
sg16
S'e5e55eadd31333dc0403af5757921e00'
p1601
sa(dp1602
g2
S'17720'
p1603
sg4
S'5590'
p1604
sg6
S'03f52a4f7e66c7ccc384ce91e7bd50e9'
p1605
sg8
S'xx01a5237e7e68a910b2304c9470bd81cd'
p1606
sg10
S'xxe4de87140e1bdb5e853a6fb37f537c00'
p1607
sg12
S'xxcc458920e498aaac7714e99259d086ab'
p1608
sg14
S'Mozilla/5.0 (Linux; Android 5.1.1; Redmi Note 3 Build/LMY47V) AppleWebKit/537.36 (KHTML, like Gecko) Version/4.0 Chrome/37.0.0.0 Mobile MQQBrowser/6.8 TBS/036849 Safari/537.36 MicroMessenger/6.3.27.880 NetType/WIFI Language/zh_CN'
p1609
sg16
S'e5e55eadd31333dc0403af5757921e00'
p1610
sa(dp1611
g2
S'17720'
p1612
sg4
S'5607'
p1613
sg6
S'03f52a4f7e66c7ccc384ce91e7bd50e9'
p1614
sg8
S'xx01a5237e7e68a910b2304c9470bd81cd'
p1615
sg10
S'xxe4de87140e1bdb5e853a6fb37f537c00'
p1616
sg12
S'xxcc458920e498aaac7714e99259d086ab'
p1617
sg14
S'Mozilla/5.0 (Linux; Android 5.1.1; Redmi Note 3 Build/LMY47V) AppleWebKit/537.36 (KHTML, like Gecko) Version/4.0 Chrome/37.0.0.0 Mobile MQQBrowser/6.8 TBS/036849 Safari/537.36 MicroMessenger/6.3.27.880 NetType/WIFI Language/zh_CN'
p1618
sg16
S'e5e55eadd31333dc0403af5757921e00'
p1619
sa(dp1620
g2
S'17720'
p1621
sg4
S'5618'
p1622
sg6
S'03f52a4f7e66c7ccc384ce91e7bd50e9'
p1623
sg8
S'xx01a5237e7e68a910b2304c9470bd81cd'
p1624
sg10
S'xxe4de87140e1bdb5e853a6fb37f537c00'
p1625
sg12
S'xxcc458920e498aaac7714e99259d086ab'
p1626
sg14
S'Mozilla/5.0 (Linux; Android 5.1.1; Redmi Note 3 Build/LMY47V) AppleWebKit/537.36 (KHTML, like Gecko) Version/4.0 Chrome/37.0.0.0 Mobile MQQBrowser/6.8 TBS/036849 Safari/537.36 MicroMessenger/6.3.27.880 NetType/WIFI Language/zh_CN'
p1627
sg16
S'e5e55eadd31333dc0403af5757921e00'
p1628
sa(dp1629
g2
S'17720'
p1630
sg4
S'5636'
p1631
sg6
S'03f52a4f7e66c7ccc384ce91e7bd50e9'
p1632
sg8
S'xx01a5237e7e68a910b2304c9470bd81cd'
p1633
sg10
S'xxe4de87140e1bdb5e853a6fb37f537c00'
p1634
sg12
S'xxcc458920e498aaac7714e99259d086ab'
p1635
sg14
S'Mozilla/5.0 (Linux; Android 5.1.1; Redmi Note 3 Build/LMY47V) AppleWebKit/537.36 (KHTML, like Gecko) Version/4.0 Chrome/37.0.0.0 Mobile MQQBrowser/6.8 TBS/036849 Safari/537.36 MicroMessenger/6.3.27.880 NetType/WIFI Language/zh_CN'
p1636
sg16
S'e5e55eadd31333dc0403af5757921e00'
p1637
sa(dp1638
g2
S'17720'
p1639
sg4
S'5650'
p1640
sg6
S'03f52a4f7e66c7ccc384ce91e7bd50e9'
p1641
sg8
S'xx01a5237e7e68a910b2304c9470bd81cd'
p1642
sg10
S'xxe4de87140e1bdb5e853a6fb37f537c00'
p1643
sg12
S'xxcc458920e498aaac7714e99259d086ab'
p1644
sg14
S'Mozilla/5.0 (Linux; Android 5.1.1; Redmi Note 3 Build/LMY47V) AppleWebKit/537.36 (KHTML, like Gecko) Version/4.0 Chrome/37.0.0.0 Mobile MQQBrowser/6.8 TBS/036849 Safari/537.36 MicroMessenger/6.3.27.880 NetType/WIFI Language/zh_CN'
p1645
sg16
S'e5e55eadd31333dc0403af5757921e00'
p1646
sa(dp1647
g2
S'17720'
p1648
sg4
S'5665'
p1649
sg6
S'03f52a4f7e66c7ccc384ce91e7bd50e9'
p1650
sg8
S'xx01a5237e7e68a910b2304c9470bd81cd'
p1651
sg10
S'xxe4de87140e1bdb5e853a6fb37f537c00'
p1652
sg12
S'xxcc458920e498aaac7714e99259d086ab'
p1653
sg14
S'Mozilla/5.0 (Linux; Android 5.1.1; Redmi Note 3 Build/LMY47V) AppleWebKit/537.36 (KHTML, like Gecko) Version/4.0 Chrome/37.0.0.0 Mobile MQQBrowser/6.8 TBS/036849 Safari/537.36 MicroMessenger/6.3.27.880 NetType/WIFI Language/zh_CN'
p1654
sg16
S'e5e55eadd31333dc0403af5757921e00'
p1655
sa(dp1656
g2
S'17720'
p1657
sg4
S'5679'
p1658
sg6
S'03f52a4f7e66c7ccc384ce91e7bd50e9'
p1659
sg8
S'xx01a5237e7e68a910b2304c9470bd81cd'
p1660
sg10
S'xxe4de87140e1bdb5e853a6fb37f537c00'
p1661
sg12
S'xxcc458920e498aaac7714e99259d086ab'
p1662
sg14
S'Mozilla/5.0 (Linux; Android 5.1.1; Redmi Note 3 Build/LMY47V) AppleWebKit/537.36 (KHTML, like Gecko) Version/4.0 Chrome/37.0.0.0 Mobile MQQBrowser/6.8 TBS/036849 Safari/537.36 MicroMessenger/6.3.27.880 NetType/WIFI Language/zh_CN'
p1663
sg16
S'e5e55eadd31333dc0403af5757921e00'
p1664
sa(dp1665
g2
S'17720'
p1666
sg4
S'5696'
p1667
sg6
S'03f52a4f7e66c7ccc384ce91e7bd50e9'
p1668
sg8
S'xx01a5237e7e68a910b2304c9470bd81cd'
p1669
sg10
S'xxe4de87140e1bdb5e853a6fb37f537c00'
p1670
sg12
S'xxcc458920e498aaac7714e99259d086ab'
p1671
sg14
S'Mozilla/5.0 (Linux; Android 5.1.1; Redmi Note 3 Build/LMY47V) AppleWebKit/537.36 (KHTML, like Gecko) Version/4.0 Chrome/37.0.0.0 Mobile MQQBrowser/6.8 TBS/036849 Safari/537.36 MicroMessenger/6.3.27.880 NetType/WIFI Language/zh_CN'
p1672
sg16
S'e5e55eadd31333dc0403af5757921e00'
p1673
sa(dp1674
g2
S'17720'
p1675
sg4
S'5713'
p1676
sg6
S'03f52a4f7e66c7ccc384ce91e7bd50e9'
p1677
sg8
S'xx01a5237e7e68a910b2304c9470bd81cd'
p1678
sg10
S'xxe4de87140e1bdb5e853a6fb37f537c00'
p1679
sg12
S'xxcc458920e498aaac7714e99259d086ab'
p1680
sg14
S'Mozilla/5.0 (Linux; Android 5.1.1; Redmi Note 3 Build/LMY47V) AppleWebKit/537.36 (KHTML, like Gecko) Version/4.0 Chrome/37.0.0.0 Mobile MQQBrowser/6.8 TBS/036849 Safari/537.36 MicroMessenger/6.3.27.880 NetType/WIFI Language/zh_CN'
p1681
sg16
S'e5e55eadd31333dc0403af5757921e00'
p1682
sa(dp1683
g2
S'17720'
p1684
sg4
S'5728'
p1685
sg6
S'03f52a4f7e66c7ccc384ce91e7bd50e9'
p1686
sg8
S'xx01a5237e7e68a910b2304c9470bd81cd'
p1687
sg10
S'xxe4de87140e1bdb5e853a6fb37f537c00'
p1688
sg12
S'xxcc458920e498aaac7714e99259d086ab'
p1689
sg14
S'Mozilla/5.0 (Linux; Android 5.1.1; Redmi Note 3 Build/LMY47V) AppleWebKit/537.36 (KHTML, like Gecko) Version/4.0 Chrome/37.0.0.0 Mobile MQQBrowser/6.8 TBS/036849 Safari/537.36 MicroMessenger/6.3.27.880 NetType/WIFI Language/zh_CN'
p1690
sg16
S'e5e55eadd31333dc0403af5757921e00'
p1691
sa(dp1692
g2
S'17720'
p1693
sg4
S'5741'
p1694
sg6
S'03f52a4f7e66c7ccc384ce91e7bd50e9'
p1695
sg8
S'xx01a5237e7e68a910b2304c9470bd81cd'
p1696
sg10
S'xxe4de87140e1bdb5e853a6fb37f537c00'
p1697
sg12
S'xxcc458920e498aaac7714e99259d086ab'
p1698
sg14
S'Mozilla/5.0 (Linux; Android 5.1.1; Redmi Note 3 Build/LMY47V) AppleWebKit/537.36 (KHTML, like Gecko) Version/4.0 Chrome/37.0.0.0 Mobile MQQBrowser/6.8 TBS/036849 Safari/537.36 MicroMessenger/6.3.27.880 NetType/WIFI Language/zh_CN'
p1699
sg16
S'e5e55eadd31333dc0403af5757921e00'
p1700
sa(dp1701
g2
S'17720'
p1702
sg4
S'5760'
p1703
sg6
S'03f52a4f7e66c7ccc384ce91e7bd50e9'
p1704
sg8
S'xx01a5237e7e68a910b2304c9470bd81cd'
p1705
sg10
S'xxe4de87140e1bdb5e853a6fb37f537c00'
p1706
sg12
S'xxcc458920e498aaac7714e99259d086ab'
p1707
sg14
S'Mozilla/5.0 (Linux; Android 5.1.1; Redmi Note 3 Build/LMY47V) AppleWebKit/537.36 (KHTML, like Gecko) Version/4.0 Chrome/37.0.0.0 Mobile MQQBrowser/6.8 TBS/036849 Safari/537.36 MicroMessenger/6.3.27.880 NetType/WIFI Language/zh_CN'
p1708
sg16
S'e5e55eadd31333dc0403af5757921e00'
p1709
sa(dp1710
g2
S'17720'
p1711
sg4
S'5778'
p1712
sg6
S'03f52a4f7e66c7ccc384ce91e7bd50e9'
p1713
sg8
S'xx01a5237e7e68a910b2304c9470bd81cd'
p1714
sg10
S'xxe4de87140e1bdb5e853a6fb37f537c00'
p1715
sg12
S'xxcc458920e498aaac7714e99259d086ab'
p1716
sg14
S'Mozilla/5.0 (Linux; Android 5.1.1; Redmi Note 3 Build/LMY47V) AppleWebKit/537.36 (KHTML, like Gecko) Version/4.0 Chrome/37.0.0.0 Mobile MQQBrowser/6.8 TBS/036849 Safari/537.36 MicroMessenger/6.3.27.880 NetType/WIFI Language/zh_CN'
p1717
sg16
S'e5e55eadd31333dc0403af5757921e00'
p1718
sa(dp1719
g2
S'17720'
p1720
sg4
S'5795'
p1721
sg6
S'03f52a4f7e66c7ccc384ce91e7bd50e9'
p1722
sg8
S'xx01a5237e7e68a910b2304c9470bd81cd'
p1723
sg10
S'xxe4de87140e1bdb5e853a6fb37f537c00'
p1724
sg12
S'xxcc458920e498aaac7714e99259d086ab'
p1725
sg14
S'Mozilla/5.0 (Linux; Android 5.1.1; Redmi Note 3 Build/LMY47V) AppleWebKit/537.36 (KHTML, like Gecko) Version/4.0 Chrome/37.0.0.0 Mobile MQQBrowser/6.8 TBS/036849 Safari/537.36 MicroMessenger/6.3.27.880 NetType/WIFI Language/zh_CN'
p1726
sg16
S'e5e55eadd31333dc0403af5757921e00'
p1727
sa(dp1728
g2
S'17720'
p1729
sg4
S'5812'
p1730
sg6
S'03f52a4f7e66c7ccc384ce91e7bd50e9'
p1731
sg8
S'xx01a5237e7e68a910b2304c9470bd81cd'
p1732
sg10
S'xxe4de87140e1bdb5e853a6fb37f537c00'
p1733
sg12
S'xxcc458920e498aaac7714e99259d086ab'
p1734
sg14
S'Mozilla/5.0 (Linux; Android 5.1.1; Redmi Note 3 Build/LMY47V) AppleWebKit/537.36 (KHTML, like Gecko) Version/4.0 Chrome/37.0.0.0 Mobile MQQBrowser/6.8 TBS/036849 Safari/537.36 MicroMessenger/6.3.27.880 NetType/WIFI Language/zh_CN'
p1735
sg16
S'e5e55eadd31333dc0403af5757921e00'
p1736
sa(dp1737
g2
S'17720'
p1738
sg4
S'5848'
p1739
sg6
S'03f52a4f7e66c7ccc384ce91e7bd50e9'
p1740
sg8
S'xx01a5237e7e68a910b2304c9470bd81cd'
p1741
sg10
S'xxe4de87140e1bdb5e853a6fb37f537c00'
p1742
sg12
S'xxcc458920e498aaac7714e99259d086ab'
p1743
sg14
S'Mozilla/5.0 (Linux; Android 5.1.1; Redmi Note 3 Build/LMY47V) AppleWebKit/537.36 (KHTML, like Gecko) Version/4.0 Chrome/37.0.0.0 Mobile MQQBrowser/6.8 TBS/036849 Safari/537.36 MicroMessenger/6.3.27.880 NetType/WIFI Language/zh_CN'
p1744
sg16
S'e5e55eadd31333dc0403af5757921e00'
p1745
sa(dp1746
g2
S'17720'
p1747
sg4
S'5858'
p1748
sg6
S'03f52a4f7e66c7ccc384ce91e7bd50e9'
p1749
sg8
S'xx01a5237e7e68a910b2304c9470bd81cd'
p1750
sg10
S'xxe4de87140e1bdb5e853a6fb37f537c00'
p1751
sg12
S'xxcc458920e498aaac7714e99259d086ab'
p1752
sg14
S'Mozilla/5.0 (Linux; Android 5.1.1; Redmi Note 3 Build/LMY47V) AppleWebKit/537.36 (KHTML, like Gecko) Version/4.0 Chrome/37.0.0.0 Mobile MQQBrowser/6.8 TBS/036849 Safari/537.36 MicroMessenger/6.3.27.880 NetType/WIFI Language/zh_CN'
p1753
sg16
S'e5e55eadd31333dc0403af5757921e00'
p1754
sa(dp1755
g2
S'17720'
p1756
sg4
S'5870'
p1757
sg6
S'03f52a4f7e66c7ccc384ce91e7bd50e9'
p1758
sg8
S'xx01a5237e7e68a910b2304c9470bd81cd'
p1759
sg10
S'xxe4de87140e1bdb5e853a6fb37f537c00'
p1760
sg12
S'xxcc458920e498aaac7714e99259d086ab'
p1761
sg14
S'Mozilla/5.0 (Linux; Android 5.1.1; Redmi Note 3 Build/LMY47V) AppleWebKit/537.36 (KHTML, like Gecko) Version/4.0 Chrome/37.0.0.0 Mobile MQQBrowser/6.8 TBS/036849 Safari/537.36 MicroMessenger/6.3.27.880 NetType/WIFI Language/zh_CN'
p1762
sg16
S'e5e55eadd31333dc0403af5757921e00'
p1763
sa(dp1764
g2
S'17720'
p1765
sg4
S'5889'
p1766
sg6
S'03f52a4f7e66c7ccc384ce91e7bd50e9'
p1767
sg8
S'xx01a5237e7e68a910b2304c9470bd81cd'
p1768
sg10
S'xxe4de87140e1bdb5e853a6fb37f537c00'
p1769
sg12
S'xxcc458920e498aaac7714e99259d086ab'
p1770
sg14
S'Mozilla/5.0 (Linux; Android 5.1.1; Redmi Note 3 Build/LMY47V) AppleWebKit/537.36 (KHTML, like Gecko) Version/4.0 Chrome/37.0.0.0 Mobile MQQBrowser/6.8 TBS/036849 Safari/537.36 MicroMessenger/6.3.27.880 NetType/WIFI Language/zh_CN'
p1771
sg16
S'e5e55eadd31333dc0403af5757921e00'
p1772
sa(dp1773
g2
S'17720'
p1774
sg4
S'5907'
p1775
sg6
S'03f52a4f7e66c7ccc384ce91e7bd50e9'
p1776
sg8
S'xx01a5237e7e68a910b2304c9470bd81cd'
p1777
sg10
S'xxe4de87140e1bdb5e853a6fb37f537c00'
p1778
sg12
S'xxcc458920e498aaac7714e99259d086ab'
p1779
sg14
S'Mozilla/5.0 (Linux; Android 5.1.1; Redmi Note 3 Build/LMY47V) AppleWebKit/537.36 (KHTML, like Gecko) Version/4.0 Chrome/37.0.0.0 Mobile MQQBrowser/6.8 TBS/036849 Safari/537.36 MicroMessenger/6.3.27.880 NetType/WIFI Language/zh_CN'
p1780
sg16
S'e5e55eadd31333dc0403af5757921e00'
p1781
sa(dp1782
g2
S'17720'
p1783
sg4
S'5922'
p1784
sg6
S'03f52a4f7e66c7ccc384ce91e7bd50e9'
p1785
sg8
S'xx01a5237e7e68a910b2304c9470bd81cd'
p1786
sg10
S'xxe4de87140e1bdb5e853a6fb37f537c00'
p1787
sg12
S'xxcc458920e498aaac7714e99259d086ab'
p1788
sg14
S'Mozilla/5.0 (Linux; Android 5.1.1; Redmi Note 3 Build/LMY47V) AppleWebKit/537.36 (KHTML, like Gecko) Version/4.0 Chrome/37.0.0.0 Mobile MQQBrowser/6.8 TBS/036849 Safari/537.36 MicroMessenger/6.3.27.880 NetType/WIFI Language/zh_CN'
p1789
sg16
S'e5e55eadd31333dc0403af5757921e00'
p1790
sa(dp1791
g2
S'17720'
p1792
sg4
S'5960'
p1793
sg6
S'03f52a4f7e66c7ccc384ce91e7bd50e9'
p1794
sg8
S'xx01a5237e7e68a910b2304c9470bd81cd'
p1795
sg10
S'xxe4de87140e1bdb5e853a6fb37f537c00'
p1796
sg12
S'xxcc458920e498aaac7714e99259d086ab'
p1797
sg14
S'Mozilla/5.0 (Linux; Android 5.1.1; Redmi Note 3 Build/LMY47V) AppleWebKit/537.36 (KHTML, like Gecko) Version/4.0 Chrome/37.0.0.0 Mobile MQQBrowser/6.8 TBS/036849 Safari/537.36 MicroMessenger/6.3.27.880 NetType/WIFI Language/zh_CN'
p1798
sg16
S'e5e55eadd31333dc0403af5757921e00'
p1799
sa(dp1800
g2
S'17720'
p1801
sg4
S'5973'
p1802
sg6
S'03f52a4f7e66c7ccc384ce91e7bd50e9'
p1803
sg8
S'xx01a5237e7e68a910b2304c9470bd81cd'
p1804
sg10
S'xxe4de87140e1bdb5e853a6fb37f537c00'
p1805
sg12
S'xxcc458920e498aaac7714e99259d086ab'
p1806
sg14
S'Mozilla/5.0 (Linux; Android 5.1.1; Redmi Note 3 Build/LMY47V) AppleWebKit/537.36 (KHTML, like Gecko) Version/4.0 Chrome/37.0.0.0 Mobile MQQBrowser/6.8 TBS/036849 Safari/537.36 MicroMessenger/6.3.27.880 NetType/WIFI Language/zh_CN'
p1807
sg16
S'e5e55eadd31333dc0403af5757921e00'
p1808
sa(dp1809
g2
S'17720'
p1810
sg4
S'5990'
p1811
sg6
S'03f52a4f7e66c7ccc384ce91e7bd50e9'
p1812
sg8
S'xx01a5237e7e68a910b2304c9470bd81cd'
p1813
sg10
S'xxe4de87140e1bdb5e853a6fb37f537c00'
p1814
sg12
S'xxcc458920e498aaac7714e99259d086ab'
p1815
sg14
S'Mozilla/5.0 (Linux; Android 5.1.1; Redmi Note 3 Build/LMY47V) AppleWebKit/537.36 (KHTML, like Gecko) Version/4.0 Chrome/37.0.0.0 Mobile MQQBrowser/6.8 TBS/036849 Safari/537.36 MicroMessenger/6.3.27.880 NetType/WIFI Language/zh_CN'
p1816
sg16
S'e5e55eadd31333dc0403af5757921e00'
p1817
sa(dp1818
g2
S'17720'
p1819
sg4
S'6002'
p1820
sg6
S'03f52a4f7e66c7ccc384ce91e7bd50e9'
p1821
sg8
S'xx01a5237e7e68a910b2304c9470bd81cd'
p1822
sg10
S'xxe4de87140e1bdb5e853a6fb37f537c00'
p1823
sg12
S'xxcc458920e498aaac7714e99259d086ab'
p1824
sg14
S'Mozilla/5.0 (Linux; Android 5.1.1; Redmi Note 3 Build/LMY47V) AppleWebKit/537.36 (KHTML, like Gecko) Version/4.0 Chrome/37.0.0.0 Mobile MQQBrowser/6.8 TBS/036849 Safari/537.36 MicroMessenger/6.3.27.880 NetType/WIFI Language/zh_CN'
p1825
sg16
S'e5e55eadd31333dc0403af5757921e00'
p1826
sa(dp1827
g2
S'17720'
p1828
sg4
S'6015'
p1829
sg6
S'03f52a4f7e66c7ccc384ce91e7bd50e9'
p1830
sg8
S'xx01a5237e7e68a910b2304c9470bd81cd'
p1831
sg10
S'xxe4de87140e1bdb5e853a6fb37f537c00'
p1832
sg12
S'xxcc458920e498aaac7714e99259d086ab'
p1833
sg14
S'Mozilla/5.0 (Linux; Android 5.1.1; Redmi Note 3 Build/LMY47V) AppleWebKit/537.36 (KHTML, like Gecko) Version/4.0 Chrome/37.0.0.0 Mobile MQQBrowser/6.8 TBS/036849 Safari/537.36 MicroMessenger/6.3.27.880 NetType/WIFI Language/zh_CN'
p1834
sg16
S'e5e55eadd31333dc0403af5757921e00'
p1835
sa(dp1836
g2
S'17720'
p1837
sg4
S'6027'
p1838
sg6
S'03f52a4f7e66c7ccc384ce91e7bd50e9'
p1839
sg8
S'xx01a5237e7e68a910b2304c9470bd81cd'
p1840
sg10
S'xxe4de87140e1bdb5e853a6fb37f537c00'
p1841
sg12
S'xxcc458920e498aaac7714e99259d086ab'
p1842
sg14
S'Mozilla/5.0 (Linux; Android 5.1.1; Redmi Note 3 Build/LMY47V) AppleWebKit/537.36 (KHTML, like Gecko) Version/4.0 Chrome/37.0.0.0 Mobile MQQBrowser/6.8 TBS/036849 Safari/537.36 MicroMessenger/6.3.27.880 NetType/WIFI Language/zh_CN'
p1843
sg16
S'e5e55eadd31333dc0403af5757921e00'
p1844
sa(dp1845
g2
S'17720'
p1846
sg4
S'6038'
p1847
sg6
S'03f52a4f7e66c7ccc384ce91e7bd50e9'
p1848
sg8
S'xx01a5237e7e68a910b2304c9470bd81cd'
p1849
sg10
S'xxe4de87140e1bdb5e853a6fb37f537c00'
p1850
sg12
S'xxcc458920e498aaac7714e99259d086ab'
p1851
sg14
S'Mozilla/5.0 (Linux; Android 5.1.1; Redmi Note 3 Build/LMY47V) AppleWebKit/537.36 (KHTML, like Gecko) Version/4.0 Chrome/37.0.0.0 Mobile MQQBrowser/6.8 TBS/036849 Safari/537.36 MicroMessenger/6.3.27.880 NetType/WIFI Language/zh_CN'
p1852
sg16
S'e5e55eadd31333dc0403af5757921e00'
p1853
sa(dp1854
g2
S'17720'
p1855
sg4
S'6055'
p1856
sg6
S'03f52a4f7e66c7ccc384ce91e7bd50e9'
p1857
sg8
S'xx01a5237e7e68a910b2304c9470bd81cd'
p1858
sg10
S'xxe4de87140e1bdb5e853a6fb37f537c00'
p1859
sg12
S'xxcc458920e498aaac7714e99259d086ab'
p1860
sg14
S'Mozilla/5.0 (Linux; Android 5.1.1; Redmi Note 3 Build/LMY47V) AppleWebKit/537.36 (KHTML, like Gecko) Version/4.0 Chrome/37.0.0.0 Mobile MQQBrowser/6.8 TBS/036849 Safari/537.36 MicroMessenger/6.3.27.880 NetType/WIFI Language/zh_CN'
p1861
sg16
S'e5e55eadd31333dc0403af5757921e00'
p1862
sa(dp1863
g2
S'17720'
p1864
sg4
S'6068'
p1865
sg6
S'03f52a4f7e66c7ccc384ce91e7bd50e9'
p1866
sg8
S'xx01a5237e7e68a910b2304c9470bd81cd'
p1867
sg10
S'xxe4de87140e1bdb5e853a6fb37f537c00'
p1868
sg12
S'xxcc458920e498aaac7714e99259d086ab'
p1869
sg14
S'Mozilla/5.0 (Linux; Android 5.1.1; Redmi Note 3 Build/LMY47V) AppleWebKit/537.36 (KHTML, like Gecko) Version/4.0 Chrome/37.0.0.0 Mobile MQQBrowser/6.8 TBS/036849 Safari/537.36 MicroMessenger/6.3.27.880 NetType/WIFI Language/zh_CN'
p1870
sg16
S'e5e55eadd31333dc0403af5757921e00'
p1871
sa(dp1872
g2
S'17720'
p1873
sg4
S'6085'
p1874
sg6
S'03f52a4f7e66c7ccc384ce91e7bd50e9'
p1875
sg8
S'xx01a5237e7e68a910b2304c9470bd81cd'
p1876
sg10
S'xxe4de87140e1bdb5e853a6fb37f537c00'
p1877
sg12
S'xxcc458920e498aaac7714e99259d086ab'
p1878
sg14
S'Mozilla/5.0 (Linux; Android 5.1.1; Redmi Note 3 Build/LMY47V) AppleWebKit/537.36 (KHTML, like Gecko) Version/4.0 Chrome/37.0.0.0 Mobile MQQBrowser/6.8 TBS/036849 Safari/537.36 MicroMessenger/6.3.27.880 NetType/WIFI Language/zh_CN'
p1879
sg16
S'e5e55eadd31333dc0403af5757921e00'
p1880
sa(dp1881
g2
S'17720'
p1882
sg4
S'6103'
p1883
sg6
S'03f52a4f7e66c7ccc384ce91e7bd50e9'
p1884
sg8
S'xx01a5237e7e68a910b2304c9470bd81cd'
p1885
sg10
S'xxe4de87140e1bdb5e853a6fb37f537c00'
p1886
sg12
S'xxcc458920e498aaac7714e99259d086ab'
p1887
sg14
S'Mozilla/5.0 (Linux; Android 5.1.1; Redmi Note 3 Build/LMY47V) AppleWebKit/537.36 (KHTML, like Gecko) Version/4.0 Chrome/37.0.0.0 Mobile MQQBrowser/6.8 TBS/036849 Safari/537.36 MicroMessenger/6.3.27.880 NetType/WIFI Language/zh_CN'
p1888
sg16
S'e5e55eadd31333dc0403af5757921e00'
p1889
sa(dp1890
g2
S'17720'
p1891
sg4
S'6118'
p1892
sg6
S'03f52a4f7e66c7ccc384ce91e7bd50e9'
p1893
sg8
S'xx01a5237e7e68a910b2304c9470bd81cd'
p1894
sg10
S'xxe4de87140e1bdb5e853a6fb37f537c00'
p1895
sg12
S'xxcc458920e498aaac7714e99259d086ab'
p1896
sg14
S'Mozilla/5.0 (Linux; Android 5.1.1; Redmi Note 3 Build/LMY47V) AppleWebKit/537.36 (KHTML, like Gecko) Version/4.0 Chrome/37.0.0.0 Mobile MQQBrowser/6.8 TBS/036849 Safari/537.36 MicroMessenger/6.3.27.880 NetType/WIFI Language/zh_CN'
p1897
sg16
S'e5e55eadd31333dc0403af5757921e00'
p1898
sa(dp1899
g2
S'17720'
p1900
sg4
S'6134'
p1901
sg6
S'03f52a4f7e66c7ccc384ce91e7bd50e9'
p1902
sg8
S'xx01a5237e7e68a910b2304c9470bd81cd'
p1903
sg10
S'xxe4de87140e1bdb5e853a6fb37f537c00'
p1904
sg12
S'xxcc458920e498aaac7714e99259d086ab'
p1905
sg14
S'Mozilla/5.0 (Linux; Android 5.1.1; Redmi Note 3 Build/LMY47V) AppleWebKit/537.36 (KHTML, like Gecko) Version/4.0 Chrome/37.0.0.0 Mobile MQQBrowser/6.8 TBS/036849 Safari/537.36 MicroMessenger/6.3.27.880 NetType/WIFI Language/zh_CN'
p1906
sg16
S'e5e55eadd31333dc0403af5757921e00'
p1907
sa(dp1908
g2
S'17720'
p1909
sg4
S'6147'
p1910
sg6
S'03f52a4f7e66c7ccc384ce91e7bd50e9'
p1911
sg8
S'xx01a5237e7e68a910b2304c9470bd81cd'
p1912
sg10
S'xxe4de87140e1bdb5e853a6fb37f537c00'
p1913
sg12
S'xxcc458920e498aaac7714e99259d086ab'
p1914
sg14
S'Mozilla/5.0 (Linux; Android 5.1.1; Redmi Note 3 Build/LMY47V) AppleWebKit/537.36 (KHTML, like Gecko) Version/4.0 Chrome/37.0.0.0 Mobile MQQBrowser/6.8 TBS/036849 Safari/537.36 MicroMessenger/6.3.27.880 NetType/WIFI Language/zh_CN'
p1915
sg16
S'e5e55eadd31333dc0403af5757921e00'
p1916
sa(dp1917
g2
S'17720'
p1918
sg4
S'6160'
p1919
sg6
S'03f52a4f7e66c7ccc384ce91e7bd50e9'
p1920
sg8
S'xx01a5237e7e68a910b2304c9470bd81cd'
p1921
sg10
S'xxe4de87140e1bdb5e853a6fb37f537c00'
p1922
sg12
S'xxcc458920e498aaac7714e99259d086ab'
p1923
sg14
S'Mozilla/5.0 (Linux; Android 5.1.1; Redmi Note 3 Build/LMY47V) AppleWebKit/537.36 (KHTML, like Gecko) Version/4.0 Chrome/37.0.0.0 Mobile MQQBrowser/6.8 TBS/036849 Safari/537.36 MicroMessenger/6.3.27.880 NetType/WIFI Language/zh_CN'
p1924
sg16
S'e5e55eadd31333dc0403af5757921e00'
p1925
sa(dp1926
g2
S'17720'
p1927
sg4
S'6172'
p1928
sg6
S'03f52a4f7e66c7ccc384ce91e7bd50e9'
p1929
sg8
S'xx01a5237e7e68a910b2304c9470bd81cd'
p1930
sg10
S'xxe4de87140e1bdb5e853a6fb37f537c00'
p1931
sg12
S'xxcc458920e498aaac7714e99259d086ab'
p1932
sg14
S'Mozilla/5.0 (Linux; Android 5.1.1; Redmi Note 3 Build/LMY47V) AppleWebKit/537.36 (KHTML, like Gecko) Version/4.0 Chrome/37.0.0.0 Mobile MQQBrowser/6.8 TBS/036849 Safari/537.36 MicroMessenger/6.3.27.880 NetType/WIFI Language/zh_CN'
p1933
sg16
S'e5e55eadd31333dc0403af5757921e00'
p1934
sa(dp1935
g2
S'17720'
p1936
sg4
S'6188'
p1937
sg6
S'03f52a4f7e66c7ccc384ce91e7bd50e9'
p1938
sg8
S'xx01a5237e7e68a910b2304c9470bd81cd'
p1939
sg10
S'xxe4de87140e1bdb5e853a6fb37f537c00'
p1940
sg12
S'xxcc458920e498aaac7714e99259d086ab'
p1941
sg14
S'Mozilla/5.0 (Linux; Android 5.1.1; Redmi Note 3 Build/LMY47V) AppleWebKit/537.36 (KHTML, like Gecko) Version/4.0 Chrome/37.0.0.0 Mobile MQQBrowser/6.8 TBS/036849 Safari/537.36 MicroMessenger/6.3.27.880 NetType/WIFI Language/zh_CN'
p1942
sg16
S'e5e55eadd31333dc0403af5757921e00'
p1943
sa(dp1944
g2
S'17720'
p1945
sg4
S'6202'
p1946
sg6
S'03f52a4f7e66c7ccc384ce91e7bd50e9'
p1947
sg8
S'xx01a5237e7e68a910b2304c9470bd81cd'
p1948
sg10
S'xxe4de87140e1bdb5e853a6fb37f537c00'
p1949
sg12
S'xxcc458920e498aaac7714e99259d086ab'
p1950
sg14
S'Mozilla/5.0 (Linux; Android 5.1.1; Redmi Note 3 Build/LMY47V) AppleWebKit/537.36 (KHTML, like Gecko) Version/4.0 Chrome/37.0.0.0 Mobile MQQBrowser/6.8 TBS/036849 Safari/537.36 MicroMessenger/6.3.27.880 NetType/WIFI Language/zh_CN'
p1951
sg16
S'e5e55eadd31333dc0403af5757921e00'
p1952
sa(dp1953
g2
S'17720'
p1954
sg4
S'6216'
p1955
sg6
S'03f52a4f7e66c7ccc384ce91e7bd50e9'
p1956
sg8
S'xx01a5237e7e68a910b2304c9470bd81cd'
p1957
sg10
S'xxe4de87140e1bdb5e853a6fb37f537c00'
p1958
sg12
S'xxcc458920e498aaac7714e99259d086ab'
p1959
sg14
S'Mozilla/5.0 (Linux; Android 5.1.1; Redmi Note 3 Build/LMY47V) AppleWebKit/537.36 (KHTML, like Gecko) Version/4.0 Chrome/37.0.0.0 Mobile MQQBrowser/6.8 TBS/036849 Safari/537.36 MicroMessenger/6.3.27.880 NetType/WIFI Language/zh_CN'
p1960
sg16
S'e5e55eadd31333dc0403af5757921e00'
p1961
sa(dp1962
g2
S'17720'
p1963
sg4
S'6230'
p1964
sg6
S'03f52a4f7e66c7ccc384ce91e7bd50e9'
p1965
sg8
S'xx01a5237e7e68a910b2304c9470bd81cd'
p1966
sg10
S'xxe4de87140e1bdb5e853a6fb37f537c00'
p1967
sg12
S'xxcc458920e498aaac7714e99259d086ab'
p1968
sg14
S'Mozilla/5.0 (Linux; Android 5.1.1; Redmi Note 3 Build/LMY47V) AppleWebKit/537.36 (KHTML, like Gecko) Version/4.0 Chrome/37.0.0.0 Mobile MQQBrowser/6.8 TBS/036849 Safari/537.36 MicroMessenger/6.3.27.880 NetType/WIFI Language/zh_CN'
p1969
sg16
S'e5e55eadd31333dc0403af5757921e00'
p1970
sa(dp1971
g2
S'17720'
p1972
sg4
S'6244'
p1973
sg6
S'03f52a4f7e66c7ccc384ce91e7bd50e9'
p1974
sg8
S'xx01a5237e7e68a910b2304c9470bd81cd'
p1975
sg10
S'xxe4de87140e1bdb5e853a6fb37f537c00'
p1976
sg12
S'xxcc458920e498aaac7714e99259d086ab'
p1977
sg14
S'Mozilla/5.0 (Linux; Android 5.1.1; Redmi Note 3 Build/LMY47V) AppleWebKit/537.36 (KHTML, like Gecko) Version/4.0 Chrome/37.0.0.0 Mobile MQQBrowser/6.8 TBS/036849 Safari/537.36 MicroMessenger/6.3.27.880 NetType/WIFI Language/zh_CN'
p1978
sg16
S'e5e55eadd31333dc0403af5757921e00'
p1979
sa(dp1980
g2
S'17720'
p1981
sg4
S'6255'
p1982
sg6
S'03f52a4f7e66c7ccc384ce91e7bd50e9'
p1983
sg8
S'xx01a5237e7e68a910b2304c9470bd81cd'
p1984
sg10
S'xxe4de87140e1bdb5e853a6fb37f537c00'
p1985
sg12
S'xxcc458920e498aaac7714e99259d086ab'
p1986
sg14
S'Mozilla/5.0 (Linux; Android 5.1.1; Redmi Note 3 Build/LMY47V) AppleWebKit/537.36 (KHTML, like Gecko) Version/4.0 Chrome/37.0.0.0 Mobile MQQBrowser/6.8 TBS/036849 Safari/537.36 MicroMessenger/6.3.27.880 NetType/WIFI Language/zh_CN'
p1987
sg16
S'e5e55eadd31333dc0403af5757921e00'
p1988
sa(dp1989
g2
S'17720'
p1990
sg4
S'6269'
p1991
sg6
S'03f52a4f7e66c7ccc384ce91e7bd50e9'
p1992
sg8
S'xx01a5237e7e68a910b2304c9470bd81cd'
p1993
sg10
S'xxe4de87140e1bdb5e853a6fb37f537c00'
p1994
sg12
S'xxcc458920e498aaac7714e99259d086ab'
p1995
sg14
S'Mozilla/5.0 (Linux; Android 5.1.1; Redmi Note 3 Build/LMY47V) AppleWebKit/537.36 (KHTML, like Gecko) Version/4.0 Chrome/37.0.0.0 Mobile MQQBrowser/6.8 TBS/036849 Safari/537.36 MicroMessenger/6.3.27.880 NetType/WIFI Language/zh_CN'
p1996
sg16
S'e5e55eadd31333dc0403af5757921e00'
p1997
sa(dp1998
g2
S'17720'
p1999
sg4
S'6278'
p2000
sg6
S'03f52a4f7e66c7ccc384ce91e7bd50e9'
p2001
sg8
S'xx01a5237e7e68a910b2304c9470bd81cd'
p2002
sg10
S'xxe4de87140e1bdb5e853a6fb37f537c00'
p2003
sg12
S'xxcc458920e498aaac7714e99259d086ab'
p2004
sg14
S'Mozilla/5.0 (Linux; Android 5.1.1; Redmi Note 3 Build/LMY47V) AppleWebKit/537.36 (KHTML, like Gecko) Version/4.0 Chrome/37.0.0.0 Mobile MQQBrowser/6.8 TBS/036849 Safari/537.36 MicroMessenger/6.3.27.880 NetType/WIFI Language/zh_CN'
p2005
sg16
S'e5e55eadd31333dc0403af5757921e00'
p2006
sa(dp2007
g2
S'17720'
p2008
sg4
S'6324'
p2009
sg6
S'03f52a4f7e66c7ccc384ce91e7bd50e9'
p2010
sg8
S'xx01a5237e7e68a910b2304c9470bd81cd'
p2011
sg10
S'xxe4de87140e1bdb5e853a6fb37f537c00'
p2012
sg12
S'xxcc458920e498aaac7714e99259d086ab'
p2013
sg14
S'Mozilla/5.0 (Linux; Android 5.1.1; Redmi Note 3 Build/LMY47V) AppleWebKit/537.36 (KHTML, like Gecko) Version/4.0 Chrome/37.0.0.0 Mobile MQQBrowser/6.8 TBS/036849 Safari/537.36 MicroMessenger/6.3.27.880 NetType/WIFI Language/zh_CN'
p2014
sg16
S'e5e55eadd31333dc0403af5757921e00'
p2015
sa(dp2016
g2
S'17720'
p2017
sg4
S'6338'
p2018
sg6
S'03f52a4f7e66c7ccc384ce91e7bd50e9'
p2019
sg8
S'xx01a5237e7e68a910b2304c9470bd81cd'
p2020
sg10
S'xxe4de87140e1bdb5e853a6fb37f537c00'
p2021
sg12
S'xxcc458920e498aaac7714e99259d086ab'
p2022
sg14
S'Mozilla/5.0 (Linux; Android 5.1.1; Redmi Note 3 Build/LMY47V) AppleWebKit/537.36 (KHTML, like Gecko) Version/4.0 Chrome/37.0.0.0 Mobile MQQBrowser/6.8 TBS/036849 Safari/537.36 MicroMessenger/6.3.27.880 NetType/WIFI Language/zh_CN'
p2023
sg16
S'e5e55eadd31333dc0403af5757921e00'
p2024
sa(dp2025
g2
S'17720'
p2026
sg4
S'6351'
p2027
sg6
S'03f52a4f7e66c7ccc384ce91e7bd50e9'
p2028
sg8
S'xx01a5237e7e68a910b2304c9470bd81cd'
p2029
sg10
S'xxe4de87140e1bdb5e853a6fb37f537c00'
p2030
sg12
S'xxcc458920e498aaac7714e99259d086ab'
p2031
sg14
S'Mozilla/5.0 (Linux; Android 5.1.1; Redmi Note 3 Build/LMY47V) AppleWebKit/537.36 (KHTML, like Gecko) Version/4.0 Chrome/37.0.0.0 Mobile MQQBrowser/6.8 TBS/036849 Safari/537.36 MicroMessenger/6.3.27.880 NetType/WIFI Language/zh_CN'
p2032
sg16
S'e5e55eadd31333dc0403af5757921e00'
p2033
sa(dp2034
g2
S'17720'
p2035
sg4
S'6368'
p2036
sg6
S'03f52a4f7e66c7ccc384ce91e7bd50e9'
p2037
sg8
S'xx01a5237e7e68a910b2304c9470bd81cd'
p2038
sg10
S'xxe4de87140e1bdb5e853a6fb37f537c00'
p2039
sg12
S'xxcc458920e498aaac7714e99259d086ab'
p2040
sg14
S'Mozilla/5.0 (Linux; Android 5.1.1; Redmi Note 3 Build/LMY47V) AppleWebKit/537.36 (KHTML, like Gecko) Version/4.0 Chrome/37.0.0.0 Mobile MQQBrowser/6.8 TBS/036849 Safari/537.36 MicroMessenger/6.3.27.880 NetType/WIFI Language/zh_CN'
p2041
sg16
S'e5e55eadd31333dc0403af5757921e00'
p2042
sa(dp2043
g2
S'17720'
p2044
sg4
S'6384'
p2045
sg6
S'03f52a4f7e66c7ccc384ce91e7bd50e9'
p2046
sg8
S'xx01a5237e7e68a910b2304c9470bd81cd'
p2047
sg10
S'xxe4de87140e1bdb5e853a6fb37f537c00'
p2048
sg12
S'xxcc458920e498aaac7714e99259d086ab'
p2049
sg14
S'Mozilla/5.0 (Linux; Android 5.1.1; Redmi Note 3 Build/LMY47V) AppleWebKit/537.36 (KHTML, like Gecko) Version/4.0 Chrome/37.0.0.0 Mobile MQQBrowser/6.8 TBS/036849 Safari/537.36 MicroMessenger/6.3.27.880 NetType/WIFI Language/zh_CN'
p2050
sg16
S'e5e55eadd31333dc0403af5757921e00'
p2051
sa(dp2052
g2
S'17720'
p2053
sg4
S'6404'
p2054
sg6
S'03f52a4f7e66c7ccc384ce91e7bd50e9'
p2055
sg8
S'xx01a5237e7e68a910b2304c9470bd81cd'
p2056
sg10
S'xxe4de87140e1bdb5e853a6fb37f537c00'
p2057
sg12
S'xxcc458920e498aaac7714e99259d086ab'
p2058
sg14
S'Mozilla/5.0 (Linux; Android 5.1.1; Redmi Note 3 Build/LMY47V) AppleWebKit/537.36 (KHTML, like Gecko) Version/4.0 Chrome/37.0.0.0 Mobile MQQBrowser/6.8 TBS/036849 Safari/537.36 MicroMessenger/6.3.27.880 NetType/WIFI Language/zh_CN'
p2059
sg16
S'e5e55eadd31333dc0403af5757921e00'
p2060
sa(dp2061
g2
S'17720'
p2062
sg4
S'6414'
p2063
sg6
S'03f52a4f7e66c7ccc384ce91e7bd50e9'
p2064
sg8
S'xx01a5237e7e68a910b2304c9470bd81cd'
p2065
sg10
S'xxe4de87140e1bdb5e853a6fb37f537c00'
p2066
sg12
S'xxcc458920e498aaac7714e99259d086ab'
p2067
sg14
S'Mozilla/5.0 (Linux; Android 5.1.1; Redmi Note 3 Build/LMY47V) AppleWebKit/537.36 (KHTML, like Gecko) Version/4.0 Chrome/37.0.0.0 Mobile MQQBrowser/6.8 TBS/036849 Safari/537.36 MicroMessenger/6.3.27.880 NetType/WIFI Language/zh_CN'
p2068
sg16
S'e5e55eadd31333dc0403af5757921e00'
p2069
sa(dp2070
g2
S'17720'
p2071
sg4
S'6427'
p2072
sg6
S'03f52a4f7e66c7ccc384ce91e7bd50e9'
p2073
sg8
S'xx01a5237e7e68a910b2304c9470bd81cd'
p2074
sg10
S'xxe4de87140e1bdb5e853a6fb37f537c00'
p2075
sg12
S'xxcc458920e498aaac7714e99259d086ab'
p2076
sg14
S'Mozilla/5.0 (Linux; Android 5.1.1; Redmi Note 3 Build/LMY47V) AppleWebKit/537.36 (KHTML, like Gecko) Version/4.0 Chrome/37.0.0.0 Mobile MQQBrowser/6.8 TBS/036849 Safari/537.36 MicroMessenger/6.3.27.880 NetType/WIFI Language/zh_CN'
p2077
sg16
S'e5e55eadd31333dc0403af5757921e00'
p2078
sa(dp2079
g2
S'17720'
p2080
sg4
S'6444'
p2081
sg6
S'03f52a4f7e66c7ccc384ce91e7bd50e9'
p2082
sg8
S'xx01a5237e7e68a910b2304c9470bd81cd'
p2083
sg10
S'xxe4de87140e1bdb5e853a6fb37f537c00'
p2084
sg12
S'xxcc458920e498aaac7714e99259d086ab'
p2085
sg14
S'Mozilla/5.0 (Linux; Android 5.1.1; Redmi Note 3 Build/LMY47V) AppleWebKit/537.36 (KHTML, like Gecko) Version/4.0 Chrome/37.0.0.0 Mobile MQQBrowser/6.8 TBS/036849 Safari/537.36 MicroMessenger/6.3.27.880 NetType/WIFI Language/zh_CN'
p2086
sg16
S'e5e55eadd31333dc0403af5757921e00'
p2087
sa(dp2088
g2
S'17720'
p2089
sg4
S'6460'
p2090
sg6
S'03f52a4f7e66c7ccc384ce91e7bd50e9'
p2091
sg8
S'xx01a5237e7e68a910b2304c9470bd81cd'
p2092
sg10
S'xxe4de87140e1bdb5e853a6fb37f537c00'
p2093
sg12
S'xxcc458920e498aaac7714e99259d086ab'
p2094
sg14
S'Mozilla/5.0 (Linux; Android 5.1.1; Redmi Note 3 Build/LMY47V) AppleWebKit/537.36 (KHTML, like Gecko) Version/4.0 Chrome/37.0.0.0 Mobile MQQBrowser/6.8 TBS/036849 Safari/537.36 MicroMessenger/6.3.27.880 NetType/WIFI Language/zh_CN'
p2095
sg16
S'e5e55eadd31333dc0403af5757921e00'
p2096
sa(dp2097
g2
S'17720'
p2098
sg4
S'6472'
p2099
sg6
S'03f52a4f7e66c7ccc384ce91e7bd50e9'
p2100
sg8
S'xx01a5237e7e68a910b2304c9470bd81cd'
p2101
sg10
S'xxe4de87140e1bdb5e853a6fb37f537c00'
p2102
sg12
S'xxcc458920e498aaac7714e99259d086ab'
p2103
sg14
S'Mozilla/5.0 (Linux; Android 5.1.1; Redmi Note 3 Build/LMY47V) AppleWebKit/537.36 (KHTML, like Gecko) Version/4.0 Chrome/37.0.0.0 Mobile MQQBrowser/6.8 TBS/036849 Safari/537.36 MicroMessenger/6.3.27.880 NetType/WIFI Language/zh_CN'
p2104
sg16
S'e5e55eadd31333dc0403af5757921e00'
p2105
sa(dp2106
g2
S'17720'
p2107
sg4
S'6485'
p2108
sg6
S'03f52a4f7e66c7ccc384ce91e7bd50e9'
p2109
sg8
S'xx01a5237e7e68a910b2304c9470bd81cd'
p2110
sg10
S'xxe4de87140e1bdb5e853a6fb37f537c00'
p2111
sg12
S'xxcc458920e498aaac7714e99259d086ab'
p2112
sg14
S'Mozilla/5.0 (Linux; Android 5.1.1; Redmi Note 3 Build/LMY47V) AppleWebKit/537.36 (KHTML, like Gecko) Version/4.0 Chrome/37.0.0.0 Mobile MQQBrowser/6.8 TBS/036849 Safari/537.36 MicroMessenger/6.3.27.880 NetType/WIFI Language/zh_CN'
p2113
sg16
S'e5e55eadd31333dc0403af5757921e00'
p2114
sa(dp2115
g2
S'17720'
p2116
sg4
S'6500'
p2117
sg6
S'03f52a4f7e66c7ccc384ce91e7bd50e9'
p2118
sg8
S'xx01a5237e7e68a910b2304c9470bd81cd'
p2119
sg10
S'xxe4de87140e1bdb5e853a6fb37f537c00'
p2120
sg12
S'xxcc458920e498aaac7714e99259d086ab'
p2121
sg14
S'Mozilla/5.0 (Linux; Android 5.1.1; Redmi Note 3 Build/LMY47V) AppleWebKit/537.36 (KHTML, like Gecko) Version/4.0 Chrome/37.0.0.0 Mobile MQQBrowser/6.8 TBS/036849 Safari/537.36 MicroMessenger/6.3.27.880 NetType/WIFI Language/zh_CN'
p2122
sg16
S'e5e55eadd31333dc0403af5757921e00'
p2123
sa(dp2124
g2
S'17720'
p2125
sg4
S'6526'
p2126
sg6
S'03f52a4f7e66c7ccc384ce91e7bd50e9'
p2127
sg8
S'xx01a5237e7e68a910b2304c9470bd81cd'
p2128
sg10
S'xxe4de87140e1bdb5e853a6fb37f537c00'
p2129
sg12
S'xxcc458920e498aaac7714e99259d086ab'
p2130
sg14
S'Mozilla/5.0 (Linux; Android 5.1.1; Redmi Note 3 Build/LMY47V) AppleWebKit/537.36 (KHTML, like Gecko) Version/4.0 Chrome/37.0.0.0 Mobile MQQBrowser/6.8 TBS/036849 Safari/537.36 MicroMessenger/6.3.27.880 NetType/WIFI Language/zh_CN'
p2131
sg16
S'e5e55eadd31333dc0403af5757921e00'
p2132
sa(dp2133
g2
S'17720'
p2134
sg4
S'6545'
p2135
sg6
S'03f52a4f7e66c7ccc384ce91e7bd50e9'
p2136
sg8
S'xx01a5237e7e68a910b2304c9470bd81cd'
p2137
sg10
S'xxe4de87140e1bdb5e853a6fb37f537c00'
p2138
sg12
S'xxcc458920e498aaac7714e99259d086ab'
p2139
sg14
S'Mozilla/5.0 (Linux; Android 5.1.1; Redmi Note 3 Build/LMY47V) AppleWebKit/537.36 (KHTML, like Gecko) Version/4.0 Chrome/37.0.0.0 Mobile MQQBrowser/6.8 TBS/036849 Safari/537.36 MicroMessenger/6.3.27.880 NetType/WIFI Language/zh_CN'
p2140
sg16
S'e5e55eadd31333dc0403af5757921e00'
p2141
sa(dp2142
g2
S'17720'
p2143
sg4
S'6561'
p2144
sg6
S'03f52a4f7e66c7ccc384ce91e7bd50e9'
p2145
sg8
S'xx01a5237e7e68a910b2304c9470bd81cd'
p2146
sg10
S'xxe4de87140e1bdb5e853a6fb37f537c00'
p2147
sg12
S'xxcc458920e498aaac7714e99259d086ab'
p2148
sg14
S'Mozilla/5.0 (Linux; Android 5.1.1; Redmi Note 3 Build/LMY47V) AppleWebKit/537.36 (KHTML, like Gecko) Version/4.0 Chrome/37.0.0.0 Mobile MQQBrowser/6.8 TBS/036849 Safari/537.36 MicroMessenger/6.3.27.880 NetType/WIFI Language/zh_CN'
p2149
sg16
S'e5e55eadd31333dc0403af5757921e00'
p2150
sa(dp2151
g2
S'17720'
p2152
sg4
S'6577'
p2153
sg6
S'03f52a4f7e66c7ccc384ce91e7bd50e9'
p2154
sg8
S'xx01a5237e7e68a910b2304c9470bd81cd'
p2155
sg10
S'xxe4de87140e1bdb5e853a6fb37f537c00'
p2156
sg12
S'xxcc458920e498aaac7714e99259d086ab'
p2157
sg14
S'Mozilla/5.0 (Linux; Android 5.1.1; Redmi Note 3 Build/LMY47V) AppleWebKit/537.36 (KHTML, like Gecko) Version/4.0 Chrome/37.0.0.0 Mobile MQQBrowser/6.8 TBS/036849 Safari/537.36 MicroMessenger/6.3.27.880 NetType/WIFI Language/zh_CN'
p2158
sg16
S'e5e55eadd31333dc0403af5757921e00'
p2159
sa(dp2160
g2
S'17720'
p2161
sg4
S'6607'
p2162
sg6
S'03f52a4f7e66c7ccc384ce91e7bd50e9'
p2163
sg8
S'xx01a5237e7e68a910b2304c9470bd81cd'
p2164
sg10
S'xxe4de87140e1bdb5e853a6fb37f537c00'
p2165
sg12
S'xxcc458920e498aaac7714e99259d086ab'
p2166
sg14
S'Mozilla/5.0 (Linux; Android 5.1.1; Redmi Note 3 Build/LMY47V) AppleWebKit/537.36 (KHTML, like Gecko) Version/4.0 Chrome/37.0.0.0 Mobile MQQBrowser/6.8 TBS/036849 Safari/537.36 MicroMessenger/6.3.27.880 NetType/WIFI Language/zh_CN'
p2167
sg16
S'e5e55eadd31333dc0403af5757921e00'
p2168
sa(dp2169
g2
S'17720'
p2170
sg4
S'6623'
p2171
sg6
S'03f52a4f7e66c7ccc384ce91e7bd50e9'
p2172
sg8
S'xx01a5237e7e68a910b2304c9470bd81cd'
p2173
sg10
S'xxe4de87140e1bdb5e853a6fb37f537c00'
p2174
sg12
S'xxcc458920e498aaac7714e99259d086ab'
p2175
sg14
S'Mozilla/5.0 (Linux; Android 5.1.1; Redmi Note 3 Build/LMY47V) AppleWebKit/537.36 (KHTML, like Gecko) Version/4.0 Chrome/37.0.0.0 Mobile MQQBrowser/6.8 TBS/036849 Safari/537.36 MicroMessenger/6.3.27.880 NetType/WIFI Language/zh_CN'
p2176
sg16
S'e5e55eadd31333dc0403af5757921e00'
p2177
sa(dp2178
g2
S'17720'
p2179
sg4
S'6639'
p2180
sg6
S'03f52a4f7e66c7ccc384ce91e7bd50e9'
p2181
sg8
S'xx01a5237e7e68a910b2304c9470bd81cd'
p2182
sg10
S'xxe4de87140e1bdb5e853a6fb37f537c00'
p2183
sg12
S'xxcc458920e498aaac7714e99259d086ab'
p2184
sg14
S'Mozilla/5.0 (Linux; Android 5.1.1; Redmi Note 3 Build/LMY47V) AppleWebKit/537.36 (KHTML, like Gecko) Version/4.0 Chrome/37.0.0.0 Mobile MQQBrowser/6.8 TBS/036849 Safari/537.36 MicroMessenger/6.3.27.880 NetType/WIFI Language/zh_CN'
p2185
sg16
S'e5e55eadd31333dc0403af5757921e00'
p2186
sa(dp2187
g2
S'17720'
p2188
sg4
S'6926'
p2189
sg6
S'02c0b4df7fa20d94b9dd422e5ac258db'
p2190
sg8
S'xx01a5237e7e68a910b2304c9470bd81cd'
p2191
sg10
S'xxe4de87140e1bdb5e853a6fb37f537c00'
p2192
sg12
S'xxcc458920e498aaac7714e99259d086ab'
p2193
sg14
S'Mozilla/5.0 (Linux; Android 5.1.1; Redmi Note 3 Build/LMY47V) AppleWebKit/537.36 (KHTML, like Gecko) Version/4.0 Chrome/37.0.0.0 Mobile MQQBrowser/6.8 TBS/036849 Safari/537.36 MicroMessenger/6.3.27.880 NetType/WIFI Language/zh_CN'
p2194
sg16
S'e5e55eadd31333dc0403af5757921e00'
p2195
sa(dp2196
g2
S'17720'
p2197
sg4
S'6942'
p2198
sg6
S'02c0b4df7fa20d94b9dd422e5ac258db'
p2199
sg8
S'xx01a5237e7e68a910b2304c9470bd81cd'
p2200
sg10
S'xxe4de87140e1bdb5e853a6fb37f537c00'
p2201
sg12
S'xxcc458920e498aaac7714e99259d086ab'
p2202
sg14
S'Mozilla/5.0 (Linux; Android 5.1.1; Redmi Note 3 Build/LMY47V) AppleWebKit/537.36 (KHTML, like Gecko) Version/4.0 Chrome/37.0.0.0 Mobile MQQBrowser/6.8 TBS/036849 Safari/537.36 MicroMessenger/6.3.27.880 NetType/WIFI Language/zh_CN'
p2203
sg16
S'e5e55eadd31333dc0403af5757921e00'
p2204
sa(dp2205
g2
S'17720'
p2206
sg4
S'6954'
p2207
sg6
S'02c0b4df7fa20d94b9dd422e5ac258db'
p2208
sg8
S'xx01a5237e7e68a910b2304c9470bd81cd'
p2209
sg10
S'xxe4de87140e1bdb5e853a6fb37f537c00'
p2210
sg12
S'xxcc458920e498aaac7714e99259d086ab'
p2211
sg14
S'Mozilla/5.0 (Linux; Android 5.1.1; Redmi Note 3 Build/LMY47V) AppleWebKit/537.36 (KHTML, like Gecko) Version/4.0 Chrome/37.0.0.0 Mobile MQQBrowser/6.8 TBS/036849 Safari/537.36 MicroMessenger/6.3.27.880 NetType/WIFI Language/zh_CN'
p2212
sg16
S'e5e55eadd31333dc0403af5757921e00'
p2213
sa(dp2214
g2
S'17720'
p2215
sg4
S'6967'
p2216
sg6
S'02c0b4df7fa20d94b9dd422e5ac258db'
p2217
sg8
S'xx01a5237e7e68a910b2304c9470bd81cd'
p2218
sg10
S'xxe4de87140e1bdb5e853a6fb37f537c00'
p2219
sg12
S'xxcc458920e498aaac7714e99259d086ab'
p2220
sg14
S'Mozilla/5.0 (Linux; Android 5.1.1; Redmi Note 3 Build/LMY47V) AppleWebKit/537.36 (KHTML, like Gecko) Version/4.0 Chrome/37.0.0.0 Mobile MQQBrowser/6.8 TBS/036849 Safari/537.36 MicroMessenger/6.3.27.880 NetType/WIFI Language/zh_CN'
p2221
sg16
S'e5e55eadd31333dc0403af5757921e00'
p2222
sa(dp2223
g2
S'17720'
p2224
sg4
S'6979'
p2225
sg6
S'02c0b4df7fa20d94b9dd422e5ac258db'
p2226
sg8
S'xx01a5237e7e68a910b2304c9470bd81cd'
p2227
sg10
S'xxe4de87140e1bdb5e853a6fb37f537c00'
p2228
sg12
S'xxcc458920e498aaac7714e99259d086ab'
p2229
sg14
S'Mozilla/5.0 (Linux; Android 5.1.1; Redmi Note 3 Build/LMY47V) AppleWebKit/537.36 (KHTML, like Gecko) Version/4.0 Chrome/37.0.0.0 Mobile MQQBrowser/6.8 TBS/036849 Safari/537.36 MicroMessenger/6.3.27.880 NetType/WIFI Language/zh_CN'
p2230
sg16
S'e5e55eadd31333dc0403af5757921e00'
p2231
sa(dp2232
g2
S'17720'
p2233
sg4
S'6992'
p2234
sg6
S'02c0b4df7fa20d94b9dd422e5ac258db'
p2235
sg8
S'xx01a5237e7e68a910b2304c9470bd81cd'
p2236
sg10
S'xxe4de87140e1bdb5e853a6fb37f537c00'
p2237
sg12
S'xxcc458920e498aaac7714e99259d086ab'
p2238
sg14
S'Mozilla/5.0 (Linux; Android 5.1.1; Redmi Note 3 Build/LMY47V) AppleWebKit/537.36 (KHTML, like Gecko) Version/4.0 Chrome/37.0.0.0 Mobile MQQBrowser/6.8 TBS/036849 Safari/537.36 MicroMessenger/6.3.27.880 NetType/WIFI Language/zh_CN'
p2239
sg16
S'e5e55eadd31333dc0403af5757921e00'
p2240
sa(dp2241
g2
S'17720'
p2242
sg4
S'7007'
p2243
sg6
S'02c0b4df7fa20d94b9dd422e5ac258db'
p2244
sg8
S'xx01a5237e7e68a910b2304c9470bd81cd'
p2245
sg10
S'xxe4de87140e1bdb5e853a6fb37f537c00'
p2246
sg12
S'xxcc458920e498aaac7714e99259d086ab'
p2247
sg14
S'Mozilla/5.0 (Linux; Android 5.1.1; Redmi Note 3 Build/LMY47V) AppleWebKit/537.36 (KHTML, like Gecko) Version/4.0 Chrome/37.0.0.0 Mobile MQQBrowser/6.8 TBS/036849 Safari/537.36 MicroMessenger/6.3.27.880 NetType/WIFI Language/zh_CN'
p2248
sg16
S'e5e55eadd31333dc0403af5757921e00'
p2249
sa(dp2250
g2
S'17720'
p2251
sg4
S'7021'
p2252
sg6
S'02c0b4df7fa20d94b9dd422e5ac258db'
p2253
sg8
S'xx01a5237e7e68a910b2304c9470bd81cd'
p2254
sg10
S'xxe4de87140e1bdb5e853a6fb37f537c00'
p2255
sg12
S'xxcc458920e498aaac7714e99259d086ab'
p2256
sg14
S'Mozilla/5.0 (Linux; Android 5.1.1; Redmi Note 3 Build/LMY47V) AppleWebKit/537.36 (KHTML, like Gecko) Version/4.0 Chrome/37.0.0.0 Mobile MQQBrowser/6.8 TBS/036849 Safari/537.36 MicroMessenger/6.3.27.880 NetType/WIFI Language/zh_CN'
p2257
sg16
S'e5e55eadd31333dc0403af5757921e00'
p2258
sa(dp2259
g2
S'17720'
p2260
sg4
S'7057'
p2261
sg6
S'02c0b4df7fa20d94b9dd422e5ac258db'
p2262
sg8
S'xx01a5237e7e68a910b2304c9470bd81cd'
p2263
sg10
S'xxe4de87140e1bdb5e853a6fb37f537c00'
p2264
sg12
S'xxcc458920e498aaac7714e99259d086ab'
p2265
sg14
S'Mozilla/5.0 (Linux; Android 5.1.1; Redmi Note 3 Build/LMY47V) AppleWebKit/537.36 (KHTML, like Gecko) Version/4.0 Chrome/37.0.0.0 Mobile MQQBrowser/6.8 TBS/036849 Safari/537.36 MicroMessenger/6.3.27.880 NetType/WIFI Language/zh_CN'
p2266
sg16
S'e5e55eadd31333dc0403af5757921e00'
p2267
sa(dp2268
g2
S'17720'
p2269
sg4
S'7069'
p2270
sg6
S'02c0b4df7fa20d94b9dd422e5ac258db'
p2271
sg8
S'xx01a5237e7e68a910b2304c9470bd81cd'
p2272
sg10
S'xxe4de87140e1bdb5e853a6fb37f537c00'
p2273
sg12
S'xxcc458920e498aaac7714e99259d086ab'
p2274
sg14
S'Mozilla/5.0 (Linux; Android 5.1.1; Redmi Note 3 Build/LMY47V) AppleWebKit/537.36 (KHTML, like Gecko) Version/4.0 Chrome/37.0.0.0 Mobile MQQBrowser/6.8 TBS/036849 Safari/537.36 MicroMessenger/6.3.27.880 NetType/WIFI Language/zh_CN'
p2275
sg16
S'e5e55eadd31333dc0403af5757921e00'
p2276
sa(dp2277
g2
S'17720'
p2278
sg4
S'7083'
p2279
sg6
S'02c0b4df7fa20d94b9dd422e5ac258db'
p2280
sg8
S'xx01a5237e7e68a910b2304c9470bd81cd'
p2281
sg10
S'xxe4de87140e1bdb5e853a6fb37f537c00'
p2282
sg12
S'xxcc458920e498aaac7714e99259d086ab'
p2283
sg14
S'Mozilla/5.0 (Linux; Android 5.1.1; Redmi Note 3 Build/LMY47V) AppleWebKit/537.36 (KHTML, like Gecko) Version/4.0 Chrome/37.0.0.0 Mobile MQQBrowser/6.8 TBS/036849 Safari/537.36 MicroMessenger/6.3.27.880 NetType/WIFI Language/zh_CN'
p2284
sg16
S'e5e55eadd31333dc0403af5757921e00'
p2285
sa(dp2286
g2
S'17720'
p2287
sg4
S'7091'
p2288
sg6
S'02c0b4df7fa20d94b9dd422e5ac258db'
p2289
sg8
S'xx01a5237e7e68a910b2304c9470bd81cd'
p2290
sg10
S'xxe4de87140e1bdb5e853a6fb37f537c00'
p2291
sg12
S'xxcc458920e498aaac7714e99259d086ab'
p2292
sg14
S'Mozilla/5.0 (Linux; Android 5.1.1; Redmi Note 3 Build/LMY47V) AppleWebKit/537.36 (KHTML, like Gecko) Version/4.0 Chrome/37.0.0.0 Mobile MQQBrowser/6.8 TBS/036849 Safari/537.36 MicroMessenger/6.3.27.880 NetType/WIFI Language/zh_CN'
p2293
sg16
S'e5e55eadd31333dc0403af5757921e00'
p2294
sa(dp2295
g2
S'17720'
p2296
sg4
S'7104'
p2297
sg6
S'02c0b4df7fa20d94b9dd422e5ac258db'
p2298
sg8
S'xx01a5237e7e68a910b2304c9470bd81cd'
p2299
sg10
S'xxe4de87140e1bdb5e853a6fb37f537c00'
p2300
sg12
S'xxcc458920e498aaac7714e99259d086ab'
p2301
sg14
S'Mozilla/5.0 (Linux; Android 5.1.1; Redmi Note 3 Build/LMY47V) AppleWebKit/537.36 (KHTML, like Gecko) Version/4.0 Chrome/37.0.0.0 Mobile MQQBrowser/6.8 TBS/036849 Safari/537.36 MicroMessenger/6.3.27.880 NetType/WIFI Language/zh_CN'
p2302
sg16
S'e5e55eadd31333dc0403af5757921e00'
p2303
sa(dp2304
g2
S'17720'
p2305
sg4
S'7122'
p2306
sg6
S'02c0b4df7fa20d94b9dd422e5ac258db'
p2307
sg8
S'xx01a5237e7e68a910b2304c9470bd81cd'
p2308
sg10
S'xxe4de87140e1bdb5e853a6fb37f537c00'
p2309
sg12
S'xxcc458920e498aaac7714e99259d086ab'
p2310
sg14
S'Mozilla/5.0 (Linux; Android 5.1.1; Redmi Note 3 Build/LMY47V) AppleWebKit/537.36 (KHTML, like Gecko) Version/4.0 Chrome/37.0.0.0 Mobile MQQBrowser/6.8 TBS/036849 Safari/537.36 MicroMessenger/6.3.27.880 NetType/WIFI Language/zh_CN'
p2311
sg16
S'e5e55eadd31333dc0403af5757921e00'
p2312
sa(dp2313
g2
S'17720'
p2314
sg4
S'7134'
p2315
sg6
S'02c0b4df7fa20d94b9dd422e5ac258db'
p2316
sg8
S'xx01a5237e7e68a910b2304c9470bd81cd'
p2317
sg10
S'xxe4de87140e1bdb5e853a6fb37f537c00'
p2318
sg12
S'xxcc458920e498aaac7714e99259d086ab'
p2319
sg14
S'Mozilla/5.0 (Linux; Android 5.1.1; Redmi Note 3 Build/LMY47V) AppleWebKit/537.36 (KHTML, like Gecko) Version/4.0 Chrome/37.0.0.0 Mobile MQQBrowser/6.8 TBS/036849 Safari/537.36 MicroMessenger/6.3.27.880 NetType/WIFI Language/zh_CN'
p2320
sg16
S'e5e55eadd31333dc0403af5757921e00'
p2321
sa(dp2322
g2
S'49829'
p2323
sg4
S'7147'
p2324
sg6
S'66446b7cf6cccd65aeae213a3522e817'
p2325
sg8
S'xx0d24533402caa73a8e964fd9b623ea69'
p2326
sg10
S'xxe4de87140e1bdb5e853a6fb37f537c00'
p2327
sg12
S'xxcc458920e498aaac7714e99259d086ab'
p2328
sg14
S'Mozilla/5.0 (Linux; Android 5.1.1; Redmi Note 3 Build/LMY47V) AppleWebKit/537.36 (KHTML, like Gecko) Version/4.0 Chrome/37.0.0.0 Mobile MQQBrowser/6.8 TBS/036824 Safari/537.36 MicroMessenger/6.3.27.880 NetType/3gnet Language/zh_CN'
p2329
sg16
S'779a9c8c46c3ce44ba53081e5f3c1ece'
p2330
sa(dp2331
g2
S'49829'
p2332
sg4
S'7162'
p2333
sg6
S'66446b7cf6cccd65aeae213a3522e817'
p2334
sg8
S'xx0d24533402caa73a8e964fd9b623ea69'
p2335
sg10
S'xxe4de87140e1bdb5e853a6fb37f537c00'
p2336
sg12
S'xxcc458920e498aaac7714e99259d086ab'
p2337
sg14
S'Mozilla/5.0 (Linux; Android 5.1.1; Redmi Note 3 Build/LMY47V) AppleWebKit/537.36 (KHTML, like Gecko) Version/4.0 Chrome/37.0.0.0 Mobile MQQBrowser/6.8 TBS/036824 Safari/537.36 MicroMessenger/6.3.27.880 NetType/3gnet Language/zh_CN'
p2338
sg16
S'779a9c8c46c3ce44ba53081e5f3c1ece'
p2339
sa(dp2340
g2
S'17720'
p2341
sg4
S'7165'
p2342
sg6
S'02c0b4df7fa20d94b9dd422e5ac258db'
p2343
sg8
S'xx01a5237e7e68a910b2304c9470bd81cd'
p2344
sg10
S'xxe4de87140e1bdb5e853a6fb37f537c00'
p2345
sg12
S'xxcc458920e498aaac7714e99259d086ab'
p2346
sg14
S'Mozilla/5.0 (Linux; Android 5.1.1; Redmi Note 3 Build/LMY47V) AppleWebKit/537.36 (KHTML, like Gecko) Version/4.0 Chrome/37.0.0.0 Mobile MQQBrowser/6.8 TBS/036849 Safari/537.36 MicroMessenger/6.3.27.880 NetType/WIFI Language/zh_CN'
p2347
sg16
S'e5e55eadd31333dc0403af5757921e00'
p2348
sa(dp2349
g2
S'49829'
p2350
sg4
S'7176'
p2351
sg6
S'66446b7cf6cccd65aeae213a3522e817'
p2352
sg8
S'xx0d24533402caa73a8e964fd9b623ea69'
p2353
sg10
S'xxe4de87140e1bdb5e853a6fb37f537c00'
p2354
sg12
S'xxcc458920e498aaac7714e99259d086ab'
p2355
sg14
S'Mozilla/5.0 (Linux; Android 5.1.1; Redmi Note 3 Build/LMY47V) AppleWebKit/537.36 (KHTML, like Gecko) Version/4.0 Chrome/37.0.0.0 Mobile MQQBrowser/6.8 TBS/036824 Safari/537.36 MicroMessenger/6.3.27.880 NetType/3gnet Language/zh_CN'
p2356
sg16
S'779a9c8c46c3ce44ba53081e5f3c1ece'
p2357
sa(dp2358
g2
S'49829'
p2359
sg4
S'7190'
p2360
sg6
S'66446b7cf6cccd65aeae213a3522e817'
p2361
sg8
S'xx0d24533402caa73a8e964fd9b623ea69'
p2362
sg10
S'xxe4de87140e1bdb5e853a6fb37f537c00'
p2363
sg12
S'xxcc458920e498aaac7714e99259d086ab'
p2364
sg14
S'Mozilla/5.0 (Linux; Android 5.1.1; Redmi Note 3 Build/LMY47V) AppleWebKit/537.36 (KHTML, like Gecko) Version/4.0 Chrome/37.0.0.0 Mobile MQQBrowser/6.8 TBS/036824 Safari/537.36 MicroMessenger/6.3.27.880 NetType/3gnet Language/zh_CN'
p2365
sg16
S'779a9c8c46c3ce44ba53081e5f3c1ece'
p2366
sa(dp2367
g2
S'49829'
p2368
sg4
S'7206'
p2369
sg6
S'66446b7cf6cccd65aeae213a3522e817'
p2370
sg8
S'xx0d24533402caa73a8e964fd9b623ea69'
p2371
sg10
S'xxe4de87140e1bdb5e853a6fb37f537c00'
p2372
sg12
S'xxcc458920e498aaac7714e99259d086ab'
p2373
sg14
S'Mozilla/5.0 (Linux; Android 5.1.1; Redmi Note 3 Build/LMY47V) AppleWebKit/537.36 (KHTML, like Gecko) Version/4.0 Chrome/37.0.0.0 Mobile MQQBrowser/6.8 TBS/036824 Safari/537.36 MicroMessenger/6.3.27.880 NetType/3gnet Language/zh_CN'
p2374
sg16
S'779a9c8c46c3ce44ba53081e5f3c1ece'
p2375
sa(dp2376
g2
S'17720'
p2377
sg4
S'7207'
p2378
sg6
S'02c0b4df7fa20d94b9dd422e5ac258db'
p2379
sg8
S'xx01a5237e7e68a910b2304c9470bd81cd'
p2380
sg10
S'xxe4de87140e1bdb5e853a6fb37f537c00'
p2381
sg12
S'xxcc458920e498aaac7714e99259d086ab'
p2382
sg14
S'Mozilla/5.0 (Linux; Android 5.1.1; Redmi Note 3 Build/LMY47V) AppleWebKit/537.36 (KHTML, like Gecko) Version/4.0 Chrome/37.0.0.0 Mobile MQQBrowser/6.8 TBS/036849 Safari/537.36 MicroMessenger/6.3.27.880 NetType/WIFI Language/zh_CN'
p2383
sg16
S'e5e55eadd31333dc0403af5757921e00'
p2384
sa(dp2385
g2
S'17720'
p2386
sg4
S'7240'
p2387
sg6
S'02c0b4df7fa20d94b9dd422e5ac258db'
p2388
sg8
S'xx01a5237e7e68a910b2304c9470bd81cd'
p2389
sg10
S'xxe4de87140e1bdb5e853a6fb37f537c00'
p2390
sg12
S'xxcc458920e498aaac7714e99259d086ab'
p2391
sg14
S'Mozilla/5.0 (Linux; Android 5.1.1; Redmi Note 3 Build/LMY47V) AppleWebKit/537.36 (KHTML, like Gecko) Version/4.0 Chrome/37.0.0.0 Mobile MQQBrowser/6.8 TBS/036849 Safari/537.36 MicroMessenger/6.3.27.880 NetType/WIFI Language/zh_CN'
p2392
sg16
S'e5e55eadd31333dc0403af5757921e00'
p2393
sa(dp2394
g2
S'17720'
p2395
sg4
S'7278'
p2396
sg6
S'02c0b4df7fa20d94b9dd422e5ac258db'
p2397
sg8
S'xx01a5237e7e68a910b2304c9470bd81cd'
p2398
sg10
S'xxe4de87140e1bdb5e853a6fb37f537c00'
p2399
sg12
S'xxcc458920e498aaac7714e99259d086ab'
p2400
sg14
S'Mozilla/5.0 (Linux; Android 5.1.1; Redmi Note 3 Build/LMY47V) AppleWebKit/537.36 (KHTML, like Gecko) Version/4.0 Chrome/37.0.0.0 Mobile MQQBrowser/6.8 TBS/036849 Safari/537.36 MicroMessenger/6.3.27.880 NetType/WIFI Language/zh_CN'
p2401
sg16
S'e5e55eadd31333dc0403af5757921e00'
p2402
sa(dp2403
g2
S'17720'
p2404
sg4
S'7324'
p2405
sg6
S'02c0b4df7fa20d94b9dd422e5ac258db'
p2406
sg8
S'xx01a5237e7e68a910b2304c9470bd81cd'
p2407
sg10
S'xxe4de87140e1bdb5e853a6fb37f537c00'
p2408
sg12
S'xxcc458920e498aaac7714e99259d086ab'
p2409
sg14
S'Mozilla/5.0 (Linux; Android 5.1.1; Redmi Note 3 Build/LMY47V) AppleWebKit/537.36 (KHTML, like Gecko) Version/4.0 Chrome/37.0.0.0 Mobile MQQBrowser/6.8 TBS/036849 Safari/537.36 MicroMessenger/6.3.27.880 NetType/WIFI Language/zh_CN'
p2410
sg16
S'e5e55eadd31333dc0403af5757921e00'
p2411
sa(dp2412
g2
S'17720'
p2413
sg4
S'7362'
p2414
sg6
S'02c0b4df7fa20d94b9dd422e5ac258db'
p2415
sg8
S'xx01a5237e7e68a910b2304c9470bd81cd'
p2416
sg10
S'xxe4de87140e1bdb5e853a6fb37f537c00'
p2417
sg12
S'xxcc458920e498aaac7714e99259d086ab'
p2418
sg14
S'Mozilla/5.0 (Linux; Android 5.1.1; Redmi Note 3 Build/LMY47V) AppleWebKit/537.36 (KHTML, like Gecko) Version/4.0 Chrome/37.0.0.0 Mobile MQQBrowser/6.8 TBS/036849 Safari/537.36 MicroMessenger/6.3.27.880 NetType/WIFI Language/zh_CN'
p2419
sg16
S'e5e55eadd31333dc0403af5757921e00'
p2420
sa(dp2421
g2
S'17720'
p2422
sg4
S'7444'
p2423
sg6
S'02c0b4df7fa20d94b9dd422e5ac258db'
p2424
sg8
S'xx01a5237e7e68a910b2304c9470bd81cd'
p2425
sg10
S'xxe4de87140e1bdb5e853a6fb37f537c00'
p2426
sg12
S'xxcc458920e498aaac7714e99259d086ab'
p2427
sg14
S'Mozilla/5.0 (Linux; Android 5.1.1; Redmi Note 3 Build/LMY47V) AppleWebKit/537.36 (KHTML, like Gecko) Version/4.0 Chrome/37.0.0.0 Mobile MQQBrowser/6.8 TBS/036849 Safari/537.36 MicroMessenger/6.3.27.880 NetType/WIFI Language/zh_CN'
p2428
sg16
S'e5e55eadd31333dc0403af5757921e00'
p2429
sa(dp2430
g2
S'17720'
p2431
sg4
S'7585'
p2432
sg6
S'02c0b4df7fa20d94b9dd422e5ac258db'
p2433
sg8
S'xx01a5237e7e68a910b2304c9470bd81cd'
p2434
sg10
S'xxe4de87140e1bdb5e853a6fb37f537c00'
p2435
sg12
S'xxcc458920e498aaac7714e99259d086ab'
p2436
sg14
S'Mozilla/5.0 (Linux; Android 5.1.1; Redmi Note 3 Build/LMY47V) AppleWebKit/537.36 (KHTML, like Gecko) Version/4.0 Chrome/37.0.0.0 Mobile MQQBrowser/6.8 TBS/036849 Safari/537.36 MicroMessenger/6.3.27.880 NetType/WIFI Language/zh_CN'
p2437
sg16
S'e5e55eadd31333dc0403af5757921e00'
p2438
sa(dp2439
g2
S'17720'
p2440
sg4
S'7670'
p2441
sg6
S'02c0b4df7fa20d94b9dd422e5ac258db'
p2442
sg8
S'xx01a5237e7e68a910b2304c9470bd81cd'
p2443
sg10
S'xxe4de87140e1bdb5e853a6fb37f537c00'
p2444
sg12
S'xxcc458920e498aaac7714e99259d086ab'
p2445
sg14
S'Mozilla/5.0 (Linux; Android 5.1.1; Redmi Note 3 Build/LMY47V) AppleWebKit/537.36 (KHTML, like Gecko) Version/4.0 Chrome/37.0.0.0 Mobile MQQBrowser/6.8 TBS/036849 Safari/537.36 MicroMessenger/6.3.27.880 NetType/WIFI Language/zh_CN'
p2446
sg16
S'e5e55eadd31333dc0403af5757921e00'
p2447
sa(dp2448
g2
S'17720'
p2449
sg4
S'7681'
p2450
sg6
S'02c0b4df7fa20d94b9dd422e5ac258db'
p2451
sg8
S'xx01a5237e7e68a910b2304c9470bd81cd'
p2452
sg10
S'xxe4de87140e1bdb5e853a6fb37f537c00'
p2453
sg12
S'xxcc458920e498aaac7714e99259d086ab'
p2454
sg14
S'Mozilla/5.0 (Linux; Android 5.1.1; Redmi Note 3 Build/LMY47V) AppleWebKit/537.36 (KHTML, like Gecko) Version/4.0 Chrome/37.0.0.0 Mobile MQQBrowser/6.8 TBS/036849 Safari/537.36 MicroMessenger/6.3.27.880 NetType/WIFI Language/zh_CN'
p2455
sg16
S'e5e55eadd31333dc0403af5757921e00'
p2456
sa(dp2457
g2
S'17720'
p2458
sg4
S'7689'
p2459
sg6
S'02c0b4df7fa20d94b9dd422e5ac258db'
p2460
sg8
S'xx01a5237e7e68a910b2304c9470bd81cd'
p2461
sg10
S'xxe4de87140e1bdb5e853a6fb37f537c00'
p2462
sg12
S'xxcc458920e498aaac7714e99259d086ab'
p2463
sg14
S'Mozilla/5.0 (Linux; Android 5.1.1; Redmi Note 3 Build/LMY47V) AppleWebKit/537.36 (KHTML, like Gecko) Version/4.0 Chrome/37.0.0.0 Mobile MQQBrowser/6.8 TBS/036849 Safari/537.36 MicroMessenger/6.3.27.880 NetType/WIFI Language/zh_CN'
p2464
sg16
S'e5e55eadd31333dc0403af5757921e00'
p2465
sa(dp2466
g2
S'17720'
p2467
sg4
S'7701'
p2468
sg6
S'02c0b4df7fa20d94b9dd422e5ac258db'
p2469
sg8
S'xx01a5237e7e68a910b2304c9470bd81cd'
p2470
sg10
S'xxe4de87140e1bdb5e853a6fb37f537c00'
p2471
sg12
S'xxcc458920e498aaac7714e99259d086ab'
p2472
sg14
S'Mozilla/5.0 (Linux; Android 5.1.1; Redmi Note 3 Build/LMY47V) AppleWebKit/537.36 (KHTML, like Gecko) Version/4.0 Chrome/37.0.0.0 Mobile MQQBrowser/6.8 TBS/036849 Safari/537.36 MicroMessenger/6.3.27.880 NetType/WIFI Language/zh_CN'
p2473
sg16
S'e5e55eadd31333dc0403af5757921e00'
p2474
sa(dp2475
g2
S'17720'
p2476
sg4
S'7711'
p2477
sg6
S'02c0b4df7fa20d94b9dd422e5ac258db'
p2478
sg8
S'xx01a5237e7e68a910b2304c9470bd81cd'
p2479
sg10
S'xxe4de87140e1bdb5e853a6fb37f537c00'
p2480
sg12
S'xxcc458920e498aaac7714e99259d086ab'
p2481
sg14
S'Mozilla/5.0 (Linux; Android 5.1.1; Redmi Note 3 Build/LMY47V) AppleWebKit/537.36 (KHTML, like Gecko) Version/4.0 Chrome/37.0.0.0 Mobile MQQBrowser/6.8 TBS/036849 Safari/537.36 MicroMessenger/6.3.27.880 NetType/WIFI Language/zh_CN'
p2482
sg16
S'e5e55eadd31333dc0403af5757921e00'
p2483
sa(dp2484
g2
S'17720'
p2485
sg4
S'7722'
p2486
sg6
S'02c0b4df7fa20d94b9dd422e5ac258db'
p2487
sg8
S'xx01a5237e7e68a910b2304c9470bd81cd'
p2488
sg10
S'xxe4de87140e1bdb5e853a6fb37f537c00'
p2489
sg12
S'xxcc458920e498aaac7714e99259d086ab'
p2490
sg14
S'Mozilla/5.0 (Linux; Android 5.1.1; Redmi Note 3 Build/LMY47V) AppleWebKit/537.36 (KHTML, like Gecko) Version/4.0 Chrome/37.0.0.0 Mobile MQQBrowser/6.8 TBS/036849 Safari/537.36 MicroMessenger/6.3.27.880 NetType/WIFI Language/zh_CN'
p2491
sg16
S'e5e55eadd31333dc0403af5757921e00'
p2492
sa(dp2493
g2
S'17720'
p2494
sg4
S'7735'
p2495
sg6
S'02c0b4df7fa20d94b9dd422e5ac258db'
p2496
sg8
S'xx01a5237e7e68a910b2304c9470bd81cd'
p2497
sg10
S'xxe4de87140e1bdb5e853a6fb37f537c00'
p2498
sg12
S'xxcc458920e498aaac7714e99259d086ab'
p2499
sg14
S'Mozilla/5.0 (Linux; Android 5.1.1; Redmi Note 3 Build/LMY47V) AppleWebKit/537.36 (KHTML, like Gecko) Version/4.0 Chrome/37.0.0.0 Mobile MQQBrowser/6.8 TBS/036849 Safari/537.36 MicroMessenger/6.3.27.880 NetType/WIFI Language/zh_CN'
p2500
sg16
S'e5e55eadd31333dc0403af5757921e00'
p2501
sa(dp2502
g2
S'17720'
p2503
sg4
S'7752'
p2504
sg6
S'02c0b4df7fa20d94b9dd422e5ac258db'
p2505
sg8
S'xx01a5237e7e68a910b2304c9470bd81cd'
p2506
sg10
S'xxe4de87140e1bdb5e853a6fb37f537c00'
p2507
sg12
S'xxcc458920e498aaac7714e99259d086ab'
p2508
sg14
S'Mozilla/5.0 (Linux; Android 5.1.1; Redmi Note 3 Build/LMY47V) AppleWebKit/537.36 (KHTML, like Gecko) Version/4.0 Chrome/37.0.0.0 Mobile MQQBrowser/6.8 TBS/036849 Safari/537.36 MicroMessenger/6.3.27.880 NetType/WIFI Language/zh_CN'
p2509
sg16
S'e5e55eadd31333dc0403af5757921e00'
p2510
sa(dp2511
g2
S'17720'
p2512
sg4
S'7766'
p2513
sg6
S'02c0b4df7fa20d94b9dd422e5ac258db'
p2514
sg8
S'xx01a5237e7e68a910b2304c9470bd81cd'
p2515
sg10
S'xxe4de87140e1bdb5e853a6fb37f537c00'
p2516
sg12
S'xxcc458920e498aaac7714e99259d086ab'
p2517
sg14
S'Mozilla/5.0 (Linux; Android 5.1.1; Redmi Note 3 Build/LMY47V) AppleWebKit/537.36 (KHTML, like Gecko) Version/4.0 Chrome/37.0.0.0 Mobile MQQBrowser/6.8 TBS/036849 Safari/537.36 MicroMessenger/6.3.27.880 NetType/WIFI Language/zh_CN'
p2518
sg16
S'e5e55eadd31333dc0403af5757921e00'
p2519
sa(dp2520
g2
S'17720'
p2521
sg4
S'7785'
p2522
sg6
S'02c0b4df7fa20d94b9dd422e5ac258db'
p2523
sg8
S'xx01a5237e7e68a910b2304c9470bd81cd'
p2524
sg10
S'xxe4de87140e1bdb5e853a6fb37f537c00'
p2525
sg12
S'xxcc458920e498aaac7714e99259d086ab'
p2526
sg14
S'Mozilla/5.0 (Linux; Android 5.1.1; Redmi Note 3 Build/LMY47V) AppleWebKit/537.36 (KHTML, like Gecko) Version/4.0 Chrome/37.0.0.0 Mobile MQQBrowser/6.8 TBS/036849 Safari/537.36 MicroMessenger/6.3.27.880 NetType/WIFI Language/zh_CN'
p2527
sg16
S'e5e55eadd31333dc0403af5757921e00'
p2528
sa(dp2529
g2
S'17720'
p2530
sg4
S'7804'
p2531
sg6
S'02c0b4df7fa20d94b9dd422e5ac258db'
p2532
sg8
S'xx01a5237e7e68a910b2304c9470bd81cd'
p2533
sg10
S'xxe4de87140e1bdb5e853a6fb37f537c00'
p2534
sg12
S'xxcc458920e498aaac7714e99259d086ab'
p2535
sg14
S'Mozilla/5.0 (Linux; Android 5.1.1; Redmi Note 3 Build/LMY47V) AppleWebKit/537.36 (KHTML, like Gecko) Version/4.0 Chrome/37.0.0.0 Mobile MQQBrowser/6.8 TBS/036849 Safari/537.36 MicroMessenger/6.3.27.880 NetType/WIFI Language/zh_CN'
p2536
sg16
S'e5e55eadd31333dc0403af5757921e00'
p2537
sa(dp2538
g2
S'17720'
p2539
sg4
S'7820'
p2540
sg6
S'02c0b4df7fa20d94b9dd422e5ac258db'
p2541
sg8
S'xx01a5237e7e68a910b2304c9470bd81cd'
p2542
sg10
S'xxe4de87140e1bdb5e853a6fb37f537c00'
p2543
sg12
S'xxcc458920e498aaac7714e99259d086ab'
p2544
sg14
S'Mozilla/5.0 (Linux; Android 5.1.1; Redmi Note 3 Build/LMY47V) AppleWebKit/537.36 (KHTML, like Gecko) Version/4.0 Chrome/37.0.0.0 Mobile MQQBrowser/6.8 TBS/036849 Safari/537.36 MicroMessenger/6.3.27.880 NetType/WIFI Language/zh_CN'
p2545
sg16
S'e5e55eadd31333dc0403af5757921e00'
p2546
sa(dp2547
g2
S'17720'
p2548
sg4
S'7839'
p2549
sg6
S'02c0b4df7fa20d94b9dd422e5ac258db'
p2550
sg8
S'xx01a5237e7e68a910b2304c9470bd81cd'
p2551
sg10
S'xxe4de87140e1bdb5e853a6fb37f537c00'
p2552
sg12
S'xxcc458920e498aaac7714e99259d086ab'
p2553
sg14
S'Mozilla/5.0 (Linux; Android 5.1.1; Redmi Note 3 Build/LMY47V) AppleWebKit/537.36 (KHTML, like Gecko) Version/4.0 Chrome/37.0.0.0 Mobile MQQBrowser/6.8 TBS/036849 Safari/537.36 MicroMessenger/6.3.27.880 NetType/WIFI Language/zh_CN'
p2554
sg16
S'e5e55eadd31333dc0403af5757921e00'
p2555
sa(dp2556
g2
S'17720'
p2557
sg4
S'7879'
p2558
sg6
S'02c0b4df7fa20d94b9dd422e5ac258db'
p2559
sg8
S'xx01a5237e7e68a910b2304c9470bd81cd'
p2560
sg10
S'xxe4de87140e1bdb5e853a6fb37f537c00'
p2561
sg12
S'xxcc458920e498aaac7714e99259d086ab'
p2562
sg14
S'Mozilla/5.0 (Linux; Android 5.1.1; Redmi Note 3 Build/LMY47V) AppleWebKit/537.36 (KHTML, like Gecko) Version/4.0 Chrome/37.0.0.0 Mobile MQQBrowser/6.8 TBS/036849 Safari/537.36 MicroMessenger/6.3.27.880 NetType/WIFI Language/zh_CN'
p2563
sg16
S'e5e55eadd31333dc0403af5757921e00'
p2564
sa(dp2565
g2
S'17720'
p2566
sg4
S'7913'
p2567
sg6
S'02c0b4df7fa20d94b9dd422e5ac258db'
p2568
sg8
S'xx01a5237e7e68a910b2304c9470bd81cd'
p2569
sg10
S'xxe4de87140e1bdb5e853a6fb37f537c00'
p2570
sg12
S'xxcc458920e498aaac7714e99259d086ab'
p2571
sg14
S'Mozilla/5.0 (Linux; Android 5.1.1; Redmi Note 3 Build/LMY47V) AppleWebKit/537.36 (KHTML, like Gecko) Version/4.0 Chrome/37.0.0.0 Mobile MQQBrowser/6.8 TBS/036849 Safari/537.36 MicroMessenger/6.3.27.880 NetType/WIFI Language/zh_CN'
p2572
sg16
S'e5e55eadd31333dc0403af5757921e00'
p2573
sa(dp2574
g2
S'17720'
p2575
sg4
S'8152'
p2576
sg6
S'02c0b4df7fa20d94b9dd422e5ac258db'
p2577
sg8
S'xx01a5237e7e68a910b2304c9470bd81cd'
p2578
sg10
S'xxe4de87140e1bdb5e853a6fb37f537c00'
p2579
sg12
S'xxcc458920e498aaac7714e99259d086ab'
p2580
sg14
S'Mozilla/5.0 (Linux; Android 5.1.1; Redmi Note 3 Build/LMY47V) AppleWebKit/537.36 (KHTML, like Gecko) Version/4.0 Chrome/37.0.0.0 Mobile MQQBrowser/6.8 TBS/036849 Safari/537.36 MicroMessenger/6.3.27.880 NetType/WIFI Language/zh_CN'
p2581
sg16
S'e5e55eadd31333dc0403af5757921e00'
p2582
sa(dp2583
g2
S'17720'
p2584
sg4
S'8218'
p2585
sg6
S'02c0b4df7fa20d94b9dd422e5ac258db'
p2586
sg8
S'xx01a5237e7e68a910b2304c9470bd81cd'
p2587
sg10
S'xxe4de87140e1bdb5e853a6fb37f537c00'
p2588
sg12
S'xxcc458920e498aaac7714e99259d086ab'
p2589
sg14
S'Mozilla/5.0 (Linux; Android 5.1.1; Redmi Note 3 Build/LMY47V) AppleWebKit/537.36 (KHTML, like Gecko) Version/4.0 Chrome/37.0.0.0 Mobile MQQBrowser/6.8 TBS/036849 Safari/537.36 MicroMessenger/6.3.27.880 NetType/WIFI Language/zh_CN'
p2590
sg16
S'e5e55eadd31333dc0403af5757921e00'
p2591
sa(dp2592
g2
S'17720'
p2593
sg4
S'8587'
p2594
sg6
S'02c0b4df7fa20d94b9dd422e5ac258db'
p2595
sg8
S'xx01a5237e7e68a910b2304c9470bd81cd'
p2596
sg10
S'xxe4de87140e1bdb5e853a6fb37f537c00'
p2597
sg12
S'xxcc458920e498aaac7714e99259d086ab'
p2598
sg14
S'Mozilla/5.0 (Linux; Android 5.1.1; Redmi Note 3 Build/LMY47V) AppleWebKit/537.36 (KHTML, like Gecko) Version/4.0 Chrome/37.0.0.0 Mobile MQQBrowser/6.8 TBS/036849 Safari/537.36 MicroMessenger/6.3.27.880 NetType/WIFI Language/zh_CN'
p2599
sg16
S'e5e55eadd31333dc0403af5757921e00'
p2600
sa(dp2601
g2
S'17720'
p2602
sg4
S'8605'
p2603
sg6
S'02c0b4df7fa20d94b9dd422e5ac258db'
p2604
sg8
S'xx01a5237e7e68a910b2304c9470bd81cd'
p2605
sg10
S'xxe4de87140e1bdb5e853a6fb37f537c00'
p2606
sg12
S'xxcc458920e498aaac7714e99259d086ab'
p2607
sg14
S'Mozilla/5.0 (Linux; Android 5.1.1; Redmi Note 3 Build/LMY47V) AppleWebKit/537.36 (KHTML, like Gecko) Version/4.0 Chrome/37.0.0.0 Mobile MQQBrowser/6.8 TBS/036849 Safari/537.36 MicroMessenger/6.3.27.880 NetType/WIFI Language/zh_CN'
p2608
sg16
S'e5e55eadd31333dc0403af5757921e00'
p2609
sa(dp2610
g2
S'17720'
p2611
sg4
S'8626'
p2612
sg6
S'02c0b4df7fa20d94b9dd422e5ac258db'
p2613
sg8
S'xx01a5237e7e68a910b2304c9470bd81cd'
p2614
sg10
S'xxe4de87140e1bdb5e853a6fb37f537c00'
p2615
sg12
S'xxcc458920e498aaac7714e99259d086ab'
p2616
sg14
S'Mozilla/5.0 (Linux; Android 5.1.1; Redmi Note 3 Build/LMY47V) AppleWebKit/537.36 (KHTML, like Gecko) Version/4.0 Chrome/37.0.0.0 Mobile MQQBrowser/6.8 TBS/036849 Safari/537.36 MicroMessenger/6.3.27.880 NetType/WIFI Language/zh_CN'
p2617
sg16
S'e5e55eadd31333dc0403af5757921e00'
p2618
sa(dp2619
g2
S'17720'
p2620
sg4
S'8641'
p2621
sg6
S'02c0b4df7fa20d94b9dd422e5ac258db'
p2622
sg8
S'xx01a5237e7e68a910b2304c9470bd81cd'
p2623
sg10
S'xxe4de87140e1bdb5e853a6fb37f537c00'
p2624
sg12
S'xxcc458920e498aaac7714e99259d086ab'
p2625
sg14
S'Mozilla/5.0 (Linux; Android 5.1.1; Redmi Note 3 Build/LMY47V) AppleWebKit/537.36 (KHTML, like Gecko) Version/4.0 Chrome/37.0.0.0 Mobile MQQBrowser/6.8 TBS/036849 Safari/537.36 MicroMessenger/6.3.27.880 NetType/WIFI Language/zh_CN'
p2626
sg16
S'e5e55eadd31333dc0403af5757921e00'
p2627
sa(dp2628
g2
S'17720'
p2629
sg4
S'8655'
p2630
sg6
S'02c0b4df7fa20d94b9dd422e5ac258db'
p2631
sg8
S'xx01a5237e7e68a910b2304c9470bd81cd'
p2632
sg10
S'xxe4de87140e1bdb5e853a6fb37f537c00'
p2633
sg12
S'xxcc458920e498aaac7714e99259d086ab'
p2634
sg14
S'Mozilla/5.0 (Linux; Android 5.1.1; Redmi Note 3 Build/LMY47V) AppleWebKit/537.36 (KHTML, like Gecko) Version/4.0 Chrome/37.0.0.0 Mobile MQQBrowser/6.8 TBS/036849 Safari/537.36 MicroMessenger/6.3.27.880 NetType/WIFI Language/zh_CN'
p2635
sg16
S'e5e55eadd31333dc0403af5757921e00'
p2636
sa(dp2637
g2
S'17720'
p2638
sg4
S'8674'
p2639
sg6
S'02c0b4df7fa20d94b9dd422e5ac258db'
p2640
sg8
S'xx01a5237e7e68a910b2304c9470bd81cd'
p2641
sg10
S'xxe4de87140e1bdb5e853a6fb37f537c00'
p2642
sg12
S'xxcc458920e498aaac7714e99259d086ab'
p2643
sg14
S'Mozilla/5.0 (Linux; Android 5.1.1; Redmi Note 3 Build/LMY47V) AppleWebKit/537.36 (KHTML, like Gecko) Version/4.0 Chrome/37.0.0.0 Mobile MQQBrowser/6.8 TBS/036849 Safari/537.36 MicroMessenger/6.3.27.880 NetType/WIFI Language/zh_CN'
p2644
sg16
S'e5e55eadd31333dc0403af5757921e00'
p2645
sa(dp2646
g2
S'17720'
p2647
sg4
S'8691'
p2648
sg6
S'02c0b4df7fa20d94b9dd422e5ac258db'
p2649
sg8
S'xx01a5237e7e68a910b2304c9470bd81cd'
p2650
sg10
S'xxe4de87140e1bdb5e853a6fb37f537c00'
p2651
sg12
S'xxcc458920e498aaac7714e99259d086ab'
p2652
sg14
S'Mozilla/5.0 (Linux; Android 5.1.1; Redmi Note 3 Build/LMY47V) AppleWebKit/537.36 (KHTML, like Gecko) Version/4.0 Chrome/37.0.0.0 Mobile MQQBrowser/6.8 TBS/036849 Safari/537.36 MicroMessenger/6.3.27.880 NetType/WIFI Language/zh_CN'
p2653
sg16
S'e5e55eadd31333dc0403af5757921e00'
p2654
sa(dp2655
g2
S'17720'
p2656
sg4
S'8711'
p2657
sg6
S'02c0b4df7fa20d94b9dd422e5ac258db'
p2658
sg8
S'xx01a5237e7e68a910b2304c9470bd81cd'
p2659
sg10
S'xxe4de87140e1bdb5e853a6fb37f537c00'
p2660
sg12
S'xxcc458920e498aaac7714e99259d086ab'
p2661
sg14
S'Mozilla/5.0 (Linux; Android 5.1.1; Redmi Note 3 Build/LMY47V) AppleWebKit/537.36 (KHTML, like Gecko) Version/4.0 Chrome/37.0.0.0 Mobile MQQBrowser/6.8 TBS/036849 Safari/537.36 MicroMessenger/6.3.27.880 NetType/WIFI Language/zh_CN'
p2662
sg16
S'e5e55eadd31333dc0403af5757921e00'
p2663
sa(dp2664
g2
S'17720'
p2665
sg4
S'8747'
p2666
sg6
S'02c0b4df7fa20d94b9dd422e5ac258db'
p2667
sg8
S'xx01a5237e7e68a910b2304c9470bd81cd'
p2668
sg10
S'xxe4de87140e1bdb5e853a6fb37f537c00'
p2669
sg12
S'xxcc458920e498aaac7714e99259d086ab'
p2670
sg14
S'Mozilla/5.0 (Linux; Android 5.1.1; Redmi Note 3 Build/LMY47V) AppleWebKit/537.36 (KHTML, like Gecko) Version/4.0 Chrome/37.0.0.0 Mobile MQQBrowser/6.8 TBS/036849 Safari/537.36 MicroMessenger/6.3.27.880 NetType/WIFI Language/zh_CN'
p2671
sg16
S'e5e55eadd31333dc0403af5757921e00'
p2672
sa(dp2673
g2
S'17720'
p2674
sg4
S'8759'
p2675
sg6
S'02c0b4df7fa20d94b9dd422e5ac258db'
p2676
sg8
S'xx01a5237e7e68a910b2304c9470bd81cd'
p2677
sg10
S'xxe4de87140e1bdb5e853a6fb37f537c00'
p2678
sg12
S'xxcc458920e498aaac7714e99259d086ab'
p2679
sg14
S'Mozilla/5.0 (Linux; Android 5.1.1; Redmi Note 3 Build/LMY47V) AppleWebKit/537.36 (KHTML, like Gecko) Version/4.0 Chrome/37.0.0.0 Mobile MQQBrowser/6.8 TBS/036849 Safari/537.36 MicroMessenger/6.3.27.880 NetType/WIFI Language/zh_CN'
p2680
sg16
S'e5e55eadd31333dc0403af5757921e00'
p2681
sa(dp2682
g2
S'17720'
p2683
sg4
S'8769'
p2684
sg6
S'02c0b4df7fa20d94b9dd422e5ac258db'
p2685
sg8
S'xx01a5237e7e68a910b2304c9470bd81cd'
p2686
sg10
S'xxe4de87140e1bdb5e853a6fb37f537c00'
p2687
sg12
S'xxcc458920e498aaac7714e99259d086ab'
p2688
sg14
S'Mozilla/5.0 (Linux; Android 5.1.1; Redmi Note 3 Build/LMY47V) AppleWebKit/537.36 (KHTML, like Gecko) Version/4.0 Chrome/37.0.0.0 Mobile MQQBrowser/6.8 TBS/036849 Safari/537.36 MicroMessenger/6.3.27.880 NetType/WIFI Language/zh_CN'
p2689
sg16
S'e5e55eadd31333dc0403af5757921e00'
p2690
sa.