(lp0
(dp1
S'user_id'
p2
S'38062'
p3
sS'data_id'
p4
S'5526'
p5
sS'ip'
p6
S'1928f46fccf2296eaf55283539c5f243'
p7
sS'phone_B'
p8
S'xx8e4c3599152c7253071558bc20b65068'
p9
sS'phone_C'
p10
S'xxd20bc25bf23aeceacb3cf5602e19926a'
p11
sS'phone_A'
p12
S'xxce15c8a5a67087a47db66a041f846e0b'
p13
sS'user_agent'
p14
S'Mozilla/5.0 (Linux; Android 5.0; Lenovo A2580 Build/LRX21M) AppleWebKit/537.36 (KHTML, like Gecko) Version/4.0 Chrome/37.0.0.0 Mobile MQQBrowser/6.8 TBS/036849 Safari/537.36 MicroMessenger/6.3.27.880 NetType/ctlte Language/zh_CN'
p15
sS'ua'
p16
S'2a80b0d01cf598d05749becf364d05d4'
p17
sa(dp18
g2
S'38062'
p19
sg4
S'5544'
p20
sg6
S'1928f46fccf2296eaf55283539c5f243'
p21
sg8
S'xx8e4c3599152c7253071558bc20b65068'
p22
sg10
S'xxd20bc25bf23aeceacb3cf5602e19926a'
p23
sg12
S'xxce15c8a5a67087a47db66a041f846e0b'
p24
sg14
S'Mozilla/5.0 (Linux; Android 5.0; Lenovo A2580 Build/LRX21M) AppleWebKit/537.36 (KHTML, like Gecko) Version/4.0 Chrome/37.0.0.0 Mobile MQQBrowser/6.8 TBS/036849 Safari/537.36 MicroMessenger/6.3.27.880 NetType/ctlte Language/zh_CN'
p25
sg16
S'2a80b0d01cf598d05749becf364d05d4'
p26
sa(dp27
g2
S'38062'
p28
sg4
S'6210'
p29
sg6
S'1928f46fccf2296eaf55283539c5f243'
p30
sg8
S'xx8e4c3599152c7253071558bc20b65068'
p31
sg10
S'xxd20bc25bf23aeceacb3cf5602e19926a'
p32
sg12
S'xxce15c8a5a67087a47db66a041f846e0b'
p33
sg14
S'Mozilla/5.0 (Linux; Android 5.0; Lenovo A2580 Build/LRX21M) AppleWebKit/537.36 (KHTML, like Gecko) Version/4.0 Chrome/37.0.0.0 Mobile MQQBrowser/6.8 TBS/036849 Safari/537.36 MicroMessenger/6.3.27.880 NetType/ctlte Language/zh_CN'
p34
sg16
S'2a80b0d01cf598d05749becf364d05d4'
p35
sa(dp36
g2
S'38062'
p37
sg4
S'6224'
p38
sg6
S'1928f46fccf2296eaf55283539c5f243'
p39
sg8
S'xx8e4c3599152c7253071558bc20b65068'
p40
sg10
S'xxd20bc25bf23aeceacb3cf5602e19926a'
p41
sg12
S'xxce15c8a5a67087a47db66a041f846e0b'
p42
sg14
S'Mozilla/5.0 (Linux; Android 5.0; Lenovo A2580 Build/LRX21M) AppleWebKit/537.36 (KHTML, like Gecko) Version/4.0 Chrome/37.0.0.0 Mobile MQQBrowser/6.8 TBS/036849 Safari/537.36 MicroMessenger/6.3.27.880 NetType/ctlte Language/zh_CN'
p43
sg16
S'2a80b0d01cf598d05749becf364d05d4'
p44
sa.