(lp0
(dp1
S'user_id'
p2
S'7351'
p3
sS'data_id'
p4
S'2387'
p5
sS'ip'
p6
S'03058ff25b1b7f26625c3e6dad07f9c3'
p7
sS'phone_B'
p8
S'xx38fe2615d6f58adcac743c0575bdbb37'
p9
sS'phone_C'
p10
S'xx138e5a26479862b7d735fd05c2053c3f'
p11
sS'phone_A'
p12
S'xxcf6028ae5d5d9f344b857f8d22ac0291'
p13
sS'user_agent'
p14
S'Mozilla/5.0 (Linux; Android 4.4.5; A1 Build/KOT49H) AppleWebKit/537.36 (KHTML, like Gecko) Version/4.0 Chrome/37.0.0.0 Mobile MQQBrowser/6.8 TBS/036869 Safari/537.36 MicroMessenger/6.3.27.880 NetType/WIFI Language/zh_CN'
p15
sS'ua'
p16
S'29292367dda18b5e07bb9f87637bf54a'
p17
sa(dp18
g2
S'7351'
p19
sg4
S'2405'
p20
sg6
S'03058ff25b1b7f26625c3e6dad07f9c3'
p21
sg8
S'xx38fe2615d6f58adcac743c0575bdbb37'
p22
sg10
S'xx138e5a26479862b7d735fd05c2053c3f'
p23
sg12
S'xxcf6028ae5d5d9f344b857f8d22ac0291'
p24
sg14
S'Mozilla/5.0 (Linux; Android 4.4.5; A1 Build/KOT49H) AppleWebKit/537.36 (KHTML, like Gecko) Version/4.0 Chrome/37.0.0.0 Mobile MQQBrowser/6.8 TBS/036869 Safari/537.36 MicroMessenger/6.3.27.880 NetType/WIFI Language/zh_CN'
p25
sg16
S'29292367dda18b5e07bb9f87637bf54a'
p26
sa(dp27
g2
S'7351'
p28
sg4
S'3486'
p29
sg6
S'03058ff25b1b7f26625c3e6dad07f9c3'
p30
sg8
S'xx38fe2615d6f58adcac743c0575bdbb37'
p31
sg10
S'xx138e5a26479862b7d735fd05c2053c3f'
p32
sg12
S'xxcf6028ae5d5d9f344b857f8d22ac0291'
p33
sg14
S'Mozilla/5.0 (Linux; Android 4.4.5; A1 Build/KOT49H) AppleWebKit/537.36 (KHTML, like Gecko) Version/4.0 Chrome/37.0.0.0 Mobile MQQBrowser/6.8 TBS/036869 Safari/537.36 MicroMessenger/6.3.27.880 NetType/WIFI Language/zh_CN'
p34
sg16
S'29292367dda18b5e07bb9f87637bf54a'
p35
sa(dp36
g2
S'7351'
p37
sg4
S'3504'
p38
sg6
S'03058ff25b1b7f26625c3e6dad07f9c3'
p39
sg8
S'xx38fe2615d6f58adcac743c0575bdbb37'
p40
sg10
S'xx138e5a26479862b7d735fd05c2053c3f'
p41
sg12
S'xxcf6028ae5d5d9f344b857f8d22ac0291'
p42
sg14
S'Mozilla/5.0 (Linux; Android 4.4.5; A1 Build/KOT49H) AppleWebKit/537.36 (KHTML, like Gecko) Version/4.0 Chrome/37.0.0.0 Mobile MQQBrowser/6.8 TBS/036869 Safari/537.36 MicroMessenger/6.3.27.880 NetType/WIFI Language/zh_CN'
p43
sg16
S'29292367dda18b5e07bb9f87637bf54a'
p44
sa(dp45
g2
S'7351'
p46
sg4
S'4332'
p47
sg6
S'03058ff25b1b7f26625c3e6dad07f9c3'
p48
sg8
S'xx38fe2615d6f58adcac743c0575bdbb37'
p49
sg10
S'xx138e5a26479862b7d735fd05c2053c3f'
p50
sg12
S'xxcf6028ae5d5d9f344b857f8d22ac0291'
p51
sg14
S'Mozilla/5.0 (Linux; Android 4.4.5; A1 Build/KOT49H) AppleWebKit/537.36 (KHTML, like Gecko) Version/4.0 Chrome/37.0.0.0 Mobile MQQBrowser/6.8 TBS/036869 Safari/537.36 MicroMessenger/6.3.27.880 NetType/WIFI Language/zh_CN'
p52
sg16
S'29292367dda18b5e07bb9f87637bf54a'
p53
sa(dp54
g2
S'7351'
p55
sg4
S'4353'
p56
sg6
S'03058ff25b1b7f26625c3e6dad07f9c3'
p57
sg8
S'xx38fe2615d6f58adcac743c0575bdbb37'
p58
sg10
S'xx138e5a26479862b7d735fd05c2053c3f'
p59
sg12
S'xxcf6028ae5d5d9f344b857f8d22ac0291'
p60
sg14
S'Mozilla/5.0 (Linux; Android 4.4.5; A1 Build/KOT49H) AppleWebKit/537.36 (KHTML, like Gecko) Version/4.0 Chrome/37.0.0.0 Mobile MQQBrowser/6.8 TBS/036869 Safari/537.36 MicroMessenger/6.3.27.880 NetType/WIFI Language/zh_CN'
p61
sg16
S'29292367dda18b5e07bb9f87637bf54a'
p62
sa(dp63
g2
S'7351'
p64
sg4
S'4380'
p65
sg6
S'03058ff25b1b7f26625c3e6dad07f9c3'
p66
sg8
S'xx38fe2615d6f58adcac743c0575bdbb37'
p67
sg10
S'xx138e5a26479862b7d735fd05c2053c3f'
p68
sg12
S'xxcf6028ae5d5d9f344b857f8d22ac0291'
p69
sg14
S'Mozilla/5.0 (Linux; Android 4.4.5; A1 Build/KOT49H) AppleWebKit/537.36 (KHTML, like Gecko) Version/4.0 Chrome/37.0.0.0 Mobile MQQBrowser/6.8 TBS/036869 Safari/537.36 MicroMessenger/6.3.27.880 NetType/WIFI Language/zh_CN'
p70
sg16
S'29292367dda18b5e07bb9f87637bf54a'
p71
sa(dp72
g2
S'7351'
p73
sg4
S'4765'
p74
sg6
S'03058ff25b1b7f26625c3e6dad07f9c3'
p75
sg8
S'xx38fe2615d6f58adcac743c0575bdbb37'
p76
sg10
S'xx138e5a26479862b7d735fd05c2053c3f'
p77
sg12
S'xxcf6028ae5d5d9f344b857f8d22ac0291'
p78
sg14
S'Mozilla/5.0 (Linux; Android 4.4.5; A1 Build/KOT49H) AppleWebKit/537.36 (KHTML, like Gecko) Version/4.0 Chrome/37.0.0.0 Mobile MQQBrowser/6.8 TBS/036869 Safari/537.36 MicroMessenger/6.3.27.880 NetType/WIFI Language/zh_CN'
p79
sg16
S'29292367dda18b5e07bb9f87637bf54a'
p80
sa(dp81
g2
S'7351'
p82
sg4
S'4941'
p83
sg6
S'03058ff25b1b7f26625c3e6dad07f9c3'
p84
sg8
S'xx38fe2615d6f58adcac743c0575bdbb37'
p85
sg10
S'xx138e5a26479862b7d735fd05c2053c3f'
p86
sg12
S'xxcf6028ae5d5d9f344b857f8d22ac0291'
p87
sg14
S'Mozilla/5.0 (Linux; Android 4.4.5; A1 Build/KOT49H) AppleWebKit/537.36 (KHTML, like Gecko) Version/4.0 Chrome/37.0.0.0 Mobile MQQBrowser/6.8 TBS/036869 Safari/537.36 MicroMessenger/6.3.27.880 NetType/WIFI Language/zh_CN'
p88
sg16
S'29292367dda18b5e07bb9f87637bf54a'
p89
sa(dp90
g2
S'7351'
p91
sg4
S'4955'
p92
sg6
S'03058ff25b1b7f26625c3e6dad07f9c3'
p93
sg8
S'xx38fe2615d6f58adcac743c0575bdbb37'
p94
sg10
S'xx138e5a26479862b7d735fd05c2053c3f'
p95
sg12
S'xxcf6028ae5d5d9f344b857f8d22ac0291'
p96
sg14
S'Mozilla/5.0 (Linux; Android 4.4.5; A1 Build/KOT49H) AppleWebKit/537.36 (KHTML, like Gecko) Version/4.0 Chrome/37.0.0.0 Mobile MQQBrowser/6.8 TBS/036869 Safari/537.36 MicroMessenger/6.3.27.880 NetType/WIFI Language/zh_CN'
p97
sg16
S'29292367dda18b5e07bb9f87637bf54a'
p98
sa(dp99
g2
S'7351'
p100
sg4
S'4970'
p101
sg6
S'03058ff25b1b7f26625c3e6dad07f9c3'
p102
sg8
S'xx38fe2615d6f58adcac743c0575bdbb37'
p103
sg10
S'xx138e5a26479862b7d735fd05c2053c3f'
p104
sg12
S'xxcf6028ae5d5d9f344b857f8d22ac0291'
p105
sg14
S'Mozilla/5.0 (Linux; Android 4.4.5; A1 Build/KOT49H) AppleWebKit/537.36 (KHTML, like Gecko) Version/4.0 Chrome/37.0.0.0 Mobile MQQBrowser/6.8 TBS/036869 Safari/537.36 MicroMessenger/6.3.27.880 NetType/WIFI Language/zh_CN'
p106
sg16
S'29292367dda18b5e07bb9f87637bf54a'
p107
sa.