(lp0
(dp1
S'user_id'
p2
S'21394'
p3
sS'data_id'
p4
S'531'
p5
sS'ip'
p6
S'6857f71e4441648634da0f203af8440b'
p7
sS'phone_B'
p8
S'xx074aa83fae1824ea2f52a7df390619a9'
p9
sS'phone_C'
p10
S'xx44e3955bfa7806573e9f8cb1f447d83a'
p11
sS'phone_A'
p12
S'xxd0c8889553b825dd5a5e7377d8f6db7d'
p13
sS'user_agent'
p14
S'Mozilla/5.0 (Linux; Android 5.1.1; OPPO A30 Build/LMY47V) AppleWebKit/537.36 (KHTML, like Gecko) Version/4.0 Chrome/37.0.0.0 Mobile MQQBrowser/6.8 TBS/036849 Safari/537.36 MicroMessenger/6.3.27.880 NetType/WIFI Language/zh_CN'
p15
sS'ua'
p16
S'921626cb6a94d54f0f3d5bc375386fb6'
p17
sa(dp18
g2
S'21394'
p19
sg4
S'547'
p20
sg6
S'6857f71e4441648634da0f203af8440b'
p21
sg8
S'xx074aa83fae1824ea2f52a7df390619a9'
p22
sg10
S'xx44e3955bfa7806573e9f8cb1f447d83a'
p23
sg12
S'xxd0c8889553b825dd5a5e7377d8f6db7d'
p24
sg14
S'Mozilla/5.0 (Linux; Android 5.1.1; OPPO A30 Build/LMY47V) AppleWebKit/537.36 (KHTML, like Gecko) Version/4.0 Chrome/37.0.0.0 Mobile MQQBrowser/6.8 TBS/036849 Safari/537.36 MicroMessenger/6.3.27.880 NetType/WIFI Language/zh_CN'
p25
sg16
S'921626cb6a94d54f0f3d5bc375386fb6'
p26
sa(dp27
g2
S'20020'
p28
sg4
S'6003'
p29
sg6
S'6739506428fa79a5c53a9cdbf42b931b'
p30
sg8
S'xx1cf240f59e0527e4f8261ef758e5c7d3'
p31
sg10
S'xxe5c06156299012b9a2f37f4225983d9b'
p32
sg12
S'xxd0c8889553b825dd5a5e7377d8f6db7d'
p33
sg14
S'Mozilla/5.0 (Linux; Android 5.1.1; OPPO A30 Build/LMY47V) AppleWebKit/537.36 (KHTML, like Gecko) Version/4.0 Chrome/37.0.0.0 Mobile MQQBrowser/6.8 TBS/036865 Safari/537.36 MicroMessenger/6.3.27.880 NetType/cmnet Language/zh_CN'
p34
sg16
S'56cbca369075f719fdcfb4924243687c'
p35
sa(dp36
g2
S'20020'
p37
sg4
S'6017'
p38
sg6
S'6739506428fa79a5c53a9cdbf42b931b'
p39
sg8
S'xx1cf240f59e0527e4f8261ef758e5c7d3'
p40
sg10
S'xxe5c06156299012b9a2f37f4225983d9b'
p41
sg12
S'xxd0c8889553b825dd5a5e7377d8f6db7d'
p42
sg14
S'Mozilla/5.0 (Linux; Android 5.1.1; OPPO A30 Build/LMY47V) AppleWebKit/537.36 (KHTML, like Gecko) Version/4.0 Chrome/37.0.0.0 Mobile MQQBrowser/6.8 TBS/036865 Safari/537.36 MicroMessenger/6.3.27.880 NetType/cmnet Language/zh_CN'
p43
sg16
S'56cbca369075f719fdcfb4924243687c'
p44
sa(dp45
g2
S'20020'
p46
sg4
S'6028'
p47
sg6
S'6739506428fa79a5c53a9cdbf42b931b'
p48
sg8
S'xx1cf240f59e0527e4f8261ef758e5c7d3'
p49
sg10
S'xxe5c06156299012b9a2f37f4225983d9b'
p50
sg12
S'xxd0c8889553b825dd5a5e7377d8f6db7d'
p51
sg14
S'Mozilla/5.0 (Linux; Android 5.1.1; OPPO A30 Build/LMY47V) AppleWebKit/537.36 (KHTML, like Gecko) Version/4.0 Chrome/37.0.0.0 Mobile MQQBrowser/6.8 TBS/036865 Safari/537.36 MicroMessenger/6.3.27.880 NetType/cmnet Language/zh_CN'
p52
sg16
S'56cbca369075f719fdcfb4924243687c'
p53
sa(dp54
g2
S'20020'
p55
sg4
S'6040'
p56
sg6
S'6739506428fa79a5c53a9cdbf42b931b'
p57
sg8
S'xx1cf240f59e0527e4f8261ef758e5c7d3'
p58
sg10
S'xxe5c06156299012b9a2f37f4225983d9b'
p59
sg12
S'xxd0c8889553b825dd5a5e7377d8f6db7d'
p60
sg14
S'Mozilla/5.0 (Linux; Android 5.1.1; OPPO A30 Build/LMY47V) AppleWebKit/537.36 (KHTML, like Gecko) Version/4.0 Chrome/37.0.0.0 Mobile MQQBrowser/6.8 TBS/036865 Safari/537.36 MicroMessenger/6.3.27.880 NetType/cmnet Language/zh_CN'
p61
sg16
S'56cbca369075f719fdcfb4924243687c'
p62
sa.