(lp0
(dp1
S'user_id'
p2
S'29553'
p3
sS'data_id'
p4
S'2494'
p5
sS'ip'
p6
S'50eaccbab87ef98eaf79ea688bc155f6'
p7
sS'phone_B'
p8
S'xx9e17e7fcc96e0b6fc5ab439b1b26c486'
p9
sS'phone_C'
p10
S'xx0cd7a6f2e85b8e05fb014b9b634a62b4'
p11
sS'phone_A'
p12
S'xxd1019e570281618efe53bbd3784e7892'
p13
sS'user_agent'
p14
S'Mozilla/5.0 (Linux; Android 5.1; WP Build/LMY47D) AppleWebKit/537.36 (KHTML, like Gecko) Version/4.0 Chrome/37.0.0.0 Mobile MQQBrowser/6.8 TBS/036849 Safari/537.36 MicroMessenger/6.3.25.861 NetType/WIFI Language/zh_CN'
p15
sS'ua'
p16
S'c21114ff5fe76ce8fb68d6c252f3814b'
p17
sa(dp18
g2
S'29553'
p19
sg4
S'2517'
p20
sg6
S'50eaccbab87ef98eaf79ea688bc155f6'
p21
sg8
S'xx9e17e7fcc96e0b6fc5ab439b1b26c486'
p22
sg10
S'xx0cd7a6f2e85b8e05fb014b9b634a62b4'
p23
sg12
S'xxd1019e570281618efe53bbd3784e7892'
p24
sg14
S'Mozilla/5.0 (Linux; Android 5.1; WP Build/LMY47D) AppleWebKit/537.36 (KHTML, like Gecko) Version/4.0 Chrome/37.0.0.0 Mobile MQQBrowser/6.8 TBS/036849 Safari/537.36 MicroMessenger/6.3.25.861 NetType/WIFI Language/zh_CN'
p25
sg16
S'c21114ff5fe76ce8fb68d6c252f3814b'
p26
sa(dp27
g2
S'25840'
p28
sg4
S'2730'
p29
sg6
S'0d54477eba18a611ad79ae225517a929'
p30
sg8
S'xx41f87c5a8cb0c3462f13026e12aada3e'
p31
sg10
S'xx0cd7a6f2e85b8e05fb014b9b634a62b4'
p32
sg12
S'xxd1019e570281618efe53bbd3784e7892'
p33
sg14
S'Mozilla/5.0 (Linux; Android 5.1; WP Build/LMY47D) AppleWebKit/537.36 (KHTML, like Gecko) Version/4.0 Chrome/37.0.0.0 Mobile MQQBrowser/6.8 TBS/036824 Safari/537.36 MicroMessenger/6.3.27.880 NetType/WIFI Language/zh_CN'
p34
sg16
S'68db851f3f4a6ed0e636ded6c390e03a'
p35
sa(dp36
g2
S'25840'
p37
sg4
S'2750'
p38
sg6
S'0d54477eba18a611ad79ae225517a929'
p39
sg8
S'xx41f87c5a8cb0c3462f13026e12aada3e'
p40
sg10
S'xx0cd7a6f2e85b8e05fb014b9b634a62b4'
p41
sg12
S'xxd1019e570281618efe53bbd3784e7892'
p42
sg14
S'Mozilla/5.0 (Linux; Android 5.1; WP Build/LMY47D) AppleWebKit/537.36 (KHTML, like Gecko) Version/4.0 Chrome/37.0.0.0 Mobile MQQBrowser/6.8 TBS/036824 Safari/537.36 MicroMessenger/6.3.27.880 NetType/WIFI Language/zh_CN'
p43
sg16
S'68db851f3f4a6ed0e636ded6c390e03a'
p44
sa(dp45
g2
S'25840'
p46
sg4
S'2769'
p47
sg6
S'0d54477eba18a611ad79ae225517a929'
p48
sg8
S'xx41f87c5a8cb0c3462f13026e12aada3e'
p49
sg10
S'xx0cd7a6f2e85b8e05fb014b9b634a62b4'
p50
sg12
S'xxd1019e570281618efe53bbd3784e7892'
p51
sg14
S'Mozilla/5.0 (Linux; Android 5.1; WP Build/LMY47D) AppleWebKit/537.36 (KHTML, like Gecko) Version/4.0 Chrome/37.0.0.0 Mobile MQQBrowser/6.8 TBS/036824 Safari/537.36 MicroMessenger/6.3.27.880 NetType/WIFI Language/zh_CN'
p52
sg16
S'68db851f3f4a6ed0e636ded6c390e03a'
p53
sa(dp54
g2
S'42973'
p55
sg4
S'7168'
p56
sg6
S'de17a6a29674548500739afde18b53d1'
p57
sg8
S'xx9e7a78c624261ce6a33de864f5e35307'
p58
sg10
S'xx726440e2dc862b56411461e61ffeb064'
p59
sg12
S'xxd1019e570281618efe53bbd3784e7892'
p60
sg14
S'Mozilla/5.0 (Linux; Android 5.1; WP Build/LMY47D) AppleWebKit/537.36 (KHTML, like Gecko) Version/4.0 Chrome/39.0.0.0 Mobile Safari/537.36 MicroMessenger/6.3.27.880 NetType/WIFI Language/zh_CN'
p61
sg16
S'bf0b38feb800258bdc287350f9d252c1'
p62
sa(dp63
g2
S'42973'
p64
sg4
S'7184'
p65
sg6
S'de17a6a29674548500739afde18b53d1'
p66
sg8
S'xx9e7a78c624261ce6a33de864f5e35307'
p67
sg10
S'xx726440e2dc862b56411461e61ffeb064'
p68
sg12
S'xxd1019e570281618efe53bbd3784e7892'
p69
sg14
S'Mozilla/5.0 (Linux; Android 5.1; WP Build/LMY47D) AppleWebKit/537.36 (KHTML, like Gecko) Version/4.0 Chrome/39.0.0.0 Mobile Safari/537.36 MicroMessenger/6.3.27.880 NetType/WIFI Language/zh_CN'
p70
sg16
S'bf0b38feb800258bdc287350f9d252c1'
p71
sa(dp72
g2
S'42973'
p73
sg4
S'7197'
p74
sg6
S'de17a6a29674548500739afde18b53d1'
p75
sg8
S'xx9e7a78c624261ce6a33de864f5e35307'
p76
sg10
S'xx726440e2dc862b56411461e61ffeb064'
p77
sg12
S'xxd1019e570281618efe53bbd3784e7892'
p78
sg14
S'Mozilla/5.0 (Linux; Android 5.1; WP Build/LMY47D) AppleWebKit/537.36 (KHTML, like Gecko) Version/4.0 Chrome/39.0.0.0 Mobile Safari/537.36 MicroMessenger/6.3.27.880 NetType/WIFI Language/zh_CN'
p79
sg16
S'bf0b38feb800258bdc287350f9d252c1'
p80
sa(dp81
g2
S'42973'
p82
sg4
S'7226'
p83
sg6
S'de17a6a29674548500739afde18b53d1'
p84
sg8
S'xx9e7a78c624261ce6a33de864f5e35307'
p85
sg10
S'xx726440e2dc862b56411461e61ffeb064'
p86
sg12
S'xxd1019e570281618efe53bbd3784e7892'
p87
sg14
S'Mozilla/5.0 (Linux; Android 5.1; WP Build/LMY47D) AppleWebKit/537.36 (KHTML, like Gecko) Version/4.0 Chrome/39.0.0.0 Mobile Safari/537.36 MicroMessenger/6.3.27.880 NetType/WIFI Language/zh_CN'
p88
sg16
S'bf0b38feb800258bdc287350f9d252c1'
p89
sa(dp90
g2
S'42973'
p91
sg4
S'7238'
p92
sg6
S'de17a6a29674548500739afde18b53d1'
p93
sg8
S'xx9e7a78c624261ce6a33de864f5e35307'
p94
sg10
S'xx726440e2dc862b56411461e61ffeb064'
p95
sg12
S'xxd1019e570281618efe53bbd3784e7892'
p96
sg14
S'Mozilla/5.0 (Linux; Android 5.1; WP Build/LMY47D) AppleWebKit/537.36 (KHTML, like Gecko) Version/4.0 Chrome/39.0.0.0 Mobile Safari/537.36 MicroMessenger/6.3.27.880 NetType/WIFI Language/zh_CN'
p97
sg16
S'bf0b38feb800258bdc287350f9d252c1'
p98
sa(dp99
g2
S'42973'
p100
sg4
S'7253'
p101
sg6
S'de17a6a29674548500739afde18b53d1'
p102
sg8
S'xx9e7a78c624261ce6a33de864f5e35307'
p103
sg10
S'xx726440e2dc862b56411461e61ffeb064'
p104
sg12
S'xxd1019e570281618efe53bbd3784e7892'
p105
sg14
S'Mozilla/5.0 (Linux; Android 5.1; WP Build/LMY47D) AppleWebKit/537.36 (KHTML, like Gecko) Version/4.0 Chrome/39.0.0.0 Mobile Safari/537.36 MicroMessenger/6.3.27.880 NetType/WIFI Language/zh_CN'
p106
sg16
S'bf0b38feb800258bdc287350f9d252c1'
p107
sa(dp108
g2
S'42973'
p109
sg4
S'7265'
p110
sg6
S'de17a6a29674548500739afde18b53d1'
p111
sg8
S'xx9e7a78c624261ce6a33de864f5e35307'
p112
sg10
S'xx726440e2dc862b56411461e61ffeb064'
p113
sg12
S'xxd1019e570281618efe53bbd3784e7892'
p114
sg14
S'Mozilla/5.0 (Linux; Android 5.1; WP Build/LMY47D) AppleWebKit/537.36 (KHTML, like Gecko) Version/4.0 Chrome/39.0.0.0 Mobile Safari/537.36 MicroMessenger/6.3.27.880 NetType/WIFI Language/zh_CN'
p115
sg16
S'bf0b38feb800258bdc287350f9d252c1'
p116
sa(dp117
g2
S'42973'
p118
sg4
S'7288'
p119
sg6
S'de17a6a29674548500739afde18b53d1'
p120
sg8
S'xx9e7a78c624261ce6a33de864f5e35307'
p121
sg10
S'xx726440e2dc862b56411461e61ffeb064'
p122
sg12
S'xxd1019e570281618efe53bbd3784e7892'
p123
sg14
S'Mozilla/5.0 (Linux; Android 5.1; WP Build/LMY47D) AppleWebKit/537.36 (KHTML, like Gecko) Version/4.0 Chrome/39.0.0.0 Mobile Safari/537.36 MicroMessenger/6.3.27.880 NetType/WIFI Language/zh_CN'
p124
sg16
S'bf0b38feb800258bdc287350f9d252c1'
p125
sa(dp126
g2
S'49846'
p127
sg4
S'7851'
p128
sg6
S'83f5d8cfcd78f29466dca6167994ebe7'
p129
sg8
S'xx15e90347d337d3cc7d2d76ad75e4b573'
p130
sg10
S'xx0cd7a6f2e85b8e05fb014b9b634a62b4'
p131
sg12
S'xxd1019e570281618efe53bbd3784e7892'
p132
sg14
S'Mozilla/5.0 (Linux; Android 5.1; WP Build/LMY47D) AppleWebKit/537.36 (KHTML, like Gecko) Version/4.0 Chrome/37.0.0.0 Mobile MQQBrowser/6.8 TBS/036849 Safari/537.36 MicroMessenger/6.3.27.880 NetType/WIFI Language/zh_CN'
p133
sg16
S'3dc166b99d09a58a5c1aeaf5d8a87927'
p134
sa(dp135
g2
S'49846'
p136
sg4
S'7868'
p137
sg6
S'83f5d8cfcd78f29466dca6167994ebe7'
p138
sg8
S'xx15e90347d337d3cc7d2d76ad75e4b573'
p139
sg10
S'xx0cd7a6f2e85b8e05fb014b9b634a62b4'
p140
sg12
S'xxd1019e570281618efe53bbd3784e7892'
p141
sg14
S'Mozilla/5.0 (Linux; Android 5.1; WP Build/LMY47D) AppleWebKit/537.36 (KHTML, like Gecko) Version/4.0 Chrome/37.0.0.0 Mobile MQQBrowser/6.8 TBS/036849 Safari/537.36 MicroMessenger/6.3.27.880 NetType/WIFI Language/zh_CN'
p142
sg16
S'3dc166b99d09a58a5c1aeaf5d8a87927'
p143
sa(dp144
g2
S'49846'
p145
sg4
S'7881'
p146
sg6
S'83f5d8cfcd78f29466dca6167994ebe7'
p147
sg8
S'xx15e90347d337d3cc7d2d76ad75e4b573'
p148
sg10
S'xx0cd7a6f2e85b8e05fb014b9b634a62b4'
p149
sg12
S'xxd1019e570281618efe53bbd3784e7892'
p150
sg14
S'Mozilla/5.0 (Linux; Android 5.1; WP Build/LMY47D) AppleWebKit/537.36 (KHTML, like Gecko) Version/4.0 Chrome/37.0.0.0 Mobile MQQBrowser/6.8 TBS/036849 Safari/537.36 MicroMessenger/6.3.27.880 NetType/WIFI Language/zh_CN'
p151
sg16
S'3dc166b99d09a58a5c1aeaf5d8a87927'
p152
sa(dp153
g2
S'42973'
p154
sg4
S'8000'
p155
sg6
S'de17a6a29674548500739afde18b53d1'
p156
sg8
S'xxb6be4b0ed6e61754ae44c6907aa6dfcb'
p157
sg10
S'xx726440e2dc862b56411461e61ffeb064'
p158
sg12
S'xxd1019e570281618efe53bbd3784e7892'
p159
sg14
S'Mozilla/5.0 (Linux; Android 5.1; WP Build/LMY47D) AppleWebKit/537.36 (KHTML, like Gecko) Version/4.0 Chrome/39.0.0.0 Mobile Safari/537.36 MicroMessenger/6.3.27.880 NetType/NON_NETWORK Language/zh_CN'
p160
sg16
S'00ee5b9cce49740a766017f7fa5bc1bf'
p161
sa(dp162
g2
S'42973'
p163
sg4
S'8021'
p164
sg6
S'de17a6a29674548500739afde18b53d1'
p165
sg8
S'xxb6be4b0ed6e61754ae44c6907aa6dfcb'
p166
sg10
S'xx726440e2dc862b56411461e61ffeb064'
p167
sg12
S'xxd1019e570281618efe53bbd3784e7892'
p168
sg14
S'Mozilla/5.0 (Linux; Android 5.1; WP Build/LMY47D) AppleWebKit/537.36 (KHTML, like Gecko) Version/4.0 Chrome/39.0.0.0 Mobile Safari/537.36 MicroMessenger/6.3.27.880 NetType/NON_NETWORK Language/zh_CN'
p169
sg16
S'00ee5b9cce49740a766017f7fa5bc1bf'
p170
sa(dp171
g2
S'42973'
p172
sg4
S'8035'
p173
sg6
S'de17a6a29674548500739afde18b53d1'
p174
sg8
S'xxb6be4b0ed6e61754ae44c6907aa6dfcb'
p175
sg10
S'xx726440e2dc862b56411461e61ffeb064'
p176
sg12
S'xxd1019e570281618efe53bbd3784e7892'
p177
sg14
S'Mozilla/5.0 (Linux; Android 5.1; WP Build/LMY47D) AppleWebKit/537.36 (KHTML, like Gecko) Version/4.0 Chrome/39.0.0.0 Mobile Safari/537.36 MicroMessenger/6.3.27.880 NetType/NON_NETWORK Language/zh_CN'
p178
sg16
S'00ee5b9cce49740a766017f7fa5bc1bf'
p179
sa(dp180
g2
S'42973'
p181
sg4
S'8051'
p182
sg6
S'de17a6a29674548500739afde18b53d1'
p183
sg8
S'xxb6be4b0ed6e61754ae44c6907aa6dfcb'
p184
sg10
S'xx726440e2dc862b56411461e61ffeb064'
p185
sg12
S'xxd1019e570281618efe53bbd3784e7892'
p186
sg14
S'Mozilla/5.0 (Linux; Android 5.1; WP Build/LMY47D) AppleWebKit/537.36 (KHTML, like Gecko) Version/4.0 Chrome/39.0.0.0 Mobile Safari/537.36 MicroMessenger/6.3.27.880 NetType/NON_NETWORK Language/zh_CN'
p187
sg16
S'00ee5b9cce49740a766017f7fa5bc1bf'
p188
sa(dp189
g2
S'42973'
p190
sg4
S'8076'
p191
sg6
S'de17a6a29674548500739afde18b53d1'
p192
sg8
S'xx9e7a78c624261ce6a33de864f5e35307'
p193
sg10
S'xx726440e2dc862b56411461e61ffeb064'
p194
sg12
S'xxd1019e570281618efe53bbd3784e7892'
p195
sg14
S'Mozilla/5.0 (Linux; Android 5.1; WP Build/LMY47D) AppleWebKit/537.36 (KHTML, like Gecko) Version/4.0 Chrome/39.0.0.0 Mobile Safari/537.36 MicroMessenger/6.3.27.880 NetType/WIFI Language/zh_CN'
p196
sg16
S'bf0b38feb800258bdc287350f9d252c1'
p197
sa(dp198
g2
S'42973'
p199
sg4
S'8097'
p200
sg6
S'de17a6a29674548500739afde18b53d1'
p201
sg8
S'xx9e7a78c624261ce6a33de864f5e35307'
p202
sg10
S'xx726440e2dc862b56411461e61ffeb064'
p203
sg12
S'xxd1019e570281618efe53bbd3784e7892'
p204
sg14
S'Mozilla/5.0 (Linux; Android 5.1; WP Build/LMY47D) AppleWebKit/537.36 (KHTML, like Gecko) Version/4.0 Chrome/39.0.0.0 Mobile Safari/537.36 MicroMessenger/6.3.27.880 NetType/WIFI Language/zh_CN'
p205
sg16
S'bf0b38feb800258bdc287350f9d252c1'
p206
sa.