(lp0
(dp1
S'user_id'
p2
S'25353'
p3
sS'data_id'
p4
S'21'
p5
sS'ip'
p6
S'b52c8d5aff546b09480169059053e291'
p7
sS'phone_B'
p8
S'xx6ffd52ce06ec0077683571a9145cc8a6'
p9
sS'phone_C'
p10
S'xx2826f2985898bb89ef75c03c3ce99dfe'
p11
sS'phone_A'
p12
S'xxd2df6fd64888331a9da06da38ea68732'
p13
sS'user_agent'
p14
S'Mozilla/5.0 (Linux; Android 5.1; BF_T13 Build/LMY47D) AppleWebKit/537.36 (KHTML, like Gecko) Version/4.0 Chrome/37.0.0.0 Mobile MQQBrowser/6.8 TBS/036849 Safari/537.36 MicroMessenger/6.3.27.880 NetType/cmnet Language/zh_CN'
p15
sS'ua'
p16
S'609b3d2aea6dde276cd846200810bf30'
p17
sa(dp18
g2
S'25353'
p19
sg4
S'116'
p20
sg6
S'd78954e730ed20305366c300e96122f3'
p21
sg8
S'xx6ffd52ce06ec0077683571a9145cc8a6'
p22
sg10
S'xx2826f2985898bb89ef75c03c3ce99dfe'
p23
sg12
S'xxd2df6fd64888331a9da06da38ea68732'
p24
sg14
S'Mozilla/5.0 (Linux; Android 5.1; BF_T13 Build/LMY47D) AppleWebKit/537.36 (KHTML, like Gecko) Version/4.0 Chrome/37.0.0.0 Mobile MQQBrowser/6.8 TBS/036849 Safari/537.36 MicroMessenger/6.3.27.880 NetType/cmnet Language/zh_CN'
p25
sg16
S'609b3d2aea6dde276cd846200810bf30'
p26
sa(dp27
g2
S'25353'
p28
sg4
S'213'
p29
sg6
S'd78954e730ed20305366c300e96122f3'
p30
sg8
S'xx6ffd52ce06ec0077683571a9145cc8a6'
p31
sg10
S'xx2826f2985898bb89ef75c03c3ce99dfe'
p32
sg12
S'xxd2df6fd64888331a9da06da38ea68732'
p33
sg14
S'Mozilla/5.0 (Linux; Android 5.1; BF_T13 Build/LMY47D) AppleWebKit/537.36 (KHTML, like Gecko) Version/4.0 Chrome/37.0.0.0 Mobile MQQBrowser/6.8 TBS/036849 Safari/537.36 MicroMessenger/6.3.27.880 NetType/cmnet Language/zh_CN'
p34
sg16
S'609b3d2aea6dde276cd846200810bf30'
p35
sa(dp36
g2
S'25353'
p37
sg4
S'313'
p38
sg6
S'd78954e730ed20305366c300e96122f3'
p39
sg8
S'xx6ffd52ce06ec0077683571a9145cc8a6'
p40
sg10
S'xx2826f2985898bb89ef75c03c3ce99dfe'
p41
sg12
S'xxd2df6fd64888331a9da06da38ea68732'
p42
sg14
S'Mozilla/5.0 (Linux; Android 5.1; BF_T13 Build/LMY47D) AppleWebKit/537.36 (KHTML, like Gecko) Version/4.0 Chrome/37.0.0.0 Mobile MQQBrowser/6.8 TBS/036849 Safari/537.36 MicroMessenger/6.3.27.880 NetType/cmnet Language/zh_CN'
p43
sg16
S'609b3d2aea6dde276cd846200810bf30'
p44
sa(dp45
g2
S'25353'
p46
sg4
S'396'
p47
sg6
S'9b786f345c441ac4140a5d02bcda10b8'
p48
sg8
S'xx6ffd52ce06ec0077683571a9145cc8a6'
p49
sg10
S'xx2826f2985898bb89ef75c03c3ce99dfe'
p50
sg12
S'xxd2df6fd64888331a9da06da38ea68732'
p51
sg14
S'Mozilla/5.0 (Linux; Android 5.1; BF_T13 Build/LMY47D) AppleWebKit/537.36 (KHTML, like Gecko) Version/4.0 Chrome/37.0.0.0 Mobile MQQBrowser/6.8 TBS/036849 Safari/537.36 MicroMessenger/6.3.27.880 NetType/cmnet Language/zh_CN'
p52
sg16
S'609b3d2aea6dde276cd846200810bf30'
p53
sa(dp54
g2
S'25353'
p55
sg4
S'412'
p56
sg6
S'9b786f345c441ac4140a5d02bcda10b8'
p57
sg8
S'xx6ffd52ce06ec0077683571a9145cc8a6'
p58
sg10
S'xx2826f2985898bb89ef75c03c3ce99dfe'
p59
sg12
S'xxd2df6fd64888331a9da06da38ea68732'
p60
sg14
S'Mozilla/5.0 (Linux; Android 5.1; BF_T13 Build/LMY47D) AppleWebKit/537.36 (KHTML, like Gecko) Version/4.0 Chrome/37.0.0.0 Mobile MQQBrowser/6.8 TBS/036849 Safari/537.36 MicroMessenger/6.3.27.880 NetType/cmnet Language/zh_CN'
p61
sg16
S'609b3d2aea6dde276cd846200810bf30'
p62
sa(dp63
g2
S'25353'
p64
sg4
S'445'
p65
sg6
S'9b786f345c441ac4140a5d02bcda10b8'
p66
sg8
S'xx6ffd52ce06ec0077683571a9145cc8a6'
p67
sg10
S'xx2826f2985898bb89ef75c03c3ce99dfe'
p68
sg12
S'xxd2df6fd64888331a9da06da38ea68732'
p69
sg14
S'Mozilla/5.0 (Linux; Android 5.1; BF_T13 Build/LMY47D) AppleWebKit/537.36 (KHTML, like Gecko) Version/4.0 Chrome/37.0.0.0 Mobile MQQBrowser/6.8 TBS/036849 Safari/537.36 MicroMessenger/6.3.27.880 NetType/cmnet Language/zh_CN'
p70
sg16
S'609b3d2aea6dde276cd846200810bf30'
p71
sa(dp72
g2
S'25353'
p73
sg4
S'567'
p74
sg6
S'9b786f345c441ac4140a5d02bcda10b8'
p75
sg8
S'xx6ffd52ce06ec0077683571a9145cc8a6'
p76
sg10
S'xx2826f2985898bb89ef75c03c3ce99dfe'
p77
sg12
S'xxd2df6fd64888331a9da06da38ea68732'
p78
sg14
S'Mozilla/5.0 (Linux; Android 5.1; BF_T13 Build/LMY47D) AppleWebKit/537.36 (KHTML, like Gecko) Version/4.0 Chrome/37.0.0.0 Mobile MQQBrowser/6.8 TBS/036849 Safari/537.36 MicroMessenger/6.3.27.880 NetType/cmnet Language/zh_CN'
p79
sg16
S'609b3d2aea6dde276cd846200810bf30'
p80
sa(dp81
g2
S'25353'
p82
sg4
S'661'
p83
sg6
S'9b786f345c441ac4140a5d02bcda10b8'
p84
sg8
S'xx6ffd52ce06ec0077683571a9145cc8a6'
p85
sg10
S'xx2826f2985898bb89ef75c03c3ce99dfe'
p86
sg12
S'xxd2df6fd64888331a9da06da38ea68732'
p87
sg14
S'Mozilla/5.0 (Linux; Android 5.1; BF_T13 Build/LMY47D) AppleWebKit/537.36 (KHTML, like Gecko) Version/4.0 Chrome/37.0.0.0 Mobile MQQBrowser/6.8 TBS/036849 Safari/537.36 MicroMessenger/6.3.27.880 NetType/cmnet Language/zh_CN'
p88
sg16
S'609b3d2aea6dde276cd846200810bf30'
p89
sa(dp90
g2
S'25353'
p91
sg4
S'738'
p92
sg6
S'9b786f345c441ac4140a5d02bcda10b8'
p93
sg8
S'xx6ffd52ce06ec0077683571a9145cc8a6'
p94
sg10
S'xx2826f2985898bb89ef75c03c3ce99dfe'
p95
sg12
S'xxd2df6fd64888331a9da06da38ea68732'
p96
sg14
S'Mozilla/5.0 (Linux; Android 5.1; BF_T13 Build/LMY47D) AppleWebKit/537.36 (KHTML, like Gecko) Version/4.0 Chrome/37.0.0.0 Mobile MQQBrowser/6.8 TBS/036849 Safari/537.36 MicroMessenger/6.3.27.880 NetType/cmnet Language/zh_CN'
p97
sg16
S'609b3d2aea6dde276cd846200810bf30'
p98
sa(dp99
g2
S'25353'
p100
sg4
S'795'
p101
sg6
S'9b786f345c441ac4140a5d02bcda10b8'
p102
sg8
S'xx6ffd52ce06ec0077683571a9145cc8a6'
p103
sg10
S'xx2826f2985898bb89ef75c03c3ce99dfe'
p104
sg12
S'xxd2df6fd64888331a9da06da38ea68732'
p105
sg14
S'Mozilla/5.0 (Linux; Android 5.1; BF_T13 Build/LMY47D) AppleWebKit/537.36 (KHTML, like Gecko) Version/4.0 Chrome/37.0.0.0 Mobile MQQBrowser/6.8 TBS/036849 Safari/537.36 MicroMessenger/6.3.27.880 NetType/cmnet Language/zh_CN'
p106
sg16
S'609b3d2aea6dde276cd846200810bf30'
p107
sa(dp108
g2
S'25353'
p109
sg4
S'858'
p110
sg6
S'9b786f345c441ac4140a5d02bcda10b8'
p111
sg8
S'xx6ffd52ce06ec0077683571a9145cc8a6'
p112
sg10
S'xx2826f2985898bb89ef75c03c3ce99dfe'
p113
sg12
S'xxd2df6fd64888331a9da06da38ea68732'
p114
sg14
S'Mozilla/5.0 (Linux; Android 5.1; BF_T13 Build/LMY47D) AppleWebKit/537.36 (KHTML, like Gecko) Version/4.0 Chrome/37.0.0.0 Mobile MQQBrowser/6.8 TBS/036849 Safari/537.36 MicroMessenger/6.3.27.880 NetType/cmnet Language/zh_CN'
p115
sg16
S'609b3d2aea6dde276cd846200810bf30'
p116
sa(dp117
g2
S'25353'
p118
sg4
S'882'
p119
sg6
S'9b786f345c441ac4140a5d02bcda10b8'
p120
sg8
S'xx6ffd52ce06ec0077683571a9145cc8a6'
p121
sg10
S'xx2826f2985898bb89ef75c03c3ce99dfe'
p122
sg12
S'xxd2df6fd64888331a9da06da38ea68732'
p123
sg14
S'Mozilla/5.0 (Linux; Android 5.1; BF_T13 Build/LMY47D) AppleWebKit/537.36 (KHTML, like Gecko) Version/4.0 Chrome/37.0.0.0 Mobile MQQBrowser/6.8 TBS/036849 Safari/537.36 MicroMessenger/6.3.27.880 NetType/cmnet Language/zh_CN'
p124
sg16
S'609b3d2aea6dde276cd846200810bf30'
p125
sa(dp126
g2
S'25353'
p127
sg4
S'1311'
p128
sg6
S'9b786f345c441ac4140a5d02bcda10b8'
p129
sg8
S'xx6ffd52ce06ec0077683571a9145cc8a6'
p130
sg10
S'xx2826f2985898bb89ef75c03c3ce99dfe'
p131
sg12
S'xxd2df6fd64888331a9da06da38ea68732'
p132
sg14
S'Mozilla/5.0 (Linux; Android 5.1; BF_T13 Build/LMY47D) AppleWebKit/537.36 (KHTML, like Gecko) Version/4.0 Chrome/37.0.0.0 Mobile MQQBrowser/6.8 TBS/036849 Safari/537.36 MicroMessenger/6.3.27.880 NetType/cmnet Language/zh_CN'
p133
sg16
S'609b3d2aea6dde276cd846200810bf30'
p134
sa(dp135
g2
S'7012'
p136
sg4
S'1372'
p137
sg6
S'03f52a4f7e66c7ccc384ce91e7bd50e9'
p138
sg8
S'xxee74f6883f930b0536951b7de9bc6de2'
p139
sg10
S'xx0cd7a6f2e85b8e05fb014b9b634a62b4'
p140
sg12
S'xxd2df6fd64888331a9da06da38ea68732'
p141
sg14
S'Mozilla/5.0 (Linux; Android 5.1; BF_T13 Build/LMY47D) AppleWebKit/537.36 (KHTML, like Gecko) Version/4.0 Chrome/37.0.0.0 Mobile MQQBrowser/6.8 TBS/036849 Safari/537.36 MicroMessenger/6.3.27.880 NetType/WIFI Language/zh_CN'
p142
sg16
S'a30ef72bb35fcd8cf1b1f77a4054198a'
p143
sa(dp144
g2
S'46087'
p145
sg4
S'1381'
p146
sg6
S'561efc192d2b8ba0ed46aa1774bc53e3'
p147
sg8
S'xxee74f6883f930b0536951b7de9bc6de2'
p148
sg10
S'xx0cd7a6f2e85b8e05fb014b9b634a62b4'
p149
sg12
S'xxd2df6fd64888331a9da06da38ea68732'
p150
sg14
S'Mozilla/5.0 (Linux; Android 5.1; BF_T13 Build/LMY47D) AppleWebKit/537.36 (KHTML, like Gecko) Version/4.0 Chrome/37.0.0.0 Mobile MQQBrowser/6.8 TBS/036849 Safari/537.36 MicroMessenger/6.3.27.880 NetType/WIFI Language/zh_CN'
p151
sg16
S'a30ef72bb35fcd8cf1b1f77a4054198a'
p152
sa(dp153
g2
S'7012'
p154
sg4
S'1385'
p155
sg6
S'03f52a4f7e66c7ccc384ce91e7bd50e9'
p156
sg8
S'xxee74f6883f930b0536951b7de9bc6de2'
p157
sg10
S'xx0cd7a6f2e85b8e05fb014b9b634a62b4'
p158
sg12
S'xxd2df6fd64888331a9da06da38ea68732'
p159
sg14
S'Mozilla/5.0 (Linux; Android 5.1; BF_T13 Build/LMY47D) AppleWebKit/537.36 (KHTML, like Gecko) Version/4.0 Chrome/37.0.0.0 Mobile MQQBrowser/6.8 TBS/036849 Safari/537.36 MicroMessenger/6.3.27.880 NetType/WIFI Language/zh_CN'
p160
sg16
S'a30ef72bb35fcd8cf1b1f77a4054198a'
p161
sa(dp162
g2
S'46087'
p163
sg4
S'1396'
p164
sg6
S'561efc192d2b8ba0ed46aa1774bc53e3'
p165
sg8
S'xxee74f6883f930b0536951b7de9bc6de2'
p166
sg10
S'xx0cd7a6f2e85b8e05fb014b9b634a62b4'
p167
sg12
S'xxd2df6fd64888331a9da06da38ea68732'
p168
sg14
S'Mozilla/5.0 (Linux; Android 5.1; BF_T13 Build/LMY47D) AppleWebKit/537.36 (KHTML, like Gecko) Version/4.0 Chrome/37.0.0.0 Mobile MQQBrowser/6.8 TBS/036849 Safari/537.36 MicroMessenger/6.3.27.880 NetType/WIFI Language/zh_CN'
p169
sg16
S'a30ef72bb35fcd8cf1b1f77a4054198a'
p170
sa(dp171
g2
S'7012'
p172
sg4
S'1406'
p173
sg6
S'03f52a4f7e66c7ccc384ce91e7bd50e9'
p174
sg8
S'xxee74f6883f930b0536951b7de9bc6de2'
p175
sg10
S'xx0cd7a6f2e85b8e05fb014b9b634a62b4'
p176
sg12
S'xxd2df6fd64888331a9da06da38ea68732'
p177
sg14
S'Mozilla/5.0 (Linux; Android 5.1; BF_T13 Build/LMY47D) AppleWebKit/537.36 (KHTML, like Gecko) Version/4.0 Chrome/37.0.0.0 Mobile MQQBrowser/6.8 TBS/036849 Safari/537.36 MicroMessenger/6.3.27.880 NetType/WIFI Language/zh_CN'
p178
sg16
S'a30ef72bb35fcd8cf1b1f77a4054198a'
p179
sa(dp180
g2
S'46087'
p181
sg4
S'1412'
p182
sg6
S'561efc192d2b8ba0ed46aa1774bc53e3'
p183
sg8
S'xxee74f6883f930b0536951b7de9bc6de2'
p184
sg10
S'xx0cd7a6f2e85b8e05fb014b9b634a62b4'
p185
sg12
S'xxd2df6fd64888331a9da06da38ea68732'
p186
sg14
S'Mozilla/5.0 (Linux; Android 5.1; BF_T13 Build/LMY47D) AppleWebKit/537.36 (KHTML, like Gecko) Version/4.0 Chrome/37.0.0.0 Mobile MQQBrowser/6.8 TBS/036849 Safari/537.36 MicroMessenger/6.3.27.880 NetType/WIFI Language/zh_CN'
p187
sg16
S'a30ef72bb35fcd8cf1b1f77a4054198a'
p188
sa(dp189
g2
S'25353'
p190
sg4
S'1425'
p191
sg6
S'9b786f345c441ac4140a5d02bcda10b8'
p192
sg8
S'xx6ffd52ce06ec0077683571a9145cc8a6'
p193
sg10
S'xx2826f2985898bb89ef75c03c3ce99dfe'
p194
sg12
S'xxd2df6fd64888331a9da06da38ea68732'
p195
sg14
S'Mozilla/5.0 (Linux; Android 5.1; BF_T13 Build/LMY47D) AppleWebKit/537.36 (KHTML, like Gecko) Version/4.0 Chrome/37.0.0.0 Mobile MQQBrowser/6.8 TBS/036849 Safari/537.36 MicroMessenger/6.3.27.880 NetType/cmnet Language/zh_CN'
p196
sg16
S'609b3d2aea6dde276cd846200810bf30'
p197
sa(dp198
g2
S'46087'
p199
sg4
S'1432'
p200
sg6
S'561efc192d2b8ba0ed46aa1774bc53e3'
p201
sg8
S'xxee74f6883f930b0536951b7de9bc6de2'
p202
sg10
S'xx0cd7a6f2e85b8e05fb014b9b634a62b4'
p203
sg12
S'xxd2df6fd64888331a9da06da38ea68732'
p204
sg14
S'Mozilla/5.0 (Linux; Android 5.1; BF_T13 Build/LMY47D) AppleWebKit/537.36 (KHTML, like Gecko) Version/4.0 Chrome/37.0.0.0 Mobile MQQBrowser/6.8 TBS/036849 Safari/537.36 MicroMessenger/6.3.27.880 NetType/WIFI Language/zh_CN'
p205
sg16
S'a30ef72bb35fcd8cf1b1f77a4054198a'
p206
sa(dp207
g2
S'25353'
p208
sg4
S'1446'
p209
sg6
S'9b786f345c441ac4140a5d02bcda10b8'
p210
sg8
S'xx6ffd52ce06ec0077683571a9145cc8a6'
p211
sg10
S'xx2826f2985898bb89ef75c03c3ce99dfe'
p212
sg12
S'xxd2df6fd64888331a9da06da38ea68732'
p213
sg14
S'Mozilla/5.0 (Linux; Android 5.1; BF_T13 Build/LMY47D) AppleWebKit/537.36 (KHTML, like Gecko) Version/4.0 Chrome/37.0.0.0 Mobile MQQBrowser/6.8 TBS/036849 Safari/537.36 MicroMessenger/6.3.27.880 NetType/cmnet Language/zh_CN'
p214
sg16
S'609b3d2aea6dde276cd846200810bf30'
p215
sa(dp216
g2
S'46087'
p217
sg4
S'1450'
p218
sg6
S'561efc192d2b8ba0ed46aa1774bc53e3'
p219
sg8
S'xxee74f6883f930b0536951b7de9bc6de2'
p220
sg10
S'xx0cd7a6f2e85b8e05fb014b9b634a62b4'
p221
sg12
S'xxd2df6fd64888331a9da06da38ea68732'
p222
sg14
S'Mozilla/5.0 (Linux; Android 5.1; BF_T13 Build/LMY47D) AppleWebKit/537.36 (KHTML, like Gecko) Version/4.0 Chrome/37.0.0.0 Mobile MQQBrowser/6.8 TBS/036849 Safari/537.36 MicroMessenger/6.3.27.880 NetType/WIFI Language/zh_CN'
p223
sg16
S'a30ef72bb35fcd8cf1b1f77a4054198a'
p224
sa(dp225
g2
S'46087'
p226
sg4
S'1478'
p227
sg6
S'561efc192d2b8ba0ed46aa1774bc53e3'
p228
sg8
S'xxee74f6883f930b0536951b7de9bc6de2'
p229
sg10
S'xx0cd7a6f2e85b8e05fb014b9b634a62b4'
p230
sg12
S'xxd2df6fd64888331a9da06da38ea68732'
p231
sg14
S'Mozilla/5.0 (Linux; Android 5.1; BF_T13 Build/LMY47D) AppleWebKit/537.36 (KHTML, like Gecko) Version/4.0 Chrome/37.0.0.0 Mobile MQQBrowser/6.8 TBS/036849 Safari/537.36 MicroMessenger/6.3.27.880 NetType/WIFI Language/zh_CN'
p232
sg16
S'a30ef72bb35fcd8cf1b1f77a4054198a'
p233
sa(dp234
g2
S'46087'
p235
sg4
S'1497'
p236
sg6
S'561efc192d2b8ba0ed46aa1774bc53e3'
p237
sg8
S'xxee74f6883f930b0536951b7de9bc6de2'
p238
sg10
S'xx0cd7a6f2e85b8e05fb014b9b634a62b4'
p239
sg12
S'xxd2df6fd64888331a9da06da38ea68732'
p240
sg14
S'Mozilla/5.0 (Linux; Android 5.1; BF_T13 Build/LMY47D) AppleWebKit/537.36 (KHTML, like Gecko) Version/4.0 Chrome/37.0.0.0 Mobile MQQBrowser/6.8 TBS/036849 Safari/537.36 MicroMessenger/6.3.27.880 NetType/WIFI Language/zh_CN'
p241
sg16
S'a30ef72bb35fcd8cf1b1f77a4054198a'
p242
sa(dp243
g2
S'46087'
p244
sg4
S'1530'
p245
sg6
S'561efc192d2b8ba0ed46aa1774bc53e3'
p246
sg8
S'xxee74f6883f930b0536951b7de9bc6de2'
p247
sg10
S'xx0cd7a6f2e85b8e05fb014b9b634a62b4'
p248
sg12
S'xxd2df6fd64888331a9da06da38ea68732'
p249
sg14
S'Mozilla/5.0 (Linux; Android 5.1; BF_T13 Build/LMY47D) AppleWebKit/537.36 (KHTML, like Gecko) Version/4.0 Chrome/37.0.0.0 Mobile MQQBrowser/6.8 TBS/036849 Safari/537.36 MicroMessenger/6.3.27.880 NetType/WIFI Language/zh_CN'
p250
sg16
S'a30ef72bb35fcd8cf1b1f77a4054198a'
p251
sa(dp252
g2
S'46087'
p253
sg4
S'1545'
p254
sg6
S'561efc192d2b8ba0ed46aa1774bc53e3'
p255
sg8
S'xxee74f6883f930b0536951b7de9bc6de2'
p256
sg10
S'xx0cd7a6f2e85b8e05fb014b9b634a62b4'
p257
sg12
S'xxd2df6fd64888331a9da06da38ea68732'
p258
sg14
S'Mozilla/5.0 (Linux; Android 5.1; BF_T13 Build/LMY47D) AppleWebKit/537.36 (KHTML, like Gecko) Version/4.0 Chrome/37.0.0.0 Mobile MQQBrowser/6.8 TBS/036849 Safari/537.36 MicroMessenger/6.3.27.880 NetType/WIFI Language/zh_CN'
p259
sg16
S'a30ef72bb35fcd8cf1b1f77a4054198a'
p260
sa(dp261
g2
S'46087'
p262
sg4
S'1562'
p263
sg6
S'561efc192d2b8ba0ed46aa1774bc53e3'
p264
sg8
S'xxee74f6883f930b0536951b7de9bc6de2'
p265
sg10
S'xx0cd7a6f2e85b8e05fb014b9b634a62b4'
p266
sg12
S'xxd2df6fd64888331a9da06da38ea68732'
p267
sg14
S'Mozilla/5.0 (Linux; Android 5.1; BF_T13 Build/LMY47D) AppleWebKit/537.36 (KHTML, like Gecko) Version/4.0 Chrome/37.0.0.0 Mobile MQQBrowser/6.8 TBS/036849 Safari/537.36 MicroMessenger/6.3.27.880 NetType/WIFI Language/zh_CN'
p268
sg16
S'a30ef72bb35fcd8cf1b1f77a4054198a'
p269
sa(dp270
g2
S'46087'
p271
sg4
S'1884'
p272
sg6
S'561efc192d2b8ba0ed46aa1774bc53e3'
p273
sg8
S'xxee74f6883f930b0536951b7de9bc6de2'
p274
sg10
S'xx0cd7a6f2e85b8e05fb014b9b634a62b4'
p275
sg12
S'xxd2df6fd64888331a9da06da38ea68732'
p276
sg14
S'Mozilla/5.0 (Linux; Android 5.1; BF_T13 Build/LMY47D) AppleWebKit/537.36 (KHTML, like Gecko) Version/4.0 Chrome/37.0.0.0 Mobile MQQBrowser/6.8 TBS/036849 Safari/537.36 MicroMessenger/6.3.27.880 NetType/WIFI Language/zh_CN'
p277
sg16
S'a30ef72bb35fcd8cf1b1f77a4054198a'
p278
sa(dp279
g2
S'46087'
p280
sg4
S'1899'
p281
sg6
S'561efc192d2b8ba0ed46aa1774bc53e3'
p282
sg8
S'xxee74f6883f930b0536951b7de9bc6de2'
p283
sg10
S'xx0cd7a6f2e85b8e05fb014b9b634a62b4'
p284
sg12
S'xxd2df6fd64888331a9da06da38ea68732'
p285
sg14
S'Mozilla/5.0 (Linux; Android 5.1; BF_T13 Build/LMY47D) AppleWebKit/537.36 (KHTML, like Gecko) Version/4.0 Chrome/37.0.0.0 Mobile MQQBrowser/6.8 TBS/036849 Safari/537.36 MicroMessenger/6.3.27.880 NetType/WIFI Language/zh_CN'
p286
sg16
S'a30ef72bb35fcd8cf1b1f77a4054198a'
p287
sa(dp288
g2
S'7012'
p289
sg4
S'1909'
p290
sg6
S'03f52a4f7e66c7ccc384ce91e7bd50e9'
p291
sg8
S'xxee74f6883f930b0536951b7de9bc6de2'
p292
sg10
S'xx0cd7a6f2e85b8e05fb014b9b634a62b4'
p293
sg12
S'xxd2df6fd64888331a9da06da38ea68732'
p294
sg14
S'Mozilla/5.0 (Linux; Android 5.1; BF_T13 Build/LMY47D) AppleWebKit/537.36 (KHTML, like Gecko) Version/4.0 Chrome/37.0.0.0 Mobile MQQBrowser/6.8 TBS/036849 Safari/537.36 MicroMessenger/6.3.27.880 NetType/WIFI Language/zh_CN'
p295
sg16
S'a30ef72bb35fcd8cf1b1f77a4054198a'
p296
sa(dp297
g2
S'7012'
p298
sg4
S'1930'
p299
sg6
S'03f52a4f7e66c7ccc384ce91e7bd50e9'
p300
sg8
S'xxee74f6883f930b0536951b7de9bc6de2'
p301
sg10
S'xx0cd7a6f2e85b8e05fb014b9b634a62b4'
p302
sg12
S'xxd2df6fd64888331a9da06da38ea68732'
p303
sg14
S'Mozilla/5.0 (Linux; Android 5.1; BF_T13 Build/LMY47D) AppleWebKit/537.36 (KHTML, like Gecko) Version/4.0 Chrome/37.0.0.0 Mobile MQQBrowser/6.8 TBS/036849 Safari/537.36 MicroMessenger/6.3.27.880 NetType/WIFI Language/zh_CN'
p304
sg16
S'a30ef72bb35fcd8cf1b1f77a4054198a'
p305
sa(dp306
g2
S'46087'
p307
sg4
S'1954'
p308
sg6
S'561efc192d2b8ba0ed46aa1774bc53e3'
p309
sg8
S'xxee74f6883f930b0536951b7de9bc6de2'
p310
sg10
S'xx0cd7a6f2e85b8e05fb014b9b634a62b4'
p311
sg12
S'xxd2df6fd64888331a9da06da38ea68732'
p312
sg14
S'Mozilla/5.0 (Linux; Android 5.1; BF_T13 Build/LMY47D) AppleWebKit/537.36 (KHTML, like Gecko) Version/4.0 Chrome/37.0.0.0 Mobile MQQBrowser/6.8 TBS/036849 Safari/537.36 MicroMessenger/6.3.27.880 NetType/WIFI Language/zh_CN'
p313
sg16
S'a30ef72bb35fcd8cf1b1f77a4054198a'
p314
sa(dp315
g2
S'7012'
p316
sg4
S'1970'
p317
sg6
S'03f52a4f7e66c7ccc384ce91e7bd50e9'
p318
sg8
S'xxee74f6883f930b0536951b7de9bc6de2'
p319
sg10
S'xx0cd7a6f2e85b8e05fb014b9b634a62b4'
p320
sg12
S'xxd2df6fd64888331a9da06da38ea68732'
p321
sg14
S'Mozilla/5.0 (Linux; Android 5.1; BF_T13 Build/LMY47D) AppleWebKit/537.36 (KHTML, like Gecko) Version/4.0 Chrome/37.0.0.0 Mobile MQQBrowser/6.8 TBS/036849 Safari/537.36 MicroMessenger/6.3.27.880 NetType/WIFI Language/zh_CN'
p322
sg16
S'a30ef72bb35fcd8cf1b1f77a4054198a'
p323
sa(dp324
g2
S'7012'
p325
sg4
S'1990'
p326
sg6
S'03f52a4f7e66c7ccc384ce91e7bd50e9'
p327
sg8
S'xxee74f6883f930b0536951b7de9bc6de2'
p328
sg10
S'xx0cd7a6f2e85b8e05fb014b9b634a62b4'
p329
sg12
S'xxd2df6fd64888331a9da06da38ea68732'
p330
sg14
S'Mozilla/5.0 (Linux; Android 5.1; BF_T13 Build/LMY47D) AppleWebKit/537.36 (KHTML, like Gecko) Version/4.0 Chrome/37.0.0.0 Mobile MQQBrowser/6.8 TBS/036849 Safari/537.36 MicroMessenger/6.3.27.880 NetType/WIFI Language/zh_CN'
p331
sg16
S'a30ef72bb35fcd8cf1b1f77a4054198a'
p332
sa(dp333
g2
S'7012'
p334
sg4
S'2012'
p335
sg6
S'03f52a4f7e66c7ccc384ce91e7bd50e9'
p336
sg8
S'xxee74f6883f930b0536951b7de9bc6de2'
p337
sg10
S'xx0cd7a6f2e85b8e05fb014b9b634a62b4'
p338
sg12
S'xxd2df6fd64888331a9da06da38ea68732'
p339
sg14
S'Mozilla/5.0 (Linux; Android 5.1; BF_T13 Build/LMY47D) AppleWebKit/537.36 (KHTML, like Gecko) Version/4.0 Chrome/37.0.0.0 Mobile MQQBrowser/6.8 TBS/036849 Safari/537.36 MicroMessenger/6.3.27.880 NetType/WIFI Language/zh_CN'
p340
sg16
S'a30ef72bb35fcd8cf1b1f77a4054198a'
p341
sa(dp342
g2
S'7012'
p343
sg4
S'2031'
p344
sg6
S'03f52a4f7e66c7ccc384ce91e7bd50e9'
p345
sg8
S'xxee74f6883f930b0536951b7de9bc6de2'
p346
sg10
S'xx0cd7a6f2e85b8e05fb014b9b634a62b4'
p347
sg12
S'xxd2df6fd64888331a9da06da38ea68732'
p348
sg14
S'Mozilla/5.0 (Linux; Android 5.1; BF_T13 Build/LMY47D) AppleWebKit/537.36 (KHTML, like Gecko) Version/4.0 Chrome/37.0.0.0 Mobile MQQBrowser/6.8 TBS/036849 Safari/537.36 MicroMessenger/6.3.27.880 NetType/WIFI Language/zh_CN'
p349
sg16
S'a30ef72bb35fcd8cf1b1f77a4054198a'
p350
sa(dp351
g2
S'25353'
p352
sg4
S'2048'
p353
sg6
S'96d8720a9b5ba9982737efd9adcc6068'
p354
sg8
S'xx6ffd52ce06ec0077683571a9145cc8a6'
p355
sg10
S'xx2826f2985898bb89ef75c03c3ce99dfe'
p356
sg12
S'xxd2df6fd64888331a9da06da38ea68732'
p357
sg14
S'Mozilla/5.0 (Linux; Android 5.1; BF_T13 Build/LMY47D) AppleWebKit/537.36 (KHTML, like Gecko) Version/4.0 Chrome/37.0.0.0 Mobile MQQBrowser/6.8 TBS/036849 Safari/537.36 MicroMessenger/6.3.27.880 NetType/cmnet Language/zh_CN'
p358
sg16
S'609b3d2aea6dde276cd846200810bf30'
p359
sa(dp360
g2
S'7012'
p361
sg4
S'2049'
p362
sg6
S'03f52a4f7e66c7ccc384ce91e7bd50e9'
p363
sg8
S'xxee74f6883f930b0536951b7de9bc6de2'
p364
sg10
S'xx0cd7a6f2e85b8e05fb014b9b634a62b4'
p365
sg12
S'xxd2df6fd64888331a9da06da38ea68732'
p366
sg14
S'Mozilla/5.0 (Linux; Android 5.1; BF_T13 Build/LMY47D) AppleWebKit/537.36 (KHTML, like Gecko) Version/4.0 Chrome/37.0.0.0 Mobile MQQBrowser/6.8 TBS/036849 Safari/537.36 MicroMessenger/6.3.27.880 NetType/WIFI Language/zh_CN'
p367
sg16
S'a30ef72bb35fcd8cf1b1f77a4054198a'
p368
sa(dp369
g2
S'25353'
p370
sg4
S'2062'
p371
sg6
S'96d8720a9b5ba9982737efd9adcc6068'
p372
sg8
S'xx6ffd52ce06ec0077683571a9145cc8a6'
p373
sg10
S'xx2826f2985898bb89ef75c03c3ce99dfe'
p374
sg12
S'xxd2df6fd64888331a9da06da38ea68732'
p375
sg14
S'Mozilla/5.0 (Linux; Android 5.1; BF_T13 Build/LMY47D) AppleWebKit/537.36 (KHTML, like Gecko) Version/4.0 Chrome/37.0.0.0 Mobile MQQBrowser/6.8 TBS/036849 Safari/537.36 MicroMessenger/6.3.27.880 NetType/cmnet Language/zh_CN'
p376
sg16
S'609b3d2aea6dde276cd846200810bf30'
p377
sa(dp378
g2
S'7012'
p379
sg4
S'2064'
p380
sg6
S'03f52a4f7e66c7ccc384ce91e7bd50e9'
p381
sg8
S'xxee74f6883f930b0536951b7de9bc6de2'
p382
sg10
S'xx0cd7a6f2e85b8e05fb014b9b634a62b4'
p383
sg12
S'xxd2df6fd64888331a9da06da38ea68732'
p384
sg14
S'Mozilla/5.0 (Linux; Android 5.1; BF_T13 Build/LMY47D) AppleWebKit/537.36 (KHTML, like Gecko) Version/4.0 Chrome/37.0.0.0 Mobile MQQBrowser/6.8 TBS/036849 Safari/537.36 MicroMessenger/6.3.27.880 NetType/WIFI Language/zh_CN'
p385
sg16
S'a30ef72bb35fcd8cf1b1f77a4054198a'
p386
sa(dp387
g2
S'7012'
p388
sg4
S'2075'
p389
sg6
S'03f52a4f7e66c7ccc384ce91e7bd50e9'
p390
sg8
S'xxee74f6883f930b0536951b7de9bc6de2'
p391
sg10
S'xx0cd7a6f2e85b8e05fb014b9b634a62b4'
p392
sg12
S'xxd2df6fd64888331a9da06da38ea68732'
p393
sg14
S'Mozilla/5.0 (Linux; Android 5.1; BF_T13 Build/LMY47D) AppleWebKit/537.36 (KHTML, like Gecko) Version/4.0 Chrome/37.0.0.0 Mobile MQQBrowser/6.8 TBS/036849 Safari/537.36 MicroMessenger/6.3.27.880 NetType/WIFI Language/zh_CN'
p394
sg16
S'a30ef72bb35fcd8cf1b1f77a4054198a'
p395
sa(dp396
g2
S'7012'
p397
sg4
S'2089'
p398
sg6
S'03f52a4f7e66c7ccc384ce91e7bd50e9'
p399
sg8
S'xxee74f6883f930b0536951b7de9bc6de2'
p400
sg10
S'xx0cd7a6f2e85b8e05fb014b9b634a62b4'
p401
sg12
S'xxd2df6fd64888331a9da06da38ea68732'
p402
sg14
S'Mozilla/5.0 (Linux; Android 5.1; BF_T13 Build/LMY47D) AppleWebKit/537.36 (KHTML, like Gecko) Version/4.0 Chrome/37.0.0.0 Mobile MQQBrowser/6.8 TBS/036849 Safari/537.36 MicroMessenger/6.3.27.880 NetType/WIFI Language/zh_CN'
p403
sg16
S'a30ef72bb35fcd8cf1b1f77a4054198a'
p404
sa(dp405
g2
S'25353'
p406
sg4
S'2100'
p407
sg6
S'96d8720a9b5ba9982737efd9adcc6068'
p408
sg8
S'xx6ffd52ce06ec0077683571a9145cc8a6'
p409
sg10
S'xx2826f2985898bb89ef75c03c3ce99dfe'
p410
sg12
S'xxd2df6fd64888331a9da06da38ea68732'
p411
sg14
S'Mozilla/5.0 (Linux; Android 5.1; BF_T13 Build/LMY47D) AppleWebKit/537.36 (KHTML, like Gecko) Version/4.0 Chrome/37.0.0.0 Mobile MQQBrowser/6.8 TBS/036849 Safari/537.36 MicroMessenger/6.3.27.880 NetType/cmnet Language/zh_CN'
p412
sg16
S'609b3d2aea6dde276cd846200810bf30'
p413
sa(dp414
g2
S'7012'
p415
sg4
S'2104'
p416
sg6
S'03f52a4f7e66c7ccc384ce91e7bd50e9'
p417
sg8
S'xxee74f6883f930b0536951b7de9bc6de2'
p418
sg10
S'xx0cd7a6f2e85b8e05fb014b9b634a62b4'
p419
sg12
S'xxd2df6fd64888331a9da06da38ea68732'
p420
sg14
S'Mozilla/5.0 (Linux; Android 5.1; BF_T13 Build/LMY47D) AppleWebKit/537.36 (KHTML, like Gecko) Version/4.0 Chrome/37.0.0.0 Mobile MQQBrowser/6.8 TBS/036849 Safari/537.36 MicroMessenger/6.3.27.880 NetType/WIFI Language/zh_CN'
p421
sg16
S'a30ef72bb35fcd8cf1b1f77a4054198a'
p422
sa(dp423
g2
S'25353'
p424
sg4
S'2540'
p425
sg6
S'd597369231ca172f9c1d0bb20e909600'
p426
sg8
S'xx6ffd52ce06ec0077683571a9145cc8a6'
p427
sg10
S'xx2826f2985898bb89ef75c03c3ce99dfe'
p428
sg12
S'xxd2df6fd64888331a9da06da38ea68732'
p429
sg14
S'Mozilla/5.0 (Linux; Android 5.1; BF_T13 Build/LMY47D) AppleWebKit/537.36 (KHTML, like Gecko) Version/4.0 Chrome/37.0.0.0 Mobile MQQBrowser/6.8 TBS/036849 Safari/537.36 MicroMessenger/6.3.27.880 NetType/cmnet Language/zh_CN'
p430
sg16
S'609b3d2aea6dde276cd846200810bf30'
p431
sa(dp432
g2
S'25353'
p433
sg4
S'2628'
p434
sg6
S'd597369231ca172f9c1d0bb20e909600'
p435
sg8
S'xx6ffd52ce06ec0077683571a9145cc8a6'
p436
sg10
S'xx2826f2985898bb89ef75c03c3ce99dfe'
p437
sg12
S'xxd2df6fd64888331a9da06da38ea68732'
p438
sg14
S'Mozilla/5.0 (Linux; Android 5.1; BF_T13 Build/LMY47D) AppleWebKit/537.36 (KHTML, like Gecko) Version/4.0 Chrome/37.0.0.0 Mobile MQQBrowser/6.8 TBS/036849 Safari/537.36 MicroMessenger/6.3.27.880 NetType/cmnet Language/zh_CN'
p439
sg16
S'609b3d2aea6dde276cd846200810bf30'
p440
sa(dp441
g2
S'25353'
p442
sg4
S'2654'
p443
sg6
S'd597369231ca172f9c1d0bb20e909600'
p444
sg8
S'xx6ffd52ce06ec0077683571a9145cc8a6'
p445
sg10
S'xx2826f2985898bb89ef75c03c3ce99dfe'
p446
sg12
S'xxd2df6fd64888331a9da06da38ea68732'
p447
sg14
S'Mozilla/5.0 (Linux; Android 5.1; BF_T13 Build/LMY47D) AppleWebKit/537.36 (KHTML, like Gecko) Version/4.0 Chrome/37.0.0.0 Mobile MQQBrowser/6.8 TBS/036849 Safari/537.36 MicroMessenger/6.3.27.880 NetType/cmnet Language/zh_CN'
p448
sg16
S'609b3d2aea6dde276cd846200810bf30'
p449
sa(dp450
g2
S'46087'
p451
sg4
S'2697'
p452
sg6
S'561efc192d2b8ba0ed46aa1774bc53e3'
p453
sg8
S'xxee74f6883f930b0536951b7de9bc6de2'
p454
sg10
S'xx0cd7a6f2e85b8e05fb014b9b634a62b4'
p455
sg12
S'xxd2df6fd64888331a9da06da38ea68732'
p456
sg14
S'Mozilla/5.0 (Linux; Android 5.1; BF_T13 Build/LMY47D) AppleWebKit/537.36 (KHTML, like Gecko) Version/4.0 Chrome/37.0.0.0 Mobile MQQBrowser/6.8 TBS/036849 Safari/537.36 MicroMessenger/6.3.27.880 NetType/WIFI Language/zh_CN'
p457
sg16
S'a30ef72bb35fcd8cf1b1f77a4054198a'
p458
sa(dp459
g2
S'46087'
p460
sg4
S'2715'
p461
sg6
S'561efc192d2b8ba0ed46aa1774bc53e3'
p462
sg8
S'xxee74f6883f930b0536951b7de9bc6de2'
p463
sg10
S'xx0cd7a6f2e85b8e05fb014b9b634a62b4'
p464
sg12
S'xxd2df6fd64888331a9da06da38ea68732'
p465
sg14
S'Mozilla/5.0 (Linux; Android 5.1; BF_T13 Build/LMY47D) AppleWebKit/537.36 (KHTML, like Gecko) Version/4.0 Chrome/37.0.0.0 Mobile MQQBrowser/6.8 TBS/036849 Safari/537.36 MicroMessenger/6.3.27.880 NetType/WIFI Language/zh_CN'
p466
sg16
S'a30ef72bb35fcd8cf1b1f77a4054198a'
p467
sa(dp468
g2
S'46087'
p469
sg4
S'2749'
p470
sg6
S'561efc192d2b8ba0ed46aa1774bc53e3'
p471
sg8
S'xxee74f6883f930b0536951b7de9bc6de2'
p472
sg10
S'xx0cd7a6f2e85b8e05fb014b9b634a62b4'
p473
sg12
S'xxd2df6fd64888331a9da06da38ea68732'
p474
sg14
S'Mozilla/5.0 (Linux; Android 5.1; BF_T13 Build/LMY47D) AppleWebKit/537.36 (KHTML, like Gecko) Version/4.0 Chrome/37.0.0.0 Mobile MQQBrowser/6.8 TBS/036849 Safari/537.36 MicroMessenger/6.3.27.880 NetType/WIFI Language/zh_CN'
p475
sg16
S'a30ef72bb35fcd8cf1b1f77a4054198a'
p476
sa(dp477
g2
S'46087'
p478
sg4
S'2770'
p479
sg6
S'561efc192d2b8ba0ed46aa1774bc53e3'
p480
sg8
S'xxee74f6883f930b0536951b7de9bc6de2'
p481
sg10
S'xx0cd7a6f2e85b8e05fb014b9b634a62b4'
p482
sg12
S'xxd2df6fd64888331a9da06da38ea68732'
p483
sg14
S'Mozilla/5.0 (Linux; Android 5.1; BF_T13 Build/LMY47D) AppleWebKit/537.36 (KHTML, like Gecko) Version/4.0 Chrome/37.0.0.0 Mobile MQQBrowser/6.8 TBS/036849 Safari/537.36 MicroMessenger/6.3.27.880 NetType/WIFI Language/zh_CN'
p484
sg16
S'a30ef72bb35fcd8cf1b1f77a4054198a'
p485
sa(dp486
g2
S'46087'
p487
sg4
S'2780'
p488
sg6
S'561efc192d2b8ba0ed46aa1774bc53e3'
p489
sg8
S'xxee74f6883f930b0536951b7de9bc6de2'
p490
sg10
S'xx0cd7a6f2e85b8e05fb014b9b634a62b4'
p491
sg12
S'xxd2df6fd64888331a9da06da38ea68732'
p492
sg14
S'Mozilla/5.0 (Linux; Android 5.1; BF_T13 Build/LMY47D) AppleWebKit/537.36 (KHTML, like Gecko) Version/4.0 Chrome/37.0.0.0 Mobile MQQBrowser/6.8 TBS/036849 Safari/537.36 MicroMessenger/6.3.27.880 NetType/WIFI Language/zh_CN'
p493
sg16
S'a30ef72bb35fcd8cf1b1f77a4054198a'
p494
sa(dp495
g2
S'46087'
p496
sg4
S'2790'
p497
sg6
S'561efc192d2b8ba0ed46aa1774bc53e3'
p498
sg8
S'xxee74f6883f930b0536951b7de9bc6de2'
p499
sg10
S'xx0cd7a6f2e85b8e05fb014b9b634a62b4'
p500
sg12
S'xxd2df6fd64888331a9da06da38ea68732'
p501
sg14
S'Mozilla/5.0 (Linux; Android 5.1; BF_T13 Build/LMY47D) AppleWebKit/537.36 (KHTML, like Gecko) Version/4.0 Chrome/37.0.0.0 Mobile MQQBrowser/6.8 TBS/036849 Safari/537.36 MicroMessenger/6.3.27.880 NetType/WIFI Language/zh_CN'
p502
sg16
S'a30ef72bb35fcd8cf1b1f77a4054198a'
p503
sa(dp504
g2
S'46087'
p505
sg4
S'2804'
p506
sg6
S'561efc192d2b8ba0ed46aa1774bc53e3'
p507
sg8
S'xxee74f6883f930b0536951b7de9bc6de2'
p508
sg10
S'xx0cd7a6f2e85b8e05fb014b9b634a62b4'
p509
sg12
S'xxd2df6fd64888331a9da06da38ea68732'
p510
sg14
S'Mozilla/5.0 (Linux; Android 5.1; BF_T13 Build/LMY47D) AppleWebKit/537.36 (KHTML, like Gecko) Version/4.0 Chrome/37.0.0.0 Mobile MQQBrowser/6.8 TBS/036849 Safari/537.36 MicroMessenger/6.3.27.880 NetType/WIFI Language/zh_CN'
p511
sg16
S'a30ef72bb35fcd8cf1b1f77a4054198a'
p512
sa(dp513
g2
S'25353'
p514
sg4
S'3283'
p515
sg6
S'd597369231ca172f9c1d0bb20e909600'
p516
sg8
S'xx6ffd52ce06ec0077683571a9145cc8a6'
p517
sg10
S'xx2826f2985898bb89ef75c03c3ce99dfe'
p518
sg12
S'xxd2df6fd64888331a9da06da38ea68732'
p519
sg14
S'Mozilla/5.0 (Linux; Android 5.1; BF_T13 Build/LMY47D) AppleWebKit/537.36 (KHTML, like Gecko) Version/4.0 Chrome/37.0.0.0 Mobile MQQBrowser/6.8 TBS/036849 Safari/537.36 MicroMessenger/6.3.27.880 NetType/cmnet Language/zh_CN'
p520
sg16
S'609b3d2aea6dde276cd846200810bf30'
p521
sa(dp522
g2
S'25353'
p523
sg4
S'3295'
p524
sg6
S'd597369231ca172f9c1d0bb20e909600'
p525
sg8
S'xx6ffd52ce06ec0077683571a9145cc8a6'
p526
sg10
S'xx2826f2985898bb89ef75c03c3ce99dfe'
p527
sg12
S'xxd2df6fd64888331a9da06da38ea68732'
p528
sg14
S'Mozilla/5.0 (Linux; Android 5.1; BF_T13 Build/LMY47D) AppleWebKit/537.36 (KHTML, like Gecko) Version/4.0 Chrome/37.0.0.0 Mobile MQQBrowser/6.8 TBS/036849 Safari/537.36 MicroMessenger/6.3.27.880 NetType/cmnet Language/zh_CN'
p529
sg16
S'609b3d2aea6dde276cd846200810bf30'
p530
sa(dp531
g2
S'25353'
p532
sg4
S'4127'
p533
sg6
S'd597369231ca172f9c1d0bb20e909600'
p534
sg8
S'xx6ffd52ce06ec0077683571a9145cc8a6'
p535
sg10
S'xx2826f2985898bb89ef75c03c3ce99dfe'
p536
sg12
S'xxd2df6fd64888331a9da06da38ea68732'
p537
sg14
S'Mozilla/5.0 (Linux; Android 5.1; BF_T13 Build/LMY47D) AppleWebKit/537.36 (KHTML, like Gecko) Version/4.0 Chrome/37.0.0.0 Mobile MQQBrowser/6.8 TBS/036849 Safari/537.36 MicroMessenger/6.3.27.880 NetType/cmnet Language/zh_CN'
p538
sg16
S'609b3d2aea6dde276cd846200810bf30'
p539
sa(dp540
g2
S'25353'
p541
sg4
S'4154'
p542
sg6
S'd597369231ca172f9c1d0bb20e909600'
p543
sg8
S'xx6ffd52ce06ec0077683571a9145cc8a6'
p544
sg10
S'xx2826f2985898bb89ef75c03c3ce99dfe'
p545
sg12
S'xxd2df6fd64888331a9da06da38ea68732'
p546
sg14
S'Mozilla/5.0 (Linux; Android 5.1; BF_T13 Build/LMY47D) AppleWebKit/537.36 (KHTML, like Gecko) Version/4.0 Chrome/37.0.0.0 Mobile MQQBrowser/6.8 TBS/036849 Safari/537.36 MicroMessenger/6.3.27.880 NetType/cmnet Language/zh_CN'
p547
sg16
S'609b3d2aea6dde276cd846200810bf30'
p548
sa.