(lp0
(dp1
S'user_id'
p2
S'28982'
p3
sS'data_id'
p4
S'250'
p5
sS'ip'
p6
S'03058ff25b1b7f26625c3e6dad07f9c3'
p7
sS'phone_B'
p8
S'xxf29b2c6f581cf9b134c9bc4ebe5c83c1'
p9
sS'phone_C'
p10
S'xx39d378f51b72092d97bfc6eda90c14b6'
p11
sS'phone_A'
p12
S'xxd2f3224e8d64811106c9fbcf07713f6b'
p13
sS'user_agent'
p14
S'Mozilla/5.0 (Linux; Android 5.0; vivo Y35 Build/LRX21M) AppleWebKit/537.36 (KHTML, like Gecko) Version/4.0 Chrome/37.0.0.0 Mobile MQQBrowser/6.8 TBS/036869 Safari/537.36 MicroMessenger/6.3.27.880 NetType/WIFI Language/zh_CN'
p15
sS'ua'
p16
S'e1efaa0d59b06436070f3097d291cbe8'
p17
sa(dp18
g2
S'28982'
p19
sg4
S'262'
p20
sg6
S'03058ff25b1b7f26625c3e6dad07f9c3'
p21
sg8
S'xxf29b2c6f581cf9b134c9bc4ebe5c83c1'
p22
sg10
S'xx39d378f51b72092d97bfc6eda90c14b6'
p23
sg12
S'xxd2f3224e8d64811106c9fbcf07713f6b'
p24
sg14
S'Mozilla/5.0 (Linux; Android 5.0; vivo Y35 Build/LRX21M) AppleWebKit/537.36 (KHTML, like Gecko) Version/4.0 Chrome/37.0.0.0 Mobile MQQBrowser/6.8 TBS/036869 Safari/537.36 MicroMessenger/6.3.27.880 NetType/WIFI Language/zh_CN'
p25
sg16
S'e1efaa0d59b06436070f3097d291cbe8'
p26
sa(dp27
g2
S'47601'
p28
sg4
S'1359'
p29
sg6
S'c79aaf8cd2dd549616d334c1307c2091'
p30
sg8
S'xxebf85ac09ab77744b515cacf2dba0216'
p31
sg10
S'xx39d378f51b72092d97bfc6eda90c14b6'
p32
sg12
S'xxd2f3224e8d64811106c9fbcf07713f6b'
p33
sg14
S'Mozilla/5.0 (Linux; Android 5.0; vivo Y35 Build/LRX21M) AppleWebKit/537.36 (KHTML, like Gecko) Version/4.0 Chrome/37.0.0.0 Mobile MQQBrowser/6.8 TBS/036849 Safari/537.36 MicroMessenger/6.3.27.880 NetType/WIFI Language/zh_CN'
p34
sg16
S'6934461e74db39349a9ec268d77f98df'
p35
sa(dp36
g2
S'47601'
p37
sg4
S'1369'
p38
sg6
S'c79aaf8cd2dd549616d334c1307c2091'
p39
sg8
S'xxebf85ac09ab77744b515cacf2dba0216'
p40
sg10
S'xx39d378f51b72092d97bfc6eda90c14b6'
p41
sg12
S'xxd2f3224e8d64811106c9fbcf07713f6b'
p42
sg14
S'Mozilla/5.0 (Linux; Android 5.0; vivo Y35 Build/LRX21M) AppleWebKit/537.36 (KHTML, like Gecko) Version/4.0 Chrome/37.0.0.0 Mobile MQQBrowser/6.8 TBS/036849 Safari/537.36 MicroMessenger/6.3.27.880 NetType/WIFI Language/zh_CN'
p43
sg16
S'6934461e74db39349a9ec268d77f98df'
p44
sa(dp45
g2
S'5229'
p46
sg4
S'1414'
p47
sg6
S'533b45ae3853088ffa0a5d1b2601cade'
p48
sg8
S'xx22902ce5a7b7d505afddd24fa646cd8a'
p49
sg10
S'xx39d378f51b72092d97bfc6eda90c14b6'
p50
sg12
S'xxd2f3224e8d64811106c9fbcf07713f6b'
p51
sg14
S'Mozilla/5.0 (Linux; Android 5.0; vivo Y35 Build/LRX21M) AppleWebKit/537.36 (KHTML, like Gecko) Version/4.0 Chrome/37.0.0.0 Mobile MQQBrowser/6.8 TBS/036864 Safari/537.36 MicroMessenger/6.3.27.880 NetType/WIFI Language/zh_CN'
p52
sg16
S'1f07c6d20bfc4e0081b1ea8218ba4c28'
p53
sa(dp54
g2
S'28982'
p55
sg4
S'1483'
p56
sg6
S'03058ff25b1b7f26625c3e6dad07f9c3'
p57
sg8
S'xxf29b2c6f581cf9b134c9bc4ebe5c83c1'
p58
sg10
S'xx39d378f51b72092d97bfc6eda90c14b6'
p59
sg12
S'xxd2f3224e8d64811106c9fbcf07713f6b'
p60
sg14
S'Mozilla/5.0 (Linux; Android 5.0; vivo Y35 Build/LRX21M) AppleWebKit/537.36 (KHTML, like Gecko) Version/4.0 Chrome/37.0.0.0 Mobile MQQBrowser/6.8 TBS/036869 Safari/537.36 MicroMessenger/6.3.27.880 NetType/WIFI Language/zh_CN'
p61
sg16
S'e1efaa0d59b06436070f3097d291cbe8'
p62
sa(dp63
g2
S'28982'
p64
sg4
S'1506'
p65
sg6
S'03058ff25b1b7f26625c3e6dad07f9c3'
p66
sg8
S'xxf29b2c6f581cf9b134c9bc4ebe5c83c1'
p67
sg10
S'xx39d378f51b72092d97bfc6eda90c14b6'
p68
sg12
S'xxd2f3224e8d64811106c9fbcf07713f6b'
p69
sg14
S'Mozilla/5.0 (Linux; Android 5.0; vivo Y35 Build/LRX21M) AppleWebKit/537.36 (KHTML, like Gecko) Version/4.0 Chrome/37.0.0.0 Mobile MQQBrowser/6.8 TBS/036869 Safari/537.36 MicroMessenger/6.3.27.880 NetType/WIFI Language/zh_CN'
p70
sg16
S'e1efaa0d59b06436070f3097d291cbe8'
p71
sa(dp72
g2
S'32328'
p73
sg4
S'1534'
p74
sg6
S'37ec7b91655b3c964292df15710fad2a'
p75
sg8
S'xxebf85ac09ab77744b515cacf2dba0216'
p76
sg10
S'xx39d378f51b72092d97bfc6eda90c14b6'
p77
sg12
S'xxd2f3224e8d64811106c9fbcf07713f6b'
p78
sg14
S'Mozilla/5.0 (Linux; Android 5.0; vivo Y35 Build/LRX21M) AppleWebKit/537.36 (KHTML, like Gecko) Version/4.0 Chrome/37.0.0.0 Mobile MQQBrowser/6.8 TBS/036849 Safari/537.36 MicroMessenger/6.3.27.880 NetType/WIFI Language/zh_CN'
p79
sg16
S'6934461e74db39349a9ec268d77f98df'
p80
sa(dp81
g2
S'32328'
p82
sg4
S'1549'
p83
sg6
S'37ec7b91655b3c964292df15710fad2a'
p84
sg8
S'xxebf85ac09ab77744b515cacf2dba0216'
p85
sg10
S'xx39d378f51b72092d97bfc6eda90c14b6'
p86
sg12
S'xxd2f3224e8d64811106c9fbcf07713f6b'
p87
sg14
S'Mozilla/5.0 (Linux; Android 5.0; vivo Y35 Build/LRX21M) AppleWebKit/537.36 (KHTML, like Gecko) Version/4.0 Chrome/37.0.0.0 Mobile MQQBrowser/6.8 TBS/036849 Safari/537.36 MicroMessenger/6.3.27.880 NetType/WIFI Language/zh_CN'
p88
sg16
S'6934461e74db39349a9ec268d77f98df'
p89
sa(dp90
g2
S'32328'
p91
sg4
S'1565'
p92
sg6
S'37ec7b91655b3c964292df15710fad2a'
p93
sg8
S'xxebf85ac09ab77744b515cacf2dba0216'
p94
sg10
S'xx39d378f51b72092d97bfc6eda90c14b6'
p95
sg12
S'xxd2f3224e8d64811106c9fbcf07713f6b'
p96
sg14
S'Mozilla/5.0 (Linux; Android 5.0; vivo Y35 Build/LRX21M) AppleWebKit/537.36 (KHTML, like Gecko) Version/4.0 Chrome/37.0.0.0 Mobile MQQBrowser/6.8 TBS/036849 Safari/537.36 MicroMessenger/6.3.27.880 NetType/WIFI Language/zh_CN'
p97
sg16
S'6934461e74db39349a9ec268d77f98df'
p98
sa(dp99
g2
S'49756'
p100
sg4
S'1842'
p101
sg6
S'9142abacd728c754a024ec48d763ab72'
p102
sg8
S'xx190163dfba7f68c9a8449cd2586d7641'
p103
sg10
S'xxd2d1322c94225bf72057c5e674c3ab14'
p104
sg12
S'xxd2f3224e8d64811106c9fbcf07713f6b'
p105
sg14
S'Mozilla/5.0 (Linux; Android 5.0; vivo Y35 Build/LRX21M) AppleWebKit/537.36 (KHTML, like Gecko) Version/4.0 Chrome/37.0.0.0 Mobile MQQBrowser/6.8 TBS/036849 Safari/537.36 MicroMessenger/6.3.27.880 NetType/WIFI Language/zh_CN'
p106
sg16
S'6934461e74db39349a9ec268d77f98df'
p107
sa(dp108
g2
S'49756'
p109
sg4
S'1853'
p110
sg6
S'9142abacd728c754a024ec48d763ab72'
p111
sg8
S'xx190163dfba7f68c9a8449cd2586d7641'
p112
sg10
S'xxd2d1322c94225bf72057c5e674c3ab14'
p113
sg12
S'xxd2f3224e8d64811106c9fbcf07713f6b'
p114
sg14
S'Mozilla/5.0 (Linux; Android 5.0; vivo Y35 Build/LRX21M) AppleWebKit/537.36 (KHTML, like Gecko) Version/4.0 Chrome/37.0.0.0 Mobile MQQBrowser/6.8 TBS/036849 Safari/537.36 MicroMessenger/6.3.27.880 NetType/WIFI Language/zh_CN'
p115
sg16
S'6934461e74db39349a9ec268d77f98df'
p116
sa(dp117
g2
S'49756'
p118
sg4
S'1867'
p119
sg6
S'9142abacd728c754a024ec48d763ab72'
p120
sg8
S'xx190163dfba7f68c9a8449cd2586d7641'
p121
sg10
S'xxd2d1322c94225bf72057c5e674c3ab14'
p122
sg12
S'xxd2f3224e8d64811106c9fbcf07713f6b'
p123
sg14
S'Mozilla/5.0 (Linux; Android 5.0; vivo Y35 Build/LRX21M) AppleWebKit/537.36 (KHTML, like Gecko) Version/4.0 Chrome/37.0.0.0 Mobile MQQBrowser/6.8 TBS/036849 Safari/537.36 MicroMessenger/6.3.27.880 NetType/WIFI Language/zh_CN'
p124
sg16
S'6934461e74db39349a9ec268d77f98df'
p125
sa(dp126
g2
S'49756'
p127
sg4
S'1880'
p128
sg6
S'9142abacd728c754a024ec48d763ab72'
p129
sg8
S'xx190163dfba7f68c9a8449cd2586d7641'
p130
sg10
S'xxd2d1322c94225bf72057c5e674c3ab14'
p131
sg12
S'xxd2f3224e8d64811106c9fbcf07713f6b'
p132
sg14
S'Mozilla/5.0 (Linux; Android 5.0; vivo Y35 Build/LRX21M) AppleWebKit/537.36 (KHTML, like Gecko) Version/4.0 Chrome/37.0.0.0 Mobile MQQBrowser/6.8 TBS/036849 Safari/537.36 MicroMessenger/6.3.27.880 NetType/WIFI Language/zh_CN'
p133
sg16
S'6934461e74db39349a9ec268d77f98df'
p134
sa(dp135
g2
S'5229'
p136
sg4
S'2002'
p137
sg6
S'533b45ae3853088ffa0a5d1b2601cade'
p138
sg8
S'xx22902ce5a7b7d505afddd24fa646cd8a'
p139
sg10
S'xx39d378f51b72092d97bfc6eda90c14b6'
p140
sg12
S'xxd2f3224e8d64811106c9fbcf07713f6b'
p141
sg14
S'Mozilla/5.0 (Linux; Android 5.0; vivo Y35 Build/LRX21M) AppleWebKit/537.36 (KHTML, like Gecko) Version/4.0 Chrome/37.0.0.0 Mobile MQQBrowser/6.8 TBS/036864 Safari/537.36 MicroMessenger/6.3.27.880 NetType/WIFI Language/zh_CN'
p142
sg16
S'1f07c6d20bfc4e0081b1ea8218ba4c28'
p143
sa(dp144
g2
S'5229'
p145
sg4
S'2019'
p146
sg6
S'533b45ae3853088ffa0a5d1b2601cade'
p147
sg8
S'xx22902ce5a7b7d505afddd24fa646cd8a'
p148
sg10
S'xx39d378f51b72092d97bfc6eda90c14b6'
p149
sg12
S'xxd2f3224e8d64811106c9fbcf07713f6b'
p150
sg14
S'Mozilla/5.0 (Linux; Android 5.0; vivo Y35 Build/LRX21M) AppleWebKit/537.36 (KHTML, like Gecko) Version/4.0 Chrome/37.0.0.0 Mobile MQQBrowser/6.8 TBS/036864 Safari/537.36 MicroMessenger/6.3.27.880 NetType/WIFI Language/zh_CN'
p151
sg16
S'1f07c6d20bfc4e0081b1ea8218ba4c28'
p152
sa(dp153
g2
S'5229'
p154
sg4
S'2036'
p155
sg6
S'533b45ae3853088ffa0a5d1b2601cade'
p156
sg8
S'xx22902ce5a7b7d505afddd24fa646cd8a'
p157
sg10
S'xx39d378f51b72092d97bfc6eda90c14b6'
p158
sg12
S'xxd2f3224e8d64811106c9fbcf07713f6b'
p159
sg14
S'Mozilla/5.0 (Linux; Android 5.0; vivo Y35 Build/LRX21M) AppleWebKit/537.36 (KHTML, like Gecko) Version/4.0 Chrome/37.0.0.0 Mobile MQQBrowser/6.8 TBS/036864 Safari/537.36 MicroMessenger/6.3.27.880 NetType/WIFI Language/zh_CN'
p160
sg16
S'1f07c6d20bfc4e0081b1ea8218ba4c28'
p161
sa(dp162
g2
S'5229'
p163
sg4
S'2488'
p164
sg6
S'533b45ae3853088ffa0a5d1b2601cade'
p165
sg8
S'xx22902ce5a7b7d505afddd24fa646cd8a'
p166
sg10
S'xx39d378f51b72092d97bfc6eda90c14b6'
p167
sg12
S'xxd2f3224e8d64811106c9fbcf07713f6b'
p168
sg14
S'Mozilla/5.0 (Linux; Android 5.0; vivo Y35 Build/LRX21M) AppleWebKit/537.36 (KHTML, like Gecko) Version/4.0 Chrome/37.0.0.0 Mobile MQQBrowser/6.8 TBS/036864 Safari/537.36 MicroMessenger/6.3.27.880 NetType/WIFI Language/zh_CN'
p169
sg16
S'1f07c6d20bfc4e0081b1ea8218ba4c28'
p170
sa(dp171
g2
S'5229'
p172
sg4
S'2514'
p173
sg6
S'533b45ae3853088ffa0a5d1b2601cade'
p174
sg8
S'xx22902ce5a7b7d505afddd24fa646cd8a'
p175
sg10
S'xx39d378f51b72092d97bfc6eda90c14b6'
p176
sg12
S'xxd2f3224e8d64811106c9fbcf07713f6b'
p177
sg14
S'Mozilla/5.0 (Linux; Android 5.0; vivo Y35 Build/LRX21M) AppleWebKit/537.36 (KHTML, like Gecko) Version/4.0 Chrome/37.0.0.0 Mobile MQQBrowser/6.8 TBS/036864 Safari/537.36 MicroMessenger/6.3.27.880 NetType/WIFI Language/zh_CN'
p178
sg16
S'1f07c6d20bfc4e0081b1ea8218ba4c28'
p179
sa(dp180
g2
S'5229'
p181
sg4
S'2524'
p182
sg6
S'533b45ae3853088ffa0a5d1b2601cade'
p183
sg8
S'xx22902ce5a7b7d505afddd24fa646cd8a'
p184
sg10
S'xx39d378f51b72092d97bfc6eda90c14b6'
p185
sg12
S'xxd2f3224e8d64811106c9fbcf07713f6b'
p186
sg14
S'Mozilla/5.0 (Linux; Android 5.0; vivo Y35 Build/LRX21M) AppleWebKit/537.36 (KHTML, like Gecko) Version/4.0 Chrome/37.0.0.0 Mobile MQQBrowser/6.8 TBS/036864 Safari/537.36 MicroMessenger/6.3.27.880 NetType/WIFI Language/zh_CN'
p187
sg16
S'1f07c6d20bfc4e0081b1ea8218ba4c28'
p188
sa(dp189
g2
S'5229'
p190
sg4
S'2541'
p191
sg6
S'533b45ae3853088ffa0a5d1b2601cade'
p192
sg8
S'xx22902ce5a7b7d505afddd24fa646cd8a'
p193
sg10
S'xx39d378f51b72092d97bfc6eda90c14b6'
p194
sg12
S'xxd2f3224e8d64811106c9fbcf07713f6b'
p195
sg14
S'Mozilla/5.0 (Linux; Android 5.0; vivo Y35 Build/LRX21M) AppleWebKit/537.36 (KHTML, like Gecko) Version/4.0 Chrome/37.0.0.0 Mobile MQQBrowser/6.8 TBS/036864 Safari/537.36 MicroMessenger/6.3.27.880 NetType/WIFI Language/zh_CN'
p196
sg16
S'1f07c6d20bfc4e0081b1ea8218ba4c28'
p197
sa(dp198
g2
S'5229'
p199
sg4
S'2567'
p200
sg6
S'533b45ae3853088ffa0a5d1b2601cade'
p201
sg8
S'xx22902ce5a7b7d505afddd24fa646cd8a'
p202
sg10
S'xx39d378f51b72092d97bfc6eda90c14b6'
p203
sg12
S'xxd2f3224e8d64811106c9fbcf07713f6b'
p204
sg14
S'Mozilla/5.0 (Linux; Android 5.0; vivo Y35 Build/LRX21M) AppleWebKit/537.36 (KHTML, like Gecko) Version/4.0 Chrome/37.0.0.0 Mobile MQQBrowser/6.8 TBS/036864 Safari/537.36 MicroMessenger/6.3.27.880 NetType/WIFI Language/zh_CN'
p205
sg16
S'1f07c6d20bfc4e0081b1ea8218ba4c28'
p206
sa(dp207
g2
S'5229'
p208
sg4
S'3116'
p209
sg6
S'533b45ae3853088ffa0a5d1b2601cade'
p210
sg8
S'xx22902ce5a7b7d505afddd24fa646cd8a'
p211
sg10
S'xx39d378f51b72092d97bfc6eda90c14b6'
p212
sg12
S'xxd2f3224e8d64811106c9fbcf07713f6b'
p213
sg14
S'Mozilla/5.0 (Linux; Android 5.0; vivo Y35 Build/LRX21M) AppleWebKit/537.36 (KHTML, like Gecko) Version/4.0 Chrome/37.0.0.0 Mobile MQQBrowser/6.8 TBS/036864 Safari/537.36 MicroMessenger/6.3.27.880 NetType/WIFI Language/zh_CN'
p214
sg16
S'1f07c6d20bfc4e0081b1ea8218ba4c28'
p215
sa(dp216
g2
S'5229'
p217
sg4
S'3134'
p218
sg6
S'533b45ae3853088ffa0a5d1b2601cade'
p219
sg8
S'xx22902ce5a7b7d505afddd24fa646cd8a'
p220
sg10
S'xx39d378f51b72092d97bfc6eda90c14b6'
p221
sg12
S'xxd2f3224e8d64811106c9fbcf07713f6b'
p222
sg14
S'Mozilla/5.0 (Linux; Android 5.0; vivo Y35 Build/LRX21M) AppleWebKit/537.36 (KHTML, like Gecko) Version/4.0 Chrome/37.0.0.0 Mobile MQQBrowser/6.8 TBS/036864 Safari/537.36 MicroMessenger/6.3.27.880 NetType/WIFI Language/zh_CN'
p223
sg16
S'1f07c6d20bfc4e0081b1ea8218ba4c28'
p224
sa(dp225
g2
S'5229'
p226
sg4
S'3151'
p227
sg6
S'533b45ae3853088ffa0a5d1b2601cade'
p228
sg8
S'xx22902ce5a7b7d505afddd24fa646cd8a'
p229
sg10
S'xx39d378f51b72092d97bfc6eda90c14b6'
p230
sg12
S'xxd2f3224e8d64811106c9fbcf07713f6b'
p231
sg14
S'Mozilla/5.0 (Linux; Android 5.0; vivo Y35 Build/LRX21M) AppleWebKit/537.36 (KHTML, like Gecko) Version/4.0 Chrome/37.0.0.0 Mobile MQQBrowser/6.8 TBS/036864 Safari/537.36 MicroMessenger/6.3.27.880 NetType/WIFI Language/zh_CN'
p232
sg16
S'1f07c6d20bfc4e0081b1ea8218ba4c28'
p233
sa(dp234
g2
S'5229'
p235
sg4
S'3530'
p236
sg6
S'533b45ae3853088ffa0a5d1b2601cade'
p237
sg8
S'xx22902ce5a7b7d505afddd24fa646cd8a'
p238
sg10
S'xx39d378f51b72092d97bfc6eda90c14b6'
p239
sg12
S'xxd2f3224e8d64811106c9fbcf07713f6b'
p240
sg14
S'Mozilla/5.0 (Linux; Android 5.0; vivo Y35 Build/LRX21M) AppleWebKit/537.36 (KHTML, like Gecko) Version/4.0 Chrome/37.0.0.0 Mobile MQQBrowser/6.8 TBS/036864 Safari/537.36 MicroMessenger/6.3.27.880 NetType/WIFI Language/zh_CN'
p241
sg16
S'1f07c6d20bfc4e0081b1ea8218ba4c28'
p242
sa(dp243
g2
S'5229'
p244
sg4
S'3543'
p245
sg6
S'533b45ae3853088ffa0a5d1b2601cade'
p246
sg8
S'xx22902ce5a7b7d505afddd24fa646cd8a'
p247
sg10
S'xx39d378f51b72092d97bfc6eda90c14b6'
p248
sg12
S'xxd2f3224e8d64811106c9fbcf07713f6b'
p249
sg14
S'Mozilla/5.0 (Linux; Android 5.0; vivo Y35 Build/LRX21M) AppleWebKit/537.36 (KHTML, like Gecko) Version/4.0 Chrome/37.0.0.0 Mobile MQQBrowser/6.8 TBS/036864 Safari/537.36 MicroMessenger/6.3.27.880 NetType/WIFI Language/zh_CN'
p250
sg16
S'1f07c6d20bfc4e0081b1ea8218ba4c28'
p251
sa(dp252
g2
S'5229'
p253
sg4
S'3560'
p254
sg6
S'533b45ae3853088ffa0a5d1b2601cade'
p255
sg8
S'xx22902ce5a7b7d505afddd24fa646cd8a'
p256
sg10
S'xx39d378f51b72092d97bfc6eda90c14b6'
p257
sg12
S'xxd2f3224e8d64811106c9fbcf07713f6b'
p258
sg14
S'Mozilla/5.0 (Linux; Android 5.0; vivo Y35 Build/LRX21M) AppleWebKit/537.36 (KHTML, like Gecko) Version/4.0 Chrome/37.0.0.0 Mobile MQQBrowser/6.8 TBS/036864 Safari/537.36 MicroMessenger/6.3.27.880 NetType/WIFI Language/zh_CN'
p259
sg16
S'1f07c6d20bfc4e0081b1ea8218ba4c28'
p260
sa(dp261
g2
S'5229'
p262
sg4
S'3575'
p263
sg6
S'533b45ae3853088ffa0a5d1b2601cade'
p264
sg8
S'xx22902ce5a7b7d505afddd24fa646cd8a'
p265
sg10
S'xx39d378f51b72092d97bfc6eda90c14b6'
p266
sg12
S'xxd2f3224e8d64811106c9fbcf07713f6b'
p267
sg14
S'Mozilla/5.0 (Linux; Android 5.0; vivo Y35 Build/LRX21M) AppleWebKit/537.36 (KHTML, like Gecko) Version/4.0 Chrome/37.0.0.0 Mobile MQQBrowser/6.8 TBS/036864 Safari/537.36 MicroMessenger/6.3.27.880 NetType/WIFI Language/zh_CN'
p268
sg16
S'1f07c6d20bfc4e0081b1ea8218ba4c28'
p269
sa(dp270
g2
S'5229'
p271
sg4
S'3600'
p272
sg6
S'533b45ae3853088ffa0a5d1b2601cade'
p273
sg8
S'xx22902ce5a7b7d505afddd24fa646cd8a'
p274
sg10
S'xx39d378f51b72092d97bfc6eda90c14b6'
p275
sg12
S'xxd2f3224e8d64811106c9fbcf07713f6b'
p276
sg14
S'Mozilla/5.0 (Linux; Android 5.0; vivo Y35 Build/LRX21M) AppleWebKit/537.36 (KHTML, like Gecko) Version/4.0 Chrome/37.0.0.0 Mobile MQQBrowser/6.8 TBS/036864 Safari/537.36 MicroMessenger/6.3.27.880 NetType/WIFI Language/zh_CN'
p277
sg16
S'1f07c6d20bfc4e0081b1ea8218ba4c28'
p278
sa(dp279
g2
S'5229'
p280
sg4
S'3610'
p281
sg6
S'533b45ae3853088ffa0a5d1b2601cade'
p282
sg8
S'xx22902ce5a7b7d505afddd24fa646cd8a'
p283
sg10
S'xx39d378f51b72092d97bfc6eda90c14b6'
p284
sg12
S'xxd2f3224e8d64811106c9fbcf07713f6b'
p285
sg14
S'Mozilla/5.0 (Linux; Android 5.0; vivo Y35 Build/LRX21M) AppleWebKit/537.36 (KHTML, like Gecko) Version/4.0 Chrome/37.0.0.0 Mobile MQQBrowser/6.8 TBS/036864 Safari/537.36 MicroMessenger/6.3.27.880 NetType/WIFI Language/zh_CN'
p286
sg16
S'1f07c6d20bfc4e0081b1ea8218ba4c28'
p287
sa(dp288
g2
S'5229'
p289
sg4
S'3623'
p290
sg6
S'533b45ae3853088ffa0a5d1b2601cade'
p291
sg8
S'xx22902ce5a7b7d505afddd24fa646cd8a'
p292
sg10
S'xx39d378f51b72092d97bfc6eda90c14b6'
p293
sg12
S'xxd2f3224e8d64811106c9fbcf07713f6b'
p294
sg14
S'Mozilla/5.0 (Linux; Android 5.0; vivo Y35 Build/LRX21M) AppleWebKit/537.36 (KHTML, like Gecko) Version/4.0 Chrome/37.0.0.0 Mobile MQQBrowser/6.8 TBS/036864 Safari/537.36 MicroMessenger/6.3.27.880 NetType/WIFI Language/zh_CN'
p295
sg16
S'1f07c6d20bfc4e0081b1ea8218ba4c28'
p296
sa(dp297
g2
S'19781'
p298
sg4
S'3829'
p299
sg6
S'03f52a4f7e66c7ccc384ce91e7bd50e9'
p300
sg8
S'xxa522a61cc6ed22c35a887a14cef04f1d'
p301
sg10
S'xx39d378f51b72092d97bfc6eda90c14b6'
p302
sg12
S'xxd2f3224e8d64811106c9fbcf07713f6b'
p303
sg14
S'Mozilla/5.0 (Linux; Android 5.0; vivo Y35 Build/LRX21M) AppleWebKit/537.36 (KHTML, like Gecko) Version/4.0 Chrome/37.0.0.0 Mobile MQQBrowser/6.8 TBS/036824 Safari/537.36 MicroMessenger/6.3.25.861 NetType/WIFI Language/zh_CN'
p304
sg16
S'45a94f48fe0d5c1fa98e460235aa6515'
p305
sa(dp306
g2
S'19781'
p307
sg4
S'3852'
p308
sg6
S'03f52a4f7e66c7ccc384ce91e7bd50e9'
p309
sg8
S'xxa522a61cc6ed22c35a887a14cef04f1d'
p310
sg10
S'xx39d378f51b72092d97bfc6eda90c14b6'
p311
sg12
S'xxd2f3224e8d64811106c9fbcf07713f6b'
p312
sg14
S'Mozilla/5.0 (Linux; Android 5.0; vivo Y35 Build/LRX21M) AppleWebKit/537.36 (KHTML, like Gecko) Version/4.0 Chrome/37.0.0.0 Mobile MQQBrowser/6.8 TBS/036824 Safari/537.36 MicroMessenger/6.3.25.861 NetType/WIFI Language/zh_CN'
p313
sg16
S'45a94f48fe0d5c1fa98e460235aa6515'
p314
sa(dp315
g2
S'20255'
p316
sg4
S'3927'
p317
sg6
S'03f52a4f7e66c7ccc384ce91e7bd50e9'
p318
sg8
S'xx240abf9d6e7fe709f5ae74aaf75155e4'
p319
sg10
S'xx39d378f51b72092d97bfc6eda90c14b6'
p320
sg12
S'xxd2f3224e8d64811106c9fbcf07713f6b'
p321
sg14
S'Mozilla/5.0 (Linux; Android 5.0; vivo Y35 Build/LRX21M) AppleWebKit/537.36 (KHTML, like Gecko) Version/4.0 Chrome/37.0.0.0 Mobile MQQBrowser/6.8 TBS/036849 Safari/537.36 MicroMessenger/6.3.25.861 NetType/WIFI Language/zh_CN'
p322
sg16
S'07cbd24f3454fa5c04c99f8fb709162e'
p323
sa(dp324
g2
S'20255'
p325
sg4
S'3948'
p326
sg6
S'03f52a4f7e66c7ccc384ce91e7bd50e9'
p327
sg8
S'xx240abf9d6e7fe709f5ae74aaf75155e4'
p328
sg10
S'xx39d378f51b72092d97bfc6eda90c14b6'
p329
sg12
S'xxd2f3224e8d64811106c9fbcf07713f6b'
p330
sg14
S'Mozilla/5.0 (Linux; Android 5.0; vivo Y35 Build/LRX21M) AppleWebKit/537.36 (KHTML, like Gecko) Version/4.0 Chrome/37.0.0.0 Mobile MQQBrowser/6.8 TBS/036849 Safari/537.36 MicroMessenger/6.3.25.861 NetType/WIFI Language/zh_CN'
p331
sg16
S'07cbd24f3454fa5c04c99f8fb709162e'
p332
sa(dp333
g2
S'5229'
p334
sg4
S'4209'
p335
sg6
S'533b45ae3853088ffa0a5d1b2601cade'
p336
sg8
S'xx22902ce5a7b7d505afddd24fa646cd8a'
p337
sg10
S'xx39d378f51b72092d97bfc6eda90c14b6'
p338
sg12
S'xxd2f3224e8d64811106c9fbcf07713f6b'
p339
sg14
S'Mozilla/5.0 (Linux; Android 5.0; vivo Y35 Build/LRX21M) AppleWebKit/537.36 (KHTML, like Gecko) Version/4.0 Chrome/37.0.0.0 Mobile MQQBrowser/6.8 TBS/036864 Safari/537.36 MicroMessenger/6.3.27.880 NetType/WIFI Language/zh_CN'
p340
sg16
S'1f07c6d20bfc4e0081b1ea8218ba4c28'
p341
sa(dp342
g2
S'5229'
p343
sg4
S'4227'
p344
sg6
S'533b45ae3853088ffa0a5d1b2601cade'
p345
sg8
S'xx22902ce5a7b7d505afddd24fa646cd8a'
p346
sg10
S'xx39d378f51b72092d97bfc6eda90c14b6'
p347
sg12
S'xxd2f3224e8d64811106c9fbcf07713f6b'
p348
sg14
S'Mozilla/5.0 (Linux; Android 5.0; vivo Y35 Build/LRX21M) AppleWebKit/537.36 (KHTML, like Gecko) Version/4.0 Chrome/37.0.0.0 Mobile MQQBrowser/6.8 TBS/036864 Safari/537.36 MicroMessenger/6.3.27.880 NetType/WIFI Language/zh_CN'
p349
sg16
S'1f07c6d20bfc4e0081b1ea8218ba4c28'
p350
sa(dp351
g2
S'5229'
p352
sg4
S'4254'
p353
sg6
S'533b45ae3853088ffa0a5d1b2601cade'
p354
sg8
S'xx22902ce5a7b7d505afddd24fa646cd8a'
p355
sg10
S'xx39d378f51b72092d97bfc6eda90c14b6'
p356
sg12
S'xxd2f3224e8d64811106c9fbcf07713f6b'
p357
sg14
S'Mozilla/5.0 (Linux; Android 5.0; vivo Y35 Build/LRX21M) AppleWebKit/537.36 (KHTML, like Gecko) Version/4.0 Chrome/37.0.0.0 Mobile MQQBrowser/6.8 TBS/036864 Safari/537.36 MicroMessenger/6.3.27.880 NetType/WIFI Language/zh_CN'
p358
sg16
S'1f07c6d20bfc4e0081b1ea8218ba4c28'
p359
sa(dp360
g2
S'5229'
p361
sg4
S'4278'
p362
sg6
S'533b45ae3853088ffa0a5d1b2601cade'
p363
sg8
S'xx22902ce5a7b7d505afddd24fa646cd8a'
p364
sg10
S'xx39d378f51b72092d97bfc6eda90c14b6'
p365
sg12
S'xxd2f3224e8d64811106c9fbcf07713f6b'
p366
sg14
S'Mozilla/5.0 (Linux; Android 5.0; vivo Y35 Build/LRX21M) AppleWebKit/537.36 (KHTML, like Gecko) Version/4.0 Chrome/37.0.0.0 Mobile MQQBrowser/6.8 TBS/036864 Safari/537.36 MicroMessenger/6.3.27.880 NetType/WIFI Language/zh_CN'
p367
sg16
S'1f07c6d20bfc4e0081b1ea8218ba4c28'
p368
sa(dp369
g2
S'19781'
p370
sg4
S'4552'
p371
sg6
S'03f52a4f7e66c7ccc384ce91e7bd50e9'
p372
sg8
S'xxa522a61cc6ed22c35a887a14cef04f1d'
p373
sg10
S'xx39d378f51b72092d97bfc6eda90c14b6'
p374
sg12
S'xxd2f3224e8d64811106c9fbcf07713f6b'
p375
sg14
S'Mozilla/5.0 (Linux; Android 5.0; vivo Y35 Build/LRX21M) AppleWebKit/537.36 (KHTML, like Gecko) Version/4.0 Chrome/37.0.0.0 Mobile MQQBrowser/6.8 TBS/036824 Safari/537.36 MicroMessenger/6.3.25.861 NetType/WIFI Language/zh_CN'
p376
sg16
S'45a94f48fe0d5c1fa98e460235aa6515'
p377
sa(dp378
g2
S'19781'
p379
sg4
S'4575'
p380
sg6
S'03f52a4f7e66c7ccc384ce91e7bd50e9'
p381
sg8
S'xxa522a61cc6ed22c35a887a14cef04f1d'
p382
sg10
S'xx39d378f51b72092d97bfc6eda90c14b6'
p383
sg12
S'xxd2f3224e8d64811106c9fbcf07713f6b'
p384
sg14
S'Mozilla/5.0 (Linux; Android 5.0; vivo Y35 Build/LRX21M) AppleWebKit/537.36 (KHTML, like Gecko) Version/4.0 Chrome/37.0.0.0 Mobile MQQBrowser/6.8 TBS/036824 Safari/537.36 MicroMessenger/6.3.25.861 NetType/WIFI Language/zh_CN'
p385
sg16
S'45a94f48fe0d5c1fa98e460235aa6515'
p386
sa(dp387
g2
S'20255'
p388
sg4
S'4663'
p389
sg6
S'03f52a4f7e66c7ccc384ce91e7bd50e9'
p390
sg8
S'xx240abf9d6e7fe709f5ae74aaf75155e4'
p391
sg10
S'xx39d378f51b72092d97bfc6eda90c14b6'
p392
sg12
S'xxd2f3224e8d64811106c9fbcf07713f6b'
p393
sg14
S'Mozilla/5.0 (Linux; Android 5.0; vivo Y35 Build/LRX21M) AppleWebKit/537.36 (KHTML, like Gecko) Version/4.0 Chrome/37.0.0.0 Mobile MQQBrowser/6.8 TBS/036849 Safari/537.36 MicroMessenger/6.3.25.861 NetType/WIFI Language/zh_CN'
p394
sg16
S'07cbd24f3454fa5c04c99f8fb709162e'
p395
sa(dp396
g2
S'20255'
p397
sg4
S'4681'
p398
sg6
S'03f52a4f7e66c7ccc384ce91e7bd50e9'
p399
sg8
S'xx240abf9d6e7fe709f5ae74aaf75155e4'
p400
sg10
S'xx39d378f51b72092d97bfc6eda90c14b6'
p401
sg12
S'xxd2f3224e8d64811106c9fbcf07713f6b'
p402
sg14
S'Mozilla/5.0 (Linux; Android 5.0; vivo Y35 Build/LRX21M) AppleWebKit/537.36 (KHTML, like Gecko) Version/4.0 Chrome/37.0.0.0 Mobile MQQBrowser/6.8 TBS/036849 Safari/537.36 MicroMessenger/6.3.25.861 NetType/WIFI Language/zh_CN'
p403
sg16
S'07cbd24f3454fa5c04c99f8fb709162e'
p404
sa(dp405
g2
S'28982'
p406
sg4
S'4725'
p407
sg6
S'03058ff25b1b7f26625c3e6dad07f9c3'
p408
sg8
S'xxf29b2c6f581cf9b134c9bc4ebe5c83c1'
p409
sg10
S'xx39d378f51b72092d97bfc6eda90c14b6'
p410
sg12
S'xxd2f3224e8d64811106c9fbcf07713f6b'
p411
sg14
S'Mozilla/5.0 (Linux; Android 5.0; vivo Y35 Build/LRX21M) AppleWebKit/537.36 (KHTML, like Gecko) Version/4.0 Chrome/37.0.0.0 Mobile MQQBrowser/6.8 TBS/036869 Safari/537.36 MicroMessenger/6.3.27.880 NetType/WIFI Language/zh_CN'
p412
sg16
S'e1efaa0d59b06436070f3097d291cbe8'
p413
sa(dp414
g2
S'28982'
p415
sg4
S'4767'
p416
sg6
S'03058ff25b1b7f26625c3e6dad07f9c3'
p417
sg8
S'xxf29b2c6f581cf9b134c9bc4ebe5c83c1'
p418
sg10
S'xx39d378f51b72092d97bfc6eda90c14b6'
p419
sg12
S'xxd2f3224e8d64811106c9fbcf07713f6b'
p420
sg14
S'Mozilla/5.0 (Linux; Android 5.0; vivo Y35 Build/LRX21M) AppleWebKit/537.36 (KHTML, like Gecko) Version/4.0 Chrome/37.0.0.0 Mobile MQQBrowser/6.8 TBS/036869 Safari/537.36 MicroMessenger/6.3.27.880 NetType/WIFI Language/zh_CN'
p421
sg16
S'e1efaa0d59b06436070f3097d291cbe8'
p422
sa(dp423
g2
S'20255'
p424
sg4
S'5029'
p425
sg6
S'03f52a4f7e66c7ccc384ce91e7bd50e9'
p426
sg8
S'xx240abf9d6e7fe709f5ae74aaf75155e4'
p427
sg10
S'xx39d378f51b72092d97bfc6eda90c14b6'
p428
sg12
S'xxd2f3224e8d64811106c9fbcf07713f6b'
p429
sg14
S'Mozilla/5.0 (Linux; Android 5.0; vivo Y35 Build/LRX21M) AppleWebKit/537.36 (KHTML, like Gecko) Version/4.0 Chrome/37.0.0.0 Mobile MQQBrowser/6.8 TBS/036849 Safari/537.36 MicroMessenger/6.3.25.861 NetType/WIFI Language/zh_CN'
p430
sg16
S'07cbd24f3454fa5c04c99f8fb709162e'
p431
sa(dp432
g2
S'20255'
p433
sg4
S'5045'
p434
sg6
S'03f52a4f7e66c7ccc384ce91e7bd50e9'
p435
sg8
S'xx240abf9d6e7fe709f5ae74aaf75155e4'
p436
sg10
S'xx39d378f51b72092d97bfc6eda90c14b6'
p437
sg12
S'xxd2f3224e8d64811106c9fbcf07713f6b'
p438
sg14
S'Mozilla/5.0 (Linux; Android 5.0; vivo Y35 Build/LRX21M) AppleWebKit/537.36 (KHTML, like Gecko) Version/4.0 Chrome/37.0.0.0 Mobile MQQBrowser/6.8 TBS/036849 Safari/537.36 MicroMessenger/6.3.25.861 NetType/WIFI Language/zh_CN'
p439
sg16
S'07cbd24f3454fa5c04c99f8fb709162e'
p440
sa(dp441
g2
S'20255'
p442
sg4
S'5060'
p443
sg6
S'03f52a4f7e66c7ccc384ce91e7bd50e9'
p444
sg8
S'xx240abf9d6e7fe709f5ae74aaf75155e4'
p445
sg10
S'xx39d378f51b72092d97bfc6eda90c14b6'
p446
sg12
S'xxd2f3224e8d64811106c9fbcf07713f6b'
p447
sg14
S'Mozilla/5.0 (Linux; Android 5.0; vivo Y35 Build/LRX21M) AppleWebKit/537.36 (KHTML, like Gecko) Version/4.0 Chrome/37.0.0.0 Mobile MQQBrowser/6.8 TBS/036849 Safari/537.36 MicroMessenger/6.3.25.861 NetType/WIFI Language/zh_CN'
p448
sg16
S'07cbd24f3454fa5c04c99f8fb709162e'
p449
sa(dp450
g2
S'5229'
p451
sg4
S'5085'
p452
sg6
S'533b45ae3853088ffa0a5d1b2601cade'
p453
sg8
S'xx22902ce5a7b7d505afddd24fa646cd8a'
p454
sg10
S'xx39d378f51b72092d97bfc6eda90c14b6'
p455
sg12
S'xxd2f3224e8d64811106c9fbcf07713f6b'
p456
sg14
S'Mozilla/5.0 (Linux; Android 5.0; vivo Y35 Build/LRX21M) AppleWebKit/537.36 (KHTML, like Gecko) Version/4.0 Chrome/37.0.0.0 Mobile MQQBrowser/6.8 TBS/036864 Safari/537.36 MicroMessenger/6.3.27.880 NetType/WIFI Language/zh_CN'
p457
sg16
S'1f07c6d20bfc4e0081b1ea8218ba4c28'
p458
sa(dp459
g2
S'5229'
p460
sg4
S'5104'
p461
sg6
S'533b45ae3853088ffa0a5d1b2601cade'
p462
sg8
S'xx22902ce5a7b7d505afddd24fa646cd8a'
p463
sg10
S'xx39d378f51b72092d97bfc6eda90c14b6'
p464
sg12
S'xxd2f3224e8d64811106c9fbcf07713f6b'
p465
sg14
S'Mozilla/5.0 (Linux; Android 5.0; vivo Y35 Build/LRX21M) AppleWebKit/537.36 (KHTML, like Gecko) Version/4.0 Chrome/37.0.0.0 Mobile MQQBrowser/6.8 TBS/036864 Safari/537.36 MicroMessenger/6.3.27.880 NetType/WIFI Language/zh_CN'
p466
sg16
S'1f07c6d20bfc4e0081b1ea8218ba4c28'
p467
sa(dp468
g2
S'19781'
p469
sg4
S'5123'
p470
sg6
S'03f52a4f7e66c7ccc384ce91e7bd50e9'
p471
sg8
S'xxa522a61cc6ed22c35a887a14cef04f1d'
p472
sg10
S'xx39d378f51b72092d97bfc6eda90c14b6'
p473
sg12
S'xxd2f3224e8d64811106c9fbcf07713f6b'
p474
sg14
S'Mozilla/5.0 (Linux; Android 5.0; vivo Y35 Build/LRX21M) AppleWebKit/537.36 (KHTML, like Gecko) Version/4.0 Chrome/37.0.0.0 Mobile MQQBrowser/6.8 TBS/036824 Safari/537.36 MicroMessenger/6.3.25.861 NetType/WIFI Language/zh_CN'
p475
sg16
S'45a94f48fe0d5c1fa98e460235aa6515'
p476
sa(dp477
g2
S'19781'
p478
sg4
S'5138'
p479
sg6
S'03f52a4f7e66c7ccc384ce91e7bd50e9'
p480
sg8
S'xxa522a61cc6ed22c35a887a14cef04f1d'
p481
sg10
S'xx39d378f51b72092d97bfc6eda90c14b6'
p482
sg12
S'xxd2f3224e8d64811106c9fbcf07713f6b'
p483
sg14
S'Mozilla/5.0 (Linux; Android 5.0; vivo Y35 Build/LRX21M) AppleWebKit/537.36 (KHTML, like Gecko) Version/4.0 Chrome/37.0.0.0 Mobile MQQBrowser/6.8 TBS/036824 Safari/537.36 MicroMessenger/6.3.25.861 NetType/WIFI Language/zh_CN'
p484
sg16
S'45a94f48fe0d5c1fa98e460235aa6515'
p485
sa(dp486
g2
S'20255'
p487
sg4
S'5204'
p488
sg6
S'03f52a4f7e66c7ccc384ce91e7bd50e9'
p489
sg8
S'xx240abf9d6e7fe709f5ae74aaf75155e4'
p490
sg10
S'xx39d378f51b72092d97bfc6eda90c14b6'
p491
sg12
S'xxd2f3224e8d64811106c9fbcf07713f6b'
p492
sg14
S'Mozilla/5.0 (Linux; Android 5.0; vivo Y35 Build/LRX21M) AppleWebKit/537.36 (KHTML, like Gecko) Version/4.0 Chrome/37.0.0.0 Mobile MQQBrowser/6.8 TBS/036849 Safari/537.36 MicroMessenger/6.3.25.861 NetType/WIFI Language/zh_CN'
p493
sg16
S'07cbd24f3454fa5c04c99f8fb709162e'
p494
sa(dp495
g2
S'20255'
p496
sg4
S'5218'
p497
sg6
S'03f52a4f7e66c7ccc384ce91e7bd50e9'
p498
sg8
S'xx240abf9d6e7fe709f5ae74aaf75155e4'
p499
sg10
S'xx39d378f51b72092d97bfc6eda90c14b6'
p500
sg12
S'xxd2f3224e8d64811106c9fbcf07713f6b'
p501
sg14
S'Mozilla/5.0 (Linux; Android 5.0; vivo Y35 Build/LRX21M) AppleWebKit/537.36 (KHTML, like Gecko) Version/4.0 Chrome/37.0.0.0 Mobile MQQBrowser/6.8 TBS/036849 Safari/537.36 MicroMessenger/6.3.25.861 NetType/WIFI Language/zh_CN'
p502
sg16
S'07cbd24f3454fa5c04c99f8fb709162e'
p503
sa(dp504
g2
S'20255'
p505
sg4
S'5232'
p506
sg6
S'03f52a4f7e66c7ccc384ce91e7bd50e9'
p507
sg8
S'xx240abf9d6e7fe709f5ae74aaf75155e4'
p508
sg10
S'xx39d378f51b72092d97bfc6eda90c14b6'
p509
sg12
S'xxd2f3224e8d64811106c9fbcf07713f6b'
p510
sg14
S'Mozilla/5.0 (Linux; Android 5.0; vivo Y35 Build/LRX21M) AppleWebKit/537.36 (KHTML, like Gecko) Version/4.0 Chrome/37.0.0.0 Mobile MQQBrowser/6.8 TBS/036849 Safari/537.36 MicroMessenger/6.3.25.861 NetType/WIFI Language/zh_CN'
p511
sg16
S'07cbd24f3454fa5c04c99f8fb709162e'
p512
sa(dp513
g2
S'19781'
p514
sg4
S'5484'
p515
sg6
S'03f52a4f7e66c7ccc384ce91e7bd50e9'
p516
sg8
S'xxa522a61cc6ed22c35a887a14cef04f1d'
p517
sg10
S'xx39d378f51b72092d97bfc6eda90c14b6'
p518
sg12
S'xxd2f3224e8d64811106c9fbcf07713f6b'
p519
sg14
S'Mozilla/5.0 (Linux; Android 5.0; vivo Y35 Build/LRX21M) AppleWebKit/537.36 (KHTML, like Gecko) Version/4.0 Chrome/37.0.0.0 Mobile MQQBrowser/6.8 TBS/036824 Safari/537.36 MicroMessenger/6.3.25.861 NetType/WIFI Language/zh_CN'
p520
sg16
S'45a94f48fe0d5c1fa98e460235aa6515'
p521
sa(dp522
g2
S'19781'
p523
sg4
S'5504'
p524
sg6
S'03f52a4f7e66c7ccc384ce91e7bd50e9'
p525
sg8
S'xxa522a61cc6ed22c35a887a14cef04f1d'
p526
sg10
S'xx39d378f51b72092d97bfc6eda90c14b6'
p527
sg12
S'xxd2f3224e8d64811106c9fbcf07713f6b'
p528
sg14
S'Mozilla/5.0 (Linux; Android 5.0; vivo Y35 Build/LRX21M) AppleWebKit/537.36 (KHTML, like Gecko) Version/4.0 Chrome/37.0.0.0 Mobile MQQBrowser/6.8 TBS/036824 Safari/537.36 MicroMessenger/6.3.25.861 NetType/WIFI Language/zh_CN'
p529
sg16
S'45a94f48fe0d5c1fa98e460235aa6515'
p530
sa(dp531
g2
S'19781'
p532
sg4
S'5523'
p533
sg6
S'03f52a4f7e66c7ccc384ce91e7bd50e9'
p534
sg8
S'xxa522a61cc6ed22c35a887a14cef04f1d'
p535
sg10
S'xx39d378f51b72092d97bfc6eda90c14b6'
p536
sg12
S'xxd2f3224e8d64811106c9fbcf07713f6b'
p537
sg14
S'Mozilla/5.0 (Linux; Android 5.0; vivo Y35 Build/LRX21M) AppleWebKit/537.36 (KHTML, like Gecko) Version/4.0 Chrome/37.0.0.0 Mobile MQQBrowser/6.8 TBS/036824 Safari/537.36 MicroMessenger/6.3.25.861 NetType/WIFI Language/zh_CN'
p538
sg16
S'45a94f48fe0d5c1fa98e460235aa6515'
p539
sa(dp540
g2
S'19781'
p541
sg4
S'5541'
p542
sg6
S'03f52a4f7e66c7ccc384ce91e7bd50e9'
p543
sg8
S'xxa522a61cc6ed22c35a887a14cef04f1d'
p544
sg10
S'xx39d378f51b72092d97bfc6eda90c14b6'
p545
sg12
S'xxd2f3224e8d64811106c9fbcf07713f6b'
p546
sg14
S'Mozilla/5.0 (Linux; Android 5.0; vivo Y35 Build/LRX21M) AppleWebKit/537.36 (KHTML, like Gecko) Version/4.0 Chrome/37.0.0.0 Mobile MQQBrowser/6.8 TBS/036824 Safari/537.36 MicroMessenger/6.3.25.861 NetType/WIFI Language/zh_CN'
p547
sg16
S'45a94f48fe0d5c1fa98e460235aa6515'
p548
sa(dp549
g2
S'19781'
p550
sg4
S'5558'
p551
sg6
S'03f52a4f7e66c7ccc384ce91e7bd50e9'
p552
sg8
S'xxa522a61cc6ed22c35a887a14cef04f1d'
p553
sg10
S'xx39d378f51b72092d97bfc6eda90c14b6'
p554
sg12
S'xxd2f3224e8d64811106c9fbcf07713f6b'
p555
sg14
S'Mozilla/5.0 (Linux; Android 5.0; vivo Y35 Build/LRX21M) AppleWebKit/537.36 (KHTML, like Gecko) Version/4.0 Chrome/37.0.0.0 Mobile MQQBrowser/6.8 TBS/036824 Safari/537.36 MicroMessenger/6.3.25.861 NetType/WIFI Language/zh_CN'
p556
sg16
S'45a94f48fe0d5c1fa98e460235aa6515'
p557
sa(dp558
g2
S'19781'
p559
sg4
S'5638'
p560
sg6
S'03f52a4f7e66c7ccc384ce91e7bd50e9'
p561
sg8
S'xxa522a61cc6ed22c35a887a14cef04f1d'
p562
sg10
S'xx39d378f51b72092d97bfc6eda90c14b6'
p563
sg12
S'xxd2f3224e8d64811106c9fbcf07713f6b'
p564
sg14
S'Mozilla/5.0 (Linux; Android 5.0; vivo Y35 Build/LRX21M) AppleWebKit/537.36 (KHTML, like Gecko) Version/4.0 Chrome/37.0.0.0 Mobile MQQBrowser/6.8 TBS/036824 Safari/537.36 MicroMessenger/6.3.25.861 NetType/WIFI Language/zh_CN'
p565
sg16
S'45a94f48fe0d5c1fa98e460235aa6515'
p566
sa(dp567
g2
S'19781'
p568
sg4
S'5653'
p569
sg6
S'03f52a4f7e66c7ccc384ce91e7bd50e9'
p570
sg8
S'xxa522a61cc6ed22c35a887a14cef04f1d'
p571
sg10
S'xx39d378f51b72092d97bfc6eda90c14b6'
p572
sg12
S'xxd2f3224e8d64811106c9fbcf07713f6b'
p573
sg14
S'Mozilla/5.0 (Linux; Android 5.0; vivo Y35 Build/LRX21M) AppleWebKit/537.36 (KHTML, like Gecko) Version/4.0 Chrome/37.0.0.0 Mobile MQQBrowser/6.8 TBS/036824 Safari/537.36 MicroMessenger/6.3.25.861 NetType/WIFI Language/zh_CN'
p574
sg16
S'45a94f48fe0d5c1fa98e460235aa6515'
p575
sa(dp576
g2
S'20255'
p577
sg4
S'5748'
p578
sg6
S'03f52a4f7e66c7ccc384ce91e7bd50e9'
p579
sg8
S'xx240abf9d6e7fe709f5ae74aaf75155e4'
p580
sg10
S'xx39d378f51b72092d97bfc6eda90c14b6'
p581
sg12
S'xxd2f3224e8d64811106c9fbcf07713f6b'
p582
sg14
S'Mozilla/5.0 (Linux; Android 5.0; vivo Y35 Build/LRX21M) AppleWebKit/537.36 (KHTML, like Gecko) Version/4.0 Chrome/37.0.0.0 Mobile MQQBrowser/6.8 TBS/036849 Safari/537.36 MicroMessenger/6.3.25.861 NetType/WIFI Language/zh_CN'
p583
sg16
S'07cbd24f3454fa5c04c99f8fb709162e'
p584
sa(dp585
g2
S'20255'
p586
sg4
S'5769'
p587
sg6
S'03f52a4f7e66c7ccc384ce91e7bd50e9'
p588
sg8
S'xx240abf9d6e7fe709f5ae74aaf75155e4'
p589
sg10
S'xx39d378f51b72092d97bfc6eda90c14b6'
p590
sg12
S'xxd2f3224e8d64811106c9fbcf07713f6b'
p591
sg14
S'Mozilla/5.0 (Linux; Android 5.0; vivo Y35 Build/LRX21M) AppleWebKit/537.36 (KHTML, like Gecko) Version/4.0 Chrome/37.0.0.0 Mobile MQQBrowser/6.8 TBS/036849 Safari/537.36 MicroMessenger/6.3.25.861 NetType/WIFI Language/zh_CN'
p592
sg16
S'07cbd24f3454fa5c04c99f8fb709162e'
p593
sa(dp594
g2
S'5229'
p595
sg4
S'5971'
p596
sg6
S'533b45ae3853088ffa0a5d1b2601cade'
p597
sg8
S'xx22902ce5a7b7d505afddd24fa646cd8a'
p598
sg10
S'xx39d378f51b72092d97bfc6eda90c14b6'
p599
sg12
S'xxd2f3224e8d64811106c9fbcf07713f6b'
p600
sg14
S'Mozilla/5.0 (Linux; Android 5.0; vivo Y35 Build/LRX21M) AppleWebKit/537.36 (KHTML, like Gecko) Version/4.0 Chrome/37.0.0.0 Mobile MQQBrowser/6.8 TBS/036864 Safari/537.36 MicroMessenger/6.3.27.880 NetType/WIFI Language/zh_CN'
p601
sg16
S'1f07c6d20bfc4e0081b1ea8218ba4c28'
p602
sa(dp603
g2
S'19781'
p604
sg4
S'6104'
p605
sg6
S'03f52a4f7e66c7ccc384ce91e7bd50e9'
p606
sg8
S'xxa522a61cc6ed22c35a887a14cef04f1d'
p607
sg10
S'xx39d378f51b72092d97bfc6eda90c14b6'
p608
sg12
S'xxd2f3224e8d64811106c9fbcf07713f6b'
p609
sg14
S'Mozilla/5.0 (Linux; Android 5.0; vivo Y35 Build/LRX21M) AppleWebKit/537.36 (KHTML, like Gecko) Version/4.0 Chrome/37.0.0.0 Mobile MQQBrowser/6.8 TBS/036824 Safari/537.36 MicroMessenger/6.3.25.861 NetType/WIFI Language/zh_CN'
p610
sg16
S'45a94f48fe0d5c1fa98e460235aa6515'
p611
sa(dp612
g2
S'19781'
p613
sg4
S'6119'
p614
sg6
S'03f52a4f7e66c7ccc384ce91e7bd50e9'
p615
sg8
S'xxa522a61cc6ed22c35a887a14cef04f1d'
p616
sg10
S'xx39d378f51b72092d97bfc6eda90c14b6'
p617
sg12
S'xxd2f3224e8d64811106c9fbcf07713f6b'
p618
sg14
S'Mozilla/5.0 (Linux; Android 5.0; vivo Y35 Build/LRX21M) AppleWebKit/537.36 (KHTML, like Gecko) Version/4.0 Chrome/37.0.0.0 Mobile MQQBrowser/6.8 TBS/036824 Safari/537.36 MicroMessenger/6.3.25.861 NetType/WIFI Language/zh_CN'
p619
sg16
S'45a94f48fe0d5c1fa98e460235aa6515'
p620
sa(dp621
g2
S'19781'
p622
sg4
S'6136'
p623
sg6
S'03f52a4f7e66c7ccc384ce91e7bd50e9'
p624
sg8
S'xxa522a61cc6ed22c35a887a14cef04f1d'
p625
sg10
S'xx39d378f51b72092d97bfc6eda90c14b6'
p626
sg12
S'xxd2f3224e8d64811106c9fbcf07713f6b'
p627
sg14
S'Mozilla/5.0 (Linux; Android 5.0; vivo Y35 Build/LRX21M) AppleWebKit/537.36 (KHTML, like Gecko) Version/4.0 Chrome/37.0.0.0 Mobile MQQBrowser/6.8 TBS/036824 Safari/537.36 MicroMessenger/6.3.25.861 NetType/WIFI Language/zh_CN'
p628
sg16
S'45a94f48fe0d5c1fa98e460235aa6515'
p629
sa(dp630
g2
S'19781'
p631
sg4
S'6149'
p632
sg6
S'03f52a4f7e66c7ccc384ce91e7bd50e9'
p633
sg8
S'xxa522a61cc6ed22c35a887a14cef04f1d'
p634
sg10
S'xx39d378f51b72092d97bfc6eda90c14b6'
p635
sg12
S'xxd2f3224e8d64811106c9fbcf07713f6b'
p636
sg14
S'Mozilla/5.0 (Linux; Android 5.0; vivo Y35 Build/LRX21M) AppleWebKit/537.36 (KHTML, like Gecko) Version/4.0 Chrome/37.0.0.0 Mobile MQQBrowser/6.8 TBS/036824 Safari/537.36 MicroMessenger/6.3.25.861 NetType/WIFI Language/zh_CN'
p637
sg16
S'45a94f48fe0d5c1fa98e460235aa6515'
p638
sa(dp639
g2
S'19781'
p640
sg4
S'6170'
p641
sg6
S'03f52a4f7e66c7ccc384ce91e7bd50e9'
p642
sg8
S'xxa522a61cc6ed22c35a887a14cef04f1d'
p643
sg10
S'xx39d378f51b72092d97bfc6eda90c14b6'
p644
sg12
S'xxd2f3224e8d64811106c9fbcf07713f6b'
p645
sg14
S'Mozilla/5.0 (Linux; Android 5.0; vivo Y35 Build/LRX21M) AppleWebKit/537.36 (KHTML, like Gecko) Version/4.0 Chrome/37.0.0.0 Mobile MQQBrowser/6.8 TBS/036824 Safari/537.36 MicroMessenger/6.3.25.861 NetType/WIFI Language/zh_CN'
p646
sg16
S'45a94f48fe0d5c1fa98e460235aa6515'
p647
sa(dp648
g2
S'19781'
p649
sg4
S'6186'
p650
sg6
S'03f52a4f7e66c7ccc384ce91e7bd50e9'
p651
sg8
S'xxa522a61cc6ed22c35a887a14cef04f1d'
p652
sg10
S'xx39d378f51b72092d97bfc6eda90c14b6'
p653
sg12
S'xxd2f3224e8d64811106c9fbcf07713f6b'
p654
sg14
S'Mozilla/5.0 (Linux; Android 5.0; vivo Y35 Build/LRX21M) AppleWebKit/537.36 (KHTML, like Gecko) Version/4.0 Chrome/37.0.0.0 Mobile MQQBrowser/6.8 TBS/036824 Safari/537.36 MicroMessenger/6.3.25.861 NetType/WIFI Language/zh_CN'
p655
sg16
S'45a94f48fe0d5c1fa98e460235aa6515'
p656
sa(dp657
g2
S'19781'
p658
sg4
S'6200'
p659
sg6
S'03f52a4f7e66c7ccc384ce91e7bd50e9'
p660
sg8
S'xxa522a61cc6ed22c35a887a14cef04f1d'
p661
sg10
S'xx39d378f51b72092d97bfc6eda90c14b6'
p662
sg12
S'xxd2f3224e8d64811106c9fbcf07713f6b'
p663
sg14
S'Mozilla/5.0 (Linux; Android 5.0; vivo Y35 Build/LRX21M) AppleWebKit/537.36 (KHTML, like Gecko) Version/4.0 Chrome/37.0.0.0 Mobile MQQBrowser/6.8 TBS/036824 Safari/537.36 MicroMessenger/6.3.25.861 NetType/WIFI Language/zh_CN'
p664
sg16
S'45a94f48fe0d5c1fa98e460235aa6515'
p665
sa(dp666
g2
S'19781'
p667
sg4
S'6215'
p668
sg6
S'03f52a4f7e66c7ccc384ce91e7bd50e9'
p669
sg8
S'xxa522a61cc6ed22c35a887a14cef04f1d'
p670
sg10
S'xx39d378f51b72092d97bfc6eda90c14b6'
p671
sg12
S'xxd2f3224e8d64811106c9fbcf07713f6b'
p672
sg14
S'Mozilla/5.0 (Linux; Android 5.0; vivo Y35 Build/LRX21M) AppleWebKit/537.36 (KHTML, like Gecko) Version/4.0 Chrome/37.0.0.0 Mobile MQQBrowser/6.8 TBS/036824 Safari/537.36 MicroMessenger/6.3.25.861 NetType/WIFI Language/zh_CN'
p673
sg16
S'45a94f48fe0d5c1fa98e460235aa6515'
p674
sa(dp675
g2
S'20255'
p676
sg4
S'6279'
p677
sg6
S'03f52a4f7e66c7ccc384ce91e7bd50e9'
p678
sg8
S'xx240abf9d6e7fe709f5ae74aaf75155e4'
p679
sg10
S'xx39d378f51b72092d97bfc6eda90c14b6'
p680
sg12
S'xxd2f3224e8d64811106c9fbcf07713f6b'
p681
sg14
S'Mozilla/5.0 (Linux; Android 5.0; vivo Y35 Build/LRX21M) AppleWebKit/537.36 (KHTML, like Gecko) Version/4.0 Chrome/37.0.0.0 Mobile MQQBrowser/6.8 TBS/036849 Safari/537.36 MicroMessenger/6.3.25.861 NetType/WIFI Language/zh_CN'
p682
sg16
S'07cbd24f3454fa5c04c99f8fb709162e'
p683
sa(dp684
g2
S'20255'
p685
sg4
S'6289'
p686
sg6
S'03f52a4f7e66c7ccc384ce91e7bd50e9'
p687
sg8
S'xx240abf9d6e7fe709f5ae74aaf75155e4'
p688
sg10
S'xx39d378f51b72092d97bfc6eda90c14b6'
p689
sg12
S'xxd2f3224e8d64811106c9fbcf07713f6b'
p690
sg14
S'Mozilla/5.0 (Linux; Android 5.0; vivo Y35 Build/LRX21M) AppleWebKit/537.36 (KHTML, like Gecko) Version/4.0 Chrome/37.0.0.0 Mobile MQQBrowser/6.8 TBS/036849 Safari/537.36 MicroMessenger/6.3.25.861 NetType/WIFI Language/zh_CN'
p691
sg16
S'07cbd24f3454fa5c04c99f8fb709162e'
p692
sa(dp693
g2
S'20255'
p694
sg4
S'6303'
p695
sg6
S'03f52a4f7e66c7ccc384ce91e7bd50e9'
p696
sg8
S'xx240abf9d6e7fe709f5ae74aaf75155e4'
p697
sg10
S'xx39d378f51b72092d97bfc6eda90c14b6'
p698
sg12
S'xxd2f3224e8d64811106c9fbcf07713f6b'
p699
sg14
S'Mozilla/5.0 (Linux; Android 5.0; vivo Y35 Build/LRX21M) AppleWebKit/537.36 (KHTML, like Gecko) Version/4.0 Chrome/37.0.0.0 Mobile MQQBrowser/6.8 TBS/036849 Safari/537.36 MicroMessenger/6.3.25.861 NetType/WIFI Language/zh_CN'
p700
sg16
S'07cbd24f3454fa5c04c99f8fb709162e'
p701
sa(dp702
g2
S'19781'
p703
sg4
S'6560'
p704
sg6
S'03f52a4f7e66c7ccc384ce91e7bd50e9'
p705
sg8
S'xxa522a61cc6ed22c35a887a14cef04f1d'
p706
sg10
S'xx39d378f51b72092d97bfc6eda90c14b6'
p707
sg12
S'xxd2f3224e8d64811106c9fbcf07713f6b'
p708
sg14
S'Mozilla/5.0 (Linux; Android 5.0; vivo Y35 Build/LRX21M) AppleWebKit/537.36 (KHTML, like Gecko) Version/4.0 Chrome/37.0.0.0 Mobile MQQBrowser/6.8 TBS/036824 Safari/537.36 MicroMessenger/6.3.25.861 NetType/WIFI Language/zh_CN'
p709
sg16
S'45a94f48fe0d5c1fa98e460235aa6515'
p710
sa(dp711
g2
S'19781'
p712
sg4
S'6575'
p713
sg6
S'03f52a4f7e66c7ccc384ce91e7bd50e9'
p714
sg8
S'xxa522a61cc6ed22c35a887a14cef04f1d'
p715
sg10
S'xx39d378f51b72092d97bfc6eda90c14b6'
p716
sg12
S'xxd2f3224e8d64811106c9fbcf07713f6b'
p717
sg14
S'Mozilla/5.0 (Linux; Android 5.0; vivo Y35 Build/LRX21M) AppleWebKit/537.36 (KHTML, like Gecko) Version/4.0 Chrome/37.0.0.0 Mobile MQQBrowser/6.8 TBS/036824 Safari/537.36 MicroMessenger/6.3.25.861 NetType/WIFI Language/zh_CN'
p718
sg16
S'45a94f48fe0d5c1fa98e460235aa6515'
p719
sa(dp720
g2
S'19781'
p721
sg4
S'6599'
p722
sg6
S'03f52a4f7e66c7ccc384ce91e7bd50e9'
p723
sg8
S'xxa522a61cc6ed22c35a887a14cef04f1d'
p724
sg10
S'xx39d378f51b72092d97bfc6eda90c14b6'
p725
sg12
S'xxd2f3224e8d64811106c9fbcf07713f6b'
p726
sg14
S'Mozilla/5.0 (Linux; Android 5.0; vivo Y35 Build/LRX21M) AppleWebKit/537.36 (KHTML, like Gecko) Version/4.0 Chrome/37.0.0.0 Mobile MQQBrowser/6.8 TBS/036824 Safari/537.36 MicroMessenger/6.3.25.861 NetType/WIFI Language/zh_CN'
p727
sg16
S'45a94f48fe0d5c1fa98e460235aa6515'
p728
sa(dp729
g2
S'19781'
p730
sg4
S'6615'
p731
sg6
S'03f52a4f7e66c7ccc384ce91e7bd50e9'
p732
sg8
S'xxa522a61cc6ed22c35a887a14cef04f1d'
p733
sg10
S'xx39d378f51b72092d97bfc6eda90c14b6'
p734
sg12
S'xxd2f3224e8d64811106c9fbcf07713f6b'
p735
sg14
S'Mozilla/5.0 (Linux; Android 5.0; vivo Y35 Build/LRX21M) AppleWebKit/537.36 (KHTML, like Gecko) Version/4.0 Chrome/37.0.0.0 Mobile MQQBrowser/6.8 TBS/036824 Safari/537.36 MicroMessenger/6.3.25.861 NetType/WIFI Language/zh_CN'
p736
sg16
S'45a94f48fe0d5c1fa98e460235aa6515'
p737
sa(dp738
g2
S'19781'
p739
sg4
S'6631'
p740
sg6
S'03f52a4f7e66c7ccc384ce91e7bd50e9'
p741
sg8
S'xxa522a61cc6ed22c35a887a14cef04f1d'
p742
sg10
S'xx39d378f51b72092d97bfc6eda90c14b6'
p743
sg12
S'xxd2f3224e8d64811106c9fbcf07713f6b'
p744
sg14
S'Mozilla/5.0 (Linux; Android 5.0; vivo Y35 Build/LRX21M) AppleWebKit/537.36 (KHTML, like Gecko) Version/4.0 Chrome/37.0.0.0 Mobile MQQBrowser/6.8 TBS/036824 Safari/537.36 MicroMessenger/6.3.25.861 NetType/WIFI Language/zh_CN'
p745
sg16
S'45a94f48fe0d5c1fa98e460235aa6515'
p746
sa(dp747
g2
S'19781'
p748
sg4
S'6646'
p749
sg6
S'03f52a4f7e66c7ccc384ce91e7bd50e9'
p750
sg8
S'xxa522a61cc6ed22c35a887a14cef04f1d'
p751
sg10
S'xx39d378f51b72092d97bfc6eda90c14b6'
p752
sg12
S'xxd2f3224e8d64811106c9fbcf07713f6b'
p753
sg14
S'Mozilla/5.0 (Linux; Android 5.0; vivo Y35 Build/LRX21M) AppleWebKit/537.36 (KHTML, like Gecko) Version/4.0 Chrome/37.0.0.0 Mobile MQQBrowser/6.8 TBS/036824 Safari/537.36 MicroMessenger/6.3.25.861 NetType/WIFI Language/zh_CN'
p754
sg16
S'45a94f48fe0d5c1fa98e460235aa6515'
p755
sa(dp756
g2
S'19781'
p757
sg4
S'6668'
p758
sg6
S'03f52a4f7e66c7ccc384ce91e7bd50e9'
p759
sg8
S'xxa522a61cc6ed22c35a887a14cef04f1d'
p760
sg10
S'xx39d378f51b72092d97bfc6eda90c14b6'
p761
sg12
S'xxd2f3224e8d64811106c9fbcf07713f6b'
p762
sg14
S'Mozilla/5.0 (Linux; Android 5.0; vivo Y35 Build/LRX21M) AppleWebKit/537.36 (KHTML, like Gecko) Version/4.0 Chrome/37.0.0.0 Mobile MQQBrowser/6.8 TBS/036824 Safari/537.36 MicroMessenger/6.3.25.861 NetType/WIFI Language/zh_CN'
p763
sg16
S'45a94f48fe0d5c1fa98e460235aa6515'
p764
sa(dp765
g2
S'19781'
p766
sg4
S'6686'
p767
sg6
S'03f52a4f7e66c7ccc384ce91e7bd50e9'
p768
sg8
S'xxa522a61cc6ed22c35a887a14cef04f1d'
p769
sg10
S'xx39d378f51b72092d97bfc6eda90c14b6'
p770
sg12
S'xxd2f3224e8d64811106c9fbcf07713f6b'
p771
sg14
S'Mozilla/5.0 (Linux; Android 5.0; vivo Y35 Build/LRX21M) AppleWebKit/537.36 (KHTML, like Gecko) Version/4.0 Chrome/37.0.0.0 Mobile MQQBrowser/6.8 TBS/036824 Safari/537.36 MicroMessenger/6.3.25.861 NetType/WIFI Language/zh_CN'
p772
sg16
S'45a94f48fe0d5c1fa98e460235aa6515'
p773
sa(dp774
g2
S'19781'
p775
sg4
S'6709'
p776
sg6
S'03f52a4f7e66c7ccc384ce91e7bd50e9'
p777
sg8
S'xxa522a61cc6ed22c35a887a14cef04f1d'
p778
sg10
S'xx39d378f51b72092d97bfc6eda90c14b6'
p779
sg12
S'xxd2f3224e8d64811106c9fbcf07713f6b'
p780
sg14
S'Mozilla/5.0 (Linux; Android 5.0; vivo Y35 Build/LRX21M) AppleWebKit/537.36 (KHTML, like Gecko) Version/4.0 Chrome/37.0.0.0 Mobile MQQBrowser/6.8 TBS/036824 Safari/537.36 MicroMessenger/6.3.25.861 NetType/WIFI Language/zh_CN'
p781
sg16
S'45a94f48fe0d5c1fa98e460235aa6515'
p782
sa(dp783
g2
S'19781'
p784
sg4
S'6730'
p785
sg6
S'03f52a4f7e66c7ccc384ce91e7bd50e9'
p786
sg8
S'xxa522a61cc6ed22c35a887a14cef04f1d'
p787
sg10
S'xx39d378f51b72092d97bfc6eda90c14b6'
p788
sg12
S'xxd2f3224e8d64811106c9fbcf07713f6b'
p789
sg14
S'Mozilla/5.0 (Linux; Android 5.0; vivo Y35 Build/LRX21M) AppleWebKit/537.36 (KHTML, like Gecko) Version/4.0 Chrome/37.0.0.0 Mobile MQQBrowser/6.8 TBS/036824 Safari/537.36 MicroMessenger/6.3.25.861 NetType/WIFI Language/zh_CN'
p790
sg16
S'45a94f48fe0d5c1fa98e460235aa6515'
p791
sa(dp792
g2
S'19781'
p793
sg4
S'6738'
p794
sg6
S'03f52a4f7e66c7ccc384ce91e7bd50e9'
p795
sg8
S'xxa522a61cc6ed22c35a887a14cef04f1d'
p796
sg10
S'xx39d378f51b72092d97bfc6eda90c14b6'
p797
sg12
S'xxd2f3224e8d64811106c9fbcf07713f6b'
p798
sg14
S'Mozilla/5.0 (Linux; Android 5.0; vivo Y35 Build/LRX21M) AppleWebKit/537.36 (KHTML, like Gecko) Version/4.0 Chrome/37.0.0.0 Mobile MQQBrowser/6.8 TBS/036824 Safari/537.36 MicroMessenger/6.3.25.861 NetType/WIFI Language/zh_CN'
p799
sg16
S'45a94f48fe0d5c1fa98e460235aa6515'
p800
sa(dp801
g2
S'19781'
p802
sg4
S'6757'
p803
sg6
S'03f52a4f7e66c7ccc384ce91e7bd50e9'
p804
sg8
S'xxa522a61cc6ed22c35a887a14cef04f1d'
p805
sg10
S'xx39d378f51b72092d97bfc6eda90c14b6'
p806
sg12
S'xxd2f3224e8d64811106c9fbcf07713f6b'
p807
sg14
S'Mozilla/5.0 (Linux; Android 5.0; vivo Y35 Build/LRX21M) AppleWebKit/537.36 (KHTML, like Gecko) Version/4.0 Chrome/37.0.0.0 Mobile MQQBrowser/6.8 TBS/036824 Safari/537.36 MicroMessenger/6.3.25.861 NetType/WIFI Language/zh_CN'
p808
sg16
S'45a94f48fe0d5c1fa98e460235aa6515'
p809
sa(dp810
g2
S'19781'
p811
sg4
S'6770'
p812
sg6
S'03f52a4f7e66c7ccc384ce91e7bd50e9'
p813
sg8
S'xxa522a61cc6ed22c35a887a14cef04f1d'
p814
sg10
S'xx39d378f51b72092d97bfc6eda90c14b6'
p815
sg12
S'xxd2f3224e8d64811106c9fbcf07713f6b'
p816
sg14
S'Mozilla/5.0 (Linux; Android 5.0; vivo Y35 Build/LRX21M) AppleWebKit/537.36 (KHTML, like Gecko) Version/4.0 Chrome/37.0.0.0 Mobile MQQBrowser/6.8 TBS/036824 Safari/537.36 MicroMessenger/6.3.25.861 NetType/WIFI Language/zh_CN'
p817
sg16
S'45a94f48fe0d5c1fa98e460235aa6515'
p818
sa(dp819
g2
S'19781'
p820
sg4
S'6789'
p821
sg6
S'03f52a4f7e66c7ccc384ce91e7bd50e9'
p822
sg8
S'xxa522a61cc6ed22c35a887a14cef04f1d'
p823
sg10
S'xx39d378f51b72092d97bfc6eda90c14b6'
p824
sg12
S'xxd2f3224e8d64811106c9fbcf07713f6b'
p825
sg14
S'Mozilla/5.0 (Linux; Android 5.0; vivo Y35 Build/LRX21M) AppleWebKit/537.36 (KHTML, like Gecko) Version/4.0 Chrome/37.0.0.0 Mobile MQQBrowser/6.8 TBS/036824 Safari/537.36 MicroMessenger/6.3.25.861 NetType/WIFI Language/zh_CN'
p826
sg16
S'45a94f48fe0d5c1fa98e460235aa6515'
p827
sa(dp828
g2
S'19781'
p829
sg4
S'6807'
p830
sg6
S'03f52a4f7e66c7ccc384ce91e7bd50e9'
p831
sg8
S'xxa522a61cc6ed22c35a887a14cef04f1d'
p832
sg10
S'xx39d378f51b72092d97bfc6eda90c14b6'
p833
sg12
S'xxd2f3224e8d64811106c9fbcf07713f6b'
p834
sg14
S'Mozilla/5.0 (Linux; Android 5.0; vivo Y35 Build/LRX21M) AppleWebKit/537.36 (KHTML, like Gecko) Version/4.0 Chrome/37.0.0.0 Mobile MQQBrowser/6.8 TBS/036824 Safari/537.36 MicroMessenger/6.3.25.861 NetType/WIFI Language/zh_CN'
p835
sg16
S'45a94f48fe0d5c1fa98e460235aa6515'
p836
sa(dp837
g2
S'19781'
p838
sg4
S'6816'
p839
sg6
S'03f52a4f7e66c7ccc384ce91e7bd50e9'
p840
sg8
S'xxa522a61cc6ed22c35a887a14cef04f1d'
p841
sg10
S'xx39d378f51b72092d97bfc6eda90c14b6'
p842
sg12
S'xxd2f3224e8d64811106c9fbcf07713f6b'
p843
sg14
S'Mozilla/5.0 (Linux; Android 5.0; vivo Y35 Build/LRX21M) AppleWebKit/537.36 (KHTML, like Gecko) Version/4.0 Chrome/37.0.0.0 Mobile MQQBrowser/6.8 TBS/036824 Safari/537.36 MicroMessenger/6.3.25.861 NetType/WIFI Language/zh_CN'
p844
sg16
S'45a94f48fe0d5c1fa98e460235aa6515'
p845
sa(dp846
g2
S'20255'
p847
sg4
S'6902'
p848
sg6
S'03f52a4f7e66c7ccc384ce91e7bd50e9'
p849
sg8
S'xx240abf9d6e7fe709f5ae74aaf75155e4'
p850
sg10
S'xx39d378f51b72092d97bfc6eda90c14b6'
p851
sg12
S'xxd2f3224e8d64811106c9fbcf07713f6b'
p852
sg14
S'Mozilla/5.0 (Linux; Android 5.0; vivo Y35 Build/LRX21M) AppleWebKit/537.36 (KHTML, like Gecko) Version/4.0 Chrome/37.0.0.0 Mobile MQQBrowser/6.8 TBS/036849 Safari/537.36 MicroMessenger/6.3.25.861 NetType/WIFI Language/zh_CN'
p853
sg16
S'07cbd24f3454fa5c04c99f8fb709162e'
p854
sa(dp855
g2
S'20255'
p856
sg4
S'6920'
p857
sg6
S'03f52a4f7e66c7ccc384ce91e7bd50e9'
p858
sg8
S'xx240abf9d6e7fe709f5ae74aaf75155e4'
p859
sg10
S'xx39d378f51b72092d97bfc6eda90c14b6'
p860
sg12
S'xxd2f3224e8d64811106c9fbcf07713f6b'
p861
sg14
S'Mozilla/5.0 (Linux; Android 5.0; vivo Y35 Build/LRX21M) AppleWebKit/537.36 (KHTML, like Gecko) Version/4.0 Chrome/37.0.0.0 Mobile MQQBrowser/6.8 TBS/036849 Safari/537.36 MicroMessenger/6.3.25.861 NetType/WIFI Language/zh_CN'
p862
sg16
S'07cbd24f3454fa5c04c99f8fb709162e'
p863
sa(dp864
g2
S'19781'
p865
sg4
S'7015'
p866
sg6
S'03f52a4f7e66c7ccc384ce91e7bd50e9'
p867
sg8
S'xxa522a61cc6ed22c35a887a14cef04f1d'
p868
sg10
S'xx39d378f51b72092d97bfc6eda90c14b6'
p869
sg12
S'xxd2f3224e8d64811106c9fbcf07713f6b'
p870
sg14
S'Mozilla/5.0 (Linux; Android 5.0; vivo Y35 Build/LRX21M) AppleWebKit/537.36 (KHTML, like Gecko) Version/4.0 Chrome/37.0.0.0 Mobile MQQBrowser/6.8 TBS/036824 Safari/537.36 MicroMessenger/6.3.25.861 NetType/WIFI Language/zh_CN'
p871
sg16
S'45a94f48fe0d5c1fa98e460235aa6515'
p872
sa(dp873
g2
S'19781'
p874
sg4
S'7508'
p875
sg6
S'03f52a4f7e66c7ccc384ce91e7bd50e9'
p876
sg8
S'xxa522a61cc6ed22c35a887a14cef04f1d'
p877
sg10
S'xx39d378f51b72092d97bfc6eda90c14b6'
p878
sg12
S'xxd2f3224e8d64811106c9fbcf07713f6b'
p879
sg14
S'Mozilla/5.0 (Linux; Android 5.0; vivo Y35 Build/LRX21M) AppleWebKit/537.36 (KHTML, like Gecko) Version/4.0 Chrome/37.0.0.0 Mobile MQQBrowser/6.8 TBS/036824 Safari/537.36 MicroMessenger/6.3.25.861 NetType/WIFI Language/zh_CN'
p880
sg16
S'45a94f48fe0d5c1fa98e460235aa6515'
p881
sa(dp882
g2
S'19781'
p883
sg4
S'7520'
p884
sg6
S'03f52a4f7e66c7ccc384ce91e7bd50e9'
p885
sg8
S'xxa522a61cc6ed22c35a887a14cef04f1d'
p886
sg10
S'xx39d378f51b72092d97bfc6eda90c14b6'
p887
sg12
S'xxd2f3224e8d64811106c9fbcf07713f6b'
p888
sg14
S'Mozilla/5.0 (Linux; Android 5.0; vivo Y35 Build/LRX21M) AppleWebKit/537.36 (KHTML, like Gecko) Version/4.0 Chrome/37.0.0.0 Mobile MQQBrowser/6.8 TBS/036824 Safari/537.36 MicroMessenger/6.3.25.861 NetType/WIFI Language/zh_CN'
p889
sg16
S'45a94f48fe0d5c1fa98e460235aa6515'
p890
sa(dp891
g2
S'20255'
p892
sg4
S'7570'
p893
sg6
S'03f52a4f7e66c7ccc384ce91e7bd50e9'
p894
sg8
S'xx240abf9d6e7fe709f5ae74aaf75155e4'
p895
sg10
S'xx39d378f51b72092d97bfc6eda90c14b6'
p896
sg12
S'xxd2f3224e8d64811106c9fbcf07713f6b'
p897
sg14
S'Mozilla/5.0 (Linux; Android 5.0; vivo Y35 Build/LRX21M) AppleWebKit/537.36 (KHTML, like Gecko) Version/4.0 Chrome/37.0.0.0 Mobile MQQBrowser/6.8 TBS/036849 Safari/537.36 MicroMessenger/6.3.25.861 NetType/WIFI Language/zh_CN'
p898
sg16
S'07cbd24f3454fa5c04c99f8fb709162e'
p899
sa(dp900
g2
S'19781'
p901
sg4
S'7894'
p902
sg6
S'03f52a4f7e66c7ccc384ce91e7bd50e9'
p903
sg8
S'xxa522a61cc6ed22c35a887a14cef04f1d'
p904
sg10
S'xx39d378f51b72092d97bfc6eda90c14b6'
p905
sg12
S'xxd2f3224e8d64811106c9fbcf07713f6b'
p906
sg14
S'Mozilla/5.0 (Linux; Android 5.0; vivo Y35 Build/LRX21M) AppleWebKit/537.36 (KHTML, like Gecko) Version/4.0 Chrome/37.0.0.0 Mobile MQQBrowser/6.8 TBS/036824 Safari/537.36 MicroMessenger/6.3.25.861 NetType/WIFI Language/zh_CN'
p907
sg16
S'45a94f48fe0d5c1fa98e460235aa6515'
p908
sa(dp909
g2
S'19781'
p910
sg4
S'7908'
p911
sg6
S'03f52a4f7e66c7ccc384ce91e7bd50e9'
p912
sg8
S'xxa522a61cc6ed22c35a887a14cef04f1d'
p913
sg10
S'xx39d378f51b72092d97bfc6eda90c14b6'
p914
sg12
S'xxd2f3224e8d64811106c9fbcf07713f6b'
p915
sg14
S'Mozilla/5.0 (Linux; Android 5.0; vivo Y35 Build/LRX21M) AppleWebKit/537.36 (KHTML, like Gecko) Version/4.0 Chrome/37.0.0.0 Mobile MQQBrowser/6.8 TBS/036824 Safari/537.36 MicroMessenger/6.3.25.861 NetType/WIFI Language/zh_CN'
p916
sg16
S'45a94f48fe0d5c1fa98e460235aa6515'
p917
sa(dp918
g2
S'20255'
p919
sg4
S'7960'
p920
sg6
S'03f52a4f7e66c7ccc384ce91e7bd50e9'
p921
sg8
S'xx240abf9d6e7fe709f5ae74aaf75155e4'
p922
sg10
S'xx39d378f51b72092d97bfc6eda90c14b6'
p923
sg12
S'xxd2f3224e8d64811106c9fbcf07713f6b'
p924
sg14
S'Mozilla/5.0 (Linux; Android 5.0; vivo Y35 Build/LRX21M) AppleWebKit/537.36 (KHTML, like Gecko) Version/4.0 Chrome/37.0.0.0 Mobile MQQBrowser/6.8 TBS/036849 Safari/537.36 MicroMessenger/6.3.25.861 NetType/WIFI Language/zh_CN'
p925
sg16
S'07cbd24f3454fa5c04c99f8fb709162e'
p926
sa(dp927
g2
S'20255'
p928
sg4
S'7977'
p929
sg6
S'03f52a4f7e66c7ccc384ce91e7bd50e9'
p930
sg8
S'xx240abf9d6e7fe709f5ae74aaf75155e4'
p931
sg10
S'xx39d378f51b72092d97bfc6eda90c14b6'
p932
sg12
S'xxd2f3224e8d64811106c9fbcf07713f6b'
p933
sg14
S'Mozilla/5.0 (Linux; Android 5.0; vivo Y35 Build/LRX21M) AppleWebKit/537.36 (KHTML, like Gecko) Version/4.0 Chrome/37.0.0.0 Mobile MQQBrowser/6.8 TBS/036849 Safari/537.36 MicroMessenger/6.3.25.861 NetType/WIFI Language/zh_CN'
p934
sg16
S'07cbd24f3454fa5c04c99f8fb709162e'
p935
sa(dp936
g2
S'19781'
p937
sg4
S'8355'
p938
sg6
S'03f52a4f7e66c7ccc384ce91e7bd50e9'
p939
sg8
S'xxa522a61cc6ed22c35a887a14cef04f1d'
p940
sg10
S'xx39d378f51b72092d97bfc6eda90c14b6'
p941
sg12
S'xxd2f3224e8d64811106c9fbcf07713f6b'
p942
sg14
S'Mozilla/5.0 (Linux; Android 5.0; vivo Y35 Build/LRX21M) AppleWebKit/537.36 (KHTML, like Gecko) Version/4.0 Chrome/37.0.0.0 Mobile MQQBrowser/6.8 TBS/036824 Safari/537.36 MicroMessenger/6.3.25.861 NetType/WIFI Language/zh_CN'
p943
sg16
S'45a94f48fe0d5c1fa98e460235aa6515'
p944
sa(dp945
g2
S'19781'
p946
sg4
S'8366'
p947
sg6
S'03f52a4f7e66c7ccc384ce91e7bd50e9'
p948
sg8
S'xxa522a61cc6ed22c35a887a14cef04f1d'
p949
sg10
S'xx39d378f51b72092d97bfc6eda90c14b6'
p950
sg12
S'xxd2f3224e8d64811106c9fbcf07713f6b'
p951
sg14
S'Mozilla/5.0 (Linux; Android 5.0; vivo Y35 Build/LRX21M) AppleWebKit/537.36 (KHTML, like Gecko) Version/4.0 Chrome/37.0.0.0 Mobile MQQBrowser/6.8 TBS/036824 Safari/537.36 MicroMessenger/6.3.25.861 NetType/WIFI Language/zh_CN'
p952
sg16
S'45a94f48fe0d5c1fa98e460235aa6515'
p953
sa(dp954
g2
S'20255'
p955
sg4
S'8423'
p956
sg6
S'03f52a4f7e66c7ccc384ce91e7bd50e9'
p957
sg8
S'xx240abf9d6e7fe709f5ae74aaf75155e4'
p958
sg10
S'xx39d378f51b72092d97bfc6eda90c14b6'
p959
sg12
S'xxd2f3224e8d64811106c9fbcf07713f6b'
p960
sg14
S'Mozilla/5.0 (Linux; Android 5.0; vivo Y35 Build/LRX21M) AppleWebKit/537.36 (KHTML, like Gecko) Version/4.0 Chrome/37.0.0.0 Mobile MQQBrowser/6.8 TBS/036849 Safari/537.36 MicroMessenger/6.3.25.861 NetType/WIFI Language/zh_CN'
p961
sg16
S'07cbd24f3454fa5c04c99f8fb709162e'
p962
sa(dp963
g2
S'20255'
p964
sg4
S'8435'
p965
sg6
S'03f52a4f7e66c7ccc384ce91e7bd50e9'
p966
sg8
S'xx240abf9d6e7fe709f5ae74aaf75155e4'
p967
sg10
S'xx39d378f51b72092d97bfc6eda90c14b6'
p968
sg12
S'xxd2f3224e8d64811106c9fbcf07713f6b'
p969
sg14
S'Mozilla/5.0 (Linux; Android 5.0; vivo Y35 Build/LRX21M) AppleWebKit/537.36 (KHTML, like Gecko) Version/4.0 Chrome/37.0.0.0 Mobile MQQBrowser/6.8 TBS/036849 Safari/537.36 MicroMessenger/6.3.25.861 NetType/WIFI Language/zh_CN'
p970
sg16
S'07cbd24f3454fa5c04c99f8fb709162e'
p971
sa.