(lp0
(dp1
S'user_id'
p2
S'49734'
p3
sS'data_id'
p4
S'32'
p5
sS'ip'
p6
S'37ec7b91655b3c964292df15710fad2a'
p7
sS'phone_B'
p8
S'xxe18dc4a6ba0037555ec112e6ad8d7f7d'
p9
sS'phone_C'
p10
S'xx6ed8ff5e09b587394005bf65dd99a610'
p11
sS'phone_A'
p12
S'xxd346f4e5136c77ee119605b1d4c13860'
p13
sS'user_agent'
p14
S'Mozilla/5.0 (Linux; Android 5.1; m2 note Build/LMY47D) AppleWebKit/537.36 (KHTML, like Gecko) Version/4.0 Chrome/37.0.0.0 Mobile MQQBrowser/6.8 TBS/036849 Safari/537.36 MicroMessenger/6.3.27.880 NetType/WIFI Language/zh_CN'
p15
sS'ua'
p16
S'69501ccff5d70c741a68086ca6c1b6ee'
p17
sa(dp18
g2
S'49734'
p19
sg4
S'39'
p20
sg6
S'37ec7b91655b3c964292df15710fad2a'
p21
sg8
S'xxe18dc4a6ba0037555ec112e6ad8d7f7d'
p22
sg10
S'xx6ed8ff5e09b587394005bf65dd99a610'
p23
sg12
S'xxd346f4e5136c77ee119605b1d4c13860'
p24
sg14
S'Mozilla/5.0 (Linux; Android 5.1; m2 note Build/LMY47D) AppleWebKit/537.36 (KHTML, like Gecko) Version/4.0 Chrome/37.0.0.0 Mobile MQQBrowser/6.8 TBS/036849 Safari/537.36 MicroMessenger/6.3.27.880 NetType/WIFI Language/zh_CN'
p25
sg16
S'69501ccff5d70c741a68086ca6c1b6ee'
p26
sa(dp27
g2
S'49734'
p28
sg4
S'45'
p29
sg6
S'37ec7b91655b3c964292df15710fad2a'
p30
sg8
S'xxe18dc4a6ba0037555ec112e6ad8d7f7d'
p31
sg10
S'xx6ed8ff5e09b587394005bf65dd99a610'
p32
sg12
S'xxd346f4e5136c77ee119605b1d4c13860'
p33
sg14
S'Mozilla/5.0 (Linux; Android 5.1; m2 note Build/LMY47D) AppleWebKit/537.36 (KHTML, like Gecko) Version/4.0 Chrome/37.0.0.0 Mobile MQQBrowser/6.8 TBS/036849 Safari/537.36 MicroMessenger/6.3.27.880 NetType/WIFI Language/zh_CN'
p34
sg16
S'69501ccff5d70c741a68086ca6c1b6ee'
p35
sa(dp36
g2
S'49734'
p37
sg4
S'48'
p38
sg6
S'37ec7b91655b3c964292df15710fad2a'
p39
sg8
S'xxe18dc4a6ba0037555ec112e6ad8d7f7d'
p40
sg10
S'xx6ed8ff5e09b587394005bf65dd99a610'
p41
sg12
S'xxd346f4e5136c77ee119605b1d4c13860'
p42
sg14
S'Mozilla/5.0 (Linux; Android 5.1; m2 note Build/LMY47D) AppleWebKit/537.36 (KHTML, like Gecko) Version/4.0 Chrome/37.0.0.0 Mobile MQQBrowser/6.8 TBS/036849 Safari/537.36 MicroMessenger/6.3.27.880 NetType/WIFI Language/zh_CN'
p43
sg16
S'69501ccff5d70c741a68086ca6c1b6ee'
p44
sa(dp45
g2
S'23506'
p46
sg4
S'464'
p47
sg6
S'1bc56cd3638c72501bf5de7fc861eaac'
p48
sg8
S'xxc540df5555b0776255414405f3717eff'
p49
sg10
S'xxdbf94ccae2856247b57669df9afdc12f'
p50
sg12
S'xxd346f4e5136c77ee119605b1d4c13860'
p51
sg14
S'Mozilla/5.0 (Linux; Android 5.1; m2 note Build/LMY47D) AppleWebKit/537.36 (KHTML, like Gecko) Version/4.0 Chrome/37.0.0.0 Mobile MQQBrowser/6.8 TBS/036849 Safari/537.36 MicroMessenger/6.3.27.880 NetType/cmnet Language/zh_CN'
p52
sg16
S'6a5a9e7373c23029d389b3a204f5ba34'
p53
sa(dp54
g2
S'23506'
p55
sg4
S'471'
p56
sg6
S'1bc56cd3638c72501bf5de7fc861eaac'
p57
sg8
S'xxc540df5555b0776255414405f3717eff'
p58
sg10
S'xxdbf94ccae2856247b57669df9afdc12f'
p59
sg12
S'xxd346f4e5136c77ee119605b1d4c13860'
p60
sg14
S'Mozilla/5.0 (Linux; Android 5.1; m2 note Build/LMY47D) AppleWebKit/537.36 (KHTML, like Gecko) Version/4.0 Chrome/37.0.0.0 Mobile MQQBrowser/6.8 TBS/036849 Safari/537.36 MicroMessenger/6.3.27.880 NetType/cmnet Language/zh_CN'
p61
sg16
S'6a5a9e7373c23029d389b3a204f5ba34'
p62
sa(dp63
g2
S'23506'
p64
sg4
S'484'
p65
sg6
S'1bc56cd3638c72501bf5de7fc861eaac'
p66
sg8
S'xxc540df5555b0776255414405f3717eff'
p67
sg10
S'xxdbf94ccae2856247b57669df9afdc12f'
p68
sg12
S'xxd346f4e5136c77ee119605b1d4c13860'
p69
sg14
S'Mozilla/5.0 (Linux; Android 5.1; m2 note Build/LMY47D) AppleWebKit/537.36 (KHTML, like Gecko) Version/4.0 Chrome/37.0.0.0 Mobile MQQBrowser/6.8 TBS/036849 Safari/537.36 MicroMessenger/6.3.27.880 NetType/cmnet Language/zh_CN'
p70
sg16
S'6a5a9e7373c23029d389b3a204f5ba34'
p71
sa(dp72
g2
S'23506'
p73
sg4
S'497'
p74
sg6
S'1bc56cd3638c72501bf5de7fc861eaac'
p75
sg8
S'xxc540df5555b0776255414405f3717eff'
p76
sg10
S'xxdbf94ccae2856247b57669df9afdc12f'
p77
sg12
S'xxd346f4e5136c77ee119605b1d4c13860'
p78
sg14
S'Mozilla/5.0 (Linux; Android 5.1; m2 note Build/LMY47D) AppleWebKit/537.36 (KHTML, like Gecko) Version/4.0 Chrome/37.0.0.0 Mobile MQQBrowser/6.8 TBS/036849 Safari/537.36 MicroMessenger/6.3.27.880 NetType/cmnet Language/zh_CN'
p79
sg16
S'6a5a9e7373c23029d389b3a204f5ba34'
p80
sa(dp81
g2
S'23506'
p82
sg4
S'508'
p83
sg6
S'1bc56cd3638c72501bf5de7fc861eaac'
p84
sg8
S'xxc540df5555b0776255414405f3717eff'
p85
sg10
S'xxdbf94ccae2856247b57669df9afdc12f'
p86
sg12
S'xxd346f4e5136c77ee119605b1d4c13860'
p87
sg14
S'Mozilla/5.0 (Linux; Android 5.1; m2 note Build/LMY47D) AppleWebKit/537.36 (KHTML, like Gecko) Version/4.0 Chrome/37.0.0.0 Mobile MQQBrowser/6.8 TBS/036849 Safari/537.36 MicroMessenger/6.3.27.880 NetType/cmnet Language/zh_CN'
p88
sg16
S'6a5a9e7373c23029d389b3a204f5ba34'
p89
sa(dp90
g2
S'23506'
p91
sg4
S'523'
p92
sg6
S'1bc56cd3638c72501bf5de7fc861eaac'
p93
sg8
S'xxc540df5555b0776255414405f3717eff'
p94
sg10
S'xxdbf94ccae2856247b57669df9afdc12f'
p95
sg12
S'xxd346f4e5136c77ee119605b1d4c13860'
p96
sg14
S'Mozilla/5.0 (Linux; Android 5.1; m2 note Build/LMY47D) AppleWebKit/537.36 (KHTML, like Gecko) Version/4.0 Chrome/37.0.0.0 Mobile MQQBrowser/6.8 TBS/036849 Safari/537.36 MicroMessenger/6.3.27.880 NetType/cmnet Language/zh_CN'
p97
sg16
S'6a5a9e7373c23029d389b3a204f5ba34'
p98
sa(dp99
g2
S'23506'
p100
sg4
S'541'
p101
sg6
S'1bc56cd3638c72501bf5de7fc861eaac'
p102
sg8
S'xxc540df5555b0776255414405f3717eff'
p103
sg10
S'xxdbf94ccae2856247b57669df9afdc12f'
p104
sg12
S'xxd346f4e5136c77ee119605b1d4c13860'
p105
sg14
S'Mozilla/5.0 (Linux; Android 5.1; m2 note Build/LMY47D) AppleWebKit/537.36 (KHTML, like Gecko) Version/4.0 Chrome/37.0.0.0 Mobile MQQBrowser/6.8 TBS/036849 Safari/537.36 MicroMessenger/6.3.27.880 NetType/cmnet Language/zh_CN'
p106
sg16
S'6a5a9e7373c23029d389b3a204f5ba34'
p107
sa(dp108
g2
S'23506'
p109
sg4
S'559'
p110
sg6
S'1bc56cd3638c72501bf5de7fc861eaac'
p111
sg8
S'xxc540df5555b0776255414405f3717eff'
p112
sg10
S'xxdbf94ccae2856247b57669df9afdc12f'
p113
sg12
S'xxd346f4e5136c77ee119605b1d4c13860'
p114
sg14
S'Mozilla/5.0 (Linux; Android 5.1; m2 note Build/LMY47D) AppleWebKit/537.36 (KHTML, like Gecko) Version/4.0 Chrome/37.0.0.0 Mobile MQQBrowser/6.8 TBS/036849 Safari/537.36 MicroMessenger/6.3.27.880 NetType/cmnet Language/zh_CN'
p115
sg16
S'6a5a9e7373c23029d389b3a204f5ba34'
p116
sa(dp117
g2
S'23506'
p118
sg4
S'577'
p119
sg6
S'1bc56cd3638c72501bf5de7fc861eaac'
p120
sg8
S'xxc540df5555b0776255414405f3717eff'
p121
sg10
S'xxdbf94ccae2856247b57669df9afdc12f'
p122
sg12
S'xxd346f4e5136c77ee119605b1d4c13860'
p123
sg14
S'Mozilla/5.0 (Linux; Android 5.1; m2 note Build/LMY47D) AppleWebKit/537.36 (KHTML, like Gecko) Version/4.0 Chrome/37.0.0.0 Mobile MQQBrowser/6.8 TBS/036849 Safari/537.36 MicroMessenger/6.3.27.880 NetType/cmnet Language/zh_CN'
p124
sg16
S'6a5a9e7373c23029d389b3a204f5ba34'
p125
sa(dp126
g2
S'23506'
p127
sg4
S'596'
p128
sg6
S'1bc56cd3638c72501bf5de7fc861eaac'
p129
sg8
S'xxc540df5555b0776255414405f3717eff'
p130
sg10
S'xxdbf94ccae2856247b57669df9afdc12f'
p131
sg12
S'xxd346f4e5136c77ee119605b1d4c13860'
p132
sg14
S'Mozilla/5.0 (Linux; Android 5.1; m2 note Build/LMY47D) AppleWebKit/537.36 (KHTML, like Gecko) Version/4.0 Chrome/37.0.0.0 Mobile MQQBrowser/6.8 TBS/036849 Safari/537.36 MicroMessenger/6.3.27.880 NetType/cmnet Language/zh_CN'
p133
sg16
S'6a5a9e7373c23029d389b3a204f5ba34'
p134
sa(dp135
g2
S'23506'
p136
sg4
S'678'
p137
sg6
S'1bc56cd3638c72501bf5de7fc861eaac'
p138
sg8
S'xxc540df5555b0776255414405f3717eff'
p139
sg10
S'xxdbf94ccae2856247b57669df9afdc12f'
p140
sg12
S'xxd346f4e5136c77ee119605b1d4c13860'
p141
sg14
S'Mozilla/5.0 (Linux; Android 5.1; m2 note Build/LMY47D) AppleWebKit/537.36 (KHTML, like Gecko) Version/4.0 Chrome/37.0.0.0 Mobile MQQBrowser/6.8 TBS/036849 Safari/537.36 MicroMessenger/6.3.27.880 NetType/cmnet Language/zh_CN'
p142
sg16
S'6a5a9e7373c23029d389b3a204f5ba34'
p143
sa(dp144
g2
S'23506'
p145
sg4
S'765'
p146
sg6
S'1bc56cd3638c72501bf5de7fc861eaac'
p147
sg8
S'xxc540df5555b0776255414405f3717eff'
p148
sg10
S'xxdbf94ccae2856247b57669df9afdc12f'
p149
sg12
S'xxd346f4e5136c77ee119605b1d4c13860'
p150
sg14
S'Mozilla/5.0 (Linux; Android 5.1; m2 note Build/LMY47D) AppleWebKit/537.36 (KHTML, like Gecko) Version/4.0 Chrome/37.0.0.0 Mobile MQQBrowser/6.8 TBS/036849 Safari/537.36 MicroMessenger/6.3.27.880 NetType/cmnet Language/zh_CN'
p151
sg16
S'6a5a9e7373c23029d389b3a204f5ba34'
p152
sa(dp153
g2
S'36105'
p154
sg4
S'1134'
p155
sg6
S'09ca09b656926cef7647082200d7e2d2'
p156
sg8
S'xxb23ba2ac7d8e7d6dc4815347ece126c2'
p157
sg10
S'xx6ed8ff5e09b587394005bf65dd99a610'
p158
sg12
S'xxd346f4e5136c77ee119605b1d4c13860'
p159
sg14
S'Mozilla/5.0 (Linux; Android 5.1; m2 note Build/LMY47D) AppleWebKit/537.36 (KHTML, like Gecko) Version/4.0 Chrome/37.0.0.0 Mobile MQQBrowser/6.8 TBS/036861 Safari/537.36 MicroMessenger/6.3.27.880 NetType/WIFI Language/zh_CN'
p160
sg16
S'4d72fd995ef54067ad6a93b35325f799'
p161
sa(dp162
g2
S'36105'
p163
sg4
S'1152'
p164
sg6
S'09ca09b656926cef7647082200d7e2d2'
p165
sg8
S'xxb23ba2ac7d8e7d6dc4815347ece126c2'
p166
sg10
S'xx6ed8ff5e09b587394005bf65dd99a610'
p167
sg12
S'xxd346f4e5136c77ee119605b1d4c13860'
p168
sg14
S'Mozilla/5.0 (Linux; Android 5.1; m2 note Build/LMY47D) AppleWebKit/537.36 (KHTML, like Gecko) Version/4.0 Chrome/37.0.0.0 Mobile MQQBrowser/6.8 TBS/036861 Safari/537.36 MicroMessenger/6.3.27.880 NetType/WIFI Language/zh_CN'
p169
sg16
S'4d72fd995ef54067ad6a93b35325f799'
p170
sa(dp171
g2
S'36105'
p172
sg4
S'1176'
p173
sg6
S'09ca09b656926cef7647082200d7e2d2'
p174
sg8
S'xxb23ba2ac7d8e7d6dc4815347ece126c2'
p175
sg10
S'xx6ed8ff5e09b587394005bf65dd99a610'
p176
sg12
S'xxd346f4e5136c77ee119605b1d4c13860'
p177
sg14
S'Mozilla/5.0 (Linux; Android 5.1; m2 note Build/LMY47D) AppleWebKit/537.36 (KHTML, like Gecko) Version/4.0 Chrome/37.0.0.0 Mobile MQQBrowser/6.8 TBS/036861 Safari/537.36 MicroMessenger/6.3.27.880 NetType/WIFI Language/zh_CN'
p178
sg16
S'4d72fd995ef54067ad6a93b35325f799'
p179
sa(dp180
g2
S'36105'
p181
sg4
S'1187'
p182
sg6
S'09ca09b656926cef7647082200d7e2d2'
p183
sg8
S'xxb23ba2ac7d8e7d6dc4815347ece126c2'
p184
sg10
S'xx6ed8ff5e09b587394005bf65dd99a610'
p185
sg12
S'xxd346f4e5136c77ee119605b1d4c13860'
p186
sg14
S'Mozilla/5.0 (Linux; Android 5.1; m2 note Build/LMY47D) AppleWebKit/537.36 (KHTML, like Gecko) Version/4.0 Chrome/37.0.0.0 Mobile MQQBrowser/6.8 TBS/036861 Safari/537.36 MicroMessenger/6.3.27.880 NetType/WIFI Language/zh_CN'
p187
sg16
S'4d72fd995ef54067ad6a93b35325f799'
p188
sa(dp189
g2
S'23506'
p190
sg4
S'1242'
p191
sg6
S'1bc56cd3638c72501bf5de7fc861eaac'
p192
sg8
S'xxc540df5555b0776255414405f3717eff'
p193
sg10
S'xxdbf94ccae2856247b57669df9afdc12f'
p194
sg12
S'xxd346f4e5136c77ee119605b1d4c13860'
p195
sg14
S'Mozilla/5.0 (Linux; Android 5.1; m2 note Build/LMY47D) AppleWebKit/537.36 (KHTML, like Gecko) Version/4.0 Chrome/37.0.0.0 Mobile MQQBrowser/6.8 TBS/036849 Safari/537.36 MicroMessenger/6.3.27.880 NetType/cmnet Language/zh_CN'
p196
sg16
S'6a5a9e7373c23029d389b3a204f5ba34'
p197
sa(dp198
g2
S'23506'
p199
sg4
S'1821'
p200
sg6
S'1bc56cd3638c72501bf5de7fc861eaac'
p201
sg8
S'xxc540df5555b0776255414405f3717eff'
p202
sg10
S'xxdbf94ccae2856247b57669df9afdc12f'
p203
sg12
S'xxd346f4e5136c77ee119605b1d4c13860'
p204
sg14
S'Mozilla/5.0 (Linux; Android 5.1; m2 note Build/LMY47D) AppleWebKit/537.36 (KHTML, like Gecko) Version/4.0 Chrome/37.0.0.0 Mobile MQQBrowser/6.8 TBS/036849 Safari/537.36 MicroMessenger/6.3.27.880 NetType/cmnet Language/zh_CN'
p205
sg16
S'6a5a9e7373c23029d389b3a204f5ba34'
p206
sa(dp207
g2
S'23506'
p208
sg4
S'1999'
p209
sg6
S'1bc56cd3638c72501bf5de7fc861eaac'
p210
sg8
S'xxc540df5555b0776255414405f3717eff'
p211
sg10
S'xxdbf94ccae2856247b57669df9afdc12f'
p212
sg12
S'xxd346f4e5136c77ee119605b1d4c13860'
p213
sg14
S'Mozilla/5.0 (Linux; Android 5.1; m2 note Build/LMY47D) AppleWebKit/537.36 (KHTML, like Gecko) Version/4.0 Chrome/37.0.0.0 Mobile MQQBrowser/6.8 TBS/036849 Safari/537.36 MicroMessenger/6.3.27.880 NetType/cmnet Language/zh_CN'
p214
sg16
S'6a5a9e7373c23029d389b3a204f5ba34'
p215
sa(dp216
g2
S'23506'
p217
sg4
S'2323'
p218
sg6
S'1bc56cd3638c72501bf5de7fc861eaac'
p219
sg8
S'xxc540df5555b0776255414405f3717eff'
p220
sg10
S'xxdbf94ccae2856247b57669df9afdc12f'
p221
sg12
S'xxd346f4e5136c77ee119605b1d4c13860'
p222
sg14
S'Mozilla/5.0 (Linux; Android 5.1; m2 note Build/LMY47D) AppleWebKit/537.36 (KHTML, like Gecko) Version/4.0 Chrome/37.0.0.0 Mobile MQQBrowser/6.8 TBS/036849 Safari/537.36 MicroMessenger/6.3.27.880 NetType/cmnet Language/zh_CN'
p223
sg16
S'6a5a9e7373c23029d389b3a204f5ba34'
p224
sa(dp225
g2
S'23506'
p226
sg4
S'2346'
p227
sg6
S'1bc56cd3638c72501bf5de7fc861eaac'
p228
sg8
S'xxc540df5555b0776255414405f3717eff'
p229
sg10
S'xxdbf94ccae2856247b57669df9afdc12f'
p230
sg12
S'xxd346f4e5136c77ee119605b1d4c13860'
p231
sg14
S'Mozilla/5.0 (Linux; Android 5.1; m2 note Build/LMY47D) AppleWebKit/537.36 (KHTML, like Gecko) Version/4.0 Chrome/37.0.0.0 Mobile MQQBrowser/6.8 TBS/036849 Safari/537.36 MicroMessenger/6.3.27.880 NetType/cmnet Language/zh_CN'
p232
sg16
S'6a5a9e7373c23029d389b3a204f5ba34'
p233
sa(dp234
g2
S'23506'
p235
sg4
S'2363'
p236
sg6
S'1bc56cd3638c72501bf5de7fc861eaac'
p237
sg8
S'xxc540df5555b0776255414405f3717eff'
p238
sg10
S'xxdbf94ccae2856247b57669df9afdc12f'
p239
sg12
S'xxd346f4e5136c77ee119605b1d4c13860'
p240
sg14
S'Mozilla/5.0 (Linux; Android 5.1; m2 note Build/LMY47D) AppleWebKit/537.36 (KHTML, like Gecko) Version/4.0 Chrome/37.0.0.0 Mobile MQQBrowser/6.8 TBS/036849 Safari/537.36 MicroMessenger/6.3.27.880 NetType/cmnet Language/zh_CN'
p241
sg16
S'6a5a9e7373c23029d389b3a204f5ba34'
p242
sa(dp243
g2
S'23506'
p244
sg4
S'2383'
p245
sg6
S'1bc56cd3638c72501bf5de7fc861eaac'
p246
sg8
S'xxc540df5555b0776255414405f3717eff'
p247
sg10
S'xxdbf94ccae2856247b57669df9afdc12f'
p248
sg12
S'xxd346f4e5136c77ee119605b1d4c13860'
p249
sg14
S'Mozilla/5.0 (Linux; Android 5.1; m2 note Build/LMY47D) AppleWebKit/537.36 (KHTML, like Gecko) Version/4.0 Chrome/37.0.0.0 Mobile MQQBrowser/6.8 TBS/036849 Safari/537.36 MicroMessenger/6.3.27.880 NetType/cmnet Language/zh_CN'
p250
sg16
S'6a5a9e7373c23029d389b3a204f5ba34'
p251
sa(dp252
g2
S'23506'
p253
sg4
S'2402'
p254
sg6
S'1bc56cd3638c72501bf5de7fc861eaac'
p255
sg8
S'xxc540df5555b0776255414405f3717eff'
p256
sg10
S'xxdbf94ccae2856247b57669df9afdc12f'
p257
sg12
S'xxd346f4e5136c77ee119605b1d4c13860'
p258
sg14
S'Mozilla/5.0 (Linux; Android 5.1; m2 note Build/LMY47D) AppleWebKit/537.36 (KHTML, like Gecko) Version/4.0 Chrome/37.0.0.0 Mobile MQQBrowser/6.8 TBS/036849 Safari/537.36 MicroMessenger/6.3.27.880 NetType/cmnet Language/zh_CN'
p259
sg16
S'6a5a9e7373c23029d389b3a204f5ba34'
p260
sa(dp261
g2
S'23506'
p262
sg4
S'2662'
p263
sg6
S'1bc56cd3638c72501bf5de7fc861eaac'
p264
sg8
S'xxc540df5555b0776255414405f3717eff'
p265
sg10
S'xxdbf94ccae2856247b57669df9afdc12f'
p266
sg12
S'xxd346f4e5136c77ee119605b1d4c13860'
p267
sg14
S'Mozilla/5.0 (Linux; Android 5.1; m2 note Build/LMY47D) AppleWebKit/537.36 (KHTML, like Gecko) Version/4.0 Chrome/37.0.0.0 Mobile MQQBrowser/6.8 TBS/036849 Safari/537.36 MicroMessenger/6.3.27.880 NetType/cmnet Language/zh_CN'
p268
sg16
S'6a5a9e7373c23029d389b3a204f5ba34'
p269
sa(dp270
g2
S'23506'
p271
sg4
S'3508'
p272
sg6
S'1bc56cd3638c72501bf5de7fc861eaac'
p273
sg8
S'xxc540df5555b0776255414405f3717eff'
p274
sg10
S'xxdbf94ccae2856247b57669df9afdc12f'
p275
sg12
S'xxd346f4e5136c77ee119605b1d4c13860'
p276
sg14
S'Mozilla/5.0 (Linux; Android 5.1; m2 note Build/LMY47D) AppleWebKit/537.36 (KHTML, like Gecko) Version/4.0 Chrome/37.0.0.0 Mobile MQQBrowser/6.8 TBS/036849 Safari/537.36 MicroMessenger/6.3.27.880 NetType/cmnet Language/zh_CN'
p277
sg16
S'6a5a9e7373c23029d389b3a204f5ba34'
p278
sa(dp279
g2
S'23506'
p280
sg4
S'3570'
p281
sg6
S'1bc56cd3638c72501bf5de7fc861eaac'
p282
sg8
S'xxc540df5555b0776255414405f3717eff'
p283
sg10
S'xxdbf94ccae2856247b57669df9afdc12f'
p284
sg12
S'xxd346f4e5136c77ee119605b1d4c13860'
p285
sg14
S'Mozilla/5.0 (Linux; Android 5.1; m2 note Build/LMY47D) AppleWebKit/537.36 (KHTML, like Gecko) Version/4.0 Chrome/37.0.0.0 Mobile MQQBrowser/6.8 TBS/036849 Safari/537.36 MicroMessenger/6.3.27.880 NetType/cmnet Language/zh_CN'
p286
sg16
S'6a5a9e7373c23029d389b3a204f5ba34'
p287
sa(dp288
g2
S'36105'
p289
sg4
S'3688'
p290
sg6
S'09ca09b656926cef7647082200d7e2d2'
p291
sg8
S'xxb23ba2ac7d8e7d6dc4815347ece126c2'
p292
sg10
S'xx6ed8ff5e09b587394005bf65dd99a610'
p293
sg12
S'xxd346f4e5136c77ee119605b1d4c13860'
p294
sg14
S'Mozilla/5.0 (Linux; Android 5.1; m2 note Build/LMY47D) AppleWebKit/537.36 (KHTML, like Gecko) Version/4.0 Chrome/37.0.0.0 Mobile MQQBrowser/6.8 TBS/036861 Safari/537.36 MicroMessenger/6.3.27.880 NetType/WIFI Language/zh_CN'
p295
sg16
S'4d72fd995ef54067ad6a93b35325f799'
p296
sa(dp297
g2
S'36105'
p298
sg4
S'3705'
p299
sg6
S'09ca09b656926cef7647082200d7e2d2'
p300
sg8
S'xxb23ba2ac7d8e7d6dc4815347ece126c2'
p301
sg10
S'xx6ed8ff5e09b587394005bf65dd99a610'
p302
sg12
S'xxd346f4e5136c77ee119605b1d4c13860'
p303
sg14
S'Mozilla/5.0 (Linux; Android 5.1; m2 note Build/LMY47D) AppleWebKit/537.36 (KHTML, like Gecko) Version/4.0 Chrome/37.0.0.0 Mobile MQQBrowser/6.8 TBS/036861 Safari/537.36 MicroMessenger/6.3.27.880 NetType/WIFI Language/zh_CN'
p304
sg16
S'4d72fd995ef54067ad6a93b35325f799'
p305
sa(dp306
g2
S'36105'
p307
sg4
S'3722'
p308
sg6
S'09ca09b656926cef7647082200d7e2d2'
p309
sg8
S'xxb23ba2ac7d8e7d6dc4815347ece126c2'
p310
sg10
S'xx6ed8ff5e09b587394005bf65dd99a610'
p311
sg12
S'xxd346f4e5136c77ee119605b1d4c13860'
p312
sg14
S'Mozilla/5.0 (Linux; Android 5.1; m2 note Build/LMY47D) AppleWebKit/537.36 (KHTML, like Gecko) Version/4.0 Chrome/37.0.0.0 Mobile MQQBrowser/6.8 TBS/036861 Safari/537.36 MicroMessenger/6.3.27.880 NetType/WIFI Language/zh_CN'
p313
sg16
S'4d72fd995ef54067ad6a93b35325f799'
p314
sa(dp315
g2
S'36105'
p316
sg4
S'3739'
p317
sg6
S'09ca09b656926cef7647082200d7e2d2'
p318
sg8
S'xxb23ba2ac7d8e7d6dc4815347ece126c2'
p319
sg10
S'xx6ed8ff5e09b587394005bf65dd99a610'
p320
sg12
S'xxd346f4e5136c77ee119605b1d4c13860'
p321
sg14
S'Mozilla/5.0 (Linux; Android 5.1; m2 note Build/LMY47D) AppleWebKit/537.36 (KHTML, like Gecko) Version/4.0 Chrome/37.0.0.0 Mobile MQQBrowser/6.8 TBS/036861 Safari/537.36 MicroMessenger/6.3.27.880 NetType/WIFI Language/zh_CN'
p322
sg16
S'4d72fd995ef54067ad6a93b35325f799'
p323
sa(dp324
g2
S'23506'
p325
sg4
S'4130'
p326
sg6
S'1bc56cd3638c72501bf5de7fc861eaac'
p327
sg8
S'xxc540df5555b0776255414405f3717eff'
p328
sg10
S'xxdbf94ccae2856247b57669df9afdc12f'
p329
sg12
S'xxd346f4e5136c77ee119605b1d4c13860'
p330
sg14
S'Mozilla/5.0 (Linux; Android 5.1; m2 note Build/LMY47D) AppleWebKit/537.36 (KHTML, like Gecko) Version/4.0 Chrome/37.0.0.0 Mobile MQQBrowser/6.8 TBS/036849 Safari/537.36 MicroMessenger/6.3.27.880 NetType/cmnet Language/zh_CN'
p331
sg16
S'6a5a9e7373c23029d389b3a204f5ba34'
p332
sa(dp333
g2
S'23506'
p334
sg4
S'4364'
p335
sg6
S'1bc56cd3638c72501bf5de7fc861eaac'
p336
sg8
S'xxc540df5555b0776255414405f3717eff'
p337
sg10
S'xxdbf94ccae2856247b57669df9afdc12f'
p338
sg12
S'xxd346f4e5136c77ee119605b1d4c13860'
p339
sg14
S'Mozilla/5.0 (Linux; Android 5.1; m2 note Build/LMY47D) AppleWebKit/537.36 (KHTML, like Gecko) Version/4.0 Chrome/37.0.0.0 Mobile MQQBrowser/6.8 TBS/036849 Safari/537.36 MicroMessenger/6.3.27.880 NetType/cmnet Language/zh_CN'
p340
sg16
S'6a5a9e7373c23029d389b3a204f5ba34'
p341
sa(dp342
g2
S'23506'
p343
sg4
S'4680'
p344
sg6
S'1bc56cd3638c72501bf5de7fc861eaac'
p345
sg8
S'xxc540df5555b0776255414405f3717eff'
p346
sg10
S'xxdbf94ccae2856247b57669df9afdc12f'
p347
sg12
S'xxd346f4e5136c77ee119605b1d4c13860'
p348
sg14
S'Mozilla/5.0 (Linux; Android 5.1; m2 note Build/LMY47D) AppleWebKit/537.36 (KHTML, like Gecko) Version/4.0 Chrome/37.0.0.0 Mobile MQQBrowser/6.8 TBS/036849 Safari/537.36 MicroMessenger/6.3.27.880 NetType/cmnet Language/zh_CN'
p349
sg16
S'6a5a9e7373c23029d389b3a204f5ba34'
p350
sa(dp351
g2
S'23506'
p352
sg4
S'4832'
p353
sg6
S'1bc56cd3638c72501bf5de7fc861eaac'
p354
sg8
S'xxc540df5555b0776255414405f3717eff'
p355
sg10
S'xxdbf94ccae2856247b57669df9afdc12f'
p356
sg12
S'xxd346f4e5136c77ee119605b1d4c13860'
p357
sg14
S'Mozilla/5.0 (Linux; Android 5.1; m2 note Build/LMY47D) AppleWebKit/537.36 (KHTML, like Gecko) Version/4.0 Chrome/37.0.0.0 Mobile MQQBrowser/6.8 TBS/036849 Safari/537.36 MicroMessenger/6.3.27.880 NetType/cmnet Language/zh_CN'
p358
sg16
S'6a5a9e7373c23029d389b3a204f5ba34'
p359
sa(dp360
g2
S'23506'
p361
sg4
S'5447'
p362
sg6
S'1bc56cd3638c72501bf5de7fc861eaac'
p363
sg8
S'xxc540df5555b0776255414405f3717eff'
p364
sg10
S'xxdbf94ccae2856247b57669df9afdc12f'
p365
sg12
S'xxd346f4e5136c77ee119605b1d4c13860'
p366
sg14
S'Mozilla/5.0 (Linux; Android 5.1; m2 note Build/LMY47D) AppleWebKit/537.36 (KHTML, like Gecko) Version/4.0 Chrome/37.0.0.0 Mobile MQQBrowser/6.8 TBS/036849 Safari/537.36 MicroMessenger/6.3.27.880 NetType/cmnet Language/zh_CN'
p367
sg16
S'6a5a9e7373c23029d389b3a204f5ba34'
p368
sa(dp369
g2
S'23506'
p370
sg4
S'5457'
p371
sg6
S'1bc56cd3638c72501bf5de7fc861eaac'
p372
sg8
S'xxc540df5555b0776255414405f3717eff'
p373
sg10
S'xxdbf94ccae2856247b57669df9afdc12f'
p374
sg12
S'xxd346f4e5136c77ee119605b1d4c13860'
p375
sg14
S'Mozilla/5.0 (Linux; Android 5.1; m2 note Build/LMY47D) AppleWebKit/537.36 (KHTML, like Gecko) Version/4.0 Chrome/37.0.0.0 Mobile MQQBrowser/6.8 TBS/036849 Safari/537.36 MicroMessenger/6.3.27.880 NetType/cmnet Language/zh_CN'
p376
sg16
S'6a5a9e7373c23029d389b3a204f5ba34'
p377
sa(dp378
g2
S'23506'
p379
sg4
S'5471'
p380
sg6
S'1bc56cd3638c72501bf5de7fc861eaac'
p381
sg8
S'xxc540df5555b0776255414405f3717eff'
p382
sg10
S'xxdbf94ccae2856247b57669df9afdc12f'
p383
sg12
S'xxd346f4e5136c77ee119605b1d4c13860'
p384
sg14
S'Mozilla/5.0 (Linux; Android 5.1; m2 note Build/LMY47D) AppleWebKit/537.36 (KHTML, like Gecko) Version/4.0 Chrome/37.0.0.0 Mobile MQQBrowser/6.8 TBS/036849 Safari/537.36 MicroMessenger/6.3.27.880 NetType/cmnet Language/zh_CN'
p385
sg16
S'6a5a9e7373c23029d389b3a204f5ba34'
p386
sa(dp387
g2
S'23506'
p388
sg4
S'5491'
p389
sg6
S'1bc56cd3638c72501bf5de7fc861eaac'
p390
sg8
S'xxc540df5555b0776255414405f3717eff'
p391
sg10
S'xxdbf94ccae2856247b57669df9afdc12f'
p392
sg12
S'xxd346f4e5136c77ee119605b1d4c13860'
p393
sg14
S'Mozilla/5.0 (Linux; Android 5.1; m2 note Build/LMY47D) AppleWebKit/537.36 (KHTML, like Gecko) Version/4.0 Chrome/37.0.0.0 Mobile MQQBrowser/6.8 TBS/036849 Safari/537.36 MicroMessenger/6.3.27.880 NetType/cmnet Language/zh_CN'
p394
sg16
S'6a5a9e7373c23029d389b3a204f5ba34'
p395
sa(dp396
g2
S'23506'
p397
sg4
S'5509'
p398
sg6
S'1bc56cd3638c72501bf5de7fc861eaac'
p399
sg8
S'xxc540df5555b0776255414405f3717eff'
p400
sg10
S'xxdbf94ccae2856247b57669df9afdc12f'
p401
sg12
S'xxd346f4e5136c77ee119605b1d4c13860'
p402
sg14
S'Mozilla/5.0 (Linux; Android 5.1; m2 note Build/LMY47D) AppleWebKit/537.36 (KHTML, like Gecko) Version/4.0 Chrome/37.0.0.0 Mobile MQQBrowser/6.8 TBS/036849 Safari/537.36 MicroMessenger/6.3.27.880 NetType/cmnet Language/zh_CN'
p403
sg16
S'6a5a9e7373c23029d389b3a204f5ba34'
p404
sa(dp405
g2
S'30602'
p406
sg4
S'7105'
p407
sg6
S'71922dafd1c7cf760b5c361a44c68379'
p408
sg8
S'xx72b7d7c579b928568b7c81e7c33d3893'
p409
sg10
S'xx6ed8ff5e09b587394005bf65dd99a610'
p410
sg12
S'xxd346f4e5136c77ee119605b1d4c13860'
p411
sg14
S'Mozilla/5.0 (Linux; Android 5.1; m2 note Build/LMY47D) AppleWebKit/537.36 (KHTML, like Gecko) Version/4.0 Chrome/37.0.0.0 Mobile MQQBrowser/6.8 TBS/036849 Safari/537.36 MicroMessenger/6.3.27.880 NetType/cmnet Language/zh_CN'
p412
sg16
S'6a5a9e7373c23029d389b3a204f5ba34'
p413
sa(dp414
g2
S'30602'
p415
sg4
S'7123'
p416
sg6
S'71922dafd1c7cf760b5c361a44c68379'
p417
sg8
S'xx72b7d7c579b928568b7c81e7c33d3893'
p418
sg10
S'xx6ed8ff5e09b587394005bf65dd99a610'
p419
sg12
S'xxd346f4e5136c77ee119605b1d4c13860'
p420
sg14
S'Mozilla/5.0 (Linux; Android 5.1; m2 note Build/LMY47D) AppleWebKit/537.36 (KHTML, like Gecko) Version/4.0 Chrome/37.0.0.0 Mobile MQQBrowser/6.8 TBS/036849 Safari/537.36 MicroMessenger/6.3.27.880 NetType/cmnet Language/zh_CN'
p421
sg16
S'6a5a9e7373c23029d389b3a204f5ba34'
p422
sa(dp423
g2
S'28815'
p424
sg4
S'7201'
p425
sg6
S'4c848266a875a43763ada6b4b1516c6c'
p426
sg8
S'xx72b7d7c579b928568b7c81e7c33d3893'
p427
sg10
S'xx6ed8ff5e09b587394005bf65dd99a610'
p428
sg12
S'xxd346f4e5136c77ee119605b1d4c13860'
p429
sg14
S'Mozilla/5.0 (Linux; Android 5.1; m2 note Build/LMY47D) AppleWebKit/537.36 (KHTML, like Gecko) Version/4.0 Chrome/37.0.0.0 Mobile MQQBrowser/6.8 TBS/036849 Safari/537.36 MicroMessenger/6.3.27.880 NetType/cmnet Language/zh_CN'
p430
sg16
S'6a5a9e7373c23029d389b3a204f5ba34'
p431
sa(dp432
g2
S'28815'
p433
sg4
S'7213'
p434
sg6
S'4c848266a875a43763ada6b4b1516c6c'
p435
sg8
S'xx72b7d7c579b928568b7c81e7c33d3893'
p436
sg10
S'xx6ed8ff5e09b587394005bf65dd99a610'
p437
sg12
S'xxd346f4e5136c77ee119605b1d4c13860'
p438
sg14
S'Mozilla/5.0 (Linux; Android 5.1; m2 note Build/LMY47D) AppleWebKit/537.36 (KHTML, like Gecko) Version/4.0 Chrome/37.0.0.0 Mobile MQQBrowser/6.8 TBS/036849 Safari/537.36 MicroMessenger/6.3.27.880 NetType/cmnet Language/zh_CN'
p439
sg16
S'6a5a9e7373c23029d389b3a204f5ba34'
p440
sa(dp441
g2
S'32451'
p442
sg4
S'7266'
p443
sg6
S'8cf4467423fca9f0e4d1ff915a5e7466'
p444
sg8
S'xx2275a80813258718ed6161ab56372b3e'
p445
sg10
S'xx9ec73aa309af8aac91d6d9e6ba924df3'
p446
sg12
S'xxd346f4e5136c77ee119605b1d4c13860'
p447
sg14
S'Mozilla/5.0 (Linux; Android 5.1; m2 note Build/LMY47D) AppleWebKit/537.36 (KHTML, like Gecko) Version/4.0 Chrome/37.0.0.0 Mobile MQQBrowser/6.8 TBS/036849 Safari/537.36 MicroMessenger/6.3.27.880 NetType/WIFI Language/zh_CN'
p448
sg16
S'69501ccff5d70c741a68086ca6c1b6ee'
p449
sa(dp450
g2
S'32451'
p451
sg4
S'7283'
p452
sg6
S'8cf4467423fca9f0e4d1ff915a5e7466'
p453
sg8
S'xx2275a80813258718ed6161ab56372b3e'
p454
sg10
S'xx9ec73aa309af8aac91d6d9e6ba924df3'
p455
sg12
S'xxd346f4e5136c77ee119605b1d4c13860'
p456
sg14
S'Mozilla/5.0 (Linux; Android 5.1; m2 note Build/LMY47D) AppleWebKit/537.36 (KHTML, like Gecko) Version/4.0 Chrome/37.0.0.0 Mobile MQQBrowser/6.8 TBS/036849 Safari/537.36 MicroMessenger/6.3.27.880 NetType/WIFI Language/zh_CN'
p457
sg16
S'69501ccff5d70c741a68086ca6c1b6ee'
p458
sa.