(lp0
(dp1
S'user_id'
p2
S'49745'
p3
sS'data_id'
p4
S'916'
p5
sS'ip'
p6
S'bb253c38f47e65ae996b4ea409b55318'
p7
sS'phone_B'
p8
S'xxffdbfdd38c63fdde96ef2a1783d18c51'
p9
sS'phone_C'
p10
S'xx179f2fd6e39560d98de9df392ed32b20'
p11
sS'phone_A'
p12
S'xxd379a02fbbece31c863439aaaf4414de'
p13
sS'user_agent'
p14
S'Mozilla/5.0 (Linux; Android 5.1.1; OPPO R7sPlus Build/LMY47V) AppleWebKit/537.36 (KHTML, like Gecko) Version/4.0 Chrome/37.0.0.0 Mobile MQQBrowser/6.8 TBS/036869 Safari/537.36 MicroMessenger/6.3.27.880 NetType/WIFI Language/zh_CN'
p15
sS'ua'
p16
S'caf3d3bf894375ed4178ea0ecac87e83'
p17
sa(dp18
g2
S'49765'
p19
sg4
S'2719'
p20
sg6
S'dc447117cb05ed1524d8911386e1078e'
p21
sg8
S'xx1bc6c47e9f79726f92eb1df793559c24'
p22
sg10
S'xx179f2fd6e39560d98de9df392ed32b20'
p23
sg12
S'xxd379a02fbbece31c863439aaaf4414de'
p24
sg14
S'Mozilla/5.0 (Linux; Android 5.1.1; OPPO R7sPlus Build/LMY47V) AppleWebKit/537.36 (KHTML, like Gecko) Version/4.0 Chrome/37.0.0.0 Mobile MQQBrowser/6.8 TBS/036869 Safari/537.36 MicroMessenger/6.3.27.880 NetType/cmnet Language/zh_CN'
p25
sg16
S'70fbb84de1de73f19de206c54475c913'
p26
sa(dp27
g2
S'49765'
p28
sg4
S'2738'
p29
sg6
S'dc447117cb05ed1524d8911386e1078e'
p30
sg8
S'xx1bc6c47e9f79726f92eb1df793559c24'
p31
sg10
S'xx179f2fd6e39560d98de9df392ed32b20'
p32
sg12
S'xxd379a02fbbece31c863439aaaf4414de'
p33
sg14
S'Mozilla/5.0 (Linux; Android 5.1.1; OPPO R7sPlus Build/LMY47V) AppleWebKit/537.36 (KHTML, like Gecko) Version/4.0 Chrome/37.0.0.0 Mobile MQQBrowser/6.8 TBS/036869 Safari/537.36 MicroMessenger/6.3.27.880 NetType/cmnet Language/zh_CN'
p34
sg16
S'70fbb84de1de73f19de206c54475c913'
p35
sa.