(lp0
(dp1
S'user_id'
p2
S'22527'
p3
sS'data_id'
p4
S'3833'
p5
sS'ip'
p6
S'6a3374dfd56af5f07e80d4d2263ceb3d'
p7
sS'phone_B'
p8
S'xxbd68a1572d9b408102836b2ab5056c54'
p9
sS'phone_C'
p10
S'xxe7c81fd998a3cba8cd08008e22d09fe8'
p11
sS'phone_A'
p12
S'xxd4eb6d372f1d8c7d9c5e683e01c0b397'
p13
sS'user_agent'
p14
S'Mozilla/5.0 (Linux; Android 5.1.1; M623C Build/LMY47V) AppleWebKit/537.36 (KHTML, like Gecko) Version/4.0 Chrome/37.0.0.0 Mobile MQQBrowser/6.8 TBS/036849 Safari/537.36 MicroMessenger/6.3.27.880 NetType/cmnet Language/zh_CN'
p15
sS'ua'
p16
S'b782a37cf2196cd75988729c59c2514a'
p17
sa(dp18
g2
S'22527'
p19
sg4
S'3854'
p20
sg6
S'6a3374dfd56af5f07e80d4d2263ceb3d'
p21
sg8
S'xxbd68a1572d9b408102836b2ab5056c54'
p22
sg10
S'xxe7c81fd998a3cba8cd08008e22d09fe8'
p23
sg12
S'xxd4eb6d372f1d8c7d9c5e683e01c0b397'
p24
sg14
S'Mozilla/5.0 (Linux; Android 5.1.1; M623C Build/LMY47V) AppleWebKit/537.36 (KHTML, like Gecko) Version/4.0 Chrome/37.0.0.0 Mobile MQQBrowser/6.8 TBS/036849 Safari/537.36 MicroMessenger/6.3.27.880 NetType/cmnet Language/zh_CN'
p25
sg16
S'b782a37cf2196cd75988729c59c2514a'
p26
sa(dp27
g2
S'22527'
p28
sg4
S'3899'
p29
sg6
S'6a3374dfd56af5f07e80d4d2263ceb3d'
p30
sg8
S'xxbd68a1572d9b408102836b2ab5056c54'
p31
sg10
S'xxe7c81fd998a3cba8cd08008e22d09fe8'
p32
sg12
S'xxd4eb6d372f1d8c7d9c5e683e01c0b397'
p33
sg14
S'Mozilla/5.0 (Linux; Android 5.1.1; M623C Build/LMY47V) AppleWebKit/537.36 (KHTML, like Gecko) Version/4.0 Chrome/37.0.0.0 Mobile MQQBrowser/6.8 TBS/036849 Safari/537.36 MicroMessenger/6.3.27.880 NetType/cmnet Language/zh_CN'
p34
sg16
S'b782a37cf2196cd75988729c59c2514a'
p35
sa(dp36
g2
S'22527'
p37
sg4
S'4555'
p38
sg6
S'6a3374dfd56af5f07e80d4d2263ceb3d'
p39
sg8
S'xxbd68a1572d9b408102836b2ab5056c54'
p40
sg10
S'xxe7c81fd998a3cba8cd08008e22d09fe8'
p41
sg12
S'xxd4eb6d372f1d8c7d9c5e683e01c0b397'
p42
sg14
S'Mozilla/5.0 (Linux; Android 5.1.1; M623C Build/LMY47V) AppleWebKit/537.36 (KHTML, like Gecko) Version/4.0 Chrome/37.0.0.0 Mobile MQQBrowser/6.8 TBS/036849 Safari/537.36 MicroMessenger/6.3.27.880 NetType/cmnet Language/zh_CN'
p43
sg16
S'b782a37cf2196cd75988729c59c2514a'
p44
sa(dp45
g2
S'22527'
p46
sg4
S'4580'
p47
sg6
S'6a3374dfd56af5f07e80d4d2263ceb3d'
p48
sg8
S'xxbd68a1572d9b408102836b2ab5056c54'
p49
sg10
S'xxe7c81fd998a3cba8cd08008e22d09fe8'
p50
sg12
S'xxd4eb6d372f1d8c7d9c5e683e01c0b397'
p51
sg14
S'Mozilla/5.0 (Linux; Android 5.1.1; M623C Build/LMY47V) AppleWebKit/537.36 (KHTML, like Gecko) Version/4.0 Chrome/37.0.0.0 Mobile MQQBrowser/6.8 TBS/036849 Safari/537.36 MicroMessenger/6.3.27.880 NetType/cmnet Language/zh_CN'
p52
sg16
S'b782a37cf2196cd75988729c59c2514a'
p53
sa(dp54
g2
S'47737'
p55
sg4
S'8184'
p56
sg6
S'1c8cb4e5c3acfa7834c09f8a7622eb2a'
p57
sg8
S'xx3b0e1bcde3fce2be66502dd540d3057b'
p58
sg10
S'xxe7c81fd998a3cba8cd08008e22d09fe8'
p59
sg12
S'xxd4eb6d372f1d8c7d9c5e683e01c0b397'
p60
sg14
S'Mozilla/5.0 (Linux; Android 5.1.1; M623C Build/LMY47V) AppleWebKit/537.36 (KHTML, like Gecko) Version/4.0 Chrome/37.0.0.0 Mobile MQQBrowser/6.8 TBS/036824 Safari/537.36 MicroMessenger/6.3.27.880 NetType/WIFI Language/zh_CN'
p61
sg16
S'ac820174da09c6d9a90f49bc122cc7f2'
p62
sa(dp63
g2
S'47737'
p64
sg4
S'8195'
p65
sg6
S'1c8cb4e5c3acfa7834c09f8a7622eb2a'
p66
sg8
S'xx3b0e1bcde3fce2be66502dd540d3057b'
p67
sg10
S'xxe7c81fd998a3cba8cd08008e22d09fe8'
p68
sg12
S'xxd4eb6d372f1d8c7d9c5e683e01c0b397'
p69
sg14
S'Mozilla/5.0 (Linux; Android 5.1.1; M623C Build/LMY47V) AppleWebKit/537.36 (KHTML, like Gecko) Version/4.0 Chrome/37.0.0.0 Mobile MQQBrowser/6.8 TBS/036824 Safari/537.36 MicroMessenger/6.3.27.880 NetType/WIFI Language/zh_CN'
p70
sg16
S'ac820174da09c6d9a90f49bc122cc7f2'
p71
sa.