(lp0
(dp1
S'user_id'
p2
S'30836'
p3
sS'data_id'
p4
S'6424'
p5
sS'ip'
p6
S'5785c0cbe20c88aafa87dcdfed3ee36d'
p7
sS'phone_B'
p8
S'xx4cc1a3c59b2b44cf56d264c1c08b0e2f'
p9
sS'phone_C'
p10
S'xx72e6a961b44e9a5cd4e5b0b8556ddd63'
p11
sS'phone_A'
p12
S'xxd53288e6ff608de9c6d56874d7029370'
p13
sS'user_agent'
p14
S'Mozilla/5.0 (Linux; Android 4.4.4; R7c Build/KTU84P) AppleWebKit/537.36 (KHTML, like Gecko) Version/4.0 Chrome/37.0.0.0 Mobile MQQBrowser/6.8 TBS/036824 Safari/537.36 MicroMessenger/6.3.27.880 NetType/WIFI Language/zh_CN'
p15
sS'ua'
p16
S'a720ab3671520e902c6fb46d769800c6'
p17
sa(dp18
g2
S'30836'
p19
sg4
S'6442'
p20
sg6
S'5785c0cbe20c88aafa87dcdfed3ee36d'
p21
sg8
S'xx4cc1a3c59b2b44cf56d264c1c08b0e2f'
p22
sg10
S'xx72e6a961b44e9a5cd4e5b0b8556ddd63'
p23
sg12
S'xxd53288e6ff608de9c6d56874d7029370'
p24
sg14
S'Mozilla/5.0 (Linux; Android 4.4.4; R7c Build/KTU84P) AppleWebKit/537.36 (KHTML, like Gecko) Version/4.0 Chrome/37.0.0.0 Mobile MQQBrowser/6.8 TBS/036824 Safari/537.36 MicroMessenger/6.3.27.880 NetType/WIFI Language/zh_CN'
p25
sg16
S'a720ab3671520e902c6fb46d769800c6'
p26
sa(dp27
g2
S'33116'
p28
sg4
S'7919'
p29
sg6
S'71a5cb77f047009749ba3db533fa0732'
p30
sg8
S'xxe92949ef2c65627992a93ff125062e71'
p31
sg10
S'xx72e6a961b44e9a5cd4e5b0b8556ddd63'
p32
sg12
S'xxd53288e6ff608de9c6d56874d7029370'
p33
sg14
S'Mozilla/5.0 (Linux; Android 4.4.4; R7c Build/KTU84P) AppleWebKit/537.36 (KHTML, like Gecko) Version/4.0 Chrome/37.0.0.0 Mobile MQQBrowser/6.8 TBS/036849 Safari/537.36 MicroMessenger/6.3.27.880 NetType/WIFI Language/zh_CN'
p34
sg16
S'd356397f2dbccc9eca9708a9cc296926'
p35
sa(dp36
g2
S'33116'
p37
sg4
S'7929'
p38
sg6
S'71a5cb77f047009749ba3db533fa0732'
p39
sg8
S'xxe92949ef2c65627992a93ff125062e71'
p40
sg10
S'xx72e6a961b44e9a5cd4e5b0b8556ddd63'
p41
sg12
S'xxd53288e6ff608de9c6d56874d7029370'
p42
sg14
S'Mozilla/5.0 (Linux; Android 4.4.4; R7c Build/KTU84P) AppleWebKit/537.36 (KHTML, like Gecko) Version/4.0 Chrome/37.0.0.0 Mobile MQQBrowser/6.8 TBS/036849 Safari/537.36 MicroMessenger/6.3.27.880 NetType/WIFI Language/zh_CN'
p43
sg16
S'd356397f2dbccc9eca9708a9cc296926'
p44
sa.