(lp0
(dp1
S'user_id'
p2
S'49763'
p3
sS'data_id'
p4
S'2469'
p5
sS'ip'
p6
S'07c73b7a324690f2c54e5bdffe0d4756'
p7
sS'phone_B'
p8
S'xx80a0645f6cac59e3e416b4eb5ea33509'
p9
sS'phone_C'
p10
S'xxf8003d75cf092cc27bd1353445456330'
p11
sS'phone_A'
p12
S'xxd7370e06e232d3b72eece4f51d0164ce'
p13
sS'user_agent'
p14
S'Mozilla/5.0 (Linux; Android 6.0; HTC M8w Build/MRA58K) AppleWebKit/537.36 (KHTML, like Gecko) Version/4.0 Chrome/37.0.0.0 Mobile MQQBrowser/6.8 TBS/036849 Safari/537.36 MicroMessenger/6.3.27.880 NetType/3gnet Language/zh_CN'
p15
sS'ua'
p16
S'ddcba9b6b8c28c0b473bf650f5badf9d'
p17
sa(dp18
g2
S'49763'
p19
sg4
S'2491'
p20
sg6
S'07c73b7a324690f2c54e5bdffe0d4756'
p21
sg8
S'xx80a0645f6cac59e3e416b4eb5ea33509'
p22
sg10
S'xxf8003d75cf092cc27bd1353445456330'
p23
sg12
S'xxd7370e06e232d3b72eece4f51d0164ce'
p24
sg14
S'Mozilla/5.0 (Linux; Android 6.0; HTC M8w Build/MRA58K) AppleWebKit/537.36 (KHTML, like Gecko) Version/4.0 Chrome/37.0.0.0 Mobile MQQBrowser/6.8 TBS/036849 Safari/537.36 MicroMessenger/6.3.27.880 NetType/3gnet Language/zh_CN'
p25
sg16
S'ddcba9b6b8c28c0b473bf650f5badf9d'
p26
sa.