(lp0
(dp1
S'user_id'
p2
S'10353'
p3
sS'data_id'
p4
S'2613'
p5
sS'ip'
p6
S'03058ff25b1b7f26625c3e6dad07f9c3'
p7
sS'phone_B'
p8
S'xx50525dbd43372bc6ff8d91f11b6ef415'
p9
sS'phone_C'
p10
S'xx8aac67fb0767d7d3904af11960f271f5'
p11
sS'phone_A'
p12
S'xxd74c5b428ba5d28e81f5701cf7ef85a6'
p13
sS'user_agent'
p14
S'Mozilla/5.0 (Linux; Android 4.4.4; C730Lw Build/KTU84P) AppleWebKit/537.36 (KHTML, like Gecko) Version/4.0 Chrome/37.0.0.0 Mobile MQQBrowser/6.8 TBS/036869 Safari/537.36 MicroMessenger/6.3.27.880 NetType/WIFI Language/zh_CN'
p15
sS'ua'
p16
S'88167763c4d5ac4ce01e0588c81fad03'
p17
sa(dp18
g2
S'10353'
p19
sg4
S'2631'
p20
sg6
S'03058ff25b1b7f26625c3e6dad07f9c3'
p21
sg8
S'xx50525dbd43372bc6ff8d91f11b6ef415'
p22
sg10
S'xx8aac67fb0767d7d3904af11960f271f5'
p23
sg12
S'xxd74c5b428ba5d28e81f5701cf7ef85a6'
p24
sg14
S'Mozilla/5.0 (Linux; Android 4.4.4; C730Lw Build/KTU84P) AppleWebKit/537.36 (KHTML, like Gecko) Version/4.0 Chrome/37.0.0.0 Mobile MQQBrowser/6.8 TBS/036869 Safari/537.36 MicroMessenger/6.3.27.880 NetType/WIFI Language/zh_CN'
p25
sg16
S'88167763c4d5ac4ce01e0588c81fad03'
p26
sa(dp27
g2
S'10353'
p28
sg4
S'2960'
p29
sg6
S'd3619e48fe6d30b5062f3051e351886b'
p30
sg8
S'xx50525dbd43372bc6ff8d91f11b6ef415'
p31
sg10
S'xx8aac67fb0767d7d3904af11960f271f5'
p32
sg12
S'xxd74c5b428ba5d28e81f5701cf7ef85a6'
p33
sg14
S'Mozilla/5.0 (Linux; Android 4.4.4; C730Lw Build/KTU84P) AppleWebKit/537.36 (KHTML, like Gecko) Version/4.0 Chrome/37.0.0.0 Mobile MQQBrowser/6.8 TBS/036869 Safari/537.36 MicroMessenger/6.3.27.880 NetType/WIFI Language/zh_CN'
p34
sg16
S'88167763c4d5ac4ce01e0588c81fad03'
p35
sa(dp36
g2
S'10353'
p37
sg4
S'3027'
p38
sg6
S'03058ff25b1b7f26625c3e6dad07f9c3'
p39
sg8
S'xx50525dbd43372bc6ff8d91f11b6ef415'
p40
sg10
S'xx8aac67fb0767d7d3904af11960f271f5'
p41
sg12
S'xxd74c5b428ba5d28e81f5701cf7ef85a6'
p42
sg14
S'Mozilla/5.0 (Linux; Android 4.4.4; C730Lw Build/KTU84P) AppleWebKit/537.36 (KHTML, like Gecko) Version/4.0 Chrome/37.0.0.0 Mobile MQQBrowser/6.8 TBS/036869 Safari/537.36 MicroMessenger/6.3.27.880 NetType/WIFI Language/zh_CN'
p43
sg16
S'88167763c4d5ac4ce01e0588c81fad03'
p44
sa(dp45
g2
S'10353'
p46
sg4
S'4574'
p47
sg6
S'f732c1cb42d2df2d549a0dd5559df597'
p48
sg8
S'xx6a97b1b28284b15fe602cc9700a88ae7'
p49
sg10
S'xx8aac67fb0767d7d3904af11960f271f5'
p50
sg12
S'xxd74c5b428ba5d28e81f5701cf7ef85a6'
p51
sg14
S'Mozilla/5.0 (Linux; Android 4.4.4; C730Lw Build/KTU84P) AppleWebKit/537.36 (KHTML, like Gecko) Version/4.0 Chrome/37.0.0.0 Mobile MQQBrowser/6.8 TBS/036869 Safari/537.36 MicroMessenger/6.3.27.880 NetType/3gwap Language/zh_CN'
p52
sg16
S'f772e7791df8b82934b530d65ab3d7d1'
p53
sa(dp54
g2
S'10353'
p55
sg4
S'4595'
p56
sg6
S'f732c1cb42d2df2d549a0dd5559df597'
p57
sg8
S'xx6a97b1b28284b15fe602cc9700a88ae7'
p58
sg10
S'xx8aac67fb0767d7d3904af11960f271f5'
p59
sg12
S'xxd74c5b428ba5d28e81f5701cf7ef85a6'
p60
sg14
S'Mozilla/5.0 (Linux; Android 4.4.4; C730Lw Build/KTU84P) AppleWebKit/537.36 (KHTML, like Gecko) Version/4.0 Chrome/37.0.0.0 Mobile MQQBrowser/6.8 TBS/036869 Safari/537.36 MicroMessenger/6.3.27.880 NetType/3gwap Language/zh_CN'
p61
sg16
S'f772e7791df8b82934b530d65ab3d7d1'
p62
sa.