(lp0
(dp1
S'user_id'
p2
S'25418'
p3
sS'data_id'
p4
S'7244'
p5
sS'ip'
p6
S'de17a6a29674548500739afde18b53d1'
p7
sS'phone_B'
p8
S'xxbbde8dae606e7bb39245f9502941af04'
p9
sS'phone_C'
p10
S'xx2a88ce063ca76ecf1ac92d1e1a41a9b4'
p11
sS'phone_A'
p12
S'xxd75f3878f3d0405422633e35c3687ba9'
p13
sS'user_agent'
p14
S'Mozilla/5.0 (Linux; Android 4.4.4; ZTE G720T Build/KTU84P) AppleWebKit/537.36 (KHTML, like Gecko) Version/4.0 Chrome/37.0.0.0 Mobile MQQBrowser/6.8 TBS/036849 Safari/537.36 MicroMessenger/6.3.27.880 NetType/WIFI Language/zh_CN'
p15
sS'ua'
p16
S'5666fb9ad3085c68ee5243b630e87d85'
p17
sa(dp18
g2
S'25418'
p19
sg4
S'7256'
p20
sg6
S'de17a6a29674548500739afde18b53d1'
p21
sg8
S'xxbbde8dae606e7bb39245f9502941af04'
p22
sg10
S'xx2a88ce063ca76ecf1ac92d1e1a41a9b4'
p23
sg12
S'xxd75f3878f3d0405422633e35c3687ba9'
p24
sg14
S'Mozilla/5.0 (Linux; Android 4.4.4; ZTE G720T Build/KTU84P) AppleWebKit/537.36 (KHTML, like Gecko) Version/4.0 Chrome/37.0.0.0 Mobile MQQBrowser/6.8 TBS/036849 Safari/537.36 MicroMessenger/6.3.27.880 NetType/WIFI Language/zh_CN'
p25
sg16
S'5666fb9ad3085c68ee5243b630e87d85'
p26
sa(dp27
g2
S'25418'
p28
sg4
S'7268'
p29
sg6
S'de17a6a29674548500739afde18b53d1'
p30
sg8
S'xxbbde8dae606e7bb39245f9502941af04'
p31
sg10
S'xx2a88ce063ca76ecf1ac92d1e1a41a9b4'
p32
sg12
S'xxd75f3878f3d0405422633e35c3687ba9'
p33
sg14
S'Mozilla/5.0 (Linux; Android 4.4.4; ZTE G720T Build/KTU84P) AppleWebKit/537.36 (KHTML, like Gecko) Version/4.0 Chrome/37.0.0.0 Mobile MQQBrowser/6.8 TBS/036849 Safari/537.36 MicroMessenger/6.3.27.880 NetType/WIFI Language/zh_CN'
p34
sg16
S'5666fb9ad3085c68ee5243b630e87d85'
p35
sa(dp36
g2
S'25418'
p37
sg4
S'7292'
p38
sg6
S'de17a6a29674548500739afde18b53d1'
p39
sg8
S'xxbbde8dae606e7bb39245f9502941af04'
p40
sg10
S'xx2a88ce063ca76ecf1ac92d1e1a41a9b4'
p41
sg12
S'xxd75f3878f3d0405422633e35c3687ba9'
p42
sg14
S'Mozilla/5.0 (Linux; Android 4.4.4; ZTE G720T Build/KTU84P) AppleWebKit/537.36 (KHTML, like Gecko) Version/4.0 Chrome/37.0.0.0 Mobile MQQBrowser/6.8 TBS/036849 Safari/537.36 MicroMessenger/6.3.27.880 NetType/WIFI Language/zh_CN'
p43
sg16
S'5666fb9ad3085c68ee5243b630e87d85'
p44
sa(dp45
g2
S'25418'
p46
sg4
S'7312'
p47
sg6
S'de17a6a29674548500739afde18b53d1'
p48
sg8
S'xxbbde8dae606e7bb39245f9502941af04'
p49
sg10
S'xx2a88ce063ca76ecf1ac92d1e1a41a9b4'
p50
sg12
S'xxd75f3878f3d0405422633e35c3687ba9'
p51
sg14
S'Mozilla/5.0 (Linux; Android 4.4.4; ZTE G720T Build/KTU84P) AppleWebKit/537.36 (KHTML, like Gecko) Version/4.0 Chrome/37.0.0.0 Mobile MQQBrowser/6.8 TBS/036849 Safari/537.36 MicroMessenger/6.3.27.880 NetType/WIFI Language/zh_CN'
p52
sg16
S'5666fb9ad3085c68ee5243b630e87d85'
p53
sa.