(lp0
(dp1
S'user_id'
p2
S'29479'
p3
sS'data_id'
p4
S'26'
p5
sS'ip'
p6
S'5b48c78089c6f21a864d9e71cbaf0c9d'
p7
sS'phone_B'
p8
S'xx17d1012a6993a2731a0e118b58cbe659'
p9
sS'phone_C'
p10
S'xx33da841852f262a0d8d976e467a70d31'
p11
sS'phone_A'
p12
S'xxd8ea3481c96f6447a2139f6d60be78cd'
p13
sS'user_agent'
p14
S'Mozilla/5.0 (Linux; Android 5.0.2; Redmi Note 3 Build/LRX22G) AppleWebKit/537.36 (KHTML, like Gecko) Version/4.0 Chrome/37.0.0.0 Mobile MQQBrowser/6.8 TBS/036849 Safari/537.36 MicroMessenger/6.3.27.880 NetType/WIFI Language/zh_CN'
p15
sS'ua'
p16
S'a4c2670cc8e6857a906a17fd7388d62c'
p17
sa(dp18
g2
S'29479'
p19
sg4
S'38'
p20
sg6
S'5b48c78089c6f21a864d9e71cbaf0c9d'
p21
sg8
S'xx17d1012a6993a2731a0e118b58cbe659'
p22
sg10
S'xx33da841852f262a0d8d976e467a70d31'
p23
sg12
S'xxd8ea3481c96f6447a2139f6d60be78cd'
p24
sg14
S'Mozilla/5.0 (Linux; Android 5.0.2; Redmi Note 3 Build/LRX22G) AppleWebKit/537.36 (KHTML, like Gecko) Version/4.0 Chrome/37.0.0.0 Mobile MQQBrowser/6.8 TBS/036849 Safari/537.36 MicroMessenger/6.3.27.880 NetType/WIFI Language/zh_CN'
p25
sg16
S'a4c2670cc8e6857a906a17fd7388d62c'
p26
sa(dp27
g2
S'29479'
p28
sg4
S'44'
p29
sg6
S'5b48c78089c6f21a864d9e71cbaf0c9d'
p30
sg8
S'xx17d1012a6993a2731a0e118b58cbe659'
p31
sg10
S'xx33da841852f262a0d8d976e467a70d31'
p32
sg12
S'xxd8ea3481c96f6447a2139f6d60be78cd'
p33
sg14
S'Mozilla/5.0 (Linux; Android 5.0.2; Redmi Note 3 Build/LRX22G) AppleWebKit/537.36 (KHTML, like Gecko) Version/4.0 Chrome/37.0.0.0 Mobile MQQBrowser/6.8 TBS/036849 Safari/537.36 MicroMessenger/6.3.27.880 NetType/WIFI Language/zh_CN'
p34
sg16
S'a4c2670cc8e6857a906a17fd7388d62c'
p35
sa(dp36
g2
S'29479'
p37
sg4
S'51'
p38
sg6
S'5b48c78089c6f21a864d9e71cbaf0c9d'
p39
sg8
S'xx17d1012a6993a2731a0e118b58cbe659'
p40
sg10
S'xx33da841852f262a0d8d976e467a70d31'
p41
sg12
S'xxd8ea3481c96f6447a2139f6d60be78cd'
p42
sg14
S'Mozilla/5.0 (Linux; Android 5.0.2; Redmi Note 3 Build/LRX22G) AppleWebKit/537.36 (KHTML, like Gecko) Version/4.0 Chrome/37.0.0.0 Mobile MQQBrowser/6.8 TBS/036849 Safari/537.36 MicroMessenger/6.3.27.880 NetType/WIFI Language/zh_CN'
p43
sg16
S'a4c2670cc8e6857a906a17fd7388d62c'
p44
sa(dp45
g2
S'29479'
p46
sg4
S'59'
p47
sg6
S'5b48c78089c6f21a864d9e71cbaf0c9d'
p48
sg8
S'xx17d1012a6993a2731a0e118b58cbe659'
p49
sg10
S'xx33da841852f262a0d8d976e467a70d31'
p50
sg12
S'xxd8ea3481c96f6447a2139f6d60be78cd'
p51
sg14
S'Mozilla/5.0 (Linux; Android 5.0.2; Redmi Note 3 Build/LRX22G) AppleWebKit/537.36 (KHTML, like Gecko) Version/4.0 Chrome/37.0.0.0 Mobile MQQBrowser/6.8 TBS/036849 Safari/537.36 MicroMessenger/6.3.27.880 NetType/WIFI Language/zh_CN'
p52
sg16
S'a4c2670cc8e6857a906a17fd7388d62c'
p53
sa(dp54
g2
S'29479'
p55
sg4
S'69'
p56
sg6
S'5b48c78089c6f21a864d9e71cbaf0c9d'
p57
sg8
S'xx17d1012a6993a2731a0e118b58cbe659'
p58
sg10
S'xx33da841852f262a0d8d976e467a70d31'
p59
sg12
S'xxd8ea3481c96f6447a2139f6d60be78cd'
p60
sg14
S'Mozilla/5.0 (Linux; Android 5.0.2; Redmi Note 3 Build/LRX22G) AppleWebKit/537.36 (KHTML, like Gecko) Version/4.0 Chrome/37.0.0.0 Mobile MQQBrowser/6.8 TBS/036849 Safari/537.36 MicroMessenger/6.3.27.880 NetType/WIFI Language/zh_CN'
p61
sg16
S'a4c2670cc8e6857a906a17fd7388d62c'
p62
sa(dp63
g2
S'27517'
p64
sg4
S'70'
p65
sg6
S'5b48c78089c6f21a864d9e71cbaf0c9d'
p66
sg8
S'xx17d1012a6993a2731a0e118b58cbe659'
p67
sg10
S'xx33da841852f262a0d8d976e467a70d31'
p68
sg12
S'xxd8ea3481c96f6447a2139f6d60be78cd'
p69
sg14
S'Mozilla/5.0 (Linux; Android 5.0.2; Redmi Note 3 Build/LRX22G) AppleWebKit/537.36 (KHTML, like Gecko) Version/4.0 Chrome/37.0.0.0 Mobile MQQBrowser/6.8 TBS/036849 Safari/537.36 MicroMessenger/6.3.27.880 NetType/WIFI Language/zh_CN'
p70
sg16
S'a4c2670cc8e6857a906a17fd7388d62c'
p71
sa(dp72
g2
S'29479'
p73
sg4
S'79'
p74
sg6
S'5b48c78089c6f21a864d9e71cbaf0c9d'
p75
sg8
S'xx17d1012a6993a2731a0e118b58cbe659'
p76
sg10
S'xx33da841852f262a0d8d976e467a70d31'
p77
sg12
S'xxd8ea3481c96f6447a2139f6d60be78cd'
p78
sg14
S'Mozilla/5.0 (Linux; Android 5.0.2; Redmi Note 3 Build/LRX22G) AppleWebKit/537.36 (KHTML, like Gecko) Version/4.0 Chrome/37.0.0.0 Mobile MQQBrowser/6.8 TBS/036849 Safari/537.36 MicroMessenger/6.3.27.880 NetType/WIFI Language/zh_CN'
p79
sg16
S'a4c2670cc8e6857a906a17fd7388d62c'
p80
sa(dp81
g2
S'27517'
p82
sg4
S'85'
p83
sg6
S'5b48c78089c6f21a864d9e71cbaf0c9d'
p84
sg8
S'xx17d1012a6993a2731a0e118b58cbe659'
p85
sg10
S'xx33da841852f262a0d8d976e467a70d31'
p86
sg12
S'xxd8ea3481c96f6447a2139f6d60be78cd'
p87
sg14
S'Mozilla/5.0 (Linux; Android 5.0.2; Redmi Note 3 Build/LRX22G) AppleWebKit/537.36 (KHTML, like Gecko) Version/4.0 Chrome/37.0.0.0 Mobile MQQBrowser/6.8 TBS/036849 Safari/537.36 MicroMessenger/6.3.27.880 NetType/WIFI Language/zh_CN'
p88
sg16
S'a4c2670cc8e6857a906a17fd7388d62c'
p89
sa(dp90
g2
S'29479'
p91
sg4
S'87'
p92
sg6
S'5b48c78089c6f21a864d9e71cbaf0c9d'
p93
sg8
S'xx17d1012a6993a2731a0e118b58cbe659'
p94
sg10
S'xx33da841852f262a0d8d976e467a70d31'
p95
sg12
S'xxd8ea3481c96f6447a2139f6d60be78cd'
p96
sg14
S'Mozilla/5.0 (Linux; Android 5.0.2; Redmi Note 3 Build/LRX22G) AppleWebKit/537.36 (KHTML, like Gecko) Version/4.0 Chrome/37.0.0.0 Mobile MQQBrowser/6.8 TBS/036849 Safari/537.36 MicroMessenger/6.3.27.880 NetType/WIFI Language/zh_CN'
p97
sg16
S'a4c2670cc8e6857a906a17fd7388d62c'
p98
sa(dp99
g2
S'27517'
p100
sg4
S'92'
p101
sg6
S'5b48c78089c6f21a864d9e71cbaf0c9d'
p102
sg8
S'xx17d1012a6993a2731a0e118b58cbe659'
p103
sg10
S'xx33da841852f262a0d8d976e467a70d31'
p104
sg12
S'xxd8ea3481c96f6447a2139f6d60be78cd'
p105
sg14
S'Mozilla/5.0 (Linux; Android 5.0.2; Redmi Note 3 Build/LRX22G) AppleWebKit/537.36 (KHTML, like Gecko) Version/4.0 Chrome/37.0.0.0 Mobile MQQBrowser/6.8 TBS/036849 Safari/537.36 MicroMessenger/6.3.27.880 NetType/WIFI Language/zh_CN'
p106
sg16
S'a4c2670cc8e6857a906a17fd7388d62c'
p107
sa(dp108
g2
S'29479'
p109
sg4
S'95'
p110
sg6
S'5b48c78089c6f21a864d9e71cbaf0c9d'
p111
sg8
S'xx17d1012a6993a2731a0e118b58cbe659'
p112
sg10
S'xx33da841852f262a0d8d976e467a70d31'
p113
sg12
S'xxd8ea3481c96f6447a2139f6d60be78cd'
p114
sg14
S'Mozilla/5.0 (Linux; Android 5.0.2; Redmi Note 3 Build/LRX22G) AppleWebKit/537.36 (KHTML, like Gecko) Version/4.0 Chrome/37.0.0.0 Mobile MQQBrowser/6.8 TBS/036849 Safari/537.36 MicroMessenger/6.3.27.880 NetType/WIFI Language/zh_CN'
p115
sg16
S'a4c2670cc8e6857a906a17fd7388d62c'
p116
sa(dp117
g2
S'27517'
p118
sg4
S'98'
p119
sg6
S'5b48c78089c6f21a864d9e71cbaf0c9d'
p120
sg8
S'xx17d1012a6993a2731a0e118b58cbe659'
p121
sg10
S'xx33da841852f262a0d8d976e467a70d31'
p122
sg12
S'xxd8ea3481c96f6447a2139f6d60be78cd'
p123
sg14
S'Mozilla/5.0 (Linux; Android 5.0.2; Redmi Note 3 Build/LRX22G) AppleWebKit/537.36 (KHTML, like Gecko) Version/4.0 Chrome/37.0.0.0 Mobile MQQBrowser/6.8 TBS/036849 Safari/537.36 MicroMessenger/6.3.27.880 NetType/WIFI Language/zh_CN'
p124
sg16
S'a4c2670cc8e6857a906a17fd7388d62c'
p125
sa(dp126
g2
S'29479'
p127
sg4
S'102'
p128
sg6
S'5b48c78089c6f21a864d9e71cbaf0c9d'
p129
sg8
S'xx17d1012a6993a2731a0e118b58cbe659'
p130
sg10
S'xx33da841852f262a0d8d976e467a70d31'
p131
sg12
S'xxd8ea3481c96f6447a2139f6d60be78cd'
p132
sg14
S'Mozilla/5.0 (Linux; Android 5.0.2; Redmi Note 3 Build/LRX22G) AppleWebKit/537.36 (KHTML, like Gecko) Version/4.0 Chrome/37.0.0.0 Mobile MQQBrowser/6.8 TBS/036849 Safari/537.36 MicroMessenger/6.3.27.880 NetType/WIFI Language/zh_CN'
p133
sg16
S'a4c2670cc8e6857a906a17fd7388d62c'
p134
sa(dp135
g2
S'27517'
p136
sg4
S'110'
p137
sg6
S'5b48c78089c6f21a864d9e71cbaf0c9d'
p138
sg8
S'xx17d1012a6993a2731a0e118b58cbe659'
p139
sg10
S'xx33da841852f262a0d8d976e467a70d31'
p140
sg12
S'xxd8ea3481c96f6447a2139f6d60be78cd'
p141
sg14
S'Mozilla/5.0 (Linux; Android 5.0.2; Redmi Note 3 Build/LRX22G) AppleWebKit/537.36 (KHTML, like Gecko) Version/4.0 Chrome/37.0.0.0 Mobile MQQBrowser/6.8 TBS/036849 Safari/537.36 MicroMessenger/6.3.27.880 NetType/WIFI Language/zh_CN'
p142
sg16
S'a4c2670cc8e6857a906a17fd7388d62c'
p143
sa(dp144
g2
S'27517'
p145
sg4
S'119'
p146
sg6
S'5b48c78089c6f21a864d9e71cbaf0c9d'
p147
sg8
S'xx17d1012a6993a2731a0e118b58cbe659'
p148
sg10
S'xx33da841852f262a0d8d976e467a70d31'
p149
sg12
S'xxd8ea3481c96f6447a2139f6d60be78cd'
p150
sg14
S'Mozilla/5.0 (Linux; Android 5.0.2; Redmi Note 3 Build/LRX22G) AppleWebKit/537.36 (KHTML, like Gecko) Version/4.0 Chrome/37.0.0.0 Mobile MQQBrowser/6.8 TBS/036849 Safari/537.36 MicroMessenger/6.3.27.880 NetType/WIFI Language/zh_CN'
p151
sg16
S'a4c2670cc8e6857a906a17fd7388d62c'
p152
sa(dp153
g2
S'27517'
p154
sg4
S'125'
p155
sg6
S'5b48c78089c6f21a864d9e71cbaf0c9d'
p156
sg8
S'xx17d1012a6993a2731a0e118b58cbe659'
p157
sg10
S'xx33da841852f262a0d8d976e467a70d31'
p158
sg12
S'xxd8ea3481c96f6447a2139f6d60be78cd'
p159
sg14
S'Mozilla/5.0 (Linux; Android 5.0.2; Redmi Note 3 Build/LRX22G) AppleWebKit/537.36 (KHTML, like Gecko) Version/4.0 Chrome/37.0.0.0 Mobile MQQBrowser/6.8 TBS/036849 Safari/537.36 MicroMessenger/6.3.27.880 NetType/WIFI Language/zh_CN'
p160
sg16
S'a4c2670cc8e6857a906a17fd7388d62c'
p161
sa(dp162
g2
S'27517'
p163
sg4
S'136'
p164
sg6
S'5b48c78089c6f21a864d9e71cbaf0c9d'
p165
sg8
S'xx17d1012a6993a2731a0e118b58cbe659'
p166
sg10
S'xx33da841852f262a0d8d976e467a70d31'
p167
sg12
S'xxd8ea3481c96f6447a2139f6d60be78cd'
p168
sg14
S'Mozilla/5.0 (Linux; Android 5.0.2; Redmi Note 3 Build/LRX22G) AppleWebKit/537.36 (KHTML, like Gecko) Version/4.0 Chrome/37.0.0.0 Mobile MQQBrowser/6.8 TBS/036849 Safari/537.36 MicroMessenger/6.3.27.880 NetType/WIFI Language/zh_CN'
p169
sg16
S'a4c2670cc8e6857a906a17fd7388d62c'
p170
sa(dp171
g2
S'27517'
p172
sg4
S'148'
p173
sg6
S'5b48c78089c6f21a864d9e71cbaf0c9d'
p174
sg8
S'xx17d1012a6993a2731a0e118b58cbe659'
p175
sg10
S'xx33da841852f262a0d8d976e467a70d31'
p176
sg12
S'xxd8ea3481c96f6447a2139f6d60be78cd'
p177
sg14
S'Mozilla/5.0 (Linux; Android 5.0.2; Redmi Note 3 Build/LRX22G) AppleWebKit/537.36 (KHTML, like Gecko) Version/4.0 Chrome/37.0.0.0 Mobile MQQBrowser/6.8 TBS/036849 Safari/537.36 MicroMessenger/6.3.27.880 NetType/WIFI Language/zh_CN'
p178
sg16
S'a4c2670cc8e6857a906a17fd7388d62c'
p179
sa(dp180
g2
S'27517'
p181
sg4
S'163'
p182
sg6
S'5b48c78089c6f21a864d9e71cbaf0c9d'
p183
sg8
S'xx17d1012a6993a2731a0e118b58cbe659'
p184
sg10
S'xx33da841852f262a0d8d976e467a70d31'
p185
sg12
S'xxd8ea3481c96f6447a2139f6d60be78cd'
p186
sg14
S'Mozilla/5.0 (Linux; Android 5.0.2; Redmi Note 3 Build/LRX22G) AppleWebKit/537.36 (KHTML, like Gecko) Version/4.0 Chrome/37.0.0.0 Mobile MQQBrowser/6.8 TBS/036849 Safari/537.36 MicroMessenger/6.3.27.880 NetType/WIFI Language/zh_CN'
p187
sg16
S'a4c2670cc8e6857a906a17fd7388d62c'
p188
sa(dp189
g2
S'39797'
p190
sg4
S'169'
p191
sg6
S'7424a490a049e5ce539b9db9fea35724'
p192
sg8
S'xxbb5cda2950e08f0664f43ea86cedc3fe'
p193
sg10
S'xx33da841852f262a0d8d976e467a70d31'
p194
sg12
S'xxd8ea3481c96f6447a2139f6d60be78cd'
p195
sg14
S'Mozilla/5.0 (Linux; Android 5.0.2; Redmi Note 3 Build/LRX22G) AppleWebKit/537.36 (KHTML, like Gecko) Version/4.0 Chrome/37.0.0.0 Mobile MQQBrowser/6.8 TBS/036849 Safari/537.36 MicroMessenger/6.3.27.880 NetType/cmnet Language/zh_CN'
p196
sg16
S'fe0295c57b5e24b4e8612aa732b1f27f'
p197
sa(dp198
g2
S'27517'
p199
sg4
S'174'
p200
sg6
S'5b48c78089c6f21a864d9e71cbaf0c9d'
p201
sg8
S'xx17d1012a6993a2731a0e118b58cbe659'
p202
sg10
S'xx33da841852f262a0d8d976e467a70d31'
p203
sg12
S'xxd8ea3481c96f6447a2139f6d60be78cd'
p204
sg14
S'Mozilla/5.0 (Linux; Android 5.0.2; Redmi Note 3 Build/LRX22G) AppleWebKit/537.36 (KHTML, like Gecko) Version/4.0 Chrome/37.0.0.0 Mobile MQQBrowser/6.8 TBS/036849 Safari/537.36 MicroMessenger/6.3.27.880 NetType/WIFI Language/zh_CN'
p205
sg16
S'a4c2670cc8e6857a906a17fd7388d62c'
p206
sa(dp207
g2
S'39797'
p208
sg4
S'183'
p209
sg6
S'7424a490a049e5ce539b9db9fea35724'
p210
sg8
S'xxbb5cda2950e08f0664f43ea86cedc3fe'
p211
sg10
S'xx33da841852f262a0d8d976e467a70d31'
p212
sg12
S'xxd8ea3481c96f6447a2139f6d60be78cd'
p213
sg14
S'Mozilla/5.0 (Linux; Android 5.0.2; Redmi Note 3 Build/LRX22G) AppleWebKit/537.36 (KHTML, like Gecko) Version/4.0 Chrome/37.0.0.0 Mobile MQQBrowser/6.8 TBS/036849 Safari/537.36 MicroMessenger/6.3.27.880 NetType/cmnet Language/zh_CN'
p214
sg16
S'fe0295c57b5e24b4e8612aa732b1f27f'
p215
sa(dp216
g2
S'27517'
p217
sg4
S'187'
p218
sg6
S'5b48c78089c6f21a864d9e71cbaf0c9d'
p219
sg8
S'xx17d1012a6993a2731a0e118b58cbe659'
p220
sg10
S'xx33da841852f262a0d8d976e467a70d31'
p221
sg12
S'xxd8ea3481c96f6447a2139f6d60be78cd'
p222
sg14
S'Mozilla/5.0 (Linux; Android 5.0.2; Redmi Note 3 Build/LRX22G) AppleWebKit/537.36 (KHTML, like Gecko) Version/4.0 Chrome/37.0.0.0 Mobile MQQBrowser/6.8 TBS/036849 Safari/537.36 MicroMessenger/6.3.27.880 NetType/WIFI Language/zh_CN'
p223
sg16
S'a4c2670cc8e6857a906a17fd7388d62c'
p224
sa(dp225
g2
S'39797'
p226
sg4
S'195'
p227
sg6
S'7424a490a049e5ce539b9db9fea35724'
p228
sg8
S'xxbb5cda2950e08f0664f43ea86cedc3fe'
p229
sg10
S'xx33da841852f262a0d8d976e467a70d31'
p230
sg12
S'xxd8ea3481c96f6447a2139f6d60be78cd'
p231
sg14
S'Mozilla/5.0 (Linux; Android 5.0.2; Redmi Note 3 Build/LRX22G) AppleWebKit/537.36 (KHTML, like Gecko) Version/4.0 Chrome/37.0.0.0 Mobile MQQBrowser/6.8 TBS/036849 Safari/537.36 MicroMessenger/6.3.27.880 NetType/cmnet Language/zh_CN'
p232
sg16
S'fe0295c57b5e24b4e8612aa732b1f27f'
p233
sa(dp234
g2
S'27517'
p235
sg4
S'199'
p236
sg6
S'5b48c78089c6f21a864d9e71cbaf0c9d'
p237
sg8
S'xx17d1012a6993a2731a0e118b58cbe659'
p238
sg10
S'xx33da841852f262a0d8d976e467a70d31'
p239
sg12
S'xxd8ea3481c96f6447a2139f6d60be78cd'
p240
sg14
S'Mozilla/5.0 (Linux; Android 5.0.2; Redmi Note 3 Build/LRX22G) AppleWebKit/537.36 (KHTML, like Gecko) Version/4.0 Chrome/37.0.0.0 Mobile MQQBrowser/6.8 TBS/036849 Safari/537.36 MicroMessenger/6.3.27.880 NetType/WIFI Language/zh_CN'
p241
sg16
S'a4c2670cc8e6857a906a17fd7388d62c'
p242
sa(dp243
g2
S'27517'
p244
sg4
S'220'
p245
sg6
S'5b48c78089c6f21a864d9e71cbaf0c9d'
p246
sg8
S'xx17d1012a6993a2731a0e118b58cbe659'
p247
sg10
S'xx33da841852f262a0d8d976e467a70d31'
p248
sg12
S'xxd8ea3481c96f6447a2139f6d60be78cd'
p249
sg14
S'Mozilla/5.0 (Linux; Android 5.0.2; Redmi Note 3 Build/LRX22G) AppleWebKit/537.36 (KHTML, like Gecko) Version/4.0 Chrome/37.0.0.0 Mobile MQQBrowser/6.8 TBS/036849 Safari/537.36 MicroMessenger/6.3.27.880 NetType/WIFI Language/zh_CN'
p250
sg16
S'a4c2670cc8e6857a906a17fd7388d62c'
p251
sa(dp252
g2
S'39797'
p253
sg4
S'222'
p254
sg6
S'7424a490a049e5ce539b9db9fea35724'
p255
sg8
S'xx17d1012a6993a2731a0e118b58cbe659'
p256
sg10
S'xx33da841852f262a0d8d976e467a70d31'
p257
sg12
S'xxd8ea3481c96f6447a2139f6d60be78cd'
p258
sg14
S'Mozilla/5.0 (Linux; Android 5.0.2; Redmi Note 3 Build/LRX22G) AppleWebKit/537.36 (KHTML, like Gecko) Version/4.0 Chrome/37.0.0.0 Mobile MQQBrowser/6.8 TBS/036849 Safari/537.36 MicroMessenger/6.3.27.880 NetType/WIFI Language/zh_CN'
p259
sg16
S'a4c2670cc8e6857a906a17fd7388d62c'
p260
sa(dp261
g2
S'27517'
p262
sg4
S'229'
p263
sg6
S'5b48c78089c6f21a864d9e71cbaf0c9d'
p264
sg8
S'xx17d1012a6993a2731a0e118b58cbe659'
p265
sg10
S'xx33da841852f262a0d8d976e467a70d31'
p266
sg12
S'xxd8ea3481c96f6447a2139f6d60be78cd'
p267
sg14
S'Mozilla/5.0 (Linux; Android 5.0.2; Redmi Note 3 Build/LRX22G) AppleWebKit/537.36 (KHTML, like Gecko) Version/4.0 Chrome/37.0.0.0 Mobile MQQBrowser/6.8 TBS/036849 Safari/537.36 MicroMessenger/6.3.27.880 NetType/WIFI Language/zh_CN'
p268
sg16
S'a4c2670cc8e6857a906a17fd7388d62c'
p269
sa(dp270
g2
S'39797'
p271
sg4
S'232'
p272
sg6
S'7424a490a049e5ce539b9db9fea35724'
p273
sg8
S'xx17d1012a6993a2731a0e118b58cbe659'
p274
sg10
S'xx33da841852f262a0d8d976e467a70d31'
p275
sg12
S'xxd8ea3481c96f6447a2139f6d60be78cd'
p276
sg14
S'Mozilla/5.0 (Linux; Android 5.0.2; Redmi Note 3 Build/LRX22G) AppleWebKit/537.36 (KHTML, like Gecko) Version/4.0 Chrome/37.0.0.0 Mobile MQQBrowser/6.8 TBS/036849 Safari/537.36 MicroMessenger/6.3.27.880 NetType/WIFI Language/zh_CN'
p277
sg16
S'a4c2670cc8e6857a906a17fd7388d62c'
p278
sa(dp279
g2
S'27517'
p280
sg4
S'241'
p281
sg6
S'5b48c78089c6f21a864d9e71cbaf0c9d'
p282
sg8
S'xx17d1012a6993a2731a0e118b58cbe659'
p283
sg10
S'xx33da841852f262a0d8d976e467a70d31'
p284
sg12
S'xxd8ea3481c96f6447a2139f6d60be78cd'
p285
sg14
S'Mozilla/5.0 (Linux; Android 5.0.2; Redmi Note 3 Build/LRX22G) AppleWebKit/537.36 (KHTML, like Gecko) Version/4.0 Chrome/37.0.0.0 Mobile MQQBrowser/6.8 TBS/036849 Safari/537.36 MicroMessenger/6.3.27.880 NetType/WIFI Language/zh_CN'
p286
sg16
S'a4c2670cc8e6857a906a17fd7388d62c'
p287
sa(dp288
g2
S'39797'
p289
sg4
S'252'
p290
sg6
S'7424a490a049e5ce539b9db9fea35724'
p291
sg8
S'xx17d1012a6993a2731a0e118b58cbe659'
p292
sg10
S'xx33da841852f262a0d8d976e467a70d31'
p293
sg12
S'xxd8ea3481c96f6447a2139f6d60be78cd'
p294
sg14
S'Mozilla/5.0 (Linux; Android 5.0.2; Redmi Note 3 Build/LRX22G) AppleWebKit/537.36 (KHTML, like Gecko) Version/4.0 Chrome/37.0.0.0 Mobile MQQBrowser/6.8 TBS/036849 Safari/537.36 MicroMessenger/6.3.27.880 NetType/WIFI Language/zh_CN'
p295
sg16
S'a4c2670cc8e6857a906a17fd7388d62c'
p296
sa(dp297
g2
S'29479'
p298
sg4
S'253'
p299
sg6
S'5b48c78089c6f21a864d9e71cbaf0c9d'
p300
sg8
S'xx17d1012a6993a2731a0e118b58cbe659'
p301
sg10
S'xx33da841852f262a0d8d976e467a70d31'
p302
sg12
S'xxd8ea3481c96f6447a2139f6d60be78cd'
p303
sg14
S'Mozilla/5.0 (Linux; Android 5.0.2; Redmi Note 3 Build/LRX22G) AppleWebKit/537.36 (KHTML, like Gecko) Version/4.0 Chrome/37.0.0.0 Mobile MQQBrowser/6.8 TBS/036849 Safari/537.36 MicroMessenger/6.3.27.880 NetType/WIFI Language/zh_CN'
p304
sg16
S'a4c2670cc8e6857a906a17fd7388d62c'
p305
sa(dp306
g2
S'27517'
p307
sg4
S'256'
p308
sg6
S'5b48c78089c6f21a864d9e71cbaf0c9d'
p309
sg8
S'xx17d1012a6993a2731a0e118b58cbe659'
p310
sg10
S'xx33da841852f262a0d8d976e467a70d31'
p311
sg12
S'xxd8ea3481c96f6447a2139f6d60be78cd'
p312
sg14
S'Mozilla/5.0 (Linux; Android 5.0.2; Redmi Note 3 Build/LRX22G) AppleWebKit/537.36 (KHTML, like Gecko) Version/4.0 Chrome/37.0.0.0 Mobile MQQBrowser/6.8 TBS/036849 Safari/537.36 MicroMessenger/6.3.27.880 NetType/WIFI Language/zh_CN'
p313
sg16
S'a4c2670cc8e6857a906a17fd7388d62c'
p314
sa(dp315
g2
S'39797'
p316
sg4
S'264'
p317
sg6
S'7424a490a049e5ce539b9db9fea35724'
p318
sg8
S'xx17d1012a6993a2731a0e118b58cbe659'
p319
sg10
S'xx33da841852f262a0d8d976e467a70d31'
p320
sg12
S'xxd8ea3481c96f6447a2139f6d60be78cd'
p321
sg14
S'Mozilla/5.0 (Linux; Android 5.0.2; Redmi Note 3 Build/LRX22G) AppleWebKit/537.36 (KHTML, like Gecko) Version/4.0 Chrome/37.0.0.0 Mobile MQQBrowser/6.8 TBS/036849 Safari/537.36 MicroMessenger/6.3.27.880 NetType/WIFI Language/zh_CN'
p322
sg16
S'a4c2670cc8e6857a906a17fd7388d62c'
p323
sa(dp324
g2
S'29479'
p325
sg4
S'266'
p326
sg6
S'5b48c78089c6f21a864d9e71cbaf0c9d'
p327
sg8
S'xx17d1012a6993a2731a0e118b58cbe659'
p328
sg10
S'xx33da841852f262a0d8d976e467a70d31'
p329
sg12
S'xxd8ea3481c96f6447a2139f6d60be78cd'
p330
sg14
S'Mozilla/5.0 (Linux; Android 5.0.2; Redmi Note 3 Build/LRX22G) AppleWebKit/537.36 (KHTML, like Gecko) Version/4.0 Chrome/37.0.0.0 Mobile MQQBrowser/6.8 TBS/036849 Safari/537.36 MicroMessenger/6.3.27.880 NetType/WIFI Language/zh_CN'
p331
sg16
S'a4c2670cc8e6857a906a17fd7388d62c'
p332
sa(dp333
g2
S'27517'
p334
sg4
S'269'
p335
sg6
S'5b48c78089c6f21a864d9e71cbaf0c9d'
p336
sg8
S'xx17d1012a6993a2731a0e118b58cbe659'
p337
sg10
S'xx33da841852f262a0d8d976e467a70d31'
p338
sg12
S'xxd8ea3481c96f6447a2139f6d60be78cd'
p339
sg14
S'Mozilla/5.0 (Linux; Android 5.0.2; Redmi Note 3 Build/LRX22G) AppleWebKit/537.36 (KHTML, like Gecko) Version/4.0 Chrome/37.0.0.0 Mobile MQQBrowser/6.8 TBS/036849 Safari/537.36 MicroMessenger/6.3.27.880 NetType/WIFI Language/zh_CN'
p340
sg16
S'a4c2670cc8e6857a906a17fd7388d62c'
p341
sa(dp342
g2
S'29479'
p343
sg4
S'275'
p344
sg6
S'5b48c78089c6f21a864d9e71cbaf0c9d'
p345
sg8
S'xx17d1012a6993a2731a0e118b58cbe659'
p346
sg10
S'xx33da841852f262a0d8d976e467a70d31'
p347
sg12
S'xxd8ea3481c96f6447a2139f6d60be78cd'
p348
sg14
S'Mozilla/5.0 (Linux; Android 5.0.2; Redmi Note 3 Build/LRX22G) AppleWebKit/537.36 (KHTML, like Gecko) Version/4.0 Chrome/37.0.0.0 Mobile MQQBrowser/6.8 TBS/036849 Safari/537.36 MicroMessenger/6.3.27.880 NetType/WIFI Language/zh_CN'
p349
sg16
S'a4c2670cc8e6857a906a17fd7388d62c'
p350
sa(dp351
g2
S'27517'
p352
sg4
S'279'
p353
sg6
S'5b48c78089c6f21a864d9e71cbaf0c9d'
p354
sg8
S'xx17d1012a6993a2731a0e118b58cbe659'
p355
sg10
S'xx33da841852f262a0d8d976e467a70d31'
p356
sg12
S'xxd8ea3481c96f6447a2139f6d60be78cd'
p357
sg14
S'Mozilla/5.0 (Linux; Android 5.0.2; Redmi Note 3 Build/LRX22G) AppleWebKit/537.36 (KHTML, like Gecko) Version/4.0 Chrome/37.0.0.0 Mobile MQQBrowser/6.8 TBS/036849 Safari/537.36 MicroMessenger/6.3.27.880 NetType/WIFI Language/zh_CN'
p358
sg16
S'a4c2670cc8e6857a906a17fd7388d62c'
p359
sa(dp360
g2
S'29479'
p361
sg4
S'281'
p362
sg6
S'5b48c78089c6f21a864d9e71cbaf0c9d'
p363
sg8
S'xx17d1012a6993a2731a0e118b58cbe659'
p364
sg10
S'xx33da841852f262a0d8d976e467a70d31'
p365
sg12
S'xxd8ea3481c96f6447a2139f6d60be78cd'
p366
sg14
S'Mozilla/5.0 (Linux; Android 5.0.2; Redmi Note 3 Build/LRX22G) AppleWebKit/537.36 (KHTML, like Gecko) Version/4.0 Chrome/37.0.0.0 Mobile MQQBrowser/6.8 TBS/036849 Safari/537.36 MicroMessenger/6.3.27.880 NetType/WIFI Language/zh_CN'
p367
sg16
S'a4c2670cc8e6857a906a17fd7388d62c'
p368
sa(dp369
g2
S'27517'
p370
sg4
S'288'
p371
sg6
S'5b48c78089c6f21a864d9e71cbaf0c9d'
p372
sg8
S'xx17d1012a6993a2731a0e118b58cbe659'
p373
sg10
S'xx33da841852f262a0d8d976e467a70d31'
p374
sg12
S'xxd8ea3481c96f6447a2139f6d60be78cd'
p375
sg14
S'Mozilla/5.0 (Linux; Android 5.0.2; Redmi Note 3 Build/LRX22G) AppleWebKit/537.36 (KHTML, like Gecko) Version/4.0 Chrome/37.0.0.0 Mobile MQQBrowser/6.8 TBS/036849 Safari/537.36 MicroMessenger/6.3.27.880 NetType/WIFI Language/zh_CN'
p376
sg16
S'a4c2670cc8e6857a906a17fd7388d62c'
p377
sa(dp378
g2
S'39797'
p379
sg4
S'289'
p380
sg6
S'7424a490a049e5ce539b9db9fea35724'
p381
sg8
S'xx17d1012a6993a2731a0e118b58cbe659'
p382
sg10
S'xx33da841852f262a0d8d976e467a70d31'
p383
sg12
S'xxd8ea3481c96f6447a2139f6d60be78cd'
p384
sg14
S'Mozilla/5.0 (Linux; Android 5.0.2; Redmi Note 3 Build/LRX22G) AppleWebKit/537.36 (KHTML, like Gecko) Version/4.0 Chrome/37.0.0.0 Mobile MQQBrowser/6.8 TBS/036849 Safari/537.36 MicroMessenger/6.3.27.880 NetType/WIFI Language/zh_CN'
p385
sg16
S'a4c2670cc8e6857a906a17fd7388d62c'
p386
sa(dp387
g2
S'29479'
p388
sg4
S'293'
p389
sg6
S'5b48c78089c6f21a864d9e71cbaf0c9d'
p390
sg8
S'xx17d1012a6993a2731a0e118b58cbe659'
p391
sg10
S'xx33da841852f262a0d8d976e467a70d31'
p392
sg12
S'xxd8ea3481c96f6447a2139f6d60be78cd'
p393
sg14
S'Mozilla/5.0 (Linux; Android 5.0.2; Redmi Note 3 Build/LRX22G) AppleWebKit/537.36 (KHTML, like Gecko) Version/4.0 Chrome/37.0.0.0 Mobile MQQBrowser/6.8 TBS/036849 Safari/537.36 MicroMessenger/6.3.27.880 NetType/WIFI Language/zh_CN'
p394
sg16
S'a4c2670cc8e6857a906a17fd7388d62c'
p395
sa(dp396
g2
S'39797'
p397
sg4
S'303'
p398
sg6
S'7424a490a049e5ce539b9db9fea35724'
p399
sg8
S'xx17d1012a6993a2731a0e118b58cbe659'
p400
sg10
S'xx33da841852f262a0d8d976e467a70d31'
p401
sg12
S'xxd8ea3481c96f6447a2139f6d60be78cd'
p402
sg14
S'Mozilla/5.0 (Linux; Android 5.0.2; Redmi Note 3 Build/LRX22G) AppleWebKit/537.36 (KHTML, like Gecko) Version/4.0 Chrome/37.0.0.0 Mobile MQQBrowser/6.8 TBS/036849 Safari/537.36 MicroMessenger/6.3.27.880 NetType/WIFI Language/zh_CN'
p403
sg16
S'a4c2670cc8e6857a906a17fd7388d62c'
p404
sa(dp405
g2
S'29479'
p406
sg4
S'311'
p407
sg6
S'5b48c78089c6f21a864d9e71cbaf0c9d'
p408
sg8
S'xx17d1012a6993a2731a0e118b58cbe659'
p409
sg10
S'xx33da841852f262a0d8d976e467a70d31'
p410
sg12
S'xxd8ea3481c96f6447a2139f6d60be78cd'
p411
sg14
S'Mozilla/5.0 (Linux; Android 5.0.2; Redmi Note 3 Build/LRX22G) AppleWebKit/537.36 (KHTML, like Gecko) Version/4.0 Chrome/37.0.0.0 Mobile MQQBrowser/6.8 TBS/036849 Safari/537.36 MicroMessenger/6.3.27.880 NetType/WIFI Language/zh_CN'
p412
sg16
S'a4c2670cc8e6857a906a17fd7388d62c'
p413
sa(dp414
g2
S'39797'
p415
sg4
S'320'
p416
sg6
S'7424a490a049e5ce539b9db9fea35724'
p417
sg8
S'xx17d1012a6993a2731a0e118b58cbe659'
p418
sg10
S'xx33da841852f262a0d8d976e467a70d31'
p419
sg12
S'xxd8ea3481c96f6447a2139f6d60be78cd'
p420
sg14
S'Mozilla/5.0 (Linux; Android 5.0.2; Redmi Note 3 Build/LRX22G) AppleWebKit/537.36 (KHTML, like Gecko) Version/4.0 Chrome/37.0.0.0 Mobile MQQBrowser/6.8 TBS/036849 Safari/537.36 MicroMessenger/6.3.27.880 NetType/WIFI Language/zh_CN'
p421
sg16
S'a4c2670cc8e6857a906a17fd7388d62c'
p422
sa(dp423
g2
S'29479'
p424
sg4
S'327'
p425
sg6
S'5b48c78089c6f21a864d9e71cbaf0c9d'
p426
sg8
S'xx17d1012a6993a2731a0e118b58cbe659'
p427
sg10
S'xx33da841852f262a0d8d976e467a70d31'
p428
sg12
S'xxd8ea3481c96f6447a2139f6d60be78cd'
p429
sg14
S'Mozilla/5.0 (Linux; Android 5.0.2; Redmi Note 3 Build/LRX22G) AppleWebKit/537.36 (KHTML, like Gecko) Version/4.0 Chrome/37.0.0.0 Mobile MQQBrowser/6.8 TBS/036849 Safari/537.36 MicroMessenger/6.3.27.880 NetType/WIFI Language/zh_CN'
p430
sg16
S'a4c2670cc8e6857a906a17fd7388d62c'
p431
sa(dp432
g2
S'39797'
p433
sg4
S'335'
p434
sg6
S'7424a490a049e5ce539b9db9fea35724'
p435
sg8
S'xx17d1012a6993a2731a0e118b58cbe659'
p436
sg10
S'xx33da841852f262a0d8d976e467a70d31'
p437
sg12
S'xxd8ea3481c96f6447a2139f6d60be78cd'
p438
sg14
S'Mozilla/5.0 (Linux; Android 5.0.2; Redmi Note 3 Build/LRX22G) AppleWebKit/537.36 (KHTML, like Gecko) Version/4.0 Chrome/37.0.0.0 Mobile MQQBrowser/6.8 TBS/036849 Safari/537.36 MicroMessenger/6.3.27.880 NetType/WIFI Language/zh_CN'
p439
sg16
S'a4c2670cc8e6857a906a17fd7388d62c'
p440
sa(dp441
g2
S'29479'
p442
sg4
S'343'
p443
sg6
S'5b48c78089c6f21a864d9e71cbaf0c9d'
p444
sg8
S'xx17d1012a6993a2731a0e118b58cbe659'
p445
sg10
S'xx33da841852f262a0d8d976e467a70d31'
p446
sg12
S'xxd8ea3481c96f6447a2139f6d60be78cd'
p447
sg14
S'Mozilla/5.0 (Linux; Android 5.0.2; Redmi Note 3 Build/LRX22G) AppleWebKit/537.36 (KHTML, like Gecko) Version/4.0 Chrome/37.0.0.0 Mobile MQQBrowser/6.8 TBS/036849 Safari/537.36 MicroMessenger/6.3.27.880 NetType/WIFI Language/zh_CN'
p448
sg16
S'a4c2670cc8e6857a906a17fd7388d62c'
p449
sa(dp450
g2
S'39797'
p451
sg4
S'352'
p452
sg6
S'7424a490a049e5ce539b9db9fea35724'
p453
sg8
S'xx17d1012a6993a2731a0e118b58cbe659'
p454
sg10
S'xx33da841852f262a0d8d976e467a70d31'
p455
sg12
S'xxd8ea3481c96f6447a2139f6d60be78cd'
p456
sg14
S'Mozilla/5.0 (Linux; Android 5.0.2; Redmi Note 3 Build/LRX22G) AppleWebKit/537.36 (KHTML, like Gecko) Version/4.0 Chrome/37.0.0.0 Mobile MQQBrowser/6.8 TBS/036849 Safari/537.36 MicroMessenger/6.3.27.880 NetType/WIFI Language/zh_CN'
p457
sg16
S'a4c2670cc8e6857a906a17fd7388d62c'
p458
sa(dp459
g2
S'29479'
p460
sg4
S'359'
p461
sg6
S'5b48c78089c6f21a864d9e71cbaf0c9d'
p462
sg8
S'xx17d1012a6993a2731a0e118b58cbe659'
p463
sg10
S'xx33da841852f262a0d8d976e467a70d31'
p464
sg12
S'xxd8ea3481c96f6447a2139f6d60be78cd'
p465
sg14
S'Mozilla/5.0 (Linux; Android 5.0.2; Redmi Note 3 Build/LRX22G) AppleWebKit/537.36 (KHTML, like Gecko) Version/4.0 Chrome/37.0.0.0 Mobile MQQBrowser/6.8 TBS/036849 Safari/537.36 MicroMessenger/6.3.27.880 NetType/WIFI Language/zh_CN'
p466
sg16
S'a4c2670cc8e6857a906a17fd7388d62c'
p467
sa(dp468
g2
S'39797'
p469
sg4
S'366'
p470
sg6
S'7424a490a049e5ce539b9db9fea35724'
p471
sg8
S'xx17d1012a6993a2731a0e118b58cbe659'
p472
sg10
S'xx33da841852f262a0d8d976e467a70d31'
p473
sg12
S'xxd8ea3481c96f6447a2139f6d60be78cd'
p474
sg14
S'Mozilla/5.0 (Linux; Android 5.0.2; Redmi Note 3 Build/LRX22G) AppleWebKit/537.36 (KHTML, like Gecko) Version/4.0 Chrome/37.0.0.0 Mobile MQQBrowser/6.8 TBS/036849 Safari/537.36 MicroMessenger/6.3.27.880 NetType/WIFI Language/zh_CN'
p475
sg16
S'a4c2670cc8e6857a906a17fd7388d62c'
p476
sa(dp477
g2
S'39797'
p478
sg4
S'376'
p479
sg6
S'7424a490a049e5ce539b9db9fea35724'
p480
sg8
S'xx17d1012a6993a2731a0e118b58cbe659'
p481
sg10
S'xx33da841852f262a0d8d976e467a70d31'
p482
sg12
S'xxd8ea3481c96f6447a2139f6d60be78cd'
p483
sg14
S'Mozilla/5.0 (Linux; Android 5.0.2; Redmi Note 3 Build/LRX22G) AppleWebKit/537.36 (KHTML, like Gecko) Version/4.0 Chrome/37.0.0.0 Mobile MQQBrowser/6.8 TBS/036849 Safari/537.36 MicroMessenger/6.3.27.880 NetType/WIFI Language/zh_CN'
p484
sg16
S'a4c2670cc8e6857a906a17fd7388d62c'
p485
sa(dp486
g2
S'39797'
p487
sg4
S'391'
p488
sg6
S'7424a490a049e5ce539b9db9fea35724'
p489
sg8
S'xx17d1012a6993a2731a0e118b58cbe659'
p490
sg10
S'xx33da841852f262a0d8d976e467a70d31'
p491
sg12
S'xxd8ea3481c96f6447a2139f6d60be78cd'
p492
sg14
S'Mozilla/5.0 (Linux; Android 5.0.2; Redmi Note 3 Build/LRX22G) AppleWebKit/537.36 (KHTML, like Gecko) Version/4.0 Chrome/37.0.0.0 Mobile MQQBrowser/6.8 TBS/036849 Safari/537.36 MicroMessenger/6.3.27.880 NetType/WIFI Language/zh_CN'
p493
sg16
S'a4c2670cc8e6857a906a17fd7388d62c'
p494
sa(dp495
g2
S'39797'
p496
sg4
S'415'
p497
sg6
S'7424a490a049e5ce539b9db9fea35724'
p498
sg8
S'xx17d1012a6993a2731a0e118b58cbe659'
p499
sg10
S'xx33da841852f262a0d8d976e467a70d31'
p500
sg12
S'xxd8ea3481c96f6447a2139f6d60be78cd'
p501
sg14
S'Mozilla/5.0 (Linux; Android 5.0.2; Redmi Note 3 Build/LRX22G) AppleWebKit/537.36 (KHTML, like Gecko) Version/4.0 Chrome/37.0.0.0 Mobile MQQBrowser/6.8 TBS/036849 Safari/537.36 MicroMessenger/6.3.27.880 NetType/WIFI Language/zh_CN'
p502
sg16
S'a4c2670cc8e6857a906a17fd7388d62c'
p503
sa(dp504
g2
S'29479'
p505
sg4
S'427'
p506
sg6
S'5b48c78089c6f21a864d9e71cbaf0c9d'
p507
sg8
S'xx17d1012a6993a2731a0e118b58cbe659'
p508
sg10
S'xx33da841852f262a0d8d976e467a70d31'
p509
sg12
S'xxd8ea3481c96f6447a2139f6d60be78cd'
p510
sg14
S'Mozilla/5.0 (Linux; Android 5.0.2; Redmi Note 3 Build/LRX22G) AppleWebKit/537.36 (KHTML, like Gecko) Version/4.0 Chrome/37.0.0.0 Mobile MQQBrowser/6.8 TBS/036849 Safari/537.36 MicroMessenger/6.3.27.880 NetType/WIFI Language/zh_CN'
p511
sg16
S'a4c2670cc8e6857a906a17fd7388d62c'
p512
sa(dp513
g2
S'29479'
p514
sg4
S'435'
p515
sg6
S'5b48c78089c6f21a864d9e71cbaf0c9d'
p516
sg8
S'xx17d1012a6993a2731a0e118b58cbe659'
p517
sg10
S'xx33da841852f262a0d8d976e467a70d31'
p518
sg12
S'xxd8ea3481c96f6447a2139f6d60be78cd'
p519
sg14
S'Mozilla/5.0 (Linux; Android 5.0.2; Redmi Note 3 Build/LRX22G) AppleWebKit/537.36 (KHTML, like Gecko) Version/4.0 Chrome/37.0.0.0 Mobile MQQBrowser/6.8 TBS/036849 Safari/537.36 MicroMessenger/6.3.27.880 NetType/WIFI Language/zh_CN'
p520
sg16
S'a4c2670cc8e6857a906a17fd7388d62c'
p521
sa(dp522
g2
S'39797'
p523
sg4
S'442'
p524
sg6
S'7424a490a049e5ce539b9db9fea35724'
p525
sg8
S'xx17d1012a6993a2731a0e118b58cbe659'
p526
sg10
S'xx33da841852f262a0d8d976e467a70d31'
p527
sg12
S'xxd8ea3481c96f6447a2139f6d60be78cd'
p528
sg14
S'Mozilla/5.0 (Linux; Android 5.0.2; Redmi Note 3 Build/LRX22G) AppleWebKit/537.36 (KHTML, like Gecko) Version/4.0 Chrome/37.0.0.0 Mobile MQQBrowser/6.8 TBS/036849 Safari/537.36 MicroMessenger/6.3.27.880 NetType/WIFI Language/zh_CN'
p529
sg16
S'a4c2670cc8e6857a906a17fd7388d62c'
p530
sa(dp531
g2
S'29479'
p532
sg4
S'448'
p533
sg6
S'5b48c78089c6f21a864d9e71cbaf0c9d'
p534
sg8
S'xx17d1012a6993a2731a0e118b58cbe659'
p535
sg10
S'xx33da841852f262a0d8d976e467a70d31'
p536
sg12
S'xxd8ea3481c96f6447a2139f6d60be78cd'
p537
sg14
S'Mozilla/5.0 (Linux; Android 5.0.2; Redmi Note 3 Build/LRX22G) AppleWebKit/537.36 (KHTML, like Gecko) Version/4.0 Chrome/37.0.0.0 Mobile MQQBrowser/6.8 TBS/036849 Safari/537.36 MicroMessenger/6.3.27.880 NetType/WIFI Language/zh_CN'
p538
sg16
S'a4c2670cc8e6857a906a17fd7388d62c'
p539
sa(dp540
g2
S'39797'
p541
sg4
S'460'
p542
sg6
S'7424a490a049e5ce539b9db9fea35724'
p543
sg8
S'xx17d1012a6993a2731a0e118b58cbe659'
p544
sg10
S'xx33da841852f262a0d8d976e467a70d31'
p545
sg12
S'xxd8ea3481c96f6447a2139f6d60be78cd'
p546
sg14
S'Mozilla/5.0 (Linux; Android 5.0.2; Redmi Note 3 Build/LRX22G) AppleWebKit/537.36 (KHTML, like Gecko) Version/4.0 Chrome/37.0.0.0 Mobile MQQBrowser/6.8 TBS/036849 Safari/537.36 MicroMessenger/6.3.27.880 NetType/WIFI Language/zh_CN'
p547
sg16
S'a4c2670cc8e6857a906a17fd7388d62c'
p548
sa(dp549
g2
S'29479'
p550
sg4
S'472'
p551
sg6
S'5b48c78089c6f21a864d9e71cbaf0c9d'
p552
sg8
S'xx17d1012a6993a2731a0e118b58cbe659'
p553
sg10
S'xx33da841852f262a0d8d976e467a70d31'
p554
sg12
S'xxd8ea3481c96f6447a2139f6d60be78cd'
p555
sg14
S'Mozilla/5.0 (Linux; Android 5.0.2; Redmi Note 3 Build/LRX22G) AppleWebKit/537.36 (KHTML, like Gecko) Version/4.0 Chrome/37.0.0.0 Mobile MQQBrowser/6.8 TBS/036849 Safari/537.36 MicroMessenger/6.3.27.880 NetType/WIFI Language/zh_CN'
p556
sg16
S'a4c2670cc8e6857a906a17fd7388d62c'
p557
sa(dp558
g2
S'29479'
p559
sg4
S'482'
p560
sg6
S'5b48c78089c6f21a864d9e71cbaf0c9d'
p561
sg8
S'xx17d1012a6993a2731a0e118b58cbe659'
p562
sg10
S'xx33da841852f262a0d8d976e467a70d31'
p563
sg12
S'xxd8ea3481c96f6447a2139f6d60be78cd'
p564
sg14
S'Mozilla/5.0 (Linux; Android 5.0.2; Redmi Note 3 Build/LRX22G) AppleWebKit/537.36 (KHTML, like Gecko) Version/4.0 Chrome/37.0.0.0 Mobile MQQBrowser/6.8 TBS/036849 Safari/537.36 MicroMessenger/6.3.27.880 NetType/WIFI Language/zh_CN'
p565
sg16
S'a4c2670cc8e6857a906a17fd7388d62c'
p566
sa(dp567
g2
S'29479'
p568
sg4
S'495'
p569
sg6
S'5b48c78089c6f21a864d9e71cbaf0c9d'
p570
sg8
S'xx17d1012a6993a2731a0e118b58cbe659'
p571
sg10
S'xx33da841852f262a0d8d976e467a70d31'
p572
sg12
S'xxd8ea3481c96f6447a2139f6d60be78cd'
p573
sg14
S'Mozilla/5.0 (Linux; Android 5.0.2; Redmi Note 3 Build/LRX22G) AppleWebKit/537.36 (KHTML, like Gecko) Version/4.0 Chrome/37.0.0.0 Mobile MQQBrowser/6.8 TBS/036849 Safari/537.36 MicroMessenger/6.3.27.880 NetType/WIFI Language/zh_CN'
p574
sg16
S'a4c2670cc8e6857a906a17fd7388d62c'
p575
sa(dp576
g2
S'39797'
p577
sg4
S'501'
p578
sg6
S'7424a490a049e5ce539b9db9fea35724'
p579
sg8
S'xx17d1012a6993a2731a0e118b58cbe659'
p580
sg10
S'xx33da841852f262a0d8d976e467a70d31'
p581
sg12
S'xxd8ea3481c96f6447a2139f6d60be78cd'
p582
sg14
S'Mozilla/5.0 (Linux; Android 5.0.2; Redmi Note 3 Build/LRX22G) AppleWebKit/537.36 (KHTML, like Gecko) Version/4.0 Chrome/37.0.0.0 Mobile MQQBrowser/6.8 TBS/036849 Safari/537.36 MicroMessenger/6.3.27.880 NetType/WIFI Language/zh_CN'
p583
sg16
S'a4c2670cc8e6857a906a17fd7388d62c'
p584
sa(dp585
g2
S'27517'
p586
sg4
S'505'
p587
sg6
S'5b48c78089c6f21a864d9e71cbaf0c9d'
p588
sg8
S'xx17d1012a6993a2731a0e118b58cbe659'
p589
sg10
S'xx33da841852f262a0d8d976e467a70d31'
p590
sg12
S'xxd8ea3481c96f6447a2139f6d60be78cd'
p591
sg14
S'Mozilla/5.0 (Linux; Android 5.0.2; Redmi Note 3 Build/LRX22G) AppleWebKit/537.36 (KHTML, like Gecko) Version/4.0 Chrome/37.0.0.0 Mobile MQQBrowser/6.8 TBS/036849 Safari/537.36 MicroMessenger/6.3.27.880 NetType/WIFI Language/zh_CN'
p592
sg16
S'a4c2670cc8e6857a906a17fd7388d62c'
p593
sa(dp594
g2
S'29479'
p595
sg4
S'507'
p596
sg6
S'5b48c78089c6f21a864d9e71cbaf0c9d'
p597
sg8
S'xx17d1012a6993a2731a0e118b58cbe659'
p598
sg10
S'xx33da841852f262a0d8d976e467a70d31'
p599
sg12
S'xxd8ea3481c96f6447a2139f6d60be78cd'
p600
sg14
S'Mozilla/5.0 (Linux; Android 5.0.2; Redmi Note 3 Build/LRX22G) AppleWebKit/537.36 (KHTML, like Gecko) Version/4.0 Chrome/37.0.0.0 Mobile MQQBrowser/6.8 TBS/036849 Safari/537.36 MicroMessenger/6.3.27.880 NetType/WIFI Language/zh_CN'
p601
sg16
S'a4c2670cc8e6857a906a17fd7388d62c'
p602
sa(dp603
g2
S'27517'
p604
sg4
S'519'
p605
sg6
S'5b48c78089c6f21a864d9e71cbaf0c9d'
p606
sg8
S'xx17d1012a6993a2731a0e118b58cbe659'
p607
sg10
S'xx33da841852f262a0d8d976e467a70d31'
p608
sg12
S'xxd8ea3481c96f6447a2139f6d60be78cd'
p609
sg14
S'Mozilla/5.0 (Linux; Android 5.0.2; Redmi Note 3 Build/LRX22G) AppleWebKit/537.36 (KHTML, like Gecko) Version/4.0 Chrome/37.0.0.0 Mobile MQQBrowser/6.8 TBS/036849 Safari/537.36 MicroMessenger/6.3.27.880 NetType/WIFI Language/zh_CN'
p610
sg16
S'a4c2670cc8e6857a906a17fd7388d62c'
p611
sa(dp612
g2
S'29479'
p613
sg4
S'522'
p614
sg6
S'5b48c78089c6f21a864d9e71cbaf0c9d'
p615
sg8
S'xx17d1012a6993a2731a0e118b58cbe659'
p616
sg10
S'xx33da841852f262a0d8d976e467a70d31'
p617
sg12
S'xxd8ea3481c96f6447a2139f6d60be78cd'
p618
sg14
S'Mozilla/5.0 (Linux; Android 5.0.2; Redmi Note 3 Build/LRX22G) AppleWebKit/537.36 (KHTML, like Gecko) Version/4.0 Chrome/37.0.0.0 Mobile MQQBrowser/6.8 TBS/036849 Safari/537.36 MicroMessenger/6.3.27.880 NetType/WIFI Language/zh_CN'
p619
sg16
S'a4c2670cc8e6857a906a17fd7388d62c'
p620
sa(dp621
g2
S'27517'
p622
sg4
S'532'
p623
sg6
S'5b48c78089c6f21a864d9e71cbaf0c9d'
p624
sg8
S'xx17d1012a6993a2731a0e118b58cbe659'
p625
sg10
S'xx33da841852f262a0d8d976e467a70d31'
p626
sg12
S'xxd8ea3481c96f6447a2139f6d60be78cd'
p627
sg14
S'Mozilla/5.0 (Linux; Android 5.0.2; Redmi Note 3 Build/LRX22G) AppleWebKit/537.36 (KHTML, like Gecko) Version/4.0 Chrome/37.0.0.0 Mobile MQQBrowser/6.8 TBS/036849 Safari/537.36 MicroMessenger/6.3.27.880 NetType/WIFI Language/zh_CN'
p628
sg16
S'a4c2670cc8e6857a906a17fd7388d62c'
p629
sa(dp630
g2
S'39797'
p631
sg4
S'536'
p632
sg6
S'7424a490a049e5ce539b9db9fea35724'
p633
sg8
S'xx17d1012a6993a2731a0e118b58cbe659'
p634
sg10
S'xx33da841852f262a0d8d976e467a70d31'
p635
sg12
S'xxd8ea3481c96f6447a2139f6d60be78cd'
p636
sg14
S'Mozilla/5.0 (Linux; Android 5.0.2; Redmi Note 3 Build/LRX22G) AppleWebKit/537.36 (KHTML, like Gecko) Version/4.0 Chrome/37.0.0.0 Mobile MQQBrowser/6.8 TBS/036849 Safari/537.36 MicroMessenger/6.3.27.880 NetType/WIFI Language/zh_CN'
p637
sg16
S'a4c2670cc8e6857a906a17fd7388d62c'
p638
sa(dp639
g2
S'29479'
p640
sg4
S'539'
p641
sg6
S'5b48c78089c6f21a864d9e71cbaf0c9d'
p642
sg8
S'xx17d1012a6993a2731a0e118b58cbe659'
p643
sg10
S'xx33da841852f262a0d8d976e467a70d31'
p644
sg12
S'xxd8ea3481c96f6447a2139f6d60be78cd'
p645
sg14
S'Mozilla/5.0 (Linux; Android 5.0.2; Redmi Note 3 Build/LRX22G) AppleWebKit/537.36 (KHTML, like Gecko) Version/4.0 Chrome/37.0.0.0 Mobile MQQBrowser/6.8 TBS/036849 Safari/537.36 MicroMessenger/6.3.27.880 NetType/WIFI Language/zh_CN'
p646
sg16
S'a4c2670cc8e6857a906a17fd7388d62c'
p647
sa(dp648
g2
S'27517'
p649
sg4
S'548'
p650
sg6
S'5b48c78089c6f21a864d9e71cbaf0c9d'
p651
sg8
S'xx17d1012a6993a2731a0e118b58cbe659'
p652
sg10
S'xx33da841852f262a0d8d976e467a70d31'
p653
sg12
S'xxd8ea3481c96f6447a2139f6d60be78cd'
p654
sg14
S'Mozilla/5.0 (Linux; Android 5.0.2; Redmi Note 3 Build/LRX22G) AppleWebKit/537.36 (KHTML, like Gecko) Version/4.0 Chrome/37.0.0.0 Mobile MQQBrowser/6.8 TBS/036849 Safari/537.36 MicroMessenger/6.3.27.880 NetType/WIFI Language/zh_CN'
p655
sg16
S'a4c2670cc8e6857a906a17fd7388d62c'
p656
sa(dp657
g2
S'29479'
p658
sg4
S'557'
p659
sg6
S'5b48c78089c6f21a864d9e71cbaf0c9d'
p660
sg8
S'xx17d1012a6993a2731a0e118b58cbe659'
p661
sg10
S'xx33da841852f262a0d8d976e467a70d31'
p662
sg12
S'xxd8ea3481c96f6447a2139f6d60be78cd'
p663
sg14
S'Mozilla/5.0 (Linux; Android 5.0.2; Redmi Note 3 Build/LRX22G) AppleWebKit/537.36 (KHTML, like Gecko) Version/4.0 Chrome/37.0.0.0 Mobile MQQBrowser/6.8 TBS/036849 Safari/537.36 MicroMessenger/6.3.27.880 NetType/WIFI Language/zh_CN'
p664
sg16
S'a4c2670cc8e6857a906a17fd7388d62c'
p665
sa(dp666
g2
S'27517'
p667
sg4
S'566'
p668
sg6
S'5b48c78089c6f21a864d9e71cbaf0c9d'
p669
sg8
S'xx17d1012a6993a2731a0e118b58cbe659'
p670
sg10
S'xx33da841852f262a0d8d976e467a70d31'
p671
sg12
S'xxd8ea3481c96f6447a2139f6d60be78cd'
p672
sg14
S'Mozilla/5.0 (Linux; Android 5.0.2; Redmi Note 3 Build/LRX22G) AppleWebKit/537.36 (KHTML, like Gecko) Version/4.0 Chrome/37.0.0.0 Mobile MQQBrowser/6.8 TBS/036849 Safari/537.36 MicroMessenger/6.3.27.880 NetType/WIFI Language/zh_CN'
p673
sg16
S'a4c2670cc8e6857a906a17fd7388d62c'
p674
sa(dp675
g2
S'27517'
p676
sg4
S'583'
p677
sg6
S'5b48c78089c6f21a864d9e71cbaf0c9d'
p678
sg8
S'xx17d1012a6993a2731a0e118b58cbe659'
p679
sg10
S'xx33da841852f262a0d8d976e467a70d31'
p680
sg12
S'xxd8ea3481c96f6447a2139f6d60be78cd'
p681
sg14
S'Mozilla/5.0 (Linux; Android 5.0.2; Redmi Note 3 Build/LRX22G) AppleWebKit/537.36 (KHTML, like Gecko) Version/4.0 Chrome/37.0.0.0 Mobile MQQBrowser/6.8 TBS/036849 Safari/537.36 MicroMessenger/6.3.27.880 NetType/WIFI Language/zh_CN'
p682
sg16
S'a4c2670cc8e6857a906a17fd7388d62c'
p683
sa(dp684
g2
S'27517'
p685
sg4
S'599'
p686
sg6
S'5b48c78089c6f21a864d9e71cbaf0c9d'
p687
sg8
S'xx17d1012a6993a2731a0e118b58cbe659'
p688
sg10
S'xx33da841852f262a0d8d976e467a70d31'
p689
sg12
S'xxd8ea3481c96f6447a2139f6d60be78cd'
p690
sg14
S'Mozilla/5.0 (Linux; Android 5.0.2; Redmi Note 3 Build/LRX22G) AppleWebKit/537.36 (KHTML, like Gecko) Version/4.0 Chrome/37.0.0.0 Mobile MQQBrowser/6.8 TBS/036849 Safari/537.36 MicroMessenger/6.3.27.880 NetType/WIFI Language/zh_CN'
p691
sg16
S'a4c2670cc8e6857a906a17fd7388d62c'
p692
sa(dp693
g2
S'39797'
p694
sg4
S'604'
p695
sg6
S'7424a490a049e5ce539b9db9fea35724'
p696
sg8
S'xx17d1012a6993a2731a0e118b58cbe659'
p697
sg10
S'xx33da841852f262a0d8d976e467a70d31'
p698
sg12
S'xxd8ea3481c96f6447a2139f6d60be78cd'
p699
sg14
S'Mozilla/5.0 (Linux; Android 5.0.2; Redmi Note 3 Build/LRX22G) AppleWebKit/537.36 (KHTML, like Gecko) Version/4.0 Chrome/37.0.0.0 Mobile MQQBrowser/6.8 TBS/036849 Safari/537.36 MicroMessenger/6.3.27.880 NetType/WIFI Language/zh_CN'
p700
sg16
S'a4c2670cc8e6857a906a17fd7388d62c'
p701
sa(dp702
g2
S'27517'
p703
sg4
S'614'
p704
sg6
S'5b48c78089c6f21a864d9e71cbaf0c9d'
p705
sg8
S'xx17d1012a6993a2731a0e118b58cbe659'
p706
sg10
S'xx33da841852f262a0d8d976e467a70d31'
p707
sg12
S'xxd8ea3481c96f6447a2139f6d60be78cd'
p708
sg14
S'Mozilla/5.0 (Linux; Android 5.0.2; Redmi Note 3 Build/LRX22G) AppleWebKit/537.36 (KHTML, like Gecko) Version/4.0 Chrome/37.0.0.0 Mobile MQQBrowser/6.8 TBS/036849 Safari/537.36 MicroMessenger/6.3.27.880 NetType/WIFI Language/zh_CN'
p709
sg16
S'a4c2670cc8e6857a906a17fd7388d62c'
p710
sa(dp711
g2
S'39797'
p712
sg4
S'626'
p713
sg6
S'7424a490a049e5ce539b9db9fea35724'
p714
sg8
S'xx17d1012a6993a2731a0e118b58cbe659'
p715
sg10
S'xx33da841852f262a0d8d976e467a70d31'
p716
sg12
S'xxd8ea3481c96f6447a2139f6d60be78cd'
p717
sg14
S'Mozilla/5.0 (Linux; Android 5.0.2; Redmi Note 3 Build/LRX22G) AppleWebKit/537.36 (KHTML, like Gecko) Version/4.0 Chrome/37.0.0.0 Mobile MQQBrowser/6.8 TBS/036849 Safari/537.36 MicroMessenger/6.3.27.880 NetType/WIFI Language/zh_CN'
p718
sg16
S'a4c2670cc8e6857a906a17fd7388d62c'
p719
sa(dp720
g2
S'27517'
p721
sg4
S'630'
p722
sg6
S'5b48c78089c6f21a864d9e71cbaf0c9d'
p723
sg8
S'xx17d1012a6993a2731a0e118b58cbe659'
p724
sg10
S'xx33da841852f262a0d8d976e467a70d31'
p725
sg12
S'xxd8ea3481c96f6447a2139f6d60be78cd'
p726
sg14
S'Mozilla/5.0 (Linux; Android 5.0.2; Redmi Note 3 Build/LRX22G) AppleWebKit/537.36 (KHTML, like Gecko) Version/4.0 Chrome/37.0.0.0 Mobile MQQBrowser/6.8 TBS/036849 Safari/537.36 MicroMessenger/6.3.27.880 NetType/WIFI Language/zh_CN'
p727
sg16
S'a4c2670cc8e6857a906a17fd7388d62c'
p728
sa(dp729
g2
S'39797'
p730
sg4
S'642'
p731
sg6
S'7424a490a049e5ce539b9db9fea35724'
p732
sg8
S'xx17d1012a6993a2731a0e118b58cbe659'
p733
sg10
S'xx33da841852f262a0d8d976e467a70d31'
p734
sg12
S'xxd8ea3481c96f6447a2139f6d60be78cd'
p735
sg14
S'Mozilla/5.0 (Linux; Android 5.0.2; Redmi Note 3 Build/LRX22G) AppleWebKit/537.36 (KHTML, like Gecko) Version/4.0 Chrome/37.0.0.0 Mobile MQQBrowser/6.8 TBS/036849 Safari/537.36 MicroMessenger/6.3.27.880 NetType/WIFI Language/zh_CN'
p736
sg16
S'a4c2670cc8e6857a906a17fd7388d62c'
p737
sa(dp738
g2
S'27517'
p739
sg4
S'648'
p740
sg6
S'5b48c78089c6f21a864d9e71cbaf0c9d'
p741
sg8
S'xx17d1012a6993a2731a0e118b58cbe659'
p742
sg10
S'xx33da841852f262a0d8d976e467a70d31'
p743
sg12
S'xxd8ea3481c96f6447a2139f6d60be78cd'
p744
sg14
S'Mozilla/5.0 (Linux; Android 5.0.2; Redmi Note 3 Build/LRX22G) AppleWebKit/537.36 (KHTML, like Gecko) Version/4.0 Chrome/37.0.0.0 Mobile MQQBrowser/6.8 TBS/036849 Safari/537.36 MicroMessenger/6.3.27.880 NetType/WIFI Language/zh_CN'
p745
sg16
S'a4c2670cc8e6857a906a17fd7388d62c'
p746
sa(dp747
g2
S'39797'
p748
sg4
S'655'
p749
sg6
S'7424a490a049e5ce539b9db9fea35724'
p750
sg8
S'xx17d1012a6993a2731a0e118b58cbe659'
p751
sg10
S'xx33da841852f262a0d8d976e467a70d31'
p752
sg12
S'xxd8ea3481c96f6447a2139f6d60be78cd'
p753
sg14
S'Mozilla/5.0 (Linux; Android 5.0.2; Redmi Note 3 Build/LRX22G) AppleWebKit/537.36 (KHTML, like Gecko) Version/4.0 Chrome/37.0.0.0 Mobile MQQBrowser/6.8 TBS/036849 Safari/537.36 MicroMessenger/6.3.27.880 NetType/WIFI Language/zh_CN'
p754
sg16
S'a4c2670cc8e6857a906a17fd7388d62c'
p755
sa(dp756
g2
S'27517'
p757
sg4
S'662'
p758
sg6
S'5b48c78089c6f21a864d9e71cbaf0c9d'
p759
sg8
S'xx17d1012a6993a2731a0e118b58cbe659'
p760
sg10
S'xx33da841852f262a0d8d976e467a70d31'
p761
sg12
S'xxd8ea3481c96f6447a2139f6d60be78cd'
p762
sg14
S'Mozilla/5.0 (Linux; Android 5.0.2; Redmi Note 3 Build/LRX22G) AppleWebKit/537.36 (KHTML, like Gecko) Version/4.0 Chrome/37.0.0.0 Mobile MQQBrowser/6.8 TBS/036849 Safari/537.36 MicroMessenger/6.3.27.880 NetType/WIFI Language/zh_CN'
p763
sg16
S'a4c2670cc8e6857a906a17fd7388d62c'
p764
sa(dp765
g2
S'27517'
p766
sg4
S'673'
p767
sg6
S'5b48c78089c6f21a864d9e71cbaf0c9d'
p768
sg8
S'xx17d1012a6993a2731a0e118b58cbe659'
p769
sg10
S'xx33da841852f262a0d8d976e467a70d31'
p770
sg12
S'xxd8ea3481c96f6447a2139f6d60be78cd'
p771
sg14
S'Mozilla/5.0 (Linux; Android 5.0.2; Redmi Note 3 Build/LRX22G) AppleWebKit/537.36 (KHTML, like Gecko) Version/4.0 Chrome/37.0.0.0 Mobile MQQBrowser/6.8 TBS/036849 Safari/537.36 MicroMessenger/6.3.27.880 NetType/WIFI Language/zh_CN'
p772
sg16
S'a4c2670cc8e6857a906a17fd7388d62c'
p773
sa(dp774
g2
S'39797'
p775
sg4
S'689'
p776
sg6
S'7424a490a049e5ce539b9db9fea35724'
p777
sg8
S'xx17d1012a6993a2731a0e118b58cbe659'
p778
sg10
S'xx33da841852f262a0d8d976e467a70d31'
p779
sg12
S'xxd8ea3481c96f6447a2139f6d60be78cd'
p780
sg14
S'Mozilla/5.0 (Linux; Android 5.0.2; Redmi Note 3 Build/LRX22G) AppleWebKit/537.36 (KHTML, like Gecko) Version/4.0 Chrome/37.0.0.0 Mobile MQQBrowser/6.8 TBS/036849 Safari/537.36 MicroMessenger/6.3.27.880 NetType/WIFI Language/zh_CN'
p781
sg16
S'a4c2670cc8e6857a906a17fd7388d62c'
p782
sa(dp783
g2
S'27517'
p784
sg4
S'690'
p785
sg6
S'5b48c78089c6f21a864d9e71cbaf0c9d'
p786
sg8
S'xx17d1012a6993a2731a0e118b58cbe659'
p787
sg10
S'xx33da841852f262a0d8d976e467a70d31'
p788
sg12
S'xxd8ea3481c96f6447a2139f6d60be78cd'
p789
sg14
S'Mozilla/5.0 (Linux; Android 5.0.2; Redmi Note 3 Build/LRX22G) AppleWebKit/537.36 (KHTML, like Gecko) Version/4.0 Chrome/37.0.0.0 Mobile MQQBrowser/6.8 TBS/036849 Safari/537.36 MicroMessenger/6.3.27.880 NetType/WIFI Language/zh_CN'
p790
sg16
S'a4c2670cc8e6857a906a17fd7388d62c'
p791
sa(dp792
g2
S'39797'
p793
sg4
S'700'
p794
sg6
S'7424a490a049e5ce539b9db9fea35724'
p795
sg8
S'xx17d1012a6993a2731a0e118b58cbe659'
p796
sg10
S'xx33da841852f262a0d8d976e467a70d31'
p797
sg12
S'xxd8ea3481c96f6447a2139f6d60be78cd'
p798
sg14
S'Mozilla/5.0 (Linux; Android 5.0.2; Redmi Note 3 Build/LRX22G) AppleWebKit/537.36 (KHTML, like Gecko) Version/4.0 Chrome/37.0.0.0 Mobile MQQBrowser/6.8 TBS/036849 Safari/537.36 MicroMessenger/6.3.27.880 NetType/WIFI Language/zh_CN'
p799
sg16
S'a4c2670cc8e6857a906a17fd7388d62c'
p800
sa(dp801
g2
S'27517'
p802
sg4
S'703'
p803
sg6
S'5b48c78089c6f21a864d9e71cbaf0c9d'
p804
sg8
S'xx17d1012a6993a2731a0e118b58cbe659'
p805
sg10
S'xx33da841852f262a0d8d976e467a70d31'
p806
sg12
S'xxd8ea3481c96f6447a2139f6d60be78cd'
p807
sg14
S'Mozilla/5.0 (Linux; Android 5.0.2; Redmi Note 3 Build/LRX22G) AppleWebKit/537.36 (KHTML, like Gecko) Version/4.0 Chrome/37.0.0.0 Mobile MQQBrowser/6.8 TBS/036849 Safari/537.36 MicroMessenger/6.3.27.880 NetType/WIFI Language/zh_CN'
p808
sg16
S'a4c2670cc8e6857a906a17fd7388d62c'
p809
sa(dp810
g2
S'39797'
p811
sg4
S'711'
p812
sg6
S'7424a490a049e5ce539b9db9fea35724'
p813
sg8
S'xx17d1012a6993a2731a0e118b58cbe659'
p814
sg10
S'xx33da841852f262a0d8d976e467a70d31'
p815
sg12
S'xxd8ea3481c96f6447a2139f6d60be78cd'
p816
sg14
S'Mozilla/5.0 (Linux; Android 5.0.2; Redmi Note 3 Build/LRX22G) AppleWebKit/537.36 (KHTML, like Gecko) Version/4.0 Chrome/37.0.0.0 Mobile MQQBrowser/6.8 TBS/036849 Safari/537.36 MicroMessenger/6.3.27.880 NetType/WIFI Language/zh_CN'
p817
sg16
S'a4c2670cc8e6857a906a17fd7388d62c'
p818
sa(dp819
g2
S'27517'
p820
sg4
S'716'
p821
sg6
S'5b48c78089c6f21a864d9e71cbaf0c9d'
p822
sg8
S'xx17d1012a6993a2731a0e118b58cbe659'
p823
sg10
S'xx33da841852f262a0d8d976e467a70d31'
p824
sg12
S'xxd8ea3481c96f6447a2139f6d60be78cd'
p825
sg14
S'Mozilla/5.0 (Linux; Android 5.0.2; Redmi Note 3 Build/LRX22G) AppleWebKit/537.36 (KHTML, like Gecko) Version/4.0 Chrome/37.0.0.0 Mobile MQQBrowser/6.8 TBS/036849 Safari/537.36 MicroMessenger/6.3.27.880 NetType/WIFI Language/zh_CN'
p826
sg16
S'a4c2670cc8e6857a906a17fd7388d62c'
p827
sa(dp828
g2
S'29479'
p829
sg4
S'839'
p830
sg6
S'5b48c78089c6f21a864d9e71cbaf0c9d'
p831
sg8
S'xx17d1012a6993a2731a0e118b58cbe659'
p832
sg10
S'xx33da841852f262a0d8d976e467a70d31'
p833
sg12
S'xxd8ea3481c96f6447a2139f6d60be78cd'
p834
sg14
S'Mozilla/5.0 (Linux; Android 5.0.2; Redmi Note 3 Build/LRX22G) AppleWebKit/537.36 (KHTML, like Gecko) Version/4.0 Chrome/37.0.0.0 Mobile MQQBrowser/6.8 TBS/036849 Safari/537.36 MicroMessenger/6.3.27.880 NetType/WIFI Language/zh_CN'
p835
sg16
S'a4c2670cc8e6857a906a17fd7388d62c'
p836
sa(dp837
g2
S'29479'
p838
sg4
S'855'
p839
sg6
S'5b48c78089c6f21a864d9e71cbaf0c9d'
p840
sg8
S'xx17d1012a6993a2731a0e118b58cbe659'
p841
sg10
S'xx33da841852f262a0d8d976e467a70d31'
p842
sg12
S'xxd8ea3481c96f6447a2139f6d60be78cd'
p843
sg14
S'Mozilla/5.0 (Linux; Android 5.0.2; Redmi Note 3 Build/LRX22G) AppleWebKit/537.36 (KHTML, like Gecko) Version/4.0 Chrome/37.0.0.0 Mobile MQQBrowser/6.8 TBS/036849 Safari/537.36 MicroMessenger/6.3.27.880 NetType/WIFI Language/zh_CN'
p844
sg16
S'a4c2670cc8e6857a906a17fd7388d62c'
p845
sa(dp846
g2
S'29479'
p847
sg4
S'877'
p848
sg6
S'5b48c78089c6f21a864d9e71cbaf0c9d'
p849
sg8
S'xx17d1012a6993a2731a0e118b58cbe659'
p850
sg10
S'xx33da841852f262a0d8d976e467a70d31'
p851
sg12
S'xxd8ea3481c96f6447a2139f6d60be78cd'
p852
sg14
S'Mozilla/5.0 (Linux; Android 5.0.2; Redmi Note 3 Build/LRX22G) AppleWebKit/537.36 (KHTML, like Gecko) Version/4.0 Chrome/37.0.0.0 Mobile MQQBrowser/6.8 TBS/036849 Safari/537.36 MicroMessenger/6.3.27.880 NetType/WIFI Language/zh_CN'
p853
sg16
S'a4c2670cc8e6857a906a17fd7388d62c'
p854
sa(dp855
g2
S'29479'
p856
sg4
S'897'
p857
sg6
S'5b48c78089c6f21a864d9e71cbaf0c9d'
p858
sg8
S'xx17d1012a6993a2731a0e118b58cbe659'
p859
sg10
S'xx33da841852f262a0d8d976e467a70d31'
p860
sg12
S'xxd8ea3481c96f6447a2139f6d60be78cd'
p861
sg14
S'Mozilla/5.0 (Linux; Android 5.0.2; Redmi Note 3 Build/LRX22G) AppleWebKit/537.36 (KHTML, like Gecko) Version/4.0 Chrome/37.0.0.0 Mobile MQQBrowser/6.8 TBS/036849 Safari/537.36 MicroMessenger/6.3.27.880 NetType/WIFI Language/zh_CN'
p862
sg16
S'a4c2670cc8e6857a906a17fd7388d62c'
p863
sa(dp864
g2
S'29479'
p865
sg4
S'912'
p866
sg6
S'5b48c78089c6f21a864d9e71cbaf0c9d'
p867
sg8
S'xx17d1012a6993a2731a0e118b58cbe659'
p868
sg10
S'xx33da841852f262a0d8d976e467a70d31'
p869
sg12
S'xxd8ea3481c96f6447a2139f6d60be78cd'
p870
sg14
S'Mozilla/5.0 (Linux; Android 5.0.2; Redmi Note 3 Build/LRX22G) AppleWebKit/537.36 (KHTML, like Gecko) Version/4.0 Chrome/37.0.0.0 Mobile MQQBrowser/6.8 TBS/036849 Safari/537.36 MicroMessenger/6.3.27.880 NetType/WIFI Language/zh_CN'
p871
sg16
S'a4c2670cc8e6857a906a17fd7388d62c'
p872
sa(dp873
g2
S'29479'
p874
sg4
S'927'
p875
sg6
S'5b48c78089c6f21a864d9e71cbaf0c9d'
p876
sg8
S'xx17d1012a6993a2731a0e118b58cbe659'
p877
sg10
S'xx33da841852f262a0d8d976e467a70d31'
p878
sg12
S'xxd8ea3481c96f6447a2139f6d60be78cd'
p879
sg14
S'Mozilla/5.0 (Linux; Android 5.0.2; Redmi Note 3 Build/LRX22G) AppleWebKit/537.36 (KHTML, like Gecko) Version/4.0 Chrome/37.0.0.0 Mobile MQQBrowser/6.8 TBS/036849 Safari/537.36 MicroMessenger/6.3.27.880 NetType/WIFI Language/zh_CN'
p880
sg16
S'a4c2670cc8e6857a906a17fd7388d62c'
p881
sa(dp882
g2
S'29479'
p883
sg4
S'947'
p884
sg6
S'5b48c78089c6f21a864d9e71cbaf0c9d'
p885
sg8
S'xx17d1012a6993a2731a0e118b58cbe659'
p886
sg10
S'xx33da841852f262a0d8d976e467a70d31'
p887
sg12
S'xxd8ea3481c96f6447a2139f6d60be78cd'
p888
sg14
S'Mozilla/5.0 (Linux; Android 5.0.2; Redmi Note 3 Build/LRX22G) AppleWebKit/537.36 (KHTML, like Gecko) Version/4.0 Chrome/37.0.0.0 Mobile MQQBrowser/6.8 TBS/036849 Safari/537.36 MicroMessenger/6.3.27.880 NetType/WIFI Language/zh_CN'
p889
sg16
S'a4c2670cc8e6857a906a17fd7388d62c'
p890
sa(dp891
g2
S'29479'
p892
sg4
S'964'
p893
sg6
S'5b48c78089c6f21a864d9e71cbaf0c9d'
p894
sg8
S'xx17d1012a6993a2731a0e118b58cbe659'
p895
sg10
S'xx33da841852f262a0d8d976e467a70d31'
p896
sg12
S'xxd8ea3481c96f6447a2139f6d60be78cd'
p897
sg14
S'Mozilla/5.0 (Linux; Android 5.0.2; Redmi Note 3 Build/LRX22G) AppleWebKit/537.36 (KHTML, like Gecko) Version/4.0 Chrome/37.0.0.0 Mobile MQQBrowser/6.8 TBS/036849 Safari/537.36 MicroMessenger/6.3.27.880 NetType/WIFI Language/zh_CN'
p898
sg16
S'a4c2670cc8e6857a906a17fd7388d62c'
p899
sa(dp900
g2
S'29479'
p901
sg4
S'983'
p902
sg6
S'5b48c78089c6f21a864d9e71cbaf0c9d'
p903
sg8
S'xx17d1012a6993a2731a0e118b58cbe659'
p904
sg10
S'xx33da841852f262a0d8d976e467a70d31'
p905
sg12
S'xxd8ea3481c96f6447a2139f6d60be78cd'
p906
sg14
S'Mozilla/5.0 (Linux; Android 5.0.2; Redmi Note 3 Build/LRX22G) AppleWebKit/537.36 (KHTML, like Gecko) Version/4.0 Chrome/37.0.0.0 Mobile MQQBrowser/6.8 TBS/036849 Safari/537.36 MicroMessenger/6.3.27.880 NetType/WIFI Language/zh_CN'
p907
sg16
S'a4c2670cc8e6857a906a17fd7388d62c'
p908
sa(dp909
g2
S'29479'
p910
sg4
S'999'
p911
sg6
S'5b48c78089c6f21a864d9e71cbaf0c9d'
p912
sg8
S'xx17d1012a6993a2731a0e118b58cbe659'
p913
sg10
S'xx33da841852f262a0d8d976e467a70d31'
p914
sg12
S'xxd8ea3481c96f6447a2139f6d60be78cd'
p915
sg14
S'Mozilla/5.0 (Linux; Android 5.0.2; Redmi Note 3 Build/LRX22G) AppleWebKit/537.36 (KHTML, like Gecko) Version/4.0 Chrome/37.0.0.0 Mobile MQQBrowser/6.8 TBS/036849 Safari/537.36 MicroMessenger/6.3.27.880 NetType/WIFI Language/zh_CN'
p916
sg16
S'a4c2670cc8e6857a906a17fd7388d62c'
p917
sa(dp918
g2
S'39797'
p919
sg4
S'1043'
p920
sg6
S'7424a490a049e5ce539b9db9fea35724'
p921
sg8
S'xx17d1012a6993a2731a0e118b58cbe659'
p922
sg10
S'xx33da841852f262a0d8d976e467a70d31'
p923
sg12
S'xxd8ea3481c96f6447a2139f6d60be78cd'
p924
sg14
S'Mozilla/5.0 (Linux; Android 5.0.2; Redmi Note 3 Build/LRX22G) AppleWebKit/537.36 (KHTML, like Gecko) Version/4.0 Chrome/37.0.0.0 Mobile MQQBrowser/6.8 TBS/036849 Safari/537.36 MicroMessenger/6.3.27.880 NetType/WIFI Language/zh_CN'
p925
sg16
S'a4c2670cc8e6857a906a17fd7388d62c'
p926
sa(dp927
g2
S'39797'
p928
sg4
S'1058'
p929
sg6
S'7424a490a049e5ce539b9db9fea35724'
p930
sg8
S'xx17d1012a6993a2731a0e118b58cbe659'
p931
sg10
S'xx33da841852f262a0d8d976e467a70d31'
p932
sg12
S'xxd8ea3481c96f6447a2139f6d60be78cd'
p933
sg14
S'Mozilla/5.0 (Linux; Android 5.0.2; Redmi Note 3 Build/LRX22G) AppleWebKit/537.36 (KHTML, like Gecko) Version/4.0 Chrome/37.0.0.0 Mobile MQQBrowser/6.8 TBS/036849 Safari/537.36 MicroMessenger/6.3.27.880 NetType/WIFI Language/zh_CN'
p934
sg16
S'a4c2670cc8e6857a906a17fd7388d62c'
p935
sa(dp936
g2
S'29479'
p937
sg4
S'1072'
p938
sg6
S'5b48c78089c6f21a864d9e71cbaf0c9d'
p939
sg8
S'xx17d1012a6993a2731a0e118b58cbe659'
p940
sg10
S'xx33da841852f262a0d8d976e467a70d31'
p941
sg12
S'xxd8ea3481c96f6447a2139f6d60be78cd'
p942
sg14
S'Mozilla/5.0 (Linux; Android 5.0.2; Redmi Note 3 Build/LRX22G) AppleWebKit/537.36 (KHTML, like Gecko) Version/4.0 Chrome/37.0.0.0 Mobile MQQBrowser/6.8 TBS/036849 Safari/537.36 MicroMessenger/6.3.27.880 NetType/WIFI Language/zh_CN'
p943
sg16
S'a4c2670cc8e6857a906a17fd7388d62c'
p944
sa(dp945
g2
S'39797'
p946
sg4
S'1073'
p947
sg6
S'7424a490a049e5ce539b9db9fea35724'
p948
sg8
S'xx17d1012a6993a2731a0e118b58cbe659'
p949
sg10
S'xx33da841852f262a0d8d976e467a70d31'
p950
sg12
S'xxd8ea3481c96f6447a2139f6d60be78cd'
p951
sg14
S'Mozilla/5.0 (Linux; Android 5.0.2; Redmi Note 3 Build/LRX22G) AppleWebKit/537.36 (KHTML, like Gecko) Version/4.0 Chrome/37.0.0.0 Mobile MQQBrowser/6.8 TBS/036849 Safari/537.36 MicroMessenger/6.3.27.880 NetType/WIFI Language/zh_CN'
p952
sg16
S'a4c2670cc8e6857a906a17fd7388d62c'
p953
sa(dp954
g2
S'29479'
p955
sg4
S'1092'
p956
sg6
S'5b48c78089c6f21a864d9e71cbaf0c9d'
p957
sg8
S'xx17d1012a6993a2731a0e118b58cbe659'
p958
sg10
S'xx33da841852f262a0d8d976e467a70d31'
p959
sg12
S'xxd8ea3481c96f6447a2139f6d60be78cd'
p960
sg14
S'Mozilla/5.0 (Linux; Android 5.0.2; Redmi Note 3 Build/LRX22G) AppleWebKit/537.36 (KHTML, like Gecko) Version/4.0 Chrome/37.0.0.0 Mobile MQQBrowser/6.8 TBS/036849 Safari/537.36 MicroMessenger/6.3.27.880 NetType/WIFI Language/zh_CN'
p961
sg16
S'a4c2670cc8e6857a906a17fd7388d62c'
p962
sa(dp963
g2
S'29479'
p964
sg4
S'1110'
p965
sg6
S'5b48c78089c6f21a864d9e71cbaf0c9d'
p966
sg8
S'xx17d1012a6993a2731a0e118b58cbe659'
p967
sg10
S'xx33da841852f262a0d8d976e467a70d31'
p968
sg12
S'xxd8ea3481c96f6447a2139f6d60be78cd'
p969
sg14
S'Mozilla/5.0 (Linux; Android 5.0.2; Redmi Note 3 Build/LRX22G) AppleWebKit/537.36 (KHTML, like Gecko) Version/4.0 Chrome/37.0.0.0 Mobile MQQBrowser/6.8 TBS/036849 Safari/537.36 MicroMessenger/6.3.27.880 NetType/WIFI Language/zh_CN'
p970
sg16
S'a4c2670cc8e6857a906a17fd7388d62c'
p971
sa(dp972
g2
S'39797'
p973
sg4
S'1111'
p974
sg6
S'7424a490a049e5ce539b9db9fea35724'
p975
sg8
S'xx17d1012a6993a2731a0e118b58cbe659'
p976
sg10
S'xx33da841852f262a0d8d976e467a70d31'
p977
sg12
S'xxd8ea3481c96f6447a2139f6d60be78cd'
p978
sg14
S'Mozilla/5.0 (Linux; Android 5.0.2; Redmi Note 3 Build/LRX22G) AppleWebKit/537.36 (KHTML, like Gecko) Version/4.0 Chrome/37.0.0.0 Mobile MQQBrowser/6.8 TBS/036849 Safari/537.36 MicroMessenger/6.3.27.880 NetType/WIFI Language/zh_CN'
p979
sg16
S'a4c2670cc8e6857a906a17fd7388d62c'
p980
sa(dp981
g2
S'39797'
p982
sg4
S'1127'
p983
sg6
S'7424a490a049e5ce539b9db9fea35724'
p984
sg8
S'xx17d1012a6993a2731a0e118b58cbe659'
p985
sg10
S'xx33da841852f262a0d8d976e467a70d31'
p986
sg12
S'xxd8ea3481c96f6447a2139f6d60be78cd'
p987
sg14
S'Mozilla/5.0 (Linux; Android 5.0.2; Redmi Note 3 Build/LRX22G) AppleWebKit/537.36 (KHTML, like Gecko) Version/4.0 Chrome/37.0.0.0 Mobile MQQBrowser/6.8 TBS/036849 Safari/537.36 MicroMessenger/6.3.27.880 NetType/WIFI Language/zh_CN'
p988
sg16
S'a4c2670cc8e6857a906a17fd7388d62c'
p989
sa(dp990
g2
S'29479'
p991
sg4
S'1129'
p992
sg6
S'5b48c78089c6f21a864d9e71cbaf0c9d'
p993
sg8
S'xx17d1012a6993a2731a0e118b58cbe659'
p994
sg10
S'xx33da841852f262a0d8d976e467a70d31'
p995
sg12
S'xxd8ea3481c96f6447a2139f6d60be78cd'
p996
sg14
S'Mozilla/5.0 (Linux; Android 5.0.2; Redmi Note 3 Build/LRX22G) AppleWebKit/537.36 (KHTML, like Gecko) Version/4.0 Chrome/37.0.0.0 Mobile MQQBrowser/6.8 TBS/036849 Safari/537.36 MicroMessenger/6.3.27.880 NetType/WIFI Language/zh_CN'
p997
sg16
S'a4c2670cc8e6857a906a17fd7388d62c'
p998
sa(dp999
g2
S'27517'
p1000
sg4
S'1146'
p1001
sg6
S'5b48c78089c6f21a864d9e71cbaf0c9d'
p1002
sg8
S'xx17d1012a6993a2731a0e118b58cbe659'
p1003
sg10
S'xx33da841852f262a0d8d976e467a70d31'
p1004
sg12
S'xxd8ea3481c96f6447a2139f6d60be78cd'
p1005
sg14
S'Mozilla/5.0 (Linux; Android 5.0.2; Redmi Note 3 Build/LRX22G) AppleWebKit/537.36 (KHTML, like Gecko) Version/4.0 Chrome/37.0.0.0 Mobile MQQBrowser/6.8 TBS/036849 Safari/537.36 MicroMessenger/6.3.27.880 NetType/WIFI Language/zh_CN'
p1006
sg16
S'a4c2670cc8e6857a906a17fd7388d62c'
p1007
sa(dp1008
g2
S'29479'
p1009
sg4
S'1149'
p1010
sg6
S'5b48c78089c6f21a864d9e71cbaf0c9d'
p1011
sg8
S'xx17d1012a6993a2731a0e118b58cbe659'
p1012
sg10
S'xx33da841852f262a0d8d976e467a70d31'
p1013
sg12
S'xxd8ea3481c96f6447a2139f6d60be78cd'
p1014
sg14
S'Mozilla/5.0 (Linux; Android 5.0.2; Redmi Note 3 Build/LRX22G) AppleWebKit/537.36 (KHTML, like Gecko) Version/4.0 Chrome/37.0.0.0 Mobile MQQBrowser/6.8 TBS/036849 Safari/537.36 MicroMessenger/6.3.27.880 NetType/WIFI Language/zh_CN'
p1015
sg16
S'a4c2670cc8e6857a906a17fd7388d62c'
p1016
sa(dp1017
g2
S'39797'
p1018
sg4
S'1151'
p1019
sg6
S'7424a490a049e5ce539b9db9fea35724'
p1020
sg8
S'xx17d1012a6993a2731a0e118b58cbe659'
p1021
sg10
S'xx33da841852f262a0d8d976e467a70d31'
p1022
sg12
S'xxd8ea3481c96f6447a2139f6d60be78cd'
p1023
sg14
S'Mozilla/5.0 (Linux; Android 5.0.2; Redmi Note 3 Build/LRX22G) AppleWebKit/537.36 (KHTML, like Gecko) Version/4.0 Chrome/37.0.0.0 Mobile MQQBrowser/6.8 TBS/036849 Safari/537.36 MicroMessenger/6.3.27.880 NetType/WIFI Language/zh_CN'
p1024
sg16
S'a4c2670cc8e6857a906a17fd7388d62c'
p1025
sa(dp1026
g2
S'27517'
p1027
sg4
S'1154'
p1028
sg6
S'5b48c78089c6f21a864d9e71cbaf0c9d'
p1029
sg8
S'xx17d1012a6993a2731a0e118b58cbe659'
p1030
sg10
S'xx33da841852f262a0d8d976e467a70d31'
p1031
sg12
S'xxd8ea3481c96f6447a2139f6d60be78cd'
p1032
sg14
S'Mozilla/5.0 (Linux; Android 5.0.2; Redmi Note 3 Build/LRX22G) AppleWebKit/537.36 (KHTML, like Gecko) Version/4.0 Chrome/37.0.0.0 Mobile MQQBrowser/6.8 TBS/036849 Safari/537.36 MicroMessenger/6.3.27.880 NetType/WIFI Language/zh_CN'
p1033
sg16
S'a4c2670cc8e6857a906a17fd7388d62c'
p1034
sa(dp1035
g2
S'29479'
p1036
sg4
S'1168'
p1037
sg6
S'5b48c78089c6f21a864d9e71cbaf0c9d'
p1038
sg8
S'xx17d1012a6993a2731a0e118b58cbe659'
p1039
sg10
S'xx33da841852f262a0d8d976e467a70d31'
p1040
sg12
S'xxd8ea3481c96f6447a2139f6d60be78cd'
p1041
sg14
S'Mozilla/5.0 (Linux; Android 5.0.2; Redmi Note 3 Build/LRX22G) AppleWebKit/537.36 (KHTML, like Gecko) Version/4.0 Chrome/37.0.0.0 Mobile MQQBrowser/6.8 TBS/036849 Safari/537.36 MicroMessenger/6.3.27.880 NetType/WIFI Language/zh_CN'
p1042
sg16
S'a4c2670cc8e6857a906a17fd7388d62c'
p1043
sa(dp1044
g2
S'39797'
p1045
sg4
S'1169'
p1046
sg6
S'7424a490a049e5ce539b9db9fea35724'
p1047
sg8
S'xx17d1012a6993a2731a0e118b58cbe659'
p1048
sg10
S'xx33da841852f262a0d8d976e467a70d31'
p1049
sg12
S'xxd8ea3481c96f6447a2139f6d60be78cd'
p1050
sg14
S'Mozilla/5.0 (Linux; Android 5.0.2; Redmi Note 3 Build/LRX22G) AppleWebKit/537.36 (KHTML, like Gecko) Version/4.0 Chrome/37.0.0.0 Mobile MQQBrowser/6.8 TBS/036849 Safari/537.36 MicroMessenger/6.3.27.880 NetType/WIFI Language/zh_CN'
p1051
sg16
S'a4c2670cc8e6857a906a17fd7388d62c'
p1052
sa(dp1053
g2
S'27517'
p1054
sg4
S'1172'
p1055
sg6
S'5b48c78089c6f21a864d9e71cbaf0c9d'
p1056
sg8
S'xx17d1012a6993a2731a0e118b58cbe659'
p1057
sg10
S'xx33da841852f262a0d8d976e467a70d31'
p1058
sg12
S'xxd8ea3481c96f6447a2139f6d60be78cd'
p1059
sg14
S'Mozilla/5.0 (Linux; Android 5.0.2; Redmi Note 3 Build/LRX22G) AppleWebKit/537.36 (KHTML, like Gecko) Version/4.0 Chrome/37.0.0.0 Mobile MQQBrowser/6.8 TBS/036849 Safari/537.36 MicroMessenger/6.3.27.880 NetType/WIFI Language/zh_CN'
p1060
sg16
S'a4c2670cc8e6857a906a17fd7388d62c'
p1061
sa(dp1062
g2
S'39797'
p1063
sg4
S'1180'
p1064
sg6
S'7424a490a049e5ce539b9db9fea35724'
p1065
sg8
S'xx17d1012a6993a2731a0e118b58cbe659'
p1066
sg10
S'xx33da841852f262a0d8d976e467a70d31'
p1067
sg12
S'xxd8ea3481c96f6447a2139f6d60be78cd'
p1068
sg14
S'Mozilla/5.0 (Linux; Android 5.0.2; Redmi Note 3 Build/LRX22G) AppleWebKit/537.36 (KHTML, like Gecko) Version/4.0 Chrome/37.0.0.0 Mobile MQQBrowser/6.8 TBS/036849 Safari/537.36 MicroMessenger/6.3.27.880 NetType/WIFI Language/zh_CN'
p1069
sg16
S'a4c2670cc8e6857a906a17fd7388d62c'
p1070
sa(dp1071
g2
S'29479'
p1072
sg4
S'1181'
p1073
sg6
S'5b48c78089c6f21a864d9e71cbaf0c9d'
p1074
sg8
S'xx17d1012a6993a2731a0e118b58cbe659'
p1075
sg10
S'xx33da841852f262a0d8d976e467a70d31'
p1076
sg12
S'xxd8ea3481c96f6447a2139f6d60be78cd'
p1077
sg14
S'Mozilla/5.0 (Linux; Android 5.0.2; Redmi Note 3 Build/LRX22G) AppleWebKit/537.36 (KHTML, like Gecko) Version/4.0 Chrome/37.0.0.0 Mobile MQQBrowser/6.8 TBS/036849 Safari/537.36 MicroMessenger/6.3.27.880 NetType/WIFI Language/zh_CN'
p1078
sg16
S'a4c2670cc8e6857a906a17fd7388d62c'
p1079
sa(dp1080
g2
S'27517'
p1081
sg4
S'1183'
p1082
sg6
S'5b48c78089c6f21a864d9e71cbaf0c9d'
p1083
sg8
S'xx17d1012a6993a2731a0e118b58cbe659'
p1084
sg10
S'xx33da841852f262a0d8d976e467a70d31'
p1085
sg12
S'xxd8ea3481c96f6447a2139f6d60be78cd'
p1086
sg14
S'Mozilla/5.0 (Linux; Android 5.0.2; Redmi Note 3 Build/LRX22G) AppleWebKit/537.36 (KHTML, like Gecko) Version/4.0 Chrome/37.0.0.0 Mobile MQQBrowser/6.8 TBS/036849 Safari/537.36 MicroMessenger/6.3.27.880 NetType/WIFI Language/zh_CN'
p1087
sg16
S'a4c2670cc8e6857a906a17fd7388d62c'
p1088
sa(dp1089
g2
S'27517'
p1090
sg4
S'1228'
p1091
sg6
S'5b48c78089c6f21a864d9e71cbaf0c9d'
p1092
sg8
S'xx17d1012a6993a2731a0e118b58cbe659'
p1093
sg10
S'xx33da841852f262a0d8d976e467a70d31'
p1094
sg12
S'xxd8ea3481c96f6447a2139f6d60be78cd'
p1095
sg14
S'Mozilla/5.0 (Linux; Android 5.0.2; Redmi Note 3 Build/LRX22G) AppleWebKit/537.36 (KHTML, like Gecko) Version/4.0 Chrome/37.0.0.0 Mobile MQQBrowser/6.8 TBS/036849 Safari/537.36 MicroMessenger/6.3.27.880 NetType/WIFI Language/zh_CN'
p1096
sg16
S'a4c2670cc8e6857a906a17fd7388d62c'
p1097
sa(dp1098
g2
S'27517'
p1099
sg4
S'1244'
p1100
sg6
S'5b48c78089c6f21a864d9e71cbaf0c9d'
p1101
sg8
S'xx17d1012a6993a2731a0e118b58cbe659'
p1102
sg10
S'xx33da841852f262a0d8d976e467a70d31'
p1103
sg12
S'xxd8ea3481c96f6447a2139f6d60be78cd'
p1104
sg14
S'Mozilla/5.0 (Linux; Android 5.0.2; Redmi Note 3 Build/LRX22G) AppleWebKit/537.36 (KHTML, like Gecko) Version/4.0 Chrome/37.0.0.0 Mobile MQQBrowser/6.8 TBS/036849 Safari/537.36 MicroMessenger/6.3.27.880 NetType/WIFI Language/zh_CN'
p1105
sg16
S'a4c2670cc8e6857a906a17fd7388d62c'
p1106
sa(dp1107
g2
S'27517'
p1108
sg4
S'1255'
p1109
sg6
S'5b48c78089c6f21a864d9e71cbaf0c9d'
p1110
sg8
S'xx17d1012a6993a2731a0e118b58cbe659'
p1111
sg10
S'xx33da841852f262a0d8d976e467a70d31'
p1112
sg12
S'xxd8ea3481c96f6447a2139f6d60be78cd'
p1113
sg14
S'Mozilla/5.0 (Linux; Android 5.0.2; Redmi Note 3 Build/LRX22G) AppleWebKit/537.36 (KHTML, like Gecko) Version/4.0 Chrome/37.0.0.0 Mobile MQQBrowser/6.8 TBS/036849 Safari/537.36 MicroMessenger/6.3.27.880 NetType/WIFI Language/zh_CN'
p1114
sg16
S'a4c2670cc8e6857a906a17fd7388d62c'
p1115
sa(dp1116
g2
S'27517'
p1117
sg4
S'1350'
p1118
sg6
S'5b48c78089c6f21a864d9e71cbaf0c9d'
p1119
sg8
S'xx17d1012a6993a2731a0e118b58cbe659'
p1120
sg10
S'xx33da841852f262a0d8d976e467a70d31'
p1121
sg12
S'xxd8ea3481c96f6447a2139f6d60be78cd'
p1122
sg14
S'Mozilla/5.0 (Linux; Android 5.0.2; Redmi Note 3 Build/LRX22G) AppleWebKit/537.36 (KHTML, like Gecko) Version/4.0 Chrome/37.0.0.0 Mobile MQQBrowser/6.8 TBS/036849 Safari/537.36 MicroMessenger/6.3.27.880 NetType/WIFI Language/zh_CN'
p1123
sg16
S'a4c2670cc8e6857a906a17fd7388d62c'
p1124
sa(dp1125
g2
S'27517'
p1126
sg4
S'1351'
p1127
sg6
S'5b48c78089c6f21a864d9e71cbaf0c9d'
p1128
sg8
S'xx17d1012a6993a2731a0e118b58cbe659'
p1129
sg10
S'xx33da841852f262a0d8d976e467a70d31'
p1130
sg12
S'xxd8ea3481c96f6447a2139f6d60be78cd'
p1131
sg14
S'Mozilla/5.0 (Linux; Android 5.0.2; Redmi Note 3 Build/LRX22G) AppleWebKit/537.36 (KHTML, like Gecko) Version/4.0 Chrome/37.0.0.0 Mobile MQQBrowser/6.8 TBS/036849 Safari/537.36 MicroMessenger/6.3.27.880 NetType/WIFI Language/zh_CN'
p1132
sg16
S'a4c2670cc8e6857a906a17fd7388d62c'
p1133
sa(dp1134
g2
S'27517'
p1135
sg4
S'1357'
p1136
sg6
S'5b48c78089c6f21a864d9e71cbaf0c9d'
p1137
sg8
S'xx17d1012a6993a2731a0e118b58cbe659'
p1138
sg10
S'xx33da841852f262a0d8d976e467a70d31'
p1139
sg12
S'xxd8ea3481c96f6447a2139f6d60be78cd'
p1140
sg14
S'Mozilla/5.0 (Linux; Android 5.0.2; Redmi Note 3 Build/LRX22G) AppleWebKit/537.36 (KHTML, like Gecko) Version/4.0 Chrome/37.0.0.0 Mobile MQQBrowser/6.8 TBS/036849 Safari/537.36 MicroMessenger/6.3.27.880 NetType/WIFI Language/zh_CN'
p1141
sg16
S'a4c2670cc8e6857a906a17fd7388d62c'
p1142
sa(dp1143
g2
S'27517'
p1144
sg4
S'1366'
p1145
sg6
S'5b48c78089c6f21a864d9e71cbaf0c9d'
p1146
sg8
S'xx17d1012a6993a2731a0e118b58cbe659'
p1147
sg10
S'xx33da841852f262a0d8d976e467a70d31'
p1148
sg12
S'xxd8ea3481c96f6447a2139f6d60be78cd'
p1149
sg14
S'Mozilla/5.0 (Linux; Android 5.0.2; Redmi Note 3 Build/LRX22G) AppleWebKit/537.36 (KHTML, like Gecko) Version/4.0 Chrome/37.0.0.0 Mobile MQQBrowser/6.8 TBS/036849 Safari/537.36 MicroMessenger/6.3.27.880 NetType/WIFI Language/zh_CN'
p1150
sg16
S'a4c2670cc8e6857a906a17fd7388d62c'
p1151
sa(dp1152
g2
S'27517'
p1153
sg4
S'1378'
p1154
sg6
S'5b48c78089c6f21a864d9e71cbaf0c9d'
p1155
sg8
S'xx17d1012a6993a2731a0e118b58cbe659'
p1156
sg10
S'xx33da841852f262a0d8d976e467a70d31'
p1157
sg12
S'xxd8ea3481c96f6447a2139f6d60be78cd'
p1158
sg14
S'Mozilla/5.0 (Linux; Android 5.0.2; Redmi Note 3 Build/LRX22G) AppleWebKit/537.36 (KHTML, like Gecko) Version/4.0 Chrome/37.0.0.0 Mobile MQQBrowser/6.8 TBS/036849 Safari/537.36 MicroMessenger/6.3.27.880 NetType/WIFI Language/zh_CN'
p1159
sg16
S'a4c2670cc8e6857a906a17fd7388d62c'
p1160
sa(dp1161
g2
S'27517'
p1162
sg4
S'1394'
p1163
sg6
S'5b48c78089c6f21a864d9e71cbaf0c9d'
p1164
sg8
S'xx17d1012a6993a2731a0e118b58cbe659'
p1165
sg10
S'xx33da841852f262a0d8d976e467a70d31'
p1166
sg12
S'xxd8ea3481c96f6447a2139f6d60be78cd'
p1167
sg14
S'Mozilla/5.0 (Linux; Android 5.0.2; Redmi Note 3 Build/LRX22G) AppleWebKit/537.36 (KHTML, like Gecko) Version/4.0 Chrome/37.0.0.0 Mobile MQQBrowser/6.8 TBS/036849 Safari/537.36 MicroMessenger/6.3.27.880 NetType/WIFI Language/zh_CN'
p1168
sg16
S'a4c2670cc8e6857a906a17fd7388d62c'
p1169
sa(dp1170
g2
S'27517'
p1171
sg4
S'1400'
p1172
sg6
S'5b48c78089c6f21a864d9e71cbaf0c9d'
p1173
sg8
S'xx17d1012a6993a2731a0e118b58cbe659'
p1174
sg10
S'xx33da841852f262a0d8d976e467a70d31'
p1175
sg12
S'xxd8ea3481c96f6447a2139f6d60be78cd'
p1176
sg14
S'Mozilla/5.0 (Linux; Android 5.0.2; Redmi Note 3 Build/LRX22G) AppleWebKit/537.36 (KHTML, like Gecko) Version/4.0 Chrome/37.0.0.0 Mobile MQQBrowser/6.8 TBS/036849 Safari/537.36 MicroMessenger/6.3.27.880 NetType/WIFI Language/zh_CN'
p1177
sg16
S'a4c2670cc8e6857a906a17fd7388d62c'
p1178
sa(dp1179
g2
S'27517'
p1180
sg4
S'1415'
p1181
sg6
S'5b48c78089c6f21a864d9e71cbaf0c9d'
p1182
sg8
S'xx17d1012a6993a2731a0e118b58cbe659'
p1183
sg10
S'xx33da841852f262a0d8d976e467a70d31'
p1184
sg12
S'xxd8ea3481c96f6447a2139f6d60be78cd'
p1185
sg14
S'Mozilla/5.0 (Linux; Android 5.0.2; Redmi Note 3 Build/LRX22G) AppleWebKit/537.36 (KHTML, like Gecko) Version/4.0 Chrome/37.0.0.0 Mobile MQQBrowser/6.8 TBS/036849 Safari/537.36 MicroMessenger/6.3.27.880 NetType/WIFI Language/zh_CN'
p1186
sg16
S'a4c2670cc8e6857a906a17fd7388d62c'
p1187
sa(dp1188
g2
S'27517'
p1189
sg4
S'1426'
p1190
sg6
S'5b48c78089c6f21a864d9e71cbaf0c9d'
p1191
sg8
S'xx17d1012a6993a2731a0e118b58cbe659'
p1192
sg10
S'xx33da841852f262a0d8d976e467a70d31'
p1193
sg12
S'xxd8ea3481c96f6447a2139f6d60be78cd'
p1194
sg14
S'Mozilla/5.0 (Linux; Android 5.0.2; Redmi Note 3 Build/LRX22G) AppleWebKit/537.36 (KHTML, like Gecko) Version/4.0 Chrome/37.0.0.0 Mobile MQQBrowser/6.8 TBS/036849 Safari/537.36 MicroMessenger/6.3.27.880 NetType/WIFI Language/zh_CN'
p1195
sg16
S'a4c2670cc8e6857a906a17fd7388d62c'
p1196
sa(dp1197
g2
S'27517'
p1198
sg4
S'1447'
p1199
sg6
S'5b48c78089c6f21a864d9e71cbaf0c9d'
p1200
sg8
S'xx17d1012a6993a2731a0e118b58cbe659'
p1201
sg10
S'xx33da841852f262a0d8d976e467a70d31'
p1202
sg12
S'xxd8ea3481c96f6447a2139f6d60be78cd'
p1203
sg14
S'Mozilla/5.0 (Linux; Android 5.0.2; Redmi Note 3 Build/LRX22G) AppleWebKit/537.36 (KHTML, like Gecko) Version/4.0 Chrome/37.0.0.0 Mobile MQQBrowser/6.8 TBS/036849 Safari/537.36 MicroMessenger/6.3.27.880 NetType/WIFI Language/zh_CN'
p1204
sg16
S'a4c2670cc8e6857a906a17fd7388d62c'
p1205
sa(dp1206
g2
S'27517'
p1207
sg4
S'1456'
p1208
sg6
S'5b48c78089c6f21a864d9e71cbaf0c9d'
p1209
sg8
S'xx17d1012a6993a2731a0e118b58cbe659'
p1210
sg10
S'xx33da841852f262a0d8d976e467a70d31'
p1211
sg12
S'xxd8ea3481c96f6447a2139f6d60be78cd'
p1212
sg14
S'Mozilla/5.0 (Linux; Android 5.0.2; Redmi Note 3 Build/LRX22G) AppleWebKit/537.36 (KHTML, like Gecko) Version/4.0 Chrome/37.0.0.0 Mobile MQQBrowser/6.8 TBS/036849 Safari/537.36 MicroMessenger/6.3.27.880 NetType/WIFI Language/zh_CN'
p1213
sg16
S'a4c2670cc8e6857a906a17fd7388d62c'
p1214
sa(dp1215
g2
S'27517'
p1216
sg4
S'1465'
p1217
sg6
S'5b48c78089c6f21a864d9e71cbaf0c9d'
p1218
sg8
S'xx17d1012a6993a2731a0e118b58cbe659'
p1219
sg10
S'xx33da841852f262a0d8d976e467a70d31'
p1220
sg12
S'xxd8ea3481c96f6447a2139f6d60be78cd'
p1221
sg14
S'Mozilla/5.0 (Linux; Android 5.0.2; Redmi Note 3 Build/LRX22G) AppleWebKit/537.36 (KHTML, like Gecko) Version/4.0 Chrome/37.0.0.0 Mobile MQQBrowser/6.8 TBS/036849 Safari/537.36 MicroMessenger/6.3.27.880 NetType/WIFI Language/zh_CN'
p1222
sg16
S'a4c2670cc8e6857a906a17fd7388d62c'
p1223
sa(dp1224
g2
S'27517'
p1225
sg4
S'1484'
p1226
sg6
S'5b48c78089c6f21a864d9e71cbaf0c9d'
p1227
sg8
S'xx17d1012a6993a2731a0e118b58cbe659'
p1228
sg10
S'xx33da841852f262a0d8d976e467a70d31'
p1229
sg12
S'xxd8ea3481c96f6447a2139f6d60be78cd'
p1230
sg14
S'Mozilla/5.0 (Linux; Android 5.0.2; Redmi Note 3 Build/LRX22G) AppleWebKit/537.36 (KHTML, like Gecko) Version/4.0 Chrome/37.0.0.0 Mobile MQQBrowser/6.8 TBS/036849 Safari/537.36 MicroMessenger/6.3.27.880 NetType/WIFI Language/zh_CN'
p1231
sg16
S'a4c2670cc8e6857a906a17fd7388d62c'
p1232
sa(dp1233
g2
S'27517'
p1234
sg4
S'1507'
p1235
sg6
S'5b48c78089c6f21a864d9e71cbaf0c9d'
p1236
sg8
S'xx17d1012a6993a2731a0e118b58cbe659'
p1237
sg10
S'xx33da841852f262a0d8d976e467a70d31'
p1238
sg12
S'xxd8ea3481c96f6447a2139f6d60be78cd'
p1239
sg14
S'Mozilla/5.0 (Linux; Android 5.0.2; Redmi Note 3 Build/LRX22G) AppleWebKit/537.36 (KHTML, like Gecko) Version/4.0 Chrome/37.0.0.0 Mobile MQQBrowser/6.8 TBS/036849 Safari/537.36 MicroMessenger/6.3.27.880 NetType/WIFI Language/zh_CN'
p1240
sg16
S'a4c2670cc8e6857a906a17fd7388d62c'
p1241
sa(dp1242
g2
S'27517'
p1243
sg4
S'1539'
p1244
sg6
S'5b48c78089c6f21a864d9e71cbaf0c9d'
p1245
sg8
S'xx17d1012a6993a2731a0e118b58cbe659'
p1246
sg10
S'xx33da841852f262a0d8d976e467a70d31'
p1247
sg12
S'xxd8ea3481c96f6447a2139f6d60be78cd'
p1248
sg14
S'Mozilla/5.0 (Linux; Android 5.0.2; Redmi Note 3 Build/LRX22G) AppleWebKit/537.36 (KHTML, like Gecko) Version/4.0 Chrome/37.0.0.0 Mobile MQQBrowser/6.8 TBS/036849 Safari/537.36 MicroMessenger/6.3.27.880 NetType/WIFI Language/zh_CN'
p1249
sg16
S'a4c2670cc8e6857a906a17fd7388d62c'
p1250
sa(dp1251
g2
S'27517'
p1252
sg4
S'1544'
p1253
sg6
S'5b48c78089c6f21a864d9e71cbaf0c9d'
p1254
sg8
S'xx17d1012a6993a2731a0e118b58cbe659'
p1255
sg10
S'xx33da841852f262a0d8d976e467a70d31'
p1256
sg12
S'xxd8ea3481c96f6447a2139f6d60be78cd'
p1257
sg14
S'Mozilla/5.0 (Linux; Android 5.0.2; Redmi Note 3 Build/LRX22G) AppleWebKit/537.36 (KHTML, like Gecko) Version/4.0 Chrome/37.0.0.0 Mobile MQQBrowser/6.8 TBS/036849 Safari/537.36 MicroMessenger/6.3.27.880 NetType/WIFI Language/zh_CN'
p1258
sg16
S'a4c2670cc8e6857a906a17fd7388d62c'
p1259
sa(dp1260
g2
S'27517'
p1261
sg4
S'1554'
p1262
sg6
S'5b48c78089c6f21a864d9e71cbaf0c9d'
p1263
sg8
S'xx17d1012a6993a2731a0e118b58cbe659'
p1264
sg10
S'xx33da841852f262a0d8d976e467a70d31'
p1265
sg12
S'xxd8ea3481c96f6447a2139f6d60be78cd'
p1266
sg14
S'Mozilla/5.0 (Linux; Android 5.0.2; Redmi Note 3 Build/LRX22G) AppleWebKit/537.36 (KHTML, like Gecko) Version/4.0 Chrome/37.0.0.0 Mobile MQQBrowser/6.8 TBS/036849 Safari/537.36 MicroMessenger/6.3.27.880 NetType/WIFI Language/zh_CN'
p1267
sg16
S'a4c2670cc8e6857a906a17fd7388d62c'
p1268
sa(dp1269
g2
S'27517'
p1270
sg4
S'1561'
p1271
sg6
S'5b48c78089c6f21a864d9e71cbaf0c9d'
p1272
sg8
S'xx17d1012a6993a2731a0e118b58cbe659'
p1273
sg10
S'xx33da841852f262a0d8d976e467a70d31'
p1274
sg12
S'xxd8ea3481c96f6447a2139f6d60be78cd'
p1275
sg14
S'Mozilla/5.0 (Linux; Android 5.0.2; Redmi Note 3 Build/LRX22G) AppleWebKit/537.36 (KHTML, like Gecko) Version/4.0 Chrome/37.0.0.0 Mobile MQQBrowser/6.8 TBS/036849 Safari/537.36 MicroMessenger/6.3.27.880 NetType/WIFI Language/zh_CN'
p1276
sg16
S'a4c2670cc8e6857a906a17fd7388d62c'
p1277
sa(dp1278
g2
S'27517'
p1279
sg4
S'1571'
p1280
sg6
S'5b48c78089c6f21a864d9e71cbaf0c9d'
p1281
sg8
S'xx17d1012a6993a2731a0e118b58cbe659'
p1282
sg10
S'xx33da841852f262a0d8d976e467a70d31'
p1283
sg12
S'xxd8ea3481c96f6447a2139f6d60be78cd'
p1284
sg14
S'Mozilla/5.0 (Linux; Android 5.0.2; Redmi Note 3 Build/LRX22G) AppleWebKit/537.36 (KHTML, like Gecko) Version/4.0 Chrome/37.0.0.0 Mobile MQQBrowser/6.8 TBS/036849 Safari/537.36 MicroMessenger/6.3.27.880 NetType/WIFI Language/zh_CN'
p1285
sg16
S'a4c2670cc8e6857a906a17fd7388d62c'
p1286
sa(dp1287
g2
S'27517'
p1288
sg4
S'1592'
p1289
sg6
S'5b48c78089c6f21a864d9e71cbaf0c9d'
p1290
sg8
S'xx17d1012a6993a2731a0e118b58cbe659'
p1291
sg10
S'xx33da841852f262a0d8d976e467a70d31'
p1292
sg12
S'xxd8ea3481c96f6447a2139f6d60be78cd'
p1293
sg14
S'Mozilla/5.0 (Linux; Android 5.0.2; Redmi Note 3 Build/LRX22G) AppleWebKit/537.36 (KHTML, like Gecko) Version/4.0 Chrome/37.0.0.0 Mobile MQQBrowser/6.8 TBS/036849 Safari/537.36 MicroMessenger/6.3.27.880 NetType/WIFI Language/zh_CN'
p1294
sg16
S'a4c2670cc8e6857a906a17fd7388d62c'
p1295
sa(dp1296
g2
S'27517'
p1297
sg4
S'1601'
p1298
sg6
S'5b48c78089c6f21a864d9e71cbaf0c9d'
p1299
sg8
S'xx17d1012a6993a2731a0e118b58cbe659'
p1300
sg10
S'xx33da841852f262a0d8d976e467a70d31'
p1301
sg12
S'xxd8ea3481c96f6447a2139f6d60be78cd'
p1302
sg14
S'Mozilla/5.0 (Linux; Android 5.0.2; Redmi Note 3 Build/LRX22G) AppleWebKit/537.36 (KHTML, like Gecko) Version/4.0 Chrome/37.0.0.0 Mobile MQQBrowser/6.8 TBS/036849 Safari/537.36 MicroMessenger/6.3.27.880 NetType/WIFI Language/zh_CN'
p1303
sg16
S'a4c2670cc8e6857a906a17fd7388d62c'
p1304
sa(dp1305
g2
S'27517'
p1306
sg4
S'1639'
p1307
sg6
S'5b48c78089c6f21a864d9e71cbaf0c9d'
p1308
sg8
S'xx17d1012a6993a2731a0e118b58cbe659'
p1309
sg10
S'xx33da841852f262a0d8d976e467a70d31'
p1310
sg12
S'xxd8ea3481c96f6447a2139f6d60be78cd'
p1311
sg14
S'Mozilla/5.0 (Linux; Android 5.0.2; Redmi Note 3 Build/LRX22G) AppleWebKit/537.36 (KHTML, like Gecko) Version/4.0 Chrome/37.0.0.0 Mobile MQQBrowser/6.8 TBS/036849 Safari/537.36 MicroMessenger/6.3.27.880 NetType/WIFI Language/zh_CN'
p1312
sg16
S'a4c2670cc8e6857a906a17fd7388d62c'
p1313
sa(dp1314
g2
S'27517'
p1315
sg4
S'1655'
p1316
sg6
S'5b48c78089c6f21a864d9e71cbaf0c9d'
p1317
sg8
S'xx17d1012a6993a2731a0e118b58cbe659'
p1318
sg10
S'xx33da841852f262a0d8d976e467a70d31'
p1319
sg12
S'xxd8ea3481c96f6447a2139f6d60be78cd'
p1320
sg14
S'Mozilla/5.0 (Linux; Android 5.0.2; Redmi Note 3 Build/LRX22G) AppleWebKit/537.36 (KHTML, like Gecko) Version/4.0 Chrome/37.0.0.0 Mobile MQQBrowser/6.8 TBS/036849 Safari/537.36 MicroMessenger/6.3.27.880 NetType/WIFI Language/zh_CN'
p1321
sg16
S'a4c2670cc8e6857a906a17fd7388d62c'
p1322
sa(dp1323
g2
S'27517'
p1324
sg4
S'1673'
p1325
sg6
S'5b48c78089c6f21a864d9e71cbaf0c9d'
p1326
sg8
S'xx17d1012a6993a2731a0e118b58cbe659'
p1327
sg10
S'xx33da841852f262a0d8d976e467a70d31'
p1328
sg12
S'xxd8ea3481c96f6447a2139f6d60be78cd'
p1329
sg14
S'Mozilla/5.0 (Linux; Android 5.0.2; Redmi Note 3 Build/LRX22G) AppleWebKit/537.36 (KHTML, like Gecko) Version/4.0 Chrome/37.0.0.0 Mobile MQQBrowser/6.8 TBS/036849 Safari/537.36 MicroMessenger/6.3.27.880 NetType/WIFI Language/zh_CN'
p1330
sg16
S'a4c2670cc8e6857a906a17fd7388d62c'
p1331
sa(dp1332
g2
S'27517'
p1333
sg4
S'1685'
p1334
sg6
S'5b48c78089c6f21a864d9e71cbaf0c9d'
p1335
sg8
S'xx17d1012a6993a2731a0e118b58cbe659'
p1336
sg10
S'xx33da841852f262a0d8d976e467a70d31'
p1337
sg12
S'xxd8ea3481c96f6447a2139f6d60be78cd'
p1338
sg14
S'Mozilla/5.0 (Linux; Android 5.0.2; Redmi Note 3 Build/LRX22G) AppleWebKit/537.36 (KHTML, like Gecko) Version/4.0 Chrome/37.0.0.0 Mobile MQQBrowser/6.8 TBS/036849 Safari/537.36 MicroMessenger/6.3.27.880 NetType/WIFI Language/zh_CN'
p1339
sg16
S'a4c2670cc8e6857a906a17fd7388d62c'
p1340
sa(dp1341
g2
S'27517'
p1342
sg4
S'1695'
p1343
sg6
S'5b48c78089c6f21a864d9e71cbaf0c9d'
p1344
sg8
S'xx17d1012a6993a2731a0e118b58cbe659'
p1345
sg10
S'xx33da841852f262a0d8d976e467a70d31'
p1346
sg12
S'xxd8ea3481c96f6447a2139f6d60be78cd'
p1347
sg14
S'Mozilla/5.0 (Linux; Android 5.0.2; Redmi Note 3 Build/LRX22G) AppleWebKit/537.36 (KHTML, like Gecko) Version/4.0 Chrome/37.0.0.0 Mobile MQQBrowser/6.8 TBS/036849 Safari/537.36 MicroMessenger/6.3.27.880 NetType/WIFI Language/zh_CN'
p1348
sg16
S'a4c2670cc8e6857a906a17fd7388d62c'
p1349
sa(dp1350
g2
S'27517'
p1351
sg4
S'1703'
p1352
sg6
S'5b48c78089c6f21a864d9e71cbaf0c9d'
p1353
sg8
S'xx17d1012a6993a2731a0e118b58cbe659'
p1354
sg10
S'xx33da841852f262a0d8d976e467a70d31'
p1355
sg12
S'xxd8ea3481c96f6447a2139f6d60be78cd'
p1356
sg14
S'Mozilla/5.0 (Linux; Android 5.0.2; Redmi Note 3 Build/LRX22G) AppleWebKit/537.36 (KHTML, like Gecko) Version/4.0 Chrome/37.0.0.0 Mobile MQQBrowser/6.8 TBS/036849 Safari/537.36 MicroMessenger/6.3.27.880 NetType/WIFI Language/zh_CN'
p1357
sg16
S'a4c2670cc8e6857a906a17fd7388d62c'
p1358
sa(dp1359
g2
S'27517'
p1360
sg4
S'1712'
p1361
sg6
S'5b48c78089c6f21a864d9e71cbaf0c9d'
p1362
sg8
S'xx17d1012a6993a2731a0e118b58cbe659'
p1363
sg10
S'xx33da841852f262a0d8d976e467a70d31'
p1364
sg12
S'xxd8ea3481c96f6447a2139f6d60be78cd'
p1365
sg14
S'Mozilla/5.0 (Linux; Android 5.0.2; Redmi Note 3 Build/LRX22G) AppleWebKit/537.36 (KHTML, like Gecko) Version/4.0 Chrome/37.0.0.0 Mobile MQQBrowser/6.8 TBS/036849 Safari/537.36 MicroMessenger/6.3.27.880 NetType/WIFI Language/zh_CN'
p1366
sg16
S'a4c2670cc8e6857a906a17fd7388d62c'
p1367
sa(dp1368
g2
S'29479'
p1369
sg4
S'1847'
p1370
sg6
S'5b48c78089c6f21a864d9e71cbaf0c9d'
p1371
sg8
S'xx17d1012a6993a2731a0e118b58cbe659'
p1372
sg10
S'xx33da841852f262a0d8d976e467a70d31'
p1373
sg12
S'xxd8ea3481c96f6447a2139f6d60be78cd'
p1374
sg14
S'Mozilla/5.0 (Linux; Android 5.0.2; Redmi Note 3 Build/LRX22G) AppleWebKit/537.36 (KHTML, like Gecko) Version/4.0 Chrome/37.0.0.0 Mobile MQQBrowser/6.8 TBS/036849 Safari/537.36 MicroMessenger/6.3.27.880 NetType/WIFI Language/zh_CN'
p1375
sg16
S'a4c2670cc8e6857a906a17fd7388d62c'
p1376
sa(dp1377
g2
S'38051'
p1378
sg4
S'1857'
p1379
sg6
S'f010042e2180c9da189927896f421f74'
p1380
sg8
S'xx8f24d949b6f8c2fcb793073e407a8a18'
p1381
sg10
S'xxb8c0bbfc753f58683003b1ffe3f8145b'
p1382
sg12
S'xxd8ea3481c96f6447a2139f6d60be78cd'
p1383
sg14
S'Mozilla/5.0 (Linux; Android 5.0.2; Redmi Note 3 Build/LRX22G) AppleWebKit/537.36 (KHTML, like Gecko) Version/4.0 Chrome/37.0.0.0 Mobile MQQBrowser/6.8 TBS/036849 Safari/537.36 MicroMessenger/6.3.27.880 NetType/cmnet Language/zh_CN'
p1384
sg16
S'fe0295c57b5e24b4e8612aa732b1f27f'
p1385
sa(dp1386
g2
S'29479'
p1387
sg4
S'1861'
p1388
sg6
S'5b48c78089c6f21a864d9e71cbaf0c9d'
p1389
sg8
S'xx17d1012a6993a2731a0e118b58cbe659'
p1390
sg10
S'xx33da841852f262a0d8d976e467a70d31'
p1391
sg12
S'xxd8ea3481c96f6447a2139f6d60be78cd'
p1392
sg14
S'Mozilla/5.0 (Linux; Android 5.0.2; Redmi Note 3 Build/LRX22G) AppleWebKit/537.36 (KHTML, like Gecko) Version/4.0 Chrome/37.0.0.0 Mobile MQQBrowser/6.8 TBS/036849 Safari/537.36 MicroMessenger/6.3.27.880 NetType/WIFI Language/zh_CN'
p1393
sg16
S'a4c2670cc8e6857a906a17fd7388d62c'
p1394
sa(dp1395
g2
S'38051'
p1396
sg4
S'1870'
p1397
sg6
S'f010042e2180c9da189927896f421f74'
p1398
sg8
S'xx8f24d949b6f8c2fcb793073e407a8a18'
p1399
sg10
S'xxb8c0bbfc753f58683003b1ffe3f8145b'
p1400
sg12
S'xxd8ea3481c96f6447a2139f6d60be78cd'
p1401
sg14
S'Mozilla/5.0 (Linux; Android 5.0.2; Redmi Note 3 Build/LRX22G) AppleWebKit/537.36 (KHTML, like Gecko) Version/4.0 Chrome/37.0.0.0 Mobile MQQBrowser/6.8 TBS/036849 Safari/537.36 MicroMessenger/6.3.27.880 NetType/cmnet Language/zh_CN'
p1402
sg16
S'fe0295c57b5e24b4e8612aa732b1f27f'
p1403
sa(dp1404
g2
S'25377'
p1405
sg4
S'1877'
p1406
sg6
S'03f52a4f7e66c7ccc384ce91e7bd50e9'
p1407
sg8
S'xx33afe1151a1862c2d4e481bc28b67aa1'
p1408
sg10
S'xx33da841852f262a0d8d976e467a70d31'
p1409
sg12
S'xxd8ea3481c96f6447a2139f6d60be78cd'
p1410
sg14
S'Mozilla/5.0 (Linux; Android 5.0.2; Redmi Note 3 Build/LRX22G) AppleWebKit/537.36 (KHTML, like Gecko) Version/4.0 Chrome/37.0.0.0 Mobile MQQBrowser/6.8 TBS/036869 Safari/537.36 MicroMessenger/6.3.27.880 NetType/WIFI Language/zh_CN'
p1411
sg16
S'75e856709db5ce634bed1842a3a1ec03'
p1412
sa(dp1413
g2
S'38051'
p1414
sg4
S'1886'
p1415
sg6
S'f010042e2180c9da189927896f421f74'
p1416
sg8
S'xx8f24d949b6f8c2fcb793073e407a8a18'
p1417
sg10
S'xxb8c0bbfc753f58683003b1ffe3f8145b'
p1418
sg12
S'xxd8ea3481c96f6447a2139f6d60be78cd'
p1419
sg14
S'Mozilla/5.0 (Linux; Android 5.0.2; Redmi Note 3 Build/LRX22G) AppleWebKit/537.36 (KHTML, like Gecko) Version/4.0 Chrome/37.0.0.0 Mobile MQQBrowser/6.8 TBS/036849 Safari/537.36 MicroMessenger/6.3.27.880 NetType/cmnet Language/zh_CN'
p1420
sg16
S'fe0295c57b5e24b4e8612aa732b1f27f'
p1421
sa(dp1422
g2
S'25377'
p1423
sg4
S'1893'
p1424
sg6
S'03f52a4f7e66c7ccc384ce91e7bd50e9'
p1425
sg8
S'xx33afe1151a1862c2d4e481bc28b67aa1'
p1426
sg10
S'xx33da841852f262a0d8d976e467a70d31'
p1427
sg12
S'xxd8ea3481c96f6447a2139f6d60be78cd'
p1428
sg14
S'Mozilla/5.0 (Linux; Android 5.0.2; Redmi Note 3 Build/LRX22G) AppleWebKit/537.36 (KHTML, like Gecko) Version/4.0 Chrome/37.0.0.0 Mobile MQQBrowser/6.8 TBS/036869 Safari/537.36 MicroMessenger/6.3.27.880 NetType/WIFI Language/zh_CN'
p1429
sg16
S'75e856709db5ce634bed1842a3a1ec03'
p1430
sa(dp1431
g2
S'29479'
p1432
sg4
S'1908'
p1433
sg6
S'5b48c78089c6f21a864d9e71cbaf0c9d'
p1434
sg8
S'xx17d1012a6993a2731a0e118b58cbe659'
p1435
sg10
S'xx33da841852f262a0d8d976e467a70d31'
p1436
sg12
S'xxd8ea3481c96f6447a2139f6d60be78cd'
p1437
sg14
S'Mozilla/5.0 (Linux; Android 5.0.2; Redmi Note 3 Build/LRX22G) AppleWebKit/537.36 (KHTML, like Gecko) Version/4.0 Chrome/37.0.0.0 Mobile MQQBrowser/6.8 TBS/036849 Safari/537.36 MicroMessenger/6.3.27.880 NetType/WIFI Language/zh_CN'
p1438
sg16
S'a4c2670cc8e6857a906a17fd7388d62c'
p1439
sa(dp1440
g2
S'25377'
p1441
sg4
S'1912'
p1442
sg6
S'03f52a4f7e66c7ccc384ce91e7bd50e9'
p1443
sg8
S'xx33afe1151a1862c2d4e481bc28b67aa1'
p1444
sg10
S'xx33da841852f262a0d8d976e467a70d31'
p1445
sg12
S'xxd8ea3481c96f6447a2139f6d60be78cd'
p1446
sg14
S'Mozilla/5.0 (Linux; Android 5.0.2; Redmi Note 3 Build/LRX22G) AppleWebKit/537.36 (KHTML, like Gecko) Version/4.0 Chrome/37.0.0.0 Mobile MQQBrowser/6.8 TBS/036869 Safari/537.36 MicroMessenger/6.3.27.880 NetType/WIFI Language/zh_CN'
p1447
sg16
S'75e856709db5ce634bed1842a3a1ec03'
p1448
sa(dp1449
g2
S'38051'
p1450
sg4
S'1918'
p1451
sg6
S'f010042e2180c9da189927896f421f74'
p1452
sg8
S'xx8f24d949b6f8c2fcb793073e407a8a18'
p1453
sg10
S'xxb8c0bbfc753f58683003b1ffe3f8145b'
p1454
sg12
S'xxd8ea3481c96f6447a2139f6d60be78cd'
p1455
sg14
S'Mozilla/5.0 (Linux; Android 5.0.2; Redmi Note 3 Build/LRX22G) AppleWebKit/537.36 (KHTML, like Gecko) Version/4.0 Chrome/37.0.0.0 Mobile MQQBrowser/6.8 TBS/036849 Safari/537.36 MicroMessenger/6.3.27.880 NetType/cmnet Language/zh_CN'
p1456
sg16
S'fe0295c57b5e24b4e8612aa732b1f27f'
p1457
sa(dp1458
g2
S'29479'
p1459
sg4
S'1932'
p1460
sg6
S'5b48c78089c6f21a864d9e71cbaf0c9d'
p1461
sg8
S'xx17d1012a6993a2731a0e118b58cbe659'
p1462
sg10
S'xx33da841852f262a0d8d976e467a70d31'
p1463
sg12
S'xxd8ea3481c96f6447a2139f6d60be78cd'
p1464
sg14
S'Mozilla/5.0 (Linux; Android 5.0.2; Redmi Note 3 Build/LRX22G) AppleWebKit/537.36 (KHTML, like Gecko) Version/4.0 Chrome/37.0.0.0 Mobile MQQBrowser/6.8 TBS/036849 Safari/537.36 MicroMessenger/6.3.27.880 NetType/WIFI Language/zh_CN'
p1465
sg16
S'a4c2670cc8e6857a906a17fd7388d62c'
p1466
sa(dp1467
g2
S'38051'
p1468
sg4
S'1948'
p1469
sg6
S'f010042e2180c9da189927896f421f74'
p1470
sg8
S'xx8f24d949b6f8c2fcb793073e407a8a18'
p1471
sg10
S'xxb8c0bbfc753f58683003b1ffe3f8145b'
p1472
sg12
S'xxd8ea3481c96f6447a2139f6d60be78cd'
p1473
sg14
S'Mozilla/5.0 (Linux; Android 5.0.2; Redmi Note 3 Build/LRX22G) AppleWebKit/537.36 (KHTML, like Gecko) Version/4.0 Chrome/37.0.0.0 Mobile MQQBrowser/6.8 TBS/036849 Safari/537.36 MicroMessenger/6.3.27.880 NetType/cmnet Language/zh_CN'
p1474
sg16
S'fe0295c57b5e24b4e8612aa732b1f27f'
p1475
sa(dp1476
g2
S'29479'
p1477
sg4
S'1956'
p1478
sg6
S'5b48c78089c6f21a864d9e71cbaf0c9d'
p1479
sg8
S'xx17d1012a6993a2731a0e118b58cbe659'
p1480
sg10
S'xx33da841852f262a0d8d976e467a70d31'
p1481
sg12
S'xxd8ea3481c96f6447a2139f6d60be78cd'
p1482
sg14
S'Mozilla/5.0 (Linux; Android 5.0.2; Redmi Note 3 Build/LRX22G) AppleWebKit/537.36 (KHTML, like Gecko) Version/4.0 Chrome/37.0.0.0 Mobile MQQBrowser/6.8 TBS/036849 Safari/537.36 MicroMessenger/6.3.27.880 NetType/WIFI Language/zh_CN'
p1483
sg16
S'a4c2670cc8e6857a906a17fd7388d62c'
p1484
sa(dp1485
g2
S'38051'
p1486
sg4
S'1971'
p1487
sg6
S'f010042e2180c9da189927896f421f74'
p1488
sg8
S'xx8f24d949b6f8c2fcb793073e407a8a18'
p1489
sg10
S'xxb8c0bbfc753f58683003b1ffe3f8145b'
p1490
sg12
S'xxd8ea3481c96f6447a2139f6d60be78cd'
p1491
sg14
S'Mozilla/5.0 (Linux; Android 5.0.2; Redmi Note 3 Build/LRX22G) AppleWebKit/537.36 (KHTML, like Gecko) Version/4.0 Chrome/37.0.0.0 Mobile MQQBrowser/6.8 TBS/036849 Safari/537.36 MicroMessenger/6.3.27.880 NetType/cmnet Language/zh_CN'
p1492
sg16
S'fe0295c57b5e24b4e8612aa732b1f27f'
p1493
sa(dp1494
g2
S'29479'
p1495
sg4
S'1975'
p1496
sg6
S'5b48c78089c6f21a864d9e71cbaf0c9d'
p1497
sg8
S'xx17d1012a6993a2731a0e118b58cbe659'
p1498
sg10
S'xx33da841852f262a0d8d976e467a70d31'
p1499
sg12
S'xxd8ea3481c96f6447a2139f6d60be78cd'
p1500
sg14
S'Mozilla/5.0 (Linux; Android 5.0.2; Redmi Note 3 Build/LRX22G) AppleWebKit/537.36 (KHTML, like Gecko) Version/4.0 Chrome/37.0.0.0 Mobile MQQBrowser/6.8 TBS/036849 Safari/537.36 MicroMessenger/6.3.27.880 NetType/WIFI Language/zh_CN'
p1501
sg16
S'a4c2670cc8e6857a906a17fd7388d62c'
p1502
sa(dp1503
g2
S'38051'
p1504
sg4
S'1986'
p1505
sg6
S'f010042e2180c9da189927896f421f74'
p1506
sg8
S'xx8f24d949b6f8c2fcb793073e407a8a18'
p1507
sg10
S'xxb8c0bbfc753f58683003b1ffe3f8145b'
p1508
sg12
S'xxd8ea3481c96f6447a2139f6d60be78cd'
p1509
sg14
S'Mozilla/5.0 (Linux; Android 5.0.2; Redmi Note 3 Build/LRX22G) AppleWebKit/537.36 (KHTML, like Gecko) Version/4.0 Chrome/37.0.0.0 Mobile MQQBrowser/6.8 TBS/036849 Safari/537.36 MicroMessenger/6.3.27.880 NetType/cmnet Language/zh_CN'
p1510
sg16
S'fe0295c57b5e24b4e8612aa732b1f27f'
p1511
sa(dp1512
g2
S'29479'
p1513
sg4
S'1988'
p1514
sg6
S'5b48c78089c6f21a864d9e71cbaf0c9d'
p1515
sg8
S'xx17d1012a6993a2731a0e118b58cbe659'
p1516
sg10
S'xx33da841852f262a0d8d976e467a70d31'
p1517
sg12
S'xxd8ea3481c96f6447a2139f6d60be78cd'
p1518
sg14
S'Mozilla/5.0 (Linux; Android 5.0.2; Redmi Note 3 Build/LRX22G) AppleWebKit/537.36 (KHTML, like Gecko) Version/4.0 Chrome/37.0.0.0 Mobile MQQBrowser/6.8 TBS/036849 Safari/537.36 MicroMessenger/6.3.27.880 NetType/WIFI Language/zh_CN'
p1519
sg16
S'a4c2670cc8e6857a906a17fd7388d62c'
p1520
sa(dp1521
g2
S'25377'
p1522
sg4
S'1995'
p1523
sg6
S'03f52a4f7e66c7ccc384ce91e7bd50e9'
p1524
sg8
S'xx33afe1151a1862c2d4e481bc28b67aa1'
p1525
sg10
S'xx33da841852f262a0d8d976e467a70d31'
p1526
sg12
S'xxd8ea3481c96f6447a2139f6d60be78cd'
p1527
sg14
S'Mozilla/5.0 (Linux; Android 5.0.2; Redmi Note 3 Build/LRX22G) AppleWebKit/537.36 (KHTML, like Gecko) Version/4.0 Chrome/37.0.0.0 Mobile MQQBrowser/6.8 TBS/036869 Safari/537.36 MicroMessenger/6.3.27.880 NetType/WIFI Language/zh_CN'
p1528
sg16
S'75e856709db5ce634bed1842a3a1ec03'
p1529
sa(dp1530
g2
S'38051'
p1531
sg4
S'2003'
p1532
sg6
S'f010042e2180c9da189927896f421f74'
p1533
sg8
S'xx8f24d949b6f8c2fcb793073e407a8a18'
p1534
sg10
S'xxb8c0bbfc753f58683003b1ffe3f8145b'
p1535
sg12
S'xxd8ea3481c96f6447a2139f6d60be78cd'
p1536
sg14
S'Mozilla/5.0 (Linux; Android 5.0.2; Redmi Note 3 Build/LRX22G) AppleWebKit/537.36 (KHTML, like Gecko) Version/4.0 Chrome/37.0.0.0 Mobile MQQBrowser/6.8 TBS/036849 Safari/537.36 MicroMessenger/6.3.27.880 NetType/cmnet Language/zh_CN'
p1537
sg16
S'fe0295c57b5e24b4e8612aa732b1f27f'
p1538
sa(dp1539
g2
S'25377'
p1540
sg4
S'2010'
p1541
sg6
S'03f52a4f7e66c7ccc384ce91e7bd50e9'
p1542
sg8
S'xx33afe1151a1862c2d4e481bc28b67aa1'
p1543
sg10
S'xx33da841852f262a0d8d976e467a70d31'
p1544
sg12
S'xxd8ea3481c96f6447a2139f6d60be78cd'
p1545
sg14
S'Mozilla/5.0 (Linux; Android 5.0.2; Redmi Note 3 Build/LRX22G) AppleWebKit/537.36 (KHTML, like Gecko) Version/4.0 Chrome/37.0.0.0 Mobile MQQBrowser/6.8 TBS/036869 Safari/537.36 MicroMessenger/6.3.27.880 NetType/WIFI Language/zh_CN'
p1546
sg16
S'75e856709db5ce634bed1842a3a1ec03'
p1547
sa(dp1548
g2
S'38051'
p1549
sg4
S'2020'
p1550
sg6
S'f010042e2180c9da189927896f421f74'
p1551
sg8
S'xx8f24d949b6f8c2fcb793073e407a8a18'
p1552
sg10
S'xxb8c0bbfc753f58683003b1ffe3f8145b'
p1553
sg12
S'xxd8ea3481c96f6447a2139f6d60be78cd'
p1554
sg14
S'Mozilla/5.0 (Linux; Android 5.0.2; Redmi Note 3 Build/LRX22G) AppleWebKit/537.36 (KHTML, like Gecko) Version/4.0 Chrome/37.0.0.0 Mobile MQQBrowser/6.8 TBS/036849 Safari/537.36 MicroMessenger/6.3.27.880 NetType/cmnet Language/zh_CN'
p1555
sg16
S'fe0295c57b5e24b4e8612aa732b1f27f'
p1556
sa(dp1557
g2
S'20127'
p1558
sg4
S'2029'
p1559
sg6
S'6d30fd308b481f5c4ad3ceb345fcac51'
p1560
sg8
S'xxbb5cda2950e08f0664f43ea86cedc3fe'
p1561
sg10
S'xx33da841852f262a0d8d976e467a70d31'
p1562
sg12
S'xxd8ea3481c96f6447a2139f6d60be78cd'
p1563
sg14
S'Mozilla/5.0 (Linux; Android 5.0.2; Redmi Note 3 Build/LRX22G) AppleWebKit/537.36 (KHTML, like Gecko) Version/4.0 Chrome/37.0.0.0 Mobile MQQBrowser/6.8 TBS/036849 Safari/537.36 MicroMessenger/6.3.27.880 NetType/cmnet Language/zh_CN'
p1564
sg16
S'fe0295c57b5e24b4e8612aa732b1f27f'
p1565
sa(dp1566
g2
S'38051'
p1567
sg4
S'2035'
p1568
sg6
S'f010042e2180c9da189927896f421f74'
p1569
sg8
S'xx8f24d949b6f8c2fcb793073e407a8a18'
p1570
sg10
S'xxb8c0bbfc753f58683003b1ffe3f8145b'
p1571
sg12
S'xxd8ea3481c96f6447a2139f6d60be78cd'
p1572
sg14
S'Mozilla/5.0 (Linux; Android 5.0.2; Redmi Note 3 Build/LRX22G) AppleWebKit/537.36 (KHTML, like Gecko) Version/4.0 Chrome/37.0.0.0 Mobile MQQBrowser/6.8 TBS/036849 Safari/537.36 MicroMessenger/6.3.27.880 NetType/cmnet Language/zh_CN'
p1573
sg16
S'fe0295c57b5e24b4e8612aa732b1f27f'
p1574
sa(dp1575
g2
S'20127'
p1576
sg4
S'2043'
p1577
sg6
S'6d30fd308b481f5c4ad3ceb345fcac51'
p1578
sg8
S'xxbb5cda2950e08f0664f43ea86cedc3fe'
p1579
sg10
S'xx33da841852f262a0d8d976e467a70d31'
p1580
sg12
S'xxd8ea3481c96f6447a2139f6d60be78cd'
p1581
sg14
S'Mozilla/5.0 (Linux; Android 5.0.2; Redmi Note 3 Build/LRX22G) AppleWebKit/537.36 (KHTML, like Gecko) Version/4.0 Chrome/37.0.0.0 Mobile MQQBrowser/6.8 TBS/036849 Safari/537.36 MicroMessenger/6.3.27.880 NetType/cmnet Language/zh_CN'
p1582
sg16
S'fe0295c57b5e24b4e8612aa732b1f27f'
p1583
sa(dp1584
g2
S'25377'
p1585
sg4
S'2071'
p1586
sg6
S'03f52a4f7e66c7ccc384ce91e7bd50e9'
p1587
sg8
S'xx33afe1151a1862c2d4e481bc28b67aa1'
p1588
sg10
S'xx33da841852f262a0d8d976e467a70d31'
p1589
sg12
S'xxd8ea3481c96f6447a2139f6d60be78cd'
p1590
sg14
S'Mozilla/5.0 (Linux; Android 5.0.2; Redmi Note 3 Build/LRX22G) AppleWebKit/537.36 (KHTML, like Gecko) Version/4.0 Chrome/37.0.0.0 Mobile MQQBrowser/6.8 TBS/036869 Safari/537.36 MicroMessenger/6.3.27.880 NetType/WIFI Language/zh_CN'
p1591
sg16
S'75e856709db5ce634bed1842a3a1ec03'
p1592
sa(dp1593
g2
S'38051'
p1594
sg4
S'2076'
p1595
sg6
S'f010042e2180c9da189927896f421f74'
p1596
sg8
S'xx8f24d949b6f8c2fcb793073e407a8a18'
p1597
sg10
S'xxb8c0bbfc753f58683003b1ffe3f8145b'
p1598
sg12
S'xxd8ea3481c96f6447a2139f6d60be78cd'
p1599
sg14
S'Mozilla/5.0 (Linux; Android 5.0.2; Redmi Note 3 Build/LRX22G) AppleWebKit/537.36 (KHTML, like Gecko) Version/4.0 Chrome/37.0.0.0 Mobile MQQBrowser/6.8 TBS/036849 Safari/537.36 MicroMessenger/6.3.27.880 NetType/cmnet Language/zh_CN'
p1600
sg16
S'fe0295c57b5e24b4e8612aa732b1f27f'
p1601
sa(dp1602
g2
S'25377'
p1603
sg4
S'2086'
p1604
sg6
S'03f52a4f7e66c7ccc384ce91e7bd50e9'
p1605
sg8
S'xx33afe1151a1862c2d4e481bc28b67aa1'
p1606
sg10
S'xx33da841852f262a0d8d976e467a70d31'
p1607
sg12
S'xxd8ea3481c96f6447a2139f6d60be78cd'
p1608
sg14
S'Mozilla/5.0 (Linux; Android 5.0.2; Redmi Note 3 Build/LRX22G) AppleWebKit/537.36 (KHTML, like Gecko) Version/4.0 Chrome/37.0.0.0 Mobile MQQBrowser/6.8 TBS/036869 Safari/537.36 MicroMessenger/6.3.27.880 NetType/WIFI Language/zh_CN'
p1609
sg16
S'75e856709db5ce634bed1842a3a1ec03'
p1610
sa(dp1611
g2
S'38051'
p1612
sg4
S'2088'
p1613
sg6
S'f010042e2180c9da189927896f421f74'
p1614
sg8
S'xx8f24d949b6f8c2fcb793073e407a8a18'
p1615
sg10
S'xxb8c0bbfc753f58683003b1ffe3f8145b'
p1616
sg12
S'xxd8ea3481c96f6447a2139f6d60be78cd'
p1617
sg14
S'Mozilla/5.0 (Linux; Android 5.0.2; Redmi Note 3 Build/LRX22G) AppleWebKit/537.36 (KHTML, like Gecko) Version/4.0 Chrome/37.0.0.0 Mobile MQQBrowser/6.8 TBS/036849 Safari/537.36 MicroMessenger/6.3.27.880 NetType/cmnet Language/zh_CN'
p1618
sg16
S'fe0295c57b5e24b4e8612aa732b1f27f'
p1619
sa(dp1620
g2
S'38051'
p1621
sg4
S'2101'
p1622
sg6
S'f010042e2180c9da189927896f421f74'
p1623
sg8
S'xx8f24d949b6f8c2fcb793073e407a8a18'
p1624
sg10
S'xxb8c0bbfc753f58683003b1ffe3f8145b'
p1625
sg12
S'xxd8ea3481c96f6447a2139f6d60be78cd'
p1626
sg14
S'Mozilla/5.0 (Linux; Android 5.0.2; Redmi Note 3 Build/LRX22G) AppleWebKit/537.36 (KHTML, like Gecko) Version/4.0 Chrome/37.0.0.0 Mobile MQQBrowser/6.8 TBS/036849 Safari/537.36 MicroMessenger/6.3.27.880 NetType/cmnet Language/zh_CN'
p1627
sg16
S'fe0295c57b5e24b4e8612aa732b1f27f'
p1628
sa(dp1629
g2
S'38051'
p1630
sg4
S'2113'
p1631
sg6
S'f010042e2180c9da189927896f421f74'
p1632
sg8
S'xx8f24d949b6f8c2fcb793073e407a8a18'
p1633
sg10
S'xxb8c0bbfc753f58683003b1ffe3f8145b'
p1634
sg12
S'xxd8ea3481c96f6447a2139f6d60be78cd'
p1635
sg14
S'Mozilla/5.0 (Linux; Android 5.0.2; Redmi Note 3 Build/LRX22G) AppleWebKit/537.36 (KHTML, like Gecko) Version/4.0 Chrome/37.0.0.0 Mobile MQQBrowser/6.8 TBS/036849 Safari/537.36 MicroMessenger/6.3.27.880 NetType/cmnet Language/zh_CN'
p1636
sg16
S'fe0295c57b5e24b4e8612aa732b1f27f'
p1637
sa(dp1638
g2
S'38051'
p1639
sg4
S'2126'
p1640
sg6
S'f010042e2180c9da189927896f421f74'
p1641
sg8
S'xx8f24d949b6f8c2fcb793073e407a8a18'
p1642
sg10
S'xxb8c0bbfc753f58683003b1ffe3f8145b'
p1643
sg12
S'xxd8ea3481c96f6447a2139f6d60be78cd'
p1644
sg14
S'Mozilla/5.0 (Linux; Android 5.0.2; Redmi Note 3 Build/LRX22G) AppleWebKit/537.36 (KHTML, like Gecko) Version/4.0 Chrome/37.0.0.0 Mobile MQQBrowser/6.8 TBS/036849 Safari/537.36 MicroMessenger/6.3.27.880 NetType/cmnet Language/zh_CN'
p1645
sg16
S'fe0295c57b5e24b4e8612aa732b1f27f'
p1646
sa(dp1647
g2
S'38051'
p1648
sg4
S'2136'
p1649
sg6
S'f010042e2180c9da189927896f421f74'
p1650
sg8
S'xx8f24d949b6f8c2fcb793073e407a8a18'
p1651
sg10
S'xxb8c0bbfc753f58683003b1ffe3f8145b'
p1652
sg12
S'xxd8ea3481c96f6447a2139f6d60be78cd'
p1653
sg14
S'Mozilla/5.0 (Linux; Android 5.0.2; Redmi Note 3 Build/LRX22G) AppleWebKit/537.36 (KHTML, like Gecko) Version/4.0 Chrome/37.0.0.0 Mobile MQQBrowser/6.8 TBS/036849 Safari/537.36 MicroMessenger/6.3.27.880 NetType/cmnet Language/zh_CN'
p1654
sg16
S'fe0295c57b5e24b4e8612aa732b1f27f'
p1655
sa(dp1656
g2
S'29479'
p1657
sg4
S'2186'
p1658
sg6
S'5b48c78089c6f21a864d9e71cbaf0c9d'
p1659
sg8
S'xx17d1012a6993a2731a0e118b58cbe659'
p1660
sg10
S'xx33da841852f262a0d8d976e467a70d31'
p1661
sg12
S'xxd8ea3481c96f6447a2139f6d60be78cd'
p1662
sg14
S'Mozilla/5.0 (Linux; Android 5.0.2; Redmi Note 3 Build/LRX22G) AppleWebKit/537.36 (KHTML, like Gecko) Version/4.0 Chrome/37.0.0.0 Mobile MQQBrowser/6.8 TBS/036849 Safari/537.36 MicroMessenger/6.3.27.880 NetType/WIFI Language/zh_CN'
p1663
sg16
S'a4c2670cc8e6857a906a17fd7388d62c'
p1664
sa(dp1665
g2
S'38051'
p1666
sg4
S'2198'
p1667
sg6
S'f010042e2180c9da189927896f421f74'
p1668
sg8
S'xx8f24d949b6f8c2fcb793073e407a8a18'
p1669
sg10
S'xxb8c0bbfc753f58683003b1ffe3f8145b'
p1670
sg12
S'xxd8ea3481c96f6447a2139f6d60be78cd'
p1671
sg14
S'Mozilla/5.0 (Linux; Android 5.0.2; Redmi Note 3 Build/LRX22G) AppleWebKit/537.36 (KHTML, like Gecko) Version/4.0 Chrome/37.0.0.0 Mobile MQQBrowser/6.8 TBS/036849 Safari/537.36 MicroMessenger/6.3.27.880 NetType/cmnet Language/zh_CN'
p1672
sg16
S'fe0295c57b5e24b4e8612aa732b1f27f'
p1673
sa(dp1674
g2
S'29479'
p1675
sg4
S'2213'
p1676
sg6
S'5b48c78089c6f21a864d9e71cbaf0c9d'
p1677
sg8
S'xx17d1012a6993a2731a0e118b58cbe659'
p1678
sg10
S'xx33da841852f262a0d8d976e467a70d31'
p1679
sg12
S'xxd8ea3481c96f6447a2139f6d60be78cd'
p1680
sg14
S'Mozilla/5.0 (Linux; Android 5.0.2; Redmi Note 3 Build/LRX22G) AppleWebKit/537.36 (KHTML, like Gecko) Version/4.0 Chrome/37.0.0.0 Mobile MQQBrowser/6.8 TBS/036849 Safari/537.36 MicroMessenger/6.3.27.880 NetType/WIFI Language/zh_CN'
p1681
sg16
S'a4c2670cc8e6857a906a17fd7388d62c'
p1682
sa(dp1683
g2
S'38051'
p1684
sg4
S'2216'
p1685
sg6
S'f010042e2180c9da189927896f421f74'
p1686
sg8
S'xx8f24d949b6f8c2fcb793073e407a8a18'
p1687
sg10
S'xxb8c0bbfc753f58683003b1ffe3f8145b'
p1688
sg12
S'xxd8ea3481c96f6447a2139f6d60be78cd'
p1689
sg14
S'Mozilla/5.0 (Linux; Android 5.0.2; Redmi Note 3 Build/LRX22G) AppleWebKit/537.36 (KHTML, like Gecko) Version/4.0 Chrome/37.0.0.0 Mobile MQQBrowser/6.8 TBS/036849 Safari/537.36 MicroMessenger/6.3.27.880 NetType/cmnet Language/zh_CN'
p1690
sg16
S'fe0295c57b5e24b4e8612aa732b1f27f'
p1691
sa(dp1692
g2
S'29479'
p1693
sg4
S'2233'
p1694
sg6
S'5b48c78089c6f21a864d9e71cbaf0c9d'
p1695
sg8
S'xx17d1012a6993a2731a0e118b58cbe659'
p1696
sg10
S'xx33da841852f262a0d8d976e467a70d31'
p1697
sg12
S'xxd8ea3481c96f6447a2139f6d60be78cd'
p1698
sg14
S'Mozilla/5.0 (Linux; Android 5.0.2; Redmi Note 3 Build/LRX22G) AppleWebKit/537.36 (KHTML, like Gecko) Version/4.0 Chrome/37.0.0.0 Mobile MQQBrowser/6.8 TBS/036849 Safari/537.36 MicroMessenger/6.3.27.880 NetType/WIFI Language/zh_CN'
p1699
sg16
S'a4c2670cc8e6857a906a17fd7388d62c'
p1700
sa(dp1701
g2
S'38051'
p1702
sg4
S'2244'
p1703
sg6
S'f010042e2180c9da189927896f421f74'
p1704
sg8
S'xx8f24d949b6f8c2fcb793073e407a8a18'
p1705
sg10
S'xxb8c0bbfc753f58683003b1ffe3f8145b'
p1706
sg12
S'xxd8ea3481c96f6447a2139f6d60be78cd'
p1707
sg14
S'Mozilla/5.0 (Linux; Android 5.0.2; Redmi Note 3 Build/LRX22G) AppleWebKit/537.36 (KHTML, like Gecko) Version/4.0 Chrome/37.0.0.0 Mobile MQQBrowser/6.8 TBS/036849 Safari/537.36 MicroMessenger/6.3.27.880 NetType/cmnet Language/zh_CN'
p1708
sg16
S'fe0295c57b5e24b4e8612aa732b1f27f'
p1709
sa(dp1710
g2
S'27517'
p1711
sg4
S'2250'
p1712
sg6
S'5b48c78089c6f21a864d9e71cbaf0c9d'
p1713
sg8
S'xx17d1012a6993a2731a0e118b58cbe659'
p1714
sg10
S'xx33da841852f262a0d8d976e467a70d31'
p1715
sg12
S'xxd8ea3481c96f6447a2139f6d60be78cd'
p1716
sg14
S'Mozilla/5.0 (Linux; Android 5.0.2; Redmi Note 3 Build/LRX22G) AppleWebKit/537.36 (KHTML, like Gecko) Version/4.0 Chrome/37.0.0.0 Mobile MQQBrowser/6.8 TBS/036849 Safari/537.36 MicroMessenger/6.3.27.880 NetType/WIFI Language/zh_CN'
p1717
sg16
S'a4c2670cc8e6857a906a17fd7388d62c'
p1718
sa(dp1719
g2
S'29479'
p1720
sg4
S'2253'
p1721
sg6
S'5b48c78089c6f21a864d9e71cbaf0c9d'
p1722
sg8
S'xx17d1012a6993a2731a0e118b58cbe659'
p1723
sg10
S'xx33da841852f262a0d8d976e467a70d31'
p1724
sg12
S'xxd8ea3481c96f6447a2139f6d60be78cd'
p1725
sg14
S'Mozilla/5.0 (Linux; Android 5.0.2; Redmi Note 3 Build/LRX22G) AppleWebKit/537.36 (KHTML, like Gecko) Version/4.0 Chrome/37.0.0.0 Mobile MQQBrowser/6.8 TBS/036849 Safari/537.36 MicroMessenger/6.3.27.880 NetType/WIFI Language/zh_CN'
p1726
sg16
S'a4c2670cc8e6857a906a17fd7388d62c'
p1727
sa(dp1728
g2
S'27517'
p1729
sg4
S'2266'
p1730
sg6
S'5b48c78089c6f21a864d9e71cbaf0c9d'
p1731
sg8
S'xx17d1012a6993a2731a0e118b58cbe659'
p1732
sg10
S'xx33da841852f262a0d8d976e467a70d31'
p1733
sg12
S'xxd8ea3481c96f6447a2139f6d60be78cd'
p1734
sg14
S'Mozilla/5.0 (Linux; Android 5.0.2; Redmi Note 3 Build/LRX22G) AppleWebKit/537.36 (KHTML, like Gecko) Version/4.0 Chrome/37.0.0.0 Mobile MQQBrowser/6.8 TBS/036849 Safari/537.36 MicroMessenger/6.3.27.880 NetType/WIFI Language/zh_CN'
p1735
sg16
S'a4c2670cc8e6857a906a17fd7388d62c'
p1736
sa(dp1737
g2
S'29479'
p1738
sg4
S'2269'
p1739
sg6
S'5b48c78089c6f21a864d9e71cbaf0c9d'
p1740
sg8
S'xx17d1012a6993a2731a0e118b58cbe659'
p1741
sg10
S'xx33da841852f262a0d8d976e467a70d31'
p1742
sg12
S'xxd8ea3481c96f6447a2139f6d60be78cd'
p1743
sg14
S'Mozilla/5.0 (Linux; Android 5.0.2; Redmi Note 3 Build/LRX22G) AppleWebKit/537.36 (KHTML, like Gecko) Version/4.0 Chrome/37.0.0.0 Mobile MQQBrowser/6.8 TBS/036849 Safari/537.36 MicroMessenger/6.3.27.880 NetType/WIFI Language/zh_CN'
p1744
sg16
S'a4c2670cc8e6857a906a17fd7388d62c'
p1745
sa(dp1746
g2
S'29479'
p1747
sg4
S'2285'
p1748
sg6
S'5b48c78089c6f21a864d9e71cbaf0c9d'
p1749
sg8
S'xx17d1012a6993a2731a0e118b58cbe659'
p1750
sg10
S'xx33da841852f262a0d8d976e467a70d31'
p1751
sg12
S'xxd8ea3481c96f6447a2139f6d60be78cd'
p1752
sg14
S'Mozilla/5.0 (Linux; Android 5.0.2; Redmi Note 3 Build/LRX22G) AppleWebKit/537.36 (KHTML, like Gecko) Version/4.0 Chrome/37.0.0.0 Mobile MQQBrowser/6.8 TBS/036849 Safari/537.36 MicroMessenger/6.3.27.880 NetType/WIFI Language/zh_CN'
p1753
sg16
S'a4c2670cc8e6857a906a17fd7388d62c'
p1754
sa(dp1755
g2
S'38051'
p1756
sg4
S'2313'
p1757
sg6
S'f010042e2180c9da189927896f421f74'
p1758
sg8
S'xx8f24d949b6f8c2fcb793073e407a8a18'
p1759
sg10
S'xxb8c0bbfc753f58683003b1ffe3f8145b'
p1760
sg12
S'xxd8ea3481c96f6447a2139f6d60be78cd'
p1761
sg14
S'Mozilla/5.0 (Linux; Android 5.0.2; Redmi Note 3 Build/LRX22G) AppleWebKit/537.36 (KHTML, like Gecko) Version/4.0 Chrome/37.0.0.0 Mobile MQQBrowser/6.8 TBS/036849 Safari/537.36 MicroMessenger/6.3.27.880 NetType/cmnet Language/zh_CN'
p1762
sg16
S'fe0295c57b5e24b4e8612aa732b1f27f'
p1763
sa(dp1764
g2
S'38051'
p1765
sg4
S'2327'
p1766
sg6
S'f010042e2180c9da189927896f421f74'
p1767
sg8
S'xx8f24d949b6f8c2fcb793073e407a8a18'
p1768
sg10
S'xxb8c0bbfc753f58683003b1ffe3f8145b'
p1769
sg12
S'xxd8ea3481c96f6447a2139f6d60be78cd'
p1770
sg14
S'Mozilla/5.0 (Linux; Android 5.0.2; Redmi Note 3 Build/LRX22G) AppleWebKit/537.36 (KHTML, like Gecko) Version/4.0 Chrome/37.0.0.0 Mobile MQQBrowser/6.8 TBS/036849 Safari/537.36 MicroMessenger/6.3.27.880 NetType/cmnet Language/zh_CN'
p1771
sg16
S'fe0295c57b5e24b4e8612aa732b1f27f'
p1772
sa(dp1773
g2
S'25377'
p1774
sg4
S'2334'
p1775
sg6
S'03f52a4f7e66c7ccc384ce91e7bd50e9'
p1776
sg8
S'xx33afe1151a1862c2d4e481bc28b67aa1'
p1777
sg10
S'xx33da841852f262a0d8d976e467a70d31'
p1778
sg12
S'xxd8ea3481c96f6447a2139f6d60be78cd'
p1779
sg14
S'Mozilla/5.0 (Linux; Android 5.0.2; Redmi Note 3 Build/LRX22G) AppleWebKit/537.36 (KHTML, like Gecko) Version/4.0 Chrome/37.0.0.0 Mobile MQQBrowser/6.8 TBS/036869 Safari/537.36 MicroMessenger/6.3.27.880 NetType/WIFI Language/zh_CN'
p1780
sg16
S'75e856709db5ce634bed1842a3a1ec03'
p1781
sa(dp1782
g2
S'38051'
p1783
sg4
S'2338'
p1784
sg6
S'f010042e2180c9da189927896f421f74'
p1785
sg8
S'xx8f24d949b6f8c2fcb793073e407a8a18'
p1786
sg10
S'xxb8c0bbfc753f58683003b1ffe3f8145b'
p1787
sg12
S'xxd8ea3481c96f6447a2139f6d60be78cd'
p1788
sg14
S'Mozilla/5.0 (Linux; Android 5.0.2; Redmi Note 3 Build/LRX22G) AppleWebKit/537.36 (KHTML, like Gecko) Version/4.0 Chrome/37.0.0.0 Mobile MQQBrowser/6.8 TBS/036849 Safari/537.36 MicroMessenger/6.3.27.880 NetType/cmnet Language/zh_CN'
p1789
sg16
S'fe0295c57b5e24b4e8612aa732b1f27f'
p1790
sa(dp1791
g2
S'38051'
p1792
sg4
S'2354'
p1793
sg6
S'f010042e2180c9da189927896f421f74'
p1794
sg8
S'xx8f24d949b6f8c2fcb793073e407a8a18'
p1795
sg10
S'xxb8c0bbfc753f58683003b1ffe3f8145b'
p1796
sg12
S'xxd8ea3481c96f6447a2139f6d60be78cd'
p1797
sg14
S'Mozilla/5.0 (Linux; Android 5.0.2; Redmi Note 3 Build/LRX22G) AppleWebKit/537.36 (KHTML, like Gecko) Version/4.0 Chrome/37.0.0.0 Mobile MQQBrowser/6.8 TBS/036849 Safari/537.36 MicroMessenger/6.3.27.880 NetType/cmnet Language/zh_CN'
p1798
sg16
S'fe0295c57b5e24b4e8612aa732b1f27f'
p1799
sa(dp1800
g2
S'29479'
p1801
sg4
S'2370'
p1802
sg6
S'5b48c78089c6f21a864d9e71cbaf0c9d'
p1803
sg8
S'xx17d1012a6993a2731a0e118b58cbe659'
p1804
sg10
S'xx33da841852f262a0d8d976e467a70d31'
p1805
sg12
S'xxd8ea3481c96f6447a2139f6d60be78cd'
p1806
sg14
S'Mozilla/5.0 (Linux; Android 5.0.2; Redmi Note 3 Build/LRX22G) AppleWebKit/537.36 (KHTML, like Gecko) Version/4.0 Chrome/37.0.0.0 Mobile MQQBrowser/6.8 TBS/036849 Safari/537.36 MicroMessenger/6.3.27.880 NetType/WIFI Language/zh_CN'
p1807
sg16
S'a4c2670cc8e6857a906a17fd7388d62c'
p1808
sa(dp1809
g2
S'38051'
p1810
sg4
S'2375'
p1811
sg6
S'f010042e2180c9da189927896f421f74'
p1812
sg8
S'xx8f24d949b6f8c2fcb793073e407a8a18'
p1813
sg10
S'xxb8c0bbfc753f58683003b1ffe3f8145b'
p1814
sg12
S'xxd8ea3481c96f6447a2139f6d60be78cd'
p1815
sg14
S'Mozilla/5.0 (Linux; Android 5.0.2; Redmi Note 3 Build/LRX22G) AppleWebKit/537.36 (KHTML, like Gecko) Version/4.0 Chrome/37.0.0.0 Mobile MQQBrowser/6.8 TBS/036849 Safari/537.36 MicroMessenger/6.3.27.880 NetType/cmnet Language/zh_CN'
p1816
sg16
S'fe0295c57b5e24b4e8612aa732b1f27f'
p1817
sa(dp1818
g2
S'29479'
p1819
sg4
S'2397'
p1820
sg6
S'5b48c78089c6f21a864d9e71cbaf0c9d'
p1821
sg8
S'xx17d1012a6993a2731a0e118b58cbe659'
p1822
sg10
S'xx33da841852f262a0d8d976e467a70d31'
p1823
sg12
S'xxd8ea3481c96f6447a2139f6d60be78cd'
p1824
sg14
S'Mozilla/5.0 (Linux; Android 5.0.2; Redmi Note 3 Build/LRX22G) AppleWebKit/537.36 (KHTML, like Gecko) Version/4.0 Chrome/37.0.0.0 Mobile MQQBrowser/6.8 TBS/036849 Safari/537.36 MicroMessenger/6.3.27.880 NetType/WIFI Language/zh_CN'
p1825
sg16
S'a4c2670cc8e6857a906a17fd7388d62c'
p1826
sa(dp1827
g2
S'29479'
p1828
sg4
S'2421'
p1829
sg6
S'5b48c78089c6f21a864d9e71cbaf0c9d'
p1830
sg8
S'xx17d1012a6993a2731a0e118b58cbe659'
p1831
sg10
S'xx33da841852f262a0d8d976e467a70d31'
p1832
sg12
S'xxd8ea3481c96f6447a2139f6d60be78cd'
p1833
sg14
S'Mozilla/5.0 (Linux; Android 5.0.2; Redmi Note 3 Build/LRX22G) AppleWebKit/537.36 (KHTML, like Gecko) Version/4.0 Chrome/37.0.0.0 Mobile MQQBrowser/6.8 TBS/036849 Safari/537.36 MicroMessenger/6.3.27.880 NetType/WIFI Language/zh_CN'
p1834
sg16
S'a4c2670cc8e6857a906a17fd7388d62c'
p1835
sa(dp1836
g2
S'29479'
p1837
sg4
S'2437'
p1838
sg6
S'5b48c78089c6f21a864d9e71cbaf0c9d'
p1839
sg8
S'xx17d1012a6993a2731a0e118b58cbe659'
p1840
sg10
S'xx33da841852f262a0d8d976e467a70d31'
p1841
sg12
S'xxd8ea3481c96f6447a2139f6d60be78cd'
p1842
sg14
S'Mozilla/5.0 (Linux; Android 5.0.2; Redmi Note 3 Build/LRX22G) AppleWebKit/537.36 (KHTML, like Gecko) Version/4.0 Chrome/37.0.0.0 Mobile MQQBrowser/6.8 TBS/036849 Safari/537.36 MicroMessenger/6.3.27.880 NetType/WIFI Language/zh_CN'
p1843
sg16
S'a4c2670cc8e6857a906a17fd7388d62c'
p1844
sa(dp1845
g2
S'29479'
p1846
sg4
S'2454'
p1847
sg6
S'5b48c78089c6f21a864d9e71cbaf0c9d'
p1848
sg8
S'xx17d1012a6993a2731a0e118b58cbe659'
p1849
sg10
S'xx33da841852f262a0d8d976e467a70d31'
p1850
sg12
S'xxd8ea3481c96f6447a2139f6d60be78cd'
p1851
sg14
S'Mozilla/5.0 (Linux; Android 5.0.2; Redmi Note 3 Build/LRX22G) AppleWebKit/537.36 (KHTML, like Gecko) Version/4.0 Chrome/37.0.0.0 Mobile MQQBrowser/6.8 TBS/036849 Safari/537.36 MicroMessenger/6.3.27.880 NetType/WIFI Language/zh_CN'
p1852
sg16
S'a4c2670cc8e6857a906a17fd7388d62c'
p1853
sa(dp1854
g2
S'29479'
p1855
sg4
S'2474'
p1856
sg6
S'5b48c78089c6f21a864d9e71cbaf0c9d'
p1857
sg8
S'xx17d1012a6993a2731a0e118b58cbe659'
p1858
sg10
S'xx33da841852f262a0d8d976e467a70d31'
p1859
sg12
S'xxd8ea3481c96f6447a2139f6d60be78cd'
p1860
sg14
S'Mozilla/5.0 (Linux; Android 5.0.2; Redmi Note 3 Build/LRX22G) AppleWebKit/537.36 (KHTML, like Gecko) Version/4.0 Chrome/37.0.0.0 Mobile MQQBrowser/6.8 TBS/036849 Safari/537.36 MicroMessenger/6.3.27.880 NetType/WIFI Language/zh_CN'
p1861
sg16
S'a4c2670cc8e6857a906a17fd7388d62c'
p1862
sa(dp1863
g2
S'29479'
p1864
sg4
S'2498'
p1865
sg6
S'5b48c78089c6f21a864d9e71cbaf0c9d'
p1866
sg8
S'xx17d1012a6993a2731a0e118b58cbe659'
p1867
sg10
S'xx33da841852f262a0d8d976e467a70d31'
p1868
sg12
S'xxd8ea3481c96f6447a2139f6d60be78cd'
p1869
sg14
S'Mozilla/5.0 (Linux; Android 5.0.2; Redmi Note 3 Build/LRX22G) AppleWebKit/537.36 (KHTML, like Gecko) Version/4.0 Chrome/37.0.0.0 Mobile MQQBrowser/6.8 TBS/036849 Safari/537.36 MicroMessenger/6.3.27.880 NetType/WIFI Language/zh_CN'
p1870
sg16
S'a4c2670cc8e6857a906a17fd7388d62c'
p1871
sa(dp1872
g2
S'29479'
p1873
sg4
S'2523'
p1874
sg6
S'5b48c78089c6f21a864d9e71cbaf0c9d'
p1875
sg8
S'xx17d1012a6993a2731a0e118b58cbe659'
p1876
sg10
S'xx33da841852f262a0d8d976e467a70d31'
p1877
sg12
S'xxd8ea3481c96f6447a2139f6d60be78cd'
p1878
sg14
S'Mozilla/5.0 (Linux; Android 5.0.2; Redmi Note 3 Build/LRX22G) AppleWebKit/537.36 (KHTML, like Gecko) Version/4.0 Chrome/37.0.0.0 Mobile MQQBrowser/6.8 TBS/036849 Safari/537.36 MicroMessenger/6.3.27.880 NetType/WIFI Language/zh_CN'
p1879
sg16
S'a4c2670cc8e6857a906a17fd7388d62c'
p1880
sa(dp1881
g2
S'29479'
p1882
sg4
S'2552'
p1883
sg6
S'5b48c78089c6f21a864d9e71cbaf0c9d'
p1884
sg8
S'xx17d1012a6993a2731a0e118b58cbe659'
p1885
sg10
S'xx33da841852f262a0d8d976e467a70d31'
p1886
sg12
S'xxd8ea3481c96f6447a2139f6d60be78cd'
p1887
sg14
S'Mozilla/5.0 (Linux; Android 5.0.2; Redmi Note 3 Build/LRX22G) AppleWebKit/537.36 (KHTML, like Gecko) Version/4.0 Chrome/37.0.0.0 Mobile MQQBrowser/6.8 TBS/036849 Safari/537.36 MicroMessenger/6.3.27.880 NetType/WIFI Language/zh_CN'
p1888
sg16
S'a4c2670cc8e6857a906a17fd7388d62c'
p1889
sa(dp1890
g2
S'38051'
p1891
sg4
S'2884'
p1892
sg6
S'f010042e2180c9da189927896f421f74'
p1893
sg8
S'xx8f24d949b6f8c2fcb793073e407a8a18'
p1894
sg10
S'xxb8c0bbfc753f58683003b1ffe3f8145b'
p1895
sg12
S'xxd8ea3481c96f6447a2139f6d60be78cd'
p1896
sg14
S'Mozilla/5.0 (Linux; Android 5.0.2; Redmi Note 3 Build/LRX22G) AppleWebKit/537.36 (KHTML, like Gecko) Version/4.0 Chrome/37.0.0.0 Mobile MQQBrowser/6.8 TBS/036849 Safari/537.36 MicroMessenger/6.3.27.880 NetType/cmnet Language/zh_CN'
p1897
sg16
S'fe0295c57b5e24b4e8612aa732b1f27f'
p1898
sa(dp1899
g2
S'38051'
p1900
sg4
S'2907'
p1901
sg6
S'f010042e2180c9da189927896f421f74'
p1902
sg8
S'xx8f24d949b6f8c2fcb793073e407a8a18'
p1903
sg10
S'xxb8c0bbfc753f58683003b1ffe3f8145b'
p1904
sg12
S'xxd8ea3481c96f6447a2139f6d60be78cd'
p1905
sg14
S'Mozilla/5.0 (Linux; Android 5.0.2; Redmi Note 3 Build/LRX22G) AppleWebKit/537.36 (KHTML, like Gecko) Version/4.0 Chrome/37.0.0.0 Mobile MQQBrowser/6.8 TBS/036849 Safari/537.36 MicroMessenger/6.3.27.880 NetType/cmnet Language/zh_CN'
p1906
sg16
S'fe0295c57b5e24b4e8612aa732b1f27f'
p1907
sa(dp1908
g2
S'38051'
p1909
sg4
S'2920'
p1910
sg6
S'f010042e2180c9da189927896f421f74'
p1911
sg8
S'xx8f24d949b6f8c2fcb793073e407a8a18'
p1912
sg10
S'xxb8c0bbfc753f58683003b1ffe3f8145b'
p1913
sg12
S'xxd8ea3481c96f6447a2139f6d60be78cd'
p1914
sg14
S'Mozilla/5.0 (Linux; Android 5.0.2; Redmi Note 3 Build/LRX22G) AppleWebKit/537.36 (KHTML, like Gecko) Version/4.0 Chrome/37.0.0.0 Mobile MQQBrowser/6.8 TBS/036849 Safari/537.36 MicroMessenger/6.3.27.880 NetType/cmnet Language/zh_CN'
p1915
sg16
S'fe0295c57b5e24b4e8612aa732b1f27f'
p1916
sa(dp1917
g2
S'38051'
p1918
sg4
S'2940'
p1919
sg6
S'f010042e2180c9da189927896f421f74'
p1920
sg8
S'xx8f24d949b6f8c2fcb793073e407a8a18'
p1921
sg10
S'xxb8c0bbfc753f58683003b1ffe3f8145b'
p1922
sg12
S'xxd8ea3481c96f6447a2139f6d60be78cd'
p1923
sg14
S'Mozilla/5.0 (Linux; Android 5.0.2; Redmi Note 3 Build/LRX22G) AppleWebKit/537.36 (KHTML, like Gecko) Version/4.0 Chrome/37.0.0.0 Mobile MQQBrowser/6.8 TBS/036849 Safari/537.36 MicroMessenger/6.3.27.880 NetType/cmnet Language/zh_CN'
p1924
sg16
S'fe0295c57b5e24b4e8612aa732b1f27f'
p1925
sa(dp1926
g2
S'38051'
p1927
sg4
S'2959'
p1928
sg6
S'f010042e2180c9da189927896f421f74'
p1929
sg8
S'xx8f24d949b6f8c2fcb793073e407a8a18'
p1930
sg10
S'xxb8c0bbfc753f58683003b1ffe3f8145b'
p1931
sg12
S'xxd8ea3481c96f6447a2139f6d60be78cd'
p1932
sg14
S'Mozilla/5.0 (Linux; Android 5.0.2; Redmi Note 3 Build/LRX22G) AppleWebKit/537.36 (KHTML, like Gecko) Version/4.0 Chrome/37.0.0.0 Mobile MQQBrowser/6.8 TBS/036849 Safari/537.36 MicroMessenger/6.3.27.880 NetType/cmnet Language/zh_CN'
p1933
sg16
S'fe0295c57b5e24b4e8612aa732b1f27f'
p1934
sa(dp1935
g2
S'38051'
p1936
sg4
S'2973'
p1937
sg6
S'f010042e2180c9da189927896f421f74'
p1938
sg8
S'xx8f24d949b6f8c2fcb793073e407a8a18'
p1939
sg10
S'xxb8c0bbfc753f58683003b1ffe3f8145b'
p1940
sg12
S'xxd8ea3481c96f6447a2139f6d60be78cd'
p1941
sg14
S'Mozilla/5.0 (Linux; Android 5.0.2; Redmi Note 3 Build/LRX22G) AppleWebKit/537.36 (KHTML, like Gecko) Version/4.0 Chrome/37.0.0.0 Mobile MQQBrowser/6.8 TBS/036849 Safari/537.36 MicroMessenger/6.3.27.880 NetType/cmnet Language/zh_CN'
p1942
sg16
S'fe0295c57b5e24b4e8612aa732b1f27f'
p1943
sa(dp1944
g2
S'29479'
p1945
sg4
S'2980'
p1946
sg6
S'5b48c78089c6f21a864d9e71cbaf0c9d'
p1947
sg8
S'xx17d1012a6993a2731a0e118b58cbe659'
p1948
sg10
S'xx33da841852f262a0d8d976e467a70d31'
p1949
sg12
S'xxd8ea3481c96f6447a2139f6d60be78cd'
p1950
sg14
S'Mozilla/5.0 (Linux; Android 5.0.2; Redmi Note 3 Build/LRX22G) AppleWebKit/537.36 (KHTML, like Gecko) Version/4.0 Chrome/37.0.0.0 Mobile MQQBrowser/6.8 TBS/036849 Safari/537.36 MicroMessenger/6.3.27.880 NetType/WIFI Language/zh_CN'
p1951
sg16
S'a4c2670cc8e6857a906a17fd7388d62c'
p1952
sa(dp1953
g2
S'29479'
p1954
sg4
S'2994'
p1955
sg6
S'5b48c78089c6f21a864d9e71cbaf0c9d'
p1956
sg8
S'xx17d1012a6993a2731a0e118b58cbe659'
p1957
sg10
S'xx33da841852f262a0d8d976e467a70d31'
p1958
sg12
S'xxd8ea3481c96f6447a2139f6d60be78cd'
p1959
sg14
S'Mozilla/5.0 (Linux; Android 5.0.2; Redmi Note 3 Build/LRX22G) AppleWebKit/537.36 (KHTML, like Gecko) Version/4.0 Chrome/37.0.0.0 Mobile MQQBrowser/6.8 TBS/036849 Safari/537.36 MicroMessenger/6.3.27.880 NetType/WIFI Language/zh_CN'
p1960
sg16
S'a4c2670cc8e6857a906a17fd7388d62c'
p1961
sa(dp1962
g2
S'25377'
p1963
sg4
S'3052'
p1964
sg6
S'03f52a4f7e66c7ccc384ce91e7bd50e9'
p1965
sg8
S'xx33afe1151a1862c2d4e481bc28b67aa1'
p1966
sg10
S'xx33da841852f262a0d8d976e467a70d31'
p1967
sg12
S'xxd8ea3481c96f6447a2139f6d60be78cd'
p1968
sg14
S'Mozilla/5.0 (Linux; Android 5.0.2; Redmi Note 3 Build/LRX22G) AppleWebKit/537.36 (KHTML, like Gecko) Version/4.0 Chrome/37.0.0.0 Mobile MQQBrowser/6.8 TBS/036869 Safari/537.36 MicroMessenger/6.3.27.880 NetType/WIFI Language/zh_CN'
p1969
sg16
S'75e856709db5ce634bed1842a3a1ec03'
p1970
sa(dp1971
g2
S'25377'
p1972
sg4
S'3071'
p1973
sg6
S'03f52a4f7e66c7ccc384ce91e7bd50e9'
p1974
sg8
S'xx33afe1151a1862c2d4e481bc28b67aa1'
p1975
sg10
S'xx33da841852f262a0d8d976e467a70d31'
p1976
sg12
S'xxd8ea3481c96f6447a2139f6d60be78cd'
p1977
sg14
S'Mozilla/5.0 (Linux; Android 5.0.2; Redmi Note 3 Build/LRX22G) AppleWebKit/537.36 (KHTML, like Gecko) Version/4.0 Chrome/37.0.0.0 Mobile MQQBrowser/6.8 TBS/036869 Safari/537.36 MicroMessenger/6.3.27.880 NetType/WIFI Language/zh_CN'
p1978
sg16
S'75e856709db5ce634bed1842a3a1ec03'
p1979
sa(dp1980
g2
S'38051'
p1981
sg4
S'3201'
p1982
sg6
S'f010042e2180c9da189927896f421f74'
p1983
sg8
S'xx8f24d949b6f8c2fcb793073e407a8a18'
p1984
sg10
S'xxb8c0bbfc753f58683003b1ffe3f8145b'
p1985
sg12
S'xxd8ea3481c96f6447a2139f6d60be78cd'
p1986
sg14
S'Mozilla/5.0 (Linux; Android 5.0.2; Redmi Note 3 Build/LRX22G) AppleWebKit/537.36 (KHTML, like Gecko) Version/4.0 Chrome/37.0.0.0 Mobile MQQBrowser/6.8 TBS/036849 Safari/537.36 MicroMessenger/6.3.27.880 NetType/cmnet Language/zh_CN'
p1987
sg16
S'fe0295c57b5e24b4e8612aa732b1f27f'
p1988
sa(dp1989
g2
S'38051'
p1990
sg4
S'3216'
p1991
sg6
S'f010042e2180c9da189927896f421f74'
p1992
sg8
S'xx8f24d949b6f8c2fcb793073e407a8a18'
p1993
sg10
S'xxb8c0bbfc753f58683003b1ffe3f8145b'
p1994
sg12
S'xxd8ea3481c96f6447a2139f6d60be78cd'
p1995
sg14
S'Mozilla/5.0 (Linux; Android 5.0.2; Redmi Note 3 Build/LRX22G) AppleWebKit/537.36 (KHTML, like Gecko) Version/4.0 Chrome/37.0.0.0 Mobile MQQBrowser/6.8 TBS/036849 Safari/537.36 MicroMessenger/6.3.27.880 NetType/cmnet Language/zh_CN'
p1996
sg16
S'fe0295c57b5e24b4e8612aa732b1f27f'
p1997
sa(dp1998
g2
S'38051'
p1999
sg4
S'3231'
p2000
sg6
S'f010042e2180c9da189927896f421f74'
p2001
sg8
S'xx8f24d949b6f8c2fcb793073e407a8a18'
p2002
sg10
S'xxb8c0bbfc753f58683003b1ffe3f8145b'
p2003
sg12
S'xxd8ea3481c96f6447a2139f6d60be78cd'
p2004
sg14
S'Mozilla/5.0 (Linux; Android 5.0.2; Redmi Note 3 Build/LRX22G) AppleWebKit/537.36 (KHTML, like Gecko) Version/4.0 Chrome/37.0.0.0 Mobile MQQBrowser/6.8 TBS/036849 Safari/537.36 MicroMessenger/6.3.27.880 NetType/cmnet Language/zh_CN'
p2005
sg16
S'fe0295c57b5e24b4e8612aa732b1f27f'
p2006
sa(dp2007
g2
S'38051'
p2008
sg4
S'3246'
p2009
sg6
S'f010042e2180c9da189927896f421f74'
p2010
sg8
S'xx8f24d949b6f8c2fcb793073e407a8a18'
p2011
sg10
S'xxb8c0bbfc753f58683003b1ffe3f8145b'
p2012
sg12
S'xxd8ea3481c96f6447a2139f6d60be78cd'
p2013
sg14
S'Mozilla/5.0 (Linux; Android 5.0.2; Redmi Note 3 Build/LRX22G) AppleWebKit/537.36 (KHTML, like Gecko) Version/4.0 Chrome/37.0.0.0 Mobile MQQBrowser/6.8 TBS/036849 Safari/537.36 MicroMessenger/6.3.27.880 NetType/cmnet Language/zh_CN'
p2014
sg16
S'fe0295c57b5e24b4e8612aa732b1f27f'
p2015
sa(dp2016
g2
S'38051'
p2017
sg4
S'3261'
p2018
sg6
S'f010042e2180c9da189927896f421f74'
p2019
sg8
S'xx8f24d949b6f8c2fcb793073e407a8a18'
p2020
sg10
S'xxb8c0bbfc753f58683003b1ffe3f8145b'
p2021
sg12
S'xxd8ea3481c96f6447a2139f6d60be78cd'
p2022
sg14
S'Mozilla/5.0 (Linux; Android 5.0.2; Redmi Note 3 Build/LRX22G) AppleWebKit/537.36 (KHTML, like Gecko) Version/4.0 Chrome/37.0.0.0 Mobile MQQBrowser/6.8 TBS/036849 Safari/537.36 MicroMessenger/6.3.27.880 NetType/cmnet Language/zh_CN'
p2023
sg16
S'fe0295c57b5e24b4e8612aa732b1f27f'
p2024
sa(dp2025
g2
S'35830'
p2026
sg4
S'3421'
p2027
sg6
S'0bf64f078e64db81682434bdca390dc0'
p2028
sg8
S'xx3682dc78083abdfeb7477bdfa8ac822e'
p2029
sg10
S'xx33da841852f262a0d8d976e467a70d31'
p2030
sg12
S'xxd8ea3481c96f6447a2139f6d60be78cd'
p2031
sg14
S'Mozilla/5.0 (Linux; Android 5.0.2; Redmi Note 3 Build/LRX22G) AppleWebKit/537.36 (KHTML, like Gecko) Version/4.0 Chrome/37.0.0.0 Mobile MQQBrowser/6.8 TBS/036849 Safari/537.36 MicroMessenger/6.3.27.880 NetType/3gnet Language/zh_CN'
p2032
sg16
S'37937e038ca0a15b82d6846bcb21ddad'
p2033
sa(dp2034
g2
S'35830'
p2035
sg4
S'3437'
p2036
sg6
S'0bf64f078e64db81682434bdca390dc0'
p2037
sg8
S'xx3682dc78083abdfeb7477bdfa8ac822e'
p2038
sg10
S'xx33da841852f262a0d8d976e467a70d31'
p2039
sg12
S'xxd8ea3481c96f6447a2139f6d60be78cd'
p2040
sg14
S'Mozilla/5.0 (Linux; Android 5.0.2; Redmi Note 3 Build/LRX22G) AppleWebKit/537.36 (KHTML, like Gecko) Version/4.0 Chrome/37.0.0.0 Mobile MQQBrowser/6.8 TBS/036849 Safari/537.36 MicroMessenger/6.3.27.880 NetType/3gnet Language/zh_CN'
p2041
sg16
S'37937e038ca0a15b82d6846bcb21ddad'
p2042
sa(dp2043
g2
S'38051'
p2044
sg4
S'3553'
p2045
sg6
S'50eaccbab87ef98eaf79ea688bc155f6'
p2046
sg8
S'xx8a0096d4d96f5fdf02817e522b80e044'
p2047
sg10
S'xxb8c0bbfc753f58683003b1ffe3f8145b'
p2048
sg12
S'xxd8ea3481c96f6447a2139f6d60be78cd'
p2049
sg14
S'Mozilla/5.0 (Linux; Android 5.0.2; Redmi Note 3 Build/LRX22G) AppleWebKit/537.36 (KHTML, like Gecko) Version/4.0 Chrome/37.0.0.0 Mobile MQQBrowser/6.8 TBS/036849 Safari/537.36 MicroMessenger/6.3.27.880 NetType/WIFI Language/zh_CN'
p2050
sg16
S'a4c2670cc8e6857a906a17fd7388d62c'
p2051
sa(dp2052
g2
S'38051'
p2053
sg4
S'3567'
p2054
sg6
S'50eaccbab87ef98eaf79ea688bc155f6'
p2055
sg8
S'xx8a0096d4d96f5fdf02817e522b80e044'
p2056
sg10
S'xxb8c0bbfc753f58683003b1ffe3f8145b'
p2057
sg12
S'xxd8ea3481c96f6447a2139f6d60be78cd'
p2058
sg14
S'Mozilla/5.0 (Linux; Android 5.0.2; Redmi Note 3 Build/LRX22G) AppleWebKit/537.36 (KHTML, like Gecko) Version/4.0 Chrome/37.0.0.0 Mobile MQQBrowser/6.8 TBS/036849 Safari/537.36 MicroMessenger/6.3.27.880 NetType/WIFI Language/zh_CN'
p2059
sg16
S'a4c2670cc8e6857a906a17fd7388d62c'
p2060
sa(dp2061
g2
S'38051'
p2062
sg4
S'3585'
p2063
sg6
S'50eaccbab87ef98eaf79ea688bc155f6'
p2064
sg8
S'xx8a0096d4d96f5fdf02817e522b80e044'
p2065
sg10
S'xxb8c0bbfc753f58683003b1ffe3f8145b'
p2066
sg12
S'xxd8ea3481c96f6447a2139f6d60be78cd'
p2067
sg14
S'Mozilla/5.0 (Linux; Android 5.0.2; Redmi Note 3 Build/LRX22G) AppleWebKit/537.36 (KHTML, like Gecko) Version/4.0 Chrome/37.0.0.0 Mobile MQQBrowser/6.8 TBS/036849 Safari/537.36 MicroMessenger/6.3.27.880 NetType/WIFI Language/zh_CN'
p2068
sg16
S'a4c2670cc8e6857a906a17fd7388d62c'
p2069
sa(dp2070
g2
S'38051'
p2071
sg4
S'3596'
p2072
sg6
S'50eaccbab87ef98eaf79ea688bc155f6'
p2073
sg8
S'xx8a0096d4d96f5fdf02817e522b80e044'
p2074
sg10
S'xxb8c0bbfc753f58683003b1ffe3f8145b'
p2075
sg12
S'xxd8ea3481c96f6447a2139f6d60be78cd'
p2076
sg14
S'Mozilla/5.0 (Linux; Android 5.0.2; Redmi Note 3 Build/LRX22G) AppleWebKit/537.36 (KHTML, like Gecko) Version/4.0 Chrome/37.0.0.0 Mobile MQQBrowser/6.8 TBS/036849 Safari/537.36 MicroMessenger/6.3.27.880 NetType/WIFI Language/zh_CN'
p2077
sg16
S'a4c2670cc8e6857a906a17fd7388d62c'
p2078
sa(dp2079
g2
S'38051'
p2080
sg4
S'3611'
p2081
sg6
S'50eaccbab87ef98eaf79ea688bc155f6'
p2082
sg8
S'xx8a0096d4d96f5fdf02817e522b80e044'
p2083
sg10
S'xxb8c0bbfc753f58683003b1ffe3f8145b'
p2084
sg12
S'xxd8ea3481c96f6447a2139f6d60be78cd'
p2085
sg14
S'Mozilla/5.0 (Linux; Android 5.0.2; Redmi Note 3 Build/LRX22G) AppleWebKit/537.36 (KHTML, like Gecko) Version/4.0 Chrome/37.0.0.0 Mobile MQQBrowser/6.8 TBS/036849 Safari/537.36 MicroMessenger/6.3.27.880 NetType/WIFI Language/zh_CN'
p2086
sg16
S'a4c2670cc8e6857a906a17fd7388d62c'
p2087
sa(dp2088
g2
S'38051'
p2089
sg4
S'3628'
p2090
sg6
S'50eaccbab87ef98eaf79ea688bc155f6'
p2091
sg8
S'xx8a0096d4d96f5fdf02817e522b80e044'
p2092
sg10
S'xxb8c0bbfc753f58683003b1ffe3f8145b'
p2093
sg12
S'xxd8ea3481c96f6447a2139f6d60be78cd'
p2094
sg14
S'Mozilla/5.0 (Linux; Android 5.0.2; Redmi Note 3 Build/LRX22G) AppleWebKit/537.36 (KHTML, like Gecko) Version/4.0 Chrome/37.0.0.0 Mobile MQQBrowser/6.8 TBS/036849 Safari/537.36 MicroMessenger/6.3.27.880 NetType/WIFI Language/zh_CN'
p2095
sg16
S'a4c2670cc8e6857a906a17fd7388d62c'
p2096
sa(dp2097
g2
S'46006'
p2098
sg4
S'3637'
p2099
sg6
S'a3396c69b3f779762b33add9babc2cb6'
p2100
sg8
S'xx6ba590126c015ef89bdacd00f4a391c1'
p2101
sg10
S'xx33da841852f262a0d8d976e467a70d31'
p2102
sg12
S'xxd8ea3481c96f6447a2139f6d60be78cd'
p2103
sg14
S'Mozilla/5.0 (Linux; Android 5.0.2; Redmi Note 3 Build/LRX22G) AppleWebKit/537.36 (KHTML, like Gecko) Version/4.0 Chrome/37.0.0.0 Mobile MQQBrowser/6.8 TBS/036824 Safari/537.36 MicroMessenger/6.3.27.880 NetType/WIFI Language/zh_CN'
p2104
sg16
S'ba9dd297e81a8138e318d20cc0290192'
p2105
sa(dp2106
g2
S'38051'
p2107
sg4
S'3641'
p2108
sg6
S'50eaccbab87ef98eaf79ea688bc155f6'
p2109
sg8
S'xx8a0096d4d96f5fdf02817e522b80e044'
p2110
sg10
S'xxb8c0bbfc753f58683003b1ffe3f8145b'
p2111
sg12
S'xxd8ea3481c96f6447a2139f6d60be78cd'
p2112
sg14
S'Mozilla/5.0 (Linux; Android 5.0.2; Redmi Note 3 Build/LRX22G) AppleWebKit/537.36 (KHTML, like Gecko) Version/4.0 Chrome/37.0.0.0 Mobile MQQBrowser/6.8 TBS/036849 Safari/537.36 MicroMessenger/6.3.27.880 NetType/WIFI Language/zh_CN'
p2113
sg16
S'a4c2670cc8e6857a906a17fd7388d62c'
p2114
sa(dp2115
g2
S'46006'
p2116
sg4
S'3649'
p2117
sg6
S'a3396c69b3f779762b33add9babc2cb6'
p2118
sg8
S'xx6ba590126c015ef89bdacd00f4a391c1'
p2119
sg10
S'xx33da841852f262a0d8d976e467a70d31'
p2120
sg12
S'xxd8ea3481c96f6447a2139f6d60be78cd'
p2121
sg14
S'Mozilla/5.0 (Linux; Android 5.0.2; Redmi Note 3 Build/LRX22G) AppleWebKit/537.36 (KHTML, like Gecko) Version/4.0 Chrome/37.0.0.0 Mobile MQQBrowser/6.8 TBS/036824 Safari/537.36 MicroMessenger/6.3.27.880 NetType/WIFI Language/zh_CN'
p2122
sg16
S'ba9dd297e81a8138e318d20cc0290192'
p2123
sa(dp2124
g2
S'38051'
p2125
sg4
S'3653'
p2126
sg6
S'50eaccbab87ef98eaf79ea688bc155f6'
p2127
sg8
S'xx8a0096d4d96f5fdf02817e522b80e044'
p2128
sg10
S'xxb8c0bbfc753f58683003b1ffe3f8145b'
p2129
sg12
S'xxd8ea3481c96f6447a2139f6d60be78cd'
p2130
sg14
S'Mozilla/5.0 (Linux; Android 5.0.2; Redmi Note 3 Build/LRX22G) AppleWebKit/537.36 (KHTML, like Gecko) Version/4.0 Chrome/37.0.0.0 Mobile MQQBrowser/6.8 TBS/036849 Safari/537.36 MicroMessenger/6.3.27.880 NetType/WIFI Language/zh_CN'
p2131
sg16
S'a4c2670cc8e6857a906a17fd7388d62c'
p2132
sa(dp2133
g2
S'38051'
p2134
sg4
S'3666'
p2135
sg6
S'50eaccbab87ef98eaf79ea688bc155f6'
p2136
sg8
S'xx8a0096d4d96f5fdf02817e522b80e044'
p2137
sg10
S'xxb8c0bbfc753f58683003b1ffe3f8145b'
p2138
sg12
S'xxd8ea3481c96f6447a2139f6d60be78cd'
p2139
sg14
S'Mozilla/5.0 (Linux; Android 5.0.2; Redmi Note 3 Build/LRX22G) AppleWebKit/537.36 (KHTML, like Gecko) Version/4.0 Chrome/37.0.0.0 Mobile MQQBrowser/6.8 TBS/036849 Safari/537.36 MicroMessenger/6.3.27.880 NetType/WIFI Language/zh_CN'
p2140
sg16
S'a4c2670cc8e6857a906a17fd7388d62c'
p2141
sa(dp2142
g2
S'38051'
p2143
sg4
S'3678'
p2144
sg6
S'50eaccbab87ef98eaf79ea688bc155f6'
p2145
sg8
S'xx8a0096d4d96f5fdf02817e522b80e044'
p2146
sg10
S'xxb8c0bbfc753f58683003b1ffe3f8145b'
p2147
sg12
S'xxd8ea3481c96f6447a2139f6d60be78cd'
p2148
sg14
S'Mozilla/5.0 (Linux; Android 5.0.2; Redmi Note 3 Build/LRX22G) AppleWebKit/537.36 (KHTML, like Gecko) Version/4.0 Chrome/37.0.0.0 Mobile MQQBrowser/6.8 TBS/036849 Safari/537.36 MicroMessenger/6.3.27.880 NetType/WIFI Language/zh_CN'
p2149
sg16
S'a4c2670cc8e6857a906a17fd7388d62c'
p2150
sa(dp2151
g2
S'38051'
p2152
sg4
S'3692'
p2153
sg6
S'50eaccbab87ef98eaf79ea688bc155f6'
p2154
sg8
S'xx8a0096d4d96f5fdf02817e522b80e044'
p2155
sg10
S'xxb8c0bbfc753f58683003b1ffe3f8145b'
p2156
sg12
S'xxd8ea3481c96f6447a2139f6d60be78cd'
p2157
sg14
S'Mozilla/5.0 (Linux; Android 5.0.2; Redmi Note 3 Build/LRX22G) AppleWebKit/537.36 (KHTML, like Gecko) Version/4.0 Chrome/37.0.0.0 Mobile MQQBrowser/6.8 TBS/036849 Safari/537.36 MicroMessenger/6.3.27.880 NetType/WIFI Language/zh_CN'
p2158
sg16
S'a4c2670cc8e6857a906a17fd7388d62c'
p2159
sa(dp2160
g2
S'38051'
p2161
sg4
S'3709'
p2162
sg6
S'50eaccbab87ef98eaf79ea688bc155f6'
p2163
sg8
S'xx8a0096d4d96f5fdf02817e522b80e044'
p2164
sg10
S'xxb8c0bbfc753f58683003b1ffe3f8145b'
p2165
sg12
S'xxd8ea3481c96f6447a2139f6d60be78cd'
p2166
sg14
S'Mozilla/5.0 (Linux; Android 5.0.2; Redmi Note 3 Build/LRX22G) AppleWebKit/537.36 (KHTML, like Gecko) Version/4.0 Chrome/37.0.0.0 Mobile MQQBrowser/6.8 TBS/036849 Safari/537.36 MicroMessenger/6.3.27.880 NetType/WIFI Language/zh_CN'
p2167
sg16
S'a4c2670cc8e6857a906a17fd7388d62c'
p2168
sa(dp2169
g2
S'38051'
p2170
sg4
S'3721'
p2171
sg6
S'50eaccbab87ef98eaf79ea688bc155f6'
p2172
sg8
S'xx8a0096d4d96f5fdf02817e522b80e044'
p2173
sg10
S'xxb8c0bbfc753f58683003b1ffe3f8145b'
p2174
sg12
S'xxd8ea3481c96f6447a2139f6d60be78cd'
p2175
sg14
S'Mozilla/5.0 (Linux; Android 5.0.2; Redmi Note 3 Build/LRX22G) AppleWebKit/537.36 (KHTML, like Gecko) Version/4.0 Chrome/37.0.0.0 Mobile MQQBrowser/6.8 TBS/036849 Safari/537.36 MicroMessenger/6.3.27.880 NetType/WIFI Language/zh_CN'
p2176
sg16
S'a4c2670cc8e6857a906a17fd7388d62c'
p2177
sa(dp2178
g2
S'38051'
p2179
sg4
S'3738'
p2180
sg6
S'50eaccbab87ef98eaf79ea688bc155f6'
p2181
sg8
S'xx8a0096d4d96f5fdf02817e522b80e044'
p2182
sg10
S'xxb8c0bbfc753f58683003b1ffe3f8145b'
p2183
sg12
S'xxd8ea3481c96f6447a2139f6d60be78cd'
p2184
sg14
S'Mozilla/5.0 (Linux; Android 5.0.2; Redmi Note 3 Build/LRX22G) AppleWebKit/537.36 (KHTML, like Gecko) Version/4.0 Chrome/37.0.0.0 Mobile MQQBrowser/6.8 TBS/036849 Safari/537.36 MicroMessenger/6.3.27.880 NetType/WIFI Language/zh_CN'
p2185
sg16
S'a4c2670cc8e6857a906a17fd7388d62c'
p2186
sa(dp2187
g2
S'29479'
p2188
sg4
S'3850'
p2189
sg6
S'5b48c78089c6f21a864d9e71cbaf0c9d'
p2190
sg8
S'xx17d1012a6993a2731a0e118b58cbe659'
p2191
sg10
S'xx33da841852f262a0d8d976e467a70d31'
p2192
sg12
S'xxd8ea3481c96f6447a2139f6d60be78cd'
p2193
sg14
S'Mozilla/5.0 (Linux; Android 5.0.2; Redmi Note 3 Build/LRX22G) AppleWebKit/537.36 (KHTML, like Gecko) Version/4.0 Chrome/37.0.0.0 Mobile MQQBrowser/6.8 TBS/036849 Safari/537.36 MicroMessenger/6.3.27.880 NetType/WIFI Language/zh_CN'
p2194
sg16
S'a4c2670cc8e6857a906a17fd7388d62c'
p2195
sa(dp2196
g2
S'29479'
p2197
sg4
S'3868'
p2198
sg6
S'5b48c78089c6f21a864d9e71cbaf0c9d'
p2199
sg8
S'xx17d1012a6993a2731a0e118b58cbe659'
p2200
sg10
S'xx33da841852f262a0d8d976e467a70d31'
p2201
sg12
S'xxd8ea3481c96f6447a2139f6d60be78cd'
p2202
sg14
S'Mozilla/5.0 (Linux; Android 5.0.2; Redmi Note 3 Build/LRX22G) AppleWebKit/537.36 (KHTML, like Gecko) Version/4.0 Chrome/37.0.0.0 Mobile MQQBrowser/6.8 TBS/036849 Safari/537.36 MicroMessenger/6.3.27.880 NetType/WIFI Language/zh_CN'
p2203
sg16
S'a4c2670cc8e6857a906a17fd7388d62c'
p2204
sa(dp2205
g2
S'29479'
p2206
sg4
S'3888'
p2207
sg6
S'5b48c78089c6f21a864d9e71cbaf0c9d'
p2208
sg8
S'xx17d1012a6993a2731a0e118b58cbe659'
p2209
sg10
S'xx33da841852f262a0d8d976e467a70d31'
p2210
sg12
S'xxd8ea3481c96f6447a2139f6d60be78cd'
p2211
sg14
S'Mozilla/5.0 (Linux; Android 5.0.2; Redmi Note 3 Build/LRX22G) AppleWebKit/537.36 (KHTML, like Gecko) Version/4.0 Chrome/37.0.0.0 Mobile MQQBrowser/6.8 TBS/036849 Safari/537.36 MicroMessenger/6.3.27.880 NetType/WIFI Language/zh_CN'
p2212
sg16
S'a4c2670cc8e6857a906a17fd7388d62c'
p2213
sa(dp2214
g2
S'29479'
p2215
sg4
S'3911'
p2216
sg6
S'5b48c78089c6f21a864d9e71cbaf0c9d'
p2217
sg8
S'xx17d1012a6993a2731a0e118b58cbe659'
p2218
sg10
S'xx33da841852f262a0d8d976e467a70d31'
p2219
sg12
S'xxd8ea3481c96f6447a2139f6d60be78cd'
p2220
sg14
S'Mozilla/5.0 (Linux; Android 5.0.2; Redmi Note 3 Build/LRX22G) AppleWebKit/537.36 (KHTML, like Gecko) Version/4.0 Chrome/37.0.0.0 Mobile MQQBrowser/6.8 TBS/036849 Safari/537.36 MicroMessenger/6.3.27.880 NetType/WIFI Language/zh_CN'
p2221
sg16
S'a4c2670cc8e6857a906a17fd7388d62c'
p2222
sa(dp2223
g2
S'19859'
p2224
sg4
S'4377'
p2225
sg6
S'6d9be4f3deb5c49bc8d2d61f4a867a09'
p2226
sg8
S'xx17d1012a6993a2731a0e118b58cbe659'
p2227
sg10
S'xx33da841852f262a0d8d976e467a70d31'
p2228
sg12
S'xxd8ea3481c96f6447a2139f6d60be78cd'
p2229
sg14
S'Mozilla/5.0 (Linux; Android 5.0.2; Redmi Note 3 Build/LRX22G) AppleWebKit/537.36 (KHTML, like Gecko) Version/4.0 Chrome/37.0.0.0 Mobile MQQBrowser/6.8 TBS/036849 Safari/537.36 MicroMessenger/6.3.27.880 NetType/WIFI Language/zh_CN'
p2230
sg16
S'a4c2670cc8e6857a906a17fd7388d62c'
p2231
sa(dp2232
g2
S'19859'
p2233
sg4
S'4405'
p2234
sg6
S'6d9be4f3deb5c49bc8d2d61f4a867a09'
p2235
sg8
S'xx17d1012a6993a2731a0e118b58cbe659'
p2236
sg10
S'xx33da841852f262a0d8d976e467a70d31'
p2237
sg12
S'xxd8ea3481c96f6447a2139f6d60be78cd'
p2238
sg14
S'Mozilla/5.0 (Linux; Android 5.0.2; Redmi Note 3 Build/LRX22G) AppleWebKit/537.36 (KHTML, like Gecko) Version/4.0 Chrome/37.0.0.0 Mobile MQQBrowser/6.8 TBS/036849 Safari/537.36 MicroMessenger/6.3.27.880 NetType/WIFI Language/zh_CN'
p2239
sg16
S'a4c2670cc8e6857a906a17fd7388d62c'
p2240
sa(dp2241
g2
S'19859'
p2242
sg4
S'4425'
p2243
sg6
S'6d9be4f3deb5c49bc8d2d61f4a867a09'
p2244
sg8
S'xx17d1012a6993a2731a0e118b58cbe659'
p2245
sg10
S'xx33da841852f262a0d8d976e467a70d31'
p2246
sg12
S'xxd8ea3481c96f6447a2139f6d60be78cd'
p2247
sg14
S'Mozilla/5.0 (Linux; Android 5.0.2; Redmi Note 3 Build/LRX22G) AppleWebKit/537.36 (KHTML, like Gecko) Version/4.0 Chrome/37.0.0.0 Mobile MQQBrowser/6.8 TBS/036849 Safari/537.36 MicroMessenger/6.3.27.880 NetType/WIFI Language/zh_CN'
p2248
sg16
S'a4c2670cc8e6857a906a17fd7388d62c'
p2249
sa(dp2250
g2
S'19859'
p2251
sg4
S'4442'
p2252
sg6
S'6d9be4f3deb5c49bc8d2d61f4a867a09'
p2253
sg8
S'xx17d1012a6993a2731a0e118b58cbe659'
p2254
sg10
S'xx33da841852f262a0d8d976e467a70d31'
p2255
sg12
S'xxd8ea3481c96f6447a2139f6d60be78cd'
p2256
sg14
S'Mozilla/5.0 (Linux; Android 5.0.2; Redmi Note 3 Build/LRX22G) AppleWebKit/537.36 (KHTML, like Gecko) Version/4.0 Chrome/37.0.0.0 Mobile MQQBrowser/6.8 TBS/036849 Safari/537.36 MicroMessenger/6.3.27.880 NetType/WIFI Language/zh_CN'
p2257
sg16
S'a4c2670cc8e6857a906a17fd7388d62c'
p2258
sa(dp2259
g2
S'19848'
p2260
sg4
S'4542'
p2261
sg6
S'6d9be4f3deb5c49bc8d2d61f4a867a09'
p2262
sg8
S'xx17d1012a6993a2731a0e118b58cbe659'
p2263
sg10
S'xx33da841852f262a0d8d976e467a70d31'
p2264
sg12
S'xxd8ea3481c96f6447a2139f6d60be78cd'
p2265
sg14
S'Mozilla/5.0 (Linux; Android 5.0.2; Redmi Note 3 Build/LRX22G) AppleWebKit/537.36 (KHTML, like Gecko) Version/4.0 Chrome/37.0.0.0 Mobile MQQBrowser/6.8 TBS/036849 Safari/537.36 MicroMessenger/6.3.27.880 NetType/WIFI Language/zh_CN'
p2266
sg16
S'a4c2670cc8e6857a906a17fd7388d62c'
p2267
sa(dp2268
g2
S'19848'
p2269
sg4
S'4568'
p2270
sg6
S'6d9be4f3deb5c49bc8d2d61f4a867a09'
p2271
sg8
S'xx17d1012a6993a2731a0e118b58cbe659'
p2272
sg10
S'xx33da841852f262a0d8d976e467a70d31'
p2273
sg12
S'xxd8ea3481c96f6447a2139f6d60be78cd'
p2274
sg14
S'Mozilla/5.0 (Linux; Android 5.0.2; Redmi Note 3 Build/LRX22G) AppleWebKit/537.36 (KHTML, like Gecko) Version/4.0 Chrome/37.0.0.0 Mobile MQQBrowser/6.8 TBS/036849 Safari/537.36 MicroMessenger/6.3.27.880 NetType/WIFI Language/zh_CN'
p2275
sg16
S'a4c2670cc8e6857a906a17fd7388d62c'
p2276
sa(dp2277
g2
S'33769'
p2278
sg4
S'4806'
p2279
sg6
S'9490c90fc9ed1b4967b57932edbaffc1'
p2280
sg8
S'xx3682dc78083abdfeb7477bdfa8ac822e'
p2281
sg10
S'xx33da841852f262a0d8d976e467a70d31'
p2282
sg12
S'xxd8ea3481c96f6447a2139f6d60be78cd'
p2283
sg14
S'Mozilla/5.0 (Linux; Android 5.0.2; Redmi Note 3 Build/LRX22G) AppleWebKit/537.36 (KHTML, like Gecko) Version/4.0 Chrome/37.0.0.0 Mobile MQQBrowser/6.8 TBS/036849 Safari/537.36 MicroMessenger/6.3.27.880 NetType/3gnet Language/zh_CN'
p2284
sg16
S'37937e038ca0a15b82d6846bcb21ddad'
p2285
sa(dp2286
g2
S'33769'
p2287
sg4
S'4819'
p2288
sg6
S'9490c90fc9ed1b4967b57932edbaffc1'
p2289
sg8
S'xx3682dc78083abdfeb7477bdfa8ac822e'
p2290
sg10
S'xx33da841852f262a0d8d976e467a70d31'
p2291
sg12
S'xxd8ea3481c96f6447a2139f6d60be78cd'
p2292
sg14
S'Mozilla/5.0 (Linux; Android 5.0.2; Redmi Note 3 Build/LRX22G) AppleWebKit/537.36 (KHTML, like Gecko) Version/4.0 Chrome/37.0.0.0 Mobile MQQBrowser/6.8 TBS/036849 Safari/537.36 MicroMessenger/6.3.27.880 NetType/3gnet Language/zh_CN'
p2293
sg16
S'37937e038ca0a15b82d6846bcb21ddad'
p2294
sa(dp2295
g2
S'33769'
p2296
sg4
S'4835'
p2297
sg6
S'9490c90fc9ed1b4967b57932edbaffc1'
p2298
sg8
S'xx3682dc78083abdfeb7477bdfa8ac822e'
p2299
sg10
S'xx33da841852f262a0d8d976e467a70d31'
p2300
sg12
S'xxd8ea3481c96f6447a2139f6d60be78cd'
p2301
sg14
S'Mozilla/5.0 (Linux; Android 5.0.2; Redmi Note 3 Build/LRX22G) AppleWebKit/537.36 (KHTML, like Gecko) Version/4.0 Chrome/37.0.0.0 Mobile MQQBrowser/6.8 TBS/036849 Safari/537.36 MicroMessenger/6.3.27.880 NetType/3gnet Language/zh_CN'
p2302
sg16
S'37937e038ca0a15b82d6846bcb21ddad'
p2303
sa(dp2304
g2
S'33769'
p2305
sg4
S'4854'
p2306
sg6
S'9490c90fc9ed1b4967b57932edbaffc1'
p2307
sg8
S'xx3682dc78083abdfeb7477bdfa8ac822e'
p2308
sg10
S'xx33da841852f262a0d8d976e467a70d31'
p2309
sg12
S'xxd8ea3481c96f6447a2139f6d60be78cd'
p2310
sg14
S'Mozilla/5.0 (Linux; Android 5.0.2; Redmi Note 3 Build/LRX22G) AppleWebKit/537.36 (KHTML, like Gecko) Version/4.0 Chrome/37.0.0.0 Mobile MQQBrowser/6.8 TBS/036849 Safari/537.36 MicroMessenger/6.3.27.880 NetType/3gnet Language/zh_CN'
p2311
sg16
S'37937e038ca0a15b82d6846bcb21ddad'
p2312
sa(dp2313
g2
S'33769'
p2314
sg4
S'4870'
p2315
sg6
S'9490c90fc9ed1b4967b57932edbaffc1'
p2316
sg8
S'xx3682dc78083abdfeb7477bdfa8ac822e'
p2317
sg10
S'xx33da841852f262a0d8d976e467a70d31'
p2318
sg12
S'xxd8ea3481c96f6447a2139f6d60be78cd'
p2319
sg14
S'Mozilla/5.0 (Linux; Android 5.0.2; Redmi Note 3 Build/LRX22G) AppleWebKit/537.36 (KHTML, like Gecko) Version/4.0 Chrome/37.0.0.0 Mobile MQQBrowser/6.8 TBS/036849 Safari/537.36 MicroMessenger/6.3.27.880 NetType/3gnet Language/zh_CN'
p2320
sg16
S'37937e038ca0a15b82d6846bcb21ddad'
p2321
sa(dp2322
g2
S'33769'
p2323
sg4
S'4888'
p2324
sg6
S'9490c90fc9ed1b4967b57932edbaffc1'
p2325
sg8
S'xx3682dc78083abdfeb7477bdfa8ac822e'
p2326
sg10
S'xx33da841852f262a0d8d976e467a70d31'
p2327
sg12
S'xxd8ea3481c96f6447a2139f6d60be78cd'
p2328
sg14
S'Mozilla/5.0 (Linux; Android 5.0.2; Redmi Note 3 Build/LRX22G) AppleWebKit/537.36 (KHTML, like Gecko) Version/4.0 Chrome/37.0.0.0 Mobile MQQBrowser/6.8 TBS/036849 Safari/537.36 MicroMessenger/6.3.27.880 NetType/3gnet Language/zh_CN'
p2329
sg16
S'37937e038ca0a15b82d6846bcb21ddad'
p2330
sa.