(lp0
(dp1
S'user_id'
p2
S'18034'
p3
sS'data_id'
p4
S'1160'
p5
sS'ip'
p6
S'533b45ae3853088ffa0a5d1b2601cade'
p7
sS'phone_B'
p8
S'xxeb69c9c9d072a73b93d029b58ffd2d72'
p9
sS'phone_C'
p10
S'xx34977a3fe3081bdff11c942eb316a46f'
p11
sS'phone_A'
p12
S'xxd8cd63847f8645a017c4d5d403541b28'
p13
sS'user_agent'
p14
S'Mozilla/5.0 (Linux; Android 5.0.2; Letv X500 Build/DAXCNCU5501304131S) AppleWebKit/537.36 (KHTML, like Gecko) Version/4.0 Chrome/37.0.0.0 Mobile MQQBrowser/6.8 TBS/036849 Safari/537.36 MicroMessenger/6.3.27.880 NetType/WIFI Language/zh_CN'
p15
sS'ua'
p16
S'e020d23681a6eac1cf726515ed41e7a5'
p17
sa(dp18
g2
S'18034'
p19
sg4
S'1731'
p20
sg6
S'533b45ae3853088ffa0a5d1b2601cade'
p21
sg8
S'xx804b543708ef2265fac4324cc4f3d343'
p22
sg10
S'xx34977a3fe3081bdff11c942eb316a46f'
p23
sg12
S'xxd8cd63847f8645a017c4d5d403541b28'
p24
sg14
S'Mozilla/5.0 (Linux; Android 5.0.2; Letv X500 Build/DAXCNCU5501304131S) AppleWebKit/537.36 (KHTML, like Gecko) Version/4.0 Chrome/37.0.0.0 Mobile MQQBrowser/6.8 TBS/036869 Safari/537.36 MicroMessenger/6.3.27.880 NetType/WIFI Language/zh_CN'
p25
sg16
S'707206a5740b30b80b1396b0a4a168e9'
p26
sa(dp27
g2
S'18034'
p28
sg4
S'1752'
p29
sg6
S'533b45ae3853088ffa0a5d1b2601cade'
p30
sg8
S'xx804b543708ef2265fac4324cc4f3d343'
p31
sg10
S'xx34977a3fe3081bdff11c942eb316a46f'
p32
sg12
S'xxd8cd63847f8645a017c4d5d403541b28'
p33
sg14
S'Mozilla/5.0 (Linux; Android 5.0.2; Letv X500 Build/DAXCNCU5501304131S) AppleWebKit/537.36 (KHTML, like Gecko) Version/4.0 Chrome/37.0.0.0 Mobile MQQBrowser/6.8 TBS/036869 Safari/537.36 MicroMessenger/6.3.27.880 NetType/WIFI Language/zh_CN'
p34
sg16
S'707206a5740b30b80b1396b0a4a168e9'
p35
sa(dp36
g2
S'18034'
p37
sg4
S'2098'
p38
sg6
S'533b45ae3853088ffa0a5d1b2601cade'
p39
sg8
S'xx804b543708ef2265fac4324cc4f3d343'
p40
sg10
S'xx34977a3fe3081bdff11c942eb316a46f'
p41
sg12
S'xxd8cd63847f8645a017c4d5d403541b28'
p42
sg14
S'Mozilla/5.0 (Linux; Android 5.0.2; Letv X500 Build/DAXCNCU5501304131S) AppleWebKit/537.36 (KHTML, like Gecko) Version/4.0 Chrome/37.0.0.0 Mobile MQQBrowser/6.8 TBS/036869 Safari/537.36 MicroMessenger/6.3.27.880 NetType/WIFI Language/zh_CN'
p43
sg16
S'707206a5740b30b80b1396b0a4a168e9'
p44
sa(dp45
g2
S'18034'
p46
sg4
S'2110'
p47
sg6
S'533b45ae3853088ffa0a5d1b2601cade'
p48
sg8
S'xx804b543708ef2265fac4324cc4f3d343'
p49
sg10
S'xx34977a3fe3081bdff11c942eb316a46f'
p50
sg12
S'xxd8cd63847f8645a017c4d5d403541b28'
p51
sg14
S'Mozilla/5.0 (Linux; Android 5.0.2; Letv X500 Build/DAXCNCU5501304131S) AppleWebKit/537.36 (KHTML, like Gecko) Version/4.0 Chrome/37.0.0.0 Mobile MQQBrowser/6.8 TBS/036869 Safari/537.36 MicroMessenger/6.3.27.880 NetType/WIFI Language/zh_CN'
p52
sg16
S'707206a5740b30b80b1396b0a4a168e9'
p53
sa(dp54
g2
S'18034'
p55
sg4
S'2120'
p56
sg6
S'533b45ae3853088ffa0a5d1b2601cade'
p57
sg8
S'xx804b543708ef2265fac4324cc4f3d343'
p58
sg10
S'xx34977a3fe3081bdff11c942eb316a46f'
p59
sg12
S'xxd8cd63847f8645a017c4d5d403541b28'
p60
sg14
S'Mozilla/5.0 (Linux; Android 5.0.2; Letv X500 Build/DAXCNCU5501304131S) AppleWebKit/537.36 (KHTML, like Gecko) Version/4.0 Chrome/37.0.0.0 Mobile MQQBrowser/6.8 TBS/036869 Safari/537.36 MicroMessenger/6.3.27.880 NetType/WIFI Language/zh_CN'
p61
sg16
S'707206a5740b30b80b1396b0a4a168e9'
p62
sa(dp63
g2
S'18034'
p64
sg4
S'2165'
p65
sg6
S'533b45ae3853088ffa0a5d1b2601cade'
p66
sg8
S'xx804b543708ef2265fac4324cc4f3d343'
p67
sg10
S'xx34977a3fe3081bdff11c942eb316a46f'
p68
sg12
S'xxd8cd63847f8645a017c4d5d403541b28'
p69
sg14
S'Mozilla/5.0 (Linux; Android 5.0.2; Letv X500 Build/DAXCNCU5501304131S) AppleWebKit/537.36 (KHTML, like Gecko) Version/4.0 Chrome/37.0.0.0 Mobile MQQBrowser/6.8 TBS/036869 Safari/537.36 MicroMessenger/6.3.27.880 NetType/WIFI Language/zh_CN'
p70
sg16
S'707206a5740b30b80b1396b0a4a168e9'
p71
sa(dp72
g2
S'18034'
p73
sg4
S'2178'
p74
sg6
S'533b45ae3853088ffa0a5d1b2601cade'
p75
sg8
S'xx804b543708ef2265fac4324cc4f3d343'
p76
sg10
S'xx34977a3fe3081bdff11c942eb316a46f'
p77
sg12
S'xxd8cd63847f8645a017c4d5d403541b28'
p78
sg14
S'Mozilla/5.0 (Linux; Android 5.0.2; Letv X500 Build/DAXCNCU5501304131S) AppleWebKit/537.36 (KHTML, like Gecko) Version/4.0 Chrome/37.0.0.0 Mobile MQQBrowser/6.8 TBS/036869 Safari/537.36 MicroMessenger/6.3.27.880 NetType/WIFI Language/zh_CN'
p79
sg16
S'707206a5740b30b80b1396b0a4a168e9'
p80
sa(dp81
g2
S'18034'
p82
sg4
S'2190'
p83
sg6
S'533b45ae3853088ffa0a5d1b2601cade'
p84
sg8
S'xx804b543708ef2265fac4324cc4f3d343'
p85
sg10
S'xx34977a3fe3081bdff11c942eb316a46f'
p86
sg12
S'xxd8cd63847f8645a017c4d5d403541b28'
p87
sg14
S'Mozilla/5.0 (Linux; Android 5.0.2; Letv X500 Build/DAXCNCU5501304131S) AppleWebKit/537.36 (KHTML, like Gecko) Version/4.0 Chrome/37.0.0.0 Mobile MQQBrowser/6.8 TBS/036869 Safari/537.36 MicroMessenger/6.3.27.880 NetType/WIFI Language/zh_CN'
p88
sg16
S'707206a5740b30b80b1396b0a4a168e9'
p89
sa(dp90
g2
S'18034'
p91
sg4
S'2210'
p92
sg6
S'533b45ae3853088ffa0a5d1b2601cade'
p93
sg8
S'xx804b543708ef2265fac4324cc4f3d343'
p94
sg10
S'xx34977a3fe3081bdff11c942eb316a46f'
p95
sg12
S'xxd8cd63847f8645a017c4d5d403541b28'
p96
sg14
S'Mozilla/5.0 (Linux; Android 5.0.2; Letv X500 Build/DAXCNCU5501304131S) AppleWebKit/537.36 (KHTML, like Gecko) Version/4.0 Chrome/37.0.0.0 Mobile MQQBrowser/6.8 TBS/036869 Safari/537.36 MicroMessenger/6.3.27.880 NetType/WIFI Language/zh_CN'
p97
sg16
S'707206a5740b30b80b1396b0a4a168e9'
p98
sa(dp99
g2
S'18034'
p100
sg4
S'2229'
p101
sg6
S'533b45ae3853088ffa0a5d1b2601cade'
p102
sg8
S'xx804b543708ef2265fac4324cc4f3d343'
p103
sg10
S'xx34977a3fe3081bdff11c942eb316a46f'
p104
sg12
S'xxd8cd63847f8645a017c4d5d403541b28'
p105
sg14
S'Mozilla/5.0 (Linux; Android 5.0.2; Letv X500 Build/DAXCNCU5501304131S) AppleWebKit/537.36 (KHTML, like Gecko) Version/4.0 Chrome/37.0.0.0 Mobile MQQBrowser/6.8 TBS/036869 Safari/537.36 MicroMessenger/6.3.27.880 NetType/WIFI Language/zh_CN'
p106
sg16
S'707206a5740b30b80b1396b0a4a168e9'
p107
sa(dp108
g2
S'18034'
p109
sg4
S'2249'
p110
sg6
S'533b45ae3853088ffa0a5d1b2601cade'
p111
sg8
S'xx804b543708ef2265fac4324cc4f3d343'
p112
sg10
S'xx34977a3fe3081bdff11c942eb316a46f'
p113
sg12
S'xxd8cd63847f8645a017c4d5d403541b28'
p114
sg14
S'Mozilla/5.0 (Linux; Android 5.0.2; Letv X500 Build/DAXCNCU5501304131S) AppleWebKit/537.36 (KHTML, like Gecko) Version/4.0 Chrome/37.0.0.0 Mobile MQQBrowser/6.8 TBS/036869 Safari/537.36 MicroMessenger/6.3.27.880 NetType/WIFI Language/zh_CN'
p115
sg16
S'707206a5740b30b80b1396b0a4a168e9'
p116
sa(dp117
g2
S'18034'
p118
sg4
S'2265'
p119
sg6
S'533b45ae3853088ffa0a5d1b2601cade'
p120
sg8
S'xx804b543708ef2265fac4324cc4f3d343'
p121
sg10
S'xx34977a3fe3081bdff11c942eb316a46f'
p122
sg12
S'xxd8cd63847f8645a017c4d5d403541b28'
p123
sg14
S'Mozilla/5.0 (Linux; Android 5.0.2; Letv X500 Build/DAXCNCU5501304131S) AppleWebKit/537.36 (KHTML, like Gecko) Version/4.0 Chrome/37.0.0.0 Mobile MQQBrowser/6.8 TBS/036869 Safari/537.36 MicroMessenger/6.3.27.880 NetType/WIFI Language/zh_CN'
p124
sg16
S'707206a5740b30b80b1396b0a4a168e9'
p125
sa(dp126
g2
S'18034'
p127
sg4
S'2276'
p128
sg6
S'533b45ae3853088ffa0a5d1b2601cade'
p129
sg8
S'xx804b543708ef2265fac4324cc4f3d343'
p130
sg10
S'xx34977a3fe3081bdff11c942eb316a46f'
p131
sg12
S'xxd8cd63847f8645a017c4d5d403541b28'
p132
sg14
S'Mozilla/5.0 (Linux; Android 5.0.2; Letv X500 Build/DAXCNCU5501304131S) AppleWebKit/537.36 (KHTML, like Gecko) Version/4.0 Chrome/37.0.0.0 Mobile MQQBrowser/6.8 TBS/036869 Safari/537.36 MicroMessenger/6.3.27.880 NetType/WIFI Language/zh_CN'
p133
sg16
S'707206a5740b30b80b1396b0a4a168e9'
p134
sa(dp135
g2
S'18034'
p136
sg4
S'2291'
p137
sg6
S'533b45ae3853088ffa0a5d1b2601cade'
p138
sg8
S'xx804b543708ef2265fac4324cc4f3d343'
p139
sg10
S'xx34977a3fe3081bdff11c942eb316a46f'
p140
sg12
S'xxd8cd63847f8645a017c4d5d403541b28'
p141
sg14
S'Mozilla/5.0 (Linux; Android 5.0.2; Letv X500 Build/DAXCNCU5501304131S) AppleWebKit/537.36 (KHTML, like Gecko) Version/4.0 Chrome/37.0.0.0 Mobile MQQBrowser/6.8 TBS/036869 Safari/537.36 MicroMessenger/6.3.27.880 NetType/WIFI Language/zh_CN'
p142
sg16
S'707206a5740b30b80b1396b0a4a168e9'
p143
sa(dp144
g2
S'18034'
p145
sg4
S'2305'
p146
sg6
S'533b45ae3853088ffa0a5d1b2601cade'
p147
sg8
S'xx804b543708ef2265fac4324cc4f3d343'
p148
sg10
S'xx34977a3fe3081bdff11c942eb316a46f'
p149
sg12
S'xxd8cd63847f8645a017c4d5d403541b28'
p150
sg14
S'Mozilla/5.0 (Linux; Android 5.0.2; Letv X500 Build/DAXCNCU5501304131S) AppleWebKit/537.36 (KHTML, like Gecko) Version/4.0 Chrome/37.0.0.0 Mobile MQQBrowser/6.8 TBS/036869 Safari/537.36 MicroMessenger/6.3.27.880 NetType/WIFI Language/zh_CN'
p151
sg16
S'707206a5740b30b80b1396b0a4a168e9'
p152
sa(dp153
g2
S'18034'
p154
sg4
S'2872'
p155
sg6
S'533b45ae3853088ffa0a5d1b2601cade'
p156
sg8
S'xx804b543708ef2265fac4324cc4f3d343'
p157
sg10
S'xx34977a3fe3081bdff11c942eb316a46f'
p158
sg12
S'xxd8cd63847f8645a017c4d5d403541b28'
p159
sg14
S'Mozilla/5.0 (Linux; Android 5.0.2; Letv X500 Build/DAXCNCU5501304131S) AppleWebKit/537.36 (KHTML, like Gecko) Version/4.0 Chrome/37.0.0.0 Mobile MQQBrowser/6.8 TBS/036869 Safari/537.36 MicroMessenger/6.3.27.880 NetType/WIFI Language/zh_CN'
p160
sg16
S'707206a5740b30b80b1396b0a4a168e9'
p161
sa(dp162
g2
S'18034'
p163
sg4
S'2889'
p164
sg6
S'533b45ae3853088ffa0a5d1b2601cade'
p165
sg8
S'xx804b543708ef2265fac4324cc4f3d343'
p166
sg10
S'xx34977a3fe3081bdff11c942eb316a46f'
p167
sg12
S'xxd8cd63847f8645a017c4d5d403541b28'
p168
sg14
S'Mozilla/5.0 (Linux; Android 5.0.2; Letv X500 Build/DAXCNCU5501304131S) AppleWebKit/537.36 (KHTML, like Gecko) Version/4.0 Chrome/37.0.0.0 Mobile MQQBrowser/6.8 TBS/036869 Safari/537.36 MicroMessenger/6.3.27.880 NetType/WIFI Language/zh_CN'
p169
sg16
S'707206a5740b30b80b1396b0a4a168e9'
p170
sa(dp171
g2
S'18034'
p172
sg4
S'2913'
p173
sg6
S'533b45ae3853088ffa0a5d1b2601cade'
p174
sg8
S'xx804b543708ef2265fac4324cc4f3d343'
p175
sg10
S'xx34977a3fe3081bdff11c942eb316a46f'
p176
sg12
S'xxd8cd63847f8645a017c4d5d403541b28'
p177
sg14
S'Mozilla/5.0 (Linux; Android 5.0.2; Letv X500 Build/DAXCNCU5501304131S) AppleWebKit/537.36 (KHTML, like Gecko) Version/4.0 Chrome/37.0.0.0 Mobile MQQBrowser/6.8 TBS/036869 Safari/537.36 MicroMessenger/6.3.27.880 NetType/WIFI Language/zh_CN'
p178
sg16
S'707206a5740b30b80b1396b0a4a168e9'
p179
sa(dp180
g2
S'18034'
p181
sg4
S'2951'
p182
sg6
S'533b45ae3853088ffa0a5d1b2601cade'
p183
sg8
S'xx804b543708ef2265fac4324cc4f3d343'
p184
sg10
S'xx34977a3fe3081bdff11c942eb316a46f'
p185
sg12
S'xxd8cd63847f8645a017c4d5d403541b28'
p186
sg14
S'Mozilla/5.0 (Linux; Android 5.0.2; Letv X500 Build/DAXCNCU5501304131S) AppleWebKit/537.36 (KHTML, like Gecko) Version/4.0 Chrome/37.0.0.0 Mobile MQQBrowser/6.8 TBS/036869 Safari/537.36 MicroMessenger/6.3.27.880 NetType/WIFI Language/zh_CN'
p187
sg16
S'707206a5740b30b80b1396b0a4a168e9'
p188
sa(dp189
g2
S'18034'
p190
sg4
S'2966'
p191
sg6
S'533b45ae3853088ffa0a5d1b2601cade'
p192
sg8
S'xx804b543708ef2265fac4324cc4f3d343'
p193
sg10
S'xx34977a3fe3081bdff11c942eb316a46f'
p194
sg12
S'xxd8cd63847f8645a017c4d5d403541b28'
p195
sg14
S'Mozilla/5.0 (Linux; Android 5.0.2; Letv X500 Build/DAXCNCU5501304131S) AppleWebKit/537.36 (KHTML, like Gecko) Version/4.0 Chrome/37.0.0.0 Mobile MQQBrowser/6.8 TBS/036869 Safari/537.36 MicroMessenger/6.3.27.880 NetType/WIFI Language/zh_CN'
p196
sg16
S'707206a5740b30b80b1396b0a4a168e9'
p197
sa(dp198
g2
S'18034'
p199
sg4
S'2984'
p200
sg6
S'533b45ae3853088ffa0a5d1b2601cade'
p201
sg8
S'xx804b543708ef2265fac4324cc4f3d343'
p202
sg10
S'xx34977a3fe3081bdff11c942eb316a46f'
p203
sg12
S'xxd8cd63847f8645a017c4d5d403541b28'
p204
sg14
S'Mozilla/5.0 (Linux; Android 5.0.2; Letv X500 Build/DAXCNCU5501304131S) AppleWebKit/537.36 (KHTML, like Gecko) Version/4.0 Chrome/37.0.0.0 Mobile MQQBrowser/6.8 TBS/036869 Safari/537.36 MicroMessenger/6.3.27.880 NetType/WIFI Language/zh_CN'
p205
sg16
S'707206a5740b30b80b1396b0a4a168e9'
p206
sa(dp207
g2
S'18034'
p208
sg4
S'2999'
p209
sg6
S'533b45ae3853088ffa0a5d1b2601cade'
p210
sg8
S'xx804b543708ef2265fac4324cc4f3d343'
p211
sg10
S'xx34977a3fe3081bdff11c942eb316a46f'
p212
sg12
S'xxd8cd63847f8645a017c4d5d403541b28'
p213
sg14
S'Mozilla/5.0 (Linux; Android 5.0.2; Letv X500 Build/DAXCNCU5501304131S) AppleWebKit/537.36 (KHTML, like Gecko) Version/4.0 Chrome/37.0.0.0 Mobile MQQBrowser/6.8 TBS/036869 Safari/537.36 MicroMessenger/6.3.27.880 NetType/WIFI Language/zh_CN'
p214
sg16
S'707206a5740b30b80b1396b0a4a168e9'
p215
sa(dp216
g2
S'18034'
p217
sg4
S'3014'
p218
sg6
S'533b45ae3853088ffa0a5d1b2601cade'
p219
sg8
S'xx804b543708ef2265fac4324cc4f3d343'
p220
sg10
S'xx34977a3fe3081bdff11c942eb316a46f'
p221
sg12
S'xxd8cd63847f8645a017c4d5d403541b28'
p222
sg14
S'Mozilla/5.0 (Linux; Android 5.0.2; Letv X500 Build/DAXCNCU5501304131S) AppleWebKit/537.36 (KHTML, like Gecko) Version/4.0 Chrome/37.0.0.0 Mobile MQQBrowser/6.8 TBS/036869 Safari/537.36 MicroMessenger/6.3.27.880 NetType/WIFI Language/zh_CN'
p223
sg16
S'707206a5740b30b80b1396b0a4a168e9'
p224
sa(dp225
g2
S'18034'
p226
sg4
S'3028'
p227
sg6
S'533b45ae3853088ffa0a5d1b2601cade'
p228
sg8
S'xx804b543708ef2265fac4324cc4f3d343'
p229
sg10
S'xx34977a3fe3081bdff11c942eb316a46f'
p230
sg12
S'xxd8cd63847f8645a017c4d5d403541b28'
p231
sg14
S'Mozilla/5.0 (Linux; Android 5.0.2; Letv X500 Build/DAXCNCU5501304131S) AppleWebKit/537.36 (KHTML, like Gecko) Version/4.0 Chrome/37.0.0.0 Mobile MQQBrowser/6.8 TBS/036869 Safari/537.36 MicroMessenger/6.3.27.880 NetType/WIFI Language/zh_CN'
p232
sg16
S'707206a5740b30b80b1396b0a4a168e9'
p233
sa(dp234
g2
S'18034'
p235
sg4
S'3047'
p236
sg6
S'533b45ae3853088ffa0a5d1b2601cade'
p237
sg8
S'xx804b543708ef2265fac4324cc4f3d343'
p238
sg10
S'xx34977a3fe3081bdff11c942eb316a46f'
p239
sg12
S'xxd8cd63847f8645a017c4d5d403541b28'
p240
sg14
S'Mozilla/5.0 (Linux; Android 5.0.2; Letv X500 Build/DAXCNCU5501304131S) AppleWebKit/537.36 (KHTML, like Gecko) Version/4.0 Chrome/37.0.0.0 Mobile MQQBrowser/6.8 TBS/036869 Safari/537.36 MicroMessenger/6.3.27.880 NetType/WIFI Language/zh_CN'
p241
sg16
S'707206a5740b30b80b1396b0a4a168e9'
p242
sa(dp243
g2
S'18034'
p244
sg4
S'3067'
p245
sg6
S'533b45ae3853088ffa0a5d1b2601cade'
p246
sg8
S'xx804b543708ef2265fac4324cc4f3d343'
p247
sg10
S'xx34977a3fe3081bdff11c942eb316a46f'
p248
sg12
S'xxd8cd63847f8645a017c4d5d403541b28'
p249
sg14
S'Mozilla/5.0 (Linux; Android 5.0.2; Letv X500 Build/DAXCNCU5501304131S) AppleWebKit/537.36 (KHTML, like Gecko) Version/4.0 Chrome/37.0.0.0 Mobile MQQBrowser/6.8 TBS/036869 Safari/537.36 MicroMessenger/6.3.27.880 NetType/WIFI Language/zh_CN'
p250
sg16
S'707206a5740b30b80b1396b0a4a168e9'
p251
sa(dp252
g2
S'18034'
p253
sg4
S'3087'
p254
sg6
S'533b45ae3853088ffa0a5d1b2601cade'
p255
sg8
S'xx804b543708ef2265fac4324cc4f3d343'
p256
sg10
S'xx34977a3fe3081bdff11c942eb316a46f'
p257
sg12
S'xxd8cd63847f8645a017c4d5d403541b28'
p258
sg14
S'Mozilla/5.0 (Linux; Android 5.0.2; Letv X500 Build/DAXCNCU5501304131S) AppleWebKit/537.36 (KHTML, like Gecko) Version/4.0 Chrome/37.0.0.0 Mobile MQQBrowser/6.8 TBS/036869 Safari/537.36 MicroMessenger/6.3.27.880 NetType/WIFI Language/zh_CN'
p259
sg16
S'707206a5740b30b80b1396b0a4a168e9'
p260
sa(dp261
g2
S'18034'
p262
sg4
S'3103'
p263
sg6
S'533b45ae3853088ffa0a5d1b2601cade'
p264
sg8
S'xx804b543708ef2265fac4324cc4f3d343'
p265
sg10
S'xx34977a3fe3081bdff11c942eb316a46f'
p266
sg12
S'xxd8cd63847f8645a017c4d5d403541b28'
p267
sg14
S'Mozilla/5.0 (Linux; Android 5.0.2; Letv X500 Build/DAXCNCU5501304131S) AppleWebKit/537.36 (KHTML, like Gecko) Version/4.0 Chrome/37.0.0.0 Mobile MQQBrowser/6.8 TBS/036869 Safari/537.36 MicroMessenger/6.3.27.880 NetType/WIFI Language/zh_CN'
p268
sg16
S'707206a5740b30b80b1396b0a4a168e9'
p269
sa(dp270
g2
S'18034'
p271
sg4
S'3121'
p272
sg6
S'533b45ae3853088ffa0a5d1b2601cade'
p273
sg8
S'xx804b543708ef2265fac4324cc4f3d343'
p274
sg10
S'xx34977a3fe3081bdff11c942eb316a46f'
p275
sg12
S'xxd8cd63847f8645a017c4d5d403541b28'
p276
sg14
S'Mozilla/5.0 (Linux; Android 5.0.2; Letv X500 Build/DAXCNCU5501304131S) AppleWebKit/537.36 (KHTML, like Gecko) Version/4.0 Chrome/37.0.0.0 Mobile MQQBrowser/6.8 TBS/036869 Safari/537.36 MicroMessenger/6.3.27.880 NetType/WIFI Language/zh_CN'
p277
sg16
S'707206a5740b30b80b1396b0a4a168e9'
p278
sa(dp279
g2
S'18034'
p280
sg4
S'3139'
p281
sg6
S'533b45ae3853088ffa0a5d1b2601cade'
p282
sg8
S'xx804b543708ef2265fac4324cc4f3d343'
p283
sg10
S'xx34977a3fe3081bdff11c942eb316a46f'
p284
sg12
S'xxd8cd63847f8645a017c4d5d403541b28'
p285
sg14
S'Mozilla/5.0 (Linux; Android 5.0.2; Letv X500 Build/DAXCNCU5501304131S) AppleWebKit/537.36 (KHTML, like Gecko) Version/4.0 Chrome/37.0.0.0 Mobile MQQBrowser/6.8 TBS/036869 Safari/537.36 MicroMessenger/6.3.27.880 NetType/WIFI Language/zh_CN'
p286
sg16
S'707206a5740b30b80b1396b0a4a168e9'
p287
sa(dp288
g2
S'18034'
p289
sg4
S'3154'
p290
sg6
S'533b45ae3853088ffa0a5d1b2601cade'
p291
sg8
S'xx804b543708ef2265fac4324cc4f3d343'
p292
sg10
S'xx34977a3fe3081bdff11c942eb316a46f'
p293
sg12
S'xxd8cd63847f8645a017c4d5d403541b28'
p294
sg14
S'Mozilla/5.0 (Linux; Android 5.0.2; Letv X500 Build/DAXCNCU5501304131S) AppleWebKit/537.36 (KHTML, like Gecko) Version/4.0 Chrome/37.0.0.0 Mobile MQQBrowser/6.8 TBS/036869 Safari/537.36 MicroMessenger/6.3.27.880 NetType/WIFI Language/zh_CN'
p295
sg16
S'707206a5740b30b80b1396b0a4a168e9'
p296
sa(dp297
g2
S'18034'
p298
sg4
S'3412'
p299
sg6
S'533b45ae3853088ffa0a5d1b2601cade'
p300
sg8
S'xx804b543708ef2265fac4324cc4f3d343'
p301
sg10
S'xx34977a3fe3081bdff11c942eb316a46f'
p302
sg12
S'xxd8cd63847f8645a017c4d5d403541b28'
p303
sg14
S'Mozilla/5.0 (Linux; Android 5.0.2; Letv X500 Build/DAXCNCU5501304131S) AppleWebKit/537.36 (KHTML, like Gecko) Version/4.0 Chrome/37.0.0.0 Mobile MQQBrowser/6.8 TBS/036869 Safari/537.36 MicroMessenger/6.3.27.880 NetType/WIFI Language/zh_CN'
p304
sg16
S'707206a5740b30b80b1396b0a4a168e9'
p305
sa(dp306
g2
S'18034'
p307
sg4
S'3424'
p308
sg6
S'533b45ae3853088ffa0a5d1b2601cade'
p309
sg8
S'xx804b543708ef2265fac4324cc4f3d343'
p310
sg10
S'xx34977a3fe3081bdff11c942eb316a46f'
p311
sg12
S'xxd8cd63847f8645a017c4d5d403541b28'
p312
sg14
S'Mozilla/5.0 (Linux; Android 5.0.2; Letv X500 Build/DAXCNCU5501304131S) AppleWebKit/537.36 (KHTML, like Gecko) Version/4.0 Chrome/37.0.0.0 Mobile MQQBrowser/6.8 TBS/036869 Safari/537.36 MicroMessenger/6.3.27.880 NetType/WIFI Language/zh_CN'
p313
sg16
S'707206a5740b30b80b1396b0a4a168e9'
p314
sa(dp315
g2
S'18034'
p316
sg4
S'4003'
p317
sg6
S'533b45ae3853088ffa0a5d1b2601cade'
p318
sg8
S'xx804b543708ef2265fac4324cc4f3d343'
p319
sg10
S'xx34977a3fe3081bdff11c942eb316a46f'
p320
sg12
S'xxd8cd63847f8645a017c4d5d403541b28'
p321
sg14
S'Mozilla/5.0 (Linux; Android 5.0.2; Letv X500 Build/DAXCNCU5501304131S) AppleWebKit/537.36 (KHTML, like Gecko) Version/4.0 Chrome/37.0.0.0 Mobile MQQBrowser/6.8 TBS/036869 Safari/537.36 MicroMessenger/6.3.27.880 NetType/WIFI Language/zh_CN'
p322
sg16
S'707206a5740b30b80b1396b0a4a168e9'
p323
sa(dp324
g2
S'18034'
p325
sg4
S'4779'
p326
sg6
S'533b45ae3853088ffa0a5d1b2601cade'
p327
sg8
S'xx804b543708ef2265fac4324cc4f3d343'
p328
sg10
S'xx34977a3fe3081bdff11c942eb316a46f'
p329
sg12
S'xxd8cd63847f8645a017c4d5d403541b28'
p330
sg14
S'Mozilla/5.0 (Linux; Android 5.0.2; Letv X500 Build/DAXCNCU5501304131S) AppleWebKit/537.36 (KHTML, like Gecko) Version/4.0 Chrome/37.0.0.0 Mobile MQQBrowser/6.8 TBS/036869 Safari/537.36 MicroMessenger/6.3.27.880 NetType/WIFI Language/zh_CN'
p331
sg16
S'707206a5740b30b80b1396b0a4a168e9'
p332
sa(dp333
g2
S'40452'
p334
sg4
S'5063'
p335
sg6
S'b8ab5233486ad7325841dc0e8c018df8'
p336
sg8
S'xx02e79f8a3e50d1ffc44cf3810d43962a'
p337
sg10
S'xx34977a3fe3081bdff11c942eb316a46f'
p338
sg12
S'xxd8cd63847f8645a017c4d5d403541b28'
p339
sg14
S'Mozilla/5.0 (Linux; Android 5.0.2; Letv X500 Build/DAXCNCU5501304131S) AppleWebKit/537.36 (KHTML, like Gecko) Version/4.0 Chrome/37.0.0.0 Mobile MQQBrowser/6.8 TBS/036824 Safari/537.36 MicroMessenger/6.3.27.880 NetType/cmnet Language/zh_CN'
p340
sg16
S'd82809a9174816c0fdf6a1fbb91fb2af'
p341
sa(dp342
g2
S'40452'
p343
sg4
S'5080'
p344
sg6
S'b8ab5233486ad7325841dc0e8c018df8'
p345
sg8
S'xx02e79f8a3e50d1ffc44cf3810d43962a'
p346
sg10
S'xx34977a3fe3081bdff11c942eb316a46f'
p347
sg12
S'xxd8cd63847f8645a017c4d5d403541b28'
p348
sg14
S'Mozilla/5.0 (Linux; Android 5.0.2; Letv X500 Build/DAXCNCU5501304131S) AppleWebKit/537.36 (KHTML, like Gecko) Version/4.0 Chrome/37.0.0.0 Mobile MQQBrowser/6.8 TBS/036824 Safari/537.36 MicroMessenger/6.3.27.880 NetType/cmnet Language/zh_CN'
p349
sg16
S'd82809a9174816c0fdf6a1fbb91fb2af'
p350
sa(dp351
g2
S'18034'
p352
sg4
S'5872'
p353
sg6
S'533b45ae3853088ffa0a5d1b2601cade'
p354
sg8
S'xx804b543708ef2265fac4324cc4f3d343'
p355
sg10
S'xx34977a3fe3081bdff11c942eb316a46f'
p356
sg12
S'xxd8cd63847f8645a017c4d5d403541b28'
p357
sg14
S'Mozilla/5.0 (Linux; Android 5.0.2; Letv X500 Build/DAXCNCU5501304131S) AppleWebKit/537.36 (KHTML, like Gecko) Version/4.0 Chrome/37.0.0.0 Mobile MQQBrowser/6.8 TBS/036869 Safari/537.36 MicroMessenger/6.3.27.880 NetType/WIFI Language/zh_CN'
p358
sg16
S'707206a5740b30b80b1396b0a4a168e9'
p359
sa(dp360
g2
S'18034'
p361
sg4
S'5891'
p362
sg6
S'533b45ae3853088ffa0a5d1b2601cade'
p363
sg8
S'xx804b543708ef2265fac4324cc4f3d343'
p364
sg10
S'xx34977a3fe3081bdff11c942eb316a46f'
p365
sg12
S'xxd8cd63847f8645a017c4d5d403541b28'
p366
sg14
S'Mozilla/5.0 (Linux; Android 5.0.2; Letv X500 Build/DAXCNCU5501304131S) AppleWebKit/537.36 (KHTML, like Gecko) Version/4.0 Chrome/37.0.0.0 Mobile MQQBrowser/6.8 TBS/036869 Safari/537.36 MicroMessenger/6.3.27.880 NetType/WIFI Language/zh_CN'
p367
sg16
S'707206a5740b30b80b1396b0a4a168e9'
p368
sa(dp369
g2
S'18034'
p370
sg4
S'5908'
p371
sg6
S'533b45ae3853088ffa0a5d1b2601cade'
p372
sg8
S'xx804b543708ef2265fac4324cc4f3d343'
p373
sg10
S'xx34977a3fe3081bdff11c942eb316a46f'
p374
sg12
S'xxd8cd63847f8645a017c4d5d403541b28'
p375
sg14
S'Mozilla/5.0 (Linux; Android 5.0.2; Letv X500 Build/DAXCNCU5501304131S) AppleWebKit/537.36 (KHTML, like Gecko) Version/4.0 Chrome/37.0.0.0 Mobile MQQBrowser/6.8 TBS/036869 Safari/537.36 MicroMessenger/6.3.27.880 NetType/WIFI Language/zh_CN'
p376
sg16
S'707206a5740b30b80b1396b0a4a168e9'
p377
sa.