(lp0
(dp1
S'user_id'
p2
S'49009'
p3
sS'data_id'
p4
S'6768'
p5
sS'ip'
p6
S'37ec7b91655b3c964292df15710fad2a'
p7
sS'phone_B'
p8
S'xx4bf02ebbcc764a3c0af099c247835e37'
p9
sS'phone_C'
p10
S'xx1c8de0a552386b2b197445e75e742c1c'
p11
sS'phone_A'
p12
S'xxd995e4d51f0164cda0889d7bbc0c19bb'
p13
sS'user_agent'
p14
S'Mozilla/5.0 (Linux; Android 5.0.1; GT-I9500 Build/LRX22C) AppleWebKit/537.36 (KHTML, like Gecko) Version/4.0 Chrome/37.0.0.0 Mobile MQQBrowser/6.8 TBS/036849 Safari/537.36 MicroMessenger/6.3.27.880 NetType/WIFI Language/zh_CN'
p15
sS'ua'
p16
S'fdbb00022173ec9e063659006dd5572d'
p17
sa(dp18
g2
S'49009'
p19
sg4
S'6787'
p20
sg6
S'37ec7b91655b3c964292df15710fad2a'
p21
sg8
S'xx4bf02ebbcc764a3c0af099c247835e37'
p22
sg10
S'xx1c8de0a552386b2b197445e75e742c1c'
p23
sg12
S'xxd995e4d51f0164cda0889d7bbc0c19bb'
p24
sg14
S'Mozilla/5.0 (Linux; Android 5.0.1; GT-I9500 Build/LRX22C) AppleWebKit/537.36 (KHTML, like Gecko) Version/4.0 Chrome/37.0.0.0 Mobile MQQBrowser/6.8 TBS/036849 Safari/537.36 MicroMessenger/6.3.27.880 NetType/WIFI Language/zh_CN'
p25
sg16
S'fdbb00022173ec9e063659006dd5572d'
p26
sa.