(lp0
(dp1
S'user_id'
p2
S'24272'
p3
sS'data_id'
p4
S'5796'
p5
sS'ip'
p6
S'c1d2cb07f3d2d92ecc21c06e32c6e9e4'
p7
sS'phone_B'
p8
S'xx7308fdaf1f2597e2dfd4bea4d1396d98'
p9
sS'phone_C'
p10
S'xx38eda94c31249e8adca0ade3b832660a'
p11
sS'phone_A'
p12
S'xxdafa34647108f04e213fd4f8e429e9a9'
p13
sS'user_agent'
p14
S'Mozilla/5.0 (Linux; Android 5.1; M578CA Build/LMY47D) AppleWebKit/537.36 (KHTML, like Gecko) Version/4.0 Chrome/37.0.0.0 Mobile MQQBrowser/6.8 TBS/036849 Safari/537.36 MicroMessenger/6.3.27.880 NetType/ctlte Language/zh_CN'
p15
sS'ua'
p16
S'2e8be17b08307120a36e863bb9346412'
p17
sa(dp18
g2
S'24272'
p19
sg4
S'5813'
p20
sg6
S'c1d2cb07f3d2d92ecc21c06e32c6e9e4'
p21
sg8
S'xx7308fdaf1f2597e2dfd4bea4d1396d98'
p22
sg10
S'xx38eda94c31249e8adca0ade3b832660a'
p23
sg12
S'xxdafa34647108f04e213fd4f8e429e9a9'
p24
sg14
S'Mozilla/5.0 (Linux; Android 5.1; M578CA Build/LMY47D) AppleWebKit/537.36 (KHTML, like Gecko) Version/4.0 Chrome/37.0.0.0 Mobile MQQBrowser/6.8 TBS/036849 Safari/537.36 MicroMessenger/6.3.27.880 NetType/ctlte Language/zh_CN'
p25
sg16
S'2e8be17b08307120a36e863bb9346412'
p26
sa(dp27
g2
S'24272'
p28
sg4
S'7747'
p29
sg6
S'7dbeb7a942c83a9f681e8bbbf00fe67d'
p30
sg8
S'xx7308fdaf1f2597e2dfd4bea4d1396d98'
p31
sg10
S'xx38eda94c31249e8adca0ade3b832660a'
p32
sg12
S'xxdafa34647108f04e213fd4f8e429e9a9'
p33
sg14
S'Mozilla/5.0 (Linux; Android 5.1; M578CA Build/LMY47D) AppleWebKit/537.36 (KHTML, like Gecko) Version/4.0 Chrome/37.0.0.0 Mobile MQQBrowser/6.8 TBS/036849 Safari/537.36 MicroMessenger/6.3.27.880 NetType/ctlte Language/zh_CN'
p34
sg16
S'2e8be17b08307120a36e863bb9346412'
p35
sa(dp36
g2
S'24272'
p37
sg4
S'7763'
p38
sg6
S'7dbeb7a942c83a9f681e8bbbf00fe67d'
p39
sg8
S'xx7308fdaf1f2597e2dfd4bea4d1396d98'
p40
sg10
S'xx38eda94c31249e8adca0ade3b832660a'
p41
sg12
S'xxdafa34647108f04e213fd4f8e429e9a9'
p42
sg14
S'Mozilla/5.0 (Linux; Android 5.1; M578CA Build/LMY47D) AppleWebKit/537.36 (KHTML, like Gecko) Version/4.0 Chrome/37.0.0.0 Mobile MQQBrowser/6.8 TBS/036849 Safari/537.36 MicroMessenger/6.3.27.880 NetType/ctlte Language/zh_CN'
p43
sg16
S'2e8be17b08307120a36e863bb9346412'
p44
sa(dp45
g2
S'24272'
p46
sg4
S'7788'
p47
sg6
S'7dbeb7a942c83a9f681e8bbbf00fe67d'
p48
sg8
S'xx7308fdaf1f2597e2dfd4bea4d1396d98'
p49
sg10
S'xx38eda94c31249e8adca0ade3b832660a'
p50
sg12
S'xxdafa34647108f04e213fd4f8e429e9a9'
p51
sg14
S'Mozilla/5.0 (Linux; Android 5.1; M578CA Build/LMY47D) AppleWebKit/537.36 (KHTML, like Gecko) Version/4.0 Chrome/37.0.0.0 Mobile MQQBrowser/6.8 TBS/036849 Safari/537.36 MicroMessenger/6.3.27.880 NetType/ctlte Language/zh_CN'
p52
sg16
S'2e8be17b08307120a36e863bb9346412'
p53
sa.