(lp0
(dp1
S'user_id'
p2
S'39581'
p3
sS'data_id'
p4
S'3368'
p5
sS'ip'
p6
S'5b48c78089c6f21a864d9e71cbaf0c9d'
p7
sS'phone_B'
p8
S'xxe2fc1acff3f746c185d576ddaf5382de'
p9
sS'phone_C'
p10
S'xx0cd7a6f2e85b8e05fb014b9b634a62b4'
p11
sS'phone_A'
p12
S'xxdbe41d01a113191e3537c4487c15f3f8'
p13
sS'user_agent'
p14
S'Mozilla/5.0 (Linux; Android 5.1; Bird D08 Build/LMY47D) AppleWebKit/537.36 (KHTML, like Gecko) Version/4.0 Chrome/37.0.0.0 Mobile MQQBrowser/6.8 TBS/036849 Safari/537.36 MicroMessenger/6.3.27.880 NetType/WIFI Language/zh_CN'
p15
sS'ua'
p16
S'b0c6072278c01f1242509c299f65e61f'
p17
sa(dp18
g2
S'39581'
p19
sg4
S'3390'
p20
sg6
S'5b48c78089c6f21a864d9e71cbaf0c9d'
p21
sg8
S'xxe2fc1acff3f746c185d576ddaf5382de'
p22
sg10
S'xx0cd7a6f2e85b8e05fb014b9b634a62b4'
p23
sg12
S'xxdbe41d01a113191e3537c4487c15f3f8'
p24
sg14
S'Mozilla/5.0 (Linux; Android 5.1; Bird D08 Build/LMY47D) AppleWebKit/537.36 (KHTML, like Gecko) Version/4.0 Chrome/37.0.0.0 Mobile MQQBrowser/6.8 TBS/036849 Safari/537.36 MicroMessenger/6.3.27.880 NetType/WIFI Language/zh_CN'
p25
sg16
S'b0c6072278c01f1242509c299f65e61f'
p26
sa(dp27
g2
S'39581'
p28
sg4
S'4226'
p29
sg6
S'164328963c0ea571f2ffd2b6a57a33ce'
p30
sg8
S'xxe2fc1acff3f746c185d576ddaf5382de'
p31
sg10
S'xx0cd7a6f2e85b8e05fb014b9b634a62b4'
p32
sg12
S'xxdbe41d01a113191e3537c4487c15f3f8'
p33
sg14
S'Mozilla/5.0 (Linux; Android 5.1; Bird D08 Build/LMY47D) AppleWebKit/537.36 (KHTML, like Gecko) Version/4.0 Chrome/37.0.0.0 Mobile MQQBrowser/6.8 TBS/036849 Safari/537.36 MicroMessenger/6.3.27.880 NetType/WIFI Language/zh_CN'
p34
sg16
S'b0c6072278c01f1242509c299f65e61f'
p35
sa(dp36
g2
S'39581'
p37
sg4
S'4250'
p38
sg6
S'164328963c0ea571f2ffd2b6a57a33ce'
p39
sg8
S'xxe2fc1acff3f746c185d576ddaf5382de'
p40
sg10
S'xx0cd7a6f2e85b8e05fb014b9b634a62b4'
p41
sg12
S'xxdbe41d01a113191e3537c4487c15f3f8'
p42
sg14
S'Mozilla/5.0 (Linux; Android 5.1; Bird D08 Build/LMY47D) AppleWebKit/537.36 (KHTML, like Gecko) Version/4.0 Chrome/37.0.0.0 Mobile MQQBrowser/6.8 TBS/036849 Safari/537.36 MicroMessenger/6.3.27.880 NetType/WIFI Language/zh_CN'
p43
sg16
S'b0c6072278c01f1242509c299f65e61f'
p44
sa(dp45
g2
S'39581'
p46
sg4
S'4273'
p47
sg6
S'164328963c0ea571f2ffd2b6a57a33ce'
p48
sg8
S'xxe2fc1acff3f746c185d576ddaf5382de'
p49
sg10
S'xx0cd7a6f2e85b8e05fb014b9b634a62b4'
p50
sg12
S'xxdbe41d01a113191e3537c4487c15f3f8'
p51
sg14
S'Mozilla/5.0 (Linux; Android 5.1; Bird D08 Build/LMY47D) AppleWebKit/537.36 (KHTML, like Gecko) Version/4.0 Chrome/37.0.0.0 Mobile MQQBrowser/6.8 TBS/036849 Safari/537.36 MicroMessenger/6.3.27.880 NetType/WIFI Language/zh_CN'
p52
sg16
S'b0c6072278c01f1242509c299f65e61f'
p53
sa(dp54
g2
S'39581'
p55
sg4
S'5776'
p56
sg6
S'164328963c0ea571f2ffd2b6a57a33ce'
p57
sg8
S'xxe2fc1acff3f746c185d576ddaf5382de'
p58
sg10
S'xx0cd7a6f2e85b8e05fb014b9b634a62b4'
p59
sg12
S'xxdbe41d01a113191e3537c4487c15f3f8'
p60
sg14
S'Mozilla/5.0 (Linux; Android 5.1; Bird D08 Build/LMY47D) AppleWebKit/537.36 (KHTML, like Gecko) Version/4.0 Chrome/37.0.0.0 Mobile MQQBrowser/6.8 TBS/036849 Safari/537.36 MicroMessenger/6.3.27.880 NetType/WIFI Language/zh_CN'
p61
sg16
S'b0c6072278c01f1242509c299f65e61f'
p62
sa(dp63
g2
S'39581'
p64
sg4
S'5794'
p65
sg6
S'164328963c0ea571f2ffd2b6a57a33ce'
p66
sg8
S'xxe2fc1acff3f746c185d576ddaf5382de'
p67
sg10
S'xx0cd7a6f2e85b8e05fb014b9b634a62b4'
p68
sg12
S'xxdbe41d01a113191e3537c4487c15f3f8'
p69
sg14
S'Mozilla/5.0 (Linux; Android 5.1; Bird D08 Build/LMY47D) AppleWebKit/537.36 (KHTML, like Gecko) Version/4.0 Chrome/37.0.0.0 Mobile MQQBrowser/6.8 TBS/036849 Safari/537.36 MicroMessenger/6.3.27.880 NetType/WIFI Language/zh_CN'
p70
sg16
S'b0c6072278c01f1242509c299f65e61f'
p71
sa(dp72
g2
S'39581'
p73
sg4
S'5816'
p74
sg6
S'164328963c0ea571f2ffd2b6a57a33ce'
p75
sg8
S'xxe2fc1acff3f746c185d576ddaf5382de'
p76
sg10
S'xx0cd7a6f2e85b8e05fb014b9b634a62b4'
p77
sg12
S'xxdbe41d01a113191e3537c4487c15f3f8'
p78
sg14
S'Mozilla/5.0 (Linux; Android 5.1; Bird D08 Build/LMY47D) AppleWebKit/537.36 (KHTML, like Gecko) Version/4.0 Chrome/37.0.0.0 Mobile MQQBrowser/6.8 TBS/036849 Safari/537.36 MicroMessenger/6.3.27.880 NetType/WIFI Language/zh_CN'
p79
sg16
S'b0c6072278c01f1242509c299f65e61f'
p80
sa(dp81
g2
S'39581'
p82
sg4
S'5831'
p83
sg6
S'164328963c0ea571f2ffd2b6a57a33ce'
p84
sg8
S'xxe2fc1acff3f746c185d576ddaf5382de'
p85
sg10
S'xx0cd7a6f2e85b8e05fb014b9b634a62b4'
p86
sg12
S'xxdbe41d01a113191e3537c4487c15f3f8'
p87
sg14
S'Mozilla/5.0 (Linux; Android 5.1; Bird D08 Build/LMY47D) AppleWebKit/537.36 (KHTML, like Gecko) Version/4.0 Chrome/37.0.0.0 Mobile MQQBrowser/6.8 TBS/036849 Safari/537.36 MicroMessenger/6.3.27.880 NetType/WIFI Language/zh_CN'
p88
sg16
S'b0c6072278c01f1242509c299f65e61f'
p89
sa(dp90
g2
S'39581'
p91
sg4
S'5845'
p92
sg6
S'164328963c0ea571f2ffd2b6a57a33ce'
p93
sg8
S'xxe2fc1acff3f746c185d576ddaf5382de'
p94
sg10
S'xx0cd7a6f2e85b8e05fb014b9b634a62b4'
p95
sg12
S'xxdbe41d01a113191e3537c4487c15f3f8'
p96
sg14
S'Mozilla/5.0 (Linux; Android 5.1; Bird D08 Build/LMY47D) AppleWebKit/537.36 (KHTML, like Gecko) Version/4.0 Chrome/37.0.0.0 Mobile MQQBrowser/6.8 TBS/036849 Safari/537.36 MicroMessenger/6.3.27.880 NetType/WIFI Language/zh_CN'
p97
sg16
S'b0c6072278c01f1242509c299f65e61f'
p98
sa(dp99
g2
S'39581'
p100
sg4
S'5854'
p101
sg6
S'164328963c0ea571f2ffd2b6a57a33ce'
p102
sg8
S'xxe2fc1acff3f746c185d576ddaf5382de'
p103
sg10
S'xx0cd7a6f2e85b8e05fb014b9b634a62b4'
p104
sg12
S'xxdbe41d01a113191e3537c4487c15f3f8'
p105
sg14
S'Mozilla/5.0 (Linux; Android 5.1; Bird D08 Build/LMY47D) AppleWebKit/537.36 (KHTML, like Gecko) Version/4.0 Chrome/37.0.0.0 Mobile MQQBrowser/6.8 TBS/036849 Safari/537.36 MicroMessenger/6.3.27.880 NetType/WIFI Language/zh_CN'
p106
sg16
S'b0c6072278c01f1242509c299f65e61f'
p107
sa(dp108
g2
S'39581'
p109
sg4
S'6418'
p110
sg6
S'164328963c0ea571f2ffd2b6a57a33ce'
p111
sg8
S'xxe2fc1acff3f746c185d576ddaf5382de'
p112
sg10
S'xx0cd7a6f2e85b8e05fb014b9b634a62b4'
p113
sg12
S'xxdbe41d01a113191e3537c4487c15f3f8'
p114
sg14
S'Mozilla/5.0 (Linux; Android 5.1; Bird D08 Build/LMY47D) AppleWebKit/537.36 (KHTML, like Gecko) Version/4.0 Chrome/37.0.0.0 Mobile MQQBrowser/6.8 TBS/036849 Safari/537.36 MicroMessenger/6.3.27.880 NetType/WIFI Language/zh_CN'
p115
sg16
S'b0c6072278c01f1242509c299f65e61f'
p116
sa(dp117
g2
S'39581'
p118
sg4
S'6430'
p119
sg6
S'164328963c0ea571f2ffd2b6a57a33ce'
p120
sg8
S'xxe2fc1acff3f746c185d576ddaf5382de'
p121
sg10
S'xx0cd7a6f2e85b8e05fb014b9b634a62b4'
p122
sg12
S'xxdbe41d01a113191e3537c4487c15f3f8'
p123
sg14
S'Mozilla/5.0 (Linux; Android 5.1; Bird D08 Build/LMY47D) AppleWebKit/537.36 (KHTML, like Gecko) Version/4.0 Chrome/37.0.0.0 Mobile MQQBrowser/6.8 TBS/036849 Safari/537.36 MicroMessenger/6.3.27.880 NetType/WIFI Language/zh_CN'
p124
sg16
S'b0c6072278c01f1242509c299f65e61f'
p125
sa(dp126
g2
S'39581'
p127
sg4
S'6448'
p128
sg6
S'164328963c0ea571f2ffd2b6a57a33ce'
p129
sg8
S'xxe2fc1acff3f746c185d576ddaf5382de'
p130
sg10
S'xx0cd7a6f2e85b8e05fb014b9b634a62b4'
p131
sg12
S'xxdbe41d01a113191e3537c4487c15f3f8'
p132
sg14
S'Mozilla/5.0 (Linux; Android 5.1; Bird D08 Build/LMY47D) AppleWebKit/537.36 (KHTML, like Gecko) Version/4.0 Chrome/37.0.0.0 Mobile MQQBrowser/6.8 TBS/036849 Safari/537.36 MicroMessenger/6.3.27.880 NetType/WIFI Language/zh_CN'
p133
sg16
S'b0c6072278c01f1242509c299f65e61f'
p134
sa(dp135
g2
S'39581'
p136
sg4
S'6461'
p137
sg6
S'164328963c0ea571f2ffd2b6a57a33ce'
p138
sg8
S'xxe2fc1acff3f746c185d576ddaf5382de'
p139
sg10
S'xx0cd7a6f2e85b8e05fb014b9b634a62b4'
p140
sg12
S'xxdbe41d01a113191e3537c4487c15f3f8'
p141
sg14
S'Mozilla/5.0 (Linux; Android 5.1; Bird D08 Build/LMY47D) AppleWebKit/537.36 (KHTML, like Gecko) Version/4.0 Chrome/37.0.0.0 Mobile MQQBrowser/6.8 TBS/036849 Safari/537.36 MicroMessenger/6.3.27.880 NetType/WIFI Language/zh_CN'
p142
sg16
S'b0c6072278c01f1242509c299f65e61f'
p143
sa(dp144
g2
S'39581'
p145
sg4
S'6475'
p146
sg6
S'164328963c0ea571f2ffd2b6a57a33ce'
p147
sg8
S'xxe2fc1acff3f746c185d576ddaf5382de'
p148
sg10
S'xx0cd7a6f2e85b8e05fb014b9b634a62b4'
p149
sg12
S'xxdbe41d01a113191e3537c4487c15f3f8'
p150
sg14
S'Mozilla/5.0 (Linux; Android 5.1; Bird D08 Build/LMY47D) AppleWebKit/537.36 (KHTML, like Gecko) Version/4.0 Chrome/37.0.0.0 Mobile MQQBrowser/6.8 TBS/036849 Safari/537.36 MicroMessenger/6.3.27.880 NetType/WIFI Language/zh_CN'
p151
sg16
S'b0c6072278c01f1242509c299f65e61f'
p152
sa(dp153
g2
S'39581'
p154
sg4
S'6490'
p155
sg6
S'164328963c0ea571f2ffd2b6a57a33ce'
p156
sg8
S'xxe2fc1acff3f746c185d576ddaf5382de'
p157
sg10
S'xx0cd7a6f2e85b8e05fb014b9b634a62b4'
p158
sg12
S'xxdbe41d01a113191e3537c4487c15f3f8'
p159
sg14
S'Mozilla/5.0 (Linux; Android 5.1; Bird D08 Build/LMY47D) AppleWebKit/537.36 (KHTML, like Gecko) Version/4.0 Chrome/37.0.0.0 Mobile MQQBrowser/6.8 TBS/036849 Safari/537.36 MicroMessenger/6.3.27.880 NetType/WIFI Language/zh_CN'
p160
sg16
S'b0c6072278c01f1242509c299f65e61f'
p161
sa(dp162
g2
S'39581'
p163
sg4
S'6505'
p164
sg6
S'164328963c0ea571f2ffd2b6a57a33ce'
p165
sg8
S'xxe2fc1acff3f746c185d576ddaf5382de'
p166
sg10
S'xx0cd7a6f2e85b8e05fb014b9b634a62b4'
p167
sg12
S'xxdbe41d01a113191e3537c4487c15f3f8'
p168
sg14
S'Mozilla/5.0 (Linux; Android 5.1; Bird D08 Build/LMY47D) AppleWebKit/537.36 (KHTML, like Gecko) Version/4.0 Chrome/37.0.0.0 Mobile MQQBrowser/6.8 TBS/036849 Safari/537.36 MicroMessenger/6.3.27.880 NetType/WIFI Language/zh_CN'
p169
sg16
S'b0c6072278c01f1242509c299f65e61f'
p170
sa(dp171
g2
S'39581'
p172
sg4
S'6523'
p173
sg6
S'164328963c0ea571f2ffd2b6a57a33ce'
p174
sg8
S'xxe2fc1acff3f746c185d576ddaf5382de'
p175
sg10
S'xx0cd7a6f2e85b8e05fb014b9b634a62b4'
p176
sg12
S'xxdbe41d01a113191e3537c4487c15f3f8'
p177
sg14
S'Mozilla/5.0 (Linux; Android 5.1; Bird D08 Build/LMY47D) AppleWebKit/537.36 (KHTML, like Gecko) Version/4.0 Chrome/37.0.0.0 Mobile MQQBrowser/6.8 TBS/036849 Safari/537.36 MicroMessenger/6.3.27.880 NetType/WIFI Language/zh_CN'
p178
sg16
S'b0c6072278c01f1242509c299f65e61f'
p179
sa(dp180
g2
S'39581'
p181
sg4
S'6547'
p182
sg6
S'164328963c0ea571f2ffd2b6a57a33ce'
p183
sg8
S'xxe2fc1acff3f746c185d576ddaf5382de'
p184
sg10
S'xx0cd7a6f2e85b8e05fb014b9b634a62b4'
p185
sg12
S'xxdbe41d01a113191e3537c4487c15f3f8'
p186
sg14
S'Mozilla/5.0 (Linux; Android 5.1; Bird D08 Build/LMY47D) AppleWebKit/537.36 (KHTML, like Gecko) Version/4.0 Chrome/37.0.0.0 Mobile MQQBrowser/6.8 TBS/036849 Safari/537.36 MicroMessenger/6.3.27.880 NetType/WIFI Language/zh_CN'
p187
sg16
S'b0c6072278c01f1242509c299f65e61f'
p188
sa(dp189
g2
S'39581'
p190
sg4
S'6562'
p191
sg6
S'164328963c0ea571f2ffd2b6a57a33ce'
p192
sg8
S'xxe2fc1acff3f746c185d576ddaf5382de'
p193
sg10
S'xx0cd7a6f2e85b8e05fb014b9b634a62b4'
p194
sg12
S'xxdbe41d01a113191e3537c4487c15f3f8'
p195
sg14
S'Mozilla/5.0 (Linux; Android 5.1; Bird D08 Build/LMY47D) AppleWebKit/537.36 (KHTML, like Gecko) Version/4.0 Chrome/37.0.0.0 Mobile MQQBrowser/6.8 TBS/036849 Safari/537.36 MicroMessenger/6.3.27.880 NetType/WIFI Language/zh_CN'
p196
sg16
S'b0c6072278c01f1242509c299f65e61f'
p197
sa(dp198
g2
S'39581'
p199
sg4
S'6581'
p200
sg6
S'164328963c0ea571f2ffd2b6a57a33ce'
p201
sg8
S'xxe2fc1acff3f746c185d576ddaf5382de'
p202
sg10
S'xx0cd7a6f2e85b8e05fb014b9b634a62b4'
p203
sg12
S'xxdbe41d01a113191e3537c4487c15f3f8'
p204
sg14
S'Mozilla/5.0 (Linux; Android 5.1; Bird D08 Build/LMY47D) AppleWebKit/537.36 (KHTML, like Gecko) Version/4.0 Chrome/37.0.0.0 Mobile MQQBrowser/6.8 TBS/036849 Safari/537.36 MicroMessenger/6.3.27.880 NetType/WIFI Language/zh_CN'
p205
sg16
S'b0c6072278c01f1242509c299f65e61f'
p206
sa(dp207
g2
S'39581'
p208
sg4
S'6598'
p209
sg6
S'164328963c0ea571f2ffd2b6a57a33ce'
p210
sg8
S'xxe2fc1acff3f746c185d576ddaf5382de'
p211
sg10
S'xx0cd7a6f2e85b8e05fb014b9b634a62b4'
p212
sg12
S'xxdbe41d01a113191e3537c4487c15f3f8'
p213
sg14
S'Mozilla/5.0 (Linux; Android 5.1; Bird D08 Build/LMY47D) AppleWebKit/537.36 (KHTML, like Gecko) Version/4.0 Chrome/37.0.0.0 Mobile MQQBrowser/6.8 TBS/036849 Safari/537.36 MicroMessenger/6.3.27.880 NetType/WIFI Language/zh_CN'
p214
sg16
S'b0c6072278c01f1242509c299f65e61f'
p215
sa(dp216
g2
S'39581'
p217
sg4
S'6612'
p218
sg6
S'164328963c0ea571f2ffd2b6a57a33ce'
p219
sg8
S'xxe2fc1acff3f746c185d576ddaf5382de'
p220
sg10
S'xx0cd7a6f2e85b8e05fb014b9b634a62b4'
p221
sg12
S'xxdbe41d01a113191e3537c4487c15f3f8'
p222
sg14
S'Mozilla/5.0 (Linux; Android 5.1; Bird D08 Build/LMY47D) AppleWebKit/537.36 (KHTML, like Gecko) Version/4.0 Chrome/37.0.0.0 Mobile MQQBrowser/6.8 TBS/036849 Safari/537.36 MicroMessenger/6.3.27.880 NetType/WIFI Language/zh_CN'
p223
sg16
S'b0c6072278c01f1242509c299f65e61f'
p224
sa(dp225
g2
S'39581'
p226
sg4
S'6628'
p227
sg6
S'164328963c0ea571f2ffd2b6a57a33ce'
p228
sg8
S'xxe2fc1acff3f746c185d576ddaf5382de'
p229
sg10
S'xx0cd7a6f2e85b8e05fb014b9b634a62b4'
p230
sg12
S'xxdbe41d01a113191e3537c4487c15f3f8'
p231
sg14
S'Mozilla/5.0 (Linux; Android 5.1; Bird D08 Build/LMY47D) AppleWebKit/537.36 (KHTML, like Gecko) Version/4.0 Chrome/37.0.0.0 Mobile MQQBrowser/6.8 TBS/036849 Safari/537.36 MicroMessenger/6.3.27.880 NetType/WIFI Language/zh_CN'
p232
sg16
S'b0c6072278c01f1242509c299f65e61f'
p233
sa(dp234
g2
S'39581'
p235
sg4
S'6649'
p236
sg6
S'164328963c0ea571f2ffd2b6a57a33ce'
p237
sg8
S'xxe2fc1acff3f746c185d576ddaf5382de'
p238
sg10
S'xx0cd7a6f2e85b8e05fb014b9b634a62b4'
p239
sg12
S'xxdbe41d01a113191e3537c4487c15f3f8'
p240
sg14
S'Mozilla/5.0 (Linux; Android 5.1; Bird D08 Build/LMY47D) AppleWebKit/537.36 (KHTML, like Gecko) Version/4.0 Chrome/37.0.0.0 Mobile MQQBrowser/6.8 TBS/036849 Safari/537.36 MicroMessenger/6.3.27.880 NetType/WIFI Language/zh_CN'
p241
sg16
S'b0c6072278c01f1242509c299f65e61f'
p242
sa(dp243
g2
S'39581'
p244
sg4
S'6670'
p245
sg6
S'164328963c0ea571f2ffd2b6a57a33ce'
p246
sg8
S'xxe2fc1acff3f746c185d576ddaf5382de'
p247
sg10
S'xx0cd7a6f2e85b8e05fb014b9b634a62b4'
p248
sg12
S'xxdbe41d01a113191e3537c4487c15f3f8'
p249
sg14
S'Mozilla/5.0 (Linux; Android 5.1; Bird D08 Build/LMY47D) AppleWebKit/537.36 (KHTML, like Gecko) Version/4.0 Chrome/37.0.0.0 Mobile MQQBrowser/6.8 TBS/036849 Safari/537.36 MicroMessenger/6.3.27.880 NetType/WIFI Language/zh_CN'
p250
sg16
S'b0c6072278c01f1242509c299f65e61f'
p251
sa(dp252
g2
S'39581'
p253
sg4
S'6690'
p254
sg6
S'164328963c0ea571f2ffd2b6a57a33ce'
p255
sg8
S'xxe2fc1acff3f746c185d576ddaf5382de'
p256
sg10
S'xx0cd7a6f2e85b8e05fb014b9b634a62b4'
p257
sg12
S'xxdbe41d01a113191e3537c4487c15f3f8'
p258
sg14
S'Mozilla/5.0 (Linux; Android 5.1; Bird D08 Build/LMY47D) AppleWebKit/537.36 (KHTML, like Gecko) Version/4.0 Chrome/37.0.0.0 Mobile MQQBrowser/6.8 TBS/036849 Safari/537.36 MicroMessenger/6.3.27.880 NetType/WIFI Language/zh_CN'
p259
sg16
S'b0c6072278c01f1242509c299f65e61f'
p260
sa(dp261
g2
S'39581'
p262
sg4
S'6711'
p263
sg6
S'164328963c0ea571f2ffd2b6a57a33ce'
p264
sg8
S'xxe2fc1acff3f746c185d576ddaf5382de'
p265
sg10
S'xx0cd7a6f2e85b8e05fb014b9b634a62b4'
p266
sg12
S'xxdbe41d01a113191e3537c4487c15f3f8'
p267
sg14
S'Mozilla/5.0 (Linux; Android 5.1; Bird D08 Build/LMY47D) AppleWebKit/537.36 (KHTML, like Gecko) Version/4.0 Chrome/37.0.0.0 Mobile MQQBrowser/6.8 TBS/036849 Safari/537.36 MicroMessenger/6.3.27.880 NetType/WIFI Language/zh_CN'
p268
sg16
S'b0c6072278c01f1242509c299f65e61f'
p269
sa(dp270
g2
S'39581'
p271
sg4
S'6728'
p272
sg6
S'164328963c0ea571f2ffd2b6a57a33ce'
p273
sg8
S'xxe2fc1acff3f746c185d576ddaf5382de'
p274
sg10
S'xx0cd7a6f2e85b8e05fb014b9b634a62b4'
p275
sg12
S'xxdbe41d01a113191e3537c4487c15f3f8'
p276
sg14
S'Mozilla/5.0 (Linux; Android 5.1; Bird D08 Build/LMY47D) AppleWebKit/537.36 (KHTML, like Gecko) Version/4.0 Chrome/37.0.0.0 Mobile MQQBrowser/6.8 TBS/036849 Safari/537.36 MicroMessenger/6.3.27.880 NetType/WIFI Language/zh_CN'
p277
sg16
S'b0c6072278c01f1242509c299f65e61f'
p278
sa(dp279
g2
S'39581'
p280
sg4
S'6743'
p281
sg6
S'164328963c0ea571f2ffd2b6a57a33ce'
p282
sg8
S'xxe2fc1acff3f746c185d576ddaf5382de'
p283
sg10
S'xx0cd7a6f2e85b8e05fb014b9b634a62b4'
p284
sg12
S'xxdbe41d01a113191e3537c4487c15f3f8'
p285
sg14
S'Mozilla/5.0 (Linux; Android 5.1; Bird D08 Build/LMY47D) AppleWebKit/537.36 (KHTML, like Gecko) Version/4.0 Chrome/37.0.0.0 Mobile MQQBrowser/6.8 TBS/036849 Safari/537.36 MicroMessenger/6.3.27.880 NetType/WIFI Language/zh_CN'
p286
sg16
S'b0c6072278c01f1242509c299f65e61f'
p287
sa(dp288
g2
S'39581'
p289
sg4
S'6760'
p290
sg6
S'164328963c0ea571f2ffd2b6a57a33ce'
p291
sg8
S'xxe2fc1acff3f746c185d576ddaf5382de'
p292
sg10
S'xx0cd7a6f2e85b8e05fb014b9b634a62b4'
p293
sg12
S'xxdbe41d01a113191e3537c4487c15f3f8'
p294
sg14
S'Mozilla/5.0 (Linux; Android 5.1; Bird D08 Build/LMY47D) AppleWebKit/537.36 (KHTML, like Gecko) Version/4.0 Chrome/37.0.0.0 Mobile MQQBrowser/6.8 TBS/036849 Safari/537.36 MicroMessenger/6.3.27.880 NetType/WIFI Language/zh_CN'
p295
sg16
S'b0c6072278c01f1242509c299f65e61f'
p296
sa(dp297
g2
S'39581'
p298
sg4
S'6778'
p299
sg6
S'164328963c0ea571f2ffd2b6a57a33ce'
p300
sg8
S'xxe2fc1acff3f746c185d576ddaf5382de'
p301
sg10
S'xx0cd7a6f2e85b8e05fb014b9b634a62b4'
p302
sg12
S'xxdbe41d01a113191e3537c4487c15f3f8'
p303
sg14
S'Mozilla/5.0 (Linux; Android 5.1; Bird D08 Build/LMY47D) AppleWebKit/537.36 (KHTML, like Gecko) Version/4.0 Chrome/37.0.0.0 Mobile MQQBrowser/6.8 TBS/036849 Safari/537.36 MicroMessenger/6.3.27.880 NetType/WIFI Language/zh_CN'
p304
sg16
S'b0c6072278c01f1242509c299f65e61f'
p305
sa(dp306
g2
S'39581'
p307
sg4
S'6796'
p308
sg6
S'164328963c0ea571f2ffd2b6a57a33ce'
p309
sg8
S'xxe2fc1acff3f746c185d576ddaf5382de'
p310
sg10
S'xx0cd7a6f2e85b8e05fb014b9b634a62b4'
p311
sg12
S'xxdbe41d01a113191e3537c4487c15f3f8'
p312
sg14
S'Mozilla/5.0 (Linux; Android 5.1; Bird D08 Build/LMY47D) AppleWebKit/537.36 (KHTML, like Gecko) Version/4.0 Chrome/37.0.0.0 Mobile MQQBrowser/6.8 TBS/036849 Safari/537.36 MicroMessenger/6.3.27.880 NetType/WIFI Language/zh_CN'
p313
sg16
S'b0c6072278c01f1242509c299f65e61f'
p314
sa.