(lp0
(dp1
S'user_id'
p2
S'4683'
p3
sS'data_id'
p4
S'1011'
p5
sS'ip'
p6
S'533b45ae3853088ffa0a5d1b2601cade'
p7
sS'phone_B'
p8
S'xxb7f1babd73c87d1e705f50738dbd68f7'
p9
sS'phone_C'
p10
S'xxe729292fc1ef6a3177a20f2a3c1846af'
p11
sS'phone_A'
p12
S'xxdb8512bee0b316adb676f901d860b68b'
p13
sS'user_agent'
p14
S'Mozilla/5.0 (Linux; Android 4.4.4; vivo Y23L Build/KTU84P) AppleWebKit/537.36 (KHTML, like Gecko) Version/4.0 Chrome/37.0.0.0 Mobile MQQBrowser/6.8 TBS/036849 Safari/537.36 MicroMessenger/6.3.27.880 NetType/WIFI Language/zh_CN'
p15
sS'ua'
p16
S'4f93a4ba22f616a9ba31991b469b1f9c'
p17
sa(dp18
g2
S'37380'
p19
sg4
S'1389'
p20
sg6
S'3bb4caaf0603dfe1f7c390525c4eedc6'
p21
sg8
S'xx223791dd5e472fc65a2ab414dffcd92a'
p22
sg10
S'xxd328304be2214906ecf8b73a7fd3448e'
p23
sg12
S'xxdb8512bee0b316adb676f901d860b68b'
p24
sg14
S'Mozilla/5.0 (Linux; Android 4.4.4; vivo Y23L Build/KTU84P) AppleWebKit/537.36 (KHTML, like Gecko) Version/4.0 Chrome/37.0.0.0 Mobile MQQBrowser/6.8 TBS/036849 Safari/537.36 MicroMessenger/6.3.25.861 NetType/WIFI Language/zh_CN'
p25
sg16
S'e0a694c97192c5e21d1387a91c9d86e9'
p26
sa(dp27
g2
S'37380'
p28
sg4
S'1407'
p29
sg6
S'3bb4caaf0603dfe1f7c390525c4eedc6'
p30
sg8
S'xx223791dd5e472fc65a2ab414dffcd92a'
p31
sg10
S'xxd328304be2214906ecf8b73a7fd3448e'
p32
sg12
S'xxdb8512bee0b316adb676f901d860b68b'
p33
sg14
S'Mozilla/5.0 (Linux; Android 4.4.4; vivo Y23L Build/KTU84P) AppleWebKit/537.36 (KHTML, like Gecko) Version/4.0 Chrome/37.0.0.0 Mobile MQQBrowser/6.8 TBS/036849 Safari/537.36 MicroMessenger/6.3.25.861 NetType/WIFI Language/zh_CN'
p34
sg16
S'e0a694c97192c5e21d1387a91c9d86e9'
p35
sa(dp36
g2
S'4683'
p37
sg4
S'1481'
p38
sg6
S'533b45ae3853088ffa0a5d1b2601cade'
p39
sg8
S'xxb7f1babd73c87d1e705f50738dbd68f7'
p40
sg10
S'xxe729292fc1ef6a3177a20f2a3c1846af'
p41
sg12
S'xxdb8512bee0b316adb676f901d860b68b'
p42
sg14
S'Mozilla/5.0 (Linux; Android 4.4.4; vivo Y23L Build/KTU84P) AppleWebKit/537.36 (KHTML, like Gecko) Version/4.0 Chrome/37.0.0.0 Mobile MQQBrowser/6.8 TBS/036849 Safari/537.36 MicroMessenger/6.3.27.880 NetType/WIFI Language/zh_CN'
p43
sg16
S'4f93a4ba22f616a9ba31991b469b1f9c'
p44
sa(dp45
g2
S'4683'
p46
sg4
S'1490'
p47
sg6
S'533b45ae3853088ffa0a5d1b2601cade'
p48
sg8
S'xxb7f1babd73c87d1e705f50738dbd68f7'
p49
sg10
S'xxe729292fc1ef6a3177a20f2a3c1846af'
p50
sg12
S'xxdb8512bee0b316adb676f901d860b68b'
p51
sg14
S'Mozilla/5.0 (Linux; Android 4.4.4; vivo Y23L Build/KTU84P) AppleWebKit/537.36 (KHTML, like Gecko) Version/4.0 Chrome/37.0.0.0 Mobile MQQBrowser/6.8 TBS/036849 Safari/537.36 MicroMessenger/6.3.27.880 NetType/WIFI Language/zh_CN'
p52
sg16
S'4f93a4ba22f616a9ba31991b469b1f9c'
p53
sa(dp54
g2
S'4683'
p55
sg4
S'1503'
p56
sg6
S'533b45ae3853088ffa0a5d1b2601cade'
p57
sg8
S'xxb7f1babd73c87d1e705f50738dbd68f7'
p58
sg10
S'xxe729292fc1ef6a3177a20f2a3c1846af'
p59
sg12
S'xxdb8512bee0b316adb676f901d860b68b'
p60
sg14
S'Mozilla/5.0 (Linux; Android 4.4.4; vivo Y23L Build/KTU84P) AppleWebKit/537.36 (KHTML, like Gecko) Version/4.0 Chrome/37.0.0.0 Mobile MQQBrowser/6.8 TBS/036849 Safari/537.36 MicroMessenger/6.3.27.880 NetType/WIFI Language/zh_CN'
p61
sg16
S'4f93a4ba22f616a9ba31991b469b1f9c'
p62
sa(dp63
g2
S'4683'
p64
sg4
S'1518'
p65
sg6
S'533b45ae3853088ffa0a5d1b2601cade'
p66
sg8
S'xxb7f1babd73c87d1e705f50738dbd68f7'
p67
sg10
S'xxe729292fc1ef6a3177a20f2a3c1846af'
p68
sg12
S'xxdb8512bee0b316adb676f901d860b68b'
p69
sg14
S'Mozilla/5.0 (Linux; Android 4.4.4; vivo Y23L Build/KTU84P) AppleWebKit/537.36 (KHTML, like Gecko) Version/4.0 Chrome/37.0.0.0 Mobile MQQBrowser/6.8 TBS/036849 Safari/537.36 MicroMessenger/6.3.27.880 NetType/WIFI Language/zh_CN'
p70
sg16
S'4f93a4ba22f616a9ba31991b469b1f9c'
p71
sa(dp72
g2
S'10551'
p73
sg4
S'1766'
p74
sg6
S'69dd8b6a003210c67f0028c2914790b3'
p75
sg8
S'xx41e3f1fe24abc412ae9588a0e80571fb'
p76
sg10
S'xxd328304be2214906ecf8b73a7fd3448e'
p77
sg12
S'xxdb8512bee0b316adb676f901d860b68b'
p78
sg14
S'Mozilla/5.0 (Linux; Android 4.4.4; vivo Y23L Build/KTU84P) AppleWebKit/537.36 (KHTML, like Gecko) Version/4.0 Chrome/37.0.0.0 Mobile MQQBrowser/6.8 TBS/036869 Safari/537.36 MicroMessenger/6.3.27.880 NetType/cmnet Language/zh_CN'
p79
sg16
S'bd57d2032a9200d7d0aa3cc48427d519'
p80
sa(dp81
g2
S'10551'
p82
sg4
S'1786'
p83
sg6
S'69dd8b6a003210c67f0028c2914790b3'
p84
sg8
S'xx41e3f1fe24abc412ae9588a0e80571fb'
p85
sg10
S'xxd328304be2214906ecf8b73a7fd3448e'
p86
sg12
S'xxdb8512bee0b316adb676f901d860b68b'
p87
sg14
S'Mozilla/5.0 (Linux; Android 4.4.4; vivo Y23L Build/KTU84P) AppleWebKit/537.36 (KHTML, like Gecko) Version/4.0 Chrome/37.0.0.0 Mobile MQQBrowser/6.8 TBS/036869 Safari/537.36 MicroMessenger/6.3.27.880 NetType/cmnet Language/zh_CN'
p88
sg16
S'bd57d2032a9200d7d0aa3cc48427d519'
p89
sa(dp90
g2
S'10551'
p91
sg4
S'1836'
p92
sg6
S'69dd8b6a003210c67f0028c2914790b3'
p93
sg8
S'xx41e3f1fe24abc412ae9588a0e80571fb'
p94
sg10
S'xxd328304be2214906ecf8b73a7fd3448e'
p95
sg12
S'xxdb8512bee0b316adb676f901d860b68b'
p96
sg14
S'Mozilla/5.0 (Linux; Android 4.4.4; vivo Y23L Build/KTU84P) AppleWebKit/537.36 (KHTML, like Gecko) Version/4.0 Chrome/37.0.0.0 Mobile MQQBrowser/6.8 TBS/036869 Safari/537.36 MicroMessenger/6.3.27.880 NetType/cmnet Language/zh_CN'
p97
sg16
S'bd57d2032a9200d7d0aa3cc48427d519'
p98
sa(dp99
g2
S'10551'
p100
sg4
S'1852'
p101
sg6
S'69dd8b6a003210c67f0028c2914790b3'
p102
sg8
S'xx41e3f1fe24abc412ae9588a0e80571fb'
p103
sg10
S'xxd328304be2214906ecf8b73a7fd3448e'
p104
sg12
S'xxdb8512bee0b316adb676f901d860b68b'
p105
sg14
S'Mozilla/5.0 (Linux; Android 4.4.4; vivo Y23L Build/KTU84P) AppleWebKit/537.36 (KHTML, like Gecko) Version/4.0 Chrome/37.0.0.0 Mobile MQQBrowser/6.8 TBS/036869 Safari/537.36 MicroMessenger/6.3.27.880 NetType/cmnet Language/zh_CN'
p106
sg16
S'bd57d2032a9200d7d0aa3cc48427d519'
p107
sa(dp108
g2
S'10551'
p109
sg4
S'1863'
p110
sg6
S'69dd8b6a003210c67f0028c2914790b3'
p111
sg8
S'xx41e3f1fe24abc412ae9588a0e80571fb'
p112
sg10
S'xxd328304be2214906ecf8b73a7fd3448e'
p113
sg12
S'xxdb8512bee0b316adb676f901d860b68b'
p114
sg14
S'Mozilla/5.0 (Linux; Android 4.4.4; vivo Y23L Build/KTU84P) AppleWebKit/537.36 (KHTML, like Gecko) Version/4.0 Chrome/37.0.0.0 Mobile MQQBrowser/6.8 TBS/036869 Safari/537.36 MicroMessenger/6.3.27.880 NetType/cmnet Language/zh_CN'
p115
sg16
S'bd57d2032a9200d7d0aa3cc48427d519'
p116
sa(dp117
g2
S'4683'
p118
sg4
S'2039'
p119
sg6
S'533b45ae3853088ffa0a5d1b2601cade'
p120
sg8
S'xxb7f1babd73c87d1e705f50738dbd68f7'
p121
sg10
S'xxe729292fc1ef6a3177a20f2a3c1846af'
p122
sg12
S'xxdb8512bee0b316adb676f901d860b68b'
p123
sg14
S'Mozilla/5.0 (Linux; Android 4.4.4; vivo Y23L Build/KTU84P) AppleWebKit/537.36 (KHTML, like Gecko) Version/4.0 Chrome/37.0.0.0 Mobile MQQBrowser/6.8 TBS/036849 Safari/537.36 MicroMessenger/6.3.27.880 NetType/WIFI Language/zh_CN'
p124
sg16
S'4f93a4ba22f616a9ba31991b469b1f9c'
p125
sa(dp126
g2
S'4683'
p127
sg4
S'2055'
p128
sg6
S'533b45ae3853088ffa0a5d1b2601cade'
p129
sg8
S'xxb7f1babd73c87d1e705f50738dbd68f7'
p130
sg10
S'xxe729292fc1ef6a3177a20f2a3c1846af'
p131
sg12
S'xxdb8512bee0b316adb676f901d860b68b'
p132
sg14
S'Mozilla/5.0 (Linux; Android 4.4.4; vivo Y23L Build/KTU84P) AppleWebKit/537.36 (KHTML, like Gecko) Version/4.0 Chrome/37.0.0.0 Mobile MQQBrowser/6.8 TBS/036849 Safari/537.36 MicroMessenger/6.3.27.880 NetType/WIFI Language/zh_CN'
p133
sg16
S'4f93a4ba22f616a9ba31991b469b1f9c'
p134
sa(dp135
g2
S'4683'
p136
sg4
S'2065'
p137
sg6
S'533b45ae3853088ffa0a5d1b2601cade'
p138
sg8
S'xxb7f1babd73c87d1e705f50738dbd68f7'
p139
sg10
S'xxe729292fc1ef6a3177a20f2a3c1846af'
p140
sg12
S'xxdb8512bee0b316adb676f901d860b68b'
p141
sg14
S'Mozilla/5.0 (Linux; Android 4.4.4; vivo Y23L Build/KTU84P) AppleWebKit/537.36 (KHTML, like Gecko) Version/4.0 Chrome/37.0.0.0 Mobile MQQBrowser/6.8 TBS/036849 Safari/537.36 MicroMessenger/6.3.27.880 NetType/WIFI Language/zh_CN'
p142
sg16
S'4f93a4ba22f616a9ba31991b469b1f9c'
p143
sa(dp144
g2
S'4683'
p145
sg4
S'2812'
p146
sg6
S'533b45ae3853088ffa0a5d1b2601cade'
p147
sg8
S'xxb7f1babd73c87d1e705f50738dbd68f7'
p148
sg10
S'xxe729292fc1ef6a3177a20f2a3c1846af'
p149
sg12
S'xxdb8512bee0b316adb676f901d860b68b'
p150
sg14
S'Mozilla/5.0 (Linux; Android 4.4.4; vivo Y23L Build/KTU84P) AppleWebKit/537.36 (KHTML, like Gecko) Version/4.0 Chrome/37.0.0.0 Mobile MQQBrowser/6.8 TBS/036849 Safari/537.36 MicroMessenger/6.3.27.880 NetType/WIFI Language/zh_CN'
p151
sg16
S'4f93a4ba22f616a9ba31991b469b1f9c'
p152
sa(dp153
g2
S'4683'
p154
sg4
S'2829'
p155
sg6
S'533b45ae3853088ffa0a5d1b2601cade'
p156
sg8
S'xxb7f1babd73c87d1e705f50738dbd68f7'
p157
sg10
S'xxe729292fc1ef6a3177a20f2a3c1846af'
p158
sg12
S'xxdb8512bee0b316adb676f901d860b68b'
p159
sg14
S'Mozilla/5.0 (Linux; Android 4.4.4; vivo Y23L Build/KTU84P) AppleWebKit/537.36 (KHTML, like Gecko) Version/4.0 Chrome/37.0.0.0 Mobile MQQBrowser/6.8 TBS/036849 Safari/537.36 MicroMessenger/6.3.27.880 NetType/WIFI Language/zh_CN'
p160
sg16
S'4f93a4ba22f616a9ba31991b469b1f9c'
p161
sa(dp162
g2
S'4564'
p163
sg4
S'2927'
p164
sg6
S'd66c95a4c1c7aa3ad1fe1162a8491ff3'
p165
sg8
S'xx223791dd5e472fc65a2ab414dffcd92a'
p166
sg10
S'xxd328304be2214906ecf8b73a7fd3448e'
p167
sg12
S'xxdb8512bee0b316adb676f901d860b68b'
p168
sg14
S'Mozilla/5.0 (Linux; Android 4.4.4; vivo Y23L Build/KTU84P) AppleWebKit/537.36 (KHTML, like Gecko) Version/4.0 Chrome/37.0.0.0 Mobile MQQBrowser/6.8 TBS/036849 Safari/537.36 MicroMessenger/6.3.25.861 NetType/WIFI Language/zh_CN'
p169
sg16
S'e0a694c97192c5e21d1387a91c9d86e9'
p170
sa(dp171
g2
S'4564'
p172
sg4
S'2947'
p173
sg6
S'd66c95a4c1c7aa3ad1fe1162a8491ff3'
p174
sg8
S'xx223791dd5e472fc65a2ab414dffcd92a'
p175
sg10
S'xxd328304be2214906ecf8b73a7fd3448e'
p176
sg12
S'xxdb8512bee0b316adb676f901d860b68b'
p177
sg14
S'Mozilla/5.0 (Linux; Android 4.4.4; vivo Y23L Build/KTU84P) AppleWebKit/537.36 (KHTML, like Gecko) Version/4.0 Chrome/37.0.0.0 Mobile MQQBrowser/6.8 TBS/036849 Safari/537.36 MicroMessenger/6.3.25.861 NetType/WIFI Language/zh_CN'
p178
sg16
S'e0a694c97192c5e21d1387a91c9d86e9'
p179
sa(dp180
g2
S'4564'
p181
sg4
S'2979'
p182
sg6
S'd66c95a4c1c7aa3ad1fe1162a8491ff3'
p183
sg8
S'xx223791dd5e472fc65a2ab414dffcd92a'
p184
sg10
S'xxd328304be2214906ecf8b73a7fd3448e'
p185
sg12
S'xxdb8512bee0b316adb676f901d860b68b'
p186
sg14
S'Mozilla/5.0 (Linux; Android 4.4.4; vivo Y23L Build/KTU84P) AppleWebKit/537.36 (KHTML, like Gecko) Version/4.0 Chrome/37.0.0.0 Mobile MQQBrowser/6.8 TBS/036849 Safari/537.36 MicroMessenger/6.3.25.861 NetType/WIFI Language/zh_CN'
p187
sg16
S'e0a694c97192c5e21d1387a91c9d86e9'
p188
sa(dp189
g2
S'4564'
p190
sg4
S'2995'
p191
sg6
S'd66c95a4c1c7aa3ad1fe1162a8491ff3'
p192
sg8
S'xx223791dd5e472fc65a2ab414dffcd92a'
p193
sg10
S'xxd328304be2214906ecf8b73a7fd3448e'
p194
sg12
S'xxdb8512bee0b316adb676f901d860b68b'
p195
sg14
S'Mozilla/5.0 (Linux; Android 4.4.4; vivo Y23L Build/KTU84P) AppleWebKit/537.36 (KHTML, like Gecko) Version/4.0 Chrome/37.0.0.0 Mobile MQQBrowser/6.8 TBS/036849 Safari/537.36 MicroMessenger/6.3.25.861 NetType/WIFI Language/zh_CN'
p196
sg16
S'e0a694c97192c5e21d1387a91c9d86e9'
p197
sa(dp198
g2
S'4564'
p199
sg4
S'3013'
p200
sg6
S'd66c95a4c1c7aa3ad1fe1162a8491ff3'
p201
sg8
S'xx223791dd5e472fc65a2ab414dffcd92a'
p202
sg10
S'xxd328304be2214906ecf8b73a7fd3448e'
p203
sg12
S'xxdb8512bee0b316adb676f901d860b68b'
p204
sg14
S'Mozilla/5.0 (Linux; Android 4.4.4; vivo Y23L Build/KTU84P) AppleWebKit/537.36 (KHTML, like Gecko) Version/4.0 Chrome/37.0.0.0 Mobile MQQBrowser/6.8 TBS/036849 Safari/537.36 MicroMessenger/6.3.25.861 NetType/WIFI Language/zh_CN'
p205
sg16
S'e0a694c97192c5e21d1387a91c9d86e9'
p206
sa(dp207
g2
S'4564'
p208
sg4
S'3058'
p209
sg6
S'd66c95a4c1c7aa3ad1fe1162a8491ff3'
p210
sg8
S'xx223791dd5e472fc65a2ab414dffcd92a'
p211
sg10
S'xxd328304be2214906ecf8b73a7fd3448e'
p212
sg12
S'xxdb8512bee0b316adb676f901d860b68b'
p213
sg14
S'Mozilla/5.0 (Linux; Android 4.4.4; vivo Y23L Build/KTU84P) AppleWebKit/537.36 (KHTML, like Gecko) Version/4.0 Chrome/37.0.0.0 Mobile MQQBrowser/6.8 TBS/036849 Safari/537.36 MicroMessenger/6.3.25.861 NetType/WIFI Language/zh_CN'
p214
sg16
S'e0a694c97192c5e21d1387a91c9d86e9'
p215
sa(dp216
g2
S'4564'
p217
sg4
S'3077'
p218
sg6
S'd66c95a4c1c7aa3ad1fe1162a8491ff3'
p219
sg8
S'xx223791dd5e472fc65a2ab414dffcd92a'
p220
sg10
S'xxd328304be2214906ecf8b73a7fd3448e'
p221
sg12
S'xxdb8512bee0b316adb676f901d860b68b'
p222
sg14
S'Mozilla/5.0 (Linux; Android 4.4.4; vivo Y23L Build/KTU84P) AppleWebKit/537.36 (KHTML, like Gecko) Version/4.0 Chrome/37.0.0.0 Mobile MQQBrowser/6.8 TBS/036849 Safari/537.36 MicroMessenger/6.3.25.861 NetType/WIFI Language/zh_CN'
p223
sg16
S'e0a694c97192c5e21d1387a91c9d86e9'
p224
sa(dp225
g2
S'4564'
p226
sg4
S'3098'
p227
sg6
S'd66c95a4c1c7aa3ad1fe1162a8491ff3'
p228
sg8
S'xx223791dd5e472fc65a2ab414dffcd92a'
p229
sg10
S'xxd328304be2214906ecf8b73a7fd3448e'
p230
sg12
S'xxdb8512bee0b316adb676f901d860b68b'
p231
sg14
S'Mozilla/5.0 (Linux; Android 4.4.4; vivo Y23L Build/KTU84P) AppleWebKit/537.36 (KHTML, like Gecko) Version/4.0 Chrome/37.0.0.0 Mobile MQQBrowser/6.8 TBS/036849 Safari/537.36 MicroMessenger/6.3.25.861 NetType/WIFI Language/zh_CN'
p232
sg16
S'e0a694c97192c5e21d1387a91c9d86e9'
p233
sa(dp234
g2
S'4564'
p235
sg4
S'3125'
p236
sg6
S'd66c95a4c1c7aa3ad1fe1162a8491ff3'
p237
sg8
S'xx223791dd5e472fc65a2ab414dffcd92a'
p238
sg10
S'xxd328304be2214906ecf8b73a7fd3448e'
p239
sg12
S'xxdb8512bee0b316adb676f901d860b68b'
p240
sg14
S'Mozilla/5.0 (Linux; Android 4.4.4; vivo Y23L Build/KTU84P) AppleWebKit/537.36 (KHTML, like Gecko) Version/4.0 Chrome/37.0.0.0 Mobile MQQBrowser/6.8 TBS/036849 Safari/537.36 MicroMessenger/6.3.25.861 NetType/WIFI Language/zh_CN'
p241
sg16
S'e0a694c97192c5e21d1387a91c9d86e9'
p242
sa(dp243
g2
S'4564'
p244
sg4
S'3143'
p245
sg6
S'd66c95a4c1c7aa3ad1fe1162a8491ff3'
p246
sg8
S'xx223791dd5e472fc65a2ab414dffcd92a'
p247
sg10
S'xxd328304be2214906ecf8b73a7fd3448e'
p248
sg12
S'xxdb8512bee0b316adb676f901d860b68b'
p249
sg14
S'Mozilla/5.0 (Linux; Android 4.4.4; vivo Y23L Build/KTU84P) AppleWebKit/537.36 (KHTML, like Gecko) Version/4.0 Chrome/37.0.0.0 Mobile MQQBrowser/6.8 TBS/036849 Safari/537.36 MicroMessenger/6.3.25.861 NetType/WIFI Language/zh_CN'
p250
sg16
S'e0a694c97192c5e21d1387a91c9d86e9'
p251
sa(dp252
g2
S'4564'
p253
sg4
S'3156'
p254
sg6
S'd66c95a4c1c7aa3ad1fe1162a8491ff3'
p255
sg8
S'xx223791dd5e472fc65a2ab414dffcd92a'
p256
sg10
S'xxd328304be2214906ecf8b73a7fd3448e'
p257
sg12
S'xxdb8512bee0b316adb676f901d860b68b'
p258
sg14
S'Mozilla/5.0 (Linux; Android 4.4.4; vivo Y23L Build/KTU84P) AppleWebKit/537.36 (KHTML, like Gecko) Version/4.0 Chrome/37.0.0.0 Mobile MQQBrowser/6.8 TBS/036849 Safari/537.36 MicroMessenger/6.3.25.861 NetType/WIFI Language/zh_CN'
p259
sg16
S'e0a694c97192c5e21d1387a91c9d86e9'
p260
sa(dp261
g2
S'4564'
p262
sg4
S'3167'
p263
sg6
S'd66c95a4c1c7aa3ad1fe1162a8491ff3'
p264
sg8
S'xx223791dd5e472fc65a2ab414dffcd92a'
p265
sg10
S'xxd328304be2214906ecf8b73a7fd3448e'
p266
sg12
S'xxdb8512bee0b316adb676f901d860b68b'
p267
sg14
S'Mozilla/5.0 (Linux; Android 4.4.4; vivo Y23L Build/KTU84P) AppleWebKit/537.36 (KHTML, like Gecko) Version/4.0 Chrome/37.0.0.0 Mobile MQQBrowser/6.8 TBS/036849 Safari/537.36 MicroMessenger/6.3.25.861 NetType/WIFI Language/zh_CN'
p268
sg16
S'e0a694c97192c5e21d1387a91c9d86e9'
p269
sa(dp270
g2
S'32449'
p271
sg4
S'3185'
p272
sg6
S'783ec5c440b55f32ca4f1c46a5126757'
p273
sg8
S'xx8ee2f39208f373bf124e7eddd61e8cde'
p274
sg10
S'xx109408be96dd6c37de78d2c106bb968f'
p275
sg12
S'xxdb8512bee0b316adb676f901d860b68b'
p276
sg14
S'Mozilla/5.0 (Linux; Android 4.4.4; vivo Y23L Build/KTU84P) AppleWebKit/537.36 (KHTML, like Gecko) Version/4.0 Chrome/37.0.0.0 Mobile MQQBrowser/6.8 TBS/036849 Safari/537.36 MicroMessenger/6.3.27.880 NetType/WIFI Language/zh_CN'
p277
sg16
S'4f93a4ba22f616a9ba31991b469b1f9c'
p278
sa(dp279
g2
S'4564'
p280
sg4
S'3197'
p281
sg6
S'd66c95a4c1c7aa3ad1fe1162a8491ff3'
p282
sg8
S'xx223791dd5e472fc65a2ab414dffcd92a'
p283
sg10
S'xxd328304be2214906ecf8b73a7fd3448e'
p284
sg12
S'xxdb8512bee0b316adb676f901d860b68b'
p285
sg14
S'Mozilla/5.0 (Linux; Android 4.4.4; vivo Y23L Build/KTU84P) AppleWebKit/537.36 (KHTML, like Gecko) Version/4.0 Chrome/37.0.0.0 Mobile MQQBrowser/6.8 TBS/036849 Safari/537.36 MicroMessenger/6.3.25.861 NetType/WIFI Language/zh_CN'
p286
sg16
S'e0a694c97192c5e21d1387a91c9d86e9'
p287
sa(dp288
g2
S'32449'
p289
sg4
S'3200'
p290
sg6
S'783ec5c440b55f32ca4f1c46a5126757'
p291
sg8
S'xx8ee2f39208f373bf124e7eddd61e8cde'
p292
sg10
S'xx109408be96dd6c37de78d2c106bb968f'
p293
sg12
S'xxdb8512bee0b316adb676f901d860b68b'
p294
sg14
S'Mozilla/5.0 (Linux; Android 4.4.4; vivo Y23L Build/KTU84P) AppleWebKit/537.36 (KHTML, like Gecko) Version/4.0 Chrome/37.0.0.0 Mobile MQQBrowser/6.8 TBS/036849 Safari/537.36 MicroMessenger/6.3.27.880 NetType/WIFI Language/zh_CN'
p295
sg16
S'4f93a4ba22f616a9ba31991b469b1f9c'
p296
sa(dp297
g2
S'4564'
p298
sg4
S'3208'
p299
sg6
S'd66c95a4c1c7aa3ad1fe1162a8491ff3'
p300
sg8
S'xx223791dd5e472fc65a2ab414dffcd92a'
p301
sg10
S'xxd328304be2214906ecf8b73a7fd3448e'
p302
sg12
S'xxdb8512bee0b316adb676f901d860b68b'
p303
sg14
S'Mozilla/5.0 (Linux; Android 4.4.4; vivo Y23L Build/KTU84P) AppleWebKit/537.36 (KHTML, like Gecko) Version/4.0 Chrome/37.0.0.0 Mobile MQQBrowser/6.8 TBS/036849 Safari/537.36 MicroMessenger/6.3.25.861 NetType/WIFI Language/zh_CN'
p304
sg16
S'e0a694c97192c5e21d1387a91c9d86e9'
p305
sa(dp306
g2
S'4564'
p307
sg4
S'3235'
p308
sg6
S'd66c95a4c1c7aa3ad1fe1162a8491ff3'
p309
sg8
S'xx223791dd5e472fc65a2ab414dffcd92a'
p310
sg10
S'xxd328304be2214906ecf8b73a7fd3448e'
p311
sg12
S'xxdb8512bee0b316adb676f901d860b68b'
p312
sg14
S'Mozilla/5.0 (Linux; Android 4.4.4; vivo Y23L Build/KTU84P) AppleWebKit/537.36 (KHTML, like Gecko) Version/4.0 Chrome/37.0.0.0 Mobile MQQBrowser/6.8 TBS/036849 Safari/537.36 MicroMessenger/6.3.25.861 NetType/WIFI Language/zh_CN'
p313
sg16
S'e0a694c97192c5e21d1387a91c9d86e9'
p314
sa(dp315
g2
S'4564'
p316
sg4
S'3250'
p317
sg6
S'd66c95a4c1c7aa3ad1fe1162a8491ff3'
p318
sg8
S'xx223791dd5e472fc65a2ab414dffcd92a'
p319
sg10
S'xxd328304be2214906ecf8b73a7fd3448e'
p320
sg12
S'xxdb8512bee0b316adb676f901d860b68b'
p321
sg14
S'Mozilla/5.0 (Linux; Android 4.4.4; vivo Y23L Build/KTU84P) AppleWebKit/537.36 (KHTML, like Gecko) Version/4.0 Chrome/37.0.0.0 Mobile MQQBrowser/6.8 TBS/036849 Safari/537.36 MicroMessenger/6.3.25.861 NetType/WIFI Language/zh_CN'
p322
sg16
S'e0a694c97192c5e21d1387a91c9d86e9'
p323
sa(dp324
g2
S'4564'
p325
sg4
S'3267'
p326
sg6
S'd66c95a4c1c7aa3ad1fe1162a8491ff3'
p327
sg8
S'xx223791dd5e472fc65a2ab414dffcd92a'
p328
sg10
S'xxd328304be2214906ecf8b73a7fd3448e'
p329
sg12
S'xxdb8512bee0b316adb676f901d860b68b'
p330
sg14
S'Mozilla/5.0 (Linux; Android 4.4.4; vivo Y23L Build/KTU84P) AppleWebKit/537.36 (KHTML, like Gecko) Version/4.0 Chrome/37.0.0.0 Mobile MQQBrowser/6.8 TBS/036849 Safari/537.36 MicroMessenger/6.3.25.861 NetType/WIFI Language/zh_CN'
p331
sg16
S'e0a694c97192c5e21d1387a91c9d86e9'
p332
sa(dp333
g2
S'4683'
p334
sg4
S'3316'
p335
sg6
S'533b45ae3853088ffa0a5d1b2601cade'
p336
sg8
S'xxb7f1babd73c87d1e705f50738dbd68f7'
p337
sg10
S'xxe729292fc1ef6a3177a20f2a3c1846af'
p338
sg12
S'xxdb8512bee0b316adb676f901d860b68b'
p339
sg14
S'Mozilla/5.0 (Linux; Android 4.4.4; vivo Y23L Build/KTU84P) AppleWebKit/537.36 (KHTML, like Gecko) Version/4.0 Chrome/37.0.0.0 Mobile MQQBrowser/6.8 TBS/036849 Safari/537.36 MicroMessenger/6.3.27.880 NetType/WIFI Language/zh_CN'
p340
sg16
S'4f93a4ba22f616a9ba31991b469b1f9c'
p341
sa(dp342
g2
S'4683'
p343
sg4
S'3335'
p344
sg6
S'533b45ae3853088ffa0a5d1b2601cade'
p345
sg8
S'xxb7f1babd73c87d1e705f50738dbd68f7'
p346
sg10
S'xxe729292fc1ef6a3177a20f2a3c1846af'
p347
sg12
S'xxdb8512bee0b316adb676f901d860b68b'
p348
sg14
S'Mozilla/5.0 (Linux; Android 4.4.4; vivo Y23L Build/KTU84P) AppleWebKit/537.36 (KHTML, like Gecko) Version/4.0 Chrome/37.0.0.0 Mobile MQQBrowser/6.8 TBS/036849 Safari/537.36 MicroMessenger/6.3.27.880 NetType/WIFI Language/zh_CN'
p349
sg16
S'4f93a4ba22f616a9ba31991b469b1f9c'
p350
sa(dp351
g2
S'4683'
p352
sg4
S'3347'
p353
sg6
S'533b45ae3853088ffa0a5d1b2601cade'
p354
sg8
S'xxb7f1babd73c87d1e705f50738dbd68f7'
p355
sg10
S'xxe729292fc1ef6a3177a20f2a3c1846af'
p356
sg12
S'xxdb8512bee0b316adb676f901d860b68b'
p357
sg14
S'Mozilla/5.0 (Linux; Android 4.4.4; vivo Y23L Build/KTU84P) AppleWebKit/537.36 (KHTML, like Gecko) Version/4.0 Chrome/37.0.0.0 Mobile MQQBrowser/6.8 TBS/036849 Safari/537.36 MicroMessenger/6.3.27.880 NetType/WIFI Language/zh_CN'
p358
sg16
S'4f93a4ba22f616a9ba31991b469b1f9c'
p359
sa(dp360
g2
S'4683'
p361
sg4
S'3365'
p362
sg6
S'533b45ae3853088ffa0a5d1b2601cade'
p363
sg8
S'xxb7f1babd73c87d1e705f50738dbd68f7'
p364
sg10
S'xxe729292fc1ef6a3177a20f2a3c1846af'
p365
sg12
S'xxdb8512bee0b316adb676f901d860b68b'
p366
sg14
S'Mozilla/5.0 (Linux; Android 4.4.4; vivo Y23L Build/KTU84P) AppleWebKit/537.36 (KHTML, like Gecko) Version/4.0 Chrome/37.0.0.0 Mobile MQQBrowser/6.8 TBS/036849 Safari/537.36 MicroMessenger/6.3.27.880 NetType/WIFI Language/zh_CN'
p367
sg16
S'4f93a4ba22f616a9ba31991b469b1f9c'
p368
sa(dp369
g2
S'47701'
p370
sg4
S'3374'
p371
sg6
S'1c8cb4e5c3acfa7834c09f8a7622eb2a'
p372
sg8
S'xx3179829a087f8074ba0e2215a510401f'
p373
sg10
S'xxd328304be2214906ecf8b73a7fd3448e'
p374
sg12
S'xxdb8512bee0b316adb676f901d860b68b'
p375
sg14
S'Mozilla/5.0 (Linux; Android 4.4.4; vivo Y23L Build/KTU84P) AppleWebKit/537.36 (KHTML, like Gecko) Version/4.0 Chrome/37.0.0.0 Mobile MQQBrowser/6.8 TBS/036849 Safari/537.36 MicroMessenger/6.3.27.880 NetType/WIFI Language/zh_CN'
p376
sg16
S'4f93a4ba22f616a9ba31991b469b1f9c'
p377
sa(dp378
g2
S'47701'
p379
sg4
S'3391'
p380
sg6
S'1c8cb4e5c3acfa7834c09f8a7622eb2a'
p381
sg8
S'xx3179829a087f8074ba0e2215a510401f'
p382
sg10
S'xxd328304be2214906ecf8b73a7fd3448e'
p383
sg12
S'xxdb8512bee0b316adb676f901d860b68b'
p384
sg14
S'Mozilla/5.0 (Linux; Android 4.4.4; vivo Y23L Build/KTU84P) AppleWebKit/537.36 (KHTML, like Gecko) Version/4.0 Chrome/37.0.0.0 Mobile MQQBrowser/6.8 TBS/036849 Safari/537.36 MicroMessenger/6.3.27.880 NetType/WIFI Language/zh_CN'
p385
sg16
S'4f93a4ba22f616a9ba31991b469b1f9c'
p386
sa(dp387
g2
S'47701'
p388
sg4
S'3407'
p389
sg6
S'1c8cb4e5c3acfa7834c09f8a7622eb2a'
p390
sg8
S'xx3179829a087f8074ba0e2215a510401f'
p391
sg10
S'xxd328304be2214906ecf8b73a7fd3448e'
p392
sg12
S'xxdb8512bee0b316adb676f901d860b68b'
p393
sg14
S'Mozilla/5.0 (Linux; Android 4.4.4; vivo Y23L Build/KTU84P) AppleWebKit/537.36 (KHTML, like Gecko) Version/4.0 Chrome/37.0.0.0 Mobile MQQBrowser/6.8 TBS/036849 Safari/537.36 MicroMessenger/6.3.27.880 NetType/WIFI Language/zh_CN'
p394
sg16
S'4f93a4ba22f616a9ba31991b469b1f9c'
p395
sa(dp396
g2
S'37962'
p397
sg4
S'3438'
p398
sg6
S'8c45aec587d8586e0964fb81b7ce4547'
p399
sg8
S'xx3179829a087f8074ba0e2215a510401f'
p400
sg10
S'xxd328304be2214906ecf8b73a7fd3448e'
p401
sg12
S'xxdb8512bee0b316adb676f901d860b68b'
p402
sg14
S'Mozilla/5.0 (Linux; Android 4.4.4; vivo Y23L Build/KTU84P) AppleWebKit/537.36 (KHTML, like Gecko) Version/4.0 Chrome/37.0.0.0 Mobile MQQBrowser/6.8 TBS/036849 Safari/537.36 MicroMessenger/6.3.27.880 NetType/WIFI Language/zh_CN'
p403
sg16
S'4f93a4ba22f616a9ba31991b469b1f9c'
p404
sa(dp405
g2
S'37962'
p406
sg4
S'3451'
p407
sg6
S'8c45aec587d8586e0964fb81b7ce4547'
p408
sg8
S'xx3179829a087f8074ba0e2215a510401f'
p409
sg10
S'xxd328304be2214906ecf8b73a7fd3448e'
p410
sg12
S'xxdb8512bee0b316adb676f901d860b68b'
p411
sg14
S'Mozilla/5.0 (Linux; Android 4.4.4; vivo Y23L Build/KTU84P) AppleWebKit/537.36 (KHTML, like Gecko) Version/4.0 Chrome/37.0.0.0 Mobile MQQBrowser/6.8 TBS/036849 Safari/537.36 MicroMessenger/6.3.27.880 NetType/WIFI Language/zh_CN'
p412
sg16
S'4f93a4ba22f616a9ba31991b469b1f9c'
p413
sa(dp414
g2
S'4564'
p415
sg4
S'3542'
p416
sg6
S'd66c95a4c1c7aa3ad1fe1162a8491ff3'
p417
sg8
S'xx223791dd5e472fc65a2ab414dffcd92a'
p418
sg10
S'xxd328304be2214906ecf8b73a7fd3448e'
p419
sg12
S'xxdb8512bee0b316adb676f901d860b68b'
p420
sg14
S'Mozilla/5.0 (Linux; Android 4.4.4; vivo Y23L Build/KTU84P) AppleWebKit/537.36 (KHTML, like Gecko) Version/4.0 Chrome/37.0.0.0 Mobile MQQBrowser/6.8 TBS/036849 Safari/537.36 MicroMessenger/6.3.25.861 NetType/WIFI Language/zh_CN'
p421
sg16
S'e0a694c97192c5e21d1387a91c9d86e9'
p422
sa(dp423
g2
S'4564'
p424
sg4
S'3558'
p425
sg6
S'd66c95a4c1c7aa3ad1fe1162a8491ff3'
p426
sg8
S'xx223791dd5e472fc65a2ab414dffcd92a'
p427
sg10
S'xxd328304be2214906ecf8b73a7fd3448e'
p428
sg12
S'xxdb8512bee0b316adb676f901d860b68b'
p429
sg14
S'Mozilla/5.0 (Linux; Android 4.4.4; vivo Y23L Build/KTU84P) AppleWebKit/537.36 (KHTML, like Gecko) Version/4.0 Chrome/37.0.0.0 Mobile MQQBrowser/6.8 TBS/036849 Safari/537.36 MicroMessenger/6.3.25.861 NetType/WIFI Language/zh_CN'
p430
sg16
S'e0a694c97192c5e21d1387a91c9d86e9'
p431
sa(dp432
g2
S'4564'
p433
sg4
S'3818'
p434
sg6
S'd66c95a4c1c7aa3ad1fe1162a8491ff3'
p435
sg8
S'xx223791dd5e472fc65a2ab414dffcd92a'
p436
sg10
S'xxd328304be2214906ecf8b73a7fd3448e'
p437
sg12
S'xxdb8512bee0b316adb676f901d860b68b'
p438
sg14
S'Mozilla/5.0 (Linux; Android 4.4.4; vivo Y23L Build/KTU84P) AppleWebKit/537.36 (KHTML, like Gecko) Version/4.0 Chrome/37.0.0.0 Mobile MQQBrowser/6.8 TBS/036849 Safari/537.36 MicroMessenger/6.3.25.861 NetType/WIFI Language/zh_CN'
p439
sg16
S'e0a694c97192c5e21d1387a91c9d86e9'
p440
sa(dp441
g2
S'4683'
p442
sg4
S'3966'
p443
sg6
S'533b45ae3853088ffa0a5d1b2601cade'
p444
sg8
S'xxb7f1babd73c87d1e705f50738dbd68f7'
p445
sg10
S'xxe729292fc1ef6a3177a20f2a3c1846af'
p446
sg12
S'xxdb8512bee0b316adb676f901d860b68b'
p447
sg14
S'Mozilla/5.0 (Linux; Android 4.4.4; vivo Y23L Build/KTU84P) AppleWebKit/537.36 (KHTML, like Gecko) Version/4.0 Chrome/37.0.0.0 Mobile MQQBrowser/6.8 TBS/036849 Safari/537.36 MicroMessenger/6.3.27.880 NetType/WIFI Language/zh_CN'
p448
sg16
S'4f93a4ba22f616a9ba31991b469b1f9c'
p449
sa(dp450
g2
S'4683'
p451
sg4
S'3981'
p452
sg6
S'533b45ae3853088ffa0a5d1b2601cade'
p453
sg8
S'xxb7f1babd73c87d1e705f50738dbd68f7'
p454
sg10
S'xxe729292fc1ef6a3177a20f2a3c1846af'
p455
sg12
S'xxdb8512bee0b316adb676f901d860b68b'
p456
sg14
S'Mozilla/5.0 (Linux; Android 4.4.4; vivo Y23L Build/KTU84P) AppleWebKit/537.36 (KHTML, like Gecko) Version/4.0 Chrome/37.0.0.0 Mobile MQQBrowser/6.8 TBS/036849 Safari/537.36 MicroMessenger/6.3.27.880 NetType/WIFI Language/zh_CN'
p457
sg16
S'4f93a4ba22f616a9ba31991b469b1f9c'
p458
sa(dp459
g2
S'4564'
p460
sg4
S'4058'
p461
sg6
S'd66c95a4c1c7aa3ad1fe1162a8491ff3'
p462
sg8
S'xx223791dd5e472fc65a2ab414dffcd92a'
p463
sg10
S'xxd328304be2214906ecf8b73a7fd3448e'
p464
sg12
S'xxdb8512bee0b316adb676f901d860b68b'
p465
sg14
S'Mozilla/5.0 (Linux; Android 4.4.4; vivo Y23L Build/KTU84P) AppleWebKit/537.36 (KHTML, like Gecko) Version/4.0 Chrome/37.0.0.0 Mobile MQQBrowser/6.8 TBS/036849 Safari/537.36 MicroMessenger/6.3.25.861 NetType/WIFI Language/zh_CN'
p466
sg16
S'e0a694c97192c5e21d1387a91c9d86e9'
p467
sa(dp468
g2
S'4564'
p469
sg4
S'4086'
p470
sg6
S'd66c95a4c1c7aa3ad1fe1162a8491ff3'
p471
sg8
S'xx223791dd5e472fc65a2ab414dffcd92a'
p472
sg10
S'xxd328304be2214906ecf8b73a7fd3448e'
p473
sg12
S'xxdb8512bee0b316adb676f901d860b68b'
p474
sg14
S'Mozilla/5.0 (Linux; Android 4.4.4; vivo Y23L Build/KTU84P) AppleWebKit/537.36 (KHTML, like Gecko) Version/4.0 Chrome/37.0.0.0 Mobile MQQBrowser/6.8 TBS/036849 Safari/537.36 MicroMessenger/6.3.25.861 NetType/WIFI Language/zh_CN'
p475
sg16
S'e0a694c97192c5e21d1387a91c9d86e9'
p476
sa(dp477
g2
S'4564'
p478
sg4
S'4102'
p479
sg6
S'd66c95a4c1c7aa3ad1fe1162a8491ff3'
p480
sg8
S'xx223791dd5e472fc65a2ab414dffcd92a'
p481
sg10
S'xxd328304be2214906ecf8b73a7fd3448e'
p482
sg12
S'xxdb8512bee0b316adb676f901d860b68b'
p483
sg14
S'Mozilla/5.0 (Linux; Android 4.4.4; vivo Y23L Build/KTU84P) AppleWebKit/537.36 (KHTML, like Gecko) Version/4.0 Chrome/37.0.0.0 Mobile MQQBrowser/6.8 TBS/036849 Safari/537.36 MicroMessenger/6.3.25.861 NetType/WIFI Language/zh_CN'
p484
sg16
S'e0a694c97192c5e21d1387a91c9d86e9'
p485
sa(dp486
g2
S'4564'
p487
sg4
S'4128'
p488
sg6
S'd66c95a4c1c7aa3ad1fe1162a8491ff3'
p489
sg8
S'xx223791dd5e472fc65a2ab414dffcd92a'
p490
sg10
S'xxd328304be2214906ecf8b73a7fd3448e'
p491
sg12
S'xxdb8512bee0b316adb676f901d860b68b'
p492
sg14
S'Mozilla/5.0 (Linux; Android 4.4.4; vivo Y23L Build/KTU84P) AppleWebKit/537.36 (KHTML, like Gecko) Version/4.0 Chrome/37.0.0.0 Mobile MQQBrowser/6.8 TBS/036849 Safari/537.36 MicroMessenger/6.3.25.861 NetType/WIFI Language/zh_CN'
p493
sg16
S'e0a694c97192c5e21d1387a91c9d86e9'
p494
sa(dp495
g2
S'4564'
p496
sg4
S'4152'
p497
sg6
S'd66c95a4c1c7aa3ad1fe1162a8491ff3'
p498
sg8
S'xx223791dd5e472fc65a2ab414dffcd92a'
p499
sg10
S'xxd328304be2214906ecf8b73a7fd3448e'
p500
sg12
S'xxdb8512bee0b316adb676f901d860b68b'
p501
sg14
S'Mozilla/5.0 (Linux; Android 4.4.4; vivo Y23L Build/KTU84P) AppleWebKit/537.36 (KHTML, like Gecko) Version/4.0 Chrome/37.0.0.0 Mobile MQQBrowser/6.8 TBS/036849 Safari/537.36 MicroMessenger/6.3.25.861 NetType/WIFI Language/zh_CN'
p502
sg16
S'e0a694c97192c5e21d1387a91c9d86e9'
p503
sa(dp504
g2
S'4564'
p505
sg4
S'4171'
p506
sg6
S'd66c95a4c1c7aa3ad1fe1162a8491ff3'
p507
sg8
S'xx223791dd5e472fc65a2ab414dffcd92a'
p508
sg10
S'xxd328304be2214906ecf8b73a7fd3448e'
p509
sg12
S'xxdb8512bee0b316adb676f901d860b68b'
p510
sg14
S'Mozilla/5.0 (Linux; Android 4.4.4; vivo Y23L Build/KTU84P) AppleWebKit/537.36 (KHTML, like Gecko) Version/4.0 Chrome/37.0.0.0 Mobile MQQBrowser/6.8 TBS/036849 Safari/537.36 MicroMessenger/6.3.25.861 NetType/WIFI Language/zh_CN'
p511
sg16
S'e0a694c97192c5e21d1387a91c9d86e9'
p512
sa(dp513
g2
S'4564'
p514
sg4
S'4470'
p515
sg6
S'd66c95a4c1c7aa3ad1fe1162a8491ff3'
p516
sg8
S'xx223791dd5e472fc65a2ab414dffcd92a'
p517
sg10
S'xxd328304be2214906ecf8b73a7fd3448e'
p518
sg12
S'xxdb8512bee0b316adb676f901d860b68b'
p519
sg14
S'Mozilla/5.0 (Linux; Android 4.4.4; vivo Y23L Build/KTU84P) AppleWebKit/537.36 (KHTML, like Gecko) Version/4.0 Chrome/37.0.0.0 Mobile MQQBrowser/6.8 TBS/036849 Safari/537.36 MicroMessenger/6.3.25.861 NetType/WIFI Language/zh_CN'
p520
sg16
S'e0a694c97192c5e21d1387a91c9d86e9'
p521
sa(dp522
g2
S'4564'
p523
sg4
S'4490'
p524
sg6
S'd66c95a4c1c7aa3ad1fe1162a8491ff3'
p525
sg8
S'xx223791dd5e472fc65a2ab414dffcd92a'
p526
sg10
S'xxd328304be2214906ecf8b73a7fd3448e'
p527
sg12
S'xxdb8512bee0b316adb676f901d860b68b'
p528
sg14
S'Mozilla/5.0 (Linux; Android 4.4.4; vivo Y23L Build/KTU84P) AppleWebKit/537.36 (KHTML, like Gecko) Version/4.0 Chrome/37.0.0.0 Mobile MQQBrowser/6.8 TBS/036849 Safari/537.36 MicroMessenger/6.3.25.861 NetType/WIFI Language/zh_CN'
p529
sg16
S'e0a694c97192c5e21d1387a91c9d86e9'
p530
sa(dp531
g2
S'4564'
p532
sg4
S'4660'
p533
sg6
S'd66c95a4c1c7aa3ad1fe1162a8491ff3'
p534
sg8
S'xx223791dd5e472fc65a2ab414dffcd92a'
p535
sg10
S'xxd328304be2214906ecf8b73a7fd3448e'
p536
sg12
S'xxdb8512bee0b316adb676f901d860b68b'
p537
sg14
S'Mozilla/5.0 (Linux; Android 4.4.4; vivo Y23L Build/KTU84P) AppleWebKit/537.36 (KHTML, like Gecko) Version/4.0 Chrome/37.0.0.0 Mobile MQQBrowser/6.8 TBS/036849 Safari/537.36 MicroMessenger/6.3.25.861 NetType/WIFI Language/zh_CN'
p538
sg16
S'e0a694c97192c5e21d1387a91c9d86e9'
p539
sa(dp540
g2
S'4564'
p541
sg4
S'4728'
p542
sg6
S'd66c95a4c1c7aa3ad1fe1162a8491ff3'
p543
sg8
S'xx223791dd5e472fc65a2ab414dffcd92a'
p544
sg10
S'xxd328304be2214906ecf8b73a7fd3448e'
p545
sg12
S'xxdb8512bee0b316adb676f901d860b68b'
p546
sg14
S'Mozilla/5.0 (Linux; Android 4.4.4; vivo Y23L Build/KTU84P) AppleWebKit/537.36 (KHTML, like Gecko) Version/4.0 Chrome/37.0.0.0 Mobile MQQBrowser/6.8 TBS/036849 Safari/537.36 MicroMessenger/6.3.25.861 NetType/WIFI Language/zh_CN'
p547
sg16
S'e0a694c97192c5e21d1387a91c9d86e9'
p548
sa(dp549
g2
S'4683'
p550
sg4
S'4737'
p551
sg6
S'533b45ae3853088ffa0a5d1b2601cade'
p552
sg8
S'xxb7f1babd73c87d1e705f50738dbd68f7'
p553
sg10
S'xxe729292fc1ef6a3177a20f2a3c1846af'
p554
sg12
S'xxdb8512bee0b316adb676f901d860b68b'
p555
sg14
S'Mozilla/5.0 (Linux; Android 4.4.4; vivo Y23L Build/KTU84P) AppleWebKit/537.36 (KHTML, like Gecko) Version/4.0 Chrome/37.0.0.0 Mobile MQQBrowser/6.8 TBS/036849 Safari/537.36 MicroMessenger/6.3.27.880 NetType/WIFI Language/zh_CN'
p556
sg16
S'4f93a4ba22f616a9ba31991b469b1f9c'
p557
sa(dp558
g2
S'4564'
p559
sg4
S'4747'
p560
sg6
S'd66c95a4c1c7aa3ad1fe1162a8491ff3'
p561
sg8
S'xx223791dd5e472fc65a2ab414dffcd92a'
p562
sg10
S'xxd328304be2214906ecf8b73a7fd3448e'
p563
sg12
S'xxdb8512bee0b316adb676f901d860b68b'
p564
sg14
S'Mozilla/5.0 (Linux; Android 4.4.4; vivo Y23L Build/KTU84P) AppleWebKit/537.36 (KHTML, like Gecko) Version/4.0 Chrome/37.0.0.0 Mobile MQQBrowser/6.8 TBS/036849 Safari/537.36 MicroMessenger/6.3.25.861 NetType/WIFI Language/zh_CN'
p565
sg16
S'e0a694c97192c5e21d1387a91c9d86e9'
p566
sa(dp567
g2
S'4564'
p568
sg4
S'4799'
p569
sg6
S'd66c95a4c1c7aa3ad1fe1162a8491ff3'
p570
sg8
S'xx223791dd5e472fc65a2ab414dffcd92a'
p571
sg10
S'xxd328304be2214906ecf8b73a7fd3448e'
p572
sg12
S'xxdb8512bee0b316adb676f901d860b68b'
p573
sg14
S'Mozilla/5.0 (Linux; Android 4.4.4; vivo Y23L Build/KTU84P) AppleWebKit/537.36 (KHTML, like Gecko) Version/4.0 Chrome/37.0.0.0 Mobile MQQBrowser/6.8 TBS/036849 Safari/537.36 MicroMessenger/6.3.25.861 NetType/WIFI Language/zh_CN'
p574
sg16
S'e0a694c97192c5e21d1387a91c9d86e9'
p575
sa(dp576
g2
S'4564'
p577
sg4
S'4898'
p578
sg6
S'd66c95a4c1c7aa3ad1fe1162a8491ff3'
p579
sg8
S'xx223791dd5e472fc65a2ab414dffcd92a'
p580
sg10
S'xxd328304be2214906ecf8b73a7fd3448e'
p581
sg12
S'xxdb8512bee0b316adb676f901d860b68b'
p582
sg14
S'Mozilla/5.0 (Linux; Android 4.4.4; vivo Y23L Build/KTU84P) AppleWebKit/537.36 (KHTML, like Gecko) Version/4.0 Chrome/37.0.0.0 Mobile MQQBrowser/6.8 TBS/036849 Safari/537.36 MicroMessenger/6.3.25.861 NetType/WIFI Language/zh_CN'
p583
sg16
S'e0a694c97192c5e21d1387a91c9d86e9'
p584
sa(dp585
g2
S'4564'
p586
sg4
S'4929'
p587
sg6
S'd66c95a4c1c7aa3ad1fe1162a8491ff3'
p588
sg8
S'xx223791dd5e472fc65a2ab414dffcd92a'
p589
sg10
S'xxd328304be2214906ecf8b73a7fd3448e'
p590
sg12
S'xxdb8512bee0b316adb676f901d860b68b'
p591
sg14
S'Mozilla/5.0 (Linux; Android 4.4.4; vivo Y23L Build/KTU84P) AppleWebKit/537.36 (KHTML, like Gecko) Version/4.0 Chrome/37.0.0.0 Mobile MQQBrowser/6.8 TBS/036849 Safari/537.36 MicroMessenger/6.3.25.861 NetType/WIFI Language/zh_CN'
p592
sg16
S'e0a694c97192c5e21d1387a91c9d86e9'
p593
sa(dp594
g2
S'4564'
p595
sg4
S'4947'
p596
sg6
S'd66c95a4c1c7aa3ad1fe1162a8491ff3'
p597
sg8
S'xx223791dd5e472fc65a2ab414dffcd92a'
p598
sg10
S'xxd328304be2214906ecf8b73a7fd3448e'
p599
sg12
S'xxdb8512bee0b316adb676f901d860b68b'
p600
sg14
S'Mozilla/5.0 (Linux; Android 4.4.4; vivo Y23L Build/KTU84P) AppleWebKit/537.36 (KHTML, like Gecko) Version/4.0 Chrome/37.0.0.0 Mobile MQQBrowser/6.8 TBS/036849 Safari/537.36 MicroMessenger/6.3.25.861 NetType/WIFI Language/zh_CN'
p601
sg16
S'e0a694c97192c5e21d1387a91c9d86e9'
p602
sa(dp603
g2
S'4564'
p604
sg4
S'4983'
p605
sg6
S'd66c95a4c1c7aa3ad1fe1162a8491ff3'
p606
sg8
S'xx223791dd5e472fc65a2ab414dffcd92a'
p607
sg10
S'xxd328304be2214906ecf8b73a7fd3448e'
p608
sg12
S'xxdb8512bee0b316adb676f901d860b68b'
p609
sg14
S'Mozilla/5.0 (Linux; Android 4.4.4; vivo Y23L Build/KTU84P) AppleWebKit/537.36 (KHTML, like Gecko) Version/4.0 Chrome/37.0.0.0 Mobile MQQBrowser/6.8 TBS/036849 Safari/537.36 MicroMessenger/6.3.25.861 NetType/WIFI Language/zh_CN'
p610
sg16
S'e0a694c97192c5e21d1387a91c9d86e9'
p611
sa(dp612
g2
S'4564'
p613
sg4
S'5012'
p614
sg6
S'd66c95a4c1c7aa3ad1fe1162a8491ff3'
p615
sg8
S'xx223791dd5e472fc65a2ab414dffcd92a'
p616
sg10
S'xxd328304be2214906ecf8b73a7fd3448e'
p617
sg12
S'xxdb8512bee0b316adb676f901d860b68b'
p618
sg14
S'Mozilla/5.0 (Linux; Android 4.4.4; vivo Y23L Build/KTU84P) AppleWebKit/537.36 (KHTML, like Gecko) Version/4.0 Chrome/37.0.0.0 Mobile MQQBrowser/6.8 TBS/036849 Safari/537.36 MicroMessenger/6.3.25.861 NetType/WIFI Language/zh_CN'
p619
sg16
S'e0a694c97192c5e21d1387a91c9d86e9'
p620
sa(dp621
g2
S'4564'
p622
sg4
S'5025'
p623
sg6
S'd66c95a4c1c7aa3ad1fe1162a8491ff3'
p624
sg8
S'xx223791dd5e472fc65a2ab414dffcd92a'
p625
sg10
S'xxd328304be2214906ecf8b73a7fd3448e'
p626
sg12
S'xxdb8512bee0b316adb676f901d860b68b'
p627
sg14
S'Mozilla/5.0 (Linux; Android 4.4.4; vivo Y23L Build/KTU84P) AppleWebKit/537.36 (KHTML, like Gecko) Version/4.0 Chrome/37.0.0.0 Mobile MQQBrowser/6.8 TBS/036849 Safari/537.36 MicroMessenger/6.3.25.861 NetType/WIFI Language/zh_CN'
p628
sg16
S'e0a694c97192c5e21d1387a91c9d86e9'
p629
sa(dp630
g2
S'22793'
p631
sg4
S'5038'
p632
sg6
S'fca8f5236f19ebce72d5785aa76f8758'
p633
sg8
S'xxa1f194cf1da20da0f6da90387a668408'
p634
sg10
S'xxd328304be2214906ecf8b73a7fd3448e'
p635
sg12
S'xxdb8512bee0b316adb676f901d860b68b'
p636
sg14
S'Mozilla/5.0 (Linux; Android 4.4.4; vivo Y23L Build/KTU84P) AppleWebKit/537.36 (KHTML, like Gecko) Version/4.0 Chrome/37.0.0.0 Mobile MQQBrowser/6.8 TBS/036824 Safari/537.36 MicroMessenger/6.3.27.880 NetType/WIFI Language/zh_CN'
p637
sg16
S'f3cc3b7628d92168bbaf04c51e4dfbed'
p638
sa(dp639
g2
S'4564'
p640
sg4
S'5050'
p641
sg6
S'd66c95a4c1c7aa3ad1fe1162a8491ff3'
p642
sg8
S'xx223791dd5e472fc65a2ab414dffcd92a'
p643
sg10
S'xxd328304be2214906ecf8b73a7fd3448e'
p644
sg12
S'xxdb8512bee0b316adb676f901d860b68b'
p645
sg14
S'Mozilla/5.0 (Linux; Android 4.4.4; vivo Y23L Build/KTU84P) AppleWebKit/537.36 (KHTML, like Gecko) Version/4.0 Chrome/37.0.0.0 Mobile MQQBrowser/6.8 TBS/036849 Safari/537.36 MicroMessenger/6.3.25.861 NetType/WIFI Language/zh_CN'
p646
sg16
S'e0a694c97192c5e21d1387a91c9d86e9'
p647
sa(dp648
g2
S'22793'
p649
sg4
S'5053'
p650
sg6
S'fca8f5236f19ebce72d5785aa76f8758'
p651
sg8
S'xxa1f194cf1da20da0f6da90387a668408'
p652
sg10
S'xxd328304be2214906ecf8b73a7fd3448e'
p653
sg12
S'xxdb8512bee0b316adb676f901d860b68b'
p654
sg14
S'Mozilla/5.0 (Linux; Android 4.4.4; vivo Y23L Build/KTU84P) AppleWebKit/537.36 (KHTML, like Gecko) Version/4.0 Chrome/37.0.0.0 Mobile MQQBrowser/6.8 TBS/036824 Safari/537.36 MicroMessenger/6.3.27.880 NetType/WIFI Language/zh_CN'
p655
sg16
S'f3cc3b7628d92168bbaf04c51e4dfbed'
p656
sa(dp657
g2
S'4564'
p658
sg4
S'5066'
p659
sg6
S'd66c95a4c1c7aa3ad1fe1162a8491ff3'
p660
sg8
S'xx223791dd5e472fc65a2ab414dffcd92a'
p661
sg10
S'xxd328304be2214906ecf8b73a7fd3448e'
p662
sg12
S'xxdb8512bee0b316adb676f901d860b68b'
p663
sg14
S'Mozilla/5.0 (Linux; Android 4.4.4; vivo Y23L Build/KTU84P) AppleWebKit/537.36 (KHTML, like Gecko) Version/4.0 Chrome/37.0.0.0 Mobile MQQBrowser/6.8 TBS/036849 Safari/537.36 MicroMessenger/6.3.25.861 NetType/WIFI Language/zh_CN'
p664
sg16
S'e0a694c97192c5e21d1387a91c9d86e9'
p665
sa(dp666
g2
S'22793'
p667
sg4
S'5106'
p668
sg6
S'fca8f5236f19ebce72d5785aa76f8758'
p669
sg8
S'xxa1f194cf1da20da0f6da90387a668408'
p670
sg10
S'xxd328304be2214906ecf8b73a7fd3448e'
p671
sg12
S'xxdb8512bee0b316adb676f901d860b68b'
p672
sg14
S'Mozilla/5.0 (Linux; Android 4.4.4; vivo Y23L Build/KTU84P) AppleWebKit/537.36 (KHTML, like Gecko) Version/4.0 Chrome/37.0.0.0 Mobile MQQBrowser/6.8 TBS/036824 Safari/537.36 MicroMessenger/6.3.27.880 NetType/WIFI Language/zh_CN'
p673
sg16
S'f3cc3b7628d92168bbaf04c51e4dfbed'
p674
sa(dp675
g2
S'22793'
p676
sg4
S'5121'
p677
sg6
S'fca8f5236f19ebce72d5785aa76f8758'
p678
sg8
S'xxa1f194cf1da20da0f6da90387a668408'
p679
sg10
S'xxd328304be2214906ecf8b73a7fd3448e'
p680
sg12
S'xxdb8512bee0b316adb676f901d860b68b'
p681
sg14
S'Mozilla/5.0 (Linux; Android 4.4.4; vivo Y23L Build/KTU84P) AppleWebKit/537.36 (KHTML, like Gecko) Version/4.0 Chrome/37.0.0.0 Mobile MQQBrowser/6.8 TBS/036824 Safari/537.36 MicroMessenger/6.3.27.880 NetType/WIFI Language/zh_CN'
p682
sg16
S'f3cc3b7628d92168bbaf04c51e4dfbed'
p683
sa(dp684
g2
S'4564'
p685
sg4
S'5255'
p686
sg6
S'd66c95a4c1c7aa3ad1fe1162a8491ff3'
p687
sg8
S'xx223791dd5e472fc65a2ab414dffcd92a'
p688
sg10
S'xxd328304be2214906ecf8b73a7fd3448e'
p689
sg12
S'xxdb8512bee0b316adb676f901d860b68b'
p690
sg14
S'Mozilla/5.0 (Linux; Android 4.4.4; vivo Y23L Build/KTU84P) AppleWebKit/537.36 (KHTML, like Gecko) Version/4.0 Chrome/37.0.0.0 Mobile MQQBrowser/6.8 TBS/036849 Safari/537.36 MicroMessenger/6.3.25.861 NetType/WIFI Language/zh_CN'
p691
sg16
S'e0a694c97192c5e21d1387a91c9d86e9'
p692
sa(dp693
g2
S'4564'
p694
sg4
S'5271'
p695
sg6
S'd66c95a4c1c7aa3ad1fe1162a8491ff3'
p696
sg8
S'xx223791dd5e472fc65a2ab414dffcd92a'
p697
sg10
S'xxd328304be2214906ecf8b73a7fd3448e'
p698
sg12
S'xxdb8512bee0b316adb676f901d860b68b'
p699
sg14
S'Mozilla/5.0 (Linux; Android 4.4.4; vivo Y23L Build/KTU84P) AppleWebKit/537.36 (KHTML, like Gecko) Version/4.0 Chrome/37.0.0.0 Mobile MQQBrowser/6.8 TBS/036849 Safari/537.36 MicroMessenger/6.3.25.861 NetType/WIFI Language/zh_CN'
p700
sg16
S'e0a694c97192c5e21d1387a91c9d86e9'
p701
sa(dp702
g2
S'44863'
p703
sg4
S'5294'
p704
sg6
S'f9606c75bebb2df48a0530df4de30735'
p705
sg8
S'xxe05e6cbfca79ce044094c4e82e7d88fb'
p706
sg10
S'xxd328304be2214906ecf8b73a7fd3448e'
p707
sg12
S'xxdb8512bee0b316adb676f901d860b68b'
p708
sg14
S'Mozilla/5.0 (Linux; Android 4.4.4; vivo Y23L Build/KTU84P) AppleWebKit/537.36 (KHTML, like Gecko) Version/4.0 Chrome/37.0.0.0 Mobile MQQBrowser/6.8 TBS/036849 Safari/537.36 MicroMessenger/6.3.27.880 NetType/cmnet Language/zh_CN'
p709
sg16
S'cb7bb9f9a0d21f461c12388f951ffa08'
p710
sa(dp711
g2
S'44863'
p712
sg4
S'5309'
p713
sg6
S'f9606c75bebb2df48a0530df4de30735'
p714
sg8
S'xxe05e6cbfca79ce044094c4e82e7d88fb'
p715
sg10
S'xxd328304be2214906ecf8b73a7fd3448e'
p716
sg12
S'xxdb8512bee0b316adb676f901d860b68b'
p717
sg14
S'Mozilla/5.0 (Linux; Android 4.4.4; vivo Y23L Build/KTU84P) AppleWebKit/537.36 (KHTML, like Gecko) Version/4.0 Chrome/37.0.0.0 Mobile MQQBrowser/6.8 TBS/036849 Safari/537.36 MicroMessenger/6.3.27.880 NetType/cmnet Language/zh_CN'
p718
sg16
S'cb7bb9f9a0d21f461c12388f951ffa08'
p719
sa(dp720
g2
S'4564'
p721
sg4
S'5339'
p722
sg6
S'd66c95a4c1c7aa3ad1fe1162a8491ff3'
p723
sg8
S'xx223791dd5e472fc65a2ab414dffcd92a'
p724
sg10
S'xxd328304be2214906ecf8b73a7fd3448e'
p725
sg12
S'xxdb8512bee0b316adb676f901d860b68b'
p726
sg14
S'Mozilla/5.0 (Linux; Android 4.4.4; vivo Y23L Build/KTU84P) AppleWebKit/537.36 (KHTML, like Gecko) Version/4.0 Chrome/37.0.0.0 Mobile MQQBrowser/6.8 TBS/036849 Safari/537.36 MicroMessenger/6.3.25.861 NetType/WIFI Language/zh_CN'
p727
sg16
S'e0a694c97192c5e21d1387a91c9d86e9'
p728
sa(dp729
g2
S'4564'
p730
sg4
S'5406'
p731
sg6
S'd66c95a4c1c7aa3ad1fe1162a8491ff3'
p732
sg8
S'xx223791dd5e472fc65a2ab414dffcd92a'
p733
sg10
S'xxd328304be2214906ecf8b73a7fd3448e'
p734
sg12
S'xxdb8512bee0b316adb676f901d860b68b'
p735
sg14
S'Mozilla/5.0 (Linux; Android 4.4.4; vivo Y23L Build/KTU84P) AppleWebKit/537.36 (KHTML, like Gecko) Version/4.0 Chrome/37.0.0.0 Mobile MQQBrowser/6.8 TBS/036849 Safari/537.36 MicroMessenger/6.3.25.861 NetType/WIFI Language/zh_CN'
p736
sg16
S'e0a694c97192c5e21d1387a91c9d86e9'
p737
sa(dp738
g2
S'4564'
p739
sg4
S'5515'
p740
sg6
S'd66c95a4c1c7aa3ad1fe1162a8491ff3'
p741
sg8
S'xx223791dd5e472fc65a2ab414dffcd92a'
p742
sg10
S'xxd328304be2214906ecf8b73a7fd3448e'
p743
sg12
S'xxdb8512bee0b316adb676f901d860b68b'
p744
sg14
S'Mozilla/5.0 (Linux; Android 4.4.4; vivo Y23L Build/KTU84P) AppleWebKit/537.36 (KHTML, like Gecko) Version/4.0 Chrome/37.0.0.0 Mobile MQQBrowser/6.8 TBS/036849 Safari/537.36 MicroMessenger/6.3.25.861 NetType/WIFI Language/zh_CN'
p745
sg16
S'e0a694c97192c5e21d1387a91c9d86e9'
p746
sa(dp747
g2
S'4564'
p748
sg4
S'5528'
p749
sg6
S'd66c95a4c1c7aa3ad1fe1162a8491ff3'
p750
sg8
S'xx223791dd5e472fc65a2ab414dffcd92a'
p751
sg10
S'xxd328304be2214906ecf8b73a7fd3448e'
p752
sg12
S'xxdb8512bee0b316adb676f901d860b68b'
p753
sg14
S'Mozilla/5.0 (Linux; Android 4.4.4; vivo Y23L Build/KTU84P) AppleWebKit/537.36 (KHTML, like Gecko) Version/4.0 Chrome/37.0.0.0 Mobile MQQBrowser/6.8 TBS/036849 Safari/537.36 MicroMessenger/6.3.25.861 NetType/WIFI Language/zh_CN'
p754
sg16
S'e0a694c97192c5e21d1387a91c9d86e9'
p755
sa(dp756
g2
S'4564'
p757
sg4
S'5628'
p758
sg6
S'd66c95a4c1c7aa3ad1fe1162a8491ff3'
p759
sg8
S'xx223791dd5e472fc65a2ab414dffcd92a'
p760
sg10
S'xxd328304be2214906ecf8b73a7fd3448e'
p761
sg12
S'xxdb8512bee0b316adb676f901d860b68b'
p762
sg14
S'Mozilla/5.0 (Linux; Android 4.4.4; vivo Y23L Build/KTU84P) AppleWebKit/537.36 (KHTML, like Gecko) Version/4.0 Chrome/37.0.0.0 Mobile MQQBrowser/6.8 TBS/036849 Safari/537.36 MicroMessenger/6.3.25.861 NetType/WIFI Language/zh_CN'
p763
sg16
S'e0a694c97192c5e21d1387a91c9d86e9'
p764
sa(dp765
g2
S'4564'
p766
sg4
S'5643'
p767
sg6
S'd66c95a4c1c7aa3ad1fe1162a8491ff3'
p768
sg8
S'xx223791dd5e472fc65a2ab414dffcd92a'
p769
sg10
S'xxd328304be2214906ecf8b73a7fd3448e'
p770
sg12
S'xxdb8512bee0b316adb676f901d860b68b'
p771
sg14
S'Mozilla/5.0 (Linux; Android 4.4.4; vivo Y23L Build/KTU84P) AppleWebKit/537.36 (KHTML, like Gecko) Version/4.0 Chrome/37.0.0.0 Mobile MQQBrowser/6.8 TBS/036849 Safari/537.36 MicroMessenger/6.3.25.861 NetType/WIFI Language/zh_CN'
p772
sg16
S'e0a694c97192c5e21d1387a91c9d86e9'
p773
sa(dp774
g2
S'4683'
p775
sg4
S'5733'
p776
sg6
S'533b45ae3853088ffa0a5d1b2601cade'
p777
sg8
S'xxb7f1babd73c87d1e705f50738dbd68f7'
p778
sg10
S'xxe729292fc1ef6a3177a20f2a3c1846af'
p779
sg12
S'xxdb8512bee0b316adb676f901d860b68b'
p780
sg14
S'Mozilla/5.0 (Linux; Android 4.4.4; vivo Y23L Build/KTU84P) AppleWebKit/537.36 (KHTML, like Gecko) Version/4.0 Chrome/37.0.0.0 Mobile MQQBrowser/6.8 TBS/036849 Safari/537.36 MicroMessenger/6.3.27.880 NetType/WIFI Language/zh_CN'
p781
sg16
S'4f93a4ba22f616a9ba31991b469b1f9c'
p782
sa(dp783
g2
S'4683'
p784
sg4
S'5751'
p785
sg6
S'533b45ae3853088ffa0a5d1b2601cade'
p786
sg8
S'xxb7f1babd73c87d1e705f50738dbd68f7'
p787
sg10
S'xxe729292fc1ef6a3177a20f2a3c1846af'
p788
sg12
S'xxdb8512bee0b316adb676f901d860b68b'
p789
sg14
S'Mozilla/5.0 (Linux; Android 4.4.4; vivo Y23L Build/KTU84P) AppleWebKit/537.36 (KHTML, like Gecko) Version/4.0 Chrome/37.0.0.0 Mobile MQQBrowser/6.8 TBS/036849 Safari/537.36 MicroMessenger/6.3.27.880 NetType/WIFI Language/zh_CN'
p790
sg16
S'4f93a4ba22f616a9ba31991b469b1f9c'
p791
sa(dp792
g2
S'4564'
p793
sg4
S'5829'
p794
sg6
S'd66c95a4c1c7aa3ad1fe1162a8491ff3'
p795
sg8
S'xx223791dd5e472fc65a2ab414dffcd92a'
p796
sg10
S'xxd328304be2214906ecf8b73a7fd3448e'
p797
sg12
S'xxdb8512bee0b316adb676f901d860b68b'
p798
sg14
S'Mozilla/5.0 (Linux; Android 4.4.4; vivo Y23L Build/KTU84P) AppleWebKit/537.36 (KHTML, like Gecko) Version/4.0 Chrome/37.0.0.0 Mobile MQQBrowser/6.8 TBS/036849 Safari/537.36 MicroMessenger/6.3.25.861 NetType/WIFI Language/zh_CN'
p799
sg16
S'e0a694c97192c5e21d1387a91c9d86e9'
p800
sa(dp801
g2
S'4564'
p802
sg4
S'5946'
p803
sg6
S'd66c95a4c1c7aa3ad1fe1162a8491ff3'
p804
sg8
S'xx223791dd5e472fc65a2ab414dffcd92a'
p805
sg10
S'xxd328304be2214906ecf8b73a7fd3448e'
p806
sg12
S'xxdb8512bee0b316adb676f901d860b68b'
p807
sg14
S'Mozilla/5.0 (Linux; Android 4.4.4; vivo Y23L Build/KTU84P) AppleWebKit/537.36 (KHTML, like Gecko) Version/4.0 Chrome/37.0.0.0 Mobile MQQBrowser/6.8 TBS/036849 Safari/537.36 MicroMessenger/6.3.25.861 NetType/WIFI Language/zh_CN'
p808
sg16
S'e0a694c97192c5e21d1387a91c9d86e9'
p809
sa(dp810
g2
S'4564'
p811
sg4
S'5954'
p812
sg6
S'd66c95a4c1c7aa3ad1fe1162a8491ff3'
p813
sg8
S'xx223791dd5e472fc65a2ab414dffcd92a'
p814
sg10
S'xxd328304be2214906ecf8b73a7fd3448e'
p815
sg12
S'xxdb8512bee0b316adb676f901d860b68b'
p816
sg14
S'Mozilla/5.0 (Linux; Android 4.4.4; vivo Y23L Build/KTU84P) AppleWebKit/537.36 (KHTML, like Gecko) Version/4.0 Chrome/37.0.0.0 Mobile MQQBrowser/6.8 TBS/036849 Safari/537.36 MicroMessenger/6.3.25.861 NetType/WIFI Language/zh_CN'
p817
sg16
S'e0a694c97192c5e21d1387a91c9d86e9'
p818
sa(dp819
g2
S'4564'
p820
sg4
S'5993'
p821
sg6
S'd66c95a4c1c7aa3ad1fe1162a8491ff3'
p822
sg8
S'xx223791dd5e472fc65a2ab414dffcd92a'
p823
sg10
S'xxd328304be2214906ecf8b73a7fd3448e'
p824
sg12
S'xxdb8512bee0b316adb676f901d860b68b'
p825
sg14
S'Mozilla/5.0 (Linux; Android 4.4.4; vivo Y23L Build/KTU84P) AppleWebKit/537.36 (KHTML, like Gecko) Version/4.0 Chrome/37.0.0.0 Mobile MQQBrowser/6.8 TBS/036849 Safari/537.36 MicroMessenger/6.3.25.861 NetType/WIFI Language/zh_CN'
p826
sg16
S'e0a694c97192c5e21d1387a91c9d86e9'
p827
sa(dp828
g2
S'4564'
p829
sg4
S'5999'
p830
sg6
S'd66c95a4c1c7aa3ad1fe1162a8491ff3'
p831
sg8
S'xx223791dd5e472fc65a2ab414dffcd92a'
p832
sg10
S'xxd328304be2214906ecf8b73a7fd3448e'
p833
sg12
S'xxdb8512bee0b316adb676f901d860b68b'
p834
sg14
S'Mozilla/5.0 (Linux; Android 4.4.4; vivo Y23L Build/KTU84P) AppleWebKit/537.36 (KHTML, like Gecko) Version/4.0 Chrome/37.0.0.0 Mobile MQQBrowser/6.8 TBS/036849 Safari/537.36 MicroMessenger/6.3.25.861 NetType/WIFI Language/zh_CN'
p835
sg16
S'e0a694c97192c5e21d1387a91c9d86e9'
p836
sa(dp837
g2
S'4564'
p838
sg4
S'6013'
p839
sg6
S'd66c95a4c1c7aa3ad1fe1162a8491ff3'
p840
sg8
S'xx223791dd5e472fc65a2ab414dffcd92a'
p841
sg10
S'xxd328304be2214906ecf8b73a7fd3448e'
p842
sg12
S'xxdb8512bee0b316adb676f901d860b68b'
p843
sg14
S'Mozilla/5.0 (Linux; Android 4.4.4; vivo Y23L Build/KTU84P) AppleWebKit/537.36 (KHTML, like Gecko) Version/4.0 Chrome/37.0.0.0 Mobile MQQBrowser/6.8 TBS/036849 Safari/537.36 MicroMessenger/6.3.25.861 NetType/WIFI Language/zh_CN'
p844
sg16
S'e0a694c97192c5e21d1387a91c9d86e9'
p845
sa(dp846
g2
S'37717'
p847
sg4
S'6084'
p848
sg6
S'716045ac0a643389933fb93fd735fce7'
p849
sg8
S'xx3179829a087f8074ba0e2215a510401f'
p850
sg10
S'xxd328304be2214906ecf8b73a7fd3448e'
p851
sg12
S'xxdb8512bee0b316adb676f901d860b68b'
p852
sg14
S'Mozilla/5.0 (Linux; Android 4.4.4; vivo Y23L Build/KTU84P) AppleWebKit/537.36 (KHTML, like Gecko) Version/4.0 Chrome/37.0.0.0 Mobile MQQBrowser/6.8 TBS/036849 Safari/537.36 MicroMessenger/6.3.27.880 NetType/WIFI Language/zh_CN'
p853
sg16
S'4f93a4ba22f616a9ba31991b469b1f9c'
p854
sa(dp855
g2
S'4564'
p856
sg4
S'6091'
p857
sg6
S'd66c95a4c1c7aa3ad1fe1162a8491ff3'
p858
sg8
S'xx223791dd5e472fc65a2ab414dffcd92a'
p859
sg10
S'xxd328304be2214906ecf8b73a7fd3448e'
p860
sg12
S'xxdb8512bee0b316adb676f901d860b68b'
p861
sg14
S'Mozilla/5.0 (Linux; Android 4.4.4; vivo Y23L Build/KTU84P) AppleWebKit/537.36 (KHTML, like Gecko) Version/4.0 Chrome/37.0.0.0 Mobile MQQBrowser/6.8 TBS/036849 Safari/537.36 MicroMessenger/6.3.25.861 NetType/WIFI Language/zh_CN'
p862
sg16
S'e0a694c97192c5e21d1387a91c9d86e9'
p863
sa(dp864
g2
S'37717'
p865
sg4
S'6101'
p866
sg6
S'716045ac0a643389933fb93fd735fce7'
p867
sg8
S'xx3179829a087f8074ba0e2215a510401f'
p868
sg10
S'xxd328304be2214906ecf8b73a7fd3448e'
p869
sg12
S'xxdb8512bee0b316adb676f901d860b68b'
p870
sg14
S'Mozilla/5.0 (Linux; Android 4.4.4; vivo Y23L Build/KTU84P) AppleWebKit/537.36 (KHTML, like Gecko) Version/4.0 Chrome/37.0.0.0 Mobile MQQBrowser/6.8 TBS/036849 Safari/537.36 MicroMessenger/6.3.27.880 NetType/WIFI Language/zh_CN'
p871
sg16
S'4f93a4ba22f616a9ba31991b469b1f9c'
p872
sa(dp873
g2
S'4564'
p874
sg4
S'6102'
p875
sg6
S'd66c95a4c1c7aa3ad1fe1162a8491ff3'
p876
sg8
S'xx223791dd5e472fc65a2ab414dffcd92a'
p877
sg10
S'xxd328304be2214906ecf8b73a7fd3448e'
p878
sg12
S'xxdb8512bee0b316adb676f901d860b68b'
p879
sg14
S'Mozilla/5.0 (Linux; Android 4.4.4; vivo Y23L Build/KTU84P) AppleWebKit/537.36 (KHTML, like Gecko) Version/4.0 Chrome/37.0.0.0 Mobile MQQBrowser/6.8 TBS/036849 Safari/537.36 MicroMessenger/6.3.25.861 NetType/WIFI Language/zh_CN'
p880
sg16
S'e0a694c97192c5e21d1387a91c9d86e9'
p881
sa(dp882
g2
S'26591'
p883
sg4
S'6108'
p884
sg6
S'2c8b5728456096602c53c182f946d436'
p885
sg8
S'xx03ed21b6ac7394f2f4c10b2e01b12060'
p886
sg10
S'xxd328304be2214906ecf8b73a7fd3448e'
p887
sg12
S'xxdb8512bee0b316adb676f901d860b68b'
p888
sg14
S'Mozilla/5.0 (Linux; Android 4.4.4; vivo Y23L Build/KTU84P) AppleWebKit/537.36 (KHTML, like Gecko) Version/4.0 Chrome/37.0.0.0 Mobile MQQBrowser/6.8 TBS/036849 Safari/537.36 MicroMessenger/6.3.25.861 NetType/cmnet Language/zh_CN'
p889
sg16
S'd159e863546fb666c82377f8634f3fe4'
p890
sa(dp891
g2
S'26591'
p892
sg4
S'6122'
p893
sg6
S'2c8b5728456096602c53c182f946d436'
p894
sg8
S'xx03ed21b6ac7394f2f4c10b2e01b12060'
p895
sg10
S'xxd328304be2214906ecf8b73a7fd3448e'
p896
sg12
S'xxdb8512bee0b316adb676f901d860b68b'
p897
sg14
S'Mozilla/5.0 (Linux; Android 4.4.4; vivo Y23L Build/KTU84P) AppleWebKit/537.36 (KHTML, like Gecko) Version/4.0 Chrome/37.0.0.0 Mobile MQQBrowser/6.8 TBS/036849 Safari/537.36 MicroMessenger/6.3.25.861 NetType/cmnet Language/zh_CN'
p898
sg16
S'd159e863546fb666c82377f8634f3fe4'
p899
sa(dp900
g2
S'37717'
p901
sg4
S'6133'
p902
sg6
S'716045ac0a643389933fb93fd735fce7'
p903
sg8
S'xx3179829a087f8074ba0e2215a510401f'
p904
sg10
S'xxd328304be2214906ecf8b73a7fd3448e'
p905
sg12
S'xxdb8512bee0b316adb676f901d860b68b'
p906
sg14
S'Mozilla/5.0 (Linux; Android 4.4.4; vivo Y23L Build/KTU84P) AppleWebKit/537.36 (KHTML, like Gecko) Version/4.0 Chrome/37.0.0.0 Mobile MQQBrowser/6.8 TBS/036849 Safari/537.36 MicroMessenger/6.3.27.880 NetType/WIFI Language/zh_CN'
p907
sg16
S'4f93a4ba22f616a9ba31991b469b1f9c'
p908
sa(dp909
g2
S'37717'
p910
sg4
S'6146'
p911
sg6
S'716045ac0a643389933fb93fd735fce7'
p912
sg8
S'xx3179829a087f8074ba0e2215a510401f'
p913
sg10
S'xxd328304be2214906ecf8b73a7fd3448e'
p914
sg12
S'xxdb8512bee0b316adb676f901d860b68b'
p915
sg14
S'Mozilla/5.0 (Linux; Android 4.4.4; vivo Y23L Build/KTU84P) AppleWebKit/537.36 (KHTML, like Gecko) Version/4.0 Chrome/37.0.0.0 Mobile MQQBrowser/6.8 TBS/036849 Safari/537.36 MicroMessenger/6.3.27.880 NetType/WIFI Language/zh_CN'
p916
sg16
S'4f93a4ba22f616a9ba31991b469b1f9c'
p917
sa(dp918
g2
S'26591'
p919
sg4
S'6150'
p920
sg6
S'2c8b5728456096602c53c182f946d436'
p921
sg8
S'xx03ed21b6ac7394f2f4c10b2e01b12060'
p922
sg10
S'xxd328304be2214906ecf8b73a7fd3448e'
p923
sg12
S'xxdb8512bee0b316adb676f901d860b68b'
p924
sg14
S'Mozilla/5.0 (Linux; Android 4.4.4; vivo Y23L Build/KTU84P) AppleWebKit/537.36 (KHTML, like Gecko) Version/4.0 Chrome/37.0.0.0 Mobile MQQBrowser/6.8 TBS/036849 Safari/537.36 MicroMessenger/6.3.25.861 NetType/cmnet Language/zh_CN'
p925
sg16
S'd159e863546fb666c82377f8634f3fe4'
p926
sa(dp927
g2
S'37717'
p928
sg4
S'6157'
p929
sg6
S'716045ac0a643389933fb93fd735fce7'
p930
sg8
S'xx3179829a087f8074ba0e2215a510401f'
p931
sg10
S'xxd328304be2214906ecf8b73a7fd3448e'
p932
sg12
S'xxdb8512bee0b316adb676f901d860b68b'
p933
sg14
S'Mozilla/5.0 (Linux; Android 4.4.4; vivo Y23L Build/KTU84P) AppleWebKit/537.36 (KHTML, like Gecko) Version/4.0 Chrome/37.0.0.0 Mobile MQQBrowser/6.8 TBS/036849 Safari/537.36 MicroMessenger/6.3.27.880 NetType/WIFI Language/zh_CN'
p934
sg16
S'4f93a4ba22f616a9ba31991b469b1f9c'
p935
sa(dp936
g2
S'37717'
p937
sg4
S'6167'
p938
sg6
S'716045ac0a643389933fb93fd735fce7'
p939
sg8
S'xx3179829a087f8074ba0e2215a510401f'
p940
sg10
S'xxd328304be2214906ecf8b73a7fd3448e'
p941
sg12
S'xxdb8512bee0b316adb676f901d860b68b'
p942
sg14
S'Mozilla/5.0 (Linux; Android 4.4.4; vivo Y23L Build/KTU84P) AppleWebKit/537.36 (KHTML, like Gecko) Version/4.0 Chrome/37.0.0.0 Mobile MQQBrowser/6.8 TBS/036849 Safari/537.36 MicroMessenger/6.3.27.880 NetType/WIFI Language/zh_CN'
p943
sg16
S'4f93a4ba22f616a9ba31991b469b1f9c'
p944
sa(dp945
g2
S'37717'
p946
sg4
S'6181'
p947
sg6
S'716045ac0a643389933fb93fd735fce7'
p948
sg8
S'xx3179829a087f8074ba0e2215a510401f'
p949
sg10
S'xxd328304be2214906ecf8b73a7fd3448e'
p950
sg12
S'xxdb8512bee0b316adb676f901d860b68b'
p951
sg14
S'Mozilla/5.0 (Linux; Android 4.4.4; vivo Y23L Build/KTU84P) AppleWebKit/537.36 (KHTML, like Gecko) Version/4.0 Chrome/37.0.0.0 Mobile MQQBrowser/6.8 TBS/036849 Safari/537.36 MicroMessenger/6.3.27.880 NetType/WIFI Language/zh_CN'
p952
sg16
S'4f93a4ba22f616a9ba31991b469b1f9c'
p953
sa(dp954
g2
S'37717'
p955
sg4
S'6195'
p956
sg6
S'716045ac0a643389933fb93fd735fce7'
p957
sg8
S'xx3179829a087f8074ba0e2215a510401f'
p958
sg10
S'xxd328304be2214906ecf8b73a7fd3448e'
p959
sg12
S'xxdb8512bee0b316adb676f901d860b68b'
p960
sg14
S'Mozilla/5.0 (Linux; Android 4.4.4; vivo Y23L Build/KTU84P) AppleWebKit/537.36 (KHTML, like Gecko) Version/4.0 Chrome/37.0.0.0 Mobile MQQBrowser/6.8 TBS/036849 Safari/537.36 MicroMessenger/6.3.27.880 NetType/WIFI Language/zh_CN'
p961
sg16
S'4f93a4ba22f616a9ba31991b469b1f9c'
p962
sa(dp963
g2
S'37717'
p964
sg4
S'6211'
p965
sg6
S'716045ac0a643389933fb93fd735fce7'
p966
sg8
S'xx3179829a087f8074ba0e2215a510401f'
p967
sg10
S'xxd328304be2214906ecf8b73a7fd3448e'
p968
sg12
S'xxdb8512bee0b316adb676f901d860b68b'
p969
sg14
S'Mozilla/5.0 (Linux; Android 4.4.4; vivo Y23L Build/KTU84P) AppleWebKit/537.36 (KHTML, like Gecko) Version/4.0 Chrome/37.0.0.0 Mobile MQQBrowser/6.8 TBS/036849 Safari/537.36 MicroMessenger/6.3.27.880 NetType/WIFI Language/zh_CN'
p970
sg16
S'4f93a4ba22f616a9ba31991b469b1f9c'
p971
sa(dp972
g2
S'37717'
p973
sg4
S'6225'
p974
sg6
S'716045ac0a643389933fb93fd735fce7'
p975
sg8
S'xx3179829a087f8074ba0e2215a510401f'
p976
sg10
S'xxd328304be2214906ecf8b73a7fd3448e'
p977
sg12
S'xxdb8512bee0b316adb676f901d860b68b'
p978
sg14
S'Mozilla/5.0 (Linux; Android 4.4.4; vivo Y23L Build/KTU84P) AppleWebKit/537.36 (KHTML, like Gecko) Version/4.0 Chrome/37.0.0.0 Mobile MQQBrowser/6.8 TBS/036849 Safari/537.36 MicroMessenger/6.3.27.880 NetType/WIFI Language/zh_CN'
p979
sg16
S'4f93a4ba22f616a9ba31991b469b1f9c'
p980
sa(dp981
g2
S'37717'
p982
sg4
S'6239'
p983
sg6
S'716045ac0a643389933fb93fd735fce7'
p984
sg8
S'xx3179829a087f8074ba0e2215a510401f'
p985
sg10
S'xxd328304be2214906ecf8b73a7fd3448e'
p986
sg12
S'xxdb8512bee0b316adb676f901d860b68b'
p987
sg14
S'Mozilla/5.0 (Linux; Android 4.4.4; vivo Y23L Build/KTU84P) AppleWebKit/537.36 (KHTML, like Gecko) Version/4.0 Chrome/37.0.0.0 Mobile MQQBrowser/6.8 TBS/036849 Safari/537.36 MicroMessenger/6.3.27.880 NetType/WIFI Language/zh_CN'
p988
sg16
S'4f93a4ba22f616a9ba31991b469b1f9c'
p989
sa(dp990
g2
S'37717'
p991
sg4
S'6258'
p992
sg6
S'716045ac0a643389933fb93fd735fce7'
p993
sg8
S'xx3179829a087f8074ba0e2215a510401f'
p994
sg10
S'xxd328304be2214906ecf8b73a7fd3448e'
p995
sg12
S'xxdb8512bee0b316adb676f901d860b68b'
p996
sg14
S'Mozilla/5.0 (Linux; Android 4.4.4; vivo Y23L Build/KTU84P) AppleWebKit/537.36 (KHTML, like Gecko) Version/4.0 Chrome/37.0.0.0 Mobile MQQBrowser/6.8 TBS/036849 Safari/537.36 MicroMessenger/6.3.27.880 NetType/WIFI Language/zh_CN'
p997
sg16
S'4f93a4ba22f616a9ba31991b469b1f9c'
p998
sa(dp999
g2
S'37717'
p1000
sg4
S'6408'
p1001
sg6
S'716045ac0a643389933fb93fd735fce7'
p1002
sg8
S'xx3179829a087f8074ba0e2215a510401f'
p1003
sg10
S'xxd328304be2214906ecf8b73a7fd3448e'
p1004
sg12
S'xxdb8512bee0b316adb676f901d860b68b'
p1005
sg14
S'Mozilla/5.0 (Linux; Android 4.4.4; vivo Y23L Build/KTU84P) AppleWebKit/537.36 (KHTML, like Gecko) Version/4.0 Chrome/37.0.0.0 Mobile MQQBrowser/6.8 TBS/036849 Safari/537.36 MicroMessenger/6.3.27.880 NetType/WIFI Language/zh_CN'
p1006
sg16
S'4f93a4ba22f616a9ba31991b469b1f9c'
p1007
sa(dp1008
g2
S'4564'
p1009
sg4
S'6466'
p1010
sg6
S'd66c95a4c1c7aa3ad1fe1162a8491ff3'
p1011
sg8
S'xx223791dd5e472fc65a2ab414dffcd92a'
p1012
sg10
S'xxd328304be2214906ecf8b73a7fd3448e'
p1013
sg12
S'xxdb8512bee0b316adb676f901d860b68b'
p1014
sg14
S'Mozilla/5.0 (Linux; Android 4.4.4; vivo Y23L Build/KTU84P) AppleWebKit/537.36 (KHTML, like Gecko) Version/4.0 Chrome/37.0.0.0 Mobile MQQBrowser/6.8 TBS/036849 Safari/537.36 MicroMessenger/6.3.25.861 NetType/WIFI Language/zh_CN'
p1015
sg16
S'e0a694c97192c5e21d1387a91c9d86e9'
p1016
sa(dp1017
g2
S'4564'
p1018
sg4
S'6480'
p1019
sg6
S'd66c95a4c1c7aa3ad1fe1162a8491ff3'
p1020
sg8
S'xx223791dd5e472fc65a2ab414dffcd92a'
p1021
sg10
S'xxd328304be2214906ecf8b73a7fd3448e'
p1022
sg12
S'xxdb8512bee0b316adb676f901d860b68b'
p1023
sg14
S'Mozilla/5.0 (Linux; Android 4.4.4; vivo Y23L Build/KTU84P) AppleWebKit/537.36 (KHTML, like Gecko) Version/4.0 Chrome/37.0.0.0 Mobile MQQBrowser/6.8 TBS/036849 Safari/537.36 MicroMessenger/6.3.25.861 NetType/WIFI Language/zh_CN'
p1024
sg16
S'e0a694c97192c5e21d1387a91c9d86e9'
p1025
sa(dp1026
g2
S'37717'
p1027
sg4
S'6611'
p1028
sg6
S'716045ac0a643389933fb93fd735fce7'
p1029
sg8
S'xx3179829a087f8074ba0e2215a510401f'
p1030
sg10
S'xxd328304be2214906ecf8b73a7fd3448e'
p1031
sg12
S'xxdb8512bee0b316adb676f901d860b68b'
p1032
sg14
S'Mozilla/5.0 (Linux; Android 4.4.4; vivo Y23L Build/KTU84P) AppleWebKit/537.36 (KHTML, like Gecko) Version/4.0 Chrome/37.0.0.0 Mobile MQQBrowser/6.8 TBS/036849 Safari/537.36 MicroMessenger/6.3.27.880 NetType/WIFI Language/zh_CN'
p1033
sg16
S'4f93a4ba22f616a9ba31991b469b1f9c'
p1034
sa(dp1035
g2
S'4564'
p1036
sg4
S'6632'
p1037
sg6
S'd66c95a4c1c7aa3ad1fe1162a8491ff3'
p1038
sg8
S'xx223791dd5e472fc65a2ab414dffcd92a'
p1039
sg10
S'xxd328304be2214906ecf8b73a7fd3448e'
p1040
sg12
S'xxdb8512bee0b316adb676f901d860b68b'
p1041
sg14
S'Mozilla/5.0 (Linux; Android 4.4.4; vivo Y23L Build/KTU84P) AppleWebKit/537.36 (KHTML, like Gecko) Version/4.0 Chrome/37.0.0.0 Mobile MQQBrowser/6.8 TBS/036849 Safari/537.36 MicroMessenger/6.3.25.861 NetType/WIFI Language/zh_CN'
p1042
sg16
S'e0a694c97192c5e21d1387a91c9d86e9'
p1043
sa(dp1044
g2
S'37717'
p1045
sg4
S'6651'
p1046
sg6
S'716045ac0a643389933fb93fd735fce7'
p1047
sg8
S'xx3179829a087f8074ba0e2215a510401f'
p1048
sg10
S'xxd328304be2214906ecf8b73a7fd3448e'
p1049
sg12
S'xxdb8512bee0b316adb676f901d860b68b'
p1050
sg14
S'Mozilla/5.0 (Linux; Android 4.4.4; vivo Y23L Build/KTU84P) AppleWebKit/537.36 (KHTML, like Gecko) Version/4.0 Chrome/37.0.0.0 Mobile MQQBrowser/6.8 TBS/036849 Safari/537.36 MicroMessenger/6.3.27.880 NetType/WIFI Language/zh_CN'
p1051
sg16
S'4f93a4ba22f616a9ba31991b469b1f9c'
p1052
sa(dp1053
g2
S'4564'
p1054
sg4
S'6653'
p1055
sg6
S'd66c95a4c1c7aa3ad1fe1162a8491ff3'
p1056
sg8
S'xx223791dd5e472fc65a2ab414dffcd92a'
p1057
sg10
S'xxd328304be2214906ecf8b73a7fd3448e'
p1058
sg12
S'xxdb8512bee0b316adb676f901d860b68b'
p1059
sg14
S'Mozilla/5.0 (Linux; Android 4.4.4; vivo Y23L Build/KTU84P) AppleWebKit/537.36 (KHTML, like Gecko) Version/4.0 Chrome/37.0.0.0 Mobile MQQBrowser/6.8 TBS/036849 Safari/537.36 MicroMessenger/6.3.25.861 NetType/WIFI Language/zh_CN'
p1060
sg16
S'e0a694c97192c5e21d1387a91c9d86e9'
p1061
sa(dp1062
g2
S'37717'
p1063
sg4
S'6667'
p1064
sg6
S'716045ac0a643389933fb93fd735fce7'
p1065
sg8
S'xx3179829a087f8074ba0e2215a510401f'
p1066
sg10
S'xxd328304be2214906ecf8b73a7fd3448e'
p1067
sg12
S'xxdb8512bee0b316adb676f901d860b68b'
p1068
sg14
S'Mozilla/5.0 (Linux; Android 4.4.4; vivo Y23L Build/KTU84P) AppleWebKit/537.36 (KHTML, like Gecko) Version/4.0 Chrome/37.0.0.0 Mobile MQQBrowser/6.8 TBS/036849 Safari/537.36 MicroMessenger/6.3.27.880 NetType/WIFI Language/zh_CN'
p1069
sg16
S'4f93a4ba22f616a9ba31991b469b1f9c'
p1070
sa(dp1071
g2
S'4564'
p1072
sg4
S'6669'
p1073
sg6
S'd66c95a4c1c7aa3ad1fe1162a8491ff3'
p1074
sg8
S'xx223791dd5e472fc65a2ab414dffcd92a'
p1075
sg10
S'xxd328304be2214906ecf8b73a7fd3448e'
p1076
sg12
S'xxdb8512bee0b316adb676f901d860b68b'
p1077
sg14
S'Mozilla/5.0 (Linux; Android 4.4.4; vivo Y23L Build/KTU84P) AppleWebKit/537.36 (KHTML, like Gecko) Version/4.0 Chrome/37.0.0.0 Mobile MQQBrowser/6.8 TBS/036849 Safari/537.36 MicroMessenger/6.3.25.861 NetType/WIFI Language/zh_CN'
p1078
sg16
S'e0a694c97192c5e21d1387a91c9d86e9'
p1079
sa(dp1080
g2
S'37717'
p1081
sg4
S'6685'
p1082
sg6
S'716045ac0a643389933fb93fd735fce7'
p1083
sg8
S'xx3179829a087f8074ba0e2215a510401f'
p1084
sg10
S'xxd328304be2214906ecf8b73a7fd3448e'
p1085
sg12
S'xxdb8512bee0b316adb676f901d860b68b'
p1086
sg14
S'Mozilla/5.0 (Linux; Android 4.4.4; vivo Y23L Build/KTU84P) AppleWebKit/537.36 (KHTML, like Gecko) Version/4.0 Chrome/37.0.0.0 Mobile MQQBrowser/6.8 TBS/036849 Safari/537.36 MicroMessenger/6.3.27.880 NetType/WIFI Language/zh_CN'
p1087
sg16
S'4f93a4ba22f616a9ba31991b469b1f9c'
p1088
sa(dp1089
g2
S'4564'
p1090
sg4
S'6687'
p1091
sg6
S'd66c95a4c1c7aa3ad1fe1162a8491ff3'
p1092
sg8
S'xx223791dd5e472fc65a2ab414dffcd92a'
p1093
sg10
S'xxd328304be2214906ecf8b73a7fd3448e'
p1094
sg12
S'xxdb8512bee0b316adb676f901d860b68b'
p1095
sg14
S'Mozilla/5.0 (Linux; Android 4.4.4; vivo Y23L Build/KTU84P) AppleWebKit/537.36 (KHTML, like Gecko) Version/4.0 Chrome/37.0.0.0 Mobile MQQBrowser/6.8 TBS/036849 Safari/537.36 MicroMessenger/6.3.25.861 NetType/WIFI Language/zh_CN'
p1096
sg16
S'e0a694c97192c5e21d1387a91c9d86e9'
p1097
sa(dp1098
g2
S'37717'
p1099
sg4
S'6705'
p1100
sg6
S'716045ac0a643389933fb93fd735fce7'
p1101
sg8
S'xx3179829a087f8074ba0e2215a510401f'
p1102
sg10
S'xxd328304be2214906ecf8b73a7fd3448e'
p1103
sg12
S'xxdb8512bee0b316adb676f901d860b68b'
p1104
sg14
S'Mozilla/5.0 (Linux; Android 4.4.4; vivo Y23L Build/KTU84P) AppleWebKit/537.36 (KHTML, like Gecko) Version/4.0 Chrome/37.0.0.0 Mobile MQQBrowser/6.8 TBS/036849 Safari/537.36 MicroMessenger/6.3.27.880 NetType/WIFI Language/zh_CN'
p1105
sg16
S'4f93a4ba22f616a9ba31991b469b1f9c'
p1106
sa(dp1107
g2
S'4564'
p1108
sg4
S'6707'
p1109
sg6
S'd66c95a4c1c7aa3ad1fe1162a8491ff3'
p1110
sg8
S'xx223791dd5e472fc65a2ab414dffcd92a'
p1111
sg10
S'xxd328304be2214906ecf8b73a7fd3448e'
p1112
sg12
S'xxdb8512bee0b316adb676f901d860b68b'
p1113
sg14
S'Mozilla/5.0 (Linux; Android 4.4.4; vivo Y23L Build/KTU84P) AppleWebKit/537.36 (KHTML, like Gecko) Version/4.0 Chrome/37.0.0.0 Mobile MQQBrowser/6.8 TBS/036849 Safari/537.36 MicroMessenger/6.3.25.861 NetType/WIFI Language/zh_CN'
p1114
sg16
S'e0a694c97192c5e21d1387a91c9d86e9'
p1115
sa(dp1116
g2
S'37717'
p1117
sg4
S'6724'
p1118
sg6
S'716045ac0a643389933fb93fd735fce7'
p1119
sg8
S'xx3179829a087f8074ba0e2215a510401f'
p1120
sg10
S'xxd328304be2214906ecf8b73a7fd3448e'
p1121
sg12
S'xxdb8512bee0b316adb676f901d860b68b'
p1122
sg14
S'Mozilla/5.0 (Linux; Android 4.4.4; vivo Y23L Build/KTU84P) AppleWebKit/537.36 (KHTML, like Gecko) Version/4.0 Chrome/37.0.0.0 Mobile MQQBrowser/6.8 TBS/036849 Safari/537.36 MicroMessenger/6.3.27.880 NetType/WIFI Language/zh_CN'
p1123
sg16
S'4f93a4ba22f616a9ba31991b469b1f9c'
p1124
sa(dp1125
g2
S'4564'
p1126
sg4
S'6727'
p1127
sg6
S'd66c95a4c1c7aa3ad1fe1162a8491ff3'
p1128
sg8
S'xx223791dd5e472fc65a2ab414dffcd92a'
p1129
sg10
S'xxd328304be2214906ecf8b73a7fd3448e'
p1130
sg12
S'xxdb8512bee0b316adb676f901d860b68b'
p1131
sg14
S'Mozilla/5.0 (Linux; Android 4.4.4; vivo Y23L Build/KTU84P) AppleWebKit/537.36 (KHTML, like Gecko) Version/4.0 Chrome/37.0.0.0 Mobile MQQBrowser/6.8 TBS/036849 Safari/537.36 MicroMessenger/6.3.25.861 NetType/WIFI Language/zh_CN'
p1132
sg16
S'e0a694c97192c5e21d1387a91c9d86e9'
p1133
sa(dp1134
g2
S'37717'
p1135
sg4
S'6741'
p1136
sg6
S'716045ac0a643389933fb93fd735fce7'
p1137
sg8
S'xx3179829a087f8074ba0e2215a510401f'
p1138
sg10
S'xxd328304be2214906ecf8b73a7fd3448e'
p1139
sg12
S'xxdb8512bee0b316adb676f901d860b68b'
p1140
sg14
S'Mozilla/5.0 (Linux; Android 4.4.4; vivo Y23L Build/KTU84P) AppleWebKit/537.36 (KHTML, like Gecko) Version/4.0 Chrome/37.0.0.0 Mobile MQQBrowser/6.8 TBS/036849 Safari/537.36 MicroMessenger/6.3.27.880 NetType/WIFI Language/zh_CN'
p1141
sg16
S'4f93a4ba22f616a9ba31991b469b1f9c'
p1142
sa(dp1143
g2
S'4564'
p1144
sg4
S'6749'
p1145
sg6
S'd66c95a4c1c7aa3ad1fe1162a8491ff3'
p1146
sg8
S'xx223791dd5e472fc65a2ab414dffcd92a'
p1147
sg10
S'xxd328304be2214906ecf8b73a7fd3448e'
p1148
sg12
S'xxdb8512bee0b316adb676f901d860b68b'
p1149
sg14
S'Mozilla/5.0 (Linux; Android 4.4.4; vivo Y23L Build/KTU84P) AppleWebKit/537.36 (KHTML, like Gecko) Version/4.0 Chrome/37.0.0.0 Mobile MQQBrowser/6.8 TBS/036849 Safari/537.36 MicroMessenger/6.3.25.861 NetType/WIFI Language/zh_CN'
p1150
sg16
S'e0a694c97192c5e21d1387a91c9d86e9'
p1151
sa(dp1152
g2
S'37717'
p1153
sg4
S'6758'
p1154
sg6
S'716045ac0a643389933fb93fd735fce7'
p1155
sg8
S'xx3179829a087f8074ba0e2215a510401f'
p1156
sg10
S'xxd328304be2214906ecf8b73a7fd3448e'
p1157
sg12
S'xxdb8512bee0b316adb676f901d860b68b'
p1158
sg14
S'Mozilla/5.0 (Linux; Android 4.4.4; vivo Y23L Build/KTU84P) AppleWebKit/537.36 (KHTML, like Gecko) Version/4.0 Chrome/37.0.0.0 Mobile MQQBrowser/6.8 TBS/036849 Safari/537.36 MicroMessenger/6.3.27.880 NetType/WIFI Language/zh_CN'
p1159
sg16
S'4f93a4ba22f616a9ba31991b469b1f9c'
p1160
sa(dp1161
g2
S'4564'
p1162
sg4
S'6765'
p1163
sg6
S'd66c95a4c1c7aa3ad1fe1162a8491ff3'
p1164
sg8
S'xx223791dd5e472fc65a2ab414dffcd92a'
p1165
sg10
S'xxd328304be2214906ecf8b73a7fd3448e'
p1166
sg12
S'xxdb8512bee0b316adb676f901d860b68b'
p1167
sg14
S'Mozilla/5.0 (Linux; Android 4.4.4; vivo Y23L Build/KTU84P) AppleWebKit/537.36 (KHTML, like Gecko) Version/4.0 Chrome/37.0.0.0 Mobile MQQBrowser/6.8 TBS/036849 Safari/537.36 MicroMessenger/6.3.25.861 NetType/WIFI Language/zh_CN'
p1168
sg16
S'e0a694c97192c5e21d1387a91c9d86e9'
p1169
sa(dp1170
g2
S'37717'
p1171
sg4
S'6773'
p1172
sg6
S'716045ac0a643389933fb93fd735fce7'
p1173
sg8
S'xx3179829a087f8074ba0e2215a510401f'
p1174
sg10
S'xxd328304be2214906ecf8b73a7fd3448e'
p1175
sg12
S'xxdb8512bee0b316adb676f901d860b68b'
p1176
sg14
S'Mozilla/5.0 (Linux; Android 4.4.4; vivo Y23L Build/KTU84P) AppleWebKit/537.36 (KHTML, like Gecko) Version/4.0 Chrome/37.0.0.0 Mobile MQQBrowser/6.8 TBS/036849 Safari/537.36 MicroMessenger/6.3.27.880 NetType/WIFI Language/zh_CN'
p1177
sg16
S'4f93a4ba22f616a9ba31991b469b1f9c'
p1178
sa(dp1179
g2
S'4564'
p1180
sg4
S'6779'
p1181
sg6
S'd66c95a4c1c7aa3ad1fe1162a8491ff3'
p1182
sg8
S'xx223791dd5e472fc65a2ab414dffcd92a'
p1183
sg10
S'xxd328304be2214906ecf8b73a7fd3448e'
p1184
sg12
S'xxdb8512bee0b316adb676f901d860b68b'
p1185
sg14
S'Mozilla/5.0 (Linux; Android 4.4.4; vivo Y23L Build/KTU84P) AppleWebKit/537.36 (KHTML, like Gecko) Version/4.0 Chrome/37.0.0.0 Mobile MQQBrowser/6.8 TBS/036849 Safari/537.36 MicroMessenger/6.3.25.861 NetType/WIFI Language/zh_CN'
p1186
sg16
S'e0a694c97192c5e21d1387a91c9d86e9'
p1187
sa(dp1188
g2
S'4564'
p1189
sg4
S'6797'
p1190
sg6
S'd66c95a4c1c7aa3ad1fe1162a8491ff3'
p1191
sg8
S'xx223791dd5e472fc65a2ab414dffcd92a'
p1192
sg10
S'xxd328304be2214906ecf8b73a7fd3448e'
p1193
sg12
S'xxdb8512bee0b316adb676f901d860b68b'
p1194
sg14
S'Mozilla/5.0 (Linux; Android 4.4.4; vivo Y23L Build/KTU84P) AppleWebKit/537.36 (KHTML, like Gecko) Version/4.0 Chrome/37.0.0.0 Mobile MQQBrowser/6.8 TBS/036849 Safari/537.36 MicroMessenger/6.3.25.861 NetType/WIFI Language/zh_CN'
p1195
sg16
S'e0a694c97192c5e21d1387a91c9d86e9'
p1196
sa(dp1197
g2
S'37717'
p1198
sg4
S'6798'
p1199
sg6
S'716045ac0a643389933fb93fd735fce7'
p1200
sg8
S'xx3179829a087f8074ba0e2215a510401f'
p1201
sg10
S'xxd328304be2214906ecf8b73a7fd3448e'
p1202
sg12
S'xxdb8512bee0b316adb676f901d860b68b'
p1203
sg14
S'Mozilla/5.0 (Linux; Android 4.4.4; vivo Y23L Build/KTU84P) AppleWebKit/537.36 (KHTML, like Gecko) Version/4.0 Chrome/37.0.0.0 Mobile MQQBrowser/6.8 TBS/036849 Safari/537.36 MicroMessenger/6.3.27.880 NetType/WIFI Language/zh_CN'
p1204
sg16
S'4f93a4ba22f616a9ba31991b469b1f9c'
p1205
sa(dp1206
g2
S'4564'
p1207
sg4
S'6808'
p1208
sg6
S'd66c95a4c1c7aa3ad1fe1162a8491ff3'
p1209
sg8
S'xx223791dd5e472fc65a2ab414dffcd92a'
p1210
sg10
S'xxd328304be2214906ecf8b73a7fd3448e'
p1211
sg12
S'xxdb8512bee0b316adb676f901d860b68b'
p1212
sg14
S'Mozilla/5.0 (Linux; Android 4.4.4; vivo Y23L Build/KTU84P) AppleWebKit/537.36 (KHTML, like Gecko) Version/4.0 Chrome/37.0.0.0 Mobile MQQBrowser/6.8 TBS/036849 Safari/537.36 MicroMessenger/6.3.25.861 NetType/WIFI Language/zh_CN'
p1213
sg16
S'e0a694c97192c5e21d1387a91c9d86e9'
p1214
sa(dp1215
g2
S'4564'
p1216
sg4
S'6818'
p1217
sg6
S'd66c95a4c1c7aa3ad1fe1162a8491ff3'
p1218
sg8
S'xx223791dd5e472fc65a2ab414dffcd92a'
p1219
sg10
S'xxd328304be2214906ecf8b73a7fd3448e'
p1220
sg12
S'xxdb8512bee0b316adb676f901d860b68b'
p1221
sg14
S'Mozilla/5.0 (Linux; Android 4.4.4; vivo Y23L Build/KTU84P) AppleWebKit/537.36 (KHTML, like Gecko) Version/4.0 Chrome/37.0.0.0 Mobile MQQBrowser/6.8 TBS/036849 Safari/537.36 MicroMessenger/6.3.25.861 NetType/WIFI Language/zh_CN'
p1222
sg16
S'e0a694c97192c5e21d1387a91c9d86e9'
p1223
sa(dp1224
g2
S'37717'
p1225
sg4
S'6819'
p1226
sg6
S'716045ac0a643389933fb93fd735fce7'
p1227
sg8
S'xx3179829a087f8074ba0e2215a510401f'
p1228
sg10
S'xxd328304be2214906ecf8b73a7fd3448e'
p1229
sg12
S'xxdb8512bee0b316adb676f901d860b68b'
p1230
sg14
S'Mozilla/5.0 (Linux; Android 4.4.4; vivo Y23L Build/KTU84P) AppleWebKit/537.36 (KHTML, like Gecko) Version/4.0 Chrome/37.0.0.0 Mobile MQQBrowser/6.8 TBS/036849 Safari/537.36 MicroMessenger/6.3.27.880 NetType/WIFI Language/zh_CN'
p1231
sg16
S'4f93a4ba22f616a9ba31991b469b1f9c'
p1232
sa(dp1233
g2
S'4564'
p1234
sg4
S'6831'
p1235
sg6
S'd66c95a4c1c7aa3ad1fe1162a8491ff3'
p1236
sg8
S'xx223791dd5e472fc65a2ab414dffcd92a'
p1237
sg10
S'xxd328304be2214906ecf8b73a7fd3448e'
p1238
sg12
S'xxdb8512bee0b316adb676f901d860b68b'
p1239
sg14
S'Mozilla/5.0 (Linux; Android 4.4.4; vivo Y23L Build/KTU84P) AppleWebKit/537.36 (KHTML, like Gecko) Version/4.0 Chrome/37.0.0.0 Mobile MQQBrowser/6.8 TBS/036849 Safari/537.36 MicroMessenger/6.3.25.861 NetType/WIFI Language/zh_CN'
p1240
sg16
S'e0a694c97192c5e21d1387a91c9d86e9'
p1241
sa(dp1242
g2
S'37717'
p1243
sg4
S'6900'
p1244
sg6
S'716045ac0a643389933fb93fd735fce7'
p1245
sg8
S'xx3179829a087f8074ba0e2215a510401f'
p1246
sg10
S'xxd328304be2214906ecf8b73a7fd3448e'
p1247
sg12
S'xxdb8512bee0b316adb676f901d860b68b'
p1248
sg14
S'Mozilla/5.0 (Linux; Android 4.4.4; vivo Y23L Build/KTU84P) AppleWebKit/537.36 (KHTML, like Gecko) Version/4.0 Chrome/37.0.0.0 Mobile MQQBrowser/6.8 TBS/036849 Safari/537.36 MicroMessenger/6.3.27.880 NetType/WIFI Language/zh_CN'
p1249
sg16
S'4f93a4ba22f616a9ba31991b469b1f9c'
p1250
sa(dp1251
g2
S'37717'
p1252
sg4
S'6973'
p1253
sg6
S'716045ac0a643389933fb93fd735fce7'
p1254
sg8
S'xx3179829a087f8074ba0e2215a510401f'
p1255
sg10
S'xxd328304be2214906ecf8b73a7fd3448e'
p1256
sg12
S'xxdb8512bee0b316adb676f901d860b68b'
p1257
sg14
S'Mozilla/5.0 (Linux; Android 4.4.4; vivo Y23L Build/KTU84P) AppleWebKit/537.36 (KHTML, like Gecko) Version/4.0 Chrome/37.0.0.0 Mobile MQQBrowser/6.8 TBS/036849 Safari/537.36 MicroMessenger/6.3.27.880 NetType/WIFI Language/zh_CN'
p1258
sg16
S'4f93a4ba22f616a9ba31991b469b1f9c'
p1259
sa(dp1260
g2
S'37717'
p1261
sg4
S'7016'
p1262
sg6
S'716045ac0a643389933fb93fd735fce7'
p1263
sg8
S'xx3179829a087f8074ba0e2215a510401f'
p1264
sg10
S'xxd328304be2214906ecf8b73a7fd3448e'
p1265
sg12
S'xxdb8512bee0b316adb676f901d860b68b'
p1266
sg14
S'Mozilla/5.0 (Linux; Android 4.4.4; vivo Y23L Build/KTU84P) AppleWebKit/537.36 (KHTML, like Gecko) Version/4.0 Chrome/37.0.0.0 Mobile MQQBrowser/6.8 TBS/036849 Safari/537.36 MicroMessenger/6.3.27.880 NetType/WIFI Language/zh_CN'
p1267
sg16
S'4f93a4ba22f616a9ba31991b469b1f9c'
p1268
sa(dp1269
g2
S'37717'
p1270
sg4
S'7036'
p1271
sg6
S'716045ac0a643389933fb93fd735fce7'
p1272
sg8
S'xx3179829a087f8074ba0e2215a510401f'
p1273
sg10
S'xxd328304be2214906ecf8b73a7fd3448e'
p1274
sg12
S'xxdb8512bee0b316adb676f901d860b68b'
p1275
sg14
S'Mozilla/5.0 (Linux; Android 4.4.4; vivo Y23L Build/KTU84P) AppleWebKit/537.36 (KHTML, like Gecko) Version/4.0 Chrome/37.0.0.0 Mobile MQQBrowser/6.8 TBS/036849 Safari/537.36 MicroMessenger/6.3.27.880 NetType/WIFI Language/zh_CN'
p1276
sg16
S'4f93a4ba22f616a9ba31991b469b1f9c'
p1277
sa(dp1278
g2
S'26591'
p1279
sg4
S'7045'
p1280
sg6
S'0a073a53ff689fec701fd7701cf3a5e0'
p1281
sg8
S'xx223791dd5e472fc65a2ab414dffcd92a'
p1282
sg10
S'xxd328304be2214906ecf8b73a7fd3448e'
p1283
sg12
S'xxdb8512bee0b316adb676f901d860b68b'
p1284
sg14
S'Mozilla/5.0 (Linux; Android 4.4.4; vivo Y23L Build/KTU84P) AppleWebKit/537.36 (KHTML, like Gecko) Version/4.0 Chrome/37.0.0.0 Mobile MQQBrowser/6.8 TBS/036849 Safari/537.36 MicroMessenger/6.3.25.861 NetType/WIFI Language/zh_CN'
p1285
sg16
S'e0a694c97192c5e21d1387a91c9d86e9'
p1286
sa(dp1287
g2
S'4564'
p1288
sg4
S'7048'
p1289
sg6
S'd66c95a4c1c7aa3ad1fe1162a8491ff3'
p1290
sg8
S'xx223791dd5e472fc65a2ab414dffcd92a'
p1291
sg10
S'xxd328304be2214906ecf8b73a7fd3448e'
p1292
sg12
S'xxdb8512bee0b316adb676f901d860b68b'
p1293
sg14
S'Mozilla/5.0 (Linux; Android 4.4.4; vivo Y23L Build/KTU84P) AppleWebKit/537.36 (KHTML, like Gecko) Version/4.0 Chrome/37.0.0.0 Mobile MQQBrowser/6.8 TBS/036849 Safari/537.36 MicroMessenger/6.3.25.861 NetType/WIFI Language/zh_CN'
p1294
sg16
S'e0a694c97192c5e21d1387a91c9d86e9'
p1295
sa(dp1296
g2
S'37717'
p1297
sg4
S'7051'
p1298
sg6
S'716045ac0a643389933fb93fd735fce7'
p1299
sg8
S'xx3179829a087f8074ba0e2215a510401f'
p1300
sg10
S'xxd328304be2214906ecf8b73a7fd3448e'
p1301
sg12
S'xxdb8512bee0b316adb676f901d860b68b'
p1302
sg14
S'Mozilla/5.0 (Linux; Android 4.4.4; vivo Y23L Build/KTU84P) AppleWebKit/537.36 (KHTML, like Gecko) Version/4.0 Chrome/37.0.0.0 Mobile MQQBrowser/6.8 TBS/036849 Safari/537.36 MicroMessenger/6.3.27.880 NetType/WIFI Language/zh_CN'
p1303
sg16
S'4f93a4ba22f616a9ba31991b469b1f9c'
p1304
sa(dp1305
g2
S'26591'
p1306
sg4
S'7061'
p1307
sg6
S'0a073a53ff689fec701fd7701cf3a5e0'
p1308
sg8
S'xx223791dd5e472fc65a2ab414dffcd92a'
p1309
sg10
S'xxd328304be2214906ecf8b73a7fd3448e'
p1310
sg12
S'xxdb8512bee0b316adb676f901d860b68b'
p1311
sg14
S'Mozilla/5.0 (Linux; Android 4.4.4; vivo Y23L Build/KTU84P) AppleWebKit/537.36 (KHTML, like Gecko) Version/4.0 Chrome/37.0.0.0 Mobile MQQBrowser/6.8 TBS/036849 Safari/537.36 MicroMessenger/6.3.25.861 NetType/WIFI Language/zh_CN'
p1312
sg16
S'e0a694c97192c5e21d1387a91c9d86e9'
p1313
sa(dp1314
g2
S'37717'
p1315
sg4
S'7065'
p1316
sg6
S'716045ac0a643389933fb93fd735fce7'
p1317
sg8
S'xx3179829a087f8074ba0e2215a510401f'
p1318
sg10
S'xxd328304be2214906ecf8b73a7fd3448e'
p1319
sg12
S'xxdb8512bee0b316adb676f901d860b68b'
p1320
sg14
S'Mozilla/5.0 (Linux; Android 4.4.4; vivo Y23L Build/KTU84P) AppleWebKit/537.36 (KHTML, like Gecko) Version/4.0 Chrome/37.0.0.0 Mobile MQQBrowser/6.8 TBS/036849 Safari/537.36 MicroMessenger/6.3.27.880 NetType/WIFI Language/zh_CN'
p1321
sg16
S'4f93a4ba22f616a9ba31991b469b1f9c'
p1322
sa(dp1323
g2
S'37717'
p1324
sg4
S'7077'
p1325
sg6
S'716045ac0a643389933fb93fd735fce7'
p1326
sg8
S'xx3179829a087f8074ba0e2215a510401f'
p1327
sg10
S'xxd328304be2214906ecf8b73a7fd3448e'
p1328
sg12
S'xxdb8512bee0b316adb676f901d860b68b'
p1329
sg14
S'Mozilla/5.0 (Linux; Android 4.4.4; vivo Y23L Build/KTU84P) AppleWebKit/537.36 (KHTML, like Gecko) Version/4.0 Chrome/37.0.0.0 Mobile MQQBrowser/6.8 TBS/036849 Safari/537.36 MicroMessenger/6.3.27.880 NetType/WIFI Language/zh_CN'
p1330
sg16
S'4f93a4ba22f616a9ba31991b469b1f9c'
p1331
sa(dp1332
g2
S'37717'
p1333
sg4
S'7087'
p1334
sg6
S'716045ac0a643389933fb93fd735fce7'
p1335
sg8
S'xx3179829a087f8074ba0e2215a510401f'
p1336
sg10
S'xxd328304be2214906ecf8b73a7fd3448e'
p1337
sg12
S'xxdb8512bee0b316adb676f901d860b68b'
p1338
sg14
S'Mozilla/5.0 (Linux; Android 4.4.4; vivo Y23L Build/KTU84P) AppleWebKit/537.36 (KHTML, like Gecko) Version/4.0 Chrome/37.0.0.0 Mobile MQQBrowser/6.8 TBS/036849 Safari/537.36 MicroMessenger/6.3.27.880 NetType/WIFI Language/zh_CN'
p1339
sg16
S'4f93a4ba22f616a9ba31991b469b1f9c'
p1340
sa(dp1341
g2
S'37717'
p1342
sg4
S'7097'
p1343
sg6
S'716045ac0a643389933fb93fd735fce7'
p1344
sg8
S'xx3179829a087f8074ba0e2215a510401f'
p1345
sg10
S'xxd328304be2214906ecf8b73a7fd3448e'
p1346
sg12
S'xxdb8512bee0b316adb676f901d860b68b'
p1347
sg14
S'Mozilla/5.0 (Linux; Android 4.4.4; vivo Y23L Build/KTU84P) AppleWebKit/537.36 (KHTML, like Gecko) Version/4.0 Chrome/37.0.0.0 Mobile MQQBrowser/6.8 TBS/036849 Safari/537.36 MicroMessenger/6.3.27.880 NetType/WIFI Language/zh_CN'
p1348
sg16
S'4f93a4ba22f616a9ba31991b469b1f9c'
p1349
sa(dp1350
g2
S'4564'
p1351
sg4
S'7107'
p1352
sg6
S'd66c95a4c1c7aa3ad1fe1162a8491ff3'
p1353
sg8
S'xx223791dd5e472fc65a2ab414dffcd92a'
p1354
sg10
S'xxd328304be2214906ecf8b73a7fd3448e'
p1355
sg12
S'xxdb8512bee0b316adb676f901d860b68b'
p1356
sg14
S'Mozilla/5.0 (Linux; Android 4.4.4; vivo Y23L Build/KTU84P) AppleWebKit/537.36 (KHTML, like Gecko) Version/4.0 Chrome/37.0.0.0 Mobile MQQBrowser/6.8 TBS/036849 Safari/537.36 MicroMessenger/6.3.25.861 NetType/WIFI Language/zh_CN'
p1357
sg16
S'e0a694c97192c5e21d1387a91c9d86e9'
p1358
sa(dp1359
g2
S'37717'
p1360
sg4
S'7115'
p1361
sg6
S'716045ac0a643389933fb93fd735fce7'
p1362
sg8
S'xx3179829a087f8074ba0e2215a510401f'
p1363
sg10
S'xxd328304be2214906ecf8b73a7fd3448e'
p1364
sg12
S'xxdb8512bee0b316adb676f901d860b68b'
p1365
sg14
S'Mozilla/5.0 (Linux; Android 4.4.4; vivo Y23L Build/KTU84P) AppleWebKit/537.36 (KHTML, like Gecko) Version/4.0 Chrome/37.0.0.0 Mobile MQQBrowser/6.8 TBS/036849 Safari/537.36 MicroMessenger/6.3.27.880 NetType/WIFI Language/zh_CN'
p1366
sg16
S'4f93a4ba22f616a9ba31991b469b1f9c'
p1367
sa(dp1368
g2
S'4564'
p1369
sg4
S'7124'
p1370
sg6
S'd66c95a4c1c7aa3ad1fe1162a8491ff3'
p1371
sg8
S'xx223791dd5e472fc65a2ab414dffcd92a'
p1372
sg10
S'xxd328304be2214906ecf8b73a7fd3448e'
p1373
sg12
S'xxdb8512bee0b316adb676f901d860b68b'
p1374
sg14
S'Mozilla/5.0 (Linux; Android 4.4.4; vivo Y23L Build/KTU84P) AppleWebKit/537.36 (KHTML, like Gecko) Version/4.0 Chrome/37.0.0.0 Mobile MQQBrowser/6.8 TBS/036849 Safari/537.36 MicroMessenger/6.3.25.861 NetType/WIFI Language/zh_CN'
p1375
sg16
S'e0a694c97192c5e21d1387a91c9d86e9'
p1376
sa(dp1377
g2
S'37717'
p1378
sg4
S'7191'
p1379
sg6
S'716045ac0a643389933fb93fd735fce7'
p1380
sg8
S'xx3179829a087f8074ba0e2215a510401f'
p1381
sg10
S'xxd328304be2214906ecf8b73a7fd3448e'
p1382
sg12
S'xxdb8512bee0b316adb676f901d860b68b'
p1383
sg14
S'Mozilla/5.0 (Linux; Android 4.4.4; vivo Y23L Build/KTU84P) AppleWebKit/537.36 (KHTML, like Gecko) Version/4.0 Chrome/37.0.0.0 Mobile MQQBrowser/6.8 TBS/036849 Safari/537.36 MicroMessenger/6.3.27.880 NetType/WIFI Language/zh_CN'
p1384
sg16
S'4f93a4ba22f616a9ba31991b469b1f9c'
p1385
sa(dp1386
g2
S'37717'
p1387
sg4
S'7208'
p1388
sg6
S'716045ac0a643389933fb93fd735fce7'
p1389
sg8
S'xx3179829a087f8074ba0e2215a510401f'
p1390
sg10
S'xxd328304be2214906ecf8b73a7fd3448e'
p1391
sg12
S'xxdb8512bee0b316adb676f901d860b68b'
p1392
sg14
S'Mozilla/5.0 (Linux; Android 4.4.4; vivo Y23L Build/KTU84P) AppleWebKit/537.36 (KHTML, like Gecko) Version/4.0 Chrome/37.0.0.0 Mobile MQQBrowser/6.8 TBS/036849 Safari/537.36 MicroMessenger/6.3.27.880 NetType/WIFI Language/zh_CN'
p1393
sg16
S'4f93a4ba22f616a9ba31991b469b1f9c'
p1394
sa(dp1395
g2
S'37717'
p1396
sg4
S'7219'
p1397
sg6
S'716045ac0a643389933fb93fd735fce7'
p1398
sg8
S'xx3179829a087f8074ba0e2215a510401f'
p1399
sg10
S'xxd328304be2214906ecf8b73a7fd3448e'
p1400
sg12
S'xxdb8512bee0b316adb676f901d860b68b'
p1401
sg14
S'Mozilla/5.0 (Linux; Android 4.4.4; vivo Y23L Build/KTU84P) AppleWebKit/537.36 (KHTML, like Gecko) Version/4.0 Chrome/37.0.0.0 Mobile MQQBrowser/6.8 TBS/036849 Safari/537.36 MicroMessenger/6.3.27.880 NetType/WIFI Language/zh_CN'
p1402
sg16
S'4f93a4ba22f616a9ba31991b469b1f9c'
p1403
sa(dp1404
g2
S'37717'
p1405
sg4
S'7230'
p1406
sg6
S'716045ac0a643389933fb93fd735fce7'
p1407
sg8
S'xx3179829a087f8074ba0e2215a510401f'
p1408
sg10
S'xxd328304be2214906ecf8b73a7fd3448e'
p1409
sg12
S'xxdb8512bee0b316adb676f901d860b68b'
p1410
sg14
S'Mozilla/5.0 (Linux; Android 4.4.4; vivo Y23L Build/KTU84P) AppleWebKit/537.36 (KHTML, like Gecko) Version/4.0 Chrome/37.0.0.0 Mobile MQQBrowser/6.8 TBS/036849 Safari/537.36 MicroMessenger/6.3.27.880 NetType/WIFI Language/zh_CN'
p1411
sg16
S'4f93a4ba22f616a9ba31991b469b1f9c'
p1412
sa(dp1413
g2
S'37717'
p1414
sg4
S'7245'
p1415
sg6
S'716045ac0a643389933fb93fd735fce7'
p1416
sg8
S'xx3179829a087f8074ba0e2215a510401f'
p1417
sg10
S'xxd328304be2214906ecf8b73a7fd3448e'
p1418
sg12
S'xxdb8512bee0b316adb676f901d860b68b'
p1419
sg14
S'Mozilla/5.0 (Linux; Android 4.4.4; vivo Y23L Build/KTU84P) AppleWebKit/537.36 (KHTML, like Gecko) Version/4.0 Chrome/37.0.0.0 Mobile MQQBrowser/6.8 TBS/036849 Safari/537.36 MicroMessenger/6.3.27.880 NetType/WIFI Language/zh_CN'
p1420
sg16
S'4f93a4ba22f616a9ba31991b469b1f9c'
p1421
sa(dp1422
g2
S'37717'
p1423
sg4
S'7298'
p1424
sg6
S'716045ac0a643389933fb93fd735fce7'
p1425
sg8
S'xx3179829a087f8074ba0e2215a510401f'
p1426
sg10
S'xxd328304be2214906ecf8b73a7fd3448e'
p1427
sg12
S'xxdb8512bee0b316adb676f901d860b68b'
p1428
sg14
S'Mozilla/5.0 (Linux; Android 4.4.4; vivo Y23L Build/KTU84P) AppleWebKit/537.36 (KHTML, like Gecko) Version/4.0 Chrome/37.0.0.0 Mobile MQQBrowser/6.8 TBS/036849 Safari/537.36 MicroMessenger/6.3.27.880 NetType/WIFI Language/zh_CN'
p1429
sg16
S'4f93a4ba22f616a9ba31991b469b1f9c'
p1430
sa(dp1431
g2
S'37717'
p1432
sg4
S'7314'
p1433
sg6
S'716045ac0a643389933fb93fd735fce7'
p1434
sg8
S'xx3179829a087f8074ba0e2215a510401f'
p1435
sg10
S'xxd328304be2214906ecf8b73a7fd3448e'
p1436
sg12
S'xxdb8512bee0b316adb676f901d860b68b'
p1437
sg14
S'Mozilla/5.0 (Linux; Android 4.4.4; vivo Y23L Build/KTU84P) AppleWebKit/537.36 (KHTML, like Gecko) Version/4.0 Chrome/37.0.0.0 Mobile MQQBrowser/6.8 TBS/036849 Safari/537.36 MicroMessenger/6.3.27.880 NetType/WIFI Language/zh_CN'
p1438
sg16
S'4f93a4ba22f616a9ba31991b469b1f9c'
p1439
sa(dp1440
g2
S'37717'
p1441
sg4
S'7331'
p1442
sg6
S'716045ac0a643389933fb93fd735fce7'
p1443
sg8
S'xx3179829a087f8074ba0e2215a510401f'
p1444
sg10
S'xxd328304be2214906ecf8b73a7fd3448e'
p1445
sg12
S'xxdb8512bee0b316adb676f901d860b68b'
p1446
sg14
S'Mozilla/5.0 (Linux; Android 4.4.4; vivo Y23L Build/KTU84P) AppleWebKit/537.36 (KHTML, like Gecko) Version/4.0 Chrome/37.0.0.0 Mobile MQQBrowser/6.8 TBS/036849 Safari/537.36 MicroMessenger/6.3.27.880 NetType/WIFI Language/zh_CN'
p1447
sg16
S'4f93a4ba22f616a9ba31991b469b1f9c'
p1448
sa(dp1449
g2
S'37717'
p1450
sg4
S'7346'
p1451
sg6
S'716045ac0a643389933fb93fd735fce7'
p1452
sg8
S'xx3179829a087f8074ba0e2215a510401f'
p1453
sg10
S'xxd328304be2214906ecf8b73a7fd3448e'
p1454
sg12
S'xxdb8512bee0b316adb676f901d860b68b'
p1455
sg14
S'Mozilla/5.0 (Linux; Android 4.4.4; vivo Y23L Build/KTU84P) AppleWebKit/537.36 (KHTML, like Gecko) Version/4.0 Chrome/37.0.0.0 Mobile MQQBrowser/6.8 TBS/036849 Safari/537.36 MicroMessenger/6.3.27.880 NetType/WIFI Language/zh_CN'
p1456
sg16
S'4f93a4ba22f616a9ba31991b469b1f9c'
p1457
sa(dp1458
g2
S'37717'
p1459
sg4
S'7357'
p1460
sg6
S'716045ac0a643389933fb93fd735fce7'
p1461
sg8
S'xx3179829a087f8074ba0e2215a510401f'
p1462
sg10
S'xxd328304be2214906ecf8b73a7fd3448e'
p1463
sg12
S'xxdb8512bee0b316adb676f901d860b68b'
p1464
sg14
S'Mozilla/5.0 (Linux; Android 4.4.4; vivo Y23L Build/KTU84P) AppleWebKit/537.36 (KHTML, like Gecko) Version/4.0 Chrome/37.0.0.0 Mobile MQQBrowser/6.8 TBS/036849 Safari/537.36 MicroMessenger/6.3.27.880 NetType/WIFI Language/zh_CN'
p1465
sg16
S'4f93a4ba22f616a9ba31991b469b1f9c'
p1466
sa(dp1467
g2
S'37717'
p1468
sg4
S'7371'
p1469
sg6
S'716045ac0a643389933fb93fd735fce7'
p1470
sg8
S'xx3179829a087f8074ba0e2215a510401f'
p1471
sg10
S'xxd328304be2214906ecf8b73a7fd3448e'
p1472
sg12
S'xxdb8512bee0b316adb676f901d860b68b'
p1473
sg14
S'Mozilla/5.0 (Linux; Android 4.4.4; vivo Y23L Build/KTU84P) AppleWebKit/537.36 (KHTML, like Gecko) Version/4.0 Chrome/37.0.0.0 Mobile MQQBrowser/6.8 TBS/036849 Safari/537.36 MicroMessenger/6.3.27.880 NetType/WIFI Language/zh_CN'
p1474
sg16
S'4f93a4ba22f616a9ba31991b469b1f9c'
p1475
sa(dp1476
g2
S'4564'
p1477
sg4
S'7388'
p1478
sg6
S'd66c95a4c1c7aa3ad1fe1162a8491ff3'
p1479
sg8
S'xx223791dd5e472fc65a2ab414dffcd92a'
p1480
sg10
S'xxd328304be2214906ecf8b73a7fd3448e'
p1481
sg12
S'xxdb8512bee0b316adb676f901d860b68b'
p1482
sg14
S'Mozilla/5.0 (Linux; Android 4.4.4; vivo Y23L Build/KTU84P) AppleWebKit/537.36 (KHTML, like Gecko) Version/4.0 Chrome/37.0.0.0 Mobile MQQBrowser/6.8 TBS/036849 Safari/537.36 MicroMessenger/6.3.25.861 NetType/WIFI Language/zh_CN'
p1483
sg16
S'e0a694c97192c5e21d1387a91c9d86e9'
p1484
sa(dp1485
g2
S'4564'
p1486
sg4
S'7407'
p1487
sg6
S'd66c95a4c1c7aa3ad1fe1162a8491ff3'
p1488
sg8
S'xx223791dd5e472fc65a2ab414dffcd92a'
p1489
sg10
S'xxd328304be2214906ecf8b73a7fd3448e'
p1490
sg12
S'xxdb8512bee0b316adb676f901d860b68b'
p1491
sg14
S'Mozilla/5.0 (Linux; Android 4.4.4; vivo Y23L Build/KTU84P) AppleWebKit/537.36 (KHTML, like Gecko) Version/4.0 Chrome/37.0.0.0 Mobile MQQBrowser/6.8 TBS/036849 Safari/537.36 MicroMessenger/6.3.25.861 NetType/WIFI Language/zh_CN'
p1492
sg16
S'e0a694c97192c5e21d1387a91c9d86e9'
p1493
sa(dp1494
g2
S'4564'
p1495
sg4
S'7421'
p1496
sg6
S'd66c95a4c1c7aa3ad1fe1162a8491ff3'
p1497
sg8
S'xx223791dd5e472fc65a2ab414dffcd92a'
p1498
sg10
S'xxd328304be2214906ecf8b73a7fd3448e'
p1499
sg12
S'xxdb8512bee0b316adb676f901d860b68b'
p1500
sg14
S'Mozilla/5.0 (Linux; Android 4.4.4; vivo Y23L Build/KTU84P) AppleWebKit/537.36 (KHTML, like Gecko) Version/4.0 Chrome/37.0.0.0 Mobile MQQBrowser/6.8 TBS/036849 Safari/537.36 MicroMessenger/6.3.25.861 NetType/WIFI Language/zh_CN'
p1501
sg16
S'e0a694c97192c5e21d1387a91c9d86e9'
p1502
sa(dp1503
g2
S'4564'
p1504
sg4
S'7440'
p1505
sg6
S'd66c95a4c1c7aa3ad1fe1162a8491ff3'
p1506
sg8
S'xx223791dd5e472fc65a2ab414dffcd92a'
p1507
sg10
S'xxd328304be2214906ecf8b73a7fd3448e'
p1508
sg12
S'xxdb8512bee0b316adb676f901d860b68b'
p1509
sg14
S'Mozilla/5.0 (Linux; Android 4.4.4; vivo Y23L Build/KTU84P) AppleWebKit/537.36 (KHTML, like Gecko) Version/4.0 Chrome/37.0.0.0 Mobile MQQBrowser/6.8 TBS/036849 Safari/537.36 MicroMessenger/6.3.25.861 NetType/WIFI Language/zh_CN'
p1510
sg16
S'e0a694c97192c5e21d1387a91c9d86e9'
p1511
sa(dp1512
g2
S'37717'
p1513
sg4
S'7443'
p1514
sg6
S'716045ac0a643389933fb93fd735fce7'
p1515
sg8
S'xx3179829a087f8074ba0e2215a510401f'
p1516
sg10
S'xxd328304be2214906ecf8b73a7fd3448e'
p1517
sg12
S'xxdb8512bee0b316adb676f901d860b68b'
p1518
sg14
S'Mozilla/5.0 (Linux; Android 4.4.4; vivo Y23L Build/KTU84P) AppleWebKit/537.36 (KHTML, like Gecko) Version/4.0 Chrome/37.0.0.0 Mobile MQQBrowser/6.8 TBS/036849 Safari/537.36 MicroMessenger/6.3.27.880 NetType/WIFI Language/zh_CN'
p1519
sg16
S'4f93a4ba22f616a9ba31991b469b1f9c'
p1520
sa(dp1521
g2
S'4564'
p1522
sg4
S'7475'
p1523
sg6
S'd66c95a4c1c7aa3ad1fe1162a8491ff3'
p1524
sg8
S'xx223791dd5e472fc65a2ab414dffcd92a'
p1525
sg10
S'xxd328304be2214906ecf8b73a7fd3448e'
p1526
sg12
S'xxdb8512bee0b316adb676f901d860b68b'
p1527
sg14
S'Mozilla/5.0 (Linux; Android 4.4.4; vivo Y23L Build/KTU84P) AppleWebKit/537.36 (KHTML, like Gecko) Version/4.0 Chrome/37.0.0.0 Mobile MQQBrowser/6.8 TBS/036849 Safari/537.36 MicroMessenger/6.3.25.861 NetType/WIFI Language/zh_CN'
p1528
sg16
S'e0a694c97192c5e21d1387a91c9d86e9'
p1529
sa(dp1530
g2
S'37717'
p1531
sg4
S'7484'
p1532
sg6
S'716045ac0a643389933fb93fd735fce7'
p1533
sg8
S'xx3179829a087f8074ba0e2215a510401f'
p1534
sg10
S'xxd328304be2214906ecf8b73a7fd3448e'
p1535
sg12
S'xxdb8512bee0b316adb676f901d860b68b'
p1536
sg14
S'Mozilla/5.0 (Linux; Android 4.4.4; vivo Y23L Build/KTU84P) AppleWebKit/537.36 (KHTML, like Gecko) Version/4.0 Chrome/37.0.0.0 Mobile MQQBrowser/6.8 TBS/036849 Safari/537.36 MicroMessenger/6.3.27.880 NetType/WIFI Language/zh_CN'
p1537
sg16
S'4f93a4ba22f616a9ba31991b469b1f9c'
p1538
sa(dp1539
g2
S'37717'
p1540
sg4
S'7518'
p1541
sg6
S'716045ac0a643389933fb93fd735fce7'
p1542
sg8
S'xx3179829a087f8074ba0e2215a510401f'
p1543
sg10
S'xxd328304be2214906ecf8b73a7fd3448e'
p1544
sg12
S'xxdb8512bee0b316adb676f901d860b68b'
p1545
sg14
S'Mozilla/5.0 (Linux; Android 4.4.4; vivo Y23L Build/KTU84P) AppleWebKit/537.36 (KHTML, like Gecko) Version/4.0 Chrome/37.0.0.0 Mobile MQQBrowser/6.8 TBS/036849 Safari/537.36 MicroMessenger/6.3.27.880 NetType/WIFI Language/zh_CN'
p1546
sg16
S'4f93a4ba22f616a9ba31991b469b1f9c'
p1547
sa(dp1548
g2
S'37717'
p1549
sg4
S'7537'
p1550
sg6
S'716045ac0a643389933fb93fd735fce7'
p1551
sg8
S'xx3179829a087f8074ba0e2215a510401f'
p1552
sg10
S'xxd328304be2214906ecf8b73a7fd3448e'
p1553
sg12
S'xxdb8512bee0b316adb676f901d860b68b'
p1554
sg14
S'Mozilla/5.0 (Linux; Android 4.4.4; vivo Y23L Build/KTU84P) AppleWebKit/537.36 (KHTML, like Gecko) Version/4.0 Chrome/37.0.0.0 Mobile MQQBrowser/6.8 TBS/036849 Safari/537.36 MicroMessenger/6.3.27.880 NetType/WIFI Language/zh_CN'
p1555
sg16
S'4f93a4ba22f616a9ba31991b469b1f9c'
p1556
sa(dp1557
g2
S'4564'
p1558
sg4
S'7543'
p1559
sg6
S'd66c95a4c1c7aa3ad1fe1162a8491ff3'
p1560
sg8
S'xx223791dd5e472fc65a2ab414dffcd92a'
p1561
sg10
S'xxd328304be2214906ecf8b73a7fd3448e'
p1562
sg12
S'xxdb8512bee0b316adb676f901d860b68b'
p1563
sg14
S'Mozilla/5.0 (Linux; Android 4.4.4; vivo Y23L Build/KTU84P) AppleWebKit/537.36 (KHTML, like Gecko) Version/4.0 Chrome/37.0.0.0 Mobile MQQBrowser/6.8 TBS/036849 Safari/537.36 MicroMessenger/6.3.25.861 NetType/WIFI Language/zh_CN'
p1564
sg16
S'e0a694c97192c5e21d1387a91c9d86e9'
p1565
sa(dp1566
g2
S'4564'
p1567
sg4
S'7552'
p1568
sg6
S'd66c95a4c1c7aa3ad1fe1162a8491ff3'
p1569
sg8
S'xx223791dd5e472fc65a2ab414dffcd92a'
p1570
sg10
S'xxd328304be2214906ecf8b73a7fd3448e'
p1571
sg12
S'xxdb8512bee0b316adb676f901d860b68b'
p1572
sg14
S'Mozilla/5.0 (Linux; Android 4.4.4; vivo Y23L Build/KTU84P) AppleWebKit/537.36 (KHTML, like Gecko) Version/4.0 Chrome/37.0.0.0 Mobile MQQBrowser/6.8 TBS/036849 Safari/537.36 MicroMessenger/6.3.25.861 NetType/WIFI Language/zh_CN'
p1573
sg16
S'e0a694c97192c5e21d1387a91c9d86e9'
p1574
sa(dp1575
g2
S'4564'
p1576
sg4
S'7561'
p1577
sg6
S'd66c95a4c1c7aa3ad1fe1162a8491ff3'
p1578
sg8
S'xx223791dd5e472fc65a2ab414dffcd92a'
p1579
sg10
S'xxd328304be2214906ecf8b73a7fd3448e'
p1580
sg12
S'xxdb8512bee0b316adb676f901d860b68b'
p1581
sg14
S'Mozilla/5.0 (Linux; Android 4.4.4; vivo Y23L Build/KTU84P) AppleWebKit/537.36 (KHTML, like Gecko) Version/4.0 Chrome/37.0.0.0 Mobile MQQBrowser/6.8 TBS/036849 Safari/537.36 MicroMessenger/6.3.25.861 NetType/WIFI Language/zh_CN'
p1582
sg16
S'e0a694c97192c5e21d1387a91c9d86e9'
p1583
sa(dp1584
g2
S'37717'
p1585
sg4
S'7575'
p1586
sg6
S'716045ac0a643389933fb93fd735fce7'
p1587
sg8
S'xx3179829a087f8074ba0e2215a510401f'
p1588
sg10
S'xxd328304be2214906ecf8b73a7fd3448e'
p1589
sg12
S'xxdb8512bee0b316adb676f901d860b68b'
p1590
sg14
S'Mozilla/5.0 (Linux; Android 4.4.4; vivo Y23L Build/KTU84P) AppleWebKit/537.36 (KHTML, like Gecko) Version/4.0 Chrome/37.0.0.0 Mobile MQQBrowser/6.8 TBS/036849 Safari/537.36 MicroMessenger/6.3.27.880 NetType/WIFI Language/zh_CN'
p1591
sg16
S'4f93a4ba22f616a9ba31991b469b1f9c'
p1592
sa(dp1593
g2
S'4564'
p1594
sg4
S'7579'
p1595
sg6
S'd66c95a4c1c7aa3ad1fe1162a8491ff3'
p1596
sg8
S'xx223791dd5e472fc65a2ab414dffcd92a'
p1597
sg10
S'xxd328304be2214906ecf8b73a7fd3448e'
p1598
sg12
S'xxdb8512bee0b316adb676f901d860b68b'
p1599
sg14
S'Mozilla/5.0 (Linux; Android 4.4.4; vivo Y23L Build/KTU84P) AppleWebKit/537.36 (KHTML, like Gecko) Version/4.0 Chrome/37.0.0.0 Mobile MQQBrowser/6.8 TBS/036849 Safari/537.36 MicroMessenger/6.3.25.861 NetType/WIFI Language/zh_CN'
p1600
sg16
S'e0a694c97192c5e21d1387a91c9d86e9'
p1601
sa(dp1602
g2
S'4564'
p1603
sg4
S'7590'
p1604
sg6
S'd66c95a4c1c7aa3ad1fe1162a8491ff3'
p1605
sg8
S'xx223791dd5e472fc65a2ab414dffcd92a'
p1606
sg10
S'xxd328304be2214906ecf8b73a7fd3448e'
p1607
sg12
S'xxdb8512bee0b316adb676f901d860b68b'
p1608
sg14
S'Mozilla/5.0 (Linux; Android 4.4.4; vivo Y23L Build/KTU84P) AppleWebKit/537.36 (KHTML, like Gecko) Version/4.0 Chrome/37.0.0.0 Mobile MQQBrowser/6.8 TBS/036849 Safari/537.36 MicroMessenger/6.3.25.861 NetType/WIFI Language/zh_CN'
p1609
sg16
S'e0a694c97192c5e21d1387a91c9d86e9'
p1610
sa(dp1611
g2
S'37717'
p1612
sg4
S'7653'
p1613
sg6
S'716045ac0a643389933fb93fd735fce7'
p1614
sg8
S'xx3179829a087f8074ba0e2215a510401f'
p1615
sg10
S'xxd328304be2214906ecf8b73a7fd3448e'
p1616
sg12
S'xxdb8512bee0b316adb676f901d860b68b'
p1617
sg14
S'Mozilla/5.0 (Linux; Android 4.4.4; vivo Y23L Build/KTU84P) AppleWebKit/537.36 (KHTML, like Gecko) Version/4.0 Chrome/37.0.0.0 Mobile MQQBrowser/6.8 TBS/036849 Safari/537.36 MicroMessenger/6.3.27.880 NetType/WIFI Language/zh_CN'
p1618
sg16
S'4f93a4ba22f616a9ba31991b469b1f9c'
p1619
sa(dp1620
g2
S'37717'
p1621
sg4
S'7666'
p1622
sg6
S'716045ac0a643389933fb93fd735fce7'
p1623
sg8
S'xx3179829a087f8074ba0e2215a510401f'
p1624
sg10
S'xxd328304be2214906ecf8b73a7fd3448e'
p1625
sg12
S'xxdb8512bee0b316adb676f901d860b68b'
p1626
sg14
S'Mozilla/5.0 (Linux; Android 4.4.4; vivo Y23L Build/KTU84P) AppleWebKit/537.36 (KHTML, like Gecko) Version/4.0 Chrome/37.0.0.0 Mobile MQQBrowser/6.8 TBS/036849 Safari/537.36 MicroMessenger/6.3.27.880 NetType/WIFI Language/zh_CN'
p1627
sg16
S'4f93a4ba22f616a9ba31991b469b1f9c'
p1628
sa(dp1629
g2
S'37717'
p1630
sg4
S'7674'
p1631
sg6
S'716045ac0a643389933fb93fd735fce7'
p1632
sg8
S'xx3179829a087f8074ba0e2215a510401f'
p1633
sg10
S'xxd328304be2214906ecf8b73a7fd3448e'
p1634
sg12
S'xxdb8512bee0b316adb676f901d860b68b'
p1635
sg14
S'Mozilla/5.0 (Linux; Android 4.4.4; vivo Y23L Build/KTU84P) AppleWebKit/537.36 (KHTML, like Gecko) Version/4.0 Chrome/37.0.0.0 Mobile MQQBrowser/6.8 TBS/036849 Safari/537.36 MicroMessenger/6.3.27.880 NetType/WIFI Language/zh_CN'
p1636
sg16
S'4f93a4ba22f616a9ba31991b469b1f9c'
p1637
sa(dp1638
g2
S'37717'
p1639
sg4
S'7684'
p1640
sg6
S'716045ac0a643389933fb93fd735fce7'
p1641
sg8
S'xx3179829a087f8074ba0e2215a510401f'
p1642
sg10
S'xxd328304be2214906ecf8b73a7fd3448e'
p1643
sg12
S'xxdb8512bee0b316adb676f901d860b68b'
p1644
sg14
S'Mozilla/5.0 (Linux; Android 4.4.4; vivo Y23L Build/KTU84P) AppleWebKit/537.36 (KHTML, like Gecko) Version/4.0 Chrome/37.0.0.0 Mobile MQQBrowser/6.8 TBS/036849 Safari/537.36 MicroMessenger/6.3.27.880 NetType/WIFI Language/zh_CN'
p1645
sg16
S'4f93a4ba22f616a9ba31991b469b1f9c'
p1646
sa(dp1647
g2
S'26591'
p1648
sg4
S'7688'
p1649
sg6
S'0a073a53ff689fec701fd7701cf3a5e0'
p1650
sg8
S'xx223791dd5e472fc65a2ab414dffcd92a'
p1651
sg10
S'xxd328304be2214906ecf8b73a7fd3448e'
p1652
sg12
S'xxdb8512bee0b316adb676f901d860b68b'
p1653
sg14
S'Mozilla/5.0 (Linux; Android 4.4.4; vivo Y23L Build/KTU84P) AppleWebKit/537.36 (KHTML, like Gecko) Version/4.0 Chrome/37.0.0.0 Mobile MQQBrowser/6.8 TBS/036849 Safari/537.36 MicroMessenger/6.3.25.861 NetType/WIFI Language/zh_CN'
p1654
sg16
S'e0a694c97192c5e21d1387a91c9d86e9'
p1655
sa(dp1656
g2
S'37717'
p1657
sg4
S'7694'
p1658
sg6
S'716045ac0a643389933fb93fd735fce7'
p1659
sg8
S'xx3179829a087f8074ba0e2215a510401f'
p1660
sg10
S'xxd328304be2214906ecf8b73a7fd3448e'
p1661
sg12
S'xxdb8512bee0b316adb676f901d860b68b'
p1662
sg14
S'Mozilla/5.0 (Linux; Android 4.4.4; vivo Y23L Build/KTU84P) AppleWebKit/537.36 (KHTML, like Gecko) Version/4.0 Chrome/37.0.0.0 Mobile MQQBrowser/6.8 TBS/036849 Safari/537.36 MicroMessenger/6.3.27.880 NetType/WIFI Language/zh_CN'
p1663
sg16
S'4f93a4ba22f616a9ba31991b469b1f9c'
p1664
sa(dp1665
g2
S'26591'
p1666
sg4
S'7699'
p1667
sg6
S'0a073a53ff689fec701fd7701cf3a5e0'
p1668
sg8
S'xx223791dd5e472fc65a2ab414dffcd92a'
p1669
sg10
S'xxd328304be2214906ecf8b73a7fd3448e'
p1670
sg12
S'xxdb8512bee0b316adb676f901d860b68b'
p1671
sg14
S'Mozilla/5.0 (Linux; Android 4.4.4; vivo Y23L Build/KTU84P) AppleWebKit/537.36 (KHTML, like Gecko) Version/4.0 Chrome/37.0.0.0 Mobile MQQBrowser/6.8 TBS/036849 Safari/537.36 MicroMessenger/6.3.25.861 NetType/WIFI Language/zh_CN'
p1672
sg16
S'e0a694c97192c5e21d1387a91c9d86e9'
p1673
sa(dp1674
g2
S'37717'
p1675
sg4
S'7706'
p1676
sg6
S'716045ac0a643389933fb93fd735fce7'
p1677
sg8
S'xx3179829a087f8074ba0e2215a510401f'
p1678
sg10
S'xxd328304be2214906ecf8b73a7fd3448e'
p1679
sg12
S'xxdb8512bee0b316adb676f901d860b68b'
p1680
sg14
S'Mozilla/5.0 (Linux; Android 4.4.4; vivo Y23L Build/KTU84P) AppleWebKit/537.36 (KHTML, like Gecko) Version/4.0 Chrome/37.0.0.0 Mobile MQQBrowser/6.8 TBS/036849 Safari/537.36 MicroMessenger/6.3.27.880 NetType/WIFI Language/zh_CN'
p1681
sg16
S'4f93a4ba22f616a9ba31991b469b1f9c'
p1682
sa(dp1683
g2
S'37717'
p1684
sg4
S'7715'
p1685
sg6
S'716045ac0a643389933fb93fd735fce7'
p1686
sg8
S'xx3179829a087f8074ba0e2215a510401f'
p1687
sg10
S'xxd328304be2214906ecf8b73a7fd3448e'
p1688
sg12
S'xxdb8512bee0b316adb676f901d860b68b'
p1689
sg14
S'Mozilla/5.0 (Linux; Android 4.4.4; vivo Y23L Build/KTU84P) AppleWebKit/537.36 (KHTML, like Gecko) Version/4.0 Chrome/37.0.0.0 Mobile MQQBrowser/6.8 TBS/036849 Safari/537.36 MicroMessenger/6.3.27.880 NetType/WIFI Language/zh_CN'
p1690
sg16
S'4f93a4ba22f616a9ba31991b469b1f9c'
p1691
sa(dp1692
g2
S'37717'
p1693
sg4
S'7727'
p1694
sg6
S'716045ac0a643389933fb93fd735fce7'
p1695
sg8
S'xx3179829a087f8074ba0e2215a510401f'
p1696
sg10
S'xxd328304be2214906ecf8b73a7fd3448e'
p1697
sg12
S'xxdb8512bee0b316adb676f901d860b68b'
p1698
sg14
S'Mozilla/5.0 (Linux; Android 4.4.4; vivo Y23L Build/KTU84P) AppleWebKit/537.36 (KHTML, like Gecko) Version/4.0 Chrome/37.0.0.0 Mobile MQQBrowser/6.8 TBS/036849 Safari/537.36 MicroMessenger/6.3.27.880 NetType/WIFI Language/zh_CN'
p1699
sg16
S'4f93a4ba22f616a9ba31991b469b1f9c'
p1700
sa(dp1701
g2
S'37717'
p1702
sg4
S'7740'
p1703
sg6
S'716045ac0a643389933fb93fd735fce7'
p1704
sg8
S'xx3179829a087f8074ba0e2215a510401f'
p1705
sg10
S'xxd328304be2214906ecf8b73a7fd3448e'
p1706
sg12
S'xxdb8512bee0b316adb676f901d860b68b'
p1707
sg14
S'Mozilla/5.0 (Linux; Android 4.4.4; vivo Y23L Build/KTU84P) AppleWebKit/537.36 (KHTML, like Gecko) Version/4.0 Chrome/37.0.0.0 Mobile MQQBrowser/6.8 TBS/036849 Safari/537.36 MicroMessenger/6.3.27.880 NetType/WIFI Language/zh_CN'
p1708
sg16
S'4f93a4ba22f616a9ba31991b469b1f9c'
p1709
sa(dp1710
g2
S'37717'
p1711
sg4
S'7850'
p1712
sg6
S'716045ac0a643389933fb93fd735fce7'
p1713
sg8
S'xx3179829a087f8074ba0e2215a510401f'
p1714
sg10
S'xxd328304be2214906ecf8b73a7fd3448e'
p1715
sg12
S'xxdb8512bee0b316adb676f901d860b68b'
p1716
sg14
S'Mozilla/5.0 (Linux; Android 4.4.4; vivo Y23L Build/KTU84P) AppleWebKit/537.36 (KHTML, like Gecko) Version/4.0 Chrome/37.0.0.0 Mobile MQQBrowser/6.8 TBS/036849 Safari/537.36 MicroMessenger/6.3.27.880 NetType/WIFI Language/zh_CN'
p1717
sg16
S'4f93a4ba22f616a9ba31991b469b1f9c'
p1718
sa(dp1719
g2
S'37717'
p1720
sg4
S'7864'
p1721
sg6
S'716045ac0a643389933fb93fd735fce7'
p1722
sg8
S'xx3179829a087f8074ba0e2215a510401f'
p1723
sg10
S'xxd328304be2214906ecf8b73a7fd3448e'
p1724
sg12
S'xxdb8512bee0b316adb676f901d860b68b'
p1725
sg14
S'Mozilla/5.0 (Linux; Android 4.4.4; vivo Y23L Build/KTU84P) AppleWebKit/537.36 (KHTML, like Gecko) Version/4.0 Chrome/37.0.0.0 Mobile MQQBrowser/6.8 TBS/036849 Safari/537.36 MicroMessenger/6.3.27.880 NetType/WIFI Language/zh_CN'
p1726
sg16
S'4f93a4ba22f616a9ba31991b469b1f9c'
p1727
sa(dp1728
g2
S'37717'
p1729
sg4
S'7878'
p1730
sg6
S'716045ac0a643389933fb93fd735fce7'
p1731
sg8
S'xx3179829a087f8074ba0e2215a510401f'
p1732
sg10
S'xxd328304be2214906ecf8b73a7fd3448e'
p1733
sg12
S'xxdb8512bee0b316adb676f901d860b68b'
p1734
sg14
S'Mozilla/5.0 (Linux; Android 4.4.4; vivo Y23L Build/KTU84P) AppleWebKit/537.36 (KHTML, like Gecko) Version/4.0 Chrome/37.0.0.0 Mobile MQQBrowser/6.8 TBS/036849 Safari/537.36 MicroMessenger/6.3.27.880 NetType/WIFI Language/zh_CN'
p1735
sg16
S'4f93a4ba22f616a9ba31991b469b1f9c'
p1736
sa(dp1737
g2
S'37717'
p1738
sg4
S'7892'
p1739
sg6
S'716045ac0a643389933fb93fd735fce7'
p1740
sg8
S'xx3179829a087f8074ba0e2215a510401f'
p1741
sg10
S'xxd328304be2214906ecf8b73a7fd3448e'
p1742
sg12
S'xxdb8512bee0b316adb676f901d860b68b'
p1743
sg14
S'Mozilla/5.0 (Linux; Android 4.4.4; vivo Y23L Build/KTU84P) AppleWebKit/537.36 (KHTML, like Gecko) Version/4.0 Chrome/37.0.0.0 Mobile MQQBrowser/6.8 TBS/036849 Safari/537.36 MicroMessenger/6.3.27.880 NetType/WIFI Language/zh_CN'
p1744
sg16
S'4f93a4ba22f616a9ba31991b469b1f9c'
p1745
sa(dp1746
g2
S'37717'
p1747
sg4
S'7905'
p1748
sg6
S'716045ac0a643389933fb93fd735fce7'
p1749
sg8
S'xx3179829a087f8074ba0e2215a510401f'
p1750
sg10
S'xxd328304be2214906ecf8b73a7fd3448e'
p1751
sg12
S'xxdb8512bee0b316adb676f901d860b68b'
p1752
sg14
S'Mozilla/5.0 (Linux; Android 4.4.4; vivo Y23L Build/KTU84P) AppleWebKit/537.36 (KHTML, like Gecko) Version/4.0 Chrome/37.0.0.0 Mobile MQQBrowser/6.8 TBS/036849 Safari/537.36 MicroMessenger/6.3.27.880 NetType/WIFI Language/zh_CN'
p1753
sg16
S'4f93a4ba22f616a9ba31991b469b1f9c'
p1754
sa(dp1755
g2
S'37717'
p1756
sg4
S'7917'
p1757
sg6
S'716045ac0a643389933fb93fd735fce7'
p1758
sg8
S'xx3179829a087f8074ba0e2215a510401f'
p1759
sg10
S'xxd328304be2214906ecf8b73a7fd3448e'
p1760
sg12
S'xxdb8512bee0b316adb676f901d860b68b'
p1761
sg14
S'Mozilla/5.0 (Linux; Android 4.4.4; vivo Y23L Build/KTU84P) AppleWebKit/537.36 (KHTML, like Gecko) Version/4.0 Chrome/37.0.0.0 Mobile MQQBrowser/6.8 TBS/036849 Safari/537.36 MicroMessenger/6.3.27.880 NetType/WIFI Language/zh_CN'
p1762
sg16
S'4f93a4ba22f616a9ba31991b469b1f9c'
p1763
sa(dp1764
g2
S'37717'
p1765
sg4
S'7926'
p1766
sg6
S'716045ac0a643389933fb93fd735fce7'
p1767
sg8
S'xx3179829a087f8074ba0e2215a510401f'
p1768
sg10
S'xxd328304be2214906ecf8b73a7fd3448e'
p1769
sg12
S'xxdb8512bee0b316adb676f901d860b68b'
p1770
sg14
S'Mozilla/5.0 (Linux; Android 4.4.4; vivo Y23L Build/KTU84P) AppleWebKit/537.36 (KHTML, like Gecko) Version/4.0 Chrome/37.0.0.0 Mobile MQQBrowser/6.8 TBS/036849 Safari/537.36 MicroMessenger/6.3.27.880 NetType/WIFI Language/zh_CN'
p1771
sg16
S'4f93a4ba22f616a9ba31991b469b1f9c'
p1772
sa(dp1773
g2
S'37717'
p1774
sg4
S'7949'
p1775
sg6
S'716045ac0a643389933fb93fd735fce7'
p1776
sg8
S'xx3179829a087f8074ba0e2215a510401f'
p1777
sg10
S'xxd328304be2214906ecf8b73a7fd3448e'
p1778
sg12
S'xxdb8512bee0b316adb676f901d860b68b'
p1779
sg14
S'Mozilla/5.0 (Linux; Android 4.4.4; vivo Y23L Build/KTU84P) AppleWebKit/537.36 (KHTML, like Gecko) Version/4.0 Chrome/37.0.0.0 Mobile MQQBrowser/6.8 TBS/036849 Safari/537.36 MicroMessenger/6.3.27.880 NetType/WIFI Language/zh_CN'
p1780
sg16
S'4f93a4ba22f616a9ba31991b469b1f9c'
p1781
sa(dp1782
g2
S'37717'
p1783
sg4
S'7968'
p1784
sg6
S'716045ac0a643389933fb93fd735fce7'
p1785
sg8
S'xx3179829a087f8074ba0e2215a510401f'
p1786
sg10
S'xxd328304be2214906ecf8b73a7fd3448e'
p1787
sg12
S'xxdb8512bee0b316adb676f901d860b68b'
p1788
sg14
S'Mozilla/5.0 (Linux; Android 4.4.4; vivo Y23L Build/KTU84P) AppleWebKit/537.36 (KHTML, like Gecko) Version/4.0 Chrome/37.0.0.0 Mobile MQQBrowser/6.8 TBS/036849 Safari/537.36 MicroMessenger/6.3.27.880 NetType/WIFI Language/zh_CN'
p1789
sg16
S'4f93a4ba22f616a9ba31991b469b1f9c'
p1790
sa(dp1791
g2
S'37717'
p1792
sg4
S'7983'
p1793
sg6
S'716045ac0a643389933fb93fd735fce7'
p1794
sg8
S'xx3179829a087f8074ba0e2215a510401f'
p1795
sg10
S'xxd328304be2214906ecf8b73a7fd3448e'
p1796
sg12
S'xxdb8512bee0b316adb676f901d860b68b'
p1797
sg14
S'Mozilla/5.0 (Linux; Android 4.4.4; vivo Y23L Build/KTU84P) AppleWebKit/537.36 (KHTML, like Gecko) Version/4.0 Chrome/37.0.0.0 Mobile MQQBrowser/6.8 TBS/036849 Safari/537.36 MicroMessenger/6.3.27.880 NetType/WIFI Language/zh_CN'
p1798
sg16
S'4f93a4ba22f616a9ba31991b469b1f9c'
p1799
sa(dp1800
g2
S'37717'
p1801
sg4
S'7994'
p1802
sg6
S'716045ac0a643389933fb93fd735fce7'
p1803
sg8
S'xx3179829a087f8074ba0e2215a510401f'
p1804
sg10
S'xxd328304be2214906ecf8b73a7fd3448e'
p1805
sg12
S'xxdb8512bee0b316adb676f901d860b68b'
p1806
sg14
S'Mozilla/5.0 (Linux; Android 4.4.4; vivo Y23L Build/KTU84P) AppleWebKit/537.36 (KHTML, like Gecko) Version/4.0 Chrome/37.0.0.0 Mobile MQQBrowser/6.8 TBS/036849 Safari/537.36 MicroMessenger/6.3.27.880 NetType/WIFI Language/zh_CN'
p1807
sg16
S'4f93a4ba22f616a9ba31991b469b1f9c'
p1808
sa(dp1809
g2
S'9222'
p1810
sg4
S'8006'
p1811
sg6
S'95366a04ddecdc193e6348105c3b6cf9'
p1812
sg8
S'xx03ed21b6ac7394f2f4c10b2e01b12060'
p1813
sg10
S'xxd328304be2214906ecf8b73a7fd3448e'
p1814
sg12
S'xxdb8512bee0b316adb676f901d860b68b'
p1815
sg14
S'Mozilla/5.0 (Linux; Android 4.4.4; vivo Y23L Build/KTU84P) AppleWebKit/537.36 (KHTML, like Gecko) Version/4.0 Chrome/37.0.0.0 Mobile MQQBrowser/6.8 TBS/036849 Safari/537.36 MicroMessenger/6.3.25.861 NetType/cmnet Language/zh_CN'
p1816
sg16
S'd159e863546fb666c82377f8634f3fe4'
p1817
sa(dp1818
g2
S'37717'
p1819
sg4
S'8013'
p1820
sg6
S'716045ac0a643389933fb93fd735fce7'
p1821
sg8
S'xx3179829a087f8074ba0e2215a510401f'
p1822
sg10
S'xxd328304be2214906ecf8b73a7fd3448e'
p1823
sg12
S'xxdb8512bee0b316adb676f901d860b68b'
p1824
sg14
S'Mozilla/5.0 (Linux; Android 4.4.4; vivo Y23L Build/KTU84P) AppleWebKit/537.36 (KHTML, like Gecko) Version/4.0 Chrome/37.0.0.0 Mobile MQQBrowser/6.8 TBS/036849 Safari/537.36 MicroMessenger/6.3.27.880 NetType/WIFI Language/zh_CN'
p1825
sg16
S'4f93a4ba22f616a9ba31991b469b1f9c'
p1826
sa(dp1827
g2
S'9222'
p1828
sg4
S'8025'
p1829
sg6
S'95366a04ddecdc193e6348105c3b6cf9'
p1830
sg8
S'xx03ed21b6ac7394f2f4c10b2e01b12060'
p1831
sg10
S'xxd328304be2214906ecf8b73a7fd3448e'
p1832
sg12
S'xxdb8512bee0b316adb676f901d860b68b'
p1833
sg14
S'Mozilla/5.0 (Linux; Android 4.4.4; vivo Y23L Build/KTU84P) AppleWebKit/537.36 (KHTML, like Gecko) Version/4.0 Chrome/37.0.0.0 Mobile MQQBrowser/6.8 TBS/036849 Safari/537.36 MicroMessenger/6.3.25.861 NetType/cmnet Language/zh_CN'
p1834
sg16
S'd159e863546fb666c82377f8634f3fe4'
p1835
sa(dp1836
g2
S'37717'
p1837
sg4
S'8029'
p1838
sg6
S'716045ac0a643389933fb93fd735fce7'
p1839
sg8
S'xx3179829a087f8074ba0e2215a510401f'
p1840
sg10
S'xxd328304be2214906ecf8b73a7fd3448e'
p1841
sg12
S'xxdb8512bee0b316adb676f901d860b68b'
p1842
sg14
S'Mozilla/5.0 (Linux; Android 4.4.4; vivo Y23L Build/KTU84P) AppleWebKit/537.36 (KHTML, like Gecko) Version/4.0 Chrome/37.0.0.0 Mobile MQQBrowser/6.8 TBS/036849 Safari/537.36 MicroMessenger/6.3.27.880 NetType/WIFI Language/zh_CN'
p1843
sg16
S'4f93a4ba22f616a9ba31991b469b1f9c'
p1844
sa(dp1845
g2
S'37717'
p1846
sg4
S'8039'
p1847
sg6
S'716045ac0a643389933fb93fd735fce7'
p1848
sg8
S'xx3179829a087f8074ba0e2215a510401f'
p1849
sg10
S'xxd328304be2214906ecf8b73a7fd3448e'
p1850
sg12
S'xxdb8512bee0b316adb676f901d860b68b'
p1851
sg14
S'Mozilla/5.0 (Linux; Android 4.4.4; vivo Y23L Build/KTU84P) AppleWebKit/537.36 (KHTML, like Gecko) Version/4.0 Chrome/37.0.0.0 Mobile MQQBrowser/6.8 TBS/036849 Safari/537.36 MicroMessenger/6.3.27.880 NetType/WIFI Language/zh_CN'
p1852
sg16
S'4f93a4ba22f616a9ba31991b469b1f9c'
p1853
sa(dp1854
g2
S'37717'
p1855
sg4
S'8054'
p1856
sg6
S'716045ac0a643389933fb93fd735fce7'
p1857
sg8
S'xx3179829a087f8074ba0e2215a510401f'
p1858
sg10
S'xxd328304be2214906ecf8b73a7fd3448e'
p1859
sg12
S'xxdb8512bee0b316adb676f901d860b68b'
p1860
sg14
S'Mozilla/5.0 (Linux; Android 4.4.4; vivo Y23L Build/KTU84P) AppleWebKit/537.36 (KHTML, like Gecko) Version/4.0 Chrome/37.0.0.0 Mobile MQQBrowser/6.8 TBS/036849 Safari/537.36 MicroMessenger/6.3.27.880 NetType/WIFI Language/zh_CN'
p1861
sg16
S'4f93a4ba22f616a9ba31991b469b1f9c'
p1862
sa(dp1863
g2
S'37717'
p1864
sg4
S'8063'
p1865
sg6
S'716045ac0a643389933fb93fd735fce7'
p1866
sg8
S'xx3179829a087f8074ba0e2215a510401f'
p1867
sg10
S'xxd328304be2214906ecf8b73a7fd3448e'
p1868
sg12
S'xxdb8512bee0b316adb676f901d860b68b'
p1869
sg14
S'Mozilla/5.0 (Linux; Android 4.4.4; vivo Y23L Build/KTU84P) AppleWebKit/537.36 (KHTML, like Gecko) Version/4.0 Chrome/37.0.0.0 Mobile MQQBrowser/6.8 TBS/036849 Safari/537.36 MicroMessenger/6.3.27.880 NetType/WIFI Language/zh_CN'
p1870
sg16
S'4f93a4ba22f616a9ba31991b469b1f9c'
p1871
sa(dp1872
g2
S'37717'
p1873
sg4
S'8077'
p1874
sg6
S'716045ac0a643389933fb93fd735fce7'
p1875
sg8
S'xx3179829a087f8074ba0e2215a510401f'
p1876
sg10
S'xxd328304be2214906ecf8b73a7fd3448e'
p1877
sg12
S'xxdb8512bee0b316adb676f901d860b68b'
p1878
sg14
S'Mozilla/5.0 (Linux; Android 4.4.4; vivo Y23L Build/KTU84P) AppleWebKit/537.36 (KHTML, like Gecko) Version/4.0 Chrome/37.0.0.0 Mobile MQQBrowser/6.8 TBS/036849 Safari/537.36 MicroMessenger/6.3.27.880 NetType/WIFI Language/zh_CN'
p1879
sg16
S'4f93a4ba22f616a9ba31991b469b1f9c'
p1880
sa(dp1881
g2
S'37717'
p1882
sg4
S'8090'
p1883
sg6
S'716045ac0a643389933fb93fd735fce7'
p1884
sg8
S'xx3179829a087f8074ba0e2215a510401f'
p1885
sg10
S'xxd328304be2214906ecf8b73a7fd3448e'
p1886
sg12
S'xxdb8512bee0b316adb676f901d860b68b'
p1887
sg14
S'Mozilla/5.0 (Linux; Android 4.4.4; vivo Y23L Build/KTU84P) AppleWebKit/537.36 (KHTML, like Gecko) Version/4.0 Chrome/37.0.0.0 Mobile MQQBrowser/6.8 TBS/036849 Safari/537.36 MicroMessenger/6.3.27.880 NetType/WIFI Language/zh_CN'
p1888
sg16
S'4f93a4ba22f616a9ba31991b469b1f9c'
p1889
sa(dp1890
g2
S'37717'
p1891
sg4
S'8099'
p1892
sg6
S'716045ac0a643389933fb93fd735fce7'
p1893
sg8
S'xx3179829a087f8074ba0e2215a510401f'
p1894
sg10
S'xxd328304be2214906ecf8b73a7fd3448e'
p1895
sg12
S'xxdb8512bee0b316adb676f901d860b68b'
p1896
sg14
S'Mozilla/5.0 (Linux; Android 4.4.4; vivo Y23L Build/KTU84P) AppleWebKit/537.36 (KHTML, like Gecko) Version/4.0 Chrome/37.0.0.0 Mobile MQQBrowser/6.8 TBS/036849 Safari/537.36 MicroMessenger/6.3.27.880 NetType/WIFI Language/zh_CN'
p1897
sg16
S'4f93a4ba22f616a9ba31991b469b1f9c'
p1898
sa(dp1899
g2
S'26591'
p1900
sg4
S'8101'
p1901
sg6
S'0a073a53ff689fec701fd7701cf3a5e0'
p1902
sg8
S'xx223791dd5e472fc65a2ab414dffcd92a'
p1903
sg10
S'xxd328304be2214906ecf8b73a7fd3448e'
p1904
sg12
S'xxdb8512bee0b316adb676f901d860b68b'
p1905
sg14
S'Mozilla/5.0 (Linux; Android 4.4.4; vivo Y23L Build/KTU84P) AppleWebKit/537.36 (KHTML, like Gecko) Version/4.0 Chrome/37.0.0.0 Mobile MQQBrowser/6.8 TBS/036849 Safari/537.36 MicroMessenger/6.3.25.861 NetType/WIFI Language/zh_CN'
p1906
sg16
S'e0a694c97192c5e21d1387a91c9d86e9'
p1907
sa(dp1908
g2
S'37717'
p1909
sg4
S'8108'
p1910
sg6
S'716045ac0a643389933fb93fd735fce7'
p1911
sg8
S'xx3179829a087f8074ba0e2215a510401f'
p1912
sg10
S'xxd328304be2214906ecf8b73a7fd3448e'
p1913
sg12
S'xxdb8512bee0b316adb676f901d860b68b'
p1914
sg14
S'Mozilla/5.0 (Linux; Android 4.4.4; vivo Y23L Build/KTU84P) AppleWebKit/537.36 (KHTML, like Gecko) Version/4.0 Chrome/37.0.0.0 Mobile MQQBrowser/6.8 TBS/036849 Safari/537.36 MicroMessenger/6.3.27.880 NetType/WIFI Language/zh_CN'
p1915
sg16
S'4f93a4ba22f616a9ba31991b469b1f9c'
p1916
sa(dp1917
g2
S'26591'
p1918
sg4
S'8112'
p1919
sg6
S'0a073a53ff689fec701fd7701cf3a5e0'
p1920
sg8
S'xx223791dd5e472fc65a2ab414dffcd92a'
p1921
sg10
S'xxd328304be2214906ecf8b73a7fd3448e'
p1922
sg12
S'xxdb8512bee0b316adb676f901d860b68b'
p1923
sg14
S'Mozilla/5.0 (Linux; Android 4.4.4; vivo Y23L Build/KTU84P) AppleWebKit/537.36 (KHTML, like Gecko) Version/4.0 Chrome/37.0.0.0 Mobile MQQBrowser/6.8 TBS/036849 Safari/537.36 MicroMessenger/6.3.25.861 NetType/WIFI Language/zh_CN'
p1924
sg16
S'e0a694c97192c5e21d1387a91c9d86e9'
p1925
sa(dp1926
g2
S'37717'
p1927
sg4
S'8122'
p1928
sg6
S'716045ac0a643389933fb93fd735fce7'
p1929
sg8
S'xx3179829a087f8074ba0e2215a510401f'
p1930
sg10
S'xxd328304be2214906ecf8b73a7fd3448e'
p1931
sg12
S'xxdb8512bee0b316adb676f901d860b68b'
p1932
sg14
S'Mozilla/5.0 (Linux; Android 4.4.4; vivo Y23L Build/KTU84P) AppleWebKit/537.36 (KHTML, like Gecko) Version/4.0 Chrome/37.0.0.0 Mobile MQQBrowser/6.8 TBS/036849 Safari/537.36 MicroMessenger/6.3.27.880 NetType/WIFI Language/zh_CN'
p1933
sg16
S'4f93a4ba22f616a9ba31991b469b1f9c'
p1934
sa(dp1935
g2
S'37717'
p1936
sg4
S'8130'
p1937
sg6
S'716045ac0a643389933fb93fd735fce7'
p1938
sg8
S'xx3179829a087f8074ba0e2215a510401f'
p1939
sg10
S'xxd328304be2214906ecf8b73a7fd3448e'
p1940
sg12
S'xxdb8512bee0b316adb676f901d860b68b'
p1941
sg14
S'Mozilla/5.0 (Linux; Android 4.4.4; vivo Y23L Build/KTU84P) AppleWebKit/537.36 (KHTML, like Gecko) Version/4.0 Chrome/37.0.0.0 Mobile MQQBrowser/6.8 TBS/036849 Safari/537.36 MicroMessenger/6.3.27.880 NetType/WIFI Language/zh_CN'
p1942
sg16
S'4f93a4ba22f616a9ba31991b469b1f9c'
p1943
sa(dp1944
g2
S'37717'
p1945
sg4
S'8143'
p1946
sg6
S'716045ac0a643389933fb93fd735fce7'
p1947
sg8
S'xx3179829a087f8074ba0e2215a510401f'
p1948
sg10
S'xxd328304be2214906ecf8b73a7fd3448e'
p1949
sg12
S'xxdb8512bee0b316adb676f901d860b68b'
p1950
sg14
S'Mozilla/5.0 (Linux; Android 4.4.4; vivo Y23L Build/KTU84P) AppleWebKit/537.36 (KHTML, like Gecko) Version/4.0 Chrome/37.0.0.0 Mobile MQQBrowser/6.8 TBS/036849 Safari/537.36 MicroMessenger/6.3.27.880 NetType/WIFI Language/zh_CN'
p1951
sg16
S'4f93a4ba22f616a9ba31991b469b1f9c'
p1952
sa(dp1953
g2
S'37717'
p1954
sg4
S'8155'
p1955
sg6
S'716045ac0a643389933fb93fd735fce7'
p1956
sg8
S'xx3179829a087f8074ba0e2215a510401f'
p1957
sg10
S'xxd328304be2214906ecf8b73a7fd3448e'
p1958
sg12
S'xxdb8512bee0b316adb676f901d860b68b'
p1959
sg14
S'Mozilla/5.0 (Linux; Android 4.4.4; vivo Y23L Build/KTU84P) AppleWebKit/537.36 (KHTML, like Gecko) Version/4.0 Chrome/37.0.0.0 Mobile MQQBrowser/6.8 TBS/036849 Safari/537.36 MicroMessenger/6.3.27.880 NetType/WIFI Language/zh_CN'
p1960
sg16
S'4f93a4ba22f616a9ba31991b469b1f9c'
p1961
sa(dp1962
g2
S'37717'
p1963
sg4
S'8167'
p1964
sg6
S'716045ac0a643389933fb93fd735fce7'
p1965
sg8
S'xx3179829a087f8074ba0e2215a510401f'
p1966
sg10
S'xxd328304be2214906ecf8b73a7fd3448e'
p1967
sg12
S'xxdb8512bee0b316adb676f901d860b68b'
p1968
sg14
S'Mozilla/5.0 (Linux; Android 4.4.4; vivo Y23L Build/KTU84P) AppleWebKit/537.36 (KHTML, like Gecko) Version/4.0 Chrome/37.0.0.0 Mobile MQQBrowser/6.8 TBS/036849 Safari/537.36 MicroMessenger/6.3.27.880 NetType/WIFI Language/zh_CN'
p1969
sg16
S'4f93a4ba22f616a9ba31991b469b1f9c'
p1970
sa(dp1971
g2
S'37717'
p1972
sg4
S'8178'
p1973
sg6
S'716045ac0a643389933fb93fd735fce7'
p1974
sg8
S'xx3179829a087f8074ba0e2215a510401f'
p1975
sg10
S'xxd328304be2214906ecf8b73a7fd3448e'
p1976
sg12
S'xxdb8512bee0b316adb676f901d860b68b'
p1977
sg14
S'Mozilla/5.0 (Linux; Android 4.4.4; vivo Y23L Build/KTU84P) AppleWebKit/537.36 (KHTML, like Gecko) Version/4.0 Chrome/37.0.0.0 Mobile MQQBrowser/6.8 TBS/036849 Safari/537.36 MicroMessenger/6.3.27.880 NetType/WIFI Language/zh_CN'
p1978
sg16
S'4f93a4ba22f616a9ba31991b469b1f9c'
p1979
sa(dp1980
g2
S'37717'
p1981
sg4
S'8189'
p1982
sg6
S'716045ac0a643389933fb93fd735fce7'
p1983
sg8
S'xx3179829a087f8074ba0e2215a510401f'
p1984
sg10
S'xxd328304be2214906ecf8b73a7fd3448e'
p1985
sg12
S'xxdb8512bee0b316adb676f901d860b68b'
p1986
sg14
S'Mozilla/5.0 (Linux; Android 4.4.4; vivo Y23L Build/KTU84P) AppleWebKit/537.36 (KHTML, like Gecko) Version/4.0 Chrome/37.0.0.0 Mobile MQQBrowser/6.8 TBS/036849 Safari/537.36 MicroMessenger/6.3.27.880 NetType/WIFI Language/zh_CN'
p1987
sg16
S'4f93a4ba22f616a9ba31991b469b1f9c'
p1988
sa(dp1989
g2
S'37717'
p1990
sg4
S'8204'
p1991
sg6
S'716045ac0a643389933fb93fd735fce7'
p1992
sg8
S'xx3179829a087f8074ba0e2215a510401f'
p1993
sg10
S'xxd328304be2214906ecf8b73a7fd3448e'
p1994
sg12
S'xxdb8512bee0b316adb676f901d860b68b'
p1995
sg14
S'Mozilla/5.0 (Linux; Android 4.4.4; vivo Y23L Build/KTU84P) AppleWebKit/537.36 (KHTML, like Gecko) Version/4.0 Chrome/37.0.0.0 Mobile MQQBrowser/6.8 TBS/036849 Safari/537.36 MicroMessenger/6.3.27.880 NetType/WIFI Language/zh_CN'
p1996
sg16
S'4f93a4ba22f616a9ba31991b469b1f9c'
p1997
sa(dp1998
g2
S'37717'
p1999
sg4
S'8221'
p2000
sg6
S'716045ac0a643389933fb93fd735fce7'
p2001
sg8
S'xx3179829a087f8074ba0e2215a510401f'
p2002
sg10
S'xxd328304be2214906ecf8b73a7fd3448e'
p2003
sg12
S'xxdb8512bee0b316adb676f901d860b68b'
p2004
sg14
S'Mozilla/5.0 (Linux; Android 4.4.4; vivo Y23L Build/KTU84P) AppleWebKit/537.36 (KHTML, like Gecko) Version/4.0 Chrome/37.0.0.0 Mobile MQQBrowser/6.8 TBS/036849 Safari/537.36 MicroMessenger/6.3.27.880 NetType/WIFI Language/zh_CN'
p2005
sg16
S'4f93a4ba22f616a9ba31991b469b1f9c'
p2006
sa(dp2007
g2
S'37717'
p2008
sg4
S'8230'
p2009
sg6
S'716045ac0a643389933fb93fd735fce7'
p2010
sg8
S'xx3179829a087f8074ba0e2215a510401f'
p2011
sg10
S'xxd328304be2214906ecf8b73a7fd3448e'
p2012
sg12
S'xxdb8512bee0b316adb676f901d860b68b'
p2013
sg14
S'Mozilla/5.0 (Linux; Android 4.4.4; vivo Y23L Build/KTU84P) AppleWebKit/537.36 (KHTML, like Gecko) Version/4.0 Chrome/37.0.0.0 Mobile MQQBrowser/6.8 TBS/036849 Safari/537.36 MicroMessenger/6.3.27.880 NetType/WIFI Language/zh_CN'
p2014
sg16
S'4f93a4ba22f616a9ba31991b469b1f9c'
p2015
sa(dp2016
g2
S'37717'
p2017
sg4
S'8237'
p2018
sg6
S'716045ac0a643389933fb93fd735fce7'
p2019
sg8
S'xx3179829a087f8074ba0e2215a510401f'
p2020
sg10
S'xxd328304be2214906ecf8b73a7fd3448e'
p2021
sg12
S'xxdb8512bee0b316adb676f901d860b68b'
p2022
sg14
S'Mozilla/5.0 (Linux; Android 4.4.4; vivo Y23L Build/KTU84P) AppleWebKit/537.36 (KHTML, like Gecko) Version/4.0 Chrome/37.0.0.0 Mobile MQQBrowser/6.8 TBS/036849 Safari/537.36 MicroMessenger/6.3.27.880 NetType/WIFI Language/zh_CN'
p2023
sg16
S'4f93a4ba22f616a9ba31991b469b1f9c'
p2024
sa(dp2025
g2
S'37717'
p2026
sg4
S'8254'
p2027
sg6
S'716045ac0a643389933fb93fd735fce7'
p2028
sg8
S'xx3179829a087f8074ba0e2215a510401f'
p2029
sg10
S'xxd328304be2214906ecf8b73a7fd3448e'
p2030
sg12
S'xxdb8512bee0b316adb676f901d860b68b'
p2031
sg14
S'Mozilla/5.0 (Linux; Android 4.4.4; vivo Y23L Build/KTU84P) AppleWebKit/537.36 (KHTML, like Gecko) Version/4.0 Chrome/37.0.0.0 Mobile MQQBrowser/6.8 TBS/036849 Safari/537.36 MicroMessenger/6.3.27.880 NetType/WIFI Language/zh_CN'
p2032
sg16
S'4f93a4ba22f616a9ba31991b469b1f9c'
p2033
sa(dp2034
g2
S'37717'
p2035
sg4
S'8270'
p2036
sg6
S'716045ac0a643389933fb93fd735fce7'
p2037
sg8
S'xx3179829a087f8074ba0e2215a510401f'
p2038
sg10
S'xxd328304be2214906ecf8b73a7fd3448e'
p2039
sg12
S'xxdb8512bee0b316adb676f901d860b68b'
p2040
sg14
S'Mozilla/5.0 (Linux; Android 4.4.4; vivo Y23L Build/KTU84P) AppleWebKit/537.36 (KHTML, like Gecko) Version/4.0 Chrome/37.0.0.0 Mobile MQQBrowser/6.8 TBS/036849 Safari/537.36 MicroMessenger/6.3.27.880 NetType/WIFI Language/zh_CN'
p2041
sg16
S'4f93a4ba22f616a9ba31991b469b1f9c'
p2042
sa(dp2043
g2
S'37717'
p2044
sg4
S'8283'
p2045
sg6
S'716045ac0a643389933fb93fd735fce7'
p2046
sg8
S'xx3179829a087f8074ba0e2215a510401f'
p2047
sg10
S'xxd328304be2214906ecf8b73a7fd3448e'
p2048
sg12
S'xxdb8512bee0b316adb676f901d860b68b'
p2049
sg14
S'Mozilla/5.0 (Linux; Android 4.4.4; vivo Y23L Build/KTU84P) AppleWebKit/537.36 (KHTML, like Gecko) Version/4.0 Chrome/37.0.0.0 Mobile MQQBrowser/6.8 TBS/036849 Safari/537.36 MicroMessenger/6.3.27.880 NetType/WIFI Language/zh_CN'
p2050
sg16
S'4f93a4ba22f616a9ba31991b469b1f9c'
p2051
sa(dp2052
g2
S'37717'
p2053
sg4
S'8294'
p2054
sg6
S'716045ac0a643389933fb93fd735fce7'
p2055
sg8
S'xx3179829a087f8074ba0e2215a510401f'
p2056
sg10
S'xxd328304be2214906ecf8b73a7fd3448e'
p2057
sg12
S'xxdb8512bee0b316adb676f901d860b68b'
p2058
sg14
S'Mozilla/5.0 (Linux; Android 4.4.4; vivo Y23L Build/KTU84P) AppleWebKit/537.36 (KHTML, like Gecko) Version/4.0 Chrome/37.0.0.0 Mobile MQQBrowser/6.8 TBS/036849 Safari/537.36 MicroMessenger/6.3.27.880 NetType/WIFI Language/zh_CN'
p2059
sg16
S'4f93a4ba22f616a9ba31991b469b1f9c'
p2060
sa(dp2061
g2
S'37717'
p2062
sg4
S'8304'
p2063
sg6
S'716045ac0a643389933fb93fd735fce7'
p2064
sg8
S'xx3179829a087f8074ba0e2215a510401f'
p2065
sg10
S'xxd328304be2214906ecf8b73a7fd3448e'
p2066
sg12
S'xxdb8512bee0b316adb676f901d860b68b'
p2067
sg14
S'Mozilla/5.0 (Linux; Android 4.4.4; vivo Y23L Build/KTU84P) AppleWebKit/537.36 (KHTML, like Gecko) Version/4.0 Chrome/37.0.0.0 Mobile MQQBrowser/6.8 TBS/036849 Safari/537.36 MicroMessenger/6.3.27.880 NetType/WIFI Language/zh_CN'
p2068
sg16
S'4f93a4ba22f616a9ba31991b469b1f9c'
p2069
sa(dp2070
g2
S'37717'
p2071
sg4
S'8313'
p2072
sg6
S'716045ac0a643389933fb93fd735fce7'
p2073
sg8
S'xx3179829a087f8074ba0e2215a510401f'
p2074
sg10
S'xxd328304be2214906ecf8b73a7fd3448e'
p2075
sg12
S'xxdb8512bee0b316adb676f901d860b68b'
p2076
sg14
S'Mozilla/5.0 (Linux; Android 4.4.4; vivo Y23L Build/KTU84P) AppleWebKit/537.36 (KHTML, like Gecko) Version/4.0 Chrome/37.0.0.0 Mobile MQQBrowser/6.8 TBS/036849 Safari/537.36 MicroMessenger/6.3.27.880 NetType/WIFI Language/zh_CN'
p2077
sg16
S'4f93a4ba22f616a9ba31991b469b1f9c'
p2078
sa(dp2079
g2
S'37717'
p2080
sg4
S'8383'
p2081
sg6
S'716045ac0a643389933fb93fd735fce7'
p2082
sg8
S'xx3179829a087f8074ba0e2215a510401f'
p2083
sg10
S'xxd328304be2214906ecf8b73a7fd3448e'
p2084
sg12
S'xxdb8512bee0b316adb676f901d860b68b'
p2085
sg14
S'Mozilla/5.0 (Linux; Android 4.4.4; vivo Y23L Build/KTU84P) AppleWebKit/537.36 (KHTML, like Gecko) Version/4.0 Chrome/37.0.0.0 Mobile MQQBrowser/6.8 TBS/036849 Safari/537.36 MicroMessenger/6.3.27.880 NetType/WIFI Language/zh_CN'
p2086
sg16
S'4f93a4ba22f616a9ba31991b469b1f9c'
p2087
sa(dp2088
g2
S'37717'
p2089
sg4
S'8415'
p2090
sg6
S'716045ac0a643389933fb93fd735fce7'
p2091
sg8
S'xx3179829a087f8074ba0e2215a510401f'
p2092
sg10
S'xxd328304be2214906ecf8b73a7fd3448e'
p2093
sg12
S'xxdb8512bee0b316adb676f901d860b68b'
p2094
sg14
S'Mozilla/5.0 (Linux; Android 4.4.4; vivo Y23L Build/KTU84P) AppleWebKit/537.36 (KHTML, like Gecko) Version/4.0 Chrome/37.0.0.0 Mobile MQQBrowser/6.8 TBS/036849 Safari/537.36 MicroMessenger/6.3.27.880 NetType/WIFI Language/zh_CN'
p2095
sg16
S'4f93a4ba22f616a9ba31991b469b1f9c'
p2096
sa(dp2097
g2
S'37717'
p2098
sg4
S'8424'
p2099
sg6
S'716045ac0a643389933fb93fd735fce7'
p2100
sg8
S'xx3179829a087f8074ba0e2215a510401f'
p2101
sg10
S'xxd328304be2214906ecf8b73a7fd3448e'
p2102
sg12
S'xxdb8512bee0b316adb676f901d860b68b'
p2103
sg14
S'Mozilla/5.0 (Linux; Android 4.4.4; vivo Y23L Build/KTU84P) AppleWebKit/537.36 (KHTML, like Gecko) Version/4.0 Chrome/37.0.0.0 Mobile MQQBrowser/6.8 TBS/036849 Safari/537.36 MicroMessenger/6.3.27.880 NetType/WIFI Language/zh_CN'
p2104
sg16
S'4f93a4ba22f616a9ba31991b469b1f9c'
p2105
sa(dp2106
g2
S'37717'
p2107
sg4
S'8436'
p2108
sg6
S'716045ac0a643389933fb93fd735fce7'
p2109
sg8
S'xx3179829a087f8074ba0e2215a510401f'
p2110
sg10
S'xxd328304be2214906ecf8b73a7fd3448e'
p2111
sg12
S'xxdb8512bee0b316adb676f901d860b68b'
p2112
sg14
S'Mozilla/5.0 (Linux; Android 4.4.4; vivo Y23L Build/KTU84P) AppleWebKit/537.36 (KHTML, like Gecko) Version/4.0 Chrome/37.0.0.0 Mobile MQQBrowser/6.8 TBS/036849 Safari/537.36 MicroMessenger/6.3.27.880 NetType/WIFI Language/zh_CN'
p2113
sg16
S'4f93a4ba22f616a9ba31991b469b1f9c'
p2114
sa(dp2115
g2
S'37717'
p2116
sg4
S'8449'
p2117
sg6
S'716045ac0a643389933fb93fd735fce7'
p2118
sg8
S'xx3179829a087f8074ba0e2215a510401f'
p2119
sg10
S'xxd328304be2214906ecf8b73a7fd3448e'
p2120
sg12
S'xxdb8512bee0b316adb676f901d860b68b'
p2121
sg14
S'Mozilla/5.0 (Linux; Android 4.4.4; vivo Y23L Build/KTU84P) AppleWebKit/537.36 (KHTML, like Gecko) Version/4.0 Chrome/37.0.0.0 Mobile MQQBrowser/6.8 TBS/036849 Safari/537.36 MicroMessenger/6.3.27.880 NetType/WIFI Language/zh_CN'
p2122
sg16
S'4f93a4ba22f616a9ba31991b469b1f9c'
p2123
sa(dp2124
g2
S'37717'
p2125
sg4
S'8462'
p2126
sg6
S'716045ac0a643389933fb93fd735fce7'
p2127
sg8
S'xx3179829a087f8074ba0e2215a510401f'
p2128
sg10
S'xxd328304be2214906ecf8b73a7fd3448e'
p2129
sg12
S'xxdb8512bee0b316adb676f901d860b68b'
p2130
sg14
S'Mozilla/5.0 (Linux; Android 4.4.4; vivo Y23L Build/KTU84P) AppleWebKit/537.36 (KHTML, like Gecko) Version/4.0 Chrome/37.0.0.0 Mobile MQQBrowser/6.8 TBS/036849 Safari/537.36 MicroMessenger/6.3.27.880 NetType/WIFI Language/zh_CN'
p2131
sg16
S'4f93a4ba22f616a9ba31991b469b1f9c'
p2132
sa(dp2133
g2
S'37717'
p2134
sg4
S'8474'
p2135
sg6
S'716045ac0a643389933fb93fd735fce7'
p2136
sg8
S'xx3179829a087f8074ba0e2215a510401f'
p2137
sg10
S'xxd328304be2214906ecf8b73a7fd3448e'
p2138
sg12
S'xxdb8512bee0b316adb676f901d860b68b'
p2139
sg14
S'Mozilla/5.0 (Linux; Android 4.4.4; vivo Y23L Build/KTU84P) AppleWebKit/537.36 (KHTML, like Gecko) Version/4.0 Chrome/37.0.0.0 Mobile MQQBrowser/6.8 TBS/036849 Safari/537.36 MicroMessenger/6.3.27.880 NetType/WIFI Language/zh_CN'
p2140
sg16
S'4f93a4ba22f616a9ba31991b469b1f9c'
p2141
sa(dp2142
g2
S'37717'
p2143
sg4
S'8482'
p2144
sg6
S'716045ac0a643389933fb93fd735fce7'
p2145
sg8
S'xx3179829a087f8074ba0e2215a510401f'
p2146
sg10
S'xxd328304be2214906ecf8b73a7fd3448e'
p2147
sg12
S'xxdb8512bee0b316adb676f901d860b68b'
p2148
sg14
S'Mozilla/5.0 (Linux; Android 4.4.4; vivo Y23L Build/KTU84P) AppleWebKit/537.36 (KHTML, like Gecko) Version/4.0 Chrome/37.0.0.0 Mobile MQQBrowser/6.8 TBS/036849 Safari/537.36 MicroMessenger/6.3.27.880 NetType/WIFI Language/zh_CN'
p2149
sg16
S'4f93a4ba22f616a9ba31991b469b1f9c'
p2150
sa(dp2151
g2
S'37717'
p2152
sg4
S'8491'
p2153
sg6
S'716045ac0a643389933fb93fd735fce7'
p2154
sg8
S'xx3179829a087f8074ba0e2215a510401f'
p2155
sg10
S'xxd328304be2214906ecf8b73a7fd3448e'
p2156
sg12
S'xxdb8512bee0b316adb676f901d860b68b'
p2157
sg14
S'Mozilla/5.0 (Linux; Android 4.4.4; vivo Y23L Build/KTU84P) AppleWebKit/537.36 (KHTML, like Gecko) Version/4.0 Chrome/37.0.0.0 Mobile MQQBrowser/6.8 TBS/036849 Safari/537.36 MicroMessenger/6.3.27.880 NetType/WIFI Language/zh_CN'
p2158
sg16
S'4f93a4ba22f616a9ba31991b469b1f9c'
p2159
sa(dp2160
g2
S'37717'
p2161
sg4
S'8500'
p2162
sg6
S'716045ac0a643389933fb93fd735fce7'
p2163
sg8
S'xx3179829a087f8074ba0e2215a510401f'
p2164
sg10
S'xxd328304be2214906ecf8b73a7fd3448e'
p2165
sg12
S'xxdb8512bee0b316adb676f901d860b68b'
p2166
sg14
S'Mozilla/5.0 (Linux; Android 4.4.4; vivo Y23L Build/KTU84P) AppleWebKit/537.36 (KHTML, like Gecko) Version/4.0 Chrome/37.0.0.0 Mobile MQQBrowser/6.8 TBS/036849 Safari/537.36 MicroMessenger/6.3.27.880 NetType/WIFI Language/zh_CN'
p2167
sg16
S'4f93a4ba22f616a9ba31991b469b1f9c'
p2168
sa(dp2169
g2
S'37717'
p2170
sg4
S'8510'
p2171
sg6
S'716045ac0a643389933fb93fd735fce7'
p2172
sg8
S'xx3179829a087f8074ba0e2215a510401f'
p2173
sg10
S'xxd328304be2214906ecf8b73a7fd3448e'
p2174
sg12
S'xxdb8512bee0b316adb676f901d860b68b'
p2175
sg14
S'Mozilla/5.0 (Linux; Android 4.4.4; vivo Y23L Build/KTU84P) AppleWebKit/537.36 (KHTML, like Gecko) Version/4.0 Chrome/37.0.0.0 Mobile MQQBrowser/6.8 TBS/036849 Safari/537.36 MicroMessenger/6.3.27.880 NetType/WIFI Language/zh_CN'
p2176
sg16
S'4f93a4ba22f616a9ba31991b469b1f9c'
p2177
sa(dp2178
g2
S'37717'
p2179
sg4
S'8519'
p2180
sg6
S'716045ac0a643389933fb93fd735fce7'
p2181
sg8
S'xx3179829a087f8074ba0e2215a510401f'
p2182
sg10
S'xxd328304be2214906ecf8b73a7fd3448e'
p2183
sg12
S'xxdb8512bee0b316adb676f901d860b68b'
p2184
sg14
S'Mozilla/5.0 (Linux; Android 4.4.4; vivo Y23L Build/KTU84P) AppleWebKit/537.36 (KHTML, like Gecko) Version/4.0 Chrome/37.0.0.0 Mobile MQQBrowser/6.8 TBS/036849 Safari/537.36 MicroMessenger/6.3.27.880 NetType/WIFI Language/zh_CN'
p2185
sg16
S'4f93a4ba22f616a9ba31991b469b1f9c'
p2186
sa(dp2187
g2
S'37717'
p2188
sg4
S'8532'
p2189
sg6
S'716045ac0a643389933fb93fd735fce7'
p2190
sg8
S'xx3179829a087f8074ba0e2215a510401f'
p2191
sg10
S'xxd328304be2214906ecf8b73a7fd3448e'
p2192
sg12
S'xxdb8512bee0b316adb676f901d860b68b'
p2193
sg14
S'Mozilla/5.0 (Linux; Android 4.4.4; vivo Y23L Build/KTU84P) AppleWebKit/537.36 (KHTML, like Gecko) Version/4.0 Chrome/37.0.0.0 Mobile MQQBrowser/6.8 TBS/036849 Safari/537.36 MicroMessenger/6.3.27.880 NetType/WIFI Language/zh_CN'
p2194
sg16
S'4f93a4ba22f616a9ba31991b469b1f9c'
p2195
sa(dp2196
g2
S'37717'
p2197
sg4
S'8548'
p2198
sg6
S'716045ac0a643389933fb93fd735fce7'
p2199
sg8
S'xx3179829a087f8074ba0e2215a510401f'
p2200
sg10
S'xxd328304be2214906ecf8b73a7fd3448e'
p2201
sg12
S'xxdb8512bee0b316adb676f901d860b68b'
p2202
sg14
S'Mozilla/5.0 (Linux; Android 4.4.4; vivo Y23L Build/KTU84P) AppleWebKit/537.36 (KHTML, like Gecko) Version/4.0 Chrome/37.0.0.0 Mobile MQQBrowser/6.8 TBS/036849 Safari/537.36 MicroMessenger/6.3.27.880 NetType/WIFI Language/zh_CN'
p2203
sg16
S'4f93a4ba22f616a9ba31991b469b1f9c'
p2204
sa(dp2205
g2
S'37717'
p2206
sg4
S'8565'
p2207
sg6
S'716045ac0a643389933fb93fd735fce7'
p2208
sg8
S'xx3179829a087f8074ba0e2215a510401f'
p2209
sg10
S'xxd328304be2214906ecf8b73a7fd3448e'
p2210
sg12
S'xxdb8512bee0b316adb676f901d860b68b'
p2211
sg14
S'Mozilla/5.0 (Linux; Android 4.4.4; vivo Y23L Build/KTU84P) AppleWebKit/537.36 (KHTML, like Gecko) Version/4.0 Chrome/37.0.0.0 Mobile MQQBrowser/6.8 TBS/036849 Safari/537.36 MicroMessenger/6.3.27.880 NetType/WIFI Language/zh_CN'
p2212
sg16
S'4f93a4ba22f616a9ba31991b469b1f9c'
p2213
sa(dp2214
g2
S'37717'
p2215
sg4
S'8575'
p2216
sg6
S'716045ac0a643389933fb93fd735fce7'
p2217
sg8
S'xx3179829a087f8074ba0e2215a510401f'
p2218
sg10
S'xxd328304be2214906ecf8b73a7fd3448e'
p2219
sg12
S'xxdb8512bee0b316adb676f901d860b68b'
p2220
sg14
S'Mozilla/5.0 (Linux; Android 4.4.4; vivo Y23L Build/KTU84P) AppleWebKit/537.36 (KHTML, like Gecko) Version/4.0 Chrome/37.0.0.0 Mobile MQQBrowser/6.8 TBS/036849 Safari/537.36 MicroMessenger/6.3.27.880 NetType/WIFI Language/zh_CN'
p2221
sg16
S'4f93a4ba22f616a9ba31991b469b1f9c'
p2222
sa(dp2223
g2
S'37717'
p2224
sg4
S'8592'
p2225
sg6
S'716045ac0a643389933fb93fd735fce7'
p2226
sg8
S'xx3179829a087f8074ba0e2215a510401f'
p2227
sg10
S'xxd328304be2214906ecf8b73a7fd3448e'
p2228
sg12
S'xxdb8512bee0b316adb676f901d860b68b'
p2229
sg14
S'Mozilla/5.0 (Linux; Android 4.4.4; vivo Y23L Build/KTU84P) AppleWebKit/537.36 (KHTML, like Gecko) Version/4.0 Chrome/37.0.0.0 Mobile MQQBrowser/6.8 TBS/036849 Safari/537.36 MicroMessenger/6.3.27.880 NetType/WIFI Language/zh_CN'
p2230
sg16
S'4f93a4ba22f616a9ba31991b469b1f9c'
p2231
sa(dp2232
g2
S'26591'
p2233
sg4
S'8600'
p2234
sg6
S'0a073a53ff689fec701fd7701cf3a5e0'
p2235
sg8
S'xx223791dd5e472fc65a2ab414dffcd92a'
p2236
sg10
S'xxd328304be2214906ecf8b73a7fd3448e'
p2237
sg12
S'xxdb8512bee0b316adb676f901d860b68b'
p2238
sg14
S'Mozilla/5.0 (Linux; Android 4.4.4; vivo Y23L Build/KTU84P) AppleWebKit/537.36 (KHTML, like Gecko) Version/4.0 Chrome/37.0.0.0 Mobile MQQBrowser/6.8 TBS/036849 Safari/537.36 MicroMessenger/6.3.25.861 NetType/WIFI Language/zh_CN'
p2239
sg16
S'e0a694c97192c5e21d1387a91c9d86e9'
p2240
sa(dp2241
g2
S'37717'
p2242
sg4
S'8614'
p2243
sg6
S'716045ac0a643389933fb93fd735fce7'
p2244
sg8
S'xx3179829a087f8074ba0e2215a510401f'
p2245
sg10
S'xxd328304be2214906ecf8b73a7fd3448e'
p2246
sg12
S'xxdb8512bee0b316adb676f901d860b68b'
p2247
sg14
S'Mozilla/5.0 (Linux; Android 4.4.4; vivo Y23L Build/KTU84P) AppleWebKit/537.36 (KHTML, like Gecko) Version/4.0 Chrome/37.0.0.0 Mobile MQQBrowser/6.8 TBS/036849 Safari/537.36 MicroMessenger/6.3.27.880 NetType/WIFI Language/zh_CN'
p2248
sg16
S'4f93a4ba22f616a9ba31991b469b1f9c'
p2249
sa(dp2250
g2
S'26591'
p2251
sg4
S'8620'
p2252
sg6
S'0a073a53ff689fec701fd7701cf3a5e0'
p2253
sg8
S'xx223791dd5e472fc65a2ab414dffcd92a'
p2254
sg10
S'xxd328304be2214906ecf8b73a7fd3448e'
p2255
sg12
S'xxdb8512bee0b316adb676f901d860b68b'
p2256
sg14
S'Mozilla/5.0 (Linux; Android 4.4.4; vivo Y23L Build/KTU84P) AppleWebKit/537.36 (KHTML, like Gecko) Version/4.0 Chrome/37.0.0.0 Mobile MQQBrowser/6.8 TBS/036849 Safari/537.36 MicroMessenger/6.3.25.861 NetType/WIFI Language/zh_CN'
p2257
sg16
S'e0a694c97192c5e21d1387a91c9d86e9'
p2258
sa(dp2259
g2
S'37717'
p2260
sg4
S'8633'
p2261
sg6
S'716045ac0a643389933fb93fd735fce7'
p2262
sg8
S'xx3179829a087f8074ba0e2215a510401f'
p2263
sg10
S'xxd328304be2214906ecf8b73a7fd3448e'
p2264
sg12
S'xxdb8512bee0b316adb676f901d860b68b'
p2265
sg14
S'Mozilla/5.0 (Linux; Android 4.4.4; vivo Y23L Build/KTU84P) AppleWebKit/537.36 (KHTML, like Gecko) Version/4.0 Chrome/37.0.0.0 Mobile MQQBrowser/6.8 TBS/036849 Safari/537.36 MicroMessenger/6.3.27.880 NetType/WIFI Language/zh_CN'
p2266
sg16
S'4f93a4ba22f616a9ba31991b469b1f9c'
p2267
sa(dp2268
g2
S'29679'
p2269
sg4
S'8646'
p2270
sg6
S'cfb17fbc28c2dd50823277fab4d3864d'
p2271
sg8
S'xx3179829a087f8074ba0e2215a510401f'
p2272
sg10
S'xxd328304be2214906ecf8b73a7fd3448e'
p2273
sg12
S'xxdb8512bee0b316adb676f901d860b68b'
p2274
sg14
S'Mozilla/5.0 (Linux; Android 4.4.4; vivo Y23L Build/KTU84P) AppleWebKit/537.36 (KHTML, like Gecko) Version/4.0 Chrome/37.0.0.0 Mobile MQQBrowser/6.8 TBS/036849 Safari/537.36 MicroMessenger/6.3.27.880 NetType/WIFI Language/zh_CN'
p2275
sg16
S'4f93a4ba22f616a9ba31991b469b1f9c'
p2276
sa(dp2277
g2
S'37717'
p2278
sg4
S'8648'
p2279
sg6
S'716045ac0a643389933fb93fd735fce7'
p2280
sg8
S'xx3179829a087f8074ba0e2215a510401f'
p2281
sg10
S'xxd328304be2214906ecf8b73a7fd3448e'
p2282
sg12
S'xxdb8512bee0b316adb676f901d860b68b'
p2283
sg14
S'Mozilla/5.0 (Linux; Android 4.4.4; vivo Y23L Build/KTU84P) AppleWebKit/537.36 (KHTML, like Gecko) Version/4.0 Chrome/37.0.0.0 Mobile MQQBrowser/6.8 TBS/036849 Safari/537.36 MicroMessenger/6.3.27.880 NetType/WIFI Language/zh_CN'
p2284
sg16
S'4f93a4ba22f616a9ba31991b469b1f9c'
p2285
sa(dp2286
g2
S'37717'
p2287
sg4
S'8662'
p2288
sg6
S'716045ac0a643389933fb93fd735fce7'
p2289
sg8
S'xx3179829a087f8074ba0e2215a510401f'
p2290
sg10
S'xxd328304be2214906ecf8b73a7fd3448e'
p2291
sg12
S'xxdb8512bee0b316adb676f901d860b68b'
p2292
sg14
S'Mozilla/5.0 (Linux; Android 4.4.4; vivo Y23L Build/KTU84P) AppleWebKit/537.36 (KHTML, like Gecko) Version/4.0 Chrome/37.0.0.0 Mobile MQQBrowser/6.8 TBS/036849 Safari/537.36 MicroMessenger/6.3.27.880 NetType/WIFI Language/zh_CN'
p2293
sg16
S'4f93a4ba22f616a9ba31991b469b1f9c'
p2294
sa(dp2295
g2
S'29679'
p2296
sg4
S'8663'
p2297
sg6
S'cfb17fbc28c2dd50823277fab4d3864d'
p2298
sg8
S'xx3179829a087f8074ba0e2215a510401f'
p2299
sg10
S'xxd328304be2214906ecf8b73a7fd3448e'
p2300
sg12
S'xxdb8512bee0b316adb676f901d860b68b'
p2301
sg14
S'Mozilla/5.0 (Linux; Android 4.4.4; vivo Y23L Build/KTU84P) AppleWebKit/537.36 (KHTML, like Gecko) Version/4.0 Chrome/37.0.0.0 Mobile MQQBrowser/6.8 TBS/036849 Safari/537.36 MicroMessenger/6.3.27.880 NetType/WIFI Language/zh_CN'
p2302
sg16
S'4f93a4ba22f616a9ba31991b469b1f9c'
p2303
sa(dp2304
g2
S'37717'
p2305
sg4
S'8684'
p2306
sg6
S'716045ac0a643389933fb93fd735fce7'
p2307
sg8
S'xx3179829a087f8074ba0e2215a510401f'
p2308
sg10
S'xxd328304be2214906ecf8b73a7fd3448e'
p2309
sg12
S'xxdb8512bee0b316adb676f901d860b68b'
p2310
sg14
S'Mozilla/5.0 (Linux; Android 4.4.4; vivo Y23L Build/KTU84P) AppleWebKit/537.36 (KHTML, like Gecko) Version/4.0 Chrome/37.0.0.0 Mobile MQQBrowser/6.8 TBS/036849 Safari/537.36 MicroMessenger/6.3.27.880 NetType/WIFI Language/zh_CN'
p2311
sg16
S'4f93a4ba22f616a9ba31991b469b1f9c'
p2312
sa(dp2313
g2
S'29679'
p2314
sg4
S'8695'
p2315
sg6
S'cfb17fbc28c2dd50823277fab4d3864d'
p2316
sg8
S'xx3179829a087f8074ba0e2215a510401f'
p2317
sg10
S'xxd328304be2214906ecf8b73a7fd3448e'
p2318
sg12
S'xxdb8512bee0b316adb676f901d860b68b'
p2319
sg14
S'Mozilla/5.0 (Linux; Android 4.4.4; vivo Y23L Build/KTU84P) AppleWebKit/537.36 (KHTML, like Gecko) Version/4.0 Chrome/37.0.0.0 Mobile MQQBrowser/6.8 TBS/036849 Safari/537.36 MicroMessenger/6.3.27.880 NetType/WIFI Language/zh_CN'
p2320
sg16
S'4f93a4ba22f616a9ba31991b469b1f9c'
p2321
sa(dp2322
g2
S'37717'
p2323
sg4
S'8701'
p2324
sg6
S'716045ac0a643389933fb93fd735fce7'
p2325
sg8
S'xx3179829a087f8074ba0e2215a510401f'
p2326
sg10
S'xxd328304be2214906ecf8b73a7fd3448e'
p2327
sg12
S'xxdb8512bee0b316adb676f901d860b68b'
p2328
sg14
S'Mozilla/5.0 (Linux; Android 4.4.4; vivo Y23L Build/KTU84P) AppleWebKit/537.36 (KHTML, like Gecko) Version/4.0 Chrome/37.0.0.0 Mobile MQQBrowser/6.8 TBS/036849 Safari/537.36 MicroMessenger/6.3.27.880 NetType/WIFI Language/zh_CN'
p2329
sg16
S'4f93a4ba22f616a9ba31991b469b1f9c'
p2330
sa(dp2331
g2
S'37717'
p2332
sg4
S'8718'
p2333
sg6
S'716045ac0a643389933fb93fd735fce7'
p2334
sg8
S'xx3179829a087f8074ba0e2215a510401f'
p2335
sg10
S'xxd328304be2214906ecf8b73a7fd3448e'
p2336
sg12
S'xxdb8512bee0b316adb676f901d860b68b'
p2337
sg14
S'Mozilla/5.0 (Linux; Android 4.4.4; vivo Y23L Build/KTU84P) AppleWebKit/537.36 (KHTML, like Gecko) Version/4.0 Chrome/37.0.0.0 Mobile MQQBrowser/6.8 TBS/036849 Safari/537.36 MicroMessenger/6.3.27.880 NetType/WIFI Language/zh_CN'
p2338
sg16
S'4f93a4ba22f616a9ba31991b469b1f9c'
p2339
sa(dp2340
g2
S'37717'
p2341
sg4
S'8732'
p2342
sg6
S'716045ac0a643389933fb93fd735fce7'
p2343
sg8
S'xx3179829a087f8074ba0e2215a510401f'
p2344
sg10
S'xxd328304be2214906ecf8b73a7fd3448e'
p2345
sg12
S'xxdb8512bee0b316adb676f901d860b68b'
p2346
sg14
S'Mozilla/5.0 (Linux; Android 4.4.4; vivo Y23L Build/KTU84P) AppleWebKit/537.36 (KHTML, like Gecko) Version/4.0 Chrome/37.0.0.0 Mobile MQQBrowser/6.8 TBS/036849 Safari/537.36 MicroMessenger/6.3.27.880 NetType/WIFI Language/zh_CN'
p2347
sg16
S'4f93a4ba22f616a9ba31991b469b1f9c'
p2348
sa(dp2349
g2
S'29679'
p2350
sg4
S'8740'
p2351
sg6
S'cfb17fbc28c2dd50823277fab4d3864d'
p2352
sg8
S'xx3179829a087f8074ba0e2215a510401f'
p2353
sg10
S'xxd328304be2214906ecf8b73a7fd3448e'
p2354
sg12
S'xxdb8512bee0b316adb676f901d860b68b'
p2355
sg14
S'Mozilla/5.0 (Linux; Android 4.4.4; vivo Y23L Build/KTU84P) AppleWebKit/537.36 (KHTML, like Gecko) Version/4.0 Chrome/37.0.0.0 Mobile MQQBrowser/6.8 TBS/036849 Safari/537.36 MicroMessenger/6.3.27.880 NetType/WIFI Language/zh_CN'
p2356
sg16
S'4f93a4ba22f616a9ba31991b469b1f9c'
p2357
sa(dp2358
g2
S'29679'
p2359
sg4
S'8757'
p2360
sg6
S'cfb17fbc28c2dd50823277fab4d3864d'
p2361
sg8
S'xx3179829a087f8074ba0e2215a510401f'
p2362
sg10
S'xxd328304be2214906ecf8b73a7fd3448e'
p2363
sg12
S'xxdb8512bee0b316adb676f901d860b68b'
p2364
sg14
S'Mozilla/5.0 (Linux; Android 4.4.4; vivo Y23L Build/KTU84P) AppleWebKit/537.36 (KHTML, like Gecko) Version/4.0 Chrome/37.0.0.0 Mobile MQQBrowser/6.8 TBS/036849 Safari/537.36 MicroMessenger/6.3.27.880 NetType/WIFI Language/zh_CN'
p2365
sg16
S'4f93a4ba22f616a9ba31991b469b1f9c'
p2366
sa.