(lp0
(dp1
S'user_id'
p2
S'8595'
p3
sS'data_id'
p4
S'4196'
p5
sS'ip'
p6
S'708a3148993aef78f359887719545de8'
p7
sS'phone_B'
p8
S'xxf0907b67d5f70d1632252fc010975186'
p9
sS'phone_C'
p10
S'xx8967acb073f8141451d9f4db1d59f08b'
p11
sS'phone_A'
p12
S'xxdc385e4208633185527e6febad131494'
p13
sS'user_agent'
p14
S'Mozilla/5.0 (Linux; Android 4.3; vivo Y18L Build/JLS36C) AppleWebKit/537.36 (KHTML, like Gecko) Version/4.0 Chrome/37.0.0.0 Mobile MQQBrowser/6.8 TBS/036849 Safari/537.36 MicroMessenger/6.3.27.880 NetType/WIFI Language/zh_CN'
p15
sS'ua'
p16
S'0bf52bfd3df5404dd86d01ba25a2175e'
p17
sa(dp18
g2
S'8595'
p19
sg4
S'4219'
p20
sg6
S'708a3148993aef78f359887719545de8'
p21
sg8
S'xxf0907b67d5f70d1632252fc010975186'
p22
sg10
S'xx8967acb073f8141451d9f4db1d59f08b'
p23
sg12
S'xxdc385e4208633185527e6febad131494'
p24
sg14
S'Mozilla/5.0 (Linux; Android 4.3; vivo Y18L Build/JLS36C) AppleWebKit/537.36 (KHTML, like Gecko) Version/4.0 Chrome/37.0.0.0 Mobile MQQBrowser/6.8 TBS/036849 Safari/537.36 MicroMessenger/6.3.27.880 NetType/WIFI Language/zh_CN'
p25
sg16
S'0bf52bfd3df5404dd86d01ba25a2175e'
p26
sa(dp27
g2
S'21853'
p28
sg4
S'4383'
p29
sg6
S'708a3148993aef78f359887719545de8'
p30
sg8
S'xxf0907b67d5f70d1632252fc010975186'
p31
sg10
S'xx8967acb073f8141451d9f4db1d59f08b'
p32
sg12
S'xxdc385e4208633185527e6febad131494'
p33
sg14
S'Mozilla/5.0 (Linux; Android 4.3; vivo Y18L Build/JLS36C) AppleWebKit/537.36 (KHTML, like Gecko) Version/4.0 Chrome/37.0.0.0 Mobile MQQBrowser/6.8 TBS/036849 Safari/537.36 MicroMessenger/6.3.27.880 NetType/WIFI Language/zh_CN'
p34
sg16
S'0bf52bfd3df5404dd86d01ba25a2175e'
p35
sa(dp36
g2
S'21853'
p37
sg4
S'4409'
p38
sg6
S'708a3148993aef78f359887719545de8'
p39
sg8
S'xxf0907b67d5f70d1632252fc010975186'
p40
sg10
S'xx8967acb073f8141451d9f4db1d59f08b'
p41
sg12
S'xxdc385e4208633185527e6febad131494'
p42
sg14
S'Mozilla/5.0 (Linux; Android 4.3; vivo Y18L Build/JLS36C) AppleWebKit/537.36 (KHTML, like Gecko) Version/4.0 Chrome/37.0.0.0 Mobile MQQBrowser/6.8 TBS/036849 Safari/537.36 MicroMessenger/6.3.27.880 NetType/WIFI Language/zh_CN'
p43
sg16
S'0bf52bfd3df5404dd86d01ba25a2175e'
p44
sa.