(lp0
(dp1
S'user_id'
p2
S'46666'
p3
sS'data_id'
p4
S'5731'
p5
sS'ip'
p6
S'307e5f8471dc4baa1c40a466550658f2'
p7
sS'phone_B'
p8
S'xxc89020d761959f05bb01d1c235b6dd1b'
p9
sS'phone_C'
p10
S'xx2adf3e3470a5aea8372c77808537a599'
p11
sS'phone_A'
p12
S'xxdd29009a9a884952c3e0679147c54fca'
p13
sS'user_agent'
p14
S'Mozilla/5.0 (Linux; Android 6.0.1; MI 3W Build/MMB29M) AppleWebKit/537.36 (KHTML, like Gecko) Version/4.0 Chrome/37.0.0.0 Mobile MQQBrowser/6.8 TBS/036849 Safari/537.36 MicroMessenger/6.3.27.880 NetType/WIFI Language/zh_CN'
p15
sS'ua'
p16
S'ad98896ca9f96e45d011d5638395a6bf'
p17
sa(dp18
g2
S'46666'
p19
sg4
S'5745'
p20
sg6
S'307e5f8471dc4baa1c40a466550658f2'
p21
sg8
S'xxc89020d761959f05bb01d1c235b6dd1b'
p22
sg10
S'xx2adf3e3470a5aea8372c77808537a599'
p23
sg12
S'xxdd29009a9a884952c3e0679147c54fca'
p24
sg14
S'Mozilla/5.0 (Linux; Android 6.0.1; MI 3W Build/MMB29M) AppleWebKit/537.36 (KHTML, like Gecko) Version/4.0 Chrome/37.0.0.0 Mobile MQQBrowser/6.8 TBS/036849 Safari/537.36 MicroMessenger/6.3.27.880 NetType/WIFI Language/zh_CN'
p25
sg16
S'ad98896ca9f96e45d011d5638395a6bf'
p26
sa(dp27
g2
S'46666'
p28
sg4
S'5828'
p29
sg6
S'307e5f8471dc4baa1c40a466550658f2'
p30
sg8
S'xxc89020d761959f05bb01d1c235b6dd1b'
p31
sg10
S'xx2adf3e3470a5aea8372c77808537a599'
p32
sg12
S'xxdd29009a9a884952c3e0679147c54fca'
p33
sg14
S'Mozilla/5.0 (Linux; Android 6.0.1; MI 3W Build/MMB29M) AppleWebKit/537.36 (KHTML, like Gecko) Version/4.0 Chrome/37.0.0.0 Mobile MQQBrowser/6.8 TBS/036849 Safari/537.36 MicroMessenger/6.3.27.880 NetType/WIFI Language/zh_CN'
p34
sg16
S'ad98896ca9f96e45d011d5638395a6bf'
p35
sa.