(lp0
(dp1
S'user_id'
p2
S'30416'
p3
sS'data_id'
p4
S'7943'
p5
sS'ip'
p6
S'84c6fea1a0efc618b52a026523e50a51'
p7
sS'phone_B'
p8
S'xx54d4a8f61dd831ea562d0b5f56195df3'
p9
sS'phone_C'
p10
S'xxa2688a2f031d413266952588af165010'
p11
sS'phone_A'
p12
S'xxdec31ea52a598fd9690c98be4df3553b'
p13
sS'user_agent'
p14
S'Mozilla/5.0 (Linux; Android 5.1; 8676-M01 Build/LMY47D) AppleWebKit/537.36 (KHTML, like Gecko) Version/4.0 Chrome/37.0.0.0 Mobile MQQBrowser/6.8 TBS/036849 Safari/537.36 MicroMessenger/6.3.27.880 NetType/WIFI Language/zh_CN'
p15
sS'ua'
p16
S'b8bcccd3aef9f57eaef8e25b579516ea'
p17
sa(dp18
g2
S'30416'
p19
sg4
S'7962'
p20
sg6
S'84c6fea1a0efc618b52a026523e50a51'
p21
sg8
S'xx54d4a8f61dd831ea562d0b5f56195df3'
p22
sg10
S'xxa2688a2f031d413266952588af165010'
p23
sg12
S'xxdec31ea52a598fd9690c98be4df3553b'
p24
sg14
S'Mozilla/5.0 (Linux; Android 5.1; 8676-M01 Build/LMY47D) AppleWebKit/537.36 (KHTML, like Gecko) Version/4.0 Chrome/37.0.0.0 Mobile MQQBrowser/6.8 TBS/036849 Safari/537.36 MicroMessenger/6.3.27.880 NetType/WIFI Language/zh_CN'
p25
sg16
S'b8bcccd3aef9f57eaef8e25b579516ea'
p26
sa.