(lp0
(dp1
S'user_id'
p2
S'10137'
p3
sS'data_id'
p4
S'1459'
p5
sS'ip'
p6
S'9a3bb90ea999051f1b5a6584aa020244'
p7
sS'phone_B'
p8
S'xx10b7387c9f71849804a5fdcb864810d2'
p9
sS'phone_C'
p10
S'xx2da8485c6853606868e36d9fe927aa81'
p11
sS'phone_A'
p12
S'xxdffc4f640c4b5496a1a241515a9c6a0d'
p13
sS'user_agent'
p14
S'Mozilla/5.0 (Linux; Android 6.0.1; Redmi 3X Build/MMB29M) AppleWebKit/537.36 (KHTML, like Gecko) Version/4.0 Chrome/37.0.0.0 Mobile MQQBrowser/6.8 TBS/036824 Safari/537.36 MicroMessenger/6.3.25.861 NetType/WIFI Language/zh_CN'
p15
sS'ua'
p16
S'cc455090b785331e0da6c88bbc145f55'
p17
sa(dp18
g2
S'10137'
p19
sg4
S'1476'
p20
sg6
S'9a3bb90ea999051f1b5a6584aa020244'
p21
sg8
S'xx10b7387c9f71849804a5fdcb864810d2'
p22
sg10
S'xx2da8485c6853606868e36d9fe927aa81'
p23
sg12
S'xxdffc4f640c4b5496a1a241515a9c6a0d'
p24
sg14
S'Mozilla/5.0 (Linux; Android 6.0.1; Redmi 3X Build/MMB29M) AppleWebKit/537.36 (KHTML, like Gecko) Version/4.0 Chrome/37.0.0.0 Mobile MQQBrowser/6.8 TBS/036824 Safari/537.36 MicroMessenger/6.3.25.861 NetType/WIFI Language/zh_CN'
p25
sg16
S'cc455090b785331e0da6c88bbc145f55'
p26
sa.