(lp0
(dp1
S'user_id'
p2
S'49832'
p3
sS'data_id'
p4
S'7389'
p5
sS'ip'
p6
S'6d68c4e9dec13ada3f6b36e367528dae'
p7
sS'phone_B'
p8
S'xx89f9578fc10a50d2fcfbf5ad007719e5'
p9
sS'phone_C'
p10
S'xxa08ef96bf76b77805513e806b52f05f2'
p11
sS'phone_A'
p12
S'xxe0330360be493f1d9fc6d544b9ee05a9'
p13
sS'user_agent'
p14
S'Mozilla/5.0 (Linux; Android 4.4.4; HUAWEI Y635-CL00 Build/HuaweiY635-CL00) AppleWebKit/537.36 (KHTML, like Gecko) Version/4.0 Chrome/37.0.0.0 Mobile MQQBrowser/6.8 TBS/036849 Safari/537.36 MicroMessenger/6.3.27.880 NetType/WIFI Language/zh_CN'
p15
sS'ua'
p16
S'9c323476c89ae819fff0aeec84cf71ed'
p17
sa(dp18
g2
S'49832'
p19
sg4
S'7400'
p20
sg6
S'6d68c4e9dec13ada3f6b36e367528dae'
p21
sg8
S'xx89f9578fc10a50d2fcfbf5ad007719e5'
p22
sg10
S'xxa08ef96bf76b77805513e806b52f05f2'
p23
sg12
S'xxe0330360be493f1d9fc6d544b9ee05a9'
p24
sg14
S'Mozilla/5.0 (Linux; Android 4.4.4; HUAWEI Y635-CL00 Build/HuaweiY635-CL00) AppleWebKit/537.36 (KHTML, like Gecko) Version/4.0 Chrome/37.0.0.0 Mobile MQQBrowser/6.8 TBS/036849 Safari/537.36 MicroMessenger/6.3.27.880 NetType/WIFI Language/zh_CN'
p25
sg16
S'9c323476c89ae819fff0aeec84cf71ed'
p26
sa(dp27
g2
S'49832'
p28
sg4
S'7415'
p29
sg6
S'6d68c4e9dec13ada3f6b36e367528dae'
p30
sg8
S'xx89f9578fc10a50d2fcfbf5ad007719e5'
p31
sg10
S'xxa08ef96bf76b77805513e806b52f05f2'
p32
sg12
S'xxe0330360be493f1d9fc6d544b9ee05a9'
p33
sg14
S'Mozilla/5.0 (Linux; Android 4.4.4; HUAWEI Y635-CL00 Build/HuaweiY635-CL00) AppleWebKit/537.36 (KHTML, like Gecko) Version/4.0 Chrome/37.0.0.0 Mobile MQQBrowser/6.8 TBS/036849 Safari/537.36 MicroMessenger/6.3.27.880 NetType/WIFI Language/zh_CN'
p34
sg16
S'9c323476c89ae819fff0aeec84cf71ed'
p35
sa.