(lp0
(dp1
S'user_id'
p2
S'29184'
p3
sS'data_id'
p4
S'55'
p5
sS'ip'
p6
S'23de9190342c3b40de9a7f14295f4b21'
p7
sS'phone_B'
p8
S'xx538bbe3f5c8dc6c7d725402b962abb8b'
p9
sS'phone_C'
p10
S'xxd9087b7cfb123a34278000eb05b0e18f'
p11
sS'phone_A'
p12
S'xxe36383f860d3cfa4599192c1771a2eb6'
p13
sS'user_agent'
p14
S'Mozilla/5.0 (Linux; Android 4.4.4; MI 4LTE Build/KTU84P) AppleWebKit/537.36 (KHTML, like Gecko) Version/4.0 Chrome/37.0.0.0 Mobile MQQBrowser/6.8 TBS/036849 Safari/537.36 MicroMessenger/6.3.27.880 NetType/cmnet Language/zh_CN'
p15
sS'ua'
p16
S'8b43d7c20459ebb746ffe574d84c61ee'
p17
sa(dp18
g2
S'29184'
p19
sg4
S'64'
p20
sg6
S'23de9190342c3b40de9a7f14295f4b21'
p21
sg8
S'xx538bbe3f5c8dc6c7d725402b962abb8b'
p22
sg10
S'xxd9087b7cfb123a34278000eb05b0e18f'
p23
sg12
S'xxe36383f860d3cfa4599192c1771a2eb6'
p24
sg14
S'Mozilla/5.0 (Linux; Android 4.4.4; MI 4LTE Build/KTU84P) AppleWebKit/537.36 (KHTML, like Gecko) Version/4.0 Chrome/37.0.0.0 Mobile MQQBrowser/6.8 TBS/036849 Safari/537.36 MicroMessenger/6.3.27.880 NetType/cmnet Language/zh_CN'
p25
sg16
S'8b43d7c20459ebb746ffe574d84c61ee'
p26
sa(dp27
g2
S'33969'
p28
sg4
S'3976'
p29
sg6
S'491619f9ef6526dda7bec20830f71546'
p30
sg8
S'xx538bbe3f5c8dc6c7d725402b962abb8b'
p31
sg10
S'xxd9087b7cfb123a34278000eb05b0e18f'
p32
sg12
S'xxe36383f860d3cfa4599192c1771a2eb6'
p33
sg14
S'Mozilla/5.0 (Linux; Android 4.4.4; MI 4LTE Build/KTU84P) AppleWebKit/537.36 (KHTML, like Gecko) Version/4.0 Chrome/37.0.0.0 Mobile MQQBrowser/6.8 TBS/036849 Safari/537.36 MicroMessenger/6.3.27.880 NetType/cmnet Language/zh_CN'
p34
sg16
S'8b43d7c20459ebb746ffe574d84c61ee'
p35
sa(dp36
g2
S'33969'
p37
sg4
S'3994'
p38
sg6
S'491619f9ef6526dda7bec20830f71546'
p39
sg8
S'xx538bbe3f5c8dc6c7d725402b962abb8b'
p40
sg10
S'xxd9087b7cfb123a34278000eb05b0e18f'
p41
sg12
S'xxe36383f860d3cfa4599192c1771a2eb6'
p42
sg14
S'Mozilla/5.0 (Linux; Android 4.4.4; MI 4LTE Build/KTU84P) AppleWebKit/537.36 (KHTML, like Gecko) Version/4.0 Chrome/37.0.0.0 Mobile MQQBrowser/6.8 TBS/036849 Safari/537.36 MicroMessenger/6.3.27.880 NetType/cmnet Language/zh_CN'
p43
sg16
S'8b43d7c20459ebb746ffe574d84c61ee'
p44
sa(dp45
g2
S'37112'
p46
sg4
S'7325'
p47
sg6
S'567a48f383bf8ae54546d6f84c4dd08c'
p48
sg8
S'xxdcd592e20519ca7fe57b66471d80f9a3'
p49
sg10
S'xxd9087b7cfb123a34278000eb05b0e18f'
p50
sg12
S'xxe36383f860d3cfa4599192c1771a2eb6'
p51
sg14
S'Mozilla/5.0 (Linux; Android 4.4.4; MI 4LTE Build/KTU84P) AppleWebKit/537.36 (KHTML, like Gecko) Version/4.0 Chrome/37.0.0.0 Mobile MQQBrowser/6.8 TBS/036849 Safari/537.36 MicroMessenger/6.3.27.880 NetType/WIFI Language/zh_CN'
p52
sg16
S'09be0061b89a592760a97d37b7e9c0c1'
p53
sa(dp54
g2
S'37112'
p55
sg4
S'7338'
p56
sg6
S'567a48f383bf8ae54546d6f84c4dd08c'
p57
sg8
S'xxdcd592e20519ca7fe57b66471d80f9a3'
p58
sg10
S'xxd9087b7cfb123a34278000eb05b0e18f'
p59
sg12
S'xxe36383f860d3cfa4599192c1771a2eb6'
p60
sg14
S'Mozilla/5.0 (Linux; Android 4.4.4; MI 4LTE Build/KTU84P) AppleWebKit/537.36 (KHTML, like Gecko) Version/4.0 Chrome/37.0.0.0 Mobile MQQBrowser/6.8 TBS/036849 Safari/537.36 MicroMessenger/6.3.27.880 NetType/WIFI Language/zh_CN'
p61
sg16
S'09be0061b89a592760a97d37b7e9c0c1'
p62
sa.