(lp0
(dp1
S'user_id'
p2
S'48530'
p3
sS'data_id'
p4
S'4579'
p5
sS'ip'
p6
S'a38b964f7cd6bdea4d1e77add114ccd7'
p7
sS'phone_B'
p8
S'xx7e2b608da4de35123c5dc89bf3d2ec6e'
p9
sS'phone_C'
p10
S'xx72e6a961b44e9a5cd4e5b0b8556ddd63'
p11
sS'phone_A'
p12
S'xxe5f67a045e8538b1b9993a8242c83fca'
p13
sS'user_agent'
p14
S'Mozilla/5.0 (Linux; Android 4.4.4; R8107 Build/KTU84P) AppleWebKit/537.36 (KHTML, like Gecko) Version/4.0 Chrome/37.0.0.0 Mobile MQQBrowser/6.8 TBS/036849 Safari/537.36 MicroMessenger/6.3.25.861 NetType/cmnet Language/zh_CN'
p15
sS'ua'
p16
S'14d46a31b10db09317c336628023b4b2'
p17
sa(dp18
g2
S'48530'
p19
sg4
S'4598'
p20
sg6
S'a38b964f7cd6bdea4d1e77add114ccd7'
p21
sg8
S'xx7e2b608da4de35123c5dc89bf3d2ec6e'
p22
sg10
S'xx72e6a961b44e9a5cd4e5b0b8556ddd63'
p23
sg12
S'xxe5f67a045e8538b1b9993a8242c83fca'
p24
sg14
S'Mozilla/5.0 (Linux; Android 4.4.4; R8107 Build/KTU84P) AppleWebKit/537.36 (KHTML, like Gecko) Version/4.0 Chrome/37.0.0.0 Mobile MQQBrowser/6.8 TBS/036849 Safari/537.36 MicroMessenger/6.3.25.861 NetType/cmnet Language/zh_CN'
p25
sg16
S'14d46a31b10db09317c336628023b4b2'
p26
sa.