(lp0
(dp1
S'user_id'
p2
S'47826'
p3
sS'data_id'
p4
S'6126'
p5
sS'ip'
p6
S'a5b44b593f8f8dbc9d4ef18a119f70cf'
p7
sS'phone_B'
p8
S'xx5ffeb6a16c09406c706fe12ca465a796'
p9
sS'phone_C'
p10
S'xxb16f7e31886ba5a3a1d7a508ac923641'
p11
sS'phone_A'
p12
S'xxe521cb10325ee7ce66ebe87289a827b9'
p13
sS'user_agent'
p14
S'Mozilla/5.0 (Linux; Android 4.4.2; NFT Build/KOT49H) AppleWebKit/537.36 (KHTML, like Gecko) Version/4.0 Chrome/37.0.0.0 Mobile MQQBrowser/6.8 TBS/036869 Safari/537.36 MicroMessenger/6.3.27.880 NetType/WIFI Language/zh_CN'
p15
sS'ua'
p16
S'ba6e53187993594c1d75ced332fdaaf8'
p17
sa(dp18
g2
S'47826'
p19
sg4
S'6141'
p20
sg6
S'a5b44b593f8f8dbc9d4ef18a119f70cf'
p21
sg8
S'xx5ffeb6a16c09406c706fe12ca465a796'
p22
sg10
S'xxb16f7e31886ba5a3a1d7a508ac923641'
p23
sg12
S'xxe521cb10325ee7ce66ebe87289a827b9'
p24
sg14
S'Mozilla/5.0 (Linux; Android 4.4.2; NFT Build/KOT49H) AppleWebKit/537.36 (KHTML, like Gecko) Version/4.0 Chrome/37.0.0.0 Mobile MQQBrowser/6.8 TBS/036869 Safari/537.36 MicroMessenger/6.3.27.880 NetType/WIFI Language/zh_CN'
p25
sg16
S'ba6e53187993594c1d75ced332fdaaf8'
p26
sa(dp27
g2
S'47826'
p28
sg4
S'6156'
p29
sg6
S'a5b44b593f8f8dbc9d4ef18a119f70cf'
p30
sg8
S'xx5ffeb6a16c09406c706fe12ca465a796'
p31
sg10
S'xxb16f7e31886ba5a3a1d7a508ac923641'
p32
sg12
S'xxe521cb10325ee7ce66ebe87289a827b9'
p33
sg14
S'Mozilla/5.0 (Linux; Android 4.4.2; NFT Build/KOT49H) AppleWebKit/537.36 (KHTML, like Gecko) Version/4.0 Chrome/37.0.0.0 Mobile MQQBrowser/6.8 TBS/036869 Safari/537.36 MicroMessenger/6.3.27.880 NetType/WIFI Language/zh_CN'
p34
sg16
S'ba6e53187993594c1d75ced332fdaaf8'
p35
sa(dp36
g2
S'47826'
p37
sg4
S'6166'
p38
sg6
S'a5b44b593f8f8dbc9d4ef18a119f70cf'
p39
sg8
S'xx5ffeb6a16c09406c706fe12ca465a796'
p40
sg10
S'xxb16f7e31886ba5a3a1d7a508ac923641'
p41
sg12
S'xxe521cb10325ee7ce66ebe87289a827b9'
p42
sg14
S'Mozilla/5.0 (Linux; Android 4.4.2; NFT Build/KOT49H) AppleWebKit/537.36 (KHTML, like Gecko) Version/4.0 Chrome/37.0.0.0 Mobile MQQBrowser/6.8 TBS/036869 Safari/537.36 MicroMessenger/6.3.27.880 NetType/WIFI Language/zh_CN'
p43
sg16
S'ba6e53187993594c1d75ced332fdaaf8'
p44
sa(dp45
g2
S'47826'
p46
sg4
S'6180'
p47
sg6
S'a5b44b593f8f8dbc9d4ef18a119f70cf'
p48
sg8
S'xx5ffeb6a16c09406c706fe12ca465a796'
p49
sg10
S'xxb16f7e31886ba5a3a1d7a508ac923641'
p50
sg12
S'xxe521cb10325ee7ce66ebe87289a827b9'
p51
sg14
S'Mozilla/5.0 (Linux; Android 4.4.2; NFT Build/KOT49H) AppleWebKit/537.36 (KHTML, like Gecko) Version/4.0 Chrome/37.0.0.0 Mobile MQQBrowser/6.8 TBS/036869 Safari/537.36 MicroMessenger/6.3.27.880 NetType/WIFI Language/zh_CN'
p52
sg16
S'ba6e53187993594c1d75ced332fdaaf8'
p53
sa(dp54
g2
S'47826'
p55
sg4
S'6197'
p56
sg6
S'a5b44b593f8f8dbc9d4ef18a119f70cf'
p57
sg8
S'xx5ffeb6a16c09406c706fe12ca465a796'
p58
sg10
S'xxb16f7e31886ba5a3a1d7a508ac923641'
p59
sg12
S'xxe521cb10325ee7ce66ebe87289a827b9'
p60
sg14
S'Mozilla/5.0 (Linux; Android 4.4.2; NFT Build/KOT49H) AppleWebKit/537.36 (KHTML, like Gecko) Version/4.0 Chrome/37.0.0.0 Mobile MQQBrowser/6.8 TBS/036869 Safari/537.36 MicroMessenger/6.3.27.880 NetType/WIFI Language/zh_CN'
p61
sg16
S'ba6e53187993594c1d75ced332fdaaf8'
p62
sa(dp63
g2
S'47826'
p64
sg4
S'6212'
p65
sg6
S'a5b44b593f8f8dbc9d4ef18a119f70cf'
p66
sg8
S'xx5ffeb6a16c09406c706fe12ca465a796'
p67
sg10
S'xxb16f7e31886ba5a3a1d7a508ac923641'
p68
sg12
S'xxe521cb10325ee7ce66ebe87289a827b9'
p69
sg14
S'Mozilla/5.0 (Linux; Android 4.4.2; NFT Build/KOT49H) AppleWebKit/537.36 (KHTML, like Gecko) Version/4.0 Chrome/37.0.0.0 Mobile MQQBrowser/6.8 TBS/036869 Safari/537.36 MicroMessenger/6.3.27.880 NetType/WIFI Language/zh_CN'
p70
sg16
S'ba6e53187993594c1d75ced332fdaaf8'
p71
sa(dp72
g2
S'47826'
p73
sg4
S'6314'
p74
sg6
S'a5b44b593f8f8dbc9d4ef18a119f70cf'
p75
sg8
S'xx5ffeb6a16c09406c706fe12ca465a796'
p76
sg10
S'xxb16f7e31886ba5a3a1d7a508ac923641'
p77
sg12
S'xxe521cb10325ee7ce66ebe87289a827b9'
p78
sg14
S'Mozilla/5.0 (Linux; Android 4.4.2; NFT Build/KOT49H) AppleWebKit/537.36 (KHTML, like Gecko) Version/4.0 Chrome/37.0.0.0 Mobile MQQBrowser/6.8 TBS/036869 Safari/537.36 MicroMessenger/6.3.27.880 NetType/WIFI Language/zh_CN'
p79
sg16
S'ba6e53187993594c1d75ced332fdaaf8'
p80
sa(dp81
g2
S'47826'
p82
sg4
S'6330'
p83
sg6
S'a5b44b593f8f8dbc9d4ef18a119f70cf'
p84
sg8
S'xx5ffeb6a16c09406c706fe12ca465a796'
p85
sg10
S'xxb16f7e31886ba5a3a1d7a508ac923641'
p86
sg12
S'xxe521cb10325ee7ce66ebe87289a827b9'
p87
sg14
S'Mozilla/5.0 (Linux; Android 4.4.2; NFT Build/KOT49H) AppleWebKit/537.36 (KHTML, like Gecko) Version/4.0 Chrome/37.0.0.0 Mobile MQQBrowser/6.8 TBS/036869 Safari/537.36 MicroMessenger/6.3.27.880 NetType/WIFI Language/zh_CN'
p88
sg16
S'ba6e53187993594c1d75ced332fdaaf8'
p89
sa(dp90
g2
S'47826'
p91
sg4
S'6352'
p92
sg6
S'a5b44b593f8f8dbc9d4ef18a119f70cf'
p93
sg8
S'xx5ffeb6a16c09406c706fe12ca465a796'
p94
sg10
S'xxb16f7e31886ba5a3a1d7a508ac923641'
p95
sg12
S'xxe521cb10325ee7ce66ebe87289a827b9'
p96
sg14
S'Mozilla/5.0 (Linux; Android 4.4.2; NFT Build/KOT49H) AppleWebKit/537.36 (KHTML, like Gecko) Version/4.0 Chrome/37.0.0.0 Mobile MQQBrowser/6.8 TBS/036869 Safari/537.36 MicroMessenger/6.3.27.880 NetType/WIFI Language/zh_CN'
p97
sg16
S'ba6e53187993594c1d75ced332fdaaf8'
p98
sa(dp99
g2
S'47826'
p100
sg4
S'6428'
p101
sg6
S'a5b44b593f8f8dbc9d4ef18a119f70cf'
p102
sg8
S'xx5ffeb6a16c09406c706fe12ca465a796'
p103
sg10
S'xxb16f7e31886ba5a3a1d7a508ac923641'
p104
sg12
S'xxe521cb10325ee7ce66ebe87289a827b9'
p105
sg14
S'Mozilla/5.0 (Linux; Android 4.4.2; NFT Build/KOT49H) AppleWebKit/537.36 (KHTML, like Gecko) Version/4.0 Chrome/37.0.0.0 Mobile MQQBrowser/6.8 TBS/036869 Safari/537.36 MicroMessenger/6.3.27.880 NetType/WIFI Language/zh_CN'
p106
sg16
S'ba6e53187993594c1d75ced332fdaaf8'
p107
sa(dp108
g2
S'47826'
p109
sg4
S'6446'
p110
sg6
S'a5b44b593f8f8dbc9d4ef18a119f70cf'
p111
sg8
S'xx5ffeb6a16c09406c706fe12ca465a796'
p112
sg10
S'xxb16f7e31886ba5a3a1d7a508ac923641'
p113
sg12
S'xxe521cb10325ee7ce66ebe87289a827b9'
p114
sg14
S'Mozilla/5.0 (Linux; Android 4.4.2; NFT Build/KOT49H) AppleWebKit/537.36 (KHTML, like Gecko) Version/4.0 Chrome/37.0.0.0 Mobile MQQBrowser/6.8 TBS/036869 Safari/537.36 MicroMessenger/6.3.27.880 NetType/WIFI Language/zh_CN'
p115
sg16
S'ba6e53187993594c1d75ced332fdaaf8'
p116
sa(dp117
g2
S'47826'
p118
sg4
S'6465'
p119
sg6
S'a5b44b593f8f8dbc9d4ef18a119f70cf'
p120
sg8
S'xx5ffeb6a16c09406c706fe12ca465a796'
p121
sg10
S'xxb16f7e31886ba5a3a1d7a508ac923641'
p122
sg12
S'xxe521cb10325ee7ce66ebe87289a827b9'
p123
sg14
S'Mozilla/5.0 (Linux; Android 4.4.2; NFT Build/KOT49H) AppleWebKit/537.36 (KHTML, like Gecko) Version/4.0 Chrome/37.0.0.0 Mobile MQQBrowser/6.8 TBS/036869 Safari/537.36 MicroMessenger/6.3.27.880 NetType/WIFI Language/zh_CN'
p124
sg16
S'ba6e53187993594c1d75ced332fdaaf8'
p125
sa(dp126
g2
S'47826'
p127
sg4
S'6489'
p128
sg6
S'a5b44b593f8f8dbc9d4ef18a119f70cf'
p129
sg8
S'xx5ffeb6a16c09406c706fe12ca465a796'
p130
sg10
S'xxb16f7e31886ba5a3a1d7a508ac923641'
p131
sg12
S'xxe521cb10325ee7ce66ebe87289a827b9'
p132
sg14
S'Mozilla/5.0 (Linux; Android 4.4.2; NFT Build/KOT49H) AppleWebKit/537.36 (KHTML, like Gecko) Version/4.0 Chrome/37.0.0.0 Mobile MQQBrowser/6.8 TBS/036869 Safari/537.36 MicroMessenger/6.3.27.880 NetType/WIFI Language/zh_CN'
p133
sg16
S'ba6e53187993594c1d75ced332fdaaf8'
p134
sa(dp135
g2
S'47826'
p136
sg4
S'6503'
p137
sg6
S'a5b44b593f8f8dbc9d4ef18a119f70cf'
p138
sg8
S'xx5ffeb6a16c09406c706fe12ca465a796'
p139
sg10
S'xxb16f7e31886ba5a3a1d7a508ac923641'
p140
sg12
S'xxe521cb10325ee7ce66ebe87289a827b9'
p141
sg14
S'Mozilla/5.0 (Linux; Android 4.4.2; NFT Build/KOT49H) AppleWebKit/537.36 (KHTML, like Gecko) Version/4.0 Chrome/37.0.0.0 Mobile MQQBrowser/6.8 TBS/036869 Safari/537.36 MicroMessenger/6.3.27.880 NetType/WIFI Language/zh_CN'
p142
sg16
S'ba6e53187993594c1d75ced332fdaaf8'
p143
sa(dp144
g2
S'47826'
p145
sg4
S'6521'
p146
sg6
S'a5b44b593f8f8dbc9d4ef18a119f70cf'
p147
sg8
S'xx5ffeb6a16c09406c706fe12ca465a796'
p148
sg10
S'xxb16f7e31886ba5a3a1d7a508ac923641'
p149
sg12
S'xxe521cb10325ee7ce66ebe87289a827b9'
p150
sg14
S'Mozilla/5.0 (Linux; Android 4.4.2; NFT Build/KOT49H) AppleWebKit/537.36 (KHTML, like Gecko) Version/4.0 Chrome/37.0.0.0 Mobile MQQBrowser/6.8 TBS/036869 Safari/537.36 MicroMessenger/6.3.27.880 NetType/WIFI Language/zh_CN'
p151
sg16
S'ba6e53187993594c1d75ced332fdaaf8'
p152
sa(dp153
g2
S'47826'
p154
sg4
S'6541'
p155
sg6
S'a5b44b593f8f8dbc9d4ef18a119f70cf'
p156
sg8
S'xx5ffeb6a16c09406c706fe12ca465a796'
p157
sg10
S'xxb16f7e31886ba5a3a1d7a508ac923641'
p158
sg12
S'xxe521cb10325ee7ce66ebe87289a827b9'
p159
sg14
S'Mozilla/5.0 (Linux; Android 4.4.2; NFT Build/KOT49H) AppleWebKit/537.36 (KHTML, like Gecko) Version/4.0 Chrome/37.0.0.0 Mobile MQQBrowser/6.8 TBS/036869 Safari/537.36 MicroMessenger/6.3.27.880 NetType/WIFI Language/zh_CN'
p160
sg16
S'ba6e53187993594c1d75ced332fdaaf8'
p161
sa(dp162
g2
S'47826'
p163
sg4
S'6572'
p164
sg6
S'a5b44b593f8f8dbc9d4ef18a119f70cf'
p165
sg8
S'xx5ffeb6a16c09406c706fe12ca465a796'
p166
sg10
S'xxb16f7e31886ba5a3a1d7a508ac923641'
p167
sg12
S'xxe521cb10325ee7ce66ebe87289a827b9'
p168
sg14
S'Mozilla/5.0 (Linux; Android 4.4.2; NFT Build/KOT49H) AppleWebKit/537.36 (KHTML, like Gecko) Version/4.0 Chrome/37.0.0.0 Mobile MQQBrowser/6.8 TBS/036869 Safari/537.36 MicroMessenger/6.3.27.880 NetType/WIFI Language/zh_CN'
p169
sg16
S'ba6e53187993594c1d75ced332fdaaf8'
p170
sa(dp171
g2
S'47826'
p172
sg4
S'6594'
p173
sg6
S'a5b44b593f8f8dbc9d4ef18a119f70cf'
p174
sg8
S'xx5ffeb6a16c09406c706fe12ca465a796'
p175
sg10
S'xxb16f7e31886ba5a3a1d7a508ac923641'
p176
sg12
S'xxe521cb10325ee7ce66ebe87289a827b9'
p177
sg14
S'Mozilla/5.0 (Linux; Android 4.4.2; NFT Build/KOT49H) AppleWebKit/537.36 (KHTML, like Gecko) Version/4.0 Chrome/37.0.0.0 Mobile MQQBrowser/6.8 TBS/036869 Safari/537.36 MicroMessenger/6.3.27.880 NetType/WIFI Language/zh_CN'
p178
sg16
S'ba6e53187993594c1d75ced332fdaaf8'
p179
sa(dp180
g2
S'47826'
p181
sg4
S'6614'
p182
sg6
S'a5b44b593f8f8dbc9d4ef18a119f70cf'
p183
sg8
S'xx5ffeb6a16c09406c706fe12ca465a796'
p184
sg10
S'xxb16f7e31886ba5a3a1d7a508ac923641'
p185
sg12
S'xxe521cb10325ee7ce66ebe87289a827b9'
p186
sg14
S'Mozilla/5.0 (Linux; Android 4.4.2; NFT Build/KOT49H) AppleWebKit/537.36 (KHTML, like Gecko) Version/4.0 Chrome/37.0.0.0 Mobile MQQBrowser/6.8 TBS/036869 Safari/537.36 MicroMessenger/6.3.27.880 NetType/WIFI Language/zh_CN'
p187
sg16
S'ba6e53187993594c1d75ced332fdaaf8'
p188
sa(dp189
g2
S'47826'
p190
sg4
S'6635'
p191
sg6
S'a5b44b593f8f8dbc9d4ef18a119f70cf'
p192
sg8
S'xx5ffeb6a16c09406c706fe12ca465a796'
p193
sg10
S'xxb16f7e31886ba5a3a1d7a508ac923641'
p194
sg12
S'xxe521cb10325ee7ce66ebe87289a827b9'
p195
sg14
S'Mozilla/5.0 (Linux; Android 4.4.2; NFT Build/KOT49H) AppleWebKit/537.36 (KHTML, like Gecko) Version/4.0 Chrome/37.0.0.0 Mobile MQQBrowser/6.8 TBS/036869 Safari/537.36 MicroMessenger/6.3.27.880 NetType/WIFI Language/zh_CN'
p196
sg16
S'ba6e53187993594c1d75ced332fdaaf8'
p197
sa(dp198
g2
S'47826'
p199
sg4
S'6665'
p200
sg6
S'a5b44b593f8f8dbc9d4ef18a119f70cf'
p201
sg8
S'xx5ffeb6a16c09406c706fe12ca465a796'
p202
sg10
S'xxb16f7e31886ba5a3a1d7a508ac923641'
p203
sg12
S'xxe521cb10325ee7ce66ebe87289a827b9'
p204
sg14
S'Mozilla/5.0 (Linux; Android 4.4.2; NFT Build/KOT49H) AppleWebKit/537.36 (KHTML, like Gecko) Version/4.0 Chrome/37.0.0.0 Mobile MQQBrowser/6.8 TBS/036869 Safari/537.36 MicroMessenger/6.3.27.880 NetType/WIFI Language/zh_CN'
p205
sg16
S'ba6e53187993594c1d75ced332fdaaf8'
p206
sa(dp207
g2
S'47826'
p208
sg4
S'6684'
p209
sg6
S'a5b44b593f8f8dbc9d4ef18a119f70cf'
p210
sg8
S'xx5ffeb6a16c09406c706fe12ca465a796'
p211
sg10
S'xxb16f7e31886ba5a3a1d7a508ac923641'
p212
sg12
S'xxe521cb10325ee7ce66ebe87289a827b9'
p213
sg14
S'Mozilla/5.0 (Linux; Android 4.4.2; NFT Build/KOT49H) AppleWebKit/537.36 (KHTML, like Gecko) Version/4.0 Chrome/37.0.0.0 Mobile MQQBrowser/6.8 TBS/036869 Safari/537.36 MicroMessenger/6.3.27.880 NetType/WIFI Language/zh_CN'
p214
sg16
S'ba6e53187993594c1d75ced332fdaaf8'
p215
sa(dp216
g2
S'47826'
p217
sg4
S'6698'
p218
sg6
S'a5b44b593f8f8dbc9d4ef18a119f70cf'
p219
sg8
S'xx5ffeb6a16c09406c706fe12ca465a796'
p220
sg10
S'xxb16f7e31886ba5a3a1d7a508ac923641'
p221
sg12
S'xxe521cb10325ee7ce66ebe87289a827b9'
p222
sg14
S'Mozilla/5.0 (Linux; Android 4.4.2; NFT Build/KOT49H) AppleWebKit/537.36 (KHTML, like Gecko) Version/4.0 Chrome/37.0.0.0 Mobile MQQBrowser/6.8 TBS/036869 Safari/537.36 MicroMessenger/6.3.27.880 NetType/WIFI Language/zh_CN'
p223
sg16
S'ba6e53187993594c1d75ced332fdaaf8'
p224
sa(dp225
g2
S'47826'
p226
sg4
S'6717'
p227
sg6
S'a5b44b593f8f8dbc9d4ef18a119f70cf'
p228
sg8
S'xx5ffeb6a16c09406c706fe12ca465a796'
p229
sg10
S'xxb16f7e31886ba5a3a1d7a508ac923641'
p230
sg12
S'xxe521cb10325ee7ce66ebe87289a827b9'
p231
sg14
S'Mozilla/5.0 (Linux; Android 4.4.2; NFT Build/KOT49H) AppleWebKit/537.36 (KHTML, like Gecko) Version/4.0 Chrome/37.0.0.0 Mobile MQQBrowser/6.8 TBS/036869 Safari/537.36 MicroMessenger/6.3.27.880 NetType/WIFI Language/zh_CN'
p232
sg16
S'ba6e53187993594c1d75ced332fdaaf8'
p233
sa(dp234
g2
S'47826'
p235
sg4
S'6733'
p236
sg6
S'a5b44b593f8f8dbc9d4ef18a119f70cf'
p237
sg8
S'xx5ffeb6a16c09406c706fe12ca465a796'
p238
sg10
S'xxb16f7e31886ba5a3a1d7a508ac923641'
p239
sg12
S'xxe521cb10325ee7ce66ebe87289a827b9'
p240
sg14
S'Mozilla/5.0 (Linux; Android 4.4.2; NFT Build/KOT49H) AppleWebKit/537.36 (KHTML, like Gecko) Version/4.0 Chrome/37.0.0.0 Mobile MQQBrowser/6.8 TBS/036869 Safari/537.36 MicroMessenger/6.3.27.880 NetType/WIFI Language/zh_CN'
p241
sg16
S'ba6e53187993594c1d75ced332fdaaf8'
p242
sa(dp243
g2
S'47826'
p244
sg4
S'6752'
p245
sg6
S'a5b44b593f8f8dbc9d4ef18a119f70cf'
p246
sg8
S'xx5ffeb6a16c09406c706fe12ca465a796'
p247
sg10
S'xxb16f7e31886ba5a3a1d7a508ac923641'
p248
sg12
S'xxe521cb10325ee7ce66ebe87289a827b9'
p249
sg14
S'Mozilla/5.0 (Linux; Android 4.4.2; NFT Build/KOT49H) AppleWebKit/537.36 (KHTML, like Gecko) Version/4.0 Chrome/37.0.0.0 Mobile MQQBrowser/6.8 TBS/036869 Safari/537.36 MicroMessenger/6.3.27.880 NetType/WIFI Language/zh_CN'
p250
sg16
S'ba6e53187993594c1d75ced332fdaaf8'
p251
sa.