(lp0
(dp1
S'user_id'
p2
S'41530'
p3
sS'data_id'
p4
S'5411'
p5
sS'ip'
p6
S'f68b84c369cd31b3c5ccd9b154fbe8e4'
p7
sS'phone_B'
p8
S'xx67139acffa87403559caf4360551b2d2'
p9
sS'phone_C'
p10
S'xxa1eddb067d69156b5a420a68e90e67cd'
p11
sS'phone_A'
p12
S'xxe62f50440a87906f588ea332e94f31e7'
p13
sS'user_agent'
p14
S'Mozilla/5.0 (Linux; Android 4.4.2; V188S Build/KOT49H) AppleWebKit/537.36 (KHTML, like Gecko) Version/4.0 Chrome/37.0.0.0 Mobile MQQBrowser/6.8 TBS/036849 Safari/537.36 MicroMessenger/6.3.25.861 NetType/WIFI Language/zh_CN'
p15
sS'ua'
p16
S'0a4828669d7ec2b83104a75d55549f55'
p17
sa(dp18
g2
S'41530'
p19
sg4
S'5424'
p20
sg6
S'f68b84c369cd31b3c5ccd9b154fbe8e4'
p21
sg8
S'xx67139acffa87403559caf4360551b2d2'
p22
sg10
S'xxa1eddb067d69156b5a420a68e90e67cd'
p23
sg12
S'xxe62f50440a87906f588ea332e94f31e7'
p24
sg14
S'Mozilla/5.0 (Linux; Android 4.4.2; V188S Build/KOT49H) AppleWebKit/537.36 (KHTML, like Gecko) Version/4.0 Chrome/37.0.0.0 Mobile MQQBrowser/6.8 TBS/036849 Safari/537.36 MicroMessenger/6.3.25.861 NetType/WIFI Language/zh_CN'
p25
sg16
S'0a4828669d7ec2b83104a75d55549f55'
p26
sa(dp27
g2
S'41530'
p28
sg4
S'5435'
p29
sg6
S'f68b84c369cd31b3c5ccd9b154fbe8e4'
p30
sg8
S'xx67139acffa87403559caf4360551b2d2'
p31
sg10
S'xxa1eddb067d69156b5a420a68e90e67cd'
p32
sg12
S'xxe62f50440a87906f588ea332e94f31e7'
p33
sg14
S'Mozilla/5.0 (Linux; Android 4.4.2; V188S Build/KOT49H) AppleWebKit/537.36 (KHTML, like Gecko) Version/4.0 Chrome/37.0.0.0 Mobile MQQBrowser/6.8 TBS/036849 Safari/537.36 MicroMessenger/6.3.25.861 NetType/WIFI Language/zh_CN'
p34
sg16
S'0a4828669d7ec2b83104a75d55549f55'
p35
sa.