(lp0
(dp1
S'user_id'
p2
S'31249'
p3
sS'data_id'
p4
S'4044'
p5
sS'ip'
p6
S'7e2000ebab7c43b0c7fc851d1e875257'
p7
sS'phone_B'
p8
S'xxfea25187fec6f3dd77e56a963b417f2f'
p9
sS'phone_C'
p10
S'xx0b9912499c544892f03aafc5f2bb35e3'
p11
sS'phone_A'
p12
S'xxe692c52014f5522c0cec6bce0b6735a9'
p13
sS'user_agent'
p14
S'Mozilla/5.0 (Linux; Android 4.4.4; SM-G9198 Build/KTU84P) AppleWebKit/537.36 (KHTML, like Gecko) Version/4.0 Chrome/37.0.0.0 Mobile MQQBrowser/6.8 TBS/036849 Safari/537.36 MicroMessenger/6.3.27.880 NetType/WIFI Language/zh_CN'
p15
sS'ua'
p16
S'fef7110921b5de7a82eaa7a12a10facb'
p17
sa(dp18
g2
S'31249'
p19
sg4
S'4064'
p20
sg6
S'7e2000ebab7c43b0c7fc851d1e875257'
p21
sg8
S'xxfea25187fec6f3dd77e56a963b417f2f'
p22
sg10
S'xx0b9912499c544892f03aafc5f2bb35e3'
p23
sg12
S'xxe692c52014f5522c0cec6bce0b6735a9'
p24
sg14
S'Mozilla/5.0 (Linux; Android 4.4.4; SM-G9198 Build/KTU84P) AppleWebKit/537.36 (KHTML, like Gecko) Version/4.0 Chrome/37.0.0.0 Mobile MQQBrowser/6.8 TBS/036849 Safari/537.36 MicroMessenger/6.3.27.880 NetType/WIFI Language/zh_CN'
p25
sg16
S'fef7110921b5de7a82eaa7a12a10facb'
p26
sa(dp27
g2
S'31249'
p28
sg4
S'4095'
p29
sg6
S'7e2000ebab7c43b0c7fc851d1e875257'
p30
sg8
S'xxfea25187fec6f3dd77e56a963b417f2f'
p31
sg10
S'xx0b9912499c544892f03aafc5f2bb35e3'
p32
sg12
S'xxe692c52014f5522c0cec6bce0b6735a9'
p33
sg14
S'Mozilla/5.0 (Linux; Android 4.4.4; SM-G9198 Build/KTU84P) AppleWebKit/537.36 (KHTML, like Gecko) Version/4.0 Chrome/37.0.0.0 Mobile MQQBrowser/6.8 TBS/036849 Safari/537.36 MicroMessenger/6.3.27.880 NetType/WIFI Language/zh_CN'
p34
sg16
S'fef7110921b5de7a82eaa7a12a10facb'
p35
sa.