(lp0
(dp1
S'user_id'
p2
S'43568'
p3
sS'data_id'
p4
S'8418'
p5
sS'ip'
p6
S'4a68e8cc1ecc376c45c43aa3ea4b1dd3'
p7
sS'phone_B'
p8
S'xx206be93b137d604c9feeb6a7993e8889'
p9
sS'phone_C'
p10
S'xxde0ecf86ab4b1704d3f21e666561e620'
p11
sS'phone_A'
p12
S'xxe8e582ab7c35e6c6b0dfad684461c2f0'
p13
sS'user_agent'
p14
S'Mozilla/5.0 (Linux; Android 6.0; HUAWEI MLA-AL10 Build/HUAWEIMLA-AL10) AppleWebKit/537.36 (KHTML, like Gecko) Version/4.0 Chrome/37.0.0.0 Mobile MQQBrowser/6.8 TBS/036849 Safari/537.36 MicroMessenger/6.3.27.880 NetType/WIFI Language/zh_CN'
p15
sS'ua'
p16
S'190281c871f2f8146ab9ea51f04381c5'
p17
sa(dp18
g2
S'43568'
p19
sg4
S'8426'
p20
sg6
S'4a68e8cc1ecc376c45c43aa3ea4b1dd3'
p21
sg8
S'xx206be93b137d604c9feeb6a7993e8889'
p22
sg10
S'xxde0ecf86ab4b1704d3f21e666561e620'
p23
sg12
S'xxe8e582ab7c35e6c6b0dfad684461c2f0'
p24
sg14
S'Mozilla/5.0 (Linux; Android 6.0; HUAWEI MLA-AL10 Build/HUAWEIMLA-AL10) AppleWebKit/537.36 (KHTML, like Gecko) Version/4.0 Chrome/37.0.0.0 Mobile MQQBrowser/6.8 TBS/036849 Safari/537.36 MicroMessenger/6.3.27.880 NetType/WIFI Language/zh_CN'
p25
sg16
S'190281c871f2f8146ab9ea51f04381c5'
p26
sa(dp27
g2
S'43568'
p28
sg4
S'8434'
p29
sg6
S'4a68e8cc1ecc376c45c43aa3ea4b1dd3'
p30
sg8
S'xx206be93b137d604c9feeb6a7993e8889'
p31
sg10
S'xxde0ecf86ab4b1704d3f21e666561e620'
p32
sg12
S'xxe8e582ab7c35e6c6b0dfad684461c2f0'
p33
sg14
S'Mozilla/5.0 (Linux; Android 6.0; HUAWEI MLA-AL10 Build/HUAWEIMLA-AL10) AppleWebKit/537.36 (KHTML, like Gecko) Version/4.0 Chrome/37.0.0.0 Mobile MQQBrowser/6.8 TBS/036849 Safari/537.36 MicroMessenger/6.3.27.880 NetType/WIFI Language/zh_CN'
p34
sg16
S'190281c871f2f8146ab9ea51f04381c5'
p35
sa(dp36
g2
S'43568'
p37
sg4
S'8448'
p38
sg6
S'4a68e8cc1ecc376c45c43aa3ea4b1dd3'
p39
sg8
S'xx206be93b137d604c9feeb6a7993e8889'
p40
sg10
S'xxde0ecf86ab4b1704d3f21e666561e620'
p41
sg12
S'xxe8e582ab7c35e6c6b0dfad684461c2f0'
p42
sg14
S'Mozilla/5.0 (Linux; Android 6.0; HUAWEI MLA-AL10 Build/HUAWEIMLA-AL10) AppleWebKit/537.36 (KHTML, like Gecko) Version/4.0 Chrome/37.0.0.0 Mobile MQQBrowser/6.8 TBS/036849 Safari/537.36 MicroMessenger/6.3.27.880 NetType/WIFI Language/zh_CN'
p43
sg16
S'190281c871f2f8146ab9ea51f04381c5'
p44
sa(dp45
g2
S'43568'
p46
sg4
S'8508'
p47
sg6
S'4a68e8cc1ecc376c45c43aa3ea4b1dd3'
p48
sg8
S'xx206be93b137d604c9feeb6a7993e8889'
p49
sg10
S'xxde0ecf86ab4b1704d3f21e666561e620'
p50
sg12
S'xxe8e582ab7c35e6c6b0dfad684461c2f0'
p51
sg14
S'Mozilla/5.0 (Linux; Android 6.0; HUAWEI MLA-AL10 Build/HUAWEIMLA-AL10) AppleWebKit/537.36 (KHTML, like Gecko) Version/4.0 Chrome/37.0.0.0 Mobile MQQBrowser/6.8 TBS/036849 Safari/537.36 MicroMessenger/6.3.27.880 NetType/WIFI Language/zh_CN'
p52
sg16
S'190281c871f2f8146ab9ea51f04381c5'
p53
sa(dp54
g2
S'43568'
p55
sg4
S'8517'
p56
sg6
S'4a68e8cc1ecc376c45c43aa3ea4b1dd3'
p57
sg8
S'xx206be93b137d604c9feeb6a7993e8889'
p58
sg10
S'xxde0ecf86ab4b1704d3f21e666561e620'
p59
sg12
S'xxe8e582ab7c35e6c6b0dfad684461c2f0'
p60
sg14
S'Mozilla/5.0 (Linux; Android 6.0; HUAWEI MLA-AL10 Build/HUAWEIMLA-AL10) AppleWebKit/537.36 (KHTML, like Gecko) Version/4.0 Chrome/37.0.0.0 Mobile MQQBrowser/6.8 TBS/036849 Safari/537.36 MicroMessenger/6.3.27.880 NetType/WIFI Language/zh_CN'
p61
sg16
S'190281c871f2f8146ab9ea51f04381c5'
p62
sa(dp63
g2
S'43568'
p64
sg4
S'8528'
p65
sg6
S'4a68e8cc1ecc376c45c43aa3ea4b1dd3'
p66
sg8
S'xx206be93b137d604c9feeb6a7993e8889'
p67
sg10
S'xxde0ecf86ab4b1704d3f21e666561e620'
p68
sg12
S'xxe8e582ab7c35e6c6b0dfad684461c2f0'
p69
sg14
S'Mozilla/5.0 (Linux; Android 6.0; HUAWEI MLA-AL10 Build/HUAWEIMLA-AL10) AppleWebKit/537.36 (KHTML, like Gecko) Version/4.0 Chrome/37.0.0.0 Mobile MQQBrowser/6.8 TBS/036849 Safari/537.36 MicroMessenger/6.3.27.880 NetType/WIFI Language/zh_CN'
p70
sg16
S'190281c871f2f8146ab9ea51f04381c5'
p71
sa(dp72
g2
S'43568'
p73
sg4
S'8545'
p74
sg6
S'4a68e8cc1ecc376c45c43aa3ea4b1dd3'
p75
sg8
S'xx206be93b137d604c9feeb6a7993e8889'
p76
sg10
S'xxde0ecf86ab4b1704d3f21e666561e620'
p77
sg12
S'xxe8e582ab7c35e6c6b0dfad684461c2f0'
p78
sg14
S'Mozilla/5.0 (Linux; Android 6.0; HUAWEI MLA-AL10 Build/HUAWEIMLA-AL10) AppleWebKit/537.36 (KHTML, like Gecko) Version/4.0 Chrome/37.0.0.0 Mobile MQQBrowser/6.8 TBS/036849 Safari/537.36 MicroMessenger/6.3.27.880 NetType/WIFI Language/zh_CN'
p79
sg16
S'190281c871f2f8146ab9ea51f04381c5'
p80
sa(dp81
g2
S'43568'
p82
sg4
S'8561'
p83
sg6
S'4a68e8cc1ecc376c45c43aa3ea4b1dd3'
p84
sg8
S'xx206be93b137d604c9feeb6a7993e8889'
p85
sg10
S'xxde0ecf86ab4b1704d3f21e666561e620'
p86
sg12
S'xxe8e582ab7c35e6c6b0dfad684461c2f0'
p87
sg14
S'Mozilla/5.0 (Linux; Android 6.0; HUAWEI MLA-AL10 Build/HUAWEIMLA-AL10) AppleWebKit/537.36 (KHTML, like Gecko) Version/4.0 Chrome/37.0.0.0 Mobile MQQBrowser/6.8 TBS/036849 Safari/537.36 MicroMessenger/6.3.27.880 NetType/WIFI Language/zh_CN'
p88
sg16
S'190281c871f2f8146ab9ea51f04381c5'
p89
sa(dp90
g2
S'43568'
p91
sg4
S'8564'
p92
sg6
S'4a68e8cc1ecc376c45c43aa3ea4b1dd3'
p93
sg8
S'xx206be93b137d604c9feeb6a7993e8889'
p94
sg10
S'xxde0ecf86ab4b1704d3f21e666561e620'
p95
sg12
S'xxe8e582ab7c35e6c6b0dfad684461c2f0'
p96
sg14
S'Mozilla/5.0 (Linux; Android 6.0; HUAWEI MLA-AL10 Build/HUAWEIMLA-AL10) AppleWebKit/537.36 (KHTML, like Gecko) Version/4.0 Chrome/37.0.0.0 Mobile MQQBrowser/6.8 TBS/036849 Safari/537.36 MicroMessenger/6.3.27.880 NetType/WIFI Language/zh_CN'
p97
sg16
S'190281c871f2f8146ab9ea51f04381c5'
p98
sa(dp99
g2
S'43568'
p100
sg4
S'8574'
p101
sg6
S'4a68e8cc1ecc376c45c43aa3ea4b1dd3'
p102
sg8
S'xx206be93b137d604c9feeb6a7993e8889'
p103
sg10
S'xxde0ecf86ab4b1704d3f21e666561e620'
p104
sg12
S'xxe8e582ab7c35e6c6b0dfad684461c2f0'
p105
sg14
S'Mozilla/5.0 (Linux; Android 6.0; HUAWEI MLA-AL10 Build/HUAWEIMLA-AL10) AppleWebKit/537.36 (KHTML, like Gecko) Version/4.0 Chrome/37.0.0.0 Mobile MQQBrowser/6.8 TBS/036849 Safari/537.36 MicroMessenger/6.3.27.880 NetType/WIFI Language/zh_CN'
p106
sg16
S'190281c871f2f8146ab9ea51f04381c5'
p107
sa(dp108
g2
S'43568'
p109
sg4
S'8591'
p110
sg6
S'4a68e8cc1ecc376c45c43aa3ea4b1dd3'
p111
sg8
S'xx206be93b137d604c9feeb6a7993e8889'
p112
sg10
S'xxde0ecf86ab4b1704d3f21e666561e620'
p113
sg12
S'xxe8e582ab7c35e6c6b0dfad684461c2f0'
p114
sg14
S'Mozilla/5.0 (Linux; Android 6.0; HUAWEI MLA-AL10 Build/HUAWEIMLA-AL10) AppleWebKit/537.36 (KHTML, like Gecko) Version/4.0 Chrome/37.0.0.0 Mobile MQQBrowser/6.8 TBS/036849 Safari/537.36 MicroMessenger/6.3.27.880 NetType/WIFI Language/zh_CN'
p115
sg16
S'190281c871f2f8146ab9ea51f04381c5'
p116
sa(dp117
g2
S'43568'
p118
sg4
S'8613'
p119
sg6
S'4a68e8cc1ecc376c45c43aa3ea4b1dd3'
p120
sg8
S'xx206be93b137d604c9feeb6a7993e8889'
p121
sg10
S'xxde0ecf86ab4b1704d3f21e666561e620'
p122
sg12
S'xxe8e582ab7c35e6c6b0dfad684461c2f0'
p123
sg14
S'Mozilla/5.0 (Linux; Android 6.0; HUAWEI MLA-AL10 Build/HUAWEIMLA-AL10) AppleWebKit/537.36 (KHTML, like Gecko) Version/4.0 Chrome/37.0.0.0 Mobile MQQBrowser/6.8 TBS/036849 Safari/537.36 MicroMessenger/6.3.27.880 NetType/WIFI Language/zh_CN'
p124
sg16
S'190281c871f2f8146ab9ea51f04381c5'
p125
sa(dp126
g2
S'43568'
p127
sg4
S'8666'
p128
sg6
S'4a68e8cc1ecc376c45c43aa3ea4b1dd3'
p129
sg8
S'xx206be93b137d604c9feeb6a7993e8889'
p130
sg10
S'xxde0ecf86ab4b1704d3f21e666561e620'
p131
sg12
S'xxe8e582ab7c35e6c6b0dfad684461c2f0'
p132
sg14
S'Mozilla/5.0 (Linux; Android 6.0; HUAWEI MLA-AL10 Build/HUAWEIMLA-AL10) AppleWebKit/537.36 (KHTML, like Gecko) Version/4.0 Chrome/37.0.0.0 Mobile MQQBrowser/6.8 TBS/036849 Safari/537.36 MicroMessenger/6.3.27.880 NetType/WIFI Language/zh_CN'
p133
sg16
S'190281c871f2f8146ab9ea51f04381c5'
p134
sa(dp135
g2
S'43568'
p136
sg4
S'8709'
p137
sg6
S'4a68e8cc1ecc376c45c43aa3ea4b1dd3'
p138
sg8
S'xx206be93b137d604c9feeb6a7993e8889'
p139
sg10
S'xxde0ecf86ab4b1704d3f21e666561e620'
p140
sg12
S'xxe8e582ab7c35e6c6b0dfad684461c2f0'
p141
sg14
S'Mozilla/5.0 (Linux; Android 6.0; HUAWEI MLA-AL10 Build/HUAWEIMLA-AL10) AppleWebKit/537.36 (KHTML, like Gecko) Version/4.0 Chrome/37.0.0.0 Mobile MQQBrowser/6.8 TBS/036849 Safari/537.36 MicroMessenger/6.3.27.880 NetType/WIFI Language/zh_CN'
p142
sg16
S'190281c871f2f8146ab9ea51f04381c5'
p143
sa(dp144
g2
S'43568'
p145
sg4
S'8728'
p146
sg6
S'4a68e8cc1ecc376c45c43aa3ea4b1dd3'
p147
sg8
S'xx206be93b137d604c9feeb6a7993e8889'
p148
sg10
S'xxde0ecf86ab4b1704d3f21e666561e620'
p149
sg12
S'xxe8e582ab7c35e6c6b0dfad684461c2f0'
p150
sg14
S'Mozilla/5.0 (Linux; Android 6.0; HUAWEI MLA-AL10 Build/HUAWEIMLA-AL10) AppleWebKit/537.36 (KHTML, like Gecko) Version/4.0 Chrome/37.0.0.0 Mobile MQQBrowser/6.8 TBS/036849 Safari/537.36 MicroMessenger/6.3.27.880 NetType/WIFI Language/zh_CN'
p151
sg16
S'190281c871f2f8146ab9ea51f04381c5'
p152
sa(dp153
g2
S'43568'
p154
sg4
S'8745'
p155
sg6
S'dda8ddaad317a83fdf9c80ece88974ea'
p156
sg8
S'xx206be93b137d604c9feeb6a7993e8889'
p157
sg10
S'xxde0ecf86ab4b1704d3f21e666561e620'
p158
sg12
S'xxe8e582ab7c35e6c6b0dfad684461c2f0'
p159
sg14
S'Mozilla/5.0 (Linux; Android 6.0; HUAWEI MLA-AL10 Build/HUAWEIMLA-AL10) AppleWebKit/537.36 (KHTML, like Gecko) Version/4.0 Chrome/37.0.0.0 Mobile MQQBrowser/6.8 TBS/036849 Safari/537.36 MicroMessenger/6.3.27.880 NetType/WIFI Language/zh_CN'
p160
sg16
S'190281c871f2f8146ab9ea51f04381c5'
p161
sa(dp162
g2
S'43568'
p163
sg4
S'8765'
p164
sg6
S'dda8ddaad317a83fdf9c80ece88974ea'
p165
sg8
S'xx206be93b137d604c9feeb6a7993e8889'
p166
sg10
S'xxde0ecf86ab4b1704d3f21e666561e620'
p167
sg12
S'xxe8e582ab7c35e6c6b0dfad684461c2f0'
p168
sg14
S'Mozilla/5.0 (Linux; Android 6.0; HUAWEI MLA-AL10 Build/HUAWEIMLA-AL10) AppleWebKit/537.36 (KHTML, like Gecko) Version/4.0 Chrome/37.0.0.0 Mobile MQQBrowser/6.8 TBS/036849 Safari/537.36 MicroMessenger/6.3.27.880 NetType/WIFI Language/zh_CN'
p169
sg16
S'190281c871f2f8146ab9ea51f04381c5'
p170
sa(dp171
g2
S'43568'
p172
sg4
S'8797'
p173
sg6
S'dda8ddaad317a83fdf9c80ece88974ea'
p174
sg8
S'xx260a2a5d60a58e9fcee0201cbb0ed5cb'
p175
sg10
S'xxde0ecf86ab4b1704d3f21e666561e620'
p176
sg12
S'xxe8e582ab7c35e6c6b0dfad684461c2f0'
p177
sg14
S'Mozilla/5.0 (Linux; Android 6.0; HUAWEI MLA-AL10 Build/HUAWEIMLA-AL10) AppleWebKit/537.36 (KHTML, like Gecko) Version/4.0 Chrome/37.0.0.0 Mobile MQQBrowser/6.8 TBS/036849 Safari/537.36 MicroMessenger/6.3.27.880 NetType/cmnet Language/zh_CN'
p178
sg16
S'ad736493dbc202f716481aaaf26fe586'
p179
sa(dp180
g2
S'30581'
p181
sg4
S'8818'
p182
sg6
S'f3f27f95678f861ebdc986239eef0b2a'
p183
sg8
S'xx206be93b137d604c9feeb6a7993e8889'
p184
sg10
S'xxde0ecf86ab4b1704d3f21e666561e620'
p185
sg12
S'xxe8e582ab7c35e6c6b0dfad684461c2f0'
p186
sg14
S'Mozilla/5.0 (Linux; Android 6.0; HUAWEI MLA-AL10 Build/HUAWEIMLA-AL10) AppleWebKit/537.36 (KHTML, like Gecko) Version/4.0 Chrome/37.0.0.0 Mobile MQQBrowser/6.8 TBS/036849 Safari/537.36 MicroMessenger/6.3.27.880 NetType/WIFI Language/zh_CN'
p187
sg16
S'190281c871f2f8146ab9ea51f04381c5'
p188
sa(dp189
g2
S'43568'
p190
sg4
S'8825'
p191
sg6
S'4a68e8cc1ecc376c45c43aa3ea4b1dd3'
p192
sg8
S'xx206be93b137d604c9feeb6a7993e8889'
p193
sg10
S'xxde0ecf86ab4b1704d3f21e666561e620'
p194
sg12
S'xxe8e582ab7c35e6c6b0dfad684461c2f0'
p195
sg14
S'Mozilla/5.0 (Linux; Android 6.0; HUAWEI MLA-AL10 Build/HUAWEIMLA-AL10) AppleWebKit/537.36 (KHTML, like Gecko) Version/4.0 Chrome/37.0.0.0 Mobile MQQBrowser/6.8 TBS/036849 Safari/537.36 MicroMessenger/6.3.27.880 NetType/WIFI Language/zh_CN'
p196
sg16
S'190281c871f2f8146ab9ea51f04381c5'
p197
sa(dp198
g2
S'43568'
p199
sg4
S'8832'
p200
sg6
S'4a68e8cc1ecc376c45c43aa3ea4b1dd3'
p201
sg8
S'xx206be93b137d604c9feeb6a7993e8889'
p202
sg10
S'xxde0ecf86ab4b1704d3f21e666561e620'
p203
sg12
S'xxe8e582ab7c35e6c6b0dfad684461c2f0'
p204
sg14
S'Mozilla/5.0 (Linux; Android 6.0; HUAWEI MLA-AL10 Build/HUAWEIMLA-AL10) AppleWebKit/537.36 (KHTML, like Gecko) Version/4.0 Chrome/37.0.0.0 Mobile MQQBrowser/6.8 TBS/036849 Safari/537.36 MicroMessenger/6.3.27.880 NetType/WIFI Language/zh_CN'
p205
sg16
S'190281c871f2f8146ab9ea51f04381c5'
p206
sa.