(lp0
(dp1
S'user_id'
p2
S'10704'
p3
sS'data_id'
p4
S'1'
p5
sS'ip'
p6
S'59c25be234d3f58040042bfb6d97a6bc'
p7
sS'phone_B'
p8
S'xx5a6b4f85773cbf574de087ee07974130'
p9
sS'phone_C'
p10
S'xx5014244b2b17d2eb4f9761ddb041ebcd'
p11
sS'phone_A'
p12
S'xxe9aa88c3001b5efa64cea3faad5b3742'
p13
sS'user_agent'
p14
S'Mozilla/5.0 (Linux; Android 5.1; OPPO R9tm Build/LMY47I) AppleWebKit/537.36 (KHTML, like Gecko) Version/4.0 Chrome/37.0.0.0 Mobile MQQBrowser/6.8 TBS/036849 Safari/537.36 MicroMessenger/6.3.27.880 NetType/WIFI Language/zh_CN'
p15
sS'ua'
p16
S'00e2403bb3dcb3a1f2a0842abe35729f'
p17
sa(dp18
g2
S'10704'
p19
sg4
S'8'
p20
sg6
S'59c25be234d3f58040042bfb6d97a6bc'
p21
sg8
S'xx5a6b4f85773cbf574de087ee07974130'
p22
sg10
S'xx5014244b2b17d2eb4f9761ddb041ebcd'
p23
sg12
S'xxe9aa88c3001b5efa64cea3faad5b3742'
p24
sg14
S'Mozilla/5.0 (Linux; Android 5.1; OPPO R9tm Build/LMY47I) AppleWebKit/537.36 (KHTML, like Gecko) Version/4.0 Chrome/37.0.0.0 Mobile MQQBrowser/6.8 TBS/036849 Safari/537.36 MicroMessenger/6.3.27.880 NetType/WIFI Language/zh_CN'
p25
sg16
S'00e2403bb3dcb3a1f2a0842abe35729f'
p26
sa(dp27
g2
S'10704'
p28
sg4
S'1258'
p29
sg6
S'37813faf3df40b8e1f8f13eddb715e10'
p30
sg8
S'xx5a6b4f85773cbf574de087ee07974130'
p31
sg10
S'xx5014244b2b17d2eb4f9761ddb041ebcd'
p32
sg12
S'xxe9aa88c3001b5efa64cea3faad5b3742'
p33
sg14
S'Mozilla/5.0 (Linux; Android 5.1; OPPO R9tm Build/LMY47I) AppleWebKit/537.36 (KHTML, like Gecko) Version/4.0 Chrome/37.0.0.0 Mobile MQQBrowser/6.8 TBS/036849 Safari/537.36 MicroMessenger/6.3.27.880 NetType/WIFI Language/zh_CN'
p34
sg16
S'00e2403bb3dcb3a1f2a0842abe35729f'
p35
sa(dp36
g2
S'10704'
p37
sg4
S'1272'
p38
sg6
S'37813faf3df40b8e1f8f13eddb715e10'
p39
sg8
S'xx5a6b4f85773cbf574de087ee07974130'
p40
sg10
S'xx5014244b2b17d2eb4f9761ddb041ebcd'
p41
sg12
S'xxe9aa88c3001b5efa64cea3faad5b3742'
p42
sg14
S'Mozilla/5.0 (Linux; Android 5.1; OPPO R9tm Build/LMY47I) AppleWebKit/537.36 (KHTML, like Gecko) Version/4.0 Chrome/37.0.0.0 Mobile MQQBrowser/6.8 TBS/036849 Safari/537.36 MicroMessenger/6.3.27.880 NetType/WIFI Language/zh_CN'
p43
sg16
S'00e2403bb3dcb3a1f2a0842abe35729f'
p44
sa(dp45
g2
S'10704'
p46
sg4
S'1286'
p47
sg6
S'37813faf3df40b8e1f8f13eddb715e10'
p48
sg8
S'xx5a6b4f85773cbf574de087ee07974130'
p49
sg10
S'xx5014244b2b17d2eb4f9761ddb041ebcd'
p50
sg12
S'xxe9aa88c3001b5efa64cea3faad5b3742'
p51
sg14
S'Mozilla/5.0 (Linux; Android 5.1; OPPO R9tm Build/LMY47I) AppleWebKit/537.36 (KHTML, like Gecko) Version/4.0 Chrome/37.0.0.0 Mobile MQQBrowser/6.8 TBS/036849 Safari/537.36 MicroMessenger/6.3.27.880 NetType/WIFI Language/zh_CN'
p52
sg16
S'00e2403bb3dcb3a1f2a0842abe35729f'
p53
sa(dp54
g2
S'36490'
p55
sg4
S'2396'
p56
sg6
S'1585b431da758b8b52e86ba15c8f968b'
p57
sg8
S'xxf649a4d2b8211b203262aac27adebaff'
p58
sg10
S'xx5014244b2b17d2eb4f9761ddb041ebcd'
p59
sg12
S'xxe9aa88c3001b5efa64cea3faad5b3742'
p60
sg14
S'Mozilla/5.0 (Linux; Android 5.1; OPPO R9tm Build/LMY47I) AppleWebKit/537.36 (KHTML, like Gecko) Version/4.0 Chrome/37.0.0.0 Mobile MQQBrowser/6.8 TBS/036869 Safari/537.36 MicroMessenger/6.3.27.880 NetType/cmnet Language/zh_CN'
p61
sg16
S'1dd637b43dd23f909e77338eeda107bf'
p62
sa(dp63
g2
S'36490'
p64
sg4
S'2417'
p65
sg6
S'1585b431da758b8b52e86ba15c8f968b'
p66
sg8
S'xxf649a4d2b8211b203262aac27adebaff'
p67
sg10
S'xx5014244b2b17d2eb4f9761ddb041ebcd'
p68
sg12
S'xxe9aa88c3001b5efa64cea3faad5b3742'
p69
sg14
S'Mozilla/5.0 (Linux; Android 5.1; OPPO R9tm Build/LMY47I) AppleWebKit/537.36 (KHTML, like Gecko) Version/4.0 Chrome/37.0.0.0 Mobile MQQBrowser/6.8 TBS/036869 Safari/537.36 MicroMessenger/6.3.27.880 NetType/cmnet Language/zh_CN'
p70
sg16
S'1dd637b43dd23f909e77338eeda107bf'
p71
sa(dp72
g2
S'36490'
p73
sg4
S'2438'
p74
sg6
S'1585b431da758b8b52e86ba15c8f968b'
p75
sg8
S'xxf649a4d2b8211b203262aac27adebaff'
p76
sg10
S'xx5014244b2b17d2eb4f9761ddb041ebcd'
p77
sg12
S'xxe9aa88c3001b5efa64cea3faad5b3742'
p78
sg14
S'Mozilla/5.0 (Linux; Android 5.1; OPPO R9tm Build/LMY47I) AppleWebKit/537.36 (KHTML, like Gecko) Version/4.0 Chrome/37.0.0.0 Mobile MQQBrowser/6.8 TBS/036869 Safari/537.36 MicroMessenger/6.3.27.880 NetType/cmnet Language/zh_CN'
p79
sg16
S'1dd637b43dd23f909e77338eeda107bf'
p80
sa(dp81
g2
S'10704'
p82
sg4
S'5499'
p83
sg6
S'59c25be234d3f58040042bfb6d97a6bc'
p84
sg8
S'xx5a6b4f85773cbf574de087ee07974130'
p85
sg10
S'xx5014244b2b17d2eb4f9761ddb041ebcd'
p86
sg12
S'xxe9aa88c3001b5efa64cea3faad5b3742'
p87
sg14
S'Mozilla/5.0 (Linux; Android 5.1; OPPO R9tm Build/LMY47I) AppleWebKit/537.36 (KHTML, like Gecko) Version/4.0 Chrome/37.0.0.0 Mobile MQQBrowser/6.8 TBS/036849 Safari/537.36 MicroMessenger/6.3.27.880 NetType/WIFI Language/zh_CN'
p88
sg16
S'00e2403bb3dcb3a1f2a0842abe35729f'
p89
sa(dp90
g2
S'10704'
p91
sg4
S'5518'
p92
sg6
S'59c25be234d3f58040042bfb6d97a6bc'
p93
sg8
S'xx5a6b4f85773cbf574de087ee07974130'
p94
sg10
S'xx5014244b2b17d2eb4f9761ddb041ebcd'
p95
sg12
S'xxe9aa88c3001b5efa64cea3faad5b3742'
p96
sg14
S'Mozilla/5.0 (Linux; Android 5.1; OPPO R9tm Build/LMY47I) AppleWebKit/537.36 (KHTML, like Gecko) Version/4.0 Chrome/37.0.0.0 Mobile MQQBrowser/6.8 TBS/036849 Safari/537.36 MicroMessenger/6.3.27.880 NetType/WIFI Language/zh_CN'
p97
sg16
S'00e2403bb3dcb3a1f2a0842abe35729f'
p98
sa(dp99
g2
S'10704'
p100
sg4
S'5549'
p101
sg6
S'59c25be234d3f58040042bfb6d97a6bc'
p102
sg8
S'xx5a6b4f85773cbf574de087ee07974130'
p103
sg10
S'xx5014244b2b17d2eb4f9761ddb041ebcd'
p104
sg12
S'xxe9aa88c3001b5efa64cea3faad5b3742'
p105
sg14
S'Mozilla/5.0 (Linux; Android 5.1; OPPO R9tm Build/LMY47I) AppleWebKit/537.36 (KHTML, like Gecko) Version/4.0 Chrome/37.0.0.0 Mobile MQQBrowser/6.8 TBS/036849 Safari/537.36 MicroMessenger/6.3.27.880 NetType/WIFI Language/zh_CN'
p106
sg16
S'00e2403bb3dcb3a1f2a0842abe35729f'
p107
sa(dp108
g2
S'35443'
p109
sg4
S'5743'
p110
sg6
S'46f5c8daf39acfe409996604bf87fb3b'
p111
sg8
S'xx9b771481e26400f8abd7d2c3b97398da'
p112
sg10
S'xx5014244b2b17d2eb4f9761ddb041ebcd'
p113
sg12
S'xxe9aa88c3001b5efa64cea3faad5b3742'
p114
sg14
S'Mozilla/5.0 (Linux; Android 5.1; OPPO R9tm Build/LMY47I) AppleWebKit/537.36 (KHTML, like Gecko) Version/4.0 Chrome/37.0.0.0 Mobile MQQBrowser/6.8 TBS/036849 Safari/537.36 MicroMessenger/6.3.27.880 NetType/cmnet Language/zh_CN'
p115
sg16
S'2380de9103cd2450000bc555e68a1645'
p116
sa(dp117
g2
S'35443'
p118
sg4
S'5764'
p119
sg6
S'46f5c8daf39acfe409996604bf87fb3b'
p120
sg8
S'xx9b771481e26400f8abd7d2c3b97398da'
p121
sg10
S'xx5014244b2b17d2eb4f9761ddb041ebcd'
p122
sg12
S'xxe9aa88c3001b5efa64cea3faad5b3742'
p123
sg14
S'Mozilla/5.0 (Linux; Android 5.1; OPPO R9tm Build/LMY47I) AppleWebKit/537.36 (KHTML, like Gecko) Version/4.0 Chrome/37.0.0.0 Mobile MQQBrowser/6.8 TBS/036849 Safari/537.36 MicroMessenger/6.3.27.880 NetType/cmnet Language/zh_CN'
p124
sg16
S'2380de9103cd2450000bc555e68a1645'
p125
sa(dp126
g2
S'35443'
p127
sg4
S'5782'
p128
sg6
S'46f5c8daf39acfe409996604bf87fb3b'
p129
sg8
S'xx9b771481e26400f8abd7d2c3b97398da'
p130
sg10
S'xx5014244b2b17d2eb4f9761ddb041ebcd'
p131
sg12
S'xxe9aa88c3001b5efa64cea3faad5b3742'
p132
sg14
S'Mozilla/5.0 (Linux; Android 5.1; OPPO R9tm Build/LMY47I) AppleWebKit/537.36 (KHTML, like Gecko) Version/4.0 Chrome/37.0.0.0 Mobile MQQBrowser/6.8 TBS/036849 Safari/537.36 MicroMessenger/6.3.27.880 NetType/cmnet Language/zh_CN'
p133
sg16
S'2380de9103cd2450000bc555e68a1645'
p134
sa(dp135
g2
S'48289'
p136
sg4
S'5911'
p137
sg6
S'72960d7c81fe6ff3b170542ac793c2ec'
p138
sg8
S'xx04227dffaf331efd6b8b0efab2d3e772'
p139
sg10
S'xx5014244b2b17d2eb4f9761ddb041ebcd'
p140
sg12
S'xxe9aa88c3001b5efa64cea3faad5b3742'
p141
sg14
S'Mozilla/5.0 (Linux; Android 5.1; OPPO R9tm Build/LMY47I) AppleWebKit/537.36 (KHTML, like Gecko) Version/4.0 Chrome/37.0.0.0 Mobile MQQBrowser/6.8 TBS/036824 Safari/537.36 MicroMessenger/6.3.27.880 NetType/WIFI Language/zh_CN'
p142
sg16
S'6a88c0afb2e06c29fb26c32ba2463672'
p143
sa(dp144
g2
S'48289'
p145
sg4
S'5931'
p146
sg6
S'72960d7c81fe6ff3b170542ac793c2ec'
p147
sg8
S'xx04227dffaf331efd6b8b0efab2d3e772'
p148
sg10
S'xx5014244b2b17d2eb4f9761ddb041ebcd'
p149
sg12
S'xxe9aa88c3001b5efa64cea3faad5b3742'
p150
sg14
S'Mozilla/5.0 (Linux; Android 5.1; OPPO R9tm Build/LMY47I) AppleWebKit/537.36 (KHTML, like Gecko) Version/4.0 Chrome/37.0.0.0 Mobile MQQBrowser/6.8 TBS/036824 Safari/537.36 MicroMessenger/6.3.27.880 NetType/WIFI Language/zh_CN'
p151
sg16
S'6a88c0afb2e06c29fb26c32ba2463672'
p152
sa(dp153
g2
S'25693'
p154
sg4
S'7145'
p155
sg6
S'37ec7b91655b3c964292df15710fad2a'
p156
sg8
S'xx5a6b4f85773cbf574de087ee07974130'
p157
sg10
S'xx5014244b2b17d2eb4f9761ddb041ebcd'
p158
sg12
S'xxe9aa88c3001b5efa64cea3faad5b3742'
p159
sg14
S'Mozilla/5.0 (Linux; Android 5.1; OPPO R9tm Build/LMY47I) AppleWebKit/537.36 (KHTML, like Gecko) Version/4.0 Chrome/37.0.0.0 Mobile MQQBrowser/6.8 TBS/036849 Safari/537.36 MicroMessenger/6.3.27.880 NetType/WIFI Language/zh_CN'
p160
sg16
S'00e2403bb3dcb3a1f2a0842abe35729f'
p161
sa(dp162
g2
S'25693'
p163
sg4
S'7158'
p164
sg6
S'37ec7b91655b3c964292df15710fad2a'
p165
sg8
S'xx5a6b4f85773cbf574de087ee07974130'
p166
sg10
S'xx5014244b2b17d2eb4f9761ddb041ebcd'
p167
sg12
S'xxe9aa88c3001b5efa64cea3faad5b3742'
p168
sg14
S'Mozilla/5.0 (Linux; Android 5.1; OPPO R9tm Build/LMY47I) AppleWebKit/537.36 (KHTML, like Gecko) Version/4.0 Chrome/37.0.0.0 Mobile MQQBrowser/6.8 TBS/036849 Safari/537.36 MicroMessenger/6.3.27.880 NetType/WIFI Language/zh_CN'
p169
sg16
S'00e2403bb3dcb3a1f2a0842abe35729f'
p170
sa(dp171
g2
S'46693'
p172
sg4
S'7914'
p173
sg6
S'783ec5c440b55f32ca4f1c46a5126757'
p174
sg8
S'xx3e85d60322fc08dbc33e78828034bd61'
p175
sg10
S'xx5014244b2b17d2eb4f9761ddb041ebcd'
p176
sg12
S'xxe9aa88c3001b5efa64cea3faad5b3742'
p177
sg14
S'Mozilla/5.0 (Linux; Android 5.1; OPPO R9tm Build/LMY47I) AppleWebKit/537.36 (KHTML, like Gecko) Version/4.0 Chrome/37.0.0.0 Mobile MQQBrowser/6.8 TBS/036869 Safari/537.36 MicroMessenger/6.3.27.880 NetType/WIFI Language/zh_CN'
p178
sg16
S'd19b3fb2622612d99ccf7a8f13aa4d72'
p179
sa(dp180
g2
S'46693'
p181
sg4
S'7924'
p182
sg6
S'783ec5c440b55f32ca4f1c46a5126757'
p183
sg8
S'xx3e85d60322fc08dbc33e78828034bd61'
p184
sg10
S'xx5014244b2b17d2eb4f9761ddb041ebcd'
p185
sg12
S'xxe9aa88c3001b5efa64cea3faad5b3742'
p186
sg14
S'Mozilla/5.0 (Linux; Android 5.1; OPPO R9tm Build/LMY47I) AppleWebKit/537.36 (KHTML, like Gecko) Version/4.0 Chrome/37.0.0.0 Mobile MQQBrowser/6.8 TBS/036869 Safari/537.36 MicroMessenger/6.3.27.880 NetType/WIFI Language/zh_CN'
p187
sg16
S'd19b3fb2622612d99ccf7a8f13aa4d72'
p188
sa(dp189
g2
S'46693'
p190
sg4
S'7937'
p191
sg6
S'783ec5c440b55f32ca4f1c46a5126757'
p192
sg8
S'xx3e85d60322fc08dbc33e78828034bd61'
p193
sg10
S'xx5014244b2b17d2eb4f9761ddb041ebcd'
p194
sg12
S'xxe9aa88c3001b5efa64cea3faad5b3742'
p195
sg14
S'Mozilla/5.0 (Linux; Android 5.1; OPPO R9tm Build/LMY47I) AppleWebKit/537.36 (KHTML, like Gecko) Version/4.0 Chrome/37.0.0.0 Mobile MQQBrowser/6.8 TBS/036869 Safari/537.36 MicroMessenger/6.3.27.880 NetType/WIFI Language/zh_CN'
p196
sg16
S'd19b3fb2622612d99ccf7a8f13aa4d72'
p197
sa(dp198
g2
S'46719'
p199
sg4
S'8062'
p200
sg6
S'783ec5c440b55f32ca4f1c46a5126757'
p201
sg8
S'xx3e85d60322fc08dbc33e78828034bd61'
p202
sg10
S'xx5014244b2b17d2eb4f9761ddb041ebcd'
p203
sg12
S'xxe9aa88c3001b5efa64cea3faad5b3742'
p204
sg14
S'Mozilla/5.0 (Linux; Android 5.1; OPPO R9tm Build/LMY47I) AppleWebKit/537.36 (KHTML, like Gecko) Version/4.0 Chrome/37.0.0.0 Mobile MQQBrowser/6.8 TBS/036869 Safari/537.36 MicroMessenger/6.3.27.880 NetType/WIFI Language/zh_CN'
p205
sg16
S'd19b3fb2622612d99ccf7a8f13aa4d72'
p206
sa(dp207
g2
S'46719'
p208
sg4
S'8073'
p209
sg6
S'783ec5c440b55f32ca4f1c46a5126757'
p210
sg8
S'xx3e85d60322fc08dbc33e78828034bd61'
p211
sg10
S'xx5014244b2b17d2eb4f9761ddb041ebcd'
p212
sg12
S'xxe9aa88c3001b5efa64cea3faad5b3742'
p213
sg14
S'Mozilla/5.0 (Linux; Android 5.1; OPPO R9tm Build/LMY47I) AppleWebKit/537.36 (KHTML, like Gecko) Version/4.0 Chrome/37.0.0.0 Mobile MQQBrowser/6.8 TBS/036869 Safari/537.36 MicroMessenger/6.3.27.880 NetType/WIFI Language/zh_CN'
p214
sg16
S'd19b3fb2622612d99ccf7a8f13aa4d72'
p215
sa(dp216
g2
S'42475'
p217
sg4
S'8250'
p218
sg6
S'37ec7b91655b3c964292df15710fad2a'
p219
sg8
S'xx5a6b4f85773cbf574de087ee07974130'
p220
sg10
S'xx5014244b2b17d2eb4f9761ddb041ebcd'
p221
sg12
S'xxe9aa88c3001b5efa64cea3faad5b3742'
p222
sg14
S'Mozilla/5.0 (Linux; Android 5.1; OPPO R9tm Build/LMY47I) AppleWebKit/537.36 (KHTML, like Gecko) Version/4.0 Chrome/37.0.0.0 Mobile MQQBrowser/6.8 TBS/036849 Safari/537.36 MicroMessenger/6.3.27.880 NetType/WIFI Language/zh_CN'
p223
sg16
S'00e2403bb3dcb3a1f2a0842abe35729f'
p224
sa(dp225
g2
S'42475'
p226
sg4
S'8267'
p227
sg6
S'37ec7b91655b3c964292df15710fad2a'
p228
sg8
S'xx5a6b4f85773cbf574de087ee07974130'
p229
sg10
S'xx5014244b2b17d2eb4f9761ddb041ebcd'
p230
sg12
S'xxe9aa88c3001b5efa64cea3faad5b3742'
p231
sg14
S'Mozilla/5.0 (Linux; Android 5.1; OPPO R9tm Build/LMY47I) AppleWebKit/537.36 (KHTML, like Gecko) Version/4.0 Chrome/37.0.0.0 Mobile MQQBrowser/6.8 TBS/036849 Safari/537.36 MicroMessenger/6.3.27.880 NetType/WIFI Language/zh_CN'
p232
sg16
S'00e2403bb3dcb3a1f2a0842abe35729f'
p233
sa.