(lp0
(dp1
S'user_id'
p2
S'46314'
p3
sS'data_id'
p4
S'2299'
p5
sS'ip'
p6
S'97e9fb11252006eacb6ba3c27ef970f1'
p7
sS'phone_B'
p8
S'xx12966143255e3433532f58db9799515e'
p9
sS'phone_C'
p10
S'xx21ef2add7f5cbd50376b35ff47e55e00'
p11
sS'phone_A'
p12
S'xxea08be6b06de684ce652d9e997589262'
p13
sS'user_agent'
p14
S'Mozilla/5.0 (Linux; Android 5.1.1; vivo Y31 Build/LMY47V) AppleWebKit/537.36 (KHTML, like Gecko) Version/4.0 Chrome/37.0.0.0 Mobile MQQBrowser/6.8 TBS/036849 Safari/537.36 MicroMessenger/6.3.27.880 NetType/WIFI Language/zh_CN'
p15
sS'ua'
p16
S'5818dd74b85046e5cc191cef2856fc03'
p17
sa(dp18
g2
S'46314'
p19
sg4
S'2315'
p20
sg6
S'97e9fb11252006eacb6ba3c27ef970f1'
p21
sg8
S'xx12966143255e3433532f58db9799515e'
p22
sg10
S'xx21ef2add7f5cbd50376b35ff47e55e00'
p23
sg12
S'xxea08be6b06de684ce652d9e997589262'
p24
sg14
S'Mozilla/5.0 (Linux; Android 5.1.1; vivo Y31 Build/LMY47V) AppleWebKit/537.36 (KHTML, like Gecko) Version/4.0 Chrome/37.0.0.0 Mobile MQQBrowser/6.8 TBS/036849 Safari/537.36 MicroMessenger/6.3.27.880 NetType/WIFI Language/zh_CN'
p25
sg16
S'5818dd74b85046e5cc191cef2856fc03'
p26
sa(dp27
g2
S'46314'
p28
sg4
S'2398'
p29
sg6
S'97e9fb11252006eacb6ba3c27ef970f1'
p30
sg8
S'xxf313c4355c5767af911e521414198468'
p31
sg10
S'xx21ef2add7f5cbd50376b35ff47e55e00'
p32
sg12
S'xxea08be6b06de684ce652d9e997589262'
p33
sg14
S'Mozilla/5.0 (Linux; Android 5.1.1; vivo Y31 Build/LMY47V) AppleWebKit/537.36 (KHTML, like Gecko) Version/4.0 Chrome/37.0.0.0 Mobile MQQBrowser/6.8 TBS/036869 Safari/537.36 MicroMessenger/6.3.27.880 NetType/WIFI Language/zh_CN'
p34
sg16
S'ec815b0b6abcf611b63fbfc7865af523'
p35
sa(dp36
g2
S'46314'
p37
sg4
S'2422'
p38
sg6
S'97e9fb11252006eacb6ba3c27ef970f1'
p39
sg8
S'xxf313c4355c5767af911e521414198468'
p40
sg10
S'xx21ef2add7f5cbd50376b35ff47e55e00'
p41
sg12
S'xxea08be6b06de684ce652d9e997589262'
p42
sg14
S'Mozilla/5.0 (Linux; Android 5.1.1; vivo Y31 Build/LMY47V) AppleWebKit/537.36 (KHTML, like Gecko) Version/4.0 Chrome/37.0.0.0 Mobile MQQBrowser/6.8 TBS/036869 Safari/537.36 MicroMessenger/6.3.27.880 NetType/WIFI Language/zh_CN'
p43
sg16
S'ec815b0b6abcf611b63fbfc7865af523'
p44
sa(dp45
g2
S'46314'
p46
sg4
S'2473'
p47
sg6
S'97e9fb11252006eacb6ba3c27ef970f1'
p48
sg8
S'xxf313c4355c5767af911e521414198468'
p49
sg10
S'xx21ef2add7f5cbd50376b35ff47e55e00'
p50
sg12
S'xxea08be6b06de684ce652d9e997589262'
p51
sg14
S'Mozilla/5.0 (Linux; Android 5.1.1; vivo Y31 Build/LMY47V) AppleWebKit/537.36 (KHTML, like Gecko) Version/4.0 Chrome/37.0.0.0 Mobile MQQBrowser/6.8 TBS/036869 Safari/537.36 MicroMessenger/6.3.27.880 NetType/WIFI Language/zh_CN'
p52
sg16
S'ec815b0b6abcf611b63fbfc7865af523'
p53
sa(dp54
g2
S'46314'
p55
sg4
S'2495'
p56
sg6
S'97e9fb11252006eacb6ba3c27ef970f1'
p57
sg8
S'xxf313c4355c5767af911e521414198468'
p58
sg10
S'xx21ef2add7f5cbd50376b35ff47e55e00'
p59
sg12
S'xxea08be6b06de684ce652d9e997589262'
p60
sg14
S'Mozilla/5.0 (Linux; Android 5.1.1; vivo Y31 Build/LMY47V) AppleWebKit/537.36 (KHTML, like Gecko) Version/4.0 Chrome/37.0.0.0 Mobile MQQBrowser/6.8 TBS/036869 Safari/537.36 MicroMessenger/6.3.27.880 NetType/WIFI Language/zh_CN'
p61
sg16
S'ec815b0b6abcf611b63fbfc7865af523'
p62
sa(dp63
g2
S'46314'
p64
sg4
S'2559'
p65
sg6
S'97e9fb11252006eacb6ba3c27ef970f1'
p66
sg8
S'xxf313c4355c5767af911e521414198468'
p67
sg10
S'xx21ef2add7f5cbd50376b35ff47e55e00'
p68
sg12
S'xxea08be6b06de684ce652d9e997589262'
p69
sg14
S'Mozilla/5.0 (Linux; Android 5.1.1; vivo Y31 Build/LMY47V) AppleWebKit/537.36 (KHTML, like Gecko) Version/4.0 Chrome/37.0.0.0 Mobile MQQBrowser/6.8 TBS/036869 Safari/537.36 MicroMessenger/6.3.27.880 NetType/WIFI Language/zh_CN'
p70
sg16
S'ec815b0b6abcf611b63fbfc7865af523'
p71
sa(dp72
g2
S'46314'
p73
sg4
S'2585'
p74
sg6
S'97e9fb11252006eacb6ba3c27ef970f1'
p75
sg8
S'xxf313c4355c5767af911e521414198468'
p76
sg10
S'xx21ef2add7f5cbd50376b35ff47e55e00'
p77
sg12
S'xxea08be6b06de684ce652d9e997589262'
p78
sg14
S'Mozilla/5.0 (Linux; Android 5.1.1; vivo Y31 Build/LMY47V) AppleWebKit/537.36 (KHTML, like Gecko) Version/4.0 Chrome/37.0.0.0 Mobile MQQBrowser/6.8 TBS/036869 Safari/537.36 MicroMessenger/6.3.27.880 NetType/WIFI Language/zh_CN'
p79
sg16
S'ec815b0b6abcf611b63fbfc7865af523'
p80
sa(dp81
g2
S'46314'
p82
sg4
S'2607'
p83
sg6
S'97e9fb11252006eacb6ba3c27ef970f1'
p84
sg8
S'xxf313c4355c5767af911e521414198468'
p85
sg10
S'xx21ef2add7f5cbd50376b35ff47e55e00'
p86
sg12
S'xxea08be6b06de684ce652d9e997589262'
p87
sg14
S'Mozilla/5.0 (Linux; Android 5.1.1; vivo Y31 Build/LMY47V) AppleWebKit/537.36 (KHTML, like Gecko) Version/4.0 Chrome/37.0.0.0 Mobile MQQBrowser/6.8 TBS/036869 Safari/537.36 MicroMessenger/6.3.27.880 NetType/WIFI Language/zh_CN'
p88
sg16
S'ec815b0b6abcf611b63fbfc7865af523'
p89
sa(dp90
g2
S'46314'
p91
sg4
S'2642'
p92
sg6
S'97e9fb11252006eacb6ba3c27ef970f1'
p93
sg8
S'xxf313c4355c5767af911e521414198468'
p94
sg10
S'xx21ef2add7f5cbd50376b35ff47e55e00'
p95
sg12
S'xxea08be6b06de684ce652d9e997589262'
p96
sg14
S'Mozilla/5.0 (Linux; Android 5.1.1; vivo Y31 Build/LMY47V) AppleWebKit/537.36 (KHTML, like Gecko) Version/4.0 Chrome/37.0.0.0 Mobile MQQBrowser/6.8 TBS/036869 Safari/537.36 MicroMessenger/6.3.27.880 NetType/WIFI Language/zh_CN'
p97
sg16
S'ec815b0b6abcf611b63fbfc7865af523'
p98
sa(dp99
g2
S'46314'
p100
sg4
S'2667'
p101
sg6
S'97e9fb11252006eacb6ba3c27ef970f1'
p102
sg8
S'xxf313c4355c5767af911e521414198468'
p103
sg10
S'xx21ef2add7f5cbd50376b35ff47e55e00'
p104
sg12
S'xxea08be6b06de684ce652d9e997589262'
p105
sg14
S'Mozilla/5.0 (Linux; Android 5.1.1; vivo Y31 Build/LMY47V) AppleWebKit/537.36 (KHTML, like Gecko) Version/4.0 Chrome/37.0.0.0 Mobile MQQBrowser/6.8 TBS/036869 Safari/537.36 MicroMessenger/6.3.27.880 NetType/WIFI Language/zh_CN'
p106
sg16
S'ec815b0b6abcf611b63fbfc7865af523'
p107
sa(dp108
g2
S'46314'
p109
sg4
S'2695'
p110
sg6
S'97e9fb11252006eacb6ba3c27ef970f1'
p111
sg8
S'xxf313c4355c5767af911e521414198468'
p112
sg10
S'xx21ef2add7f5cbd50376b35ff47e55e00'
p113
sg12
S'xxea08be6b06de684ce652d9e997589262'
p114
sg14
S'Mozilla/5.0 (Linux; Android 5.1.1; vivo Y31 Build/LMY47V) AppleWebKit/537.36 (KHTML, like Gecko) Version/4.0 Chrome/37.0.0.0 Mobile MQQBrowser/6.8 TBS/036869 Safari/537.36 MicroMessenger/6.3.27.880 NetType/WIFI Language/zh_CN'
p115
sg16
S'ec815b0b6abcf611b63fbfc7865af523'
p116
sa(dp117
g2
S'46314'
p118
sg4
S'2712'
p119
sg6
S'97e9fb11252006eacb6ba3c27ef970f1'
p120
sg8
S'xxf313c4355c5767af911e521414198468'
p121
sg10
S'xx21ef2add7f5cbd50376b35ff47e55e00'
p122
sg12
S'xxea08be6b06de684ce652d9e997589262'
p123
sg14
S'Mozilla/5.0 (Linux; Android 5.1.1; vivo Y31 Build/LMY47V) AppleWebKit/537.36 (KHTML, like Gecko) Version/4.0 Chrome/37.0.0.0 Mobile MQQBrowser/6.8 TBS/036869 Safari/537.36 MicroMessenger/6.3.27.880 NetType/WIFI Language/zh_CN'
p124
sg16
S'ec815b0b6abcf611b63fbfc7865af523'
p125
sa(dp126
g2
S'46314'
p127
sg4
S'2728'
p128
sg6
S'97e9fb11252006eacb6ba3c27ef970f1'
p129
sg8
S'xxf313c4355c5767af911e521414198468'
p130
sg10
S'xx21ef2add7f5cbd50376b35ff47e55e00'
p131
sg12
S'xxea08be6b06de684ce652d9e997589262'
p132
sg14
S'Mozilla/5.0 (Linux; Android 5.1.1; vivo Y31 Build/LMY47V) AppleWebKit/537.36 (KHTML, like Gecko) Version/4.0 Chrome/37.0.0.0 Mobile MQQBrowser/6.8 TBS/036869 Safari/537.36 MicroMessenger/6.3.27.880 NetType/WIFI Language/zh_CN'
p133
sg16
S'ec815b0b6abcf611b63fbfc7865af523'
p134
sa(dp135
g2
S'46314'
p136
sg4
S'2757'
p137
sg6
S'97e9fb11252006eacb6ba3c27ef970f1'
p138
sg8
S'xxf313c4355c5767af911e521414198468'
p139
sg10
S'xx21ef2add7f5cbd50376b35ff47e55e00'
p140
sg12
S'xxea08be6b06de684ce652d9e997589262'
p141
sg14
S'Mozilla/5.0 (Linux; Android 5.1.1; vivo Y31 Build/LMY47V) AppleWebKit/537.36 (KHTML, like Gecko) Version/4.0 Chrome/37.0.0.0 Mobile MQQBrowser/6.8 TBS/036869 Safari/537.36 MicroMessenger/6.3.27.880 NetType/WIFI Language/zh_CN'
p142
sg16
S'ec815b0b6abcf611b63fbfc7865af523'
p143
sa(dp144
g2
S'46314'
p145
sg4
S'2778'
p146
sg6
S'97e9fb11252006eacb6ba3c27ef970f1'
p147
sg8
S'xxf313c4355c5767af911e521414198468'
p148
sg10
S'xx21ef2add7f5cbd50376b35ff47e55e00'
p149
sg12
S'xxea08be6b06de684ce652d9e997589262'
p150
sg14
S'Mozilla/5.0 (Linux; Android 5.1.1; vivo Y31 Build/LMY47V) AppleWebKit/537.36 (KHTML, like Gecko) Version/4.0 Chrome/37.0.0.0 Mobile MQQBrowser/6.8 TBS/036869 Safari/537.36 MicroMessenger/6.3.27.880 NetType/WIFI Language/zh_CN'
p151
sg16
S'ec815b0b6abcf611b63fbfc7865af523'
p152
sa(dp153
g2
S'46314'
p154
sg4
S'2836'
p155
sg6
S'97e9fb11252006eacb6ba3c27ef970f1'
p156
sg8
S'xxf313c4355c5767af911e521414198468'
p157
sg10
S'xx21ef2add7f5cbd50376b35ff47e55e00'
p158
sg12
S'xxea08be6b06de684ce652d9e997589262'
p159
sg14
S'Mozilla/5.0 (Linux; Android 5.1.1; vivo Y31 Build/LMY47V) AppleWebKit/537.36 (KHTML, like Gecko) Version/4.0 Chrome/37.0.0.0 Mobile MQQBrowser/6.8 TBS/036869 Safari/537.36 MicroMessenger/6.3.27.880 NetType/WIFI Language/zh_CN'
p160
sg16
S'ec815b0b6abcf611b63fbfc7865af523'
p161
sa.