(lp0
(dp1
S'user_id'
p2
S'46778'
p3
sS'data_id'
p4
S'3977'
p5
sS'ip'
p6
S'56623cd17d5742d7d39cf64511741eb4'
p7
sS'phone_B'
p8
S'xx3a55f11f6e0e0eb755a66bba3303fd3d'
p9
sS'phone_C'
p10
S'xx68ff6327a2cc37c9cc1b05c3d634ccc2'
p11
sS'phone_A'
p12
S'xxebd8243ff97464925917d81ac569ba43'
p13
sS'user_agent'
p14
S'Mozilla/5.0 (Linux; Android 4.4.2; HUAWEI C199 Build/HuaweiC199) AppleWebKit/537.36 (KHTML, like Gecko) Version/4.0 Chrome/37.0.0.0 Mobile MQQBrowser/6.8 TBS/036865 Safari/537.36 MicroMessenger/6.3.27.880 NetType/WIFI Language/zh_CN'
p15
sS'ua'
p16
S'19fdbd93a5964db479c6715678cda928'
p17
sa(dp18
g2
S'46778'
p19
sg4
S'3996'
p20
sg6
S'56623cd17d5742d7d39cf64511741eb4'
p21
sg8
S'xx3a55f11f6e0e0eb755a66bba3303fd3d'
p22
sg10
S'xx68ff6327a2cc37c9cc1b05c3d634ccc2'
p23
sg12
S'xxebd8243ff97464925917d81ac569ba43'
p24
sg14
S'Mozilla/5.0 (Linux; Android 4.4.2; HUAWEI C199 Build/HuaweiC199) AppleWebKit/537.36 (KHTML, like Gecko) Version/4.0 Chrome/37.0.0.0 Mobile MQQBrowser/6.8 TBS/036865 Safari/537.36 MicroMessenger/6.3.27.880 NetType/WIFI Language/zh_CN'
p25
sg16
S'19fdbd93a5964db479c6715678cda928'
p26
sa.