(lp0
(dp1
S'user_id'
p2
S'31793'
p3
sS'data_id'
p4
S'1905'
p5
sS'ip'
p6
S'7e2000ebab7c43b0c7fc851d1e875257'
p7
sS'phone_B'
p8
S'xx90a5ba49937d60cf1da7248331d3d086'
p9
sS'phone_C'
p10
S'xx40127b3a140751e77a9cc1579b2ecdf2'
p11
sS'phone_A'
p12
S'xxec4027a1b2d09e4deb52eec57a48d522'
p13
sS'user_agent'
p14
S'Mozilla/5.0 (Linux; Android 5.1.1; OPPO A53m Build/LMY47V) AppleWebKit/537.36 (KHTML, like Gecko) Version/4.0 Chrome/37.0.0.0 Mobile MQQBrowser/6.8 TBS/036865 Safari/537.36 MicroMessenger/6.3.27.880 NetType/WIFI Language/zh_CN'
p15
sS'ua'
p16
S'7b9bac0a328b02af8d8a31f0da8f9da4'
p17
sa(dp18
g2
S'31793'
p19
sg4
S'1921'
p20
sg6
S'7e2000ebab7c43b0c7fc851d1e875257'
p21
sg8
S'xx90a5ba49937d60cf1da7248331d3d086'
p22
sg10
S'xx40127b3a140751e77a9cc1579b2ecdf2'
p23
sg12
S'xxec4027a1b2d09e4deb52eec57a48d522'
p24
sg14
S'Mozilla/5.0 (Linux; Android 5.1.1; OPPO A53m Build/LMY47V) AppleWebKit/537.36 (KHTML, like Gecko) Version/4.0 Chrome/37.0.0.0 Mobile MQQBrowser/6.8 TBS/036865 Safari/537.36 MicroMessenger/6.3.27.880 NetType/WIFI Language/zh_CN'
p25
sg16
S'7b9bac0a328b02af8d8a31f0da8f9da4'
p26
sa(dp27
g2
S'8687'
p28
sg4
S'7746'
p29
sg6
S'754b17ce51412b4b52351bca35bc9487'
p30
sg8
S'xx785e1ce7f3487e07733a60ffbbf8ecbe'
p31
sg10
S'xx40127b3a140751e77a9cc1579b2ecdf2'
p32
sg12
S'xxec4027a1b2d09e4deb52eec57a48d522'
p33
sg14
S'Mozilla/5.0 (Linux; Android 5.1.1; OPPO A53m Build/LMY47V) AppleWebKit/537.36 (KHTML, like Gecko) Version/4.0 Chrome/37.0.0.0 Mobile MQQBrowser/6.8 TBS/036849 Safari/537.36 MicroMessenger/6.3.27.880 NetType/3gnet Language/zh_CN'
p34
sg16
S'ed66ae8f1c7e2eea4046cb14f88f56ab'
p35
sa(dp36
g2
S'8687'
p37
sg4
S'7762'
p38
sg6
S'754b17ce51412b4b52351bca35bc9487'
p39
sg8
S'xx785e1ce7f3487e07733a60ffbbf8ecbe'
p40
sg10
S'xx40127b3a140751e77a9cc1579b2ecdf2'
p41
sg12
S'xxec4027a1b2d09e4deb52eec57a48d522'
p42
sg14
S'Mozilla/5.0 (Linux; Android 5.1.1; OPPO A53m Build/LMY47V) AppleWebKit/537.36 (KHTML, like Gecko) Version/4.0 Chrome/37.0.0.0 Mobile MQQBrowser/6.8 TBS/036849 Safari/537.36 MicroMessenger/6.3.27.880 NetType/3gnet Language/zh_CN'
p43
sg16
S'ed66ae8f1c7e2eea4046cb14f88f56ab'
p44
sa(dp45
g2
S'8687'
p46
sg4
S'7776'
p47
sg6
S'754b17ce51412b4b52351bca35bc9487'
p48
sg8
S'xx785e1ce7f3487e07733a60ffbbf8ecbe'
p49
sg10
S'xx40127b3a140751e77a9cc1579b2ecdf2'
p50
sg12
S'xxec4027a1b2d09e4deb52eec57a48d522'
p51
sg14
S'Mozilla/5.0 (Linux; Android 5.1.1; OPPO A53m Build/LMY47V) AppleWebKit/537.36 (KHTML, like Gecko) Version/4.0 Chrome/37.0.0.0 Mobile MQQBrowser/6.8 TBS/036849 Safari/537.36 MicroMessenger/6.3.27.880 NetType/3gnet Language/zh_CN'
p52
sg16
S'ed66ae8f1c7e2eea4046cb14f88f56ab'
p53
sa.