(lp0
(dp1
S'user_id'
p2
S'48353'
p3
sS'data_id'
p4
S'509'
p5
sS'ip'
p6
S'57c97f7dbb24702a0e08e40af1e09fa0'
p7
sS'phone_B'
p8
S'xx2e61eb9f68a807ad575f91f9f6573e5d'
p9
sS'phone_C'
p10
S'xxf56cd5f1d0f3109e4206944447fd078e'
p11
sS'phone_A'
p12
S'xxefb21e069030ca68c27e7b5d2215412e'
p13
sS'user_agent'
p14
S'Mozilla/5.0 (Linux; Android 4.3; HUAWEI C8816 Build/HuaweiC8816) AppleWebKit/537.36 (KHTML, like Gecko) Version/4.0 Chrome/37.0.0.0 Mobile MQQBrowser/6.8 TBS/036849 Safari/537.36 MicroMessenger/6.3.27.880 NetType/ctwap Language/zh_CN'
p15
sS'ua'
p16
S'b4a1af014f055e20f9d44d7474512035'
p17
sa(dp18
g2
S'48353'
p19
sg4
S'526'
p20
sg6
S'57c97f7dbb24702a0e08e40af1e09fa0'
p21
sg8
S'xx2e61eb9f68a807ad575f91f9f6573e5d'
p22
sg10
S'xxf56cd5f1d0f3109e4206944447fd078e'
p23
sg12
S'xxefb21e069030ca68c27e7b5d2215412e'
p24
sg14
S'Mozilla/5.0 (Linux; Android 4.3; HUAWEI C8816 Build/HuaweiC8816) AppleWebKit/537.36 (KHTML, like Gecko) Version/4.0 Chrome/37.0.0.0 Mobile MQQBrowser/6.8 TBS/036849 Safari/537.36 MicroMessenger/6.3.27.880 NetType/ctwap Language/zh_CN'
p25
sg16
S'b4a1af014f055e20f9d44d7474512035'
p26
sa(dp27
g2
S'48353'
p28
sg4
S'537'
p29
sg6
S'57c97f7dbb24702a0e08e40af1e09fa0'
p30
sg8
S'xx2e61eb9f68a807ad575f91f9f6573e5d'
p31
sg10
S'xxf56cd5f1d0f3109e4206944447fd078e'
p32
sg12
S'xxefb21e069030ca68c27e7b5d2215412e'
p33
sg14
S'Mozilla/5.0 (Linux; Android 4.3; HUAWEI C8816 Build/HuaweiC8816) AppleWebKit/537.36 (KHTML, like Gecko) Version/4.0 Chrome/37.0.0.0 Mobile MQQBrowser/6.8 TBS/036849 Safari/537.36 MicroMessenger/6.3.27.880 NetType/ctwap Language/zh_CN'
p34
sg16
S'b4a1af014f055e20f9d44d7474512035'
p35
sa(dp36
g2
S'48353'
p37
sg4
S'552'
p38
sg6
S'57c97f7dbb24702a0e08e40af1e09fa0'
p39
sg8
S'xx2e61eb9f68a807ad575f91f9f6573e5d'
p40
sg10
S'xxf56cd5f1d0f3109e4206944447fd078e'
p41
sg12
S'xxefb21e069030ca68c27e7b5d2215412e'
p42
sg14
S'Mozilla/5.0 (Linux; Android 4.3; HUAWEI C8816 Build/HuaweiC8816) AppleWebKit/537.36 (KHTML, like Gecko) Version/4.0 Chrome/37.0.0.0 Mobile MQQBrowser/6.8 TBS/036849 Safari/537.36 MicroMessenger/6.3.27.880 NetType/ctwap Language/zh_CN'
p43
sg16
S'b4a1af014f055e20f9d44d7474512035'
p44
sa(dp45
g2
S'48353'
p46
sg4
S'573'
p47
sg6
S'57c97f7dbb24702a0e08e40af1e09fa0'
p48
sg8
S'xx2e61eb9f68a807ad575f91f9f6573e5d'
p49
sg10
S'xxf56cd5f1d0f3109e4206944447fd078e'
p50
sg12
S'xxefb21e069030ca68c27e7b5d2215412e'
p51
sg14
S'Mozilla/5.0 (Linux; Android 4.3; HUAWEI C8816 Build/HuaweiC8816) AppleWebKit/537.36 (KHTML, like Gecko) Version/4.0 Chrome/37.0.0.0 Mobile MQQBrowser/6.8 TBS/036849 Safari/537.36 MicroMessenger/6.3.27.880 NetType/ctwap Language/zh_CN'
p52
sg16
S'b4a1af014f055e20f9d44d7474512035'
p53
sa(dp54
g2
S'48353'
p55
sg4
S'595'
p56
sg6
S'57c97f7dbb24702a0e08e40af1e09fa0'
p57
sg8
S'xx2e61eb9f68a807ad575f91f9f6573e5d'
p58
sg10
S'xxf56cd5f1d0f3109e4206944447fd078e'
p59
sg12
S'xxefb21e069030ca68c27e7b5d2215412e'
p60
sg14
S'Mozilla/5.0 (Linux; Android 4.3; HUAWEI C8816 Build/HuaweiC8816) AppleWebKit/537.36 (KHTML, like Gecko) Version/4.0 Chrome/37.0.0.0 Mobile MQQBrowser/6.8 TBS/036849 Safari/537.36 MicroMessenger/6.3.27.880 NetType/ctwap Language/zh_CN'
p61
sg16
S'b4a1af014f055e20f9d44d7474512035'
p62
sa(dp63
g2
S'48353'
p64
sg4
S'612'
p65
sg6
S'57c97f7dbb24702a0e08e40af1e09fa0'
p66
sg8
S'xx2e61eb9f68a807ad575f91f9f6573e5d'
p67
sg10
S'xxf56cd5f1d0f3109e4206944447fd078e'
p68
sg12
S'xxefb21e069030ca68c27e7b5d2215412e'
p69
sg14
S'Mozilla/5.0 (Linux; Android 4.3; HUAWEI C8816 Build/HuaweiC8816) AppleWebKit/537.36 (KHTML, like Gecko) Version/4.0 Chrome/37.0.0.0 Mobile MQQBrowser/6.8 TBS/036849 Safari/537.36 MicroMessenger/6.3.27.880 NetType/ctwap Language/zh_CN'
p70
sg16
S'b4a1af014f055e20f9d44d7474512035'
p71
sa(dp72
g2
S'48353'
p73
sg4
S'632'
p74
sg6
S'57c97f7dbb24702a0e08e40af1e09fa0'
p75
sg8
S'xx2e61eb9f68a807ad575f91f9f6573e5d'
p76
sg10
S'xxf56cd5f1d0f3109e4206944447fd078e'
p77
sg12
S'xxefb21e069030ca68c27e7b5d2215412e'
p78
sg14
S'Mozilla/5.0 (Linux; Android 4.3; HUAWEI C8816 Build/HuaweiC8816) AppleWebKit/537.36 (KHTML, like Gecko) Version/4.0 Chrome/37.0.0.0 Mobile MQQBrowser/6.8 TBS/036849 Safari/537.36 MicroMessenger/6.3.27.880 NetType/ctwap Language/zh_CN'
p79
sg16
S'b4a1af014f055e20f9d44d7474512035'
p80
sa(dp81
g2
S'48353'
p82
sg4
S'645'
p83
sg6
S'57c97f7dbb24702a0e08e40af1e09fa0'
p84
sg8
S'xx2e61eb9f68a807ad575f91f9f6573e5d'
p85
sg10
S'xxf56cd5f1d0f3109e4206944447fd078e'
p86
sg12
S'xxefb21e069030ca68c27e7b5d2215412e'
p87
sg14
S'Mozilla/5.0 (Linux; Android 4.3; HUAWEI C8816 Build/HuaweiC8816) AppleWebKit/537.36 (KHTML, like Gecko) Version/4.0 Chrome/37.0.0.0 Mobile MQQBrowser/6.8 TBS/036849 Safari/537.36 MicroMessenger/6.3.27.880 NetType/ctwap Language/zh_CN'
p88
sg16
S'b4a1af014f055e20f9d44d7474512035'
p89
sa(dp90
g2
S'48353'
p91
sg4
S'658'
p92
sg6
S'57c97f7dbb24702a0e08e40af1e09fa0'
p93
sg8
S'xx2e61eb9f68a807ad575f91f9f6573e5d'
p94
sg10
S'xxf56cd5f1d0f3109e4206944447fd078e'
p95
sg12
S'xxefb21e069030ca68c27e7b5d2215412e'
p96
sg14
S'Mozilla/5.0 (Linux; Android 4.3; HUAWEI C8816 Build/HuaweiC8816) AppleWebKit/537.36 (KHTML, like Gecko) Version/4.0 Chrome/37.0.0.0 Mobile MQQBrowser/6.8 TBS/036849 Safari/537.36 MicroMessenger/6.3.27.880 NetType/ctwap Language/zh_CN'
p97
sg16
S'b4a1af014f055e20f9d44d7474512035'
p98
sa(dp99
g2
S'48353'
p100
sg4
S'671'
p101
sg6
S'57c97f7dbb24702a0e08e40af1e09fa0'
p102
sg8
S'xx2e61eb9f68a807ad575f91f9f6573e5d'
p103
sg10
S'xxf56cd5f1d0f3109e4206944447fd078e'
p104
sg12
S'xxefb21e069030ca68c27e7b5d2215412e'
p105
sg14
S'Mozilla/5.0 (Linux; Android 4.3; HUAWEI C8816 Build/HuaweiC8816) AppleWebKit/537.36 (KHTML, like Gecko) Version/4.0 Chrome/37.0.0.0 Mobile MQQBrowser/6.8 TBS/036849 Safari/537.36 MicroMessenger/6.3.27.880 NetType/ctwap Language/zh_CN'
p106
sg16
S'b4a1af014f055e20f9d44d7474512035'
p107
sa(dp108
g2
S'48353'
p109
sg4
S'685'
p110
sg6
S'57c97f7dbb24702a0e08e40af1e09fa0'
p111
sg8
S'xx2e61eb9f68a807ad575f91f9f6573e5d'
p112
sg10
S'xxf56cd5f1d0f3109e4206944447fd078e'
p113
sg12
S'xxefb21e069030ca68c27e7b5d2215412e'
p114
sg14
S'Mozilla/5.0 (Linux; Android 4.3; HUAWEI C8816 Build/HuaweiC8816) AppleWebKit/537.36 (KHTML, like Gecko) Version/4.0 Chrome/37.0.0.0 Mobile MQQBrowser/6.8 TBS/036849 Safari/537.36 MicroMessenger/6.3.27.880 NetType/ctwap Language/zh_CN'
p115
sg16
S'b4a1af014f055e20f9d44d7474512035'
p116
sa(dp117
g2
S'48353'
p118
sg4
S'697'
p119
sg6
S'57c97f7dbb24702a0e08e40af1e09fa0'
p120
sg8
S'xx2e61eb9f68a807ad575f91f9f6573e5d'
p121
sg10
S'xxf56cd5f1d0f3109e4206944447fd078e'
p122
sg12
S'xxefb21e069030ca68c27e7b5d2215412e'
p123
sg14
S'Mozilla/5.0 (Linux; Android 4.3; HUAWEI C8816 Build/HuaweiC8816) AppleWebKit/537.36 (KHTML, like Gecko) Version/4.0 Chrome/37.0.0.0 Mobile MQQBrowser/6.8 TBS/036849 Safari/537.36 MicroMessenger/6.3.27.880 NetType/ctwap Language/zh_CN'
p124
sg16
S'b4a1af014f055e20f9d44d7474512035'
p125
sa(dp126
g2
S'48353'
p127
sg4
S'712'
p128
sg6
S'57c97f7dbb24702a0e08e40af1e09fa0'
p129
sg8
S'xx2e61eb9f68a807ad575f91f9f6573e5d'
p130
sg10
S'xxf56cd5f1d0f3109e4206944447fd078e'
p131
sg12
S'xxefb21e069030ca68c27e7b5d2215412e'
p132
sg14
S'Mozilla/5.0 (Linux; Android 4.3; HUAWEI C8816 Build/HuaweiC8816) AppleWebKit/537.36 (KHTML, like Gecko) Version/4.0 Chrome/37.0.0.0 Mobile MQQBrowser/6.8 TBS/036849 Safari/537.36 MicroMessenger/6.3.27.880 NetType/ctwap Language/zh_CN'
p133
sg16
S'b4a1af014f055e20f9d44d7474512035'
p134
sa(dp135
g2
S'48353'
p136
sg4
S'722'
p137
sg6
S'57c97f7dbb24702a0e08e40af1e09fa0'
p138
sg8
S'xx2e61eb9f68a807ad575f91f9f6573e5d'
p139
sg10
S'xxf56cd5f1d0f3109e4206944447fd078e'
p140
sg12
S'xxefb21e069030ca68c27e7b5d2215412e'
p141
sg14
S'Mozilla/5.0 (Linux; Android 4.3; HUAWEI C8816 Build/HuaweiC8816) AppleWebKit/537.36 (KHTML, like Gecko) Version/4.0 Chrome/37.0.0.0 Mobile MQQBrowser/6.8 TBS/036849 Safari/537.36 MicroMessenger/6.3.27.880 NetType/ctwap Language/zh_CN'
p142
sg16
S'b4a1af014f055e20f9d44d7474512035'
p143
sa(dp144
g2
S'48353'
p145
sg4
S'1634'
p146
sg6
S'57c97f7dbb24702a0e08e40af1e09fa0'
p147
sg8
S'xx2e61eb9f68a807ad575f91f9f6573e5d'
p148
sg10
S'xxf56cd5f1d0f3109e4206944447fd078e'
p149
sg12
S'xxefb21e069030ca68c27e7b5d2215412e'
p150
sg14
S'Mozilla/5.0 (Linux; Android 4.3; HUAWEI C8816 Build/HuaweiC8816) AppleWebKit/537.36 (KHTML, like Gecko) Version/4.0 Chrome/37.0.0.0 Mobile MQQBrowser/6.8 TBS/036849 Safari/537.36 MicroMessenger/6.3.27.880 NetType/ctwap Language/zh_CN'
p151
sg16
S'b4a1af014f055e20f9d44d7474512035'
p152
sa(dp153
g2
S'48353'
p154
sg4
S'1649'
p155
sg6
S'57c97f7dbb24702a0e08e40af1e09fa0'
p156
sg8
S'xx2e61eb9f68a807ad575f91f9f6573e5d'
p157
sg10
S'xxf56cd5f1d0f3109e4206944447fd078e'
p158
sg12
S'xxefb21e069030ca68c27e7b5d2215412e'
p159
sg14
S'Mozilla/5.0 (Linux; Android 4.3; HUAWEI C8816 Build/HuaweiC8816) AppleWebKit/537.36 (KHTML, like Gecko) Version/4.0 Chrome/37.0.0.0 Mobile MQQBrowser/6.8 TBS/036849 Safari/537.36 MicroMessenger/6.3.27.880 NetType/ctwap Language/zh_CN'
p160
sg16
S'b4a1af014f055e20f9d44d7474512035'
p161
sa(dp162
g2
S'48353'
p163
sg4
S'1667'
p164
sg6
S'57c97f7dbb24702a0e08e40af1e09fa0'
p165
sg8
S'xx2e61eb9f68a807ad575f91f9f6573e5d'
p166
sg10
S'xxf56cd5f1d0f3109e4206944447fd078e'
p167
sg12
S'xxefb21e069030ca68c27e7b5d2215412e'
p168
sg14
S'Mozilla/5.0 (Linux; Android 4.3; HUAWEI C8816 Build/HuaweiC8816) AppleWebKit/537.36 (KHTML, like Gecko) Version/4.0 Chrome/37.0.0.0 Mobile MQQBrowser/6.8 TBS/036849 Safari/537.36 MicroMessenger/6.3.27.880 NetType/ctwap Language/zh_CN'
p169
sg16
S'b4a1af014f055e20f9d44d7474512035'
p170
sa(dp171
g2
S'48353'
p172
sg4
S'1687'
p173
sg6
S'57c97f7dbb24702a0e08e40af1e09fa0'
p174
sg8
S'xx2e61eb9f68a807ad575f91f9f6573e5d'
p175
sg10
S'xxf56cd5f1d0f3109e4206944447fd078e'
p176
sg12
S'xxefb21e069030ca68c27e7b5d2215412e'
p177
sg14
S'Mozilla/5.0 (Linux; Android 4.3; HUAWEI C8816 Build/HuaweiC8816) AppleWebKit/537.36 (KHTML, like Gecko) Version/4.0 Chrome/37.0.0.0 Mobile MQQBrowser/6.8 TBS/036849 Safari/537.36 MicroMessenger/6.3.27.880 NetType/ctwap Language/zh_CN'
p178
sg16
S'b4a1af014f055e20f9d44d7474512035'
p179
sa(dp180
g2
S'48353'
p181
sg4
S'1697'
p182
sg6
S'57c97f7dbb24702a0e08e40af1e09fa0'
p183
sg8
S'xx2e61eb9f68a807ad575f91f9f6573e5d'
p184
sg10
S'xxf56cd5f1d0f3109e4206944447fd078e'
p185
sg12
S'xxefb21e069030ca68c27e7b5d2215412e'
p186
sg14
S'Mozilla/5.0 (Linux; Android 4.3; HUAWEI C8816 Build/HuaweiC8816) AppleWebKit/537.36 (KHTML, like Gecko) Version/4.0 Chrome/37.0.0.0 Mobile MQQBrowser/6.8 TBS/036849 Safari/537.36 MicroMessenger/6.3.27.880 NetType/ctwap Language/zh_CN'
p187
sg16
S'b4a1af014f055e20f9d44d7474512035'
p188
sa(dp189
g2
S'48353'
p190
sg4
S'1709'
p191
sg6
S'57c97f7dbb24702a0e08e40af1e09fa0'
p192
sg8
S'xx2e61eb9f68a807ad575f91f9f6573e5d'
p193
sg10
S'xxf56cd5f1d0f3109e4206944447fd078e'
p194
sg12
S'xxefb21e069030ca68c27e7b5d2215412e'
p195
sg14
S'Mozilla/5.0 (Linux; Android 4.3; HUAWEI C8816 Build/HuaweiC8816) AppleWebKit/537.36 (KHTML, like Gecko) Version/4.0 Chrome/37.0.0.0 Mobile MQQBrowser/6.8 TBS/036849 Safari/537.36 MicroMessenger/6.3.27.880 NetType/ctwap Language/zh_CN'
p196
sg16
S'b4a1af014f055e20f9d44d7474512035'
p197
sa(dp198
g2
S'48353'
p199
sg4
S'1727'
p200
sg6
S'57c97f7dbb24702a0e08e40af1e09fa0'
p201
sg8
S'xx2e61eb9f68a807ad575f91f9f6573e5d'
p202
sg10
S'xxf56cd5f1d0f3109e4206944447fd078e'
p203
sg12
S'xxefb21e069030ca68c27e7b5d2215412e'
p204
sg14
S'Mozilla/5.0 (Linux; Android 4.3; HUAWEI C8816 Build/HuaweiC8816) AppleWebKit/537.36 (KHTML, like Gecko) Version/4.0 Chrome/37.0.0.0 Mobile MQQBrowser/6.8 TBS/036849 Safari/537.36 MicroMessenger/6.3.27.880 NetType/ctwap Language/zh_CN'
p205
sg16
S'b4a1af014f055e20f9d44d7474512035'
p206
sa(dp207
g2
S'48353'
p208
sg4
S'1745'
p209
sg6
S'57c97f7dbb24702a0e08e40af1e09fa0'
p210
sg8
S'xx2e61eb9f68a807ad575f91f9f6573e5d'
p211
sg10
S'xxf56cd5f1d0f3109e4206944447fd078e'
p212
sg12
S'xxefb21e069030ca68c27e7b5d2215412e'
p213
sg14
S'Mozilla/5.0 (Linux; Android 4.3; HUAWEI C8816 Build/HuaweiC8816) AppleWebKit/537.36 (KHTML, like Gecko) Version/4.0 Chrome/37.0.0.0 Mobile MQQBrowser/6.8 TBS/036849 Safari/537.36 MicroMessenger/6.3.27.880 NetType/ctwap Language/zh_CN'
p214
sg16
S'b4a1af014f055e20f9d44d7474512035'
p215
sa(dp216
g2
S'48353'
p217
sg4
S'1754'
p218
sg6
S'57c97f7dbb24702a0e08e40af1e09fa0'
p219
sg8
S'xx2e61eb9f68a807ad575f91f9f6573e5d'
p220
sg10
S'xxf56cd5f1d0f3109e4206944447fd078e'
p221
sg12
S'xxefb21e069030ca68c27e7b5d2215412e'
p222
sg14
S'Mozilla/5.0 (Linux; Android 4.3; HUAWEI C8816 Build/HuaweiC8816) AppleWebKit/537.36 (KHTML, like Gecko) Version/4.0 Chrome/37.0.0.0 Mobile MQQBrowser/6.8 TBS/036849 Safari/537.36 MicroMessenger/6.3.27.880 NetType/ctwap Language/zh_CN'
p223
sg16
S'b4a1af014f055e20f9d44d7474512035'
p224
sa(dp225
g2
S'48353'
p226
sg4
S'1775'
p227
sg6
S'57c97f7dbb24702a0e08e40af1e09fa0'
p228
sg8
S'xx2e61eb9f68a807ad575f91f9f6573e5d'
p229
sg10
S'xxf56cd5f1d0f3109e4206944447fd078e'
p230
sg12
S'xxefb21e069030ca68c27e7b5d2215412e'
p231
sg14
S'Mozilla/5.0 (Linux; Android 4.3; HUAWEI C8816 Build/HuaweiC8816) AppleWebKit/537.36 (KHTML, like Gecko) Version/4.0 Chrome/37.0.0.0 Mobile MQQBrowser/6.8 TBS/036849 Safari/537.36 MicroMessenger/6.3.27.880 NetType/ctwap Language/zh_CN'
p232
sg16
S'b4a1af014f055e20f9d44d7474512035'
p233
sa(dp234
g2
S'48353'
p235
sg4
S'1790'
p236
sg6
S'57c97f7dbb24702a0e08e40af1e09fa0'
p237
sg8
S'xx2e61eb9f68a807ad575f91f9f6573e5d'
p238
sg10
S'xxf56cd5f1d0f3109e4206944447fd078e'
p239
sg12
S'xxefb21e069030ca68c27e7b5d2215412e'
p240
sg14
S'Mozilla/5.0 (Linux; Android 4.3; HUAWEI C8816 Build/HuaweiC8816) AppleWebKit/537.36 (KHTML, like Gecko) Version/4.0 Chrome/37.0.0.0 Mobile MQQBrowser/6.8 TBS/036849 Safari/537.36 MicroMessenger/6.3.27.880 NetType/ctwap Language/zh_CN'
p241
sg16
S'b4a1af014f055e20f9d44d7474512035'
p242
sa(dp243
g2
S'48353'
p244
sg4
S'1806'
p245
sg6
S'57c97f7dbb24702a0e08e40af1e09fa0'
p246
sg8
S'xx2e61eb9f68a807ad575f91f9f6573e5d'
p247
sg10
S'xxf56cd5f1d0f3109e4206944447fd078e'
p248
sg12
S'xxefb21e069030ca68c27e7b5d2215412e'
p249
sg14
S'Mozilla/5.0 (Linux; Android 4.3; HUAWEI C8816 Build/HuaweiC8816) AppleWebKit/537.36 (KHTML, like Gecko) Version/4.0 Chrome/37.0.0.0 Mobile MQQBrowser/6.8 TBS/036849 Safari/537.36 MicroMessenger/6.3.27.880 NetType/ctwap Language/zh_CN'
p250
sg16
S'b4a1af014f055e20f9d44d7474512035'
p251
sa(dp252
g2
S'48353'
p253
sg4
S'1819'
p254
sg6
S'57c97f7dbb24702a0e08e40af1e09fa0'
p255
sg8
S'xx2e61eb9f68a807ad575f91f9f6573e5d'
p256
sg10
S'xxf56cd5f1d0f3109e4206944447fd078e'
p257
sg12
S'xxefb21e069030ca68c27e7b5d2215412e'
p258
sg14
S'Mozilla/5.0 (Linux; Android 4.3; HUAWEI C8816 Build/HuaweiC8816) AppleWebKit/537.36 (KHTML, like Gecko) Version/4.0 Chrome/37.0.0.0 Mobile MQQBrowser/6.8 TBS/036849 Safari/537.36 MicroMessenger/6.3.27.880 NetType/ctwap Language/zh_CN'
p259
sg16
S'b4a1af014f055e20f9d44d7474512035'
p260
sa(dp261
g2
S'48353'
p262
sg4
S'1831'
p263
sg6
S'57c97f7dbb24702a0e08e40af1e09fa0'
p264
sg8
S'xx2e61eb9f68a807ad575f91f9f6573e5d'
p265
sg10
S'xxf56cd5f1d0f3109e4206944447fd078e'
p266
sg12
S'xxefb21e069030ca68c27e7b5d2215412e'
p267
sg14
S'Mozilla/5.0 (Linux; Android 4.3; HUAWEI C8816 Build/HuaweiC8816) AppleWebKit/537.36 (KHTML, like Gecko) Version/4.0 Chrome/37.0.0.0 Mobile MQQBrowser/6.8 TBS/036849 Safari/537.36 MicroMessenger/6.3.27.880 NetType/ctwap Language/zh_CN'
p268
sg16
S'b4a1af014f055e20f9d44d7474512035'
p269
sa(dp270
g2
S'48353'
p271
sg4
S'1846'
p272
sg6
S'57c97f7dbb24702a0e08e40af1e09fa0'
p273
sg8
S'xx2e61eb9f68a807ad575f91f9f6573e5d'
p274
sg10
S'xxf56cd5f1d0f3109e4206944447fd078e'
p275
sg12
S'xxefb21e069030ca68c27e7b5d2215412e'
p276
sg14
S'Mozilla/5.0 (Linux; Android 4.3; HUAWEI C8816 Build/HuaweiC8816) AppleWebKit/537.36 (KHTML, like Gecko) Version/4.0 Chrome/37.0.0.0 Mobile MQQBrowser/6.8 TBS/036849 Safari/537.36 MicroMessenger/6.3.27.880 NetType/ctwap Language/zh_CN'
p277
sg16
S'b4a1af014f055e20f9d44d7474512035'
p278
sa(dp279
g2
S'48353'
p280
sg4
S'1859'
p281
sg6
S'57c97f7dbb24702a0e08e40af1e09fa0'
p282
sg8
S'xx2e61eb9f68a807ad575f91f9f6573e5d'
p283
sg10
S'xxf56cd5f1d0f3109e4206944447fd078e'
p284
sg12
S'xxefb21e069030ca68c27e7b5d2215412e'
p285
sg14
S'Mozilla/5.0 (Linux; Android 4.3; HUAWEI C8816 Build/HuaweiC8816) AppleWebKit/537.36 (KHTML, like Gecko) Version/4.0 Chrome/37.0.0.0 Mobile MQQBrowser/6.8 TBS/036849 Safari/537.36 MicroMessenger/6.3.27.880 NetType/ctwap Language/zh_CN'
p286
sg16
S'b4a1af014f055e20f9d44d7474512035'
p287
sa.