(lp0
(dp1
S'user_id'
p2
S'17159'
p3
sS'data_id'
p4
S'7748'
p5
sS'ip'
p6
S'd66c95a4c1c7aa3ad1fe1162a8491ff3'
p7
sS'phone_B'
p8
S'xxf3c7c09f2a360cb599198e07ea5c1e4e'
p9
sS'phone_C'
p10
S'xx7b095e7288d4e18b0040f72dda7e33b0'
p11
sS'phone_A'
p12
S'xxf03d20b408448cfae6e78b3f14b8283f'
p13
sS'user_agent'
p14
S'Mozilla/5.0 (Linux; Android 5.0; SM-N9008V Build/LRX21V) AppleWebKit/537.36 (KHTML, like Gecko) Version/4.0 Chrome/37.0.0.0 Mobile MQQBrowser/6.8 TBS/036824 Safari/537.36 MicroMessenger/6.3.25.861 NetType/WIFI Language/zh_CN'
p15
sS'ua'
p16
S'b39c20cf73bff2f670234e6de885cbea'
p17
sa(dp18
g2
S'17159'
p19
sg4
S'7764'
p20
sg6
S'd66c95a4c1c7aa3ad1fe1162a8491ff3'
p21
sg8
S'xxf3c7c09f2a360cb599198e07ea5c1e4e'
p22
sg10
S'xx7b095e7288d4e18b0040f72dda7e33b0'
p23
sg12
S'xxf03d20b408448cfae6e78b3f14b8283f'
p24
sg14
S'Mozilla/5.0 (Linux; Android 5.0; SM-N9008V Build/LRX21V) AppleWebKit/537.36 (KHTML, like Gecko) Version/4.0 Chrome/37.0.0.0 Mobile MQQBrowser/6.8 TBS/036824 Safari/537.36 MicroMessenger/6.3.25.861 NetType/WIFI Language/zh_CN'
p25
sg16
S'b39c20cf73bff2f670234e6de885cbea'
p26
sa(dp27
g2
S'17159'
p28
sg4
S'7783'
p29
sg6
S'd66c95a4c1c7aa3ad1fe1162a8491ff3'
p30
sg8
S'xxf3c7c09f2a360cb599198e07ea5c1e4e'
p31
sg10
S'xx7b095e7288d4e18b0040f72dda7e33b0'
p32
sg12
S'xxf03d20b408448cfae6e78b3f14b8283f'
p33
sg14
S'Mozilla/5.0 (Linux; Android 5.0; SM-N9008V Build/LRX21V) AppleWebKit/537.36 (KHTML, like Gecko) Version/4.0 Chrome/37.0.0.0 Mobile MQQBrowser/6.8 TBS/036824 Safari/537.36 MicroMessenger/6.3.25.861 NetType/WIFI Language/zh_CN'
p34
sg16
S'b39c20cf73bff2f670234e6de885cbea'
p35
sa(dp36
g2
S'17159'
p37
sg4
S'7802'
p38
sg6
S'd66c95a4c1c7aa3ad1fe1162a8491ff3'
p39
sg8
S'xxf3c7c09f2a360cb599198e07ea5c1e4e'
p40
sg10
S'xx7b095e7288d4e18b0040f72dda7e33b0'
p41
sg12
S'xxf03d20b408448cfae6e78b3f14b8283f'
p42
sg14
S'Mozilla/5.0 (Linux; Android 5.0; SM-N9008V Build/LRX21V) AppleWebKit/537.36 (KHTML, like Gecko) Version/4.0 Chrome/37.0.0.0 Mobile MQQBrowser/6.8 TBS/036824 Safari/537.36 MicroMessenger/6.3.25.861 NetType/WIFI Language/zh_CN'
p43
sg16
S'b39c20cf73bff2f670234e6de885cbea'
p44
sa(dp45
g2
S'17159'
p46
sg4
S'8045'
p47
sg6
S'd66c95a4c1c7aa3ad1fe1162a8491ff3'
p48
sg8
S'xx7d301b2f4e4bc5d096f00eb978452f9f'
p49
sg10
S'xx297169ab513b75523ad555634c9ae91a'
p50
sg12
S'xxf03d20b408448cfae6e78b3f14b8283f'
p51
sg14
S'Mozilla/5.0 (Linux; Android 5.0; SM-N9008V Build/LRX21V) AppleWebKit/537.36 (KHTML, like Gecko) Version/4.0 Chrome/37.0.0.0 Mobile MQQBrowser/6.8 TBS/036824 Safari/537.36 MicroMessenger/6.3.25.861 NetType/WIFI Language/zh_CN'
p52
sg16
S'b39c20cf73bff2f670234e6de885cbea'
p53
sa(dp54
g2
S'17159'
p55
sg4
S'8060'
p56
sg6
S'd66c95a4c1c7aa3ad1fe1162a8491ff3'
p57
sg8
S'xx7d301b2f4e4bc5d096f00eb978452f9f'
p58
sg10
S'xx297169ab513b75523ad555634c9ae91a'
p59
sg12
S'xxf03d20b408448cfae6e78b3f14b8283f'
p60
sg14
S'Mozilla/5.0 (Linux; Android 5.0; SM-N9008V Build/LRX21V) AppleWebKit/537.36 (KHTML, like Gecko) Version/4.0 Chrome/37.0.0.0 Mobile MQQBrowser/6.8 TBS/036824 Safari/537.36 MicroMessenger/6.3.25.861 NetType/WIFI Language/zh_CN'
p61
sg16
S'b39c20cf73bff2f670234e6de885cbea'
p62
sa(dp63
g2
S'17159'
p64
sg4
S'8066'
p65
sg6
S'd66c95a4c1c7aa3ad1fe1162a8491ff3'
p66
sg8
S'xx7d301b2f4e4bc5d096f00eb978452f9f'
p67
sg10
S'xx297169ab513b75523ad555634c9ae91a'
p68
sg12
S'xxf03d20b408448cfae6e78b3f14b8283f'
p69
sg14
S'Mozilla/5.0 (Linux; Android 5.0; SM-N9008V Build/LRX21V) AppleWebKit/537.36 (KHTML, like Gecko) Version/4.0 Chrome/37.0.0.0 Mobile MQQBrowser/6.8 TBS/036824 Safari/537.36 MicroMessenger/6.3.25.861 NetType/WIFI Language/zh_CN'
p70
sg16
S'b39c20cf73bff2f670234e6de885cbea'
p71
sa(dp72
g2
S'17159'
p73
sg4
S'8081'
p74
sg6
S'd66c95a4c1c7aa3ad1fe1162a8491ff3'
p75
sg8
S'xx7d301b2f4e4bc5d096f00eb978452f9f'
p76
sg10
S'xx297169ab513b75523ad555634c9ae91a'
p77
sg12
S'xxf03d20b408448cfae6e78b3f14b8283f'
p78
sg14
S'Mozilla/5.0 (Linux; Android 5.0; SM-N9008V Build/LRX21V) AppleWebKit/537.36 (KHTML, like Gecko) Version/4.0 Chrome/37.0.0.0 Mobile MQQBrowser/6.8 TBS/036824 Safari/537.36 MicroMessenger/6.3.25.861 NetType/WIFI Language/zh_CN'
p79
sg16
S'b39c20cf73bff2f670234e6de885cbea'
p80
sa(dp81
g2
S'17159'
p82
sg4
S'8102'
p83
sg6
S'd66c95a4c1c7aa3ad1fe1162a8491ff3'
p84
sg8
S'xx7d301b2f4e4bc5d096f00eb978452f9f'
p85
sg10
S'xx297169ab513b75523ad555634c9ae91a'
p86
sg12
S'xxf03d20b408448cfae6e78b3f14b8283f'
p87
sg14
S'Mozilla/5.0 (Linux; Android 5.0; SM-N9008V Build/LRX21V) AppleWebKit/537.36 (KHTML, like Gecko) Version/4.0 Chrome/37.0.0.0 Mobile MQQBrowser/6.8 TBS/036824 Safari/537.36 MicroMessenger/6.3.25.861 NetType/WIFI Language/zh_CN'
p88
sg16
S'b39c20cf73bff2f670234e6de885cbea'
p89
sa(dp90
g2
S'17159'
p91
sg4
S'8125'
p92
sg6
S'd66c95a4c1c7aa3ad1fe1162a8491ff3'
p93
sg8
S'xx7d301b2f4e4bc5d096f00eb978452f9f'
p94
sg10
S'xx297169ab513b75523ad555634c9ae91a'
p95
sg12
S'xxf03d20b408448cfae6e78b3f14b8283f'
p96
sg14
S'Mozilla/5.0 (Linux; Android 5.0; SM-N9008V Build/LRX21V) AppleWebKit/537.36 (KHTML, like Gecko) Version/4.0 Chrome/37.0.0.0 Mobile MQQBrowser/6.8 TBS/036824 Safari/537.36 MicroMessenger/6.3.25.861 NetType/WIFI Language/zh_CN'
p97
sg16
S'b39c20cf73bff2f670234e6de885cbea'
p98
sa.