(lp0
(dp1
S'user_id'
p2
S'31253'
p3
sS'data_id'
p4
S'1034'
p5
sS'ip'
p6
S'a9f31e12a2cb8b23a96e46d60b589c24'
p7
sS'phone_B'
p8
S'xx70a3bba346b049ae4cfa7533caf1b049'
p9
sS'phone_C'
p10
S'xxdd89dd9622640fc8babc2c45a67289ba'
p11
sS'phone_A'
p12
S'xxf0982079e3cfc53c79fc3692c8f011a3'
p13
sS'user_agent'
p14
S'Mozilla/5.0 (Linux; Android 4.4.2; vivo Y22iL Build/KOT49H) AppleWebKit/537.36 (KHTML, like Gecko) Version/4.0 Chrome/37.0.0.0 Mobile MQQBrowser/6.8 TBS/036849 Safari/537.36 MicroMessenger/6.3.25.861 NetType/WIFI Language/zh_CN'
p15
sS'ua'
p16
S'6c9db7bc29a14225be5c52e42be63a05'
p17
sa(dp18
g2
S'30021'
p19
sg4
S'2634'
p20
sg6
S'5d46bd510df8e12954dc9ce0b6b18ebe'
p21
sg8
S'xx43840db1602457e143b4bcc58012a1be'
p22
sg10
S'xxdd89dd9622640fc8babc2c45a67289ba'
p23
sg12
S'xxf0982079e3cfc53c79fc3692c8f011a3'
p24
sg14
S'Mozilla/5.0 (Linux; Android 4.4.2; vivo Y22iL Build/KOT49H) AppleWebKit/537.36 (KHTML, like Gecko) Version/4.0 Chrome/37.0.0.0 Mobile MQQBrowser/6.8 TBS/036849 Safari/537.36 MicroMessenger/6.3.27.880 NetType/WIFI Language/zh_CN'
p25
sg16
S'7a0f730f1b6f519ded469bc91d399d91'
p26
sa(dp27
g2
S'30021'
p28
sg4
S'2656'
p29
sg6
S'5d46bd510df8e12954dc9ce0b6b18ebe'
p30
sg8
S'xx43840db1602457e143b4bcc58012a1be'
p31
sg10
S'xxdd89dd9622640fc8babc2c45a67289ba'
p32
sg12
S'xxf0982079e3cfc53c79fc3692c8f011a3'
p33
sg14
S'Mozilla/5.0 (Linux; Android 4.4.2; vivo Y22iL Build/KOT49H) AppleWebKit/537.36 (KHTML, like Gecko) Version/4.0 Chrome/37.0.0.0 Mobile MQQBrowser/6.8 TBS/036849 Safari/537.36 MicroMessenger/6.3.27.880 NetType/WIFI Language/zh_CN'
p34
sg16
S'7a0f730f1b6f519ded469bc91d399d91'
p35
sa(dp36
g2
S'39316'
p37
sg4
S'7956'
p38
sg6
S'c210bd062acabd662c5c8ff4fe6c0911'
p39
sg8
S'xx43840db1602457e143b4bcc58012a1be'
p40
sg10
S'xxdd89dd9622640fc8babc2c45a67289ba'
p41
sg12
S'xxf0982079e3cfc53c79fc3692c8f011a3'
p42
sg14
S'Mozilla/5.0 (Linux; Android 4.4.2; vivo Y22iL Build/KOT49H) AppleWebKit/537.36 (KHTML, like Gecko) Version/4.0 Chrome/37.0.0.0 Mobile MQQBrowser/6.8 TBS/036849 Safari/537.36 MicroMessenger/6.3.27.880 NetType/WIFI Language/zh_CN'
p43
sg16
S'7a0f730f1b6f519ded469bc91d399d91'
p44
sa(dp45
g2
S'39316'
p46
sg4
S'7973'
p47
sg6
S'c210bd062acabd662c5c8ff4fe6c0911'
p48
sg8
S'xx43840db1602457e143b4bcc58012a1be'
p49
sg10
S'xxdd89dd9622640fc8babc2c45a67289ba'
p50
sg12
S'xxf0982079e3cfc53c79fc3692c8f011a3'
p51
sg14
S'Mozilla/5.0 (Linux; Android 4.4.2; vivo Y22iL Build/KOT49H) AppleWebKit/537.36 (KHTML, like Gecko) Version/4.0 Chrome/37.0.0.0 Mobile MQQBrowser/6.8 TBS/036849 Safari/537.36 MicroMessenger/6.3.27.880 NetType/WIFI Language/zh_CN'
p52
sg16
S'7a0f730f1b6f519ded469bc91d399d91'
p53
sa.