(lp0
(dp1
S'user_id'
p2
S'33808'
p3
sS'data_id'
p4
S'5058'
p5
sS'ip'
p6
S'8149311427f4f11a25e1c06c2e360562'
p7
sS'phone_B'
p8
S'xx56fdba282bfbd581f667112fa69a0736'
p9
sS'phone_C'
p10
S'xx9d93e6e1cdad652f30e0456b70a7e46c'
p11
sS'phone_A'
p12
S'xxf277da7598294d84ff463756b7dce90f'
p13
sS'user_agent'
p14
S'Mozilla/5.0 (Linux; Android 4.4.4; TCL M2M Build/KTU84P) AppleWebKit/537.36 (KHTML, like Gecko) Version/4.0 Chrome/37.0.0.0 Mobile MQQBrowser/6.8 TBS/036849 Safari/537.36 MicroMessenger/6.3.27.880 NetType/cmnet Language/en'
p15
sS'ua'
p16
S'd56925c6e22dc249061291c6b12cde95'
p17
sa(dp18
g2
S'33808'
p19
sg4
S'5072'
p20
sg6
S'8149311427f4f11a25e1c06c2e360562'
p21
sg8
S'xx56fdba282bfbd581f667112fa69a0736'
p22
sg10
S'xx9d93e6e1cdad652f30e0456b70a7e46c'
p23
sg12
S'xxf277da7598294d84ff463756b7dce90f'
p24
sg14
S'Mozilla/5.0 (Linux; Android 4.4.4; TCL M2M Build/KTU84P) AppleWebKit/537.36 (KHTML, like Gecko) Version/4.0 Chrome/37.0.0.0 Mobile MQQBrowser/6.8 TBS/036849 Safari/537.36 MicroMessenger/6.3.27.880 NetType/cmnet Language/en'
p25
sg16
S'd56925c6e22dc249061291c6b12cde95'
p26
sa(dp27
g2
S'33808'
p28
sg4
S'5091'
p29
sg6
S'8149311427f4f11a25e1c06c2e360562'
p30
sg8
S'xx56fdba282bfbd581f667112fa69a0736'
p31
sg10
S'xx9d93e6e1cdad652f30e0456b70a7e46c'
p32
sg12
S'xxf277da7598294d84ff463756b7dce90f'
p33
sg14
S'Mozilla/5.0 (Linux; Android 4.4.4; TCL M2M Build/KTU84P) AppleWebKit/537.36 (KHTML, like Gecko) Version/4.0 Chrome/37.0.0.0 Mobile MQQBrowser/6.8 TBS/036849 Safari/537.36 MicroMessenger/6.3.27.880 NetType/cmnet Language/en'
p34
sg16
S'd56925c6e22dc249061291c6b12cde95'
p35
sa(dp36
g2
S'33808'
p37
sg4
S'5107'
p38
sg6
S'8149311427f4f11a25e1c06c2e360562'
p39
sg8
S'xx56fdba282bfbd581f667112fa69a0736'
p40
sg10
S'xx9d93e6e1cdad652f30e0456b70a7e46c'
p41
sg12
S'xxf277da7598294d84ff463756b7dce90f'
p42
sg14
S'Mozilla/5.0 (Linux; Android 4.4.4; TCL M2M Build/KTU84P) AppleWebKit/537.36 (KHTML, like Gecko) Version/4.0 Chrome/37.0.0.0 Mobile MQQBrowser/6.8 TBS/036849 Safari/537.36 MicroMessenger/6.3.27.880 NetType/cmnet Language/en'
p43
sg16
S'd56925c6e22dc249061291c6b12cde95'
p44
sa.