(lp0
(dp1
S'user_id'
p2
S'31881'
p3
sS'data_id'
p4
S'57'
p5
sS'ip'
p6
S'783ec5c440b55f32ca4f1c46a5126757'
p7
sS'phone_B'
p8
S'xx9302e84897386746c1395e2d82ed2f26'
p9
sS'phone_C'
p10
S'xxef3e00e203f834cd43e95db4d50c5f90'
p11
sS'phone_A'
p12
S'xxf2658fc52299b8afc2688b5583ed7b9b'
p13
sS'user_agent'
p14
S'Mozilla/5.0 (Linux; Android 4.4.4; vivo Y13L Build/KTU84P) AppleWebKit/537.36 (KHTML, like Gecko) Version/4.0 Chrome/37.0.0.0 Mobile MQQBrowser/6.8 TBS/036864 Safari/537.36 MicroMessenger/6.3.27.880 NetType/WIFI Language/zh_CN'
p15
sS'ua'
p16
S'e6e78e403bfa6fbef104a8fa16e519af'
p17
sa(dp18
g2
S'31881'
p19
sg4
S'66'
p20
sg6
S'783ec5c440b55f32ca4f1c46a5126757'
p21
sg8
S'xx9302e84897386746c1395e2d82ed2f26'
p22
sg10
S'xxef3e00e203f834cd43e95db4d50c5f90'
p23
sg12
S'xxf2658fc52299b8afc2688b5583ed7b9b'
p24
sg14
S'Mozilla/5.0 (Linux; Android 4.4.4; vivo Y13L Build/KTU84P) AppleWebKit/537.36 (KHTML, like Gecko) Version/4.0 Chrome/37.0.0.0 Mobile MQQBrowser/6.8 TBS/036864 Safari/537.36 MicroMessenger/6.3.27.880 NetType/WIFI Language/zh_CN'
p25
sg16
S'e6e78e403bfa6fbef104a8fa16e519af'
p26
sa(dp27
g2
S'31888'
p28
sg4
S'893'
p29
sg6
S'783ec5c440b55f32ca4f1c46a5126757'
p30
sg8
S'xx9302e84897386746c1395e2d82ed2f26'
p31
sg10
S'xxef3e00e203f834cd43e95db4d50c5f90'
p32
sg12
S'xxf2658fc52299b8afc2688b5583ed7b9b'
p33
sg14
S'Mozilla/5.0 (Linux; Android 4.4.4; vivo Y13L Build/KTU84P) AppleWebKit/537.36 (KHTML, like Gecko) Version/4.0 Chrome/37.0.0.0 Mobile MQQBrowser/6.8 TBS/036864 Safari/537.36 MicroMessenger/6.3.27.880 NetType/WIFI Language/zh_CN'
p34
sg16
S'e6e78e403bfa6fbef104a8fa16e519af'
p35
sa(dp36
g2
S'31888'
p37
sg4
S'910'
p38
sg6
S'783ec5c440b55f32ca4f1c46a5126757'
p39
sg8
S'xx9302e84897386746c1395e2d82ed2f26'
p40
sg10
S'xxef3e00e203f834cd43e95db4d50c5f90'
p41
sg12
S'xxf2658fc52299b8afc2688b5583ed7b9b'
p42
sg14
S'Mozilla/5.0 (Linux; Android 4.4.4; vivo Y13L Build/KTU84P) AppleWebKit/537.36 (KHTML, like Gecko) Version/4.0 Chrome/37.0.0.0 Mobile MQQBrowser/6.8 TBS/036864 Safari/537.36 MicroMessenger/6.3.27.880 NetType/WIFI Language/zh_CN'
p43
sg16
S'e6e78e403bfa6fbef104a8fa16e519af'
p44
sa(dp45
g2
S'31204'
p46
sg4
S'1934'
p47
sg6
S'ce007e11f3a51fcd3cd90d7ea97dda2d'
p48
sg8
S'xx9a64a9f8d377ae2f85b93aec334be8bc'
p49
sg10
S'xx109408be96dd6c37de78d2c106bb968f'
p50
sg12
S'xxf2658fc52299b8afc2688b5583ed7b9b'
p51
sg14
S'Mozilla/5.0 (Linux; Android 4.4.4; vivo Y13L Build/KTU84P) AppleWebKit/537.36 (KHTML, like Gecko) Version/4.0 Chrome/37.0.0.0 Mobile MQQBrowser/6.8 TBS/036865 Safari/537.36 MicroMessenger/6.3.27.880 NetType/WIFI Language/zh_CN'
p52
sg16
S'41abc16c6c24a19b8d21f17736b8cf66'
p53
sa(dp54
g2
S'31204'
p55
sg4
S'1953'
p56
sg6
S'ce007e11f3a51fcd3cd90d7ea97dda2d'
p57
sg8
S'xx9a64a9f8d377ae2f85b93aec334be8bc'
p58
sg10
S'xx109408be96dd6c37de78d2c106bb968f'
p59
sg12
S'xxf2658fc52299b8afc2688b5583ed7b9b'
p60
sg14
S'Mozilla/5.0 (Linux; Android 4.4.4; vivo Y13L Build/KTU84P) AppleWebKit/537.36 (KHTML, like Gecko) Version/4.0 Chrome/37.0.0.0 Mobile MQQBrowser/6.8 TBS/036865 Safari/537.36 MicroMessenger/6.3.27.880 NetType/WIFI Language/zh_CN'
p61
sg16
S'41abc16c6c24a19b8d21f17736b8cf66'
p62
sa(dp63
g2
S'19891'
p64
sg4
S'5258'
p65
sg6
S'7470be4cdd895a5288c45b70e34cddc6'
p66
sg8
S'xx520eb32543e36193a70a36ba67350a42'
p67
sg10
S'xxd328304be2214906ecf8b73a7fd3448e'
p68
sg12
S'xxf2658fc52299b8afc2688b5583ed7b9b'
p69
sg14
S'Mozilla/5.0 (Linux; Android 4.4.4; vivo Y13L Build/KTU84P) AppleWebKit/537.36 (KHTML, like Gecko) Version/4.0 Chrome/37.0.0.0 Mobile MQQBrowser/6.8 TBS/036849 Safari/537.36 MicroMessenger/6.3.27.880 NetType/WIFI Language/zh_CN'
p70
sg16
S'a26a0c4db1f3df2198a8c60ec557f4a2'
p71
sa(dp72
g2
S'19891'
p73
sg4
S'5274'
p74
sg6
S'7470be4cdd895a5288c45b70e34cddc6'
p75
sg8
S'xx520eb32543e36193a70a36ba67350a42'
p76
sg10
S'xxd328304be2214906ecf8b73a7fd3448e'
p77
sg12
S'xxf2658fc52299b8afc2688b5583ed7b9b'
p78
sg14
S'Mozilla/5.0 (Linux; Android 4.4.4; vivo Y13L Build/KTU84P) AppleWebKit/537.36 (KHTML, like Gecko) Version/4.0 Chrome/37.0.0.0 Mobile MQQBrowser/6.8 TBS/036849 Safari/537.36 MicroMessenger/6.3.27.880 NetType/WIFI Language/zh_CN'
p79
sg16
S'a26a0c4db1f3df2198a8c60ec557f4a2'
p80
sa(dp81
g2
S'36836'
p82
sg4
S'5810'
p83
sg6
S'ae7a74f85d9c2ef99fa5c35b39b37250'
p84
sg8
S'xx520eb32543e36193a70a36ba67350a42'
p85
sg10
S'xxd328304be2214906ecf8b73a7fd3448e'
p86
sg12
S'xxf2658fc52299b8afc2688b5583ed7b9b'
p87
sg14
S'Mozilla/5.0 (Linux; Android 4.4.4; vivo Y13L Build/KTU84P) AppleWebKit/537.36 (KHTML, like Gecko) Version/4.0 Chrome/37.0.0.0 Mobile MQQBrowser/6.8 TBS/036849 Safari/537.36 MicroMessenger/6.3.27.880 NetType/WIFI Language/zh_CN'
p88
sg16
S'a26a0c4db1f3df2198a8c60ec557f4a2'
p89
sa(dp90
g2
S'36836'
p91
sg4
S'5826'
p92
sg6
S'ae7a74f85d9c2ef99fa5c35b39b37250'
p93
sg8
S'xx520eb32543e36193a70a36ba67350a42'
p94
sg10
S'xxd328304be2214906ecf8b73a7fd3448e'
p95
sg12
S'xxf2658fc52299b8afc2688b5583ed7b9b'
p96
sg14
S'Mozilla/5.0 (Linux; Android 4.4.4; vivo Y13L Build/KTU84P) AppleWebKit/537.36 (KHTML, like Gecko) Version/4.0 Chrome/37.0.0.0 Mobile MQQBrowser/6.8 TBS/036849 Safari/537.36 MicroMessenger/6.3.27.880 NetType/WIFI Language/zh_CN'
p97
sg16
S'a26a0c4db1f3df2198a8c60ec557f4a2'
p98
sa(dp99
g2
S'19891'
p100
sg4
S'5940'
p101
sg6
S'7470be4cdd895a5288c45b70e34cddc6'
p102
sg8
S'xx520eb32543e36193a70a36ba67350a42'
p103
sg10
S'xxd328304be2214906ecf8b73a7fd3448e'
p104
sg12
S'xxf2658fc52299b8afc2688b5583ed7b9b'
p105
sg14
S'Mozilla/5.0 (Linux; Android 4.4.4; vivo Y13L Build/KTU84P) AppleWebKit/537.36 (KHTML, like Gecko) Version/4.0 Chrome/37.0.0.0 Mobile MQQBrowser/6.8 TBS/036849 Safari/537.36 MicroMessenger/6.3.27.880 NetType/WIFI Language/zh_CN'
p106
sg16
S'a26a0c4db1f3df2198a8c60ec557f4a2'
p107
sa(dp108
g2
S'19891'
p109
sg4
S'5956'
p110
sg6
S'7470be4cdd895a5288c45b70e34cddc6'
p111
sg8
S'xx520eb32543e36193a70a36ba67350a42'
p112
sg10
S'xxd328304be2214906ecf8b73a7fd3448e'
p113
sg12
S'xxf2658fc52299b8afc2688b5583ed7b9b'
p114
sg14
S'Mozilla/5.0 (Linux; Android 4.4.4; vivo Y13L Build/KTU84P) AppleWebKit/537.36 (KHTML, like Gecko) Version/4.0 Chrome/37.0.0.0 Mobile MQQBrowser/6.8 TBS/036849 Safari/537.36 MicroMessenger/6.3.27.880 NetType/WIFI Language/zh_CN'
p115
sg16
S'a26a0c4db1f3df2198a8c60ec557f4a2'
p116
sa(dp117
g2
S'19891'
p118
sg4
S'5968'
p119
sg6
S'7470be4cdd895a5288c45b70e34cddc6'
p120
sg8
S'xx520eb32543e36193a70a36ba67350a42'
p121
sg10
S'xxd328304be2214906ecf8b73a7fd3448e'
p122
sg12
S'xxf2658fc52299b8afc2688b5583ed7b9b'
p123
sg14
S'Mozilla/5.0 (Linux; Android 4.4.4; vivo Y13L Build/KTU84P) AppleWebKit/537.36 (KHTML, like Gecko) Version/4.0 Chrome/37.0.0.0 Mobile MQQBrowser/6.8 TBS/036849 Safari/537.36 MicroMessenger/6.3.27.880 NetType/WIFI Language/zh_CN'
p124
sg16
S'a26a0c4db1f3df2198a8c60ec557f4a2'
p125
sa(dp126
g2
S'31375'
p127
sg4
S'6174'
p128
sg6
S'cbb5213867fd345f0c9e699b16abb6cb'
p129
sg8
S'xxc7abd440e8836064df3b3550fa340409'
p130
sg10
S'xxd328304be2214906ecf8b73a7fd3448e'
p131
sg12
S'xxf2658fc52299b8afc2688b5583ed7b9b'
p132
sg14
S'Mozilla/5.0 (Linux; Android 4.4.4; vivo Y13L Build/KTU84P) AppleWebKit/537.36 (KHTML, like Gecko) Version/4.0 Chrome/37.0.0.0 Mobile MQQBrowser/6.8 TBS/036824 Safari/537.36 MicroMessenger/6.3.25.861 NetType/WIFI Language/zh_CN'
p133
sg16
S'165cf3eb35011a209e3ea48e9764acea'
p134
sa(dp135
g2
S'31375'
p136
sg4
S'6191'
p137
sg6
S'cbb5213867fd345f0c9e699b16abb6cb'
p138
sg8
S'xxc7abd440e8836064df3b3550fa340409'
p139
sg10
S'xxd328304be2214906ecf8b73a7fd3448e'
p140
sg12
S'xxf2658fc52299b8afc2688b5583ed7b9b'
p141
sg14
S'Mozilla/5.0 (Linux; Android 4.4.4; vivo Y13L Build/KTU84P) AppleWebKit/537.36 (KHTML, like Gecko) Version/4.0 Chrome/37.0.0.0 Mobile MQQBrowser/6.8 TBS/036824 Safari/537.36 MicroMessenger/6.3.25.861 NetType/WIFI Language/zh_CN'
p142
sg16
S'165cf3eb35011a209e3ea48e9764acea'
p143
sa(dp144
g2
S'31375'
p145
sg4
S'6206'
p146
sg6
S'cbb5213867fd345f0c9e699b16abb6cb'
p147
sg8
S'xxc7abd440e8836064df3b3550fa340409'
p148
sg10
S'xxd328304be2214906ecf8b73a7fd3448e'
p149
sg12
S'xxf2658fc52299b8afc2688b5583ed7b9b'
p150
sg14
S'Mozilla/5.0 (Linux; Android 4.4.4; vivo Y13L Build/KTU84P) AppleWebKit/537.36 (KHTML, like Gecko) Version/4.0 Chrome/37.0.0.0 Mobile MQQBrowser/6.8 TBS/036824 Safari/537.36 MicroMessenger/6.3.25.861 NetType/WIFI Language/zh_CN'
p151
sg16
S'165cf3eb35011a209e3ea48e9764acea'
p152
sa(dp153
g2
S'19891'
p154
sg4
S'6558'
p155
sg6
S'7470be4cdd895a5288c45b70e34cddc6'
p156
sg8
S'xx520eb32543e36193a70a36ba67350a42'
p157
sg10
S'xxd328304be2214906ecf8b73a7fd3448e'
p158
sg12
S'xxf2658fc52299b8afc2688b5583ed7b9b'
p159
sg14
S'Mozilla/5.0 (Linux; Android 4.4.4; vivo Y13L Build/KTU84P) AppleWebKit/537.36 (KHTML, like Gecko) Version/4.0 Chrome/37.0.0.0 Mobile MQQBrowser/6.8 TBS/036849 Safari/537.36 MicroMessenger/6.3.27.880 NetType/WIFI Language/zh_CN'
p160
sg16
S'a26a0c4db1f3df2198a8c60ec557f4a2'
p161
sa(dp162
g2
S'19891'
p163
sg4
S'6573'
p164
sg6
S'7470be4cdd895a5288c45b70e34cddc6'
p165
sg8
S'xx520eb32543e36193a70a36ba67350a42'
p166
sg10
S'xxd328304be2214906ecf8b73a7fd3448e'
p167
sg12
S'xxf2658fc52299b8afc2688b5583ed7b9b'
p168
sg14
S'Mozilla/5.0 (Linux; Android 4.4.4; vivo Y13L Build/KTU84P) AppleWebKit/537.36 (KHTML, like Gecko) Version/4.0 Chrome/37.0.0.0 Mobile MQQBrowser/6.8 TBS/036849 Safari/537.36 MicroMessenger/6.3.27.880 NetType/WIFI Language/zh_CN'
p169
sg16
S'a26a0c4db1f3df2198a8c60ec557f4a2'
p170
sa(dp171
g2
S'19891'
p172
sg4
S'6593'
p173
sg6
S'7470be4cdd895a5288c45b70e34cddc6'
p174
sg8
S'xx520eb32543e36193a70a36ba67350a42'
p175
sg10
S'xxd328304be2214906ecf8b73a7fd3448e'
p176
sg12
S'xxf2658fc52299b8afc2688b5583ed7b9b'
p177
sg14
S'Mozilla/5.0 (Linux; Android 4.4.4; vivo Y13L Build/KTU84P) AppleWebKit/537.36 (KHTML, like Gecko) Version/4.0 Chrome/37.0.0.0 Mobile MQQBrowser/6.8 TBS/036849 Safari/537.36 MicroMessenger/6.3.27.880 NetType/WIFI Language/zh_CN'
p178
sg16
S'a26a0c4db1f3df2198a8c60ec557f4a2'
p179
sa(dp180
g2
S'19891'
p181
sg4
S'6609'
p182
sg6
S'7470be4cdd895a5288c45b70e34cddc6'
p183
sg8
S'xx520eb32543e36193a70a36ba67350a42'
p184
sg10
S'xxd328304be2214906ecf8b73a7fd3448e'
p185
sg12
S'xxf2658fc52299b8afc2688b5583ed7b9b'
p186
sg14
S'Mozilla/5.0 (Linux; Android 4.4.4; vivo Y13L Build/KTU84P) AppleWebKit/537.36 (KHTML, like Gecko) Version/4.0 Chrome/37.0.0.0 Mobile MQQBrowser/6.8 TBS/036849 Safari/537.36 MicroMessenger/6.3.27.880 NetType/WIFI Language/zh_CN'
p187
sg16
S'a26a0c4db1f3df2198a8c60ec557f4a2'
p188
sa(dp189
g2
S'30491'
p190
sg4
S'7082'
p191
sg6
S'51ba00020549124547f0f1148a84a8d2'
p192
sg8
S'xx40a61a39211c57c229f33061823609e0'
p193
sg10
S'xx84800c058cb705ff6d0c0471bc308c12'
p194
sg12
S'xxf2658fc52299b8afc2688b5583ed7b9b'
p195
sg14
S'Mozilla/5.0 (Linux; Android 4.4.4; vivo Y13L Build/KTU84P) AppleWebKit/537.36 (KHTML, like Gecko) Version/4.0 Chrome/33.0.0.0 Mobile Safari/537.36 MicroMessenger/6.3.27.880 NetType/3gnet Language/zh_CN'
p196
sg16
S'f3bc7d64bf5ab549ffc37f0377346646'
p197
sa(dp198
g2
S'30491'
p199
sg4
S'7092'
p200
sg6
S'51ba00020549124547f0f1148a84a8d2'
p201
sg8
S'xx40a61a39211c57c229f33061823609e0'
p202
sg10
S'xx84800c058cb705ff6d0c0471bc308c12'
p203
sg12
S'xxf2658fc52299b8afc2688b5583ed7b9b'
p204
sg14
S'Mozilla/5.0 (Linux; Android 4.4.4; vivo Y13L Build/KTU84P) AppleWebKit/537.36 (KHTML, like Gecko) Version/4.0 Chrome/33.0.0.0 Mobile Safari/537.36 MicroMessenger/6.3.27.880 NetType/3gnet Language/zh_CN'
p205
sg16
S'f3bc7d64bf5ab549ffc37f0377346646'
p206
sa(dp207
g2
S'30491'
p208
sg4
S'7106'
p209
sg6
S'51ba00020549124547f0f1148a84a8d2'
p210
sg8
S'xx40a61a39211c57c229f33061823609e0'
p211
sg10
S'xx84800c058cb705ff6d0c0471bc308c12'
p212
sg12
S'xxf2658fc52299b8afc2688b5583ed7b9b'
p213
sg14
S'Mozilla/5.0 (Linux; Android 4.4.4; vivo Y13L Build/KTU84P) AppleWebKit/537.36 (KHTML, like Gecko) Version/4.0 Chrome/33.0.0.0 Mobile Safari/537.36 MicroMessenger/6.3.27.880 NetType/3gnet Language/zh_CN'
p214
sg16
S'f3bc7d64bf5ab549ffc37f0377346646'
p215
sa(dp216
g2
S'19891'
p217
sg4
S'7229'
p218
sg6
S'7470be4cdd895a5288c45b70e34cddc6'
p219
sg8
S'xx520eb32543e36193a70a36ba67350a42'
p220
sg10
S'xxd328304be2214906ecf8b73a7fd3448e'
p221
sg12
S'xxf2658fc52299b8afc2688b5583ed7b9b'
p222
sg14
S'Mozilla/5.0 (Linux; Android 4.4.4; vivo Y13L Build/KTU84P) AppleWebKit/537.36 (KHTML, like Gecko) Version/4.0 Chrome/37.0.0.0 Mobile MQQBrowser/6.8 TBS/036849 Safari/537.36 MicroMessenger/6.3.27.880 NetType/WIFI Language/zh_CN'
p223
sg16
S'a26a0c4db1f3df2198a8c60ec557f4a2'
p224
sa(dp225
g2
S'19891'
p226
sg4
S'7243'
p227
sg6
S'7470be4cdd895a5288c45b70e34cddc6'
p228
sg8
S'xx520eb32543e36193a70a36ba67350a42'
p229
sg10
S'xxd328304be2214906ecf8b73a7fd3448e'
p230
sg12
S'xxf2658fc52299b8afc2688b5583ed7b9b'
p231
sg14
S'Mozilla/5.0 (Linux; Android 4.4.4; vivo Y13L Build/KTU84P) AppleWebKit/537.36 (KHTML, like Gecko) Version/4.0 Chrome/37.0.0.0 Mobile MQQBrowser/6.8 TBS/036849 Safari/537.36 MicroMessenger/6.3.27.880 NetType/WIFI Language/zh_CN'
p232
sg16
S'a26a0c4db1f3df2198a8c60ec557f4a2'
p233
sa(dp234
g2
S'19891'
p235
sg4
S'7255'
p236
sg6
S'7470be4cdd895a5288c45b70e34cddc6'
p237
sg8
S'xx520eb32543e36193a70a36ba67350a42'
p238
sg10
S'xxd328304be2214906ecf8b73a7fd3448e'
p239
sg12
S'xxf2658fc52299b8afc2688b5583ed7b9b'
p240
sg14
S'Mozilla/5.0 (Linux; Android 4.4.4; vivo Y13L Build/KTU84P) AppleWebKit/537.36 (KHTML, like Gecko) Version/4.0 Chrome/37.0.0.0 Mobile MQQBrowser/6.8 TBS/036849 Safari/537.36 MicroMessenger/6.3.27.880 NetType/WIFI Language/zh_CN'
p241
sg16
S'a26a0c4db1f3df2198a8c60ec557f4a2'
p242
sa(dp243
g2
S'19891'
p244
sg4
S'7770'
p245
sg6
S'7470be4cdd895a5288c45b70e34cddc6'
p246
sg8
S'xx520eb32543e36193a70a36ba67350a42'
p247
sg10
S'xxd328304be2214906ecf8b73a7fd3448e'
p248
sg12
S'xxf2658fc52299b8afc2688b5583ed7b9b'
p249
sg14
S'Mozilla/5.0 (Linux; Android 4.4.4; vivo Y13L Build/KTU84P) AppleWebKit/537.36 (KHTML, like Gecko) Version/4.0 Chrome/37.0.0.0 Mobile MQQBrowser/6.8 TBS/036849 Safari/537.36 MicroMessenger/6.3.27.880 NetType/WIFI Language/zh_CN'
p250
sg16
S'a26a0c4db1f3df2198a8c60ec557f4a2'
p251
sa(dp252
g2
S'19891'
p253
sg4
S'7779'
p254
sg6
S'7470be4cdd895a5288c45b70e34cddc6'
p255
sg8
S'xx520eb32543e36193a70a36ba67350a42'
p256
sg10
S'xxd328304be2214906ecf8b73a7fd3448e'
p257
sg12
S'xxf2658fc52299b8afc2688b5583ed7b9b'
p258
sg14
S'Mozilla/5.0 (Linux; Android 4.4.4; vivo Y13L Build/KTU84P) AppleWebKit/537.36 (KHTML, like Gecko) Version/4.0 Chrome/37.0.0.0 Mobile MQQBrowser/6.8 TBS/036849 Safari/537.36 MicroMessenger/6.3.27.880 NetType/WIFI Language/zh_CN'
p259
sg16
S'a26a0c4db1f3df2198a8c60ec557f4a2'
p260
sa(dp261
g2
S'31674'
p262
sg4
S'8132'
p263
sg6
S'008f05ac96bad95da1f6d2e57dda5583'
p264
sg8
S'xx520eb32543e36193a70a36ba67350a42'
p265
sg10
S'xxd328304be2214906ecf8b73a7fd3448e'
p266
sg12
S'xxf2658fc52299b8afc2688b5583ed7b9b'
p267
sg14
S'Mozilla/5.0 (Linux; Android 4.4.4; vivo Y13L Build/KTU84P) AppleWebKit/537.36 (KHTML, like Gecko) Version/4.0 Chrome/37.0.0.0 Mobile MQQBrowser/6.8 TBS/036849 Safari/537.36 MicroMessenger/6.3.27.880 NetType/WIFI Language/zh_CN'
p268
sg16
S'a26a0c4db1f3df2198a8c60ec557f4a2'
p269
sa(dp270
g2
S'31674'
p271
sg4
S'8145'
p272
sg6
S'008f05ac96bad95da1f6d2e57dda5583'
p273
sg8
S'xx520eb32543e36193a70a36ba67350a42'
p274
sg10
S'xxd328304be2214906ecf8b73a7fd3448e'
p275
sg12
S'xxf2658fc52299b8afc2688b5583ed7b9b'
p276
sg14
S'Mozilla/5.0 (Linux; Android 4.4.4; vivo Y13L Build/KTU84P) AppleWebKit/537.36 (KHTML, like Gecko) Version/4.0 Chrome/37.0.0.0 Mobile MQQBrowser/6.8 TBS/036849 Safari/537.36 MicroMessenger/6.3.27.880 NetType/WIFI Language/zh_CN'
p277
sg16
S'a26a0c4db1f3df2198a8c60ec557f4a2'
p278
sa(dp279
g2
S'19891'
p280
sg4
S'8320'
p281
sg6
S'7470be4cdd895a5288c45b70e34cddc6'
p282
sg8
S'xx520eb32543e36193a70a36ba67350a42'
p283
sg10
S'xxd328304be2214906ecf8b73a7fd3448e'
p284
sg12
S'xxf2658fc52299b8afc2688b5583ed7b9b'
p285
sg14
S'Mozilla/5.0 (Linux; Android 4.4.4; vivo Y13L Build/KTU84P) AppleWebKit/537.36 (KHTML, like Gecko) Version/4.0 Chrome/37.0.0.0 Mobile MQQBrowser/6.8 TBS/036849 Safari/537.36 MicroMessenger/6.3.27.880 NetType/WIFI Language/zh_CN'
p286
sg16
S'a26a0c4db1f3df2198a8c60ec557f4a2'
p287
sa(dp288
g2
S'19891'
p289
sg4
S'8332'
p290
sg6
S'7470be4cdd895a5288c45b70e34cddc6'
p291
sg8
S'xx520eb32543e36193a70a36ba67350a42'
p292
sg10
S'xxd328304be2214906ecf8b73a7fd3448e'
p293
sg12
S'xxf2658fc52299b8afc2688b5583ed7b9b'
p294
sg14
S'Mozilla/5.0 (Linux; Android 4.4.4; vivo Y13L Build/KTU84P) AppleWebKit/537.36 (KHTML, like Gecko) Version/4.0 Chrome/37.0.0.0 Mobile MQQBrowser/6.8 TBS/036849 Safari/537.36 MicroMessenger/6.3.27.880 NetType/WIFI Language/zh_CN'
p295
sg16
S'a26a0c4db1f3df2198a8c60ec557f4a2'
p296
sa.