(lp0
(dp1
S'user_id'
p2
S'29023'
p3
sS'data_id'
p4
S'1926'
p5
sS'ip'
p6
S'cbb5213867fd345f0c9e699b16abb6cb'
p7
sS'phone_B'
p8
S'xx2251c26ad73b3d39e3f341e6aa852542'
p9
sS'phone_C'
p10
S'xx14c53d93d47a0cb4c7e46443ae11c0cc'
p11
sS'phone_A'
p12
S'xxf3357d5ee6d2556a1b60c87c0db945ca'
p13
sS'user_agent'
p14
S'Mozilla/5.0 (Linux; Android 5.1; vivo V3M A Build/LMY47I) AppleWebKit/537.36 (KHTML, like Gecko) Version/4.0 Chrome/37.0.0.0 Mobile MQQBrowser/6.8 TBS/036849 Safari/537.36 MicroMessenger/6.3.27.880 NetType/WIFI Language/zh_CN'
p15
sS'ua'
p16
S'b38d8d1e94f1b09912c4b0cad8e14139'
p17
sa(dp18
g2
S'29023'
p19
sg4
S'1947'
p20
sg6
S'cbb5213867fd345f0c9e699b16abb6cb'
p21
sg8
S'xx2251c26ad73b3d39e3f341e6aa852542'
p22
sg10
S'xx14c53d93d47a0cb4c7e46443ae11c0cc'
p23
sg12
S'xxf3357d5ee6d2556a1b60c87c0db945ca'
p24
sg14
S'Mozilla/5.0 (Linux; Android 5.1; vivo V3M A Build/LMY47I) AppleWebKit/537.36 (KHTML, like Gecko) Version/4.0 Chrome/37.0.0.0 Mobile MQQBrowser/6.8 TBS/036849 Safari/537.36 MicroMessenger/6.3.27.880 NetType/WIFI Language/zh_CN'
p25
sg16
S'b38d8d1e94f1b09912c4b0cad8e14139'
p26
sa(dp27
g2
S'31377'
p28
sg4
S'3500'
p29
sg6
S'509368e6f61d2e7b8daf31e0cb12da6d'
p30
sg8
S'xxadadcbc0a757c16593ed1baefa5e2cc0'
p31
sg10
S'xx3eec4bab2d3850819c5cdf39cc93ab59'
p32
sg12
S'xxf3357d5ee6d2556a1b60c87c0db945ca'
p33
sg14
S'Mozilla/5.0 (Linux; Android 5.1; vivo V3M A Build/LMY47I) AppleWebKit/537.36 (KHTML, like Gecko) Version/4.0 Chrome/37.0.0.0 Mobile MQQBrowser/6.8 TBS/036849 Safari/537.36 MicroMessenger/6.3.27.880 NetType/WIFI Language/zh_CN'
p34
sg16
S'b38d8d1e94f1b09912c4b0cad8e14139'
p35
sa(dp36
g2
S'31377'
p37
sg4
S'3757'
p38
sg6
S'509368e6f61d2e7b8daf31e0cb12da6d'
p39
sg8
S'xx2251c26ad73b3d39e3f341e6aa852542'
p40
sg10
S'xx14c53d93d47a0cb4c7e46443ae11c0cc'
p41
sg12
S'xxf3357d5ee6d2556a1b60c87c0db945ca'
p42
sg14
S'Mozilla/5.0 (Linux; Android 5.1; vivo V3M A Build/LMY47I) AppleWebKit/537.36 (KHTML, like Gecko) Version/4.0 Chrome/37.0.0.0 Mobile MQQBrowser/6.8 TBS/036849 Safari/537.36 MicroMessenger/6.3.27.880 NetType/WIFI Language/zh_CN'
p43
sg16
S'b38d8d1e94f1b09912c4b0cad8e14139'
p44
sa(dp45
g2
S'31377'
p46
sg4
S'3776'
p47
sg6
S'509368e6f61d2e7b8daf31e0cb12da6d'
p48
sg8
S'xx2251c26ad73b3d39e3f341e6aa852542'
p49
sg10
S'xx14c53d93d47a0cb4c7e46443ae11c0cc'
p50
sg12
S'xxf3357d5ee6d2556a1b60c87c0db945ca'
p51
sg14
S'Mozilla/5.0 (Linux; Android 5.1; vivo V3M A Build/LMY47I) AppleWebKit/537.36 (KHTML, like Gecko) Version/4.0 Chrome/37.0.0.0 Mobile MQQBrowser/6.8 TBS/036849 Safari/537.36 MicroMessenger/6.3.27.880 NetType/WIFI Language/zh_CN'
p52
sg16
S'b38d8d1e94f1b09912c4b0cad8e14139'
p53
sa(dp54
g2
S'31377'
p55
sg4
S'3789'
p56
sg6
S'509368e6f61d2e7b8daf31e0cb12da6d'
p57
sg8
S'xx2251c26ad73b3d39e3f341e6aa852542'
p58
sg10
S'xx14c53d93d47a0cb4c7e46443ae11c0cc'
p59
sg12
S'xxf3357d5ee6d2556a1b60c87c0db945ca'
p60
sg14
S'Mozilla/5.0 (Linux; Android 5.1; vivo V3M A Build/LMY47I) AppleWebKit/537.36 (KHTML, like Gecko) Version/4.0 Chrome/37.0.0.0 Mobile MQQBrowser/6.8 TBS/036849 Safari/537.36 MicroMessenger/6.3.27.880 NetType/WIFI Language/zh_CN'
p61
sg16
S'b38d8d1e94f1b09912c4b0cad8e14139'
p62
sa(dp63
g2
S'21363'
p64
sg4
S'5219'
p65
sg6
S'7470be4cdd895a5288c45b70e34cddc6'
p66
sg8
S'xx71e0a15087b3f93056673ef155482194'
p67
sg10
S'xx14c53d93d47a0cb4c7e46443ae11c0cc'
p68
sg12
S'xxf3357d5ee6d2556a1b60c87c0db945ca'
p69
sg14
S'Mozilla/5.0 (Linux; Android 5.1; vivo V3M A Build/LMY47I) AppleWebKit/537.36 (KHTML, like Gecko) Version/4.0 Chrome/37.0.0.0 Mobile MQQBrowser/6.8 TBS/036869 Safari/537.36 MicroMessenger/6.3.27.880 NetType/WIFI Language/zh_CN'
p70
sg16
S'77c4c8518e11d9cb84d89f60879a9eb7'
p71
sa(dp72
g2
S'21363'
p73
sg4
S'5231'
p74
sg6
S'7470be4cdd895a5288c45b70e34cddc6'
p75
sg8
S'xx71e0a15087b3f93056673ef155482194'
p76
sg10
S'xx14c53d93d47a0cb4c7e46443ae11c0cc'
p77
sg12
S'xxf3357d5ee6d2556a1b60c87c0db945ca'
p78
sg14
S'Mozilla/5.0 (Linux; Android 5.1; vivo V3M A Build/LMY47I) AppleWebKit/537.36 (KHTML, like Gecko) Version/4.0 Chrome/37.0.0.0 Mobile MQQBrowser/6.8 TBS/036869 Safari/537.36 MicroMessenger/6.3.27.880 NetType/WIFI Language/zh_CN'
p79
sg16
S'77c4c8518e11d9cb84d89f60879a9eb7'
p80
sa(dp81
g2
S'21363'
p82
sg4
S'6031'
p83
sg6
S'7470be4cdd895a5288c45b70e34cddc6'
p84
sg8
S'xx71e0a15087b3f93056673ef155482194'
p85
sg10
S'xx14c53d93d47a0cb4c7e46443ae11c0cc'
p86
sg12
S'xxf3357d5ee6d2556a1b60c87c0db945ca'
p87
sg14
S'Mozilla/5.0 (Linux; Android 5.1; vivo V3M A Build/LMY47I) AppleWebKit/537.36 (KHTML, like Gecko) Version/4.0 Chrome/37.0.0.0 Mobile MQQBrowser/6.8 TBS/036869 Safari/537.36 MicroMessenger/6.3.27.880 NetType/WIFI Language/zh_CN'
p88
sg16
S'77c4c8518e11d9cb84d89f60879a9eb7'
p89
sa(dp90
g2
S'41909'
p91
sg4
S'6036'
p92
sg6
S'37ec7b91655b3c964292df15710fad2a'
p93
sg8
S'xx2251c26ad73b3d39e3f341e6aa852542'
p94
sg10
S'xx14c53d93d47a0cb4c7e46443ae11c0cc'
p95
sg12
S'xxf3357d5ee6d2556a1b60c87c0db945ca'
p96
sg14
S'Mozilla/5.0 (Linux; Android 5.1; vivo V3M A Build/LMY47I) AppleWebKit/537.36 (KHTML, like Gecko) Version/4.0 Chrome/37.0.0.0 Mobile MQQBrowser/6.8 TBS/036849 Safari/537.36 MicroMessenger/6.3.27.880 NetType/WIFI Language/zh_CN'
p97
sg16
S'b38d8d1e94f1b09912c4b0cad8e14139'
p98
sa(dp99
g2
S'21363'
p100
sg4
S'6043'
p101
sg6
S'7470be4cdd895a5288c45b70e34cddc6'
p102
sg8
S'xx71e0a15087b3f93056673ef155482194'
p103
sg10
S'xx14c53d93d47a0cb4c7e46443ae11c0cc'
p104
sg12
S'xxf3357d5ee6d2556a1b60c87c0db945ca'
p105
sg14
S'Mozilla/5.0 (Linux; Android 5.1; vivo V3M A Build/LMY47I) AppleWebKit/537.36 (KHTML, like Gecko) Version/4.0 Chrome/37.0.0.0 Mobile MQQBrowser/6.8 TBS/036869 Safari/537.36 MicroMessenger/6.3.27.880 NetType/WIFI Language/zh_CN'
p106
sg16
S'77c4c8518e11d9cb84d89f60879a9eb7'
p107
sa(dp108
g2
S'41909'
p109
sg4
S'6053'
p110
sg6
S'37ec7b91655b3c964292df15710fad2a'
p111
sg8
S'xx2251c26ad73b3d39e3f341e6aa852542'
p112
sg10
S'xx14c53d93d47a0cb4c7e46443ae11c0cc'
p113
sg12
S'xxf3357d5ee6d2556a1b60c87c0db945ca'
p114
sg14
S'Mozilla/5.0 (Linux; Android 5.1; vivo V3M A Build/LMY47I) AppleWebKit/537.36 (KHTML, like Gecko) Version/4.0 Chrome/37.0.0.0 Mobile MQQBrowser/6.8 TBS/036849 Safari/537.36 MicroMessenger/6.3.27.880 NetType/WIFI Language/zh_CN'
p115
sg16
S'b38d8d1e94f1b09912c4b0cad8e14139'
p116
sa(dp117
g2
S'21363'
p118
sg4
S'6499'
p119
sg6
S'7470be4cdd895a5288c45b70e34cddc6'
p120
sg8
S'xx71e0a15087b3f93056673ef155482194'
p121
sg10
S'xx14c53d93d47a0cb4c7e46443ae11c0cc'
p122
sg12
S'xxf3357d5ee6d2556a1b60c87c0db945ca'
p123
sg14
S'Mozilla/5.0 (Linux; Android 5.1; vivo V3M A Build/LMY47I) AppleWebKit/537.36 (KHTML, like Gecko) Version/4.0 Chrome/37.0.0.0 Mobile MQQBrowser/6.8 TBS/036869 Safari/537.36 MicroMessenger/6.3.27.880 NetType/WIFI Language/zh_CN'
p124
sg16
S'77c4c8518e11d9cb84d89f60879a9eb7'
p125
sa(dp126
g2
S'21363'
p127
sg4
S'6518'
p128
sg6
S'7470be4cdd895a5288c45b70e34cddc6'
p129
sg8
S'xx71e0a15087b3f93056673ef155482194'
p130
sg10
S'xx14c53d93d47a0cb4c7e46443ae11c0cc'
p131
sg12
S'xxf3357d5ee6d2556a1b60c87c0db945ca'
p132
sg14
S'Mozilla/5.0 (Linux; Android 5.1; vivo V3M A Build/LMY47I) AppleWebKit/537.36 (KHTML, like Gecko) Version/4.0 Chrome/37.0.0.0 Mobile MQQBrowser/6.8 TBS/036869 Safari/537.36 MicroMessenger/6.3.27.880 NetType/WIFI Language/zh_CN'
p133
sg16
S'77c4c8518e11d9cb84d89f60879a9eb7'
p134
sa(dp135
g2
S'21363'
p136
sg4
S'6538'
p137
sg6
S'7470be4cdd895a5288c45b70e34cddc6'
p138
sg8
S'xx71e0a15087b3f93056673ef155482194'
p139
sg10
S'xx14c53d93d47a0cb4c7e46443ae11c0cc'
p140
sg12
S'xxf3357d5ee6d2556a1b60c87c0db945ca'
p141
sg14
S'Mozilla/5.0 (Linux; Android 5.1; vivo V3M A Build/LMY47I) AppleWebKit/537.36 (KHTML, like Gecko) Version/4.0 Chrome/37.0.0.0 Mobile MQQBrowser/6.8 TBS/036869 Safari/537.36 MicroMessenger/6.3.27.880 NetType/WIFI Language/zh_CN'
p142
sg16
S'77c4c8518e11d9cb84d89f60879a9eb7'
p143
sa(dp144
g2
S'21363'
p145
sg4
S'6679'
p146
sg6
S'7470be4cdd895a5288c45b70e34cddc6'
p147
sg8
S'xx71e0a15087b3f93056673ef155482194'
p148
sg10
S'xx14c53d93d47a0cb4c7e46443ae11c0cc'
p149
sg12
S'xxf3357d5ee6d2556a1b60c87c0db945ca'
p150
sg14
S'Mozilla/5.0 (Linux; Android 5.1; vivo V3M A Build/LMY47I) AppleWebKit/537.36 (KHTML, like Gecko) Version/4.0 Chrome/37.0.0.0 Mobile MQQBrowser/6.8 TBS/036869 Safari/537.36 MicroMessenger/6.3.27.880 NetType/WIFI Language/zh_CN'
p151
sg16
S'77c4c8518e11d9cb84d89f60879a9eb7'
p152
sa(dp153
g2
S'21363'
p154
sg4
S'6699'
p155
sg6
S'7470be4cdd895a5288c45b70e34cddc6'
p156
sg8
S'xx71e0a15087b3f93056673ef155482194'
p157
sg10
S'xx14c53d93d47a0cb4c7e46443ae11c0cc'
p158
sg12
S'xxf3357d5ee6d2556a1b60c87c0db945ca'
p159
sg14
S'Mozilla/5.0 (Linux; Android 5.1; vivo V3M A Build/LMY47I) AppleWebKit/537.36 (KHTML, like Gecko) Version/4.0 Chrome/37.0.0.0 Mobile MQQBrowser/6.8 TBS/036869 Safari/537.36 MicroMessenger/6.3.27.880 NetType/WIFI Language/zh_CN'
p160
sg16
S'77c4c8518e11d9cb84d89f60879a9eb7'
p161
sa(dp162
g2
S'21363'
p163
sg4
S'6718'
p164
sg6
S'7470be4cdd895a5288c45b70e34cddc6'
p165
sg8
S'xx71e0a15087b3f93056673ef155482194'
p166
sg10
S'xx14c53d93d47a0cb4c7e46443ae11c0cc'
p167
sg12
S'xxf3357d5ee6d2556a1b60c87c0db945ca'
p168
sg14
S'Mozilla/5.0 (Linux; Android 5.1; vivo V3M A Build/LMY47I) AppleWebKit/537.36 (KHTML, like Gecko) Version/4.0 Chrome/37.0.0.0 Mobile MQQBrowser/6.8 TBS/036869 Safari/537.36 MicroMessenger/6.3.27.880 NetType/WIFI Language/zh_CN'
p169
sg16
S'77c4c8518e11d9cb84d89f60879a9eb7'
p170
sa(dp171
g2
S'21363'
p172
sg4
S'7235'
p173
sg6
S'7470be4cdd895a5288c45b70e34cddc6'
p174
sg8
S'xx71e0a15087b3f93056673ef155482194'
p175
sg10
S'xx14c53d93d47a0cb4c7e46443ae11c0cc'
p176
sg12
S'xxf3357d5ee6d2556a1b60c87c0db945ca'
p177
sg14
S'Mozilla/5.0 (Linux; Android 5.1; vivo V3M A Build/LMY47I) AppleWebKit/537.36 (KHTML, like Gecko) Version/4.0 Chrome/37.0.0.0 Mobile MQQBrowser/6.8 TBS/036869 Safari/537.36 MicroMessenger/6.3.27.880 NetType/WIFI Language/zh_CN'
p178
sg16
S'77c4c8518e11d9cb84d89f60879a9eb7'
p179
sa(dp180
g2
S'21363'
p181
sg4
S'7249'
p182
sg6
S'7470be4cdd895a5288c45b70e34cddc6'
p183
sg8
S'xx71e0a15087b3f93056673ef155482194'
p184
sg10
S'xx14c53d93d47a0cb4c7e46443ae11c0cc'
p185
sg12
S'xxf3357d5ee6d2556a1b60c87c0db945ca'
p186
sg14
S'Mozilla/5.0 (Linux; Android 5.1; vivo V3M A Build/LMY47I) AppleWebKit/537.36 (KHTML, like Gecko) Version/4.0 Chrome/37.0.0.0 Mobile MQQBrowser/6.8 TBS/036869 Safari/537.36 MicroMessenger/6.3.27.880 NetType/WIFI Language/zh_CN'
p187
sg16
S'77c4c8518e11d9cb84d89f60879a9eb7'
p188
sa(dp189
g2
S'21363'
p190
sg4
S'7730'
p191
sg6
S'7470be4cdd895a5288c45b70e34cddc6'
p192
sg8
S'xx71e0a15087b3f93056673ef155482194'
p193
sg10
S'xx14c53d93d47a0cb4c7e46443ae11c0cc'
p194
sg12
S'xxf3357d5ee6d2556a1b60c87c0db945ca'
p195
sg14
S'Mozilla/5.0 (Linux; Android 5.1; vivo V3M A Build/LMY47I) AppleWebKit/537.36 (KHTML, like Gecko) Version/4.0 Chrome/37.0.0.0 Mobile MQQBrowser/6.8 TBS/036869 Safari/537.36 MicroMessenger/6.3.27.880 NetType/WIFI Language/zh_CN'
p196
sg16
S'77c4c8518e11d9cb84d89f60879a9eb7'
p197
sa(dp198
g2
S'21363'
p199
sg4
S'7743'
p200
sg6
S'7470be4cdd895a5288c45b70e34cddc6'
p201
sg8
S'xx71e0a15087b3f93056673ef155482194'
p202
sg10
S'xx14c53d93d47a0cb4c7e46443ae11c0cc'
p203
sg12
S'xxf3357d5ee6d2556a1b60c87c0db945ca'
p204
sg14
S'Mozilla/5.0 (Linux; Android 5.1; vivo V3M A Build/LMY47I) AppleWebKit/537.36 (KHTML, like Gecko) Version/4.0 Chrome/37.0.0.0 Mobile MQQBrowser/6.8 TBS/036869 Safari/537.36 MicroMessenger/6.3.27.880 NetType/WIFI Language/zh_CN'
p205
sg16
S'77c4c8518e11d9cb84d89f60879a9eb7'
p206
sa(dp207
g2
S'21363'
p208
sg4
S'8322'
p209
sg6
S'7470be4cdd895a5288c45b70e34cddc6'
p210
sg8
S'xx71e0a15087b3f93056673ef155482194'
p211
sg10
S'xx14c53d93d47a0cb4c7e46443ae11c0cc'
p212
sg12
S'xxf3357d5ee6d2556a1b60c87c0db945ca'
p213
sg14
S'Mozilla/5.0 (Linux; Android 5.1; vivo V3M A Build/LMY47I) AppleWebKit/537.36 (KHTML, like Gecko) Version/4.0 Chrome/37.0.0.0 Mobile MQQBrowser/6.8 TBS/036869 Safari/537.36 MicroMessenger/6.3.27.880 NetType/WIFI Language/zh_CN'
p214
sg16
S'77c4c8518e11d9cb84d89f60879a9eb7'
p215
sa.