(lp0
(dp1
S'user_id'
p2
S'34262'
p3
sS'data_id'
p4
S'3453'
p5
sS'ip'
p6
S'509368e6f61d2e7b8daf31e0cb12da6d'
p7
sS'phone_B'
p8
S'xxdaf057bcb7d640a09c0caa0e1544e849'
p9
sS'phone_C'
p10
S'xx6f5d8ce9eb5af92ce0fb630074056b9b'
p11
sS'phone_A'
p12
S'xxf3fe5c0a538174446f767248b459971f'
p13
sS'user_agent'
p14
S'Mozilla/5.0 (Linux; Android 5.0; vivo X5Pro D Build/LRX21M) AppleWebKit/537.36 (KHTML, like Gecko) Version/4.0 Chrome/37.0.0.0 Mobile MQQBrowser/6.8 TBS/036849 Safari/537.36 MicroMessenger/6.3.27.880 NetType/WIFI Language/zh_CN'
p15
sS'ua'
p16
S'c86b2bcc197e7613cc2cc0eb945514b3'
p17
sa(dp18
g2
S'34262'
p19
sg4
S'3466'
p20
sg6
S'509368e6f61d2e7b8daf31e0cb12da6d'
p21
sg8
S'xxdaf057bcb7d640a09c0caa0e1544e849'
p22
sg10
S'xx6f5d8ce9eb5af92ce0fb630074056b9b'
p23
sg12
S'xxf3fe5c0a538174446f767248b459971f'
p24
sg14
S'Mozilla/5.0 (Linux; Android 5.0; vivo X5Pro D Build/LRX21M) AppleWebKit/537.36 (KHTML, like Gecko) Version/4.0 Chrome/37.0.0.0 Mobile MQQBrowser/6.8 TBS/036849 Safari/537.36 MicroMessenger/6.3.27.880 NetType/WIFI Language/zh_CN'
p25
sg16
S'c86b2bcc197e7613cc2cc0eb945514b3'
p26
sa(dp27
g2
S'32446'
p28
sg4
S'4138'
p29
sg6
S'48ea1363c7ea8bc55ce778174d4a30f4'
p30
sg8
S'xx2ee6c5982aed9d4c317e10919e7df933'
p31
sg10
S'xx6f5d8ce9eb5af92ce0fb630074056b9b'
p32
sg12
S'xxf3fe5c0a538174446f767248b459971f'
p33
sg14
S'Mozilla/5.0 (Linux; Android 5.0; vivo X5Pro D Build/LRX21M) AppleWebKit/537.36 (KHTML, like Gecko) Version/4.0 Chrome/37.0.0.0 Mobile MQQBrowser/6.8 TBS/036824 Safari/537.36 MicroMessenger/6.3.27.880 NetType/cmnet Language/zh_CN'
p34
sg16
S'8f32da68df21a3ef23dc268ffaf7f16d'
p35
sa(dp36
g2
S'32446'
p37
sg4
S'4161'
p38
sg6
S'48ea1363c7ea8bc55ce778174d4a30f4'
p39
sg8
S'xx2ee6c5982aed9d4c317e10919e7df933'
p40
sg10
S'xx6f5d8ce9eb5af92ce0fb630074056b9b'
p41
sg12
S'xxf3fe5c0a538174446f767248b459971f'
p42
sg14
S'Mozilla/5.0 (Linux; Android 5.0; vivo X5Pro D Build/LRX21M) AppleWebKit/537.36 (KHTML, like Gecko) Version/4.0 Chrome/37.0.0.0 Mobile MQQBrowser/6.8 TBS/036824 Safari/537.36 MicroMessenger/6.3.27.880 NetType/cmnet Language/zh_CN'
p43
sg16
S'8f32da68df21a3ef23dc268ffaf7f16d'
p44
sa(dp45
g2
S'49802'
p46
sg4
S'5879'
p47
sg6
S'7ad6ba29c8e2117fc5d1ce0cf6043119'
p48
sg8
S'xx10bffbe873edcd8faec660355990a946'
p49
sg10
S'xxb4a0c9ee09fd92e5aff3f1f9a92c9322'
p50
sg12
S'xxf3fe5c0a538174446f767248b459971f'
p51
sg14
S'Mozilla/5.0 (Linux; Android 5.0; vivo X5Pro D Build/LRX21M) AppleWebKit/537.36 (KHTML, like Gecko) Version/4.0 Chrome/37.0.0.0 Mobile MQQBrowser/6.8 TBS/036869 Safari/537.36 MicroMessenger/6.3.27.880 NetType/WIFI Language/zh_CN'
p52
sg16
S'15a1ef381ba74ef93c099bd3f63dfca9'
p53
sa(dp54
g2
S'49802'
p55
sg4
S'5895'
p56
sg6
S'7ad6ba29c8e2117fc5d1ce0cf6043119'
p57
sg8
S'xx10bffbe873edcd8faec660355990a946'
p58
sg10
S'xxb4a0c9ee09fd92e5aff3f1f9a92c9322'
p59
sg12
S'xxf3fe5c0a538174446f767248b459971f'
p60
sg14
S'Mozilla/5.0 (Linux; Android 5.0; vivo X5Pro D Build/LRX21M) AppleWebKit/537.36 (KHTML, like Gecko) Version/4.0 Chrome/37.0.0.0 Mobile MQQBrowser/6.8 TBS/036869 Safari/537.36 MicroMessenger/6.3.27.880 NetType/WIFI Language/zh_CN'
p61
sg16
S'15a1ef381ba74ef93c099bd3f63dfca9'
p62
sa(dp63
g2
S'36734'
p64
sg4
S'8319'
p65
sg6
S'514b5777de9245672807c1644adc4842'
p66
sg8
S'xx11a1d5c2d88a8b113ef8025966bc71f5'
p67
sg10
S'xx6f5d8ce9eb5af92ce0fb630074056b9b'
p68
sg12
S'xxf3fe5c0a538174446f767248b459971f'
p69
sg14
S'Mozilla/5.0 (Linux; Android 5.0; vivo X5Pro D Build/LRX21M) AppleWebKit/537.36 (KHTML, like Gecko) Version/4.0 Chrome/37.0.0.0 Mobile MQQBrowser/6.8 TBS/036849 Safari/537.36 MicroMessenger/6.3.27.880 NetType/3gnet Language/zh_CN'
p70
sg16
S'61bd3a87035783cb79986e42390be5d4'
p71
sa(dp72
g2
S'36734'
p73
sg4
S'8331'
p74
sg6
S'514b5777de9245672807c1644adc4842'
p75
sg8
S'xx11a1d5c2d88a8b113ef8025966bc71f5'
p76
sg10
S'xx6f5d8ce9eb5af92ce0fb630074056b9b'
p77
sg12
S'xxf3fe5c0a538174446f767248b459971f'
p78
sg14
S'Mozilla/5.0 (Linux; Android 5.0; vivo X5Pro D Build/LRX21M) AppleWebKit/537.36 (KHTML, like Gecko) Version/4.0 Chrome/37.0.0.0 Mobile MQQBrowser/6.8 TBS/036849 Safari/537.36 MicroMessenger/6.3.27.880 NetType/3gnet Language/zh_CN'
p79
sg16
S'61bd3a87035783cb79986e42390be5d4'
p80
sa(dp81
g2
S'36734'
p82
sg4
S'8344'
p83
sg6
S'514b5777de9245672807c1644adc4842'
p84
sg8
S'xx11a1d5c2d88a8b113ef8025966bc71f5'
p85
sg10
S'xx6f5d8ce9eb5af92ce0fb630074056b9b'
p86
sg12
S'xxf3fe5c0a538174446f767248b459971f'
p87
sg14
S'Mozilla/5.0 (Linux; Android 5.0; vivo X5Pro D Build/LRX21M) AppleWebKit/537.36 (KHTML, like Gecko) Version/4.0 Chrome/37.0.0.0 Mobile MQQBrowser/6.8 TBS/036849 Safari/537.36 MicroMessenger/6.3.27.880 NetType/3gnet Language/zh_CN'
p88
sg16
S'61bd3a87035783cb79986e42390be5d4'
p89
sa.