(lp0
(dp1
S'user_id'
p2
S'47276'
p3
sS'data_id'
p4
S'4497'
p5
sS'ip'
p6
S'151a88c31d3cac64c075a41329f540f8'
p7
sS'phone_B'
p8
S'xx40f0e94635186b82907218132d6e06ba'
p9
sS'phone_C'
p10
S'xxaa5c7e5ed6af06d39f4835a8178c05e2'
p11
sS'phone_A'
p12
S'xxf435227cf382715e1d194406a9e153f3'
p13
sS'user_agent'
p14
S'Mozilla/5.0 (Linux; Android 6.0.1; SM-G9280 Build/MMB29K) AppleWebKit/537.36 (KHTML, like Gecko) Version/4.0 Chrome/37.0.0.0 Mobile MQQBrowser/6.8 TBS/036824 Safari/537.36 MicroMessenger/6.3.27.880 NetType/cmnet Language/zh_CN'
p15
sS'ua'
p16
S'6970dd03706de2adb5d22ca5750e2173'
p17
sa(dp18
g2
S'47276'
p19
sg4
S'4513'
p20
sg6
S'151a88c31d3cac64c075a41329f540f8'
p21
sg8
S'xx40f0e94635186b82907218132d6e06ba'
p22
sg10
S'xxaa5c7e5ed6af06d39f4835a8178c05e2'
p23
sg12
S'xxf435227cf382715e1d194406a9e153f3'
p24
sg14
S'Mozilla/5.0 (Linux; Android 6.0.1; SM-G9280 Build/MMB29K) AppleWebKit/537.36 (KHTML, like Gecko) Version/4.0 Chrome/37.0.0.0 Mobile MQQBrowser/6.8 TBS/036824 Safari/537.36 MicroMessenger/6.3.27.880 NetType/cmnet Language/zh_CN'
p25
sg16
S'6970dd03706de2adb5d22ca5750e2173'
p26
sa(dp27
g2
S'47276'
p28
sg4
S'4541'
p29
sg6
S'151a88c31d3cac64c075a41329f540f8'
p30
sg8
S'xx40f0e94635186b82907218132d6e06ba'
p31
sg10
S'xxaa5c7e5ed6af06d39f4835a8178c05e2'
p32
sg12
S'xxf435227cf382715e1d194406a9e153f3'
p33
sg14
S'Mozilla/5.0 (Linux; Android 6.0.1; SM-G9280 Build/MMB29K) AppleWebKit/537.36 (KHTML, like Gecko) Version/4.0 Chrome/37.0.0.0 Mobile MQQBrowser/6.8 TBS/036824 Safari/537.36 MicroMessenger/6.3.27.880 NetType/cmnet Language/zh_CN'
p34
sg16
S'6970dd03706de2adb5d22ca5750e2173'
p35
sa.