(lp0
(dp1
S'user_id'
p2
S'7222'
p3
sS'data_id'
p4
S'988'
p5
sS'ip'
p6
S'03f52a4f7e66c7ccc384ce91e7bd50e9'
p7
sS'phone_B'
p8
S'xxb4243ba4632323afc886df4a0f0666c1'
p9
sS'phone_C'
p10
S'xx4006016f077807be1693755fe7f3cb22'
p11
sS'phone_A'
p12
S'xxf4fa785cf562bbd7aa98eae21fc33c42'
p13
sS'user_agent'
p14
S'Mozilla/5.0 (Linux; Android 5.1.1; SM-G6000 Build/LMY47X) AppleWebKit/537.36 (KHTML, like Gecko) Version/4.0 Chrome/37.0.0.0 Mobile MQQBrowser/6.8 TBS/036849 Safari/537.36 MicroMessenger/6.3.27.880 NetType/WIFI Language/zh_CN'
p15
sS'ua'
p16
S'11785eab7c049e715b7a390ccde76d04'
p17
sa(dp18
g2
S'7222'
p19
sg4
S'1004'
p20
sg6
S'03f52a4f7e66c7ccc384ce91e7bd50e9'
p21
sg8
S'xxb4243ba4632323afc886df4a0f0666c1'
p22
sg10
S'xx4006016f077807be1693755fe7f3cb22'
p23
sg12
S'xxf4fa785cf562bbd7aa98eae21fc33c42'
p24
sg14
S'Mozilla/5.0 (Linux; Android 5.1.1; SM-G6000 Build/LMY47X) AppleWebKit/537.36 (KHTML, like Gecko) Version/4.0 Chrome/37.0.0.0 Mobile MQQBrowser/6.8 TBS/036849 Safari/537.36 MicroMessenger/6.3.27.880 NetType/WIFI Language/zh_CN'
p25
sg16
S'11785eab7c049e715b7a390ccde76d04'
p26
sa(dp27
g2
S'45089'
p28
sg4
S'1115'
p29
sg6
S'03f52a4f7e66c7ccc384ce91e7bd50e9'
p30
sg8
S'xxb4243ba4632323afc886df4a0f0666c1'
p31
sg10
S'xx4006016f077807be1693755fe7f3cb22'
p32
sg12
S'xxf4fa785cf562bbd7aa98eae21fc33c42'
p33
sg14
S'Mozilla/5.0 (Linux; Android 5.1.1; SM-G6000 Build/LMY47X) AppleWebKit/537.36 (KHTML, like Gecko) Version/4.0 Chrome/37.0.0.0 Mobile MQQBrowser/6.8 TBS/036849 Safari/537.36 MicroMessenger/6.3.27.880 NetType/WIFI Language/zh_CN'
p34
sg16
S'11785eab7c049e715b7a390ccde76d04'
p35
sa(dp36
g2
S'45089'
p37
sg4
S'1132'
p38
sg6
S'03f52a4f7e66c7ccc384ce91e7bd50e9'
p39
sg8
S'xxb4243ba4632323afc886df4a0f0666c1'
p40
sg10
S'xx4006016f077807be1693755fe7f3cb22'
p41
sg12
S'xxf4fa785cf562bbd7aa98eae21fc33c42'
p42
sg14
S'Mozilla/5.0 (Linux; Android 5.1.1; SM-G6000 Build/LMY47X) AppleWebKit/537.36 (KHTML, like Gecko) Version/4.0 Chrome/37.0.0.0 Mobile MQQBrowser/6.8 TBS/036849 Safari/537.36 MicroMessenger/6.3.27.880 NetType/WIFI Language/zh_CN'
p43
sg16
S'11785eab7c049e715b7a390ccde76d04'
p44
sa(dp45
g2
S'7222'
p46
sg4
S'1383'
p47
sg6
S'03f52a4f7e66c7ccc384ce91e7bd50e9'
p48
sg8
S'xxb4243ba4632323afc886df4a0f0666c1'
p49
sg10
S'xx4006016f077807be1693755fe7f3cb22'
p50
sg12
S'xxf4fa785cf562bbd7aa98eae21fc33c42'
p51
sg14
S'Mozilla/5.0 (Linux; Android 5.1.1; SM-G6000 Build/LMY47X) AppleWebKit/537.36 (KHTML, like Gecko) Version/4.0 Chrome/37.0.0.0 Mobile MQQBrowser/6.8 TBS/036849 Safari/537.36 MicroMessenger/6.3.27.880 NetType/WIFI Language/zh_CN'
p52
sg16
S'11785eab7c049e715b7a390ccde76d04'
p53
sa(dp54
g2
S'7222'
p55
sg4
S'1398'
p56
sg6
S'03f52a4f7e66c7ccc384ce91e7bd50e9'
p57
sg8
S'xxb4243ba4632323afc886df4a0f0666c1'
p58
sg10
S'xx4006016f077807be1693755fe7f3cb22'
p59
sg12
S'xxf4fa785cf562bbd7aa98eae21fc33c42'
p60
sg14
S'Mozilla/5.0 (Linux; Android 5.1.1; SM-G6000 Build/LMY47X) AppleWebKit/537.36 (KHTML, like Gecko) Version/4.0 Chrome/37.0.0.0 Mobile MQQBrowser/6.8 TBS/036849 Safari/537.36 MicroMessenger/6.3.27.880 NetType/WIFI Language/zh_CN'
p61
sg16
S'11785eab7c049e715b7a390ccde76d04'
p62
sa(dp63
g2
S'7222'
p64
sg4
S'1421'
p65
sg6
S'03f52a4f7e66c7ccc384ce91e7bd50e9'
p66
sg8
S'xxb4243ba4632323afc886df4a0f0666c1'
p67
sg10
S'xx4006016f077807be1693755fe7f3cb22'
p68
sg12
S'xxf4fa785cf562bbd7aa98eae21fc33c42'
p69
sg14
S'Mozilla/5.0 (Linux; Android 5.1.1; SM-G6000 Build/LMY47X) AppleWebKit/537.36 (KHTML, like Gecko) Version/4.0 Chrome/37.0.0.0 Mobile MQQBrowser/6.8 TBS/036849 Safari/537.36 MicroMessenger/6.3.27.880 NetType/WIFI Language/zh_CN'
p70
sg16
S'11785eab7c049e715b7a390ccde76d04'
p71
sa(dp72
g2
S'7222'
p73
sg4
S'1449'
p74
sg6
S'03f52a4f7e66c7ccc384ce91e7bd50e9'
p75
sg8
S'xxb4243ba4632323afc886df4a0f0666c1'
p76
sg10
S'xx4006016f077807be1693755fe7f3cb22'
p77
sg12
S'xxf4fa785cf562bbd7aa98eae21fc33c42'
p78
sg14
S'Mozilla/5.0 (Linux; Android 5.1.1; SM-G6000 Build/LMY47X) AppleWebKit/537.36 (KHTML, like Gecko) Version/4.0 Chrome/37.0.0.0 Mobile MQQBrowser/6.8 TBS/036849 Safari/537.36 MicroMessenger/6.3.27.880 NetType/WIFI Language/zh_CN'
p79
sg16
S'11785eab7c049e715b7a390ccde76d04'
p80
sa(dp81
g2
S'7222'
p82
sg4
S'1462'
p83
sg6
S'03f52a4f7e66c7ccc384ce91e7bd50e9'
p84
sg8
S'xxb4243ba4632323afc886df4a0f0666c1'
p85
sg10
S'xx4006016f077807be1693755fe7f3cb22'
p86
sg12
S'xxf4fa785cf562bbd7aa98eae21fc33c42'
p87
sg14
S'Mozilla/5.0 (Linux; Android 5.1.1; SM-G6000 Build/LMY47X) AppleWebKit/537.36 (KHTML, like Gecko) Version/4.0 Chrome/37.0.0.0 Mobile MQQBrowser/6.8 TBS/036849 Safari/537.36 MicroMessenger/6.3.27.880 NetType/WIFI Language/zh_CN'
p88
sg16
S'11785eab7c049e715b7a390ccde76d04'
p89
sa(dp90
g2
S'7222'
p91
sg4
S'1477'
p92
sg6
S'03f52a4f7e66c7ccc384ce91e7bd50e9'
p93
sg8
S'xxb4243ba4632323afc886df4a0f0666c1'
p94
sg10
S'xx4006016f077807be1693755fe7f3cb22'
p95
sg12
S'xxf4fa785cf562bbd7aa98eae21fc33c42'
p96
sg14
S'Mozilla/5.0 (Linux; Android 5.1.1; SM-G6000 Build/LMY47X) AppleWebKit/537.36 (KHTML, like Gecko) Version/4.0 Chrome/37.0.0.0 Mobile MQQBrowser/6.8 TBS/036849 Safari/537.36 MicroMessenger/6.3.27.880 NetType/WIFI Language/zh_CN'
p97
sg16
S'11785eab7c049e715b7a390ccde76d04'
p98
sa(dp99
g2
S'7222'
p100
sg4
S'1496'
p101
sg6
S'03f52a4f7e66c7ccc384ce91e7bd50e9'
p102
sg8
S'xxb4243ba4632323afc886df4a0f0666c1'
p103
sg10
S'xx4006016f077807be1693755fe7f3cb22'
p104
sg12
S'xxf4fa785cf562bbd7aa98eae21fc33c42'
p105
sg14
S'Mozilla/5.0 (Linux; Android 5.1.1; SM-G6000 Build/LMY47X) AppleWebKit/537.36 (KHTML, like Gecko) Version/4.0 Chrome/37.0.0.0 Mobile MQQBrowser/6.8 TBS/036849 Safari/537.36 MicroMessenger/6.3.27.880 NetType/WIFI Language/zh_CN'
p106
sg16
S'11785eab7c049e715b7a390ccde76d04'
p107
sa(dp108
g2
S'7222'
p109
sg4
S'1513'
p110
sg6
S'03f52a4f7e66c7ccc384ce91e7bd50e9'
p111
sg8
S'xxb4243ba4632323afc886df4a0f0666c1'
p112
sg10
S'xx4006016f077807be1693755fe7f3cb22'
p113
sg12
S'xxf4fa785cf562bbd7aa98eae21fc33c42'
p114
sg14
S'Mozilla/5.0 (Linux; Android 5.1.1; SM-G6000 Build/LMY47X) AppleWebKit/537.36 (KHTML, like Gecko) Version/4.0 Chrome/37.0.0.0 Mobile MQQBrowser/6.8 TBS/036849 Safari/537.36 MicroMessenger/6.3.27.880 NetType/WIFI Language/zh_CN'
p115
sg16
S'11785eab7c049e715b7a390ccde76d04'
p116
sa(dp117
g2
S'45089'
p118
sg4
S'1607'
p119
sg6
S'03f52a4f7e66c7ccc384ce91e7bd50e9'
p120
sg8
S'xxb4243ba4632323afc886df4a0f0666c1'
p121
sg10
S'xx4006016f077807be1693755fe7f3cb22'
p122
sg12
S'xxf4fa785cf562bbd7aa98eae21fc33c42'
p123
sg14
S'Mozilla/5.0 (Linux; Android 5.1.1; SM-G6000 Build/LMY47X) AppleWebKit/537.36 (KHTML, like Gecko) Version/4.0 Chrome/37.0.0.0 Mobile MQQBrowser/6.8 TBS/036849 Safari/537.36 MicroMessenger/6.3.27.880 NetType/WIFI Language/zh_CN'
p124
sg16
S'11785eab7c049e715b7a390ccde76d04'
p125
sa(dp126
g2
S'45089'
p127
sg4
S'1621'
p128
sg6
S'03f52a4f7e66c7ccc384ce91e7bd50e9'
p129
sg8
S'xxb4243ba4632323afc886df4a0f0666c1'
p130
sg10
S'xx4006016f077807be1693755fe7f3cb22'
p131
sg12
S'xxf4fa785cf562bbd7aa98eae21fc33c42'
p132
sg14
S'Mozilla/5.0 (Linux; Android 5.1.1; SM-G6000 Build/LMY47X) AppleWebKit/537.36 (KHTML, like Gecko) Version/4.0 Chrome/37.0.0.0 Mobile MQQBrowser/6.8 TBS/036849 Safari/537.36 MicroMessenger/6.3.27.880 NetType/WIFI Language/zh_CN'
p133
sg16
S'11785eab7c049e715b7a390ccde76d04'
p134
sa(dp135
g2
S'7222'
p136
sg4
S'1768'
p137
sg6
S'03f52a4f7e66c7ccc384ce91e7bd50e9'
p138
sg8
S'xxb4243ba4632323afc886df4a0f0666c1'
p139
sg10
S'xx4006016f077807be1693755fe7f3cb22'
p140
sg12
S'xxf4fa785cf562bbd7aa98eae21fc33c42'
p141
sg14
S'Mozilla/5.0 (Linux; Android 5.1.1; SM-G6000 Build/LMY47X) AppleWebKit/537.36 (KHTML, like Gecko) Version/4.0 Chrome/37.0.0.0 Mobile MQQBrowser/6.8 TBS/036849 Safari/537.36 MicroMessenger/6.3.27.880 NetType/WIFI Language/zh_CN'
p142
sg16
S'11785eab7c049e715b7a390ccde76d04'
p143
sa(dp144
g2
S'7222'
p145
sg4
S'1788'
p146
sg6
S'03f52a4f7e66c7ccc384ce91e7bd50e9'
p147
sg8
S'xxb4243ba4632323afc886df4a0f0666c1'
p148
sg10
S'xx4006016f077807be1693755fe7f3cb22'
p149
sg12
S'xxf4fa785cf562bbd7aa98eae21fc33c42'
p150
sg14
S'Mozilla/5.0 (Linux; Android 5.1.1; SM-G6000 Build/LMY47X) AppleWebKit/537.36 (KHTML, like Gecko) Version/4.0 Chrome/37.0.0.0 Mobile MQQBrowser/6.8 TBS/036849 Safari/537.36 MicroMessenger/6.3.27.880 NetType/WIFI Language/zh_CN'
p151
sg16
S'11785eab7c049e715b7a390ccde76d04'
p152
sa(dp153
g2
S'7222'
p154
sg4
S'1804'
p155
sg6
S'03f52a4f7e66c7ccc384ce91e7bd50e9'
p156
sg8
S'xxb4243ba4632323afc886df4a0f0666c1'
p157
sg10
S'xx4006016f077807be1693755fe7f3cb22'
p158
sg12
S'xxf4fa785cf562bbd7aa98eae21fc33c42'
p159
sg14
S'Mozilla/5.0 (Linux; Android 5.1.1; SM-G6000 Build/LMY47X) AppleWebKit/537.36 (KHTML, like Gecko) Version/4.0 Chrome/37.0.0.0 Mobile MQQBrowser/6.8 TBS/036849 Safari/537.36 MicroMessenger/6.3.27.880 NetType/WIFI Language/zh_CN'
p160
sg16
S'11785eab7c049e715b7a390ccde76d04'
p161
sa(dp162
g2
S'7222'
p163
sg4
S'1817'
p164
sg6
S'03f52a4f7e66c7ccc384ce91e7bd50e9'
p165
sg8
S'xxb4243ba4632323afc886df4a0f0666c1'
p166
sg10
S'xx4006016f077807be1693755fe7f3cb22'
p167
sg12
S'xxf4fa785cf562bbd7aa98eae21fc33c42'
p168
sg14
S'Mozilla/5.0 (Linux; Android 5.1.1; SM-G6000 Build/LMY47X) AppleWebKit/537.36 (KHTML, like Gecko) Version/4.0 Chrome/37.0.0.0 Mobile MQQBrowser/6.8 TBS/036849 Safari/537.36 MicroMessenger/6.3.27.880 NetType/WIFI Language/zh_CN'
p169
sg16
S'11785eab7c049e715b7a390ccde76d04'
p170
sa(dp171
g2
S'7222'
p172
sg4
S'1855'
p173
sg6
S'03f52a4f7e66c7ccc384ce91e7bd50e9'
p174
sg8
S'xxb4243ba4632323afc886df4a0f0666c1'
p175
sg10
S'xx4006016f077807be1693755fe7f3cb22'
p176
sg12
S'xxf4fa785cf562bbd7aa98eae21fc33c42'
p177
sg14
S'Mozilla/5.0 (Linux; Android 5.1.1; SM-G6000 Build/LMY47X) AppleWebKit/537.36 (KHTML, like Gecko) Version/4.0 Chrome/37.0.0.0 Mobile MQQBrowser/6.8 TBS/036849 Safari/537.36 MicroMessenger/6.3.27.880 NetType/WIFI Language/zh_CN'
p178
sg16
S'11785eab7c049e715b7a390ccde76d04'
p179
sa(dp180
g2
S'7222'
p181
sg4
S'1919'
p182
sg6
S'03f52a4f7e66c7ccc384ce91e7bd50e9'
p183
sg8
S'xxb4243ba4632323afc886df4a0f0666c1'
p184
sg10
S'xx4006016f077807be1693755fe7f3cb22'
p185
sg12
S'xxf4fa785cf562bbd7aa98eae21fc33c42'
p186
sg14
S'Mozilla/5.0 (Linux; Android 5.1.1; SM-G6000 Build/LMY47X) AppleWebKit/537.36 (KHTML, like Gecko) Version/4.0 Chrome/37.0.0.0 Mobile MQQBrowser/6.8 TBS/036849 Safari/537.36 MicroMessenger/6.3.27.880 NetType/WIFI Language/zh_CN'
p187
sg16
S'11785eab7c049e715b7a390ccde76d04'
p188
sa(dp189
g2
S'7222'
p190
sg4
S'1940'
p191
sg6
S'03f52a4f7e66c7ccc384ce91e7bd50e9'
p192
sg8
S'xxb4243ba4632323afc886df4a0f0666c1'
p193
sg10
S'xx4006016f077807be1693755fe7f3cb22'
p194
sg12
S'xxf4fa785cf562bbd7aa98eae21fc33c42'
p195
sg14
S'Mozilla/5.0 (Linux; Android 5.1.1; SM-G6000 Build/LMY47X) AppleWebKit/537.36 (KHTML, like Gecko) Version/4.0 Chrome/37.0.0.0 Mobile MQQBrowser/6.8 TBS/036849 Safari/537.36 MicroMessenger/6.3.27.880 NetType/WIFI Language/zh_CN'
p196
sg16
S'11785eab7c049e715b7a390ccde76d04'
p197
sa(dp198
g2
S'7222'
p199
sg4
S'1960'
p200
sg6
S'03f52a4f7e66c7ccc384ce91e7bd50e9'
p201
sg8
S'xxb4243ba4632323afc886df4a0f0666c1'
p202
sg10
S'xx4006016f077807be1693755fe7f3cb22'
p203
sg12
S'xxf4fa785cf562bbd7aa98eae21fc33c42'
p204
sg14
S'Mozilla/5.0 (Linux; Android 5.1.1; SM-G6000 Build/LMY47X) AppleWebKit/537.36 (KHTML, like Gecko) Version/4.0 Chrome/37.0.0.0 Mobile MQQBrowser/6.8 TBS/036849 Safari/537.36 MicroMessenger/6.3.27.880 NetType/WIFI Language/zh_CN'
p205
sg16
S'11785eab7c049e715b7a390ccde76d04'
p206
sa(dp207
g2
S'7222'
p208
sg4
S'1977'
p209
sg6
S'03f52a4f7e66c7ccc384ce91e7bd50e9'
p210
sg8
S'xxb4243ba4632323afc886df4a0f0666c1'
p211
sg10
S'xx4006016f077807be1693755fe7f3cb22'
p212
sg12
S'xxf4fa785cf562bbd7aa98eae21fc33c42'
p213
sg14
S'Mozilla/5.0 (Linux; Android 5.1.1; SM-G6000 Build/LMY47X) AppleWebKit/537.36 (KHTML, like Gecko) Version/4.0 Chrome/37.0.0.0 Mobile MQQBrowser/6.8 TBS/036849 Safari/537.36 MicroMessenger/6.3.27.880 NetType/WIFI Language/zh_CN'
p214
sg16
S'11785eab7c049e715b7a390ccde76d04'
p215
sa(dp216
g2
S'7222'
p217
sg4
S'1992'
p218
sg6
S'03f52a4f7e66c7ccc384ce91e7bd50e9'
p219
sg8
S'xxb4243ba4632323afc886df4a0f0666c1'
p220
sg10
S'xx4006016f077807be1693755fe7f3cb22'
p221
sg12
S'xxf4fa785cf562bbd7aa98eae21fc33c42'
p222
sg14
S'Mozilla/5.0 (Linux; Android 5.1.1; SM-G6000 Build/LMY47X) AppleWebKit/537.36 (KHTML, like Gecko) Version/4.0 Chrome/37.0.0.0 Mobile MQQBrowser/6.8 TBS/036849 Safari/537.36 MicroMessenger/6.3.27.880 NetType/WIFI Language/zh_CN'
p223
sg16
S'11785eab7c049e715b7a390ccde76d04'
p224
sa(dp225
g2
S'7222'
p226
sg4
S'2008'
p227
sg6
S'03f52a4f7e66c7ccc384ce91e7bd50e9'
p228
sg8
S'xxb4243ba4632323afc886df4a0f0666c1'
p229
sg10
S'xx4006016f077807be1693755fe7f3cb22'
p230
sg12
S'xxf4fa785cf562bbd7aa98eae21fc33c42'
p231
sg14
S'Mozilla/5.0 (Linux; Android 5.1.1; SM-G6000 Build/LMY47X) AppleWebKit/537.36 (KHTML, like Gecko) Version/4.0 Chrome/37.0.0.0 Mobile MQQBrowser/6.8 TBS/036849 Safari/537.36 MicroMessenger/6.3.27.880 NetType/WIFI Language/zh_CN'
p232
sg16
S'11785eab7c049e715b7a390ccde76d04'
p233
sa(dp234
g2
S'7222'
p235
sg4
S'2027'
p236
sg6
S'03f52a4f7e66c7ccc384ce91e7bd50e9'
p237
sg8
S'xxb4243ba4632323afc886df4a0f0666c1'
p238
sg10
S'xx4006016f077807be1693755fe7f3cb22'
p239
sg12
S'xxf4fa785cf562bbd7aa98eae21fc33c42'
p240
sg14
S'Mozilla/5.0 (Linux; Android 5.1.1; SM-G6000 Build/LMY47X) AppleWebKit/537.36 (KHTML, like Gecko) Version/4.0 Chrome/37.0.0.0 Mobile MQQBrowser/6.8 TBS/036849 Safari/537.36 MicroMessenger/6.3.27.880 NetType/WIFI Language/zh_CN'
p241
sg16
S'11785eab7c049e715b7a390ccde76d04'
p242
sa(dp243
g2
S'7222'
p244
sg4
S'2041'
p245
sg6
S'03f52a4f7e66c7ccc384ce91e7bd50e9'
p246
sg8
S'xxb4243ba4632323afc886df4a0f0666c1'
p247
sg10
S'xx4006016f077807be1693755fe7f3cb22'
p248
sg12
S'xxf4fa785cf562bbd7aa98eae21fc33c42'
p249
sg14
S'Mozilla/5.0 (Linux; Android 5.1.1; SM-G6000 Build/LMY47X) AppleWebKit/537.36 (KHTML, like Gecko) Version/4.0 Chrome/37.0.0.0 Mobile MQQBrowser/6.8 TBS/036849 Safari/537.36 MicroMessenger/6.3.27.880 NetType/WIFI Language/zh_CN'
p250
sg16
S'11785eab7c049e715b7a390ccde76d04'
p251
sa(dp252
g2
S'7222'
p253
sg4
S'2056'
p254
sg6
S'03f52a4f7e66c7ccc384ce91e7bd50e9'
p255
sg8
S'xxb4243ba4632323afc886df4a0f0666c1'
p256
sg10
S'xx4006016f077807be1693755fe7f3cb22'
p257
sg12
S'xxf4fa785cf562bbd7aa98eae21fc33c42'
p258
sg14
S'Mozilla/5.0 (Linux; Android 5.1.1; SM-G6000 Build/LMY47X) AppleWebKit/537.36 (KHTML, like Gecko) Version/4.0 Chrome/37.0.0.0 Mobile MQQBrowser/6.8 TBS/036849 Safari/537.36 MicroMessenger/6.3.27.880 NetType/WIFI Language/zh_CN'
p259
sg16
S'11785eab7c049e715b7a390ccde76d04'
p260
sa(dp261
g2
S'7222'
p262
sg4
S'2066'
p263
sg6
S'03f52a4f7e66c7ccc384ce91e7bd50e9'
p264
sg8
S'xxb4243ba4632323afc886df4a0f0666c1'
p265
sg10
S'xx4006016f077807be1693755fe7f3cb22'
p266
sg12
S'xxf4fa785cf562bbd7aa98eae21fc33c42'
p267
sg14
S'Mozilla/5.0 (Linux; Android 5.1.1; SM-G6000 Build/LMY47X) AppleWebKit/537.36 (KHTML, like Gecko) Version/4.0 Chrome/37.0.0.0 Mobile MQQBrowser/6.8 TBS/036849 Safari/537.36 MicroMessenger/6.3.27.880 NetType/WIFI Language/zh_CN'
p268
sg16
S'11785eab7c049e715b7a390ccde76d04'
p269
sa(dp270
g2
S'7222'
p271
sg4
S'2081'
p272
sg6
S'03f52a4f7e66c7ccc384ce91e7bd50e9'
p273
sg8
S'xxb4243ba4632323afc886df4a0f0666c1'
p274
sg10
S'xx4006016f077807be1693755fe7f3cb22'
p275
sg12
S'xxf4fa785cf562bbd7aa98eae21fc33c42'
p276
sg14
S'Mozilla/5.0 (Linux; Android 5.1.1; SM-G6000 Build/LMY47X) AppleWebKit/537.36 (KHTML, like Gecko) Version/4.0 Chrome/37.0.0.0 Mobile MQQBrowser/6.8 TBS/036849 Safari/537.36 MicroMessenger/6.3.27.880 NetType/WIFI Language/zh_CN'
p277
sg16
S'11785eab7c049e715b7a390ccde76d04'
p278
sa(dp279
g2
S'7222'
p280
sg4
S'2096'
p281
sg6
S'03f52a4f7e66c7ccc384ce91e7bd50e9'
p282
sg8
S'xxb4243ba4632323afc886df4a0f0666c1'
p283
sg10
S'xx4006016f077807be1693755fe7f3cb22'
p284
sg12
S'xxf4fa785cf562bbd7aa98eae21fc33c42'
p285
sg14
S'Mozilla/5.0 (Linux; Android 5.1.1; SM-G6000 Build/LMY47X) AppleWebKit/537.36 (KHTML, like Gecko) Version/4.0 Chrome/37.0.0.0 Mobile MQQBrowser/6.8 TBS/036849 Safari/537.36 MicroMessenger/6.3.27.880 NetType/WIFI Language/zh_CN'
p286
sg16
S'11785eab7c049e715b7a390ccde76d04'
p287
sa(dp288
g2
S'45089'
p289
sg4
S'2163'
p290
sg6
S'03f52a4f7e66c7ccc384ce91e7bd50e9'
p291
sg8
S'xxb4243ba4632323afc886df4a0f0666c1'
p292
sg10
S'xx4006016f077807be1693755fe7f3cb22'
p293
sg12
S'xxf4fa785cf562bbd7aa98eae21fc33c42'
p294
sg14
S'Mozilla/5.0 (Linux; Android 5.1.1; SM-G6000 Build/LMY47X) AppleWebKit/537.36 (KHTML, like Gecko) Version/4.0 Chrome/37.0.0.0 Mobile MQQBrowser/6.8 TBS/036849 Safari/537.36 MicroMessenger/6.3.27.880 NetType/WIFI Language/zh_CN'
p295
sg16
S'11785eab7c049e715b7a390ccde76d04'
p296
sa(dp297
g2
S'45089'
p298
sg4
S'2177'
p299
sg6
S'03f52a4f7e66c7ccc384ce91e7bd50e9'
p300
sg8
S'xxb4243ba4632323afc886df4a0f0666c1'
p301
sg10
S'xx4006016f077807be1693755fe7f3cb22'
p302
sg12
S'xxf4fa785cf562bbd7aa98eae21fc33c42'
p303
sg14
S'Mozilla/5.0 (Linux; Android 5.1.1; SM-G6000 Build/LMY47X) AppleWebKit/537.36 (KHTML, like Gecko) Version/4.0 Chrome/37.0.0.0 Mobile MQQBrowser/6.8 TBS/036849 Safari/537.36 MicroMessenger/6.3.27.880 NetType/WIFI Language/zh_CN'
p304
sg16
S'11785eab7c049e715b7a390ccde76d04'
p305
sa(dp306
g2
S'45089'
p307
sg4
S'2193'
p308
sg6
S'03f52a4f7e66c7ccc384ce91e7bd50e9'
p309
sg8
S'xxb4243ba4632323afc886df4a0f0666c1'
p310
sg10
S'xx4006016f077807be1693755fe7f3cb22'
p311
sg12
S'xxf4fa785cf562bbd7aa98eae21fc33c42'
p312
sg14
S'Mozilla/5.0 (Linux; Android 5.1.1; SM-G6000 Build/LMY47X) AppleWebKit/537.36 (KHTML, like Gecko) Version/4.0 Chrome/37.0.0.0 Mobile MQQBrowser/6.8 TBS/036849 Safari/537.36 MicroMessenger/6.3.27.880 NetType/WIFI Language/zh_CN'
p313
sg16
S'11785eab7c049e715b7a390ccde76d04'
p314
sa(dp315
g2
S'45089'
p316
sg4
S'2214'
p317
sg6
S'03f52a4f7e66c7ccc384ce91e7bd50e9'
p318
sg8
S'xxb4243ba4632323afc886df4a0f0666c1'
p319
sg10
S'xx4006016f077807be1693755fe7f3cb22'
p320
sg12
S'xxf4fa785cf562bbd7aa98eae21fc33c42'
p321
sg14
S'Mozilla/5.0 (Linux; Android 5.1.1; SM-G6000 Build/LMY47X) AppleWebKit/537.36 (KHTML, like Gecko) Version/4.0 Chrome/37.0.0.0 Mobile MQQBrowser/6.8 TBS/036849 Safari/537.36 MicroMessenger/6.3.27.880 NetType/WIFI Language/zh_CN'
p322
sg16
S'11785eab7c049e715b7a390ccde76d04'
p323
sa(dp324
g2
S'7222'
p325
sg4
S'2537'
p326
sg6
S'03f52a4f7e66c7ccc384ce91e7bd50e9'
p327
sg8
S'xxb4243ba4632323afc886df4a0f0666c1'
p328
sg10
S'xx4006016f077807be1693755fe7f3cb22'
p329
sg12
S'xxf4fa785cf562bbd7aa98eae21fc33c42'
p330
sg14
S'Mozilla/5.0 (Linux; Android 5.1.1; SM-G6000 Build/LMY47X) AppleWebKit/537.36 (KHTML, like Gecko) Version/4.0 Chrome/37.0.0.0 Mobile MQQBrowser/6.8 TBS/036849 Safari/537.36 MicroMessenger/6.3.27.880 NetType/WIFI Language/zh_CN'
p331
sg16
S'11785eab7c049e715b7a390ccde76d04'
p332
sa(dp333
g2
S'7222'
p334
sg4
S'2562'
p335
sg6
S'03f52a4f7e66c7ccc384ce91e7bd50e9'
p336
sg8
S'xxb4243ba4632323afc886df4a0f0666c1'
p337
sg10
S'xx4006016f077807be1693755fe7f3cb22'
p338
sg12
S'xxf4fa785cf562bbd7aa98eae21fc33c42'
p339
sg14
S'Mozilla/5.0 (Linux; Android 5.1.1; SM-G6000 Build/LMY47X) AppleWebKit/537.36 (KHTML, like Gecko) Version/4.0 Chrome/37.0.0.0 Mobile MQQBrowser/6.8 TBS/036849 Safari/537.36 MicroMessenger/6.3.27.880 NetType/WIFI Language/zh_CN'
p340
sg16
S'11785eab7c049e715b7a390ccde76d04'
p341
sa(dp342
g2
S'7222'
p343
sg4
S'2578'
p344
sg6
S'03f52a4f7e66c7ccc384ce91e7bd50e9'
p345
sg8
S'xxb4243ba4632323afc886df4a0f0666c1'
p346
sg10
S'xx4006016f077807be1693755fe7f3cb22'
p347
sg12
S'xxf4fa785cf562bbd7aa98eae21fc33c42'
p348
sg14
S'Mozilla/5.0 (Linux; Android 5.1.1; SM-G6000 Build/LMY47X) AppleWebKit/537.36 (KHTML, like Gecko) Version/4.0 Chrome/37.0.0.0 Mobile MQQBrowser/6.8 TBS/036849 Safari/537.36 MicroMessenger/6.3.27.880 NetType/WIFI Language/zh_CN'
p349
sg16
S'11785eab7c049e715b7a390ccde76d04'
p350
sa(dp351
g2
S'7222'
p352
sg4
S'2595'
p353
sg6
S'03f52a4f7e66c7ccc384ce91e7bd50e9'
p354
sg8
S'xxb4243ba4632323afc886df4a0f0666c1'
p355
sg10
S'xx4006016f077807be1693755fe7f3cb22'
p356
sg12
S'xxf4fa785cf562bbd7aa98eae21fc33c42'
p357
sg14
S'Mozilla/5.0 (Linux; Android 5.1.1; SM-G6000 Build/LMY47X) AppleWebKit/537.36 (KHTML, like Gecko) Version/4.0 Chrome/37.0.0.0 Mobile MQQBrowser/6.8 TBS/036849 Safari/537.36 MicroMessenger/6.3.27.880 NetType/WIFI Language/zh_CN'
p358
sg16
S'11785eab7c049e715b7a390ccde76d04'
p359
sa(dp360
g2
S'7222'
p361
sg4
S'2640'
p362
sg6
S'03f52a4f7e66c7ccc384ce91e7bd50e9'
p363
sg8
S'xxb4243ba4632323afc886df4a0f0666c1'
p364
sg10
S'xx4006016f077807be1693755fe7f3cb22'
p365
sg12
S'xxf4fa785cf562bbd7aa98eae21fc33c42'
p366
sg14
S'Mozilla/5.0 (Linux; Android 5.1.1; SM-G6000 Build/LMY47X) AppleWebKit/537.36 (KHTML, like Gecko) Version/4.0 Chrome/37.0.0.0 Mobile MQQBrowser/6.8 TBS/036849 Safari/537.36 MicroMessenger/6.3.27.880 NetType/WIFI Language/zh_CN'
p367
sg16
S'11785eab7c049e715b7a390ccde76d04'
p368
sa(dp369
g2
S'7222'
p370
sg4
S'2663'
p371
sg6
S'03f52a4f7e66c7ccc384ce91e7bd50e9'
p372
sg8
S'xxb4243ba4632323afc886df4a0f0666c1'
p373
sg10
S'xx4006016f077807be1693755fe7f3cb22'
p374
sg12
S'xxf4fa785cf562bbd7aa98eae21fc33c42'
p375
sg14
S'Mozilla/5.0 (Linux; Android 5.1.1; SM-G6000 Build/LMY47X) AppleWebKit/537.36 (KHTML, like Gecko) Version/4.0 Chrome/37.0.0.0 Mobile MQQBrowser/6.8 TBS/036849 Safari/537.36 MicroMessenger/6.3.27.880 NetType/WIFI Language/zh_CN'
p376
sg16
S'11785eab7c049e715b7a390ccde76d04'
p377
sa(dp378
g2
S'7222'
p379
sg4
S'2684'
p380
sg6
S'03f52a4f7e66c7ccc384ce91e7bd50e9'
p381
sg8
S'xxb4243ba4632323afc886df4a0f0666c1'
p382
sg10
S'xx4006016f077807be1693755fe7f3cb22'
p383
sg12
S'xxf4fa785cf562bbd7aa98eae21fc33c42'
p384
sg14
S'Mozilla/5.0 (Linux; Android 5.1.1; SM-G6000 Build/LMY47X) AppleWebKit/537.36 (KHTML, like Gecko) Version/4.0 Chrome/37.0.0.0 Mobile MQQBrowser/6.8 TBS/036849 Safari/537.36 MicroMessenger/6.3.27.880 NetType/WIFI Language/zh_CN'
p385
sg16
S'11785eab7c049e715b7a390ccde76d04'
p386
sa(dp387
g2
S'7222'
p388
sg4
S'2702'
p389
sg6
S'03f52a4f7e66c7ccc384ce91e7bd50e9'
p390
sg8
S'xxb4243ba4632323afc886df4a0f0666c1'
p391
sg10
S'xx4006016f077807be1693755fe7f3cb22'
p392
sg12
S'xxf4fa785cf562bbd7aa98eae21fc33c42'
p393
sg14
S'Mozilla/5.0 (Linux; Android 5.1.1; SM-G6000 Build/LMY47X) AppleWebKit/537.36 (KHTML, like Gecko) Version/4.0 Chrome/37.0.0.0 Mobile MQQBrowser/6.8 TBS/036849 Safari/537.36 MicroMessenger/6.3.27.880 NetType/WIFI Language/zh_CN'
p394
sg16
S'11785eab7c049e715b7a390ccde76d04'
p395
sa(dp396
g2
S'45089'
p397
sg4
S'2776'
p398
sg6
S'03f52a4f7e66c7ccc384ce91e7bd50e9'
p399
sg8
S'xxb4243ba4632323afc886df4a0f0666c1'
p400
sg10
S'xx4006016f077807be1693755fe7f3cb22'
p401
sg12
S'xxf4fa785cf562bbd7aa98eae21fc33c42'
p402
sg14
S'Mozilla/5.0 (Linux; Android 5.1.1; SM-G6000 Build/LMY47X) AppleWebKit/537.36 (KHTML, like Gecko) Version/4.0 Chrome/37.0.0.0 Mobile MQQBrowser/6.8 TBS/036849 Safari/537.36 MicroMessenger/6.3.27.880 NetType/WIFI Language/zh_CN'
p403
sg16
S'11785eab7c049e715b7a390ccde76d04'
p404
sa(dp405
g2
S'45089'
p406
sg4
S'2785'
p407
sg6
S'03f52a4f7e66c7ccc384ce91e7bd50e9'
p408
sg8
S'xxb4243ba4632323afc886df4a0f0666c1'
p409
sg10
S'xx4006016f077807be1693755fe7f3cb22'
p410
sg12
S'xxf4fa785cf562bbd7aa98eae21fc33c42'
p411
sg14
S'Mozilla/5.0 (Linux; Android 5.1.1; SM-G6000 Build/LMY47X) AppleWebKit/537.36 (KHTML, like Gecko) Version/4.0 Chrome/37.0.0.0 Mobile MQQBrowser/6.8 TBS/036849 Safari/537.36 MicroMessenger/6.3.27.880 NetType/WIFI Language/zh_CN'
p412
sg16
S'11785eab7c049e715b7a390ccde76d04'
p413
sa(dp414
g2
S'45089'
p415
sg4
S'2800'
p416
sg6
S'03f52a4f7e66c7ccc384ce91e7bd50e9'
p417
sg8
S'xxb4243ba4632323afc886df4a0f0666c1'
p418
sg10
S'xx4006016f077807be1693755fe7f3cb22'
p419
sg12
S'xxf4fa785cf562bbd7aa98eae21fc33c42'
p420
sg14
S'Mozilla/5.0 (Linux; Android 5.1.1; SM-G6000 Build/LMY47X) AppleWebKit/537.36 (KHTML, like Gecko) Version/4.0 Chrome/37.0.0.0 Mobile MQQBrowser/6.8 TBS/036849 Safari/537.36 MicroMessenger/6.3.27.880 NetType/WIFI Language/zh_CN'
p421
sg16
S'11785eab7c049e715b7a390ccde76d04'
p422
sa(dp423
g2
S'45089'
p424
sg4
S'2816'
p425
sg6
S'03f52a4f7e66c7ccc384ce91e7bd50e9'
p426
sg8
S'xxb4243ba4632323afc886df4a0f0666c1'
p427
sg10
S'xx4006016f077807be1693755fe7f3cb22'
p428
sg12
S'xxf4fa785cf562bbd7aa98eae21fc33c42'
p429
sg14
S'Mozilla/5.0 (Linux; Android 5.1.1; SM-G6000 Build/LMY47X) AppleWebKit/537.36 (KHTML, like Gecko) Version/4.0 Chrome/37.0.0.0 Mobile MQQBrowser/6.8 TBS/036849 Safari/537.36 MicroMessenger/6.3.27.880 NetType/WIFI Language/zh_CN'
p430
sg16
S'11785eab7c049e715b7a390ccde76d04'
p431
sa(dp432
g2
S'45089'
p433
sg4
S'2833'
p434
sg6
S'03f52a4f7e66c7ccc384ce91e7bd50e9'
p435
sg8
S'xxb4243ba4632323afc886df4a0f0666c1'
p436
sg10
S'xx4006016f077807be1693755fe7f3cb22'
p437
sg12
S'xxf4fa785cf562bbd7aa98eae21fc33c42'
p438
sg14
S'Mozilla/5.0 (Linux; Android 5.1.1; SM-G6000 Build/LMY47X) AppleWebKit/537.36 (KHTML, like Gecko) Version/4.0 Chrome/37.0.0.0 Mobile MQQBrowser/6.8 TBS/036849 Safari/537.36 MicroMessenger/6.3.27.880 NetType/WIFI Language/zh_CN'
p439
sg16
S'11785eab7c049e715b7a390ccde76d04'
p440
sa(dp441
g2
S'7222'
p442
sg4
S'3020'
p443
sg6
S'03f52a4f7e66c7ccc384ce91e7bd50e9'
p444
sg8
S'xxb4243ba4632323afc886df4a0f0666c1'
p445
sg10
S'xx4006016f077807be1693755fe7f3cb22'
p446
sg12
S'xxf4fa785cf562bbd7aa98eae21fc33c42'
p447
sg14
S'Mozilla/5.0 (Linux; Android 5.1.1; SM-G6000 Build/LMY47X) AppleWebKit/537.36 (KHTML, like Gecko) Version/4.0 Chrome/37.0.0.0 Mobile MQQBrowser/6.8 TBS/036849 Safari/537.36 MicroMessenger/6.3.27.880 NetType/WIFI Language/zh_CN'
p448
sg16
S'11785eab7c049e715b7a390ccde76d04'
p449
sa(dp450
g2
S'7222'
p451
sg4
S'3034'
p452
sg6
S'03f52a4f7e66c7ccc384ce91e7bd50e9'
p453
sg8
S'xxb4243ba4632323afc886df4a0f0666c1'
p454
sg10
S'xx4006016f077807be1693755fe7f3cb22'
p455
sg12
S'xxf4fa785cf562bbd7aa98eae21fc33c42'
p456
sg14
S'Mozilla/5.0 (Linux; Android 5.1.1; SM-G6000 Build/LMY47X) AppleWebKit/537.36 (KHTML, like Gecko) Version/4.0 Chrome/37.0.0.0 Mobile MQQBrowser/6.8 TBS/036849 Safari/537.36 MicroMessenger/6.3.27.880 NetType/WIFI Language/zh_CN'
p457
sg16
S'11785eab7c049e715b7a390ccde76d04'
p458
sa(dp459
g2
S'7222'
p460
sg4
S'3055'
p461
sg6
S'03f52a4f7e66c7ccc384ce91e7bd50e9'
p462
sg8
S'xxb4243ba4632323afc886df4a0f0666c1'
p463
sg10
S'xx4006016f077807be1693755fe7f3cb22'
p464
sg12
S'xxf4fa785cf562bbd7aa98eae21fc33c42'
p465
sg14
S'Mozilla/5.0 (Linux; Android 5.1.1; SM-G6000 Build/LMY47X) AppleWebKit/537.36 (KHTML, like Gecko) Version/4.0 Chrome/37.0.0.0 Mobile MQQBrowser/6.8 TBS/036849 Safari/537.36 MicroMessenger/6.3.27.880 NetType/WIFI Language/zh_CN'
p466
sg16
S'11785eab7c049e715b7a390ccde76d04'
p467
sa(dp468
g2
S'7222'
p469
sg4
S'3075'
p470
sg6
S'03f52a4f7e66c7ccc384ce91e7bd50e9'
p471
sg8
S'xxb4243ba4632323afc886df4a0f0666c1'
p472
sg10
S'xx4006016f077807be1693755fe7f3cb22'
p473
sg12
S'xxf4fa785cf562bbd7aa98eae21fc33c42'
p474
sg14
S'Mozilla/5.0 (Linux; Android 5.1.1; SM-G6000 Build/LMY47X) AppleWebKit/537.36 (KHTML, like Gecko) Version/4.0 Chrome/37.0.0.0 Mobile MQQBrowser/6.8 TBS/036849 Safari/537.36 MicroMessenger/6.3.27.880 NetType/WIFI Language/zh_CN'
p475
sg16
S'11785eab7c049e715b7a390ccde76d04'
p476
sa(dp477
g2
S'7222'
p478
sg4
S'3097'
p479
sg6
S'03f52a4f7e66c7ccc384ce91e7bd50e9'
p480
sg8
S'xxb4243ba4632323afc886df4a0f0666c1'
p481
sg10
S'xx4006016f077807be1693755fe7f3cb22'
p482
sg12
S'xxf4fa785cf562bbd7aa98eae21fc33c42'
p483
sg14
S'Mozilla/5.0 (Linux; Android 5.1.1; SM-G6000 Build/LMY47X) AppleWebKit/537.36 (KHTML, like Gecko) Version/4.0 Chrome/37.0.0.0 Mobile MQQBrowser/6.8 TBS/036849 Safari/537.36 MicroMessenger/6.3.27.880 NetType/WIFI Language/zh_CN'
p484
sg16
S'11785eab7c049e715b7a390ccde76d04'
p485
sa(dp486
g2
S'7222'
p487
sg4
S'3114'
p488
sg6
S'03f52a4f7e66c7ccc384ce91e7bd50e9'
p489
sg8
S'xxb4243ba4632323afc886df4a0f0666c1'
p490
sg10
S'xx4006016f077807be1693755fe7f3cb22'
p491
sg12
S'xxf4fa785cf562bbd7aa98eae21fc33c42'
p492
sg14
S'Mozilla/5.0 (Linux; Android 5.1.1; SM-G6000 Build/LMY47X) AppleWebKit/537.36 (KHTML, like Gecko) Version/4.0 Chrome/37.0.0.0 Mobile MQQBrowser/6.8 TBS/036849 Safari/537.36 MicroMessenger/6.3.27.880 NetType/WIFI Language/zh_CN'
p493
sg16
S'11785eab7c049e715b7a390ccde76d04'
p494
sa(dp495
g2
S'7222'
p496
sg4
S'3133'
p497
sg6
S'03f52a4f7e66c7ccc384ce91e7bd50e9'
p498
sg8
S'xxb4243ba4632323afc886df4a0f0666c1'
p499
sg10
S'xx4006016f077807be1693755fe7f3cb22'
p500
sg12
S'xxf4fa785cf562bbd7aa98eae21fc33c42'
p501
sg14
S'Mozilla/5.0 (Linux; Android 5.1.1; SM-G6000 Build/LMY47X) AppleWebKit/537.36 (KHTML, like Gecko) Version/4.0 Chrome/37.0.0.0 Mobile MQQBrowser/6.8 TBS/036849 Safari/537.36 MicroMessenger/6.3.27.880 NetType/WIFI Language/zh_CN'
p502
sg16
S'11785eab7c049e715b7a390ccde76d04'
p503
sa(dp504
g2
S'7222'
p505
sg4
S'3153'
p506
sg6
S'03f52a4f7e66c7ccc384ce91e7bd50e9'
p507
sg8
S'xxb4243ba4632323afc886df4a0f0666c1'
p508
sg10
S'xx4006016f077807be1693755fe7f3cb22'
p509
sg12
S'xxf4fa785cf562bbd7aa98eae21fc33c42'
p510
sg14
S'Mozilla/5.0 (Linux; Android 5.1.1; SM-G6000 Build/LMY47X) AppleWebKit/537.36 (KHTML, like Gecko) Version/4.0 Chrome/37.0.0.0 Mobile MQQBrowser/6.8 TBS/036849 Safari/537.36 MicroMessenger/6.3.27.880 NetType/WIFI Language/zh_CN'
p511
sg16
S'11785eab7c049e715b7a390ccde76d04'
p512
sa(dp513
g2
S'7222'
p514
sg4
S'3164'
p515
sg6
S'03f52a4f7e66c7ccc384ce91e7bd50e9'
p516
sg8
S'xxb4243ba4632323afc886df4a0f0666c1'
p517
sg10
S'xx4006016f077807be1693755fe7f3cb22'
p518
sg12
S'xxf4fa785cf562bbd7aa98eae21fc33c42'
p519
sg14
S'Mozilla/5.0 (Linux; Android 5.1.1; SM-G6000 Build/LMY47X) AppleWebKit/537.36 (KHTML, like Gecko) Version/4.0 Chrome/37.0.0.0 Mobile MQQBrowser/6.8 TBS/036849 Safari/537.36 MicroMessenger/6.3.27.880 NetType/WIFI Language/zh_CN'
p520
sg16
S'11785eab7c049e715b7a390ccde76d04'
p521
sa(dp522
g2
S'7222'
p523
sg4
S'3181'
p524
sg6
S'03f52a4f7e66c7ccc384ce91e7bd50e9'
p525
sg8
S'xxb4243ba4632323afc886df4a0f0666c1'
p526
sg10
S'xx4006016f077807be1693755fe7f3cb22'
p527
sg12
S'xxf4fa785cf562bbd7aa98eae21fc33c42'
p528
sg14
S'Mozilla/5.0 (Linux; Android 5.1.1; SM-G6000 Build/LMY47X) AppleWebKit/537.36 (KHTML, like Gecko) Version/4.0 Chrome/37.0.0.0 Mobile MQQBrowser/6.8 TBS/036849 Safari/537.36 MicroMessenger/6.3.27.880 NetType/WIFI Language/zh_CN'
p529
sg16
S'11785eab7c049e715b7a390ccde76d04'
p530
sa(dp531
g2
S'7222'
p532
sg4
S'3198'
p533
sg6
S'03f52a4f7e66c7ccc384ce91e7bd50e9'
p534
sg8
S'xxb4243ba4632323afc886df4a0f0666c1'
p535
sg10
S'xx4006016f077807be1693755fe7f3cb22'
p536
sg12
S'xxf4fa785cf562bbd7aa98eae21fc33c42'
p537
sg14
S'Mozilla/5.0 (Linux; Android 5.1.1; SM-G6000 Build/LMY47X) AppleWebKit/537.36 (KHTML, like Gecko) Version/4.0 Chrome/37.0.0.0 Mobile MQQBrowser/6.8 TBS/036849 Safari/537.36 MicroMessenger/6.3.27.880 NetType/WIFI Language/zh_CN'
p538
sg16
S'11785eab7c049e715b7a390ccde76d04'
p539
sa(dp540
g2
S'7222'
p541
sg4
S'3212'
p542
sg6
S'03f52a4f7e66c7ccc384ce91e7bd50e9'
p543
sg8
S'xxb4243ba4632323afc886df4a0f0666c1'
p544
sg10
S'xx4006016f077807be1693755fe7f3cb22'
p545
sg12
S'xxf4fa785cf562bbd7aa98eae21fc33c42'
p546
sg14
S'Mozilla/5.0 (Linux; Android 5.1.1; SM-G6000 Build/LMY47X) AppleWebKit/537.36 (KHTML, like Gecko) Version/4.0 Chrome/37.0.0.0 Mobile MQQBrowser/6.8 TBS/036849 Safari/537.36 MicroMessenger/6.3.27.880 NetType/WIFI Language/zh_CN'
p547
sg16
S'11785eab7c049e715b7a390ccde76d04'
p548
sa(dp549
g2
S'7222'
p550
sg4
S'3224'
p551
sg6
S'03f52a4f7e66c7ccc384ce91e7bd50e9'
p552
sg8
S'xxb4243ba4632323afc886df4a0f0666c1'
p553
sg10
S'xx4006016f077807be1693755fe7f3cb22'
p554
sg12
S'xxf4fa785cf562bbd7aa98eae21fc33c42'
p555
sg14
S'Mozilla/5.0 (Linux; Android 5.1.1; SM-G6000 Build/LMY47X) AppleWebKit/537.36 (KHTML, like Gecko) Version/4.0 Chrome/37.0.0.0 Mobile MQQBrowser/6.8 TBS/036849 Safari/537.36 MicroMessenger/6.3.27.880 NetType/WIFI Language/zh_CN'
p556
sg16
S'11785eab7c049e715b7a390ccde76d04'
p557
sa(dp558
g2
S'7222'
p559
sg4
S'3243'
p560
sg6
S'03f52a4f7e66c7ccc384ce91e7bd50e9'
p561
sg8
S'xxb4243ba4632323afc886df4a0f0666c1'
p562
sg10
S'xx4006016f077807be1693755fe7f3cb22'
p563
sg12
S'xxf4fa785cf562bbd7aa98eae21fc33c42'
p564
sg14
S'Mozilla/5.0 (Linux; Android 5.1.1; SM-G6000 Build/LMY47X) AppleWebKit/537.36 (KHTML, like Gecko) Version/4.0 Chrome/37.0.0.0 Mobile MQQBrowser/6.8 TBS/036849 Safari/537.36 MicroMessenger/6.3.27.880 NetType/WIFI Language/zh_CN'
p565
sg16
S'11785eab7c049e715b7a390ccde76d04'
p566
sa(dp567
g2
S'7222'
p568
sg4
S'3255'
p569
sg6
S'03f52a4f7e66c7ccc384ce91e7bd50e9'
p570
sg8
S'xxb4243ba4632323afc886df4a0f0666c1'
p571
sg10
S'xx4006016f077807be1693755fe7f3cb22'
p572
sg12
S'xxf4fa785cf562bbd7aa98eae21fc33c42'
p573
sg14
S'Mozilla/5.0 (Linux; Android 5.1.1; SM-G6000 Build/LMY47X) AppleWebKit/537.36 (KHTML, like Gecko) Version/4.0 Chrome/37.0.0.0 Mobile MQQBrowser/6.8 TBS/036849 Safari/537.36 MicroMessenger/6.3.27.880 NetType/WIFI Language/zh_CN'
p574
sg16
S'11785eab7c049e715b7a390ccde76d04'
p575
sa(dp576
g2
S'45089'
p577
sg4
S'3327'
p578
sg6
S'03f52a4f7e66c7ccc384ce91e7bd50e9'
p579
sg8
S'xxb4243ba4632323afc886df4a0f0666c1'
p580
sg10
S'xx4006016f077807be1693755fe7f3cb22'
p581
sg12
S'xxf4fa785cf562bbd7aa98eae21fc33c42'
p582
sg14
S'Mozilla/5.0 (Linux; Android 5.1.1; SM-G6000 Build/LMY47X) AppleWebKit/537.36 (KHTML, like Gecko) Version/4.0 Chrome/37.0.0.0 Mobile MQQBrowser/6.8 TBS/036849 Safari/537.36 MicroMessenger/6.3.27.880 NetType/WIFI Language/zh_CN'
p583
sg16
S'11785eab7c049e715b7a390ccde76d04'
p584
sa(dp585
g2
S'45089'
p586
sg4
S'3346'
p587
sg6
S'03f52a4f7e66c7ccc384ce91e7bd50e9'
p588
sg8
S'xxb4243ba4632323afc886df4a0f0666c1'
p589
sg10
S'xx4006016f077807be1693755fe7f3cb22'
p590
sg12
S'xxf4fa785cf562bbd7aa98eae21fc33c42'
p591
sg14
S'Mozilla/5.0 (Linux; Android 5.1.1; SM-G6000 Build/LMY47X) AppleWebKit/537.36 (KHTML, like Gecko) Version/4.0 Chrome/37.0.0.0 Mobile MQQBrowser/6.8 TBS/036849 Safari/537.36 MicroMessenger/6.3.27.880 NetType/WIFI Language/zh_CN'
p592
sg16
S'11785eab7c049e715b7a390ccde76d04'
p593
sa(dp594
g2
S'45089'
p595
sg4
S'3363'
p596
sg6
S'03f52a4f7e66c7ccc384ce91e7bd50e9'
p597
sg8
S'xxb4243ba4632323afc886df4a0f0666c1'
p598
sg10
S'xx4006016f077807be1693755fe7f3cb22'
p599
sg12
S'xxf4fa785cf562bbd7aa98eae21fc33c42'
p600
sg14
S'Mozilla/5.0 (Linux; Android 5.1.1; SM-G6000 Build/LMY47X) AppleWebKit/537.36 (KHTML, like Gecko) Version/4.0 Chrome/37.0.0.0 Mobile MQQBrowser/6.8 TBS/036849 Safari/537.36 MicroMessenger/6.3.27.880 NetType/WIFI Language/zh_CN'
p601
sg16
S'11785eab7c049e715b7a390ccde76d04'
p602
sa(dp603
g2
S'7222'
p604
sg4
S'3483'
p605
sg6
S'03f52a4f7e66c7ccc384ce91e7bd50e9'
p606
sg8
S'xxb4243ba4632323afc886df4a0f0666c1'
p607
sg10
S'xx4006016f077807be1693755fe7f3cb22'
p608
sg12
S'xxf4fa785cf562bbd7aa98eae21fc33c42'
p609
sg14
S'Mozilla/5.0 (Linux; Android 5.1.1; SM-G6000 Build/LMY47X) AppleWebKit/537.36 (KHTML, like Gecko) Version/4.0 Chrome/37.0.0.0 Mobile MQQBrowser/6.8 TBS/036849 Safari/537.36 MicroMessenger/6.3.27.880 NetType/WIFI Language/zh_CN'
p610
sg16
S'11785eab7c049e715b7a390ccde76d04'
p611
sa(dp612
g2
S'7222'
p613
sg4
S'3501'
p614
sg6
S'03f52a4f7e66c7ccc384ce91e7bd50e9'
p615
sg8
S'xxb4243ba4632323afc886df4a0f0666c1'
p616
sg10
S'xx4006016f077807be1693755fe7f3cb22'
p617
sg12
S'xxf4fa785cf562bbd7aa98eae21fc33c42'
p618
sg14
S'Mozilla/5.0 (Linux; Android 5.1.1; SM-G6000 Build/LMY47X) AppleWebKit/537.36 (KHTML, like Gecko) Version/4.0 Chrome/37.0.0.0 Mobile MQQBrowser/6.8 TBS/036849 Safari/537.36 MicroMessenger/6.3.27.880 NetType/WIFI Language/zh_CN'
p619
sg16
S'11785eab7c049e715b7a390ccde76d04'
p620
sa(dp621
g2
S'7222'
p622
sg4
S'3515'
p623
sg6
S'03f52a4f7e66c7ccc384ce91e7bd50e9'
p624
sg8
S'xxb4243ba4632323afc886df4a0f0666c1'
p625
sg10
S'xx4006016f077807be1693755fe7f3cb22'
p626
sg12
S'xxf4fa785cf562bbd7aa98eae21fc33c42'
p627
sg14
S'Mozilla/5.0 (Linux; Android 5.1.1; SM-G6000 Build/LMY47X) AppleWebKit/537.36 (KHTML, like Gecko) Version/4.0 Chrome/37.0.0.0 Mobile MQQBrowser/6.8 TBS/036849 Safari/537.36 MicroMessenger/6.3.27.880 NetType/WIFI Language/zh_CN'
p628
sg16
S'11785eab7c049e715b7a390ccde76d04'
p629
sa(dp630
g2
S'7222'
p631
sg4
S'3527'
p632
sg6
S'03f52a4f7e66c7ccc384ce91e7bd50e9'
p633
sg8
S'xxb4243ba4632323afc886df4a0f0666c1'
p634
sg10
S'xx4006016f077807be1693755fe7f3cb22'
p635
sg12
S'xxf4fa785cf562bbd7aa98eae21fc33c42'
p636
sg14
S'Mozilla/5.0 (Linux; Android 5.1.1; SM-G6000 Build/LMY47X) AppleWebKit/537.36 (KHTML, like Gecko) Version/4.0 Chrome/37.0.0.0 Mobile MQQBrowser/6.8 TBS/036849 Safari/537.36 MicroMessenger/6.3.27.880 NetType/WIFI Language/zh_CN'
p637
sg16
S'11785eab7c049e715b7a390ccde76d04'
p638
sa(dp639
g2
S'7222'
p640
sg4
S'3578'
p641
sg6
S'03f52a4f7e66c7ccc384ce91e7bd50e9'
p642
sg8
S'xxb4243ba4632323afc886df4a0f0666c1'
p643
sg10
S'xx4006016f077807be1693755fe7f3cb22'
p644
sg12
S'xxf4fa785cf562bbd7aa98eae21fc33c42'
p645
sg14
S'Mozilla/5.0 (Linux; Android 5.1.1; SM-G6000 Build/LMY47X) AppleWebKit/537.36 (KHTML, like Gecko) Version/4.0 Chrome/37.0.0.0 Mobile MQQBrowser/6.8 TBS/036849 Safari/537.36 MicroMessenger/6.3.27.880 NetType/WIFI Language/zh_CN'
p646
sg16
S'11785eab7c049e715b7a390ccde76d04'
p647
sa(dp648
g2
S'7222'
p649
sg4
S'3695'
p650
sg6
S'03f52a4f7e66c7ccc384ce91e7bd50e9'
p651
sg8
S'xxb4243ba4632323afc886df4a0f0666c1'
p652
sg10
S'xx4006016f077807be1693755fe7f3cb22'
p653
sg12
S'xxf4fa785cf562bbd7aa98eae21fc33c42'
p654
sg14
S'Mozilla/5.0 (Linux; Android 5.1.1; SM-G6000 Build/LMY47X) AppleWebKit/537.36 (KHTML, like Gecko) Version/4.0 Chrome/37.0.0.0 Mobile MQQBrowser/6.8 TBS/036849 Safari/537.36 MicroMessenger/6.3.27.880 NetType/WIFI Language/zh_CN'
p655
sg16
S'11785eab7c049e715b7a390ccde76d04'
p656
sa(dp657
g2
S'7222'
p658
sg4
S'3724'
p659
sg6
S'03f52a4f7e66c7ccc384ce91e7bd50e9'
p660
sg8
S'xxb4243ba4632323afc886df4a0f0666c1'
p661
sg10
S'xx4006016f077807be1693755fe7f3cb22'
p662
sg12
S'xxf4fa785cf562bbd7aa98eae21fc33c42'
p663
sg14
S'Mozilla/5.0 (Linux; Android 5.1.1; SM-G6000 Build/LMY47X) AppleWebKit/537.36 (KHTML, like Gecko) Version/4.0 Chrome/37.0.0.0 Mobile MQQBrowser/6.8 TBS/036849 Safari/537.36 MicroMessenger/6.3.27.880 NetType/WIFI Language/zh_CN'
p664
sg16
S'11785eab7c049e715b7a390ccde76d04'
p665
sa(dp666
g2
S'7222'
p667
sg4
S'3742'
p668
sg6
S'03f52a4f7e66c7ccc384ce91e7bd50e9'
p669
sg8
S'xxb4243ba4632323afc886df4a0f0666c1'
p670
sg10
S'xx4006016f077807be1693755fe7f3cb22'
p671
sg12
S'xxf4fa785cf562bbd7aa98eae21fc33c42'
p672
sg14
S'Mozilla/5.0 (Linux; Android 5.1.1; SM-G6000 Build/LMY47X) AppleWebKit/537.36 (KHTML, like Gecko) Version/4.0 Chrome/37.0.0.0 Mobile MQQBrowser/6.8 TBS/036849 Safari/537.36 MicroMessenger/6.3.27.880 NetType/WIFI Language/zh_CN'
p673
sg16
S'11785eab7c049e715b7a390ccde76d04'
p674
sa(dp675
g2
S'7222'
p676
sg4
S'3760'
p677
sg6
S'03f52a4f7e66c7ccc384ce91e7bd50e9'
p678
sg8
S'xxb4243ba4632323afc886df4a0f0666c1'
p679
sg10
S'xx4006016f077807be1693755fe7f3cb22'
p680
sg12
S'xxf4fa785cf562bbd7aa98eae21fc33c42'
p681
sg14
S'Mozilla/5.0 (Linux; Android 5.1.1; SM-G6000 Build/LMY47X) AppleWebKit/537.36 (KHTML, like Gecko) Version/4.0 Chrome/37.0.0.0 Mobile MQQBrowser/6.8 TBS/036849 Safari/537.36 MicroMessenger/6.3.27.880 NetType/WIFI Language/zh_CN'
p682
sg16
S'11785eab7c049e715b7a390ccde76d04'
p683
sa(dp684
g2
S'45089'
p685
sg4
S'3855'
p686
sg6
S'03f52a4f7e66c7ccc384ce91e7bd50e9'
p687
sg8
S'xxb4243ba4632323afc886df4a0f0666c1'
p688
sg10
S'xx4006016f077807be1693755fe7f3cb22'
p689
sg12
S'xxf4fa785cf562bbd7aa98eae21fc33c42'
p690
sg14
S'Mozilla/5.0 (Linux; Android 5.1.1; SM-G6000 Build/LMY47X) AppleWebKit/537.36 (KHTML, like Gecko) Version/4.0 Chrome/37.0.0.0 Mobile MQQBrowser/6.8 TBS/036849 Safari/537.36 MicroMessenger/6.3.27.880 NetType/WIFI Language/zh_CN'
p691
sg16
S'11785eab7c049e715b7a390ccde76d04'
p692
sa(dp693
g2
S'45089'
p694
sg4
S'3873'
p695
sg6
S'03f52a4f7e66c7ccc384ce91e7bd50e9'
p696
sg8
S'xxb4243ba4632323afc886df4a0f0666c1'
p697
sg10
S'xx4006016f077807be1693755fe7f3cb22'
p698
sg12
S'xxf4fa785cf562bbd7aa98eae21fc33c42'
p699
sg14
S'Mozilla/5.0 (Linux; Android 5.1.1; SM-G6000 Build/LMY47X) AppleWebKit/537.36 (KHTML, like Gecko) Version/4.0 Chrome/37.0.0.0 Mobile MQQBrowser/6.8 TBS/036849 Safari/537.36 MicroMessenger/6.3.27.880 NetType/WIFI Language/zh_CN'
p700
sg16
S'11785eab7c049e715b7a390ccde76d04'
p701
sa(dp702
g2
S'45089'
p703
sg4
S'3895'
p704
sg6
S'03f52a4f7e66c7ccc384ce91e7bd50e9'
p705
sg8
S'xxb4243ba4632323afc886df4a0f0666c1'
p706
sg10
S'xx4006016f077807be1693755fe7f3cb22'
p707
sg12
S'xxf4fa785cf562bbd7aa98eae21fc33c42'
p708
sg14
S'Mozilla/5.0 (Linux; Android 5.1.1; SM-G6000 Build/LMY47X) AppleWebKit/537.36 (KHTML, like Gecko) Version/4.0 Chrome/37.0.0.0 Mobile MQQBrowser/6.8 TBS/036849 Safari/537.36 MicroMessenger/6.3.27.880 NetType/WIFI Language/zh_CN'
p709
sg16
S'11785eab7c049e715b7a390ccde76d04'
p710
sa(dp711
g2
S'7222'
p712
sg4
S'4068'
p713
sg6
S'03f52a4f7e66c7ccc384ce91e7bd50e9'
p714
sg8
S'xxb4243ba4632323afc886df4a0f0666c1'
p715
sg10
S'xx4006016f077807be1693755fe7f3cb22'
p716
sg12
S'xxf4fa785cf562bbd7aa98eae21fc33c42'
p717
sg14
S'Mozilla/5.0 (Linux; Android 5.1.1; SM-G6000 Build/LMY47X) AppleWebKit/537.36 (KHTML, like Gecko) Version/4.0 Chrome/37.0.0.0 Mobile MQQBrowser/6.8 TBS/036849 Safari/537.36 MicroMessenger/6.3.27.880 NetType/WIFI Language/zh_CN'
p718
sg16
S'11785eab7c049e715b7a390ccde76d04'
p719
sa(dp720
g2
S'7222'
p721
sg4
S'4097'
p722
sg6
S'03f52a4f7e66c7ccc384ce91e7bd50e9'
p723
sg8
S'xxb4243ba4632323afc886df4a0f0666c1'
p724
sg10
S'xx4006016f077807be1693755fe7f3cb22'
p725
sg12
S'xxf4fa785cf562bbd7aa98eae21fc33c42'
p726
sg14
S'Mozilla/5.0 (Linux; Android 5.1.1; SM-G6000 Build/LMY47X) AppleWebKit/537.36 (KHTML, like Gecko) Version/4.0 Chrome/37.0.0.0 Mobile MQQBrowser/6.8 TBS/036849 Safari/537.36 MicroMessenger/6.3.27.880 NetType/WIFI Language/zh_CN'
p727
sg16
S'11785eab7c049e715b7a390ccde76d04'
p728
sa(dp729
g2
S'7222'
p730
sg4
S'4121'
p731
sg6
S'03f52a4f7e66c7ccc384ce91e7bd50e9'
p732
sg8
S'xxb4243ba4632323afc886df4a0f0666c1'
p733
sg10
S'xx4006016f077807be1693755fe7f3cb22'
p734
sg12
S'xxf4fa785cf562bbd7aa98eae21fc33c42'
p735
sg14
S'Mozilla/5.0 (Linux; Android 5.1.1; SM-G6000 Build/LMY47X) AppleWebKit/537.36 (KHTML, like Gecko) Version/4.0 Chrome/37.0.0.0 Mobile MQQBrowser/6.8 TBS/036849 Safari/537.36 MicroMessenger/6.3.27.880 NetType/WIFI Language/zh_CN'
p736
sg16
S'11785eab7c049e715b7a390ccde76d04'
p737
sa(dp738
g2
S'7222'
p739
sg4
S'4199'
p740
sg6
S'03f52a4f7e66c7ccc384ce91e7bd50e9'
p741
sg8
S'xxb4243ba4632323afc886df4a0f0666c1'
p742
sg10
S'xx4006016f077807be1693755fe7f3cb22'
p743
sg12
S'xxf4fa785cf562bbd7aa98eae21fc33c42'
p744
sg14
S'Mozilla/5.0 (Linux; Android 5.1.1; SM-G6000 Build/LMY47X) AppleWebKit/537.36 (KHTML, like Gecko) Version/4.0 Chrome/37.0.0.0 Mobile MQQBrowser/6.8 TBS/036849 Safari/537.36 MicroMessenger/6.3.27.880 NetType/WIFI Language/zh_CN'
p745
sg16
S'11785eab7c049e715b7a390ccde76d04'
p746
sa(dp747
g2
S'7222'
p748
sg4
S'4517'
p749
sg6
S'03f52a4f7e66c7ccc384ce91e7bd50e9'
p750
sg8
S'xxb4243ba4632323afc886df4a0f0666c1'
p751
sg10
S'xx4006016f077807be1693755fe7f3cb22'
p752
sg12
S'xxf4fa785cf562bbd7aa98eae21fc33c42'
p753
sg14
S'Mozilla/5.0 (Linux; Android 5.1.1; SM-G6000 Build/LMY47X) AppleWebKit/537.36 (KHTML, like Gecko) Version/4.0 Chrome/37.0.0.0 Mobile MQQBrowser/6.8 TBS/036849 Safari/537.36 MicroMessenger/6.3.27.880 NetType/WIFI Language/zh_CN'
p754
sg16
S'11785eab7c049e715b7a390ccde76d04'
p755
sa(dp756
g2
S'7222'
p757
sg4
S'4545'
p758
sg6
S'03f52a4f7e66c7ccc384ce91e7bd50e9'
p759
sg8
S'xxb4243ba4632323afc886df4a0f0666c1'
p760
sg10
S'xx4006016f077807be1693755fe7f3cb22'
p761
sg12
S'xxf4fa785cf562bbd7aa98eae21fc33c42'
p762
sg14
S'Mozilla/5.0 (Linux; Android 5.1.1; SM-G6000 Build/LMY47X) AppleWebKit/537.36 (KHTML, like Gecko) Version/4.0 Chrome/37.0.0.0 Mobile MQQBrowser/6.8 TBS/036849 Safari/537.36 MicroMessenger/6.3.27.880 NetType/WIFI Language/zh_CN'
p763
sg16
S'11785eab7c049e715b7a390ccde76d04'
p764
sa(dp765
g2
S'45089'
p766
sg4
S'4631'
p767
sg6
S'03f52a4f7e66c7ccc384ce91e7bd50e9'
p768
sg8
S'xxb4243ba4632323afc886df4a0f0666c1'
p769
sg10
S'xx4006016f077807be1693755fe7f3cb22'
p770
sg12
S'xxf4fa785cf562bbd7aa98eae21fc33c42'
p771
sg14
S'Mozilla/5.0 (Linux; Android 5.1.1; SM-G6000 Build/LMY47X) AppleWebKit/537.36 (KHTML, like Gecko) Version/4.0 Chrome/37.0.0.0 Mobile MQQBrowser/6.8 TBS/036849 Safari/537.36 MicroMessenger/6.3.27.880 NetType/WIFI Language/zh_CN'
p772
sg16
S'11785eab7c049e715b7a390ccde76d04'
p773
sa(dp774
g2
S'45089'
p775
sg4
S'4647'
p776
sg6
S'03f52a4f7e66c7ccc384ce91e7bd50e9'
p777
sg8
S'xxb4243ba4632323afc886df4a0f0666c1'
p778
sg10
S'xx4006016f077807be1693755fe7f3cb22'
p779
sg12
S'xxf4fa785cf562bbd7aa98eae21fc33c42'
p780
sg14
S'Mozilla/5.0 (Linux; Android 5.1.1; SM-G6000 Build/LMY47X) AppleWebKit/537.36 (KHTML, like Gecko) Version/4.0 Chrome/37.0.0.0 Mobile MQQBrowser/6.8 TBS/036849 Safari/537.36 MicroMessenger/6.3.27.880 NetType/WIFI Language/zh_CN'
p781
sg16
S'11785eab7c049e715b7a390ccde76d04'
p782
sa(dp783
g2
S'45089'
p784
sg4
S'4664'
p785
sg6
S'03f52a4f7e66c7ccc384ce91e7bd50e9'
p786
sg8
S'xxb4243ba4632323afc886df4a0f0666c1'
p787
sg10
S'xx4006016f077807be1693755fe7f3cb22'
p788
sg12
S'xxf4fa785cf562bbd7aa98eae21fc33c42'
p789
sg14
S'Mozilla/5.0 (Linux; Android 5.1.1; SM-G6000 Build/LMY47X) AppleWebKit/537.36 (KHTML, like Gecko) Version/4.0 Chrome/37.0.0.0 Mobile MQQBrowser/6.8 TBS/036849 Safari/537.36 MicroMessenger/6.3.27.880 NetType/WIFI Language/zh_CN'
p790
sg16
S'11785eab7c049e715b7a390ccde76d04'
p791
sa(dp792
g2
S'7222'
p793
sg4
S'4751'
p794
sg6
S'03f52a4f7e66c7ccc384ce91e7bd50e9'
p795
sg8
S'xxb4243ba4632323afc886df4a0f0666c1'
p796
sg10
S'xx4006016f077807be1693755fe7f3cb22'
p797
sg12
S'xxf4fa785cf562bbd7aa98eae21fc33c42'
p798
sg14
S'Mozilla/5.0 (Linux; Android 5.1.1; SM-G6000 Build/LMY47X) AppleWebKit/537.36 (KHTML, like Gecko) Version/4.0 Chrome/37.0.0.0 Mobile MQQBrowser/6.8 TBS/036849 Safari/537.36 MicroMessenger/6.3.27.880 NetType/WIFI Language/zh_CN'
p799
sg16
S'11785eab7c049e715b7a390ccde76d04'
p800
sa(dp801
g2
S'7222'
p802
sg4
S'4769'
p803
sg6
S'03f52a4f7e66c7ccc384ce91e7bd50e9'
p804
sg8
S'xxb4243ba4632323afc886df4a0f0666c1'
p805
sg10
S'xx4006016f077807be1693755fe7f3cb22'
p806
sg12
S'xxf4fa785cf562bbd7aa98eae21fc33c42'
p807
sg14
S'Mozilla/5.0 (Linux; Android 5.1.1; SM-G6000 Build/LMY47X) AppleWebKit/537.36 (KHTML, like Gecko) Version/4.0 Chrome/37.0.0.0 Mobile MQQBrowser/6.8 TBS/036849 Safari/537.36 MicroMessenger/6.3.27.880 NetType/WIFI Language/zh_CN'
p808
sg16
S'11785eab7c049e715b7a390ccde76d04'
p809
sa(dp810
g2
S'7222'
p811
sg4
S'4784'
p812
sg6
S'03f52a4f7e66c7ccc384ce91e7bd50e9'
p813
sg8
S'xxb4243ba4632323afc886df4a0f0666c1'
p814
sg10
S'xx4006016f077807be1693755fe7f3cb22'
p815
sg12
S'xxf4fa785cf562bbd7aa98eae21fc33c42'
p816
sg14
S'Mozilla/5.0 (Linux; Android 5.1.1; SM-G6000 Build/LMY47X) AppleWebKit/537.36 (KHTML, like Gecko) Version/4.0 Chrome/37.0.0.0 Mobile MQQBrowser/6.8 TBS/036849 Safari/537.36 MicroMessenger/6.3.27.880 NetType/WIFI Language/zh_CN'
p817
sg16
S'11785eab7c049e715b7a390ccde76d04'
p818
sa(dp819
g2
S'7222'
p820
sg4
S'4797'
p821
sg6
S'03f52a4f7e66c7ccc384ce91e7bd50e9'
p822
sg8
S'xxb4243ba4632323afc886df4a0f0666c1'
p823
sg10
S'xx4006016f077807be1693755fe7f3cb22'
p824
sg12
S'xxf4fa785cf562bbd7aa98eae21fc33c42'
p825
sg14
S'Mozilla/5.0 (Linux; Android 5.1.1; SM-G6000 Build/LMY47X) AppleWebKit/537.36 (KHTML, like Gecko) Version/4.0 Chrome/37.0.0.0 Mobile MQQBrowser/6.8 TBS/036849 Safari/537.36 MicroMessenger/6.3.27.880 NetType/WIFI Language/zh_CN'
p826
sg16
S'11785eab7c049e715b7a390ccde76d04'
p827
sa(dp828
g2
S'7222'
p829
sg4
S'4813'
p830
sg6
S'03f52a4f7e66c7ccc384ce91e7bd50e9'
p831
sg8
S'xxb4243ba4632323afc886df4a0f0666c1'
p832
sg10
S'xx4006016f077807be1693755fe7f3cb22'
p833
sg12
S'xxf4fa785cf562bbd7aa98eae21fc33c42'
p834
sg14
S'Mozilla/5.0 (Linux; Android 5.1.1; SM-G6000 Build/LMY47X) AppleWebKit/537.36 (KHTML, like Gecko) Version/4.0 Chrome/37.0.0.0 Mobile MQQBrowser/6.8 TBS/036849 Safari/537.36 MicroMessenger/6.3.27.880 NetType/WIFI Language/zh_CN'
p835
sg16
S'11785eab7c049e715b7a390ccde76d04'
p836
sa(dp837
g2
S'7222'
p838
sg4
S'4829'
p839
sg6
S'03f52a4f7e66c7ccc384ce91e7bd50e9'
p840
sg8
S'xxb4243ba4632323afc886df4a0f0666c1'
p841
sg10
S'xx4006016f077807be1693755fe7f3cb22'
p842
sg12
S'xxf4fa785cf562bbd7aa98eae21fc33c42'
p843
sg14
S'Mozilla/5.0 (Linux; Android 5.1.1; SM-G6000 Build/LMY47X) AppleWebKit/537.36 (KHTML, like Gecko) Version/4.0 Chrome/37.0.0.0 Mobile MQQBrowser/6.8 TBS/036849 Safari/537.36 MicroMessenger/6.3.27.880 NetType/WIFI Language/zh_CN'
p844
sg16
S'11785eab7c049e715b7a390ccde76d04'
p845
sa(dp846
g2
S'7222'
p847
sg4
S'4850'
p848
sg6
S'03f52a4f7e66c7ccc384ce91e7bd50e9'
p849
sg8
S'xxb4243ba4632323afc886df4a0f0666c1'
p850
sg10
S'xx4006016f077807be1693755fe7f3cb22'
p851
sg12
S'xxf4fa785cf562bbd7aa98eae21fc33c42'
p852
sg14
S'Mozilla/5.0 (Linux; Android 5.1.1; SM-G6000 Build/LMY47X) AppleWebKit/537.36 (KHTML, like Gecko) Version/4.0 Chrome/37.0.0.0 Mobile MQQBrowser/6.8 TBS/036849 Safari/537.36 MicroMessenger/6.3.27.880 NetType/WIFI Language/zh_CN'
p853
sg16
S'11785eab7c049e715b7a390ccde76d04'
p854
sa(dp855
g2
S'7222'
p856
sg4
S'4868'
p857
sg6
S'03f52a4f7e66c7ccc384ce91e7bd50e9'
p858
sg8
S'xxb4243ba4632323afc886df4a0f0666c1'
p859
sg10
S'xx4006016f077807be1693755fe7f3cb22'
p860
sg12
S'xxf4fa785cf562bbd7aa98eae21fc33c42'
p861
sg14
S'Mozilla/5.0 (Linux; Android 5.1.1; SM-G6000 Build/LMY47X) AppleWebKit/537.36 (KHTML, like Gecko) Version/4.0 Chrome/37.0.0.0 Mobile MQQBrowser/6.8 TBS/036849 Safari/537.36 MicroMessenger/6.3.27.880 NetType/WIFI Language/zh_CN'
p862
sg16
S'11785eab7c049e715b7a390ccde76d04'
p863
sa(dp864
g2
S'7222'
p865
sg4
S'4891'
p866
sg6
S'03f52a4f7e66c7ccc384ce91e7bd50e9'
p867
sg8
S'xxb4243ba4632323afc886df4a0f0666c1'
p868
sg10
S'xx4006016f077807be1693755fe7f3cb22'
p869
sg12
S'xxf4fa785cf562bbd7aa98eae21fc33c42'
p870
sg14
S'Mozilla/5.0 (Linux; Android 5.1.1; SM-G6000 Build/LMY47X) AppleWebKit/537.36 (KHTML, like Gecko) Version/4.0 Chrome/37.0.0.0 Mobile MQQBrowser/6.8 TBS/036849 Safari/537.36 MicroMessenger/6.3.27.880 NetType/WIFI Language/zh_CN'
p871
sg16
S'11785eab7c049e715b7a390ccde76d04'
p872
sa(dp873
g2
S'7222'
p874
sg4
S'4909'
p875
sg6
S'03f52a4f7e66c7ccc384ce91e7bd50e9'
p876
sg8
S'xxb4243ba4632323afc886df4a0f0666c1'
p877
sg10
S'xx4006016f077807be1693755fe7f3cb22'
p878
sg12
S'xxf4fa785cf562bbd7aa98eae21fc33c42'
p879
sg14
S'Mozilla/5.0 (Linux; Android 5.1.1; SM-G6000 Build/LMY47X) AppleWebKit/537.36 (KHTML, like Gecko) Version/4.0 Chrome/37.0.0.0 Mobile MQQBrowser/6.8 TBS/036849 Safari/537.36 MicroMessenger/6.3.27.880 NetType/WIFI Language/zh_CN'
p880
sg16
S'11785eab7c049e715b7a390ccde76d04'
p881
sa(dp882
g2
S'7222'
p883
sg4
S'4922'
p884
sg6
S'03f52a4f7e66c7ccc384ce91e7bd50e9'
p885
sg8
S'xxb4243ba4632323afc886df4a0f0666c1'
p886
sg10
S'xx4006016f077807be1693755fe7f3cb22'
p887
sg12
S'xxf4fa785cf562bbd7aa98eae21fc33c42'
p888
sg14
S'Mozilla/5.0 (Linux; Android 5.1.1; SM-G6000 Build/LMY47X) AppleWebKit/537.36 (KHTML, like Gecko) Version/4.0 Chrome/37.0.0.0 Mobile MQQBrowser/6.8 TBS/036849 Safari/537.36 MicroMessenger/6.3.27.880 NetType/WIFI Language/zh_CN'
p889
sg16
S'11785eab7c049e715b7a390ccde76d04'
p890
sa(dp891
g2
S'7222'
p892
sg4
S'4935'
p893
sg6
S'03f52a4f7e66c7ccc384ce91e7bd50e9'
p894
sg8
S'xxb4243ba4632323afc886df4a0f0666c1'
p895
sg10
S'xx4006016f077807be1693755fe7f3cb22'
p896
sg12
S'xxf4fa785cf562bbd7aa98eae21fc33c42'
p897
sg14
S'Mozilla/5.0 (Linux; Android 5.1.1; SM-G6000 Build/LMY47X) AppleWebKit/537.36 (KHTML, like Gecko) Version/4.0 Chrome/37.0.0.0 Mobile MQQBrowser/6.8 TBS/036849 Safari/537.36 MicroMessenger/6.3.27.880 NetType/WIFI Language/zh_CN'
p898
sg16
S'11785eab7c049e715b7a390ccde76d04'
p899
sa(dp900
g2
S'7222'
p901
sg4
S'4953'
p902
sg6
S'03f52a4f7e66c7ccc384ce91e7bd50e9'
p903
sg8
S'xxb4243ba4632323afc886df4a0f0666c1'
p904
sg10
S'xx4006016f077807be1693755fe7f3cb22'
p905
sg12
S'xxf4fa785cf562bbd7aa98eae21fc33c42'
p906
sg14
S'Mozilla/5.0 (Linux; Android 5.1.1; SM-G6000 Build/LMY47X) AppleWebKit/537.36 (KHTML, like Gecko) Version/4.0 Chrome/37.0.0.0 Mobile MQQBrowser/6.8 TBS/036849 Safari/537.36 MicroMessenger/6.3.27.880 NetType/WIFI Language/zh_CN'
p907
sg16
S'11785eab7c049e715b7a390ccde76d04'
p908
sa(dp909
g2
S'7222'
p910
sg4
S'4969'
p911
sg6
S'03f52a4f7e66c7ccc384ce91e7bd50e9'
p912
sg8
S'xxb4243ba4632323afc886df4a0f0666c1'
p913
sg10
S'xx4006016f077807be1693755fe7f3cb22'
p914
sg12
S'xxf4fa785cf562bbd7aa98eae21fc33c42'
p915
sg14
S'Mozilla/5.0 (Linux; Android 5.1.1; SM-G6000 Build/LMY47X) AppleWebKit/537.36 (KHTML, like Gecko) Version/4.0 Chrome/37.0.0.0 Mobile MQQBrowser/6.8 TBS/036849 Safari/537.36 MicroMessenger/6.3.27.880 NetType/WIFI Language/zh_CN'
p916
sg16
S'11785eab7c049e715b7a390ccde76d04'
p917
sa(dp918
g2
S'7222'
p919
sg4
S'4988'
p920
sg6
S'03f52a4f7e66c7ccc384ce91e7bd50e9'
p921
sg8
S'xxb4243ba4632323afc886df4a0f0666c1'
p922
sg10
S'xx4006016f077807be1693755fe7f3cb22'
p923
sg12
S'xxf4fa785cf562bbd7aa98eae21fc33c42'
p924
sg14
S'Mozilla/5.0 (Linux; Android 5.1.1; SM-G6000 Build/LMY47X) AppleWebKit/537.36 (KHTML, like Gecko) Version/4.0 Chrome/37.0.0.0 Mobile MQQBrowser/6.8 TBS/036849 Safari/537.36 MicroMessenger/6.3.27.880 NetType/WIFI Language/zh_CN'
p925
sg16
S'11785eab7c049e715b7a390ccde76d04'
p926
sa(dp927
g2
S'7222'
p928
sg4
S'5001'
p929
sg6
S'03f52a4f7e66c7ccc384ce91e7bd50e9'
p930
sg8
S'xxb4243ba4632323afc886df4a0f0666c1'
p931
sg10
S'xx4006016f077807be1693755fe7f3cb22'
p932
sg12
S'xxf4fa785cf562bbd7aa98eae21fc33c42'
p933
sg14
S'Mozilla/5.0 (Linux; Android 5.1.1; SM-G6000 Build/LMY47X) AppleWebKit/537.36 (KHTML, like Gecko) Version/4.0 Chrome/37.0.0.0 Mobile MQQBrowser/6.8 TBS/036849 Safari/537.36 MicroMessenger/6.3.27.880 NetType/WIFI Language/zh_CN'
p934
sg16
S'11785eab7c049e715b7a390ccde76d04'
p935
sa(dp936
g2
S'7222'
p937
sg4
S'5017'
p938
sg6
S'03f52a4f7e66c7ccc384ce91e7bd50e9'
p939
sg8
S'xxb4243ba4632323afc886df4a0f0666c1'
p940
sg10
S'xx4006016f077807be1693755fe7f3cb22'
p941
sg12
S'xxf4fa785cf562bbd7aa98eae21fc33c42'
p942
sg14
S'Mozilla/5.0 (Linux; Android 5.1.1; SM-G6000 Build/LMY47X) AppleWebKit/537.36 (KHTML, like Gecko) Version/4.0 Chrome/37.0.0.0 Mobile MQQBrowser/6.8 TBS/036849 Safari/537.36 MicroMessenger/6.3.27.880 NetType/WIFI Language/zh_CN'
p943
sg16
S'11785eab7c049e715b7a390ccde76d04'
p944
sa(dp945
g2
S'7222'
p946
sg4
S'5040'
p947
sg6
S'03f52a4f7e66c7ccc384ce91e7bd50e9'
p948
sg8
S'xxb4243ba4632323afc886df4a0f0666c1'
p949
sg10
S'xx4006016f077807be1693755fe7f3cb22'
p950
sg12
S'xxf4fa785cf562bbd7aa98eae21fc33c42'
p951
sg14
S'Mozilla/5.0 (Linux; Android 5.1.1; SM-G6000 Build/LMY47X) AppleWebKit/537.36 (KHTML, like Gecko) Version/4.0 Chrome/37.0.0.0 Mobile MQQBrowser/6.8 TBS/036849 Safari/537.36 MicroMessenger/6.3.27.880 NetType/WIFI Language/zh_CN'
p952
sg16
S'11785eab7c049e715b7a390ccde76d04'
p953
sa(dp954
g2
S'7222'
p955
sg4
S'5057'
p956
sg6
S'03f52a4f7e66c7ccc384ce91e7bd50e9'
p957
sg8
S'xxb4243ba4632323afc886df4a0f0666c1'
p958
sg10
S'xx4006016f077807be1693755fe7f3cb22'
p959
sg12
S'xxf4fa785cf562bbd7aa98eae21fc33c42'
p960
sg14
S'Mozilla/5.0 (Linux; Android 5.1.1; SM-G6000 Build/LMY47X) AppleWebKit/537.36 (KHTML, like Gecko) Version/4.0 Chrome/37.0.0.0 Mobile MQQBrowser/6.8 TBS/036849 Safari/537.36 MicroMessenger/6.3.27.880 NetType/WIFI Language/zh_CN'
p961
sg16
S'11785eab7c049e715b7a390ccde76d04'
p962
sa(dp963
g2
S'7222'
p964
sg4
S'5075'
p965
sg6
S'03f52a4f7e66c7ccc384ce91e7bd50e9'
p966
sg8
S'xxb4243ba4632323afc886df4a0f0666c1'
p967
sg10
S'xx4006016f077807be1693755fe7f3cb22'
p968
sg12
S'xxf4fa785cf562bbd7aa98eae21fc33c42'
p969
sg14
S'Mozilla/5.0 (Linux; Android 5.1.1; SM-G6000 Build/LMY47X) AppleWebKit/537.36 (KHTML, like Gecko) Version/4.0 Chrome/37.0.0.0 Mobile MQQBrowser/6.8 TBS/036849 Safari/537.36 MicroMessenger/6.3.27.880 NetType/WIFI Language/zh_CN'
p970
sg16
S'11785eab7c049e715b7a390ccde76d04'
p971
sa(dp972
g2
S'7222'
p973
sg4
S'5094'
p974
sg6
S'03f52a4f7e66c7ccc384ce91e7bd50e9'
p975
sg8
S'xxb4243ba4632323afc886df4a0f0666c1'
p976
sg10
S'xx4006016f077807be1693755fe7f3cb22'
p977
sg12
S'xxf4fa785cf562bbd7aa98eae21fc33c42'
p978
sg14
S'Mozilla/5.0 (Linux; Android 5.1.1; SM-G6000 Build/LMY47X) AppleWebKit/537.36 (KHTML, like Gecko) Version/4.0 Chrome/37.0.0.0 Mobile MQQBrowser/6.8 TBS/036849 Safari/537.36 MicroMessenger/6.3.27.880 NetType/WIFI Language/zh_CN'
p979
sg16
S'11785eab7c049e715b7a390ccde76d04'
p980
sa(dp981
g2
S'7222'
p982
sg4
S'5111'
p983
sg6
S'03f52a4f7e66c7ccc384ce91e7bd50e9'
p984
sg8
S'xxb4243ba4632323afc886df4a0f0666c1'
p985
sg10
S'xx4006016f077807be1693755fe7f3cb22'
p986
sg12
S'xxf4fa785cf562bbd7aa98eae21fc33c42'
p987
sg14
S'Mozilla/5.0 (Linux; Android 5.1.1; SM-G6000 Build/LMY47X) AppleWebKit/537.36 (KHTML, like Gecko) Version/4.0 Chrome/37.0.0.0 Mobile MQQBrowser/6.8 TBS/036849 Safari/537.36 MicroMessenger/6.3.27.880 NetType/WIFI Language/zh_CN'
p988
sg16
S'11785eab7c049e715b7a390ccde76d04'
p989
sa(dp990
g2
S'7222'
p991
sg4
S'5126'
p992
sg6
S'03f52a4f7e66c7ccc384ce91e7bd50e9'
p993
sg8
S'xxb4243ba4632323afc886df4a0f0666c1'
p994
sg10
S'xx4006016f077807be1693755fe7f3cb22'
p995
sg12
S'xxf4fa785cf562bbd7aa98eae21fc33c42'
p996
sg14
S'Mozilla/5.0 (Linux; Android 5.1.1; SM-G6000 Build/LMY47X) AppleWebKit/537.36 (KHTML, like Gecko) Version/4.0 Chrome/37.0.0.0 Mobile MQQBrowser/6.8 TBS/036849 Safari/537.36 MicroMessenger/6.3.27.880 NetType/WIFI Language/zh_CN'
p997
sg16
S'11785eab7c049e715b7a390ccde76d04'
p998
sa(dp999
g2
S'7222'
p1000
sg4
S'5141'
p1001
sg6
S'03f52a4f7e66c7ccc384ce91e7bd50e9'
p1002
sg8
S'xxb4243ba4632323afc886df4a0f0666c1'
p1003
sg10
S'xx4006016f077807be1693755fe7f3cb22'
p1004
sg12
S'xxf4fa785cf562bbd7aa98eae21fc33c42'
p1005
sg14
S'Mozilla/5.0 (Linux; Android 5.1.1; SM-G6000 Build/LMY47X) AppleWebKit/537.36 (KHTML, like Gecko) Version/4.0 Chrome/37.0.0.0 Mobile MQQBrowser/6.8 TBS/036849 Safari/537.36 MicroMessenger/6.3.27.880 NetType/WIFI Language/zh_CN'
p1006
sg16
S'11785eab7c049e715b7a390ccde76d04'
p1007
sa(dp1008
g2
S'7222'
p1009
sg4
S'5161'
p1010
sg6
S'03f52a4f7e66c7ccc384ce91e7bd50e9'
p1011
sg8
S'xxb4243ba4632323afc886df4a0f0666c1'
p1012
sg10
S'xx4006016f077807be1693755fe7f3cb22'
p1013
sg12
S'xxf4fa785cf562bbd7aa98eae21fc33c42'
p1014
sg14
S'Mozilla/5.0 (Linux; Android 5.1.1; SM-G6000 Build/LMY47X) AppleWebKit/537.36 (KHTML, like Gecko) Version/4.0 Chrome/37.0.0.0 Mobile MQQBrowser/6.8 TBS/036849 Safari/537.36 MicroMessenger/6.3.27.880 NetType/WIFI Language/zh_CN'
p1015
sg16
S'11785eab7c049e715b7a390ccde76d04'
p1016
sa(dp1017
g2
S'7222'
p1018
sg4
S'5182'
p1019
sg6
S'03f52a4f7e66c7ccc384ce91e7bd50e9'
p1020
sg8
S'xxb4243ba4632323afc886df4a0f0666c1'
p1021
sg10
S'xx4006016f077807be1693755fe7f3cb22'
p1022
sg12
S'xxf4fa785cf562bbd7aa98eae21fc33c42'
p1023
sg14
S'Mozilla/5.0 (Linux; Android 5.1.1; SM-G6000 Build/LMY47X) AppleWebKit/537.36 (KHTML, like Gecko) Version/4.0 Chrome/37.0.0.0 Mobile MQQBrowser/6.8 TBS/036849 Safari/537.36 MicroMessenger/6.3.27.880 NetType/WIFI Language/zh_CN'
p1024
sg16
S'11785eab7c049e715b7a390ccde76d04'
p1025
sa(dp1026
g2
S'7222'
p1027
sg4
S'5203'
p1028
sg6
S'03f52a4f7e66c7ccc384ce91e7bd50e9'
p1029
sg8
S'xxb4243ba4632323afc886df4a0f0666c1'
p1030
sg10
S'xx4006016f077807be1693755fe7f3cb22'
p1031
sg12
S'xxf4fa785cf562bbd7aa98eae21fc33c42'
p1032
sg14
S'Mozilla/5.0 (Linux; Android 5.1.1; SM-G6000 Build/LMY47X) AppleWebKit/537.36 (KHTML, like Gecko) Version/4.0 Chrome/37.0.0.0 Mobile MQQBrowser/6.8 TBS/036849 Safari/537.36 MicroMessenger/6.3.27.880 NetType/WIFI Language/zh_CN'
p1033
sg16
S'11785eab7c049e715b7a390ccde76d04'
p1034
sa(dp1035
g2
S'7222'
p1036
sg4
S'5217'
p1037
sg6
S'03f52a4f7e66c7ccc384ce91e7bd50e9'
p1038
sg8
S'xxb4243ba4632323afc886df4a0f0666c1'
p1039
sg10
S'xx4006016f077807be1693755fe7f3cb22'
p1040
sg12
S'xxf4fa785cf562bbd7aa98eae21fc33c42'
p1041
sg14
S'Mozilla/5.0 (Linux; Android 5.1.1; SM-G6000 Build/LMY47X) AppleWebKit/537.36 (KHTML, like Gecko) Version/4.0 Chrome/37.0.0.0 Mobile MQQBrowser/6.8 TBS/036849 Safari/537.36 MicroMessenger/6.3.27.880 NetType/WIFI Language/zh_CN'
p1042
sg16
S'11785eab7c049e715b7a390ccde76d04'
p1043
sa(dp1044
g2
S'7222'
p1045
sg4
S'5227'
p1046
sg6
S'03f52a4f7e66c7ccc384ce91e7bd50e9'
p1047
sg8
S'xxb4243ba4632323afc886df4a0f0666c1'
p1048
sg10
S'xx4006016f077807be1693755fe7f3cb22'
p1049
sg12
S'xxf4fa785cf562bbd7aa98eae21fc33c42'
p1050
sg14
S'Mozilla/5.0 (Linux; Android 5.1.1; SM-G6000 Build/LMY47X) AppleWebKit/537.36 (KHTML, like Gecko) Version/4.0 Chrome/37.0.0.0 Mobile MQQBrowser/6.8 TBS/036849 Safari/537.36 MicroMessenger/6.3.27.880 NetType/WIFI Language/zh_CN'
p1051
sg16
S'11785eab7c049e715b7a390ccde76d04'
p1052
sa(dp1053
g2
S'45089'
p1054
sg4
S'5341'
p1055
sg6
S'03f52a4f7e66c7ccc384ce91e7bd50e9'
p1056
sg8
S'xxb4243ba4632323afc886df4a0f0666c1'
p1057
sg10
S'xx4006016f077807be1693755fe7f3cb22'
p1058
sg12
S'xxf4fa785cf562bbd7aa98eae21fc33c42'
p1059
sg14
S'Mozilla/5.0 (Linux; Android 5.1.1; SM-G6000 Build/LMY47X) AppleWebKit/537.36 (KHTML, like Gecko) Version/4.0 Chrome/37.0.0.0 Mobile MQQBrowser/6.8 TBS/036849 Safari/537.36 MicroMessenger/6.3.27.880 NetType/WIFI Language/zh_CN'
p1060
sg16
S'11785eab7c049e715b7a390ccde76d04'
p1061
sa(dp1062
g2
S'45089'
p1063
sg4
S'5356'
p1064
sg6
S'03f52a4f7e66c7ccc384ce91e7bd50e9'
p1065
sg8
S'xxb4243ba4632323afc886df4a0f0666c1'
p1066
sg10
S'xx4006016f077807be1693755fe7f3cb22'
p1067
sg12
S'xxf4fa785cf562bbd7aa98eae21fc33c42'
p1068
sg14
S'Mozilla/5.0 (Linux; Android 5.1.1; SM-G6000 Build/LMY47X) AppleWebKit/537.36 (KHTML, like Gecko) Version/4.0 Chrome/37.0.0.0 Mobile MQQBrowser/6.8 TBS/036849 Safari/537.36 MicroMessenger/6.3.27.880 NetType/WIFI Language/zh_CN'
p1069
sg16
S'11785eab7c049e715b7a390ccde76d04'
p1070
sa(dp1071
g2
S'7222'
p1072
sg4
S'5425'
p1073
sg6
S'03f52a4f7e66c7ccc384ce91e7bd50e9'
p1074
sg8
S'xxb4243ba4632323afc886df4a0f0666c1'
p1075
sg10
S'xx4006016f077807be1693755fe7f3cb22'
p1076
sg12
S'xxf4fa785cf562bbd7aa98eae21fc33c42'
p1077
sg14
S'Mozilla/5.0 (Linux; Android 5.1.1; SM-G6000 Build/LMY47X) AppleWebKit/537.36 (KHTML, like Gecko) Version/4.0 Chrome/37.0.0.0 Mobile MQQBrowser/6.8 TBS/036849 Safari/537.36 MicroMessenger/6.3.27.880 NetType/WIFI Language/zh_CN'
p1078
sg16
S'11785eab7c049e715b7a390ccde76d04'
p1079
sa(dp1080
g2
S'7222'
p1081
sg4
S'5436'
p1082
sg6
S'03f52a4f7e66c7ccc384ce91e7bd50e9'
p1083
sg8
S'xxb4243ba4632323afc886df4a0f0666c1'
p1084
sg10
S'xx4006016f077807be1693755fe7f3cb22'
p1085
sg12
S'xxf4fa785cf562bbd7aa98eae21fc33c42'
p1086
sg14
S'Mozilla/5.0 (Linux; Android 5.1.1; SM-G6000 Build/LMY47X) AppleWebKit/537.36 (KHTML, like Gecko) Version/4.0 Chrome/37.0.0.0 Mobile MQQBrowser/6.8 TBS/036849 Safari/537.36 MicroMessenger/6.3.27.880 NetType/WIFI Language/zh_CN'
p1087
sg16
S'11785eab7c049e715b7a390ccde76d04'
p1088
sa(dp1089
g2
S'7222'
p1090
sg4
S'5446'
p1091
sg6
S'03f52a4f7e66c7ccc384ce91e7bd50e9'
p1092
sg8
S'xxb4243ba4632323afc886df4a0f0666c1'
p1093
sg10
S'xx4006016f077807be1693755fe7f3cb22'
p1094
sg12
S'xxf4fa785cf562bbd7aa98eae21fc33c42'
p1095
sg14
S'Mozilla/5.0 (Linux; Android 5.1.1; SM-G6000 Build/LMY47X) AppleWebKit/537.36 (KHTML, like Gecko) Version/4.0 Chrome/37.0.0.0 Mobile MQQBrowser/6.8 TBS/036849 Safari/537.36 MicroMessenger/6.3.27.880 NetType/WIFI Language/zh_CN'
p1096
sg16
S'11785eab7c049e715b7a390ccde76d04'
p1097
sa(dp1098
g2
S'7222'
p1099
sg4
S'5456'
p1100
sg6
S'03f52a4f7e66c7ccc384ce91e7bd50e9'
p1101
sg8
S'xxb4243ba4632323afc886df4a0f0666c1'
p1102
sg10
S'xx4006016f077807be1693755fe7f3cb22'
p1103
sg12
S'xxf4fa785cf562bbd7aa98eae21fc33c42'
p1104
sg14
S'Mozilla/5.0 (Linux; Android 5.1.1; SM-G6000 Build/LMY47X) AppleWebKit/537.36 (KHTML, like Gecko) Version/4.0 Chrome/37.0.0.0 Mobile MQQBrowser/6.8 TBS/036849 Safari/537.36 MicroMessenger/6.3.27.880 NetType/WIFI Language/zh_CN'
p1105
sg16
S'11785eab7c049e715b7a390ccde76d04'
p1106
sa(dp1107
g2
S'7222'
p1108
sg4
S'5470'
p1109
sg6
S'03f52a4f7e66c7ccc384ce91e7bd50e9'
p1110
sg8
S'xxb4243ba4632323afc886df4a0f0666c1'
p1111
sg10
S'xx4006016f077807be1693755fe7f3cb22'
p1112
sg12
S'xxf4fa785cf562bbd7aa98eae21fc33c42'
p1113
sg14
S'Mozilla/5.0 (Linux; Android 5.1.1; SM-G6000 Build/LMY47X) AppleWebKit/537.36 (KHTML, like Gecko) Version/4.0 Chrome/37.0.0.0 Mobile MQQBrowser/6.8 TBS/036849 Safari/537.36 MicroMessenger/6.3.27.880 NetType/WIFI Language/zh_CN'
p1114
sg16
S'11785eab7c049e715b7a390ccde76d04'
p1115
sa(dp1116
g2
S'7222'
p1117
sg4
S'5490'
p1118
sg6
S'03f52a4f7e66c7ccc384ce91e7bd50e9'
p1119
sg8
S'xxb4243ba4632323afc886df4a0f0666c1'
p1120
sg10
S'xx4006016f077807be1693755fe7f3cb22'
p1121
sg12
S'xxf4fa785cf562bbd7aa98eae21fc33c42'
p1122
sg14
S'Mozilla/5.0 (Linux; Android 5.1.1; SM-G6000 Build/LMY47X) AppleWebKit/537.36 (KHTML, like Gecko) Version/4.0 Chrome/37.0.0.0 Mobile MQQBrowser/6.8 TBS/036849 Safari/537.36 MicroMessenger/6.3.27.880 NetType/WIFI Language/zh_CN'
p1123
sg16
S'11785eab7c049e715b7a390ccde76d04'
p1124
sa(dp1125
g2
S'7222'
p1126
sg4
S'5507'
p1127
sg6
S'03f52a4f7e66c7ccc384ce91e7bd50e9'
p1128
sg8
S'xxb4243ba4632323afc886df4a0f0666c1'
p1129
sg10
S'xx4006016f077807be1693755fe7f3cb22'
p1130
sg12
S'xxf4fa785cf562bbd7aa98eae21fc33c42'
p1131
sg14
S'Mozilla/5.0 (Linux; Android 5.1.1; SM-G6000 Build/LMY47X) AppleWebKit/537.36 (KHTML, like Gecko) Version/4.0 Chrome/37.0.0.0 Mobile MQQBrowser/6.8 TBS/036849 Safari/537.36 MicroMessenger/6.3.27.880 NetType/WIFI Language/zh_CN'
p1132
sg16
S'11785eab7c049e715b7a390ccde76d04'
p1133
sa(dp1134
g2
S'7222'
p1135
sg4
S'5527'
p1136
sg6
S'03f52a4f7e66c7ccc384ce91e7bd50e9'
p1137
sg8
S'xxb4243ba4632323afc886df4a0f0666c1'
p1138
sg10
S'xx4006016f077807be1693755fe7f3cb22'
p1139
sg12
S'xxf4fa785cf562bbd7aa98eae21fc33c42'
p1140
sg14
S'Mozilla/5.0 (Linux; Android 5.1.1; SM-G6000 Build/LMY47X) AppleWebKit/537.36 (KHTML, like Gecko) Version/4.0 Chrome/37.0.0.0 Mobile MQQBrowser/6.8 TBS/036849 Safari/537.36 MicroMessenger/6.3.27.880 NetType/WIFI Language/zh_CN'
p1141
sg16
S'11785eab7c049e715b7a390ccde76d04'
p1142
sa(dp1143
g2
S'7222'
p1144
sg4
S'5545'
p1145
sg6
S'03f52a4f7e66c7ccc384ce91e7bd50e9'
p1146
sg8
S'xxb4243ba4632323afc886df4a0f0666c1'
p1147
sg10
S'xx4006016f077807be1693755fe7f3cb22'
p1148
sg12
S'xxf4fa785cf562bbd7aa98eae21fc33c42'
p1149
sg14
S'Mozilla/5.0 (Linux; Android 5.1.1; SM-G6000 Build/LMY47X) AppleWebKit/537.36 (KHTML, like Gecko) Version/4.0 Chrome/37.0.0.0 Mobile MQQBrowser/6.8 TBS/036849 Safari/537.36 MicroMessenger/6.3.27.880 NetType/WIFI Language/zh_CN'
p1150
sg16
S'11785eab7c049e715b7a390ccde76d04'
p1151
sa(dp1152
g2
S'7222'
p1153
sg4
S'5566'
p1154
sg6
S'03f52a4f7e66c7ccc384ce91e7bd50e9'
p1155
sg8
S'xxb4243ba4632323afc886df4a0f0666c1'
p1156
sg10
S'xx4006016f077807be1693755fe7f3cb22'
p1157
sg12
S'xxf4fa785cf562bbd7aa98eae21fc33c42'
p1158
sg14
S'Mozilla/5.0 (Linux; Android 5.1.1; SM-G6000 Build/LMY47X) AppleWebKit/537.36 (KHTML, like Gecko) Version/4.0 Chrome/37.0.0.0 Mobile MQQBrowser/6.8 TBS/036849 Safari/537.36 MicroMessenger/6.3.27.880 NetType/WIFI Language/zh_CN'
p1159
sg16
S'11785eab7c049e715b7a390ccde76d04'
p1160
sa(dp1161
g2
S'7222'
p1162
sg4
S'5582'
p1163
sg6
S'03f52a4f7e66c7ccc384ce91e7bd50e9'
p1164
sg8
S'xxb4243ba4632323afc886df4a0f0666c1'
p1165
sg10
S'xx4006016f077807be1693755fe7f3cb22'
p1166
sg12
S'xxf4fa785cf562bbd7aa98eae21fc33c42'
p1167
sg14
S'Mozilla/5.0 (Linux; Android 5.1.1; SM-G6000 Build/LMY47X) AppleWebKit/537.36 (KHTML, like Gecko) Version/4.0 Chrome/37.0.0.0 Mobile MQQBrowser/6.8 TBS/036849 Safari/537.36 MicroMessenger/6.3.27.880 NetType/WIFI Language/zh_CN'
p1168
sg16
S'11785eab7c049e715b7a390ccde76d04'
p1169
sa(dp1170
g2
S'7222'
p1171
sg4
S'5601'
p1172
sg6
S'03f52a4f7e66c7ccc384ce91e7bd50e9'
p1173
sg8
S'xxb4243ba4632323afc886df4a0f0666c1'
p1174
sg10
S'xx4006016f077807be1693755fe7f3cb22'
p1175
sg12
S'xxf4fa785cf562bbd7aa98eae21fc33c42'
p1176
sg14
S'Mozilla/5.0 (Linux; Android 5.1.1; SM-G6000 Build/LMY47X) AppleWebKit/537.36 (KHTML, like Gecko) Version/4.0 Chrome/37.0.0.0 Mobile MQQBrowser/6.8 TBS/036849 Safari/537.36 MicroMessenger/6.3.27.880 NetType/WIFI Language/zh_CN'
p1177
sg16
S'11785eab7c049e715b7a390ccde76d04'
p1178
sa(dp1179
g2
S'7222'
p1180
sg4
S'5617'
p1181
sg6
S'03f52a4f7e66c7ccc384ce91e7bd50e9'
p1182
sg8
S'xxb4243ba4632323afc886df4a0f0666c1'
p1183
sg10
S'xx4006016f077807be1693755fe7f3cb22'
p1184
sg12
S'xxf4fa785cf562bbd7aa98eae21fc33c42'
p1185
sg14
S'Mozilla/5.0 (Linux; Android 5.1.1; SM-G6000 Build/LMY47X) AppleWebKit/537.36 (KHTML, like Gecko) Version/4.0 Chrome/37.0.0.0 Mobile MQQBrowser/6.8 TBS/036849 Safari/537.36 MicroMessenger/6.3.27.880 NetType/WIFI Language/zh_CN'
p1186
sg16
S'11785eab7c049e715b7a390ccde76d04'
p1187
sa(dp1188
g2
S'7222'
p1189
sg4
S'5637'
p1190
sg6
S'03f52a4f7e66c7ccc384ce91e7bd50e9'
p1191
sg8
S'xxb4243ba4632323afc886df4a0f0666c1'
p1192
sg10
S'xx4006016f077807be1693755fe7f3cb22'
p1193
sg12
S'xxf4fa785cf562bbd7aa98eae21fc33c42'
p1194
sg14
S'Mozilla/5.0 (Linux; Android 5.1.1; SM-G6000 Build/LMY47X) AppleWebKit/537.36 (KHTML, like Gecko) Version/4.0 Chrome/37.0.0.0 Mobile MQQBrowser/6.8 TBS/036849 Safari/537.36 MicroMessenger/6.3.27.880 NetType/WIFI Language/zh_CN'
p1195
sg16
S'11785eab7c049e715b7a390ccde76d04'
p1196
sa(dp1197
g2
S'7222'
p1198
sg4
S'5651'
p1199
sg6
S'03f52a4f7e66c7ccc384ce91e7bd50e9'
p1200
sg8
S'xxb4243ba4632323afc886df4a0f0666c1'
p1201
sg10
S'xx4006016f077807be1693755fe7f3cb22'
p1202
sg12
S'xxf4fa785cf562bbd7aa98eae21fc33c42'
p1203
sg14
S'Mozilla/5.0 (Linux; Android 5.1.1; SM-G6000 Build/LMY47X) AppleWebKit/537.36 (KHTML, like Gecko) Version/4.0 Chrome/37.0.0.0 Mobile MQQBrowser/6.8 TBS/036849 Safari/537.36 MicroMessenger/6.3.27.880 NetType/WIFI Language/zh_CN'
p1204
sg16
S'11785eab7c049e715b7a390ccde76d04'
p1205
sa(dp1206
g2
S'7222'
p1207
sg4
S'5668'
p1208
sg6
S'03f52a4f7e66c7ccc384ce91e7bd50e9'
p1209
sg8
S'xxb4243ba4632323afc886df4a0f0666c1'
p1210
sg10
S'xx4006016f077807be1693755fe7f3cb22'
p1211
sg12
S'xxf4fa785cf562bbd7aa98eae21fc33c42'
p1212
sg14
S'Mozilla/5.0 (Linux; Android 5.1.1; SM-G6000 Build/LMY47X) AppleWebKit/537.36 (KHTML, like Gecko) Version/4.0 Chrome/37.0.0.0 Mobile MQQBrowser/6.8 TBS/036849 Safari/537.36 MicroMessenger/6.3.27.880 NetType/WIFI Language/zh_CN'
p1213
sg16
S'11785eab7c049e715b7a390ccde76d04'
p1214
sa(dp1215
g2
S'7222'
p1216
sg4
S'5684'
p1217
sg6
S'03f52a4f7e66c7ccc384ce91e7bd50e9'
p1218
sg8
S'xxb4243ba4632323afc886df4a0f0666c1'
p1219
sg10
S'xx4006016f077807be1693755fe7f3cb22'
p1220
sg12
S'xxf4fa785cf562bbd7aa98eae21fc33c42'
p1221
sg14
S'Mozilla/5.0 (Linux; Android 5.1.1; SM-G6000 Build/LMY47X) AppleWebKit/537.36 (KHTML, like Gecko) Version/4.0 Chrome/37.0.0.0 Mobile MQQBrowser/6.8 TBS/036849 Safari/537.36 MicroMessenger/6.3.27.880 NetType/WIFI Language/zh_CN'
p1222
sg16
S'11785eab7c049e715b7a390ccde76d04'
p1223
sa(dp1224
g2
S'7222'
p1225
sg4
S'5702'
p1226
sg6
S'03f52a4f7e66c7ccc384ce91e7bd50e9'
p1227
sg8
S'xxb4243ba4632323afc886df4a0f0666c1'
p1228
sg10
S'xx4006016f077807be1693755fe7f3cb22'
p1229
sg12
S'xxf4fa785cf562bbd7aa98eae21fc33c42'
p1230
sg14
S'Mozilla/5.0 (Linux; Android 5.1.1; SM-G6000 Build/LMY47X) AppleWebKit/537.36 (KHTML, like Gecko) Version/4.0 Chrome/37.0.0.0 Mobile MQQBrowser/6.8 TBS/036849 Safari/537.36 MicroMessenger/6.3.27.880 NetType/WIFI Language/zh_CN'
p1231
sg16
S'11785eab7c049e715b7a390ccde76d04'
p1232
sa(dp1233
g2
S'7222'
p1234
sg4
S'5718'
p1235
sg6
S'03f52a4f7e66c7ccc384ce91e7bd50e9'
p1236
sg8
S'xxb4243ba4632323afc886df4a0f0666c1'
p1237
sg10
S'xx4006016f077807be1693755fe7f3cb22'
p1238
sg12
S'xxf4fa785cf562bbd7aa98eae21fc33c42'
p1239
sg14
S'Mozilla/5.0 (Linux; Android 5.1.1; SM-G6000 Build/LMY47X) AppleWebKit/537.36 (KHTML, like Gecko) Version/4.0 Chrome/37.0.0.0 Mobile MQQBrowser/6.8 TBS/036849 Safari/537.36 MicroMessenger/6.3.27.880 NetType/WIFI Language/zh_CN'
p1240
sg16
S'11785eab7c049e715b7a390ccde76d04'
p1241
sa(dp1242
g2
S'7222'
p1243
sg4
S'5734'
p1244
sg6
S'03f52a4f7e66c7ccc384ce91e7bd50e9'
p1245
sg8
S'xxb4243ba4632323afc886df4a0f0666c1'
p1246
sg10
S'xx4006016f077807be1693755fe7f3cb22'
p1247
sg12
S'xxf4fa785cf562bbd7aa98eae21fc33c42'
p1248
sg14
S'Mozilla/5.0 (Linux; Android 5.1.1; SM-G6000 Build/LMY47X) AppleWebKit/537.36 (KHTML, like Gecko) Version/4.0 Chrome/37.0.0.0 Mobile MQQBrowser/6.8 TBS/036849 Safari/537.36 MicroMessenger/6.3.27.880 NetType/WIFI Language/zh_CN'
p1249
sg16
S'11785eab7c049e715b7a390ccde76d04'
p1250
sa(dp1251
g2
S'7222'
p1252
sg4
S'5752'
p1253
sg6
S'03f52a4f7e66c7ccc384ce91e7bd50e9'
p1254
sg8
S'xxb4243ba4632323afc886df4a0f0666c1'
p1255
sg10
S'xx4006016f077807be1693755fe7f3cb22'
p1256
sg12
S'xxf4fa785cf562bbd7aa98eae21fc33c42'
p1257
sg14
S'Mozilla/5.0 (Linux; Android 5.1.1; SM-G6000 Build/LMY47X) AppleWebKit/537.36 (KHTML, like Gecko) Version/4.0 Chrome/37.0.0.0 Mobile MQQBrowser/6.8 TBS/036849 Safari/537.36 MicroMessenger/6.3.27.880 NetType/WIFI Language/zh_CN'
p1258
sg16
S'11785eab7c049e715b7a390ccde76d04'
p1259
sa(dp1260
g2
S'7222'
p1261
sg4
S'5772'
p1262
sg6
S'03f52a4f7e66c7ccc384ce91e7bd50e9'
p1263
sg8
S'xxb4243ba4632323afc886df4a0f0666c1'
p1264
sg10
S'xx4006016f077807be1693755fe7f3cb22'
p1265
sg12
S'xxf4fa785cf562bbd7aa98eae21fc33c42'
p1266
sg14
S'Mozilla/5.0 (Linux; Android 5.1.1; SM-G6000 Build/LMY47X) AppleWebKit/537.36 (KHTML, like Gecko) Version/4.0 Chrome/37.0.0.0 Mobile MQQBrowser/6.8 TBS/036849 Safari/537.36 MicroMessenger/6.3.27.880 NetType/WIFI Language/zh_CN'
p1267
sg16
S'11785eab7c049e715b7a390ccde76d04'
p1268
sa(dp1269
g2
S'7222'
p1270
sg4
S'5791'
p1271
sg6
S'03f52a4f7e66c7ccc384ce91e7bd50e9'
p1272
sg8
S'xxb4243ba4632323afc886df4a0f0666c1'
p1273
sg10
S'xx4006016f077807be1693755fe7f3cb22'
p1274
sg12
S'xxf4fa785cf562bbd7aa98eae21fc33c42'
p1275
sg14
S'Mozilla/5.0 (Linux; Android 5.1.1; SM-G6000 Build/LMY47X) AppleWebKit/537.36 (KHTML, like Gecko) Version/4.0 Chrome/37.0.0.0 Mobile MQQBrowser/6.8 TBS/036849 Safari/537.36 MicroMessenger/6.3.27.880 NetType/WIFI Language/zh_CN'
p1276
sg16
S'11785eab7c049e715b7a390ccde76d04'
p1277
sa(dp1278
g2
S'7222'
p1279
sg4
S'5808'
p1280
sg6
S'03f52a4f7e66c7ccc384ce91e7bd50e9'
p1281
sg8
S'xxb4243ba4632323afc886df4a0f0666c1'
p1282
sg10
S'xx4006016f077807be1693755fe7f3cb22'
p1283
sg12
S'xxf4fa785cf562bbd7aa98eae21fc33c42'
p1284
sg14
S'Mozilla/5.0 (Linux; Android 5.1.1; SM-G6000 Build/LMY47X) AppleWebKit/537.36 (KHTML, like Gecko) Version/4.0 Chrome/37.0.0.0 Mobile MQQBrowser/6.8 TBS/036849 Safari/537.36 MicroMessenger/6.3.27.880 NetType/WIFI Language/zh_CN'
p1285
sg16
S'11785eab7c049e715b7a390ccde76d04'
p1286
sa(dp1287
g2
S'45089'
p1288
sg4
S'5880'
p1289
sg6
S'03f52a4f7e66c7ccc384ce91e7bd50e9'
p1290
sg8
S'xxb4243ba4632323afc886df4a0f0666c1'
p1291
sg10
S'xx4006016f077807be1693755fe7f3cb22'
p1292
sg12
S'xxf4fa785cf562bbd7aa98eae21fc33c42'
p1293
sg14
S'Mozilla/5.0 (Linux; Android 5.1.1; SM-G6000 Build/LMY47X) AppleWebKit/537.36 (KHTML, like Gecko) Version/4.0 Chrome/37.0.0.0 Mobile MQQBrowser/6.8 TBS/036849 Safari/537.36 MicroMessenger/6.3.27.880 NetType/WIFI Language/zh_CN'
p1294
sg16
S'11785eab7c049e715b7a390ccde76d04'
p1295
sa(dp1296
g2
S'45089'
p1297
sg4
S'5898'
p1298
sg6
S'03f52a4f7e66c7ccc384ce91e7bd50e9'
p1299
sg8
S'xxb4243ba4632323afc886df4a0f0666c1'
p1300
sg10
S'xx4006016f077807be1693755fe7f3cb22'
p1301
sg12
S'xxf4fa785cf562bbd7aa98eae21fc33c42'
p1302
sg14
S'Mozilla/5.0 (Linux; Android 5.1.1; SM-G6000 Build/LMY47X) AppleWebKit/537.36 (KHTML, like Gecko) Version/4.0 Chrome/37.0.0.0 Mobile MQQBrowser/6.8 TBS/036849 Safari/537.36 MicroMessenger/6.3.27.880 NetType/WIFI Language/zh_CN'
p1303
sg16
S'11785eab7c049e715b7a390ccde76d04'
p1304
sa(dp1305
g2
S'7222'
p1306
sg4
S'6026'
p1307
sg6
S'03f52a4f7e66c7ccc384ce91e7bd50e9'
p1308
sg8
S'xxb4243ba4632323afc886df4a0f0666c1'
p1309
sg10
S'xx4006016f077807be1693755fe7f3cb22'
p1310
sg12
S'xxf4fa785cf562bbd7aa98eae21fc33c42'
p1311
sg14
S'Mozilla/5.0 (Linux; Android 5.1.1; SM-G6000 Build/LMY47X) AppleWebKit/537.36 (KHTML, like Gecko) Version/4.0 Chrome/37.0.0.0 Mobile MQQBrowser/6.8 TBS/036849 Safari/537.36 MicroMessenger/6.3.27.880 NetType/WIFI Language/zh_CN'
p1312
sg16
S'11785eab7c049e715b7a390ccde76d04'
p1313
sa(dp1314
g2
S'7222'
p1315
sg4
S'6037'
p1316
sg6
S'03f52a4f7e66c7ccc384ce91e7bd50e9'
p1317
sg8
S'xxb4243ba4632323afc886df4a0f0666c1'
p1318
sg10
S'xx4006016f077807be1693755fe7f3cb22'
p1319
sg12
S'xxf4fa785cf562bbd7aa98eae21fc33c42'
p1320
sg14
S'Mozilla/5.0 (Linux; Android 5.1.1; SM-G6000 Build/LMY47X) AppleWebKit/537.36 (KHTML, like Gecko) Version/4.0 Chrome/37.0.0.0 Mobile MQQBrowser/6.8 TBS/036849 Safari/537.36 MicroMessenger/6.3.27.880 NetType/WIFI Language/zh_CN'
p1321
sg16
S'11785eab7c049e715b7a390ccde76d04'
p1322
sa(dp1323
g2
S'7222'
p1324
sg4
S'6057'
p1325
sg6
S'03f52a4f7e66c7ccc384ce91e7bd50e9'
p1326
sg8
S'xxb4243ba4632323afc886df4a0f0666c1'
p1327
sg10
S'xx4006016f077807be1693755fe7f3cb22'
p1328
sg12
S'xxf4fa785cf562bbd7aa98eae21fc33c42'
p1329
sg14
S'Mozilla/5.0 (Linux; Android 5.1.1; SM-G6000 Build/LMY47X) AppleWebKit/537.36 (KHTML, like Gecko) Version/4.0 Chrome/37.0.0.0 Mobile MQQBrowser/6.8 TBS/036849 Safari/537.36 MicroMessenger/6.3.27.880 NetType/WIFI Language/zh_CN'
p1330
sg16
S'11785eab7c049e715b7a390ccde76d04'
p1331
sa(dp1332
g2
S'7222'
p1333
sg4
S'6070'
p1334
sg6
S'03f52a4f7e66c7ccc384ce91e7bd50e9'
p1335
sg8
S'xxb4243ba4632323afc886df4a0f0666c1'
p1336
sg10
S'xx4006016f077807be1693755fe7f3cb22'
p1337
sg12
S'xxf4fa785cf562bbd7aa98eae21fc33c42'
p1338
sg14
S'Mozilla/5.0 (Linux; Android 5.1.1; SM-G6000 Build/LMY47X) AppleWebKit/537.36 (KHTML, like Gecko) Version/4.0 Chrome/37.0.0.0 Mobile MQQBrowser/6.8 TBS/036849 Safari/537.36 MicroMessenger/6.3.27.880 NetType/WIFI Language/zh_CN'
p1339
sg16
S'11785eab7c049e715b7a390ccde76d04'
p1340
sa(dp1341
g2
S'7222'
p1342
sg4
S'6086'
p1343
sg6
S'03f52a4f7e66c7ccc384ce91e7bd50e9'
p1344
sg8
S'xxb4243ba4632323afc886df4a0f0666c1'
p1345
sg10
S'xx4006016f077807be1693755fe7f3cb22'
p1346
sg12
S'xxf4fa785cf562bbd7aa98eae21fc33c42'
p1347
sg14
S'Mozilla/5.0 (Linux; Android 5.1.1; SM-G6000 Build/LMY47X) AppleWebKit/537.36 (KHTML, like Gecko) Version/4.0 Chrome/37.0.0.0 Mobile MQQBrowser/6.8 TBS/036849 Safari/537.36 MicroMessenger/6.3.27.880 NetType/WIFI Language/zh_CN'
p1348
sg16
S'11785eab7c049e715b7a390ccde76d04'
p1349
sa(dp1350
g2
S'7222'
p1351
sg4
S'6106'
p1352
sg6
S'03f52a4f7e66c7ccc384ce91e7bd50e9'
p1353
sg8
S'xxb4243ba4632323afc886df4a0f0666c1'
p1354
sg10
S'xx4006016f077807be1693755fe7f3cb22'
p1355
sg12
S'xxf4fa785cf562bbd7aa98eae21fc33c42'
p1356
sg14
S'Mozilla/5.0 (Linux; Android 5.1.1; SM-G6000 Build/LMY47X) AppleWebKit/537.36 (KHTML, like Gecko) Version/4.0 Chrome/37.0.0.0 Mobile MQQBrowser/6.8 TBS/036849 Safari/537.36 MicroMessenger/6.3.27.880 NetType/WIFI Language/zh_CN'
p1357
sg16
S'11785eab7c049e715b7a390ccde76d04'
p1358
sa(dp1359
g2
S'7222'
p1360
sg4
S'6123'
p1361
sg6
S'03f52a4f7e66c7ccc384ce91e7bd50e9'
p1362
sg8
S'xxb4243ba4632323afc886df4a0f0666c1'
p1363
sg10
S'xx4006016f077807be1693755fe7f3cb22'
p1364
sg12
S'xxf4fa785cf562bbd7aa98eae21fc33c42'
p1365
sg14
S'Mozilla/5.0 (Linux; Android 5.1.1; SM-G6000 Build/LMY47X) AppleWebKit/537.36 (KHTML, like Gecko) Version/4.0 Chrome/37.0.0.0 Mobile MQQBrowser/6.8 TBS/036849 Safari/537.36 MicroMessenger/6.3.27.880 NetType/WIFI Language/zh_CN'
p1366
sg16
S'11785eab7c049e715b7a390ccde76d04'
p1367
sa(dp1368
g2
S'7222'
p1369
sg4
S'6139'
p1370
sg6
S'03f52a4f7e66c7ccc384ce91e7bd50e9'
p1371
sg8
S'xxb4243ba4632323afc886df4a0f0666c1'
p1372
sg10
S'xx4006016f077807be1693755fe7f3cb22'
p1373
sg12
S'xxf4fa785cf562bbd7aa98eae21fc33c42'
p1374
sg14
S'Mozilla/5.0 (Linux; Android 5.1.1; SM-G6000 Build/LMY47X) AppleWebKit/537.36 (KHTML, like Gecko) Version/4.0 Chrome/37.0.0.0 Mobile MQQBrowser/6.8 TBS/036849 Safari/537.36 MicroMessenger/6.3.27.880 NetType/WIFI Language/zh_CN'
p1375
sg16
S'11785eab7c049e715b7a390ccde76d04'
p1376
sa(dp1377
g2
S'7222'
p1378
sg4
S'6154'
p1379
sg6
S'03f52a4f7e66c7ccc384ce91e7bd50e9'
p1380
sg8
S'xxb4243ba4632323afc886df4a0f0666c1'
p1381
sg10
S'xx4006016f077807be1693755fe7f3cb22'
p1382
sg12
S'xxf4fa785cf562bbd7aa98eae21fc33c42'
p1383
sg14
S'Mozilla/5.0 (Linux; Android 5.1.1; SM-G6000 Build/LMY47X) AppleWebKit/537.36 (KHTML, like Gecko) Version/4.0 Chrome/37.0.0.0 Mobile MQQBrowser/6.8 TBS/036849 Safari/537.36 MicroMessenger/6.3.27.880 NetType/WIFI Language/zh_CN'
p1384
sg16
S'11785eab7c049e715b7a390ccde76d04'
p1385
sa(dp1386
g2
S'7222'
p1387
sg4
S'6165'
p1388
sg6
S'03f52a4f7e66c7ccc384ce91e7bd50e9'
p1389
sg8
S'xxb4243ba4632323afc886df4a0f0666c1'
p1390
sg10
S'xx4006016f077807be1693755fe7f3cb22'
p1391
sg12
S'xxf4fa785cf562bbd7aa98eae21fc33c42'
p1392
sg14
S'Mozilla/5.0 (Linux; Android 5.1.1; SM-G6000 Build/LMY47X) AppleWebKit/537.36 (KHTML, like Gecko) Version/4.0 Chrome/37.0.0.0 Mobile MQQBrowser/6.8 TBS/036849 Safari/537.36 MicroMessenger/6.3.27.880 NetType/WIFI Language/zh_CN'
p1393
sg16
S'11785eab7c049e715b7a390ccde76d04'
p1394
sa(dp1395
g2
S'7222'
p1396
sg4
S'6182'
p1397
sg6
S'03f52a4f7e66c7ccc384ce91e7bd50e9'
p1398
sg8
S'xxb4243ba4632323afc886df4a0f0666c1'
p1399
sg10
S'xx4006016f077807be1693755fe7f3cb22'
p1400
sg12
S'xxf4fa785cf562bbd7aa98eae21fc33c42'
p1401
sg14
S'Mozilla/5.0 (Linux; Android 5.1.1; SM-G6000 Build/LMY47X) AppleWebKit/537.36 (KHTML, like Gecko) Version/4.0 Chrome/37.0.0.0 Mobile MQQBrowser/6.8 TBS/036849 Safari/537.36 MicroMessenger/6.3.27.880 NetType/WIFI Language/zh_CN'
p1402
sg16
S'11785eab7c049e715b7a390ccde76d04'
p1403
sa(dp1404
g2
S'7222'
p1405
sg4
S'6199'
p1406
sg6
S'03f52a4f7e66c7ccc384ce91e7bd50e9'
p1407
sg8
S'xxb4243ba4632323afc886df4a0f0666c1'
p1408
sg10
S'xx4006016f077807be1693755fe7f3cb22'
p1409
sg12
S'xxf4fa785cf562bbd7aa98eae21fc33c42'
p1410
sg14
S'Mozilla/5.0 (Linux; Android 5.1.1; SM-G6000 Build/LMY47X) AppleWebKit/537.36 (KHTML, like Gecko) Version/4.0 Chrome/37.0.0.0 Mobile MQQBrowser/6.8 TBS/036849 Safari/537.36 MicroMessenger/6.3.27.880 NetType/WIFI Language/zh_CN'
p1411
sg16
S'11785eab7c049e715b7a390ccde76d04'
p1412
sa(dp1413
g2
S'7222'
p1414
sg4
S'6214'
p1415
sg6
S'03f52a4f7e66c7ccc384ce91e7bd50e9'
p1416
sg8
S'xxb4243ba4632323afc886df4a0f0666c1'
p1417
sg10
S'xx4006016f077807be1693755fe7f3cb22'
p1418
sg12
S'xxf4fa785cf562bbd7aa98eae21fc33c42'
p1419
sg14
S'Mozilla/5.0 (Linux; Android 5.1.1; SM-G6000 Build/LMY47X) AppleWebKit/537.36 (KHTML, like Gecko) Version/4.0 Chrome/37.0.0.0 Mobile MQQBrowser/6.8 TBS/036849 Safari/537.36 MicroMessenger/6.3.27.880 NetType/WIFI Language/zh_CN'
p1420
sg16
S'11785eab7c049e715b7a390ccde76d04'
p1421
sa(dp1422
g2
S'7222'
p1423
sg4
S'6232'
p1424
sg6
S'03f52a4f7e66c7ccc384ce91e7bd50e9'
p1425
sg8
S'xxb4243ba4632323afc886df4a0f0666c1'
p1426
sg10
S'xx4006016f077807be1693755fe7f3cb22'
p1427
sg12
S'xxf4fa785cf562bbd7aa98eae21fc33c42'
p1428
sg14
S'Mozilla/5.0 (Linux; Android 5.1.1; SM-G6000 Build/LMY47X) AppleWebKit/537.36 (KHTML, like Gecko) Version/4.0 Chrome/37.0.0.0 Mobile MQQBrowser/6.8 TBS/036849 Safari/537.36 MicroMessenger/6.3.27.880 NetType/WIFI Language/zh_CN'
p1429
sg16
S'11785eab7c049e715b7a390ccde76d04'
p1430
sa(dp1431
g2
S'7222'
p1432
sg4
S'6249'
p1433
sg6
S'03f52a4f7e66c7ccc384ce91e7bd50e9'
p1434
sg8
S'xxb4243ba4632323afc886df4a0f0666c1'
p1435
sg10
S'xx4006016f077807be1693755fe7f3cb22'
p1436
sg12
S'xxf4fa785cf562bbd7aa98eae21fc33c42'
p1437
sg14
S'Mozilla/5.0 (Linux; Android 5.1.1; SM-G6000 Build/LMY47X) AppleWebKit/537.36 (KHTML, like Gecko) Version/4.0 Chrome/37.0.0.0 Mobile MQQBrowser/6.8 TBS/036849 Safari/537.36 MicroMessenger/6.3.27.880 NetType/WIFI Language/zh_CN'
p1438
sg16
S'11785eab7c049e715b7a390ccde76d04'
p1439
sa(dp1440
g2
S'7222'
p1441
sg4
S'6261'
p1442
sg6
S'03f52a4f7e66c7ccc384ce91e7bd50e9'
p1443
sg8
S'xxb4243ba4632323afc886df4a0f0666c1'
p1444
sg10
S'xx4006016f077807be1693755fe7f3cb22'
p1445
sg12
S'xxf4fa785cf562bbd7aa98eae21fc33c42'
p1446
sg14
S'Mozilla/5.0 (Linux; Android 5.1.1; SM-G6000 Build/LMY47X) AppleWebKit/537.36 (KHTML, like Gecko) Version/4.0 Chrome/37.0.0.0 Mobile MQQBrowser/6.8 TBS/036849 Safari/537.36 MicroMessenger/6.3.27.880 NetType/WIFI Language/zh_CN'
p1447
sg16
S'11785eab7c049e715b7a390ccde76d04'
p1448
sa(dp1449
g2
S'7222'
p1450
sg4
S'6272'
p1451
sg6
S'03f52a4f7e66c7ccc384ce91e7bd50e9'
p1452
sg8
S'xxb4243ba4632323afc886df4a0f0666c1'
p1453
sg10
S'xx4006016f077807be1693755fe7f3cb22'
p1454
sg12
S'xxf4fa785cf562bbd7aa98eae21fc33c42'
p1455
sg14
S'Mozilla/5.0 (Linux; Android 5.1.1; SM-G6000 Build/LMY47X) AppleWebKit/537.36 (KHTML, like Gecko) Version/4.0 Chrome/37.0.0.0 Mobile MQQBrowser/6.8 TBS/036849 Safari/537.36 MicroMessenger/6.3.27.880 NetType/WIFI Language/zh_CN'
p1456
sg16
S'11785eab7c049e715b7a390ccde76d04'
p1457
sa(dp1458
g2
S'7222'
p1459
sg4
S'6284'
p1460
sg6
S'03f52a4f7e66c7ccc384ce91e7bd50e9'
p1461
sg8
S'xxb4243ba4632323afc886df4a0f0666c1'
p1462
sg10
S'xx4006016f077807be1693755fe7f3cb22'
p1463
sg12
S'xxf4fa785cf562bbd7aa98eae21fc33c42'
p1464
sg14
S'Mozilla/5.0 (Linux; Android 5.1.1; SM-G6000 Build/LMY47X) AppleWebKit/537.36 (KHTML, like Gecko) Version/4.0 Chrome/37.0.0.0 Mobile MQQBrowser/6.8 TBS/036849 Safari/537.36 MicroMessenger/6.3.27.880 NetType/WIFI Language/zh_CN'
p1465
sg16
S'11785eab7c049e715b7a390ccde76d04'
p1466
sa(dp1467
g2
S'7222'
p1468
sg4
S'6299'
p1469
sg6
S'03f52a4f7e66c7ccc384ce91e7bd50e9'
p1470
sg8
S'xxb4243ba4632323afc886df4a0f0666c1'
p1471
sg10
S'xx4006016f077807be1693755fe7f3cb22'
p1472
sg12
S'xxf4fa785cf562bbd7aa98eae21fc33c42'
p1473
sg14
S'Mozilla/5.0 (Linux; Android 5.1.1; SM-G6000 Build/LMY47X) AppleWebKit/537.36 (KHTML, like Gecko) Version/4.0 Chrome/37.0.0.0 Mobile MQQBrowser/6.8 TBS/036849 Safari/537.36 MicroMessenger/6.3.27.880 NetType/WIFI Language/zh_CN'
p1474
sg16
S'11785eab7c049e715b7a390ccde76d04'
p1475
sa(dp1476
g2
S'7222'
p1477
sg4
S'6313'
p1478
sg6
S'03f52a4f7e66c7ccc384ce91e7bd50e9'
p1479
sg8
S'xxb4243ba4632323afc886df4a0f0666c1'
p1480
sg10
S'xx4006016f077807be1693755fe7f3cb22'
p1481
sg12
S'xxf4fa785cf562bbd7aa98eae21fc33c42'
p1482
sg14
S'Mozilla/5.0 (Linux; Android 5.1.1; SM-G6000 Build/LMY47X) AppleWebKit/537.36 (KHTML, like Gecko) Version/4.0 Chrome/37.0.0.0 Mobile MQQBrowser/6.8 TBS/036849 Safari/537.36 MicroMessenger/6.3.27.880 NetType/WIFI Language/zh_CN'
p1483
sg16
S'11785eab7c049e715b7a390ccde76d04'
p1484
sa(dp1485
g2
S'7222'
p1486
sg4
S'6332'
p1487
sg6
S'03f52a4f7e66c7ccc384ce91e7bd50e9'
p1488
sg8
S'xxb4243ba4632323afc886df4a0f0666c1'
p1489
sg10
S'xx4006016f077807be1693755fe7f3cb22'
p1490
sg12
S'xxf4fa785cf562bbd7aa98eae21fc33c42'
p1491
sg14
S'Mozilla/5.0 (Linux; Android 5.1.1; SM-G6000 Build/LMY47X) AppleWebKit/537.36 (KHTML, like Gecko) Version/4.0 Chrome/37.0.0.0 Mobile MQQBrowser/6.8 TBS/036849 Safari/537.36 MicroMessenger/6.3.27.880 NetType/WIFI Language/zh_CN'
p1492
sg16
S'11785eab7c049e715b7a390ccde76d04'
p1493
sa(dp1494
g2
S'7222'
p1495
sg4
S'6347'
p1496
sg6
S'03f52a4f7e66c7ccc384ce91e7bd50e9'
p1497
sg8
S'xxb4243ba4632323afc886df4a0f0666c1'
p1498
sg10
S'xx4006016f077807be1693755fe7f3cb22'
p1499
sg12
S'xxf4fa785cf562bbd7aa98eae21fc33c42'
p1500
sg14
S'Mozilla/5.0 (Linux; Android 5.1.1; SM-G6000 Build/LMY47X) AppleWebKit/537.36 (KHTML, like Gecko) Version/4.0 Chrome/37.0.0.0 Mobile MQQBrowser/6.8 TBS/036849 Safari/537.36 MicroMessenger/6.3.27.880 NetType/WIFI Language/zh_CN'
p1501
sg16
S'11785eab7c049e715b7a390ccde76d04'
p1502
sa(dp1503
g2
S'7222'
p1504
sg4
S'6365'
p1505
sg6
S'03f52a4f7e66c7ccc384ce91e7bd50e9'
p1506
sg8
S'xxb4243ba4632323afc886df4a0f0666c1'
p1507
sg10
S'xx4006016f077807be1693755fe7f3cb22'
p1508
sg12
S'xxf4fa785cf562bbd7aa98eae21fc33c42'
p1509
sg14
S'Mozilla/5.0 (Linux; Android 5.1.1; SM-G6000 Build/LMY47X) AppleWebKit/537.36 (KHTML, like Gecko) Version/4.0 Chrome/37.0.0.0 Mobile MQQBrowser/6.8 TBS/036849 Safari/537.36 MicroMessenger/6.3.27.880 NetType/WIFI Language/zh_CN'
p1510
sg16
S'11785eab7c049e715b7a390ccde76d04'
p1511
sa(dp1512
g2
S'7222'
p1513
sg4
S'6382'
p1514
sg6
S'03f52a4f7e66c7ccc384ce91e7bd50e9'
p1515
sg8
S'xxb4243ba4632323afc886df4a0f0666c1'
p1516
sg10
S'xx4006016f077807be1693755fe7f3cb22'
p1517
sg12
S'xxf4fa785cf562bbd7aa98eae21fc33c42'
p1518
sg14
S'Mozilla/5.0 (Linux; Android 5.1.1; SM-G6000 Build/LMY47X) AppleWebKit/537.36 (KHTML, like Gecko) Version/4.0 Chrome/37.0.0.0 Mobile MQQBrowser/6.8 TBS/036849 Safari/537.36 MicroMessenger/6.3.27.880 NetType/WIFI Language/zh_CN'
p1519
sg16
S'11785eab7c049e715b7a390ccde76d04'
p1520
sa(dp1521
g2
S'45089'
p1522
sg4
S'6462'
p1523
sg6
S'03f52a4f7e66c7ccc384ce91e7bd50e9'
p1524
sg8
S'xxb4243ba4632323afc886df4a0f0666c1'
p1525
sg10
S'xx4006016f077807be1693755fe7f3cb22'
p1526
sg12
S'xxf4fa785cf562bbd7aa98eae21fc33c42'
p1527
sg14
S'Mozilla/5.0 (Linux; Android 5.1.1; SM-G6000 Build/LMY47X) AppleWebKit/537.36 (KHTML, like Gecko) Version/4.0 Chrome/37.0.0.0 Mobile MQQBrowser/6.8 TBS/036849 Safari/537.36 MicroMessenger/6.3.27.880 NetType/WIFI Language/zh_CN'
p1528
sg16
S'11785eab7c049e715b7a390ccde76d04'
p1529
sa(dp1530
g2
S'45089'
p1531
sg4
S'6477'
p1532
sg6
S'03f52a4f7e66c7ccc384ce91e7bd50e9'
p1533
sg8
S'xxb4243ba4632323afc886df4a0f0666c1'
p1534
sg10
S'xx4006016f077807be1693755fe7f3cb22'
p1535
sg12
S'xxf4fa785cf562bbd7aa98eae21fc33c42'
p1536
sg14
S'Mozilla/5.0 (Linux; Android 5.1.1; SM-G6000 Build/LMY47X) AppleWebKit/537.36 (KHTML, like Gecko) Version/4.0 Chrome/37.0.0.0 Mobile MQQBrowser/6.8 TBS/036849 Safari/537.36 MicroMessenger/6.3.27.880 NetType/WIFI Language/zh_CN'
p1537
sg16
S'11785eab7c049e715b7a390ccde76d04'
p1538
sa.