(lp0
(dp1
S'user_id'
p2
S'42664'
p3
sS'data_id'
p4
S'5830'
p5
sS'ip'
p6
S'50eaccbab87ef98eaf79ea688bc155f6'
p7
sS'phone_B'
p8
S'xx4ffaf3d31413d95719ed4e29fd1ffd8e'
p9
sS'phone_C'
p10
S'xx5b5385f495527d021fa348ab45b341b6'
p11
sS'phone_A'
p12
S'xxf4b565abd205be6f261e7ac329a73509'
p13
sS'user_agent'
p14
S'Mozilla/5.0 (Linux; Android 5.0.2; vivo X6A Build/LRX22G) AppleWebKit/537.36 (KHTML, like Gecko) Version/4.0 Chrome/37.0.0.0 Mobile MQQBrowser/6.8 TBS/036849 Safari/537.36 MicroMessenger/6.3.27.880 NetType/WIFI Language/zh_CN'
p15
sS'ua'
p16
S'd1faa91d8b4225251ba1b4a85b0f033a'
p17
sa(dp18
g2
S'42664'
p19
sg4
S'5842'
p20
sg6
S'50eaccbab87ef98eaf79ea688bc155f6'
p21
sg8
S'xx4ffaf3d31413d95719ed4e29fd1ffd8e'
p22
sg10
S'xx5b5385f495527d021fa348ab45b341b6'
p23
sg12
S'xxf4b565abd205be6f261e7ac329a73509'
p24
sg14
S'Mozilla/5.0 (Linux; Android 5.0.2; vivo X6A Build/LRX22G) AppleWebKit/537.36 (KHTML, like Gecko) Version/4.0 Chrome/37.0.0.0 Mobile MQQBrowser/6.8 TBS/036849 Safari/537.36 MicroMessenger/6.3.27.880 NetType/WIFI Language/zh_CN'
p25
sg16
S'd1faa91d8b4225251ba1b4a85b0f033a'
p26
sa(dp27
g2
S'49817'
p28
sg4
S'6528'
p29
sg6
S'7730bc40ab1f3f6e04b01da51ab4a5be'
p30
sg8
S'xx895c83c75e337f3ed1b07365ed485203'
p31
sg10
S'xxacd85f1c9871326680d4b0d21e43b856'
p32
sg12
S'xxf4b565abd205be6f261e7ac329a73509'
p33
sg14
S'Mozilla/5.0 (Linux; Android 5.0.2; vivo X6A Build/LRX22G) AppleWebKit/537.36 (KHTML, like Gecko) Version/4.0 Chrome/37.0.0.0 Mobile MQQBrowser/6.8 TBS/036849 Safari/537.36 MicroMessenger/6.3.25.861 NetType/3gnet Language/zh_CN'
p34
sg16
S'cdee1a6ca2ba5c6300dbdf5932919eec'
p35
sa(dp36
g2
S'49817'
p37
sg4
S'6552'
p38
sg6
S'7730bc40ab1f3f6e04b01da51ab4a5be'
p39
sg8
S'xx895c83c75e337f3ed1b07365ed485203'
p40
sg10
S'xxacd85f1c9871326680d4b0d21e43b856'
p41
sg12
S'xxf4b565abd205be6f261e7ac329a73509'
p42
sg14
S'Mozilla/5.0 (Linux; Android 5.0.2; vivo X6A Build/LRX22G) AppleWebKit/537.36 (KHTML, like Gecko) Version/4.0 Chrome/37.0.0.0 Mobile MQQBrowser/6.8 TBS/036849 Safari/537.36 MicroMessenger/6.3.25.861 NetType/3gnet Language/zh_CN'
p43
sg16
S'cdee1a6ca2ba5c6300dbdf5932919eec'
p44
sa(dp45
g2
S'30479'
p46
sg4
S'6861'
p47
sg6
S'5d46bd510df8e12954dc9ce0b6b18ebe'
p48
sg8
S'xx4ffaf3d31413d95719ed4e29fd1ffd8e'
p49
sg10
S'xx5b5385f495527d021fa348ab45b341b6'
p50
sg12
S'xxf4b565abd205be6f261e7ac329a73509'
p51
sg14
S'Mozilla/5.0 (Linux; Android 5.0.2; vivo X6A Build/LRX22G) AppleWebKit/537.36 (KHTML, like Gecko) Version/4.0 Chrome/37.0.0.0 Mobile MQQBrowser/6.8 TBS/036849 Safari/537.36 MicroMessenger/6.3.27.880 NetType/WIFI Language/zh_CN'
p52
sg16
S'd1faa91d8b4225251ba1b4a85b0f033a'
p53
sa(dp54
g2
S'30479'
p55
sg4
S'6877'
p56
sg6
S'5d46bd510df8e12954dc9ce0b6b18ebe'
p57
sg8
S'xx4ffaf3d31413d95719ed4e29fd1ffd8e'
p58
sg10
S'xx5b5385f495527d021fa348ab45b341b6'
p59
sg12
S'xxf4b565abd205be6f261e7ac329a73509'
p60
sg14
S'Mozilla/5.0 (Linux; Android 5.0.2; vivo X6A Build/LRX22G) AppleWebKit/537.36 (KHTML, like Gecko) Version/4.0 Chrome/37.0.0.0 Mobile MQQBrowser/6.8 TBS/036849 Safari/537.36 MicroMessenger/6.3.27.880 NetType/WIFI Language/zh_CN'
p61
sg16
S'd1faa91d8b4225251ba1b4a85b0f033a'
p62
sa.