(lp0
(dp1
S'user_id'
p2
S'34557'
p3
sS'data_id'
p4
S'233'
p5
sS'ip'
p6
S'09ca09b656926cef7647082200d7e2d2'
p7
sS'phone_B'
p8
S'xxcb2bf6ad0f6bafe78eefa5186d4d19c4'
p9
sS'phone_C'
p10
S'xxa1eddb067d69156b5a420a68e90e67cd'
p11
sS'phone_A'
p12
S'xxf4735d1c3b632149266e23022e4c6cd9'
p13
sS'user_agent'
p14
S'Mozilla/5.0 (Linux; Android 4.4.2; CHM-UL00 Build/HonorCHM-UL00) AppleWebKit/537.36 (KHTML, like Gecko) Version/4.0 Chrome/37.0.0.0 Mobile MQQBrowser/6.8 TBS/036869 Safari/537.36 MicroMessenger/6.3.27.880 NetType/WIFI Language/zh_CN'
p15
sS'ua'
p16
S'ff5ab7c666fbfd81a267a9c85fa37e41'
p17
sa(dp18
g2
S'34557'
p19
sg4
S'244'
p20
sg6
S'09ca09b656926cef7647082200d7e2d2'
p21
sg8
S'xxcb2bf6ad0f6bafe78eefa5186d4d19c4'
p22
sg10
S'xxa1eddb067d69156b5a420a68e90e67cd'
p23
sg12
S'xxf4735d1c3b632149266e23022e4c6cd9'
p24
sg14
S'Mozilla/5.0 (Linux; Android 4.4.2; CHM-UL00 Build/HonorCHM-UL00) AppleWebKit/537.36 (KHTML, like Gecko) Version/4.0 Chrome/37.0.0.0 Mobile MQQBrowser/6.8 TBS/036869 Safari/537.36 MicroMessenger/6.3.27.880 NetType/WIFI Language/zh_CN'
p25
sg16
S'ff5ab7c666fbfd81a267a9c85fa37e41'
p26
sa(dp27
g2
S'34557'
p28
sg4
S'1009'
p29
sg6
S'09ca09b656926cef7647082200d7e2d2'
p30
sg8
S'xxcb2bf6ad0f6bafe78eefa5186d4d19c4'
p31
sg10
S'xxa1eddb067d69156b5a420a68e90e67cd'
p32
sg12
S'xxf4735d1c3b632149266e23022e4c6cd9'
p33
sg14
S'Mozilla/5.0 (Linux; Android 4.4.2; CHM-UL00 Build/HonorCHM-UL00) AppleWebKit/537.36 (KHTML, like Gecko) Version/4.0 Chrome/37.0.0.0 Mobile MQQBrowser/6.8 TBS/036869 Safari/537.36 MicroMessenger/6.3.27.880 NetType/WIFI Language/zh_CN'
p34
sg16
S'ff5ab7c666fbfd81a267a9c85fa37e41'
p35
sa(dp36
g2
S'34557'
p37
sg4
S'1633'
p38
sg6
S'09ca09b656926cef7647082200d7e2d2'
p39
sg8
S'xxcb2bf6ad0f6bafe78eefa5186d4d19c4'
p40
sg10
S'xxa1eddb067d69156b5a420a68e90e67cd'
p41
sg12
S'xxf4735d1c3b632149266e23022e4c6cd9'
p42
sg14
S'Mozilla/5.0 (Linux; Android 4.4.2; CHM-UL00 Build/HonorCHM-UL00) AppleWebKit/537.36 (KHTML, like Gecko) Version/4.0 Chrome/37.0.0.0 Mobile MQQBrowser/6.8 TBS/036869 Safari/537.36 MicroMessenger/6.3.27.880 NetType/WIFI Language/zh_CN'
p43
sg16
S'ff5ab7c666fbfd81a267a9c85fa37e41'
p44
sa(dp45
g2
S'34557'
p46
sg4
S'1644'
p47
sg6
S'09ca09b656926cef7647082200d7e2d2'
p48
sg8
S'xxcb2bf6ad0f6bafe78eefa5186d4d19c4'
p49
sg10
S'xxa1eddb067d69156b5a420a68e90e67cd'
p50
sg12
S'xxf4735d1c3b632149266e23022e4c6cd9'
p51
sg14
S'Mozilla/5.0 (Linux; Android 4.4.2; CHM-UL00 Build/HonorCHM-UL00) AppleWebKit/537.36 (KHTML, like Gecko) Version/4.0 Chrome/37.0.0.0 Mobile MQQBrowser/6.8 TBS/036869 Safari/537.36 MicroMessenger/6.3.27.880 NetType/WIFI Language/zh_CN'
p52
sg16
S'ff5ab7c666fbfd81a267a9c85fa37e41'
p53
sa(dp54
g2
S'34557'
p55
sg4
S'1661'
p56
sg6
S'09ca09b656926cef7647082200d7e2d2'
p57
sg8
S'xxcb2bf6ad0f6bafe78eefa5186d4d19c4'
p58
sg10
S'xxa1eddb067d69156b5a420a68e90e67cd'
p59
sg12
S'xxf4735d1c3b632149266e23022e4c6cd9'
p60
sg14
S'Mozilla/5.0 (Linux; Android 4.4.2; CHM-UL00 Build/HonorCHM-UL00) AppleWebKit/537.36 (KHTML, like Gecko) Version/4.0 Chrome/37.0.0.0 Mobile MQQBrowser/6.8 TBS/036869 Safari/537.36 MicroMessenger/6.3.27.880 NetType/WIFI Language/zh_CN'
p61
sg16
S'ff5ab7c666fbfd81a267a9c85fa37e41'
p62
sa(dp63
g2
S'34557'
p64
sg4
S'1675'
p65
sg6
S'09ca09b656926cef7647082200d7e2d2'
p66
sg8
S'xxcb2bf6ad0f6bafe78eefa5186d4d19c4'
p67
sg10
S'xxa1eddb067d69156b5a420a68e90e67cd'
p68
sg12
S'xxf4735d1c3b632149266e23022e4c6cd9'
p69
sg14
S'Mozilla/5.0 (Linux; Android 4.4.2; CHM-UL00 Build/HonorCHM-UL00) AppleWebKit/537.36 (KHTML, like Gecko) Version/4.0 Chrome/37.0.0.0 Mobile MQQBrowser/6.8 TBS/036869 Safari/537.36 MicroMessenger/6.3.27.880 NetType/WIFI Language/zh_CN'
p70
sg16
S'ff5ab7c666fbfd81a267a9c85fa37e41'
p71
sa(dp72
g2
S'34557'
p73
sg4
S'1689'
p74
sg6
S'09ca09b656926cef7647082200d7e2d2'
p75
sg8
S'xxcb2bf6ad0f6bafe78eefa5186d4d19c4'
p76
sg10
S'xxa1eddb067d69156b5a420a68e90e67cd'
p77
sg12
S'xxf4735d1c3b632149266e23022e4c6cd9'
p78
sg14
S'Mozilla/5.0 (Linux; Android 4.4.2; CHM-UL00 Build/HonorCHM-UL00) AppleWebKit/537.36 (KHTML, like Gecko) Version/4.0 Chrome/37.0.0.0 Mobile MQQBrowser/6.8 TBS/036869 Safari/537.36 MicroMessenger/6.3.27.880 NetType/WIFI Language/zh_CN'
p79
sg16
S'ff5ab7c666fbfd81a267a9c85fa37e41'
p80
sa(dp81
g2
S'34557'
p82
sg4
S'1702'
p83
sg6
S'09ca09b656926cef7647082200d7e2d2'
p84
sg8
S'xxcb2bf6ad0f6bafe78eefa5186d4d19c4'
p85
sg10
S'xxa1eddb067d69156b5a420a68e90e67cd'
p86
sg12
S'xxf4735d1c3b632149266e23022e4c6cd9'
p87
sg14
S'Mozilla/5.0 (Linux; Android 4.4.2; CHM-UL00 Build/HonorCHM-UL00) AppleWebKit/537.36 (KHTML, like Gecko) Version/4.0 Chrome/37.0.0.0 Mobile MQQBrowser/6.8 TBS/036869 Safari/537.36 MicroMessenger/6.3.27.880 NetType/WIFI Language/zh_CN'
p88
sg16
S'ff5ab7c666fbfd81a267a9c85fa37e41'
p89
sa(dp90
g2
S'34557'
p91
sg4
S'1714'
p92
sg6
S'09ca09b656926cef7647082200d7e2d2'
p93
sg8
S'xxcb2bf6ad0f6bafe78eefa5186d4d19c4'
p94
sg10
S'xxa1eddb067d69156b5a420a68e90e67cd'
p95
sg12
S'xxf4735d1c3b632149266e23022e4c6cd9'
p96
sg14
S'Mozilla/5.0 (Linux; Android 4.4.2; CHM-UL00 Build/HonorCHM-UL00) AppleWebKit/537.36 (KHTML, like Gecko) Version/4.0 Chrome/37.0.0.0 Mobile MQQBrowser/6.8 TBS/036869 Safari/537.36 MicroMessenger/6.3.27.880 NetType/WIFI Language/zh_CN'
p97
sg16
S'ff5ab7c666fbfd81a267a9c85fa37e41'
p98
sa(dp99
g2
S'34557'
p100
sg4
S'1732'
p101
sg6
S'09ca09b656926cef7647082200d7e2d2'
p102
sg8
S'xxcb2bf6ad0f6bafe78eefa5186d4d19c4'
p103
sg10
S'xxa1eddb067d69156b5a420a68e90e67cd'
p104
sg12
S'xxf4735d1c3b632149266e23022e4c6cd9'
p105
sg14
S'Mozilla/5.0 (Linux; Android 4.4.2; CHM-UL00 Build/HonorCHM-UL00) AppleWebKit/537.36 (KHTML, like Gecko) Version/4.0 Chrome/37.0.0.0 Mobile MQQBrowser/6.8 TBS/036869 Safari/537.36 MicroMessenger/6.3.27.880 NetType/WIFI Language/zh_CN'
p106
sg16
S'ff5ab7c666fbfd81a267a9c85fa37e41'
p107
sa(dp108
g2
S'34557'
p109
sg4
S'1773'
p110
sg6
S'09ca09b656926cef7647082200d7e2d2'
p111
sg8
S'xxcb2bf6ad0f6bafe78eefa5186d4d19c4'
p112
sg10
S'xxa1eddb067d69156b5a420a68e90e67cd'
p113
sg12
S'xxf4735d1c3b632149266e23022e4c6cd9'
p114
sg14
S'Mozilla/5.0 (Linux; Android 4.4.2; CHM-UL00 Build/HonorCHM-UL00) AppleWebKit/537.36 (KHTML, like Gecko) Version/4.0 Chrome/37.0.0.0 Mobile MQQBrowser/6.8 TBS/036869 Safari/537.36 MicroMessenger/6.3.27.880 NetType/WIFI Language/zh_CN'
p115
sg16
S'ff5ab7c666fbfd81a267a9c85fa37e41'
p116
sa(dp117
g2
S'34557'
p118
sg4
S'1800'
p119
sg6
S'09ca09b656926cef7647082200d7e2d2'
p120
sg8
S'xxcb2bf6ad0f6bafe78eefa5186d4d19c4'
p121
sg10
S'xxa1eddb067d69156b5a420a68e90e67cd'
p122
sg12
S'xxf4735d1c3b632149266e23022e4c6cd9'
p123
sg14
S'Mozilla/5.0 (Linux; Android 4.4.2; CHM-UL00 Build/HonorCHM-UL00) AppleWebKit/537.36 (KHTML, like Gecko) Version/4.0 Chrome/37.0.0.0 Mobile MQQBrowser/6.8 TBS/036869 Safari/537.36 MicroMessenger/6.3.27.880 NetType/WIFI Language/zh_CN'
p124
sg16
S'ff5ab7c666fbfd81a267a9c85fa37e41'
p125
sa(dp126
g2
S'34557'
p127
sg4
S'1882'
p128
sg6
S'09ca09b656926cef7647082200d7e2d2'
p129
sg8
S'xxcb2bf6ad0f6bafe78eefa5186d4d19c4'
p130
sg10
S'xxa1eddb067d69156b5a420a68e90e67cd'
p131
sg12
S'xxf4735d1c3b632149266e23022e4c6cd9'
p132
sg14
S'Mozilla/5.0 (Linux; Android 4.4.2; CHM-UL00 Build/HonorCHM-UL00) AppleWebKit/537.36 (KHTML, like Gecko) Version/4.0 Chrome/37.0.0.0 Mobile MQQBrowser/6.8 TBS/036869 Safari/537.36 MicroMessenger/6.3.27.880 NetType/WIFI Language/zh_CN'
p133
sg16
S'ff5ab7c666fbfd81a267a9c85fa37e41'
p134
sa(dp135
g2
S'34557'
p136
sg4
S'1906'
p137
sg6
S'09ca09b656926cef7647082200d7e2d2'
p138
sg8
S'xxcb2bf6ad0f6bafe78eefa5186d4d19c4'
p139
sg10
S'xxa1eddb067d69156b5a420a68e90e67cd'
p140
sg12
S'xxf4735d1c3b632149266e23022e4c6cd9'
p141
sg14
S'Mozilla/5.0 (Linux; Android 4.4.2; CHM-UL00 Build/HonorCHM-UL00) AppleWebKit/537.36 (KHTML, like Gecko) Version/4.0 Chrome/37.0.0.0 Mobile MQQBrowser/6.8 TBS/036869 Safari/537.36 MicroMessenger/6.3.27.880 NetType/WIFI Language/zh_CN'
p142
sg16
S'ff5ab7c666fbfd81a267a9c85fa37e41'
p143
sa(dp144
g2
S'34557'
p145
sg4
S'1933'
p146
sg6
S'09ca09b656926cef7647082200d7e2d2'
p147
sg8
S'xxcb2bf6ad0f6bafe78eefa5186d4d19c4'
p148
sg10
S'xxa1eddb067d69156b5a420a68e90e67cd'
p149
sg12
S'xxf4735d1c3b632149266e23022e4c6cd9'
p150
sg14
S'Mozilla/5.0 (Linux; Android 4.4.2; CHM-UL00 Build/HonorCHM-UL00) AppleWebKit/537.36 (KHTML, like Gecko) Version/4.0 Chrome/37.0.0.0 Mobile MQQBrowser/6.8 TBS/036869 Safari/537.36 MicroMessenger/6.3.27.880 NetType/WIFI Language/zh_CN'
p151
sg16
S'ff5ab7c666fbfd81a267a9c85fa37e41'
p152
sa(dp153
g2
S'34557'
p154
sg4
S'2047'
p155
sg6
S'09ca09b656926cef7647082200d7e2d2'
p156
sg8
S'xxcb2bf6ad0f6bafe78eefa5186d4d19c4'
p157
sg10
S'xxa1eddb067d69156b5a420a68e90e67cd'
p158
sg12
S'xxf4735d1c3b632149266e23022e4c6cd9'
p159
sg14
S'Mozilla/5.0 (Linux; Android 4.4.2; CHM-UL00 Build/HonorCHM-UL00) AppleWebKit/537.36 (KHTML, like Gecko) Version/4.0 Chrome/37.0.0.0 Mobile MQQBrowser/6.8 TBS/036869 Safari/537.36 MicroMessenger/6.3.27.880 NetType/WIFI Language/zh_CN'
p160
sg16
S'ff5ab7c666fbfd81a267a9c85fa37e41'
p161
sa(dp162
g2
S'34557'
p163
sg4
S'2135'
p164
sg6
S'09ca09b656926cef7647082200d7e2d2'
p165
sg8
S'xxcb2bf6ad0f6bafe78eefa5186d4d19c4'
p166
sg10
S'xxa1eddb067d69156b5a420a68e90e67cd'
p167
sg12
S'xxf4735d1c3b632149266e23022e4c6cd9'
p168
sg14
S'Mozilla/5.0 (Linux; Android 4.4.2; CHM-UL00 Build/HonorCHM-UL00) AppleWebKit/537.36 (KHTML, like Gecko) Version/4.0 Chrome/37.0.0.0 Mobile MQQBrowser/6.8 TBS/036869 Safari/537.36 MicroMessenger/6.3.27.880 NetType/WIFI Language/zh_CN'
p169
sg16
S'ff5ab7c666fbfd81a267a9c85fa37e41'
p170
sa(dp171
g2
S'34557'
p172
sg4
S'2219'
p173
sg6
S'09ca09b656926cef7647082200d7e2d2'
p174
sg8
S'xxcb2bf6ad0f6bafe78eefa5186d4d19c4'
p175
sg10
S'xxa1eddb067d69156b5a420a68e90e67cd'
p176
sg12
S'xxf4735d1c3b632149266e23022e4c6cd9'
p177
sg14
S'Mozilla/5.0 (Linux; Android 4.4.2; CHM-UL00 Build/HonorCHM-UL00) AppleWebKit/537.36 (KHTML, like Gecko) Version/4.0 Chrome/37.0.0.0 Mobile MQQBrowser/6.8 TBS/036869 Safari/537.36 MicroMessenger/6.3.27.880 NetType/WIFI Language/zh_CN'
p178
sg16
S'ff5ab7c666fbfd81a267a9c85fa37e41'
p179
sa(dp180
g2
S'34557'
p181
sg4
S'2240'
p182
sg6
S'09ca09b656926cef7647082200d7e2d2'
p183
sg8
S'xxcb2bf6ad0f6bafe78eefa5186d4d19c4'
p184
sg10
S'xxa1eddb067d69156b5a420a68e90e67cd'
p185
sg12
S'xxf4735d1c3b632149266e23022e4c6cd9'
p186
sg14
S'Mozilla/5.0 (Linux; Android 4.4.2; CHM-UL00 Build/HonorCHM-UL00) AppleWebKit/537.36 (KHTML, like Gecko) Version/4.0 Chrome/37.0.0.0 Mobile MQQBrowser/6.8 TBS/036869 Safari/537.36 MicroMessenger/6.3.27.880 NetType/WIFI Language/zh_CN'
p187
sg16
S'ff5ab7c666fbfd81a267a9c85fa37e41'
p188
sa(dp189
g2
S'30222'
p190
sg4
S'6892'
p191
sg6
S'7470be4cdd895a5288c45b70e34cddc6'
p192
sg8
S'xx9c1ffa66b8c29a3050f80bee3d769e0d'
p193
sg10
S'xxa1eddb067d69156b5a420a68e90e67cd'
p194
sg12
S'xxf4735d1c3b632149266e23022e4c6cd9'
p195
sg14
S'Mozilla/5.0 (Linux; Android 4.4.2; CHM-UL00 Build/HonorCHM-UL00) AppleWebKit/537.36 (KHTML, like Gecko) Version/4.0 Chrome/37.0.0.0 Mobile MQQBrowser/6.8 TBS/036849 Safari/537.36 MicroMessenger/6.3.27.880 NetType/WIFI Language/zh_CN'
p196
sg16
S'c6742867b200b0354d300bb6a8908d2f'
p197
sa(dp198
g2
S'30222'
p199
sg4
S'6909'
p200
sg6
S'7470be4cdd895a5288c45b70e34cddc6'
p201
sg8
S'xx9c1ffa66b8c29a3050f80bee3d769e0d'
p202
sg10
S'xxa1eddb067d69156b5a420a68e90e67cd'
p203
sg12
S'xxf4735d1c3b632149266e23022e4c6cd9'
p204
sg14
S'Mozilla/5.0 (Linux; Android 4.4.2; CHM-UL00 Build/HonorCHM-UL00) AppleWebKit/537.36 (KHTML, like Gecko) Version/4.0 Chrome/37.0.0.0 Mobile MQQBrowser/6.8 TBS/036849 Safari/537.36 MicroMessenger/6.3.27.880 NetType/WIFI Language/zh_CN'
p205
sg16
S'c6742867b200b0354d300bb6a8908d2f'
p206
sa(dp207
g2
S'30222'
p208
sg4
S'6923'
p209
sg6
S'7470be4cdd895a5288c45b70e34cddc6'
p210
sg8
S'xx9c1ffa66b8c29a3050f80bee3d769e0d'
p211
sg10
S'xxa1eddb067d69156b5a420a68e90e67cd'
p212
sg12
S'xxf4735d1c3b632149266e23022e4c6cd9'
p213
sg14
S'Mozilla/5.0 (Linux; Android 4.4.2; CHM-UL00 Build/HonorCHM-UL00) AppleWebKit/537.36 (KHTML, like Gecko) Version/4.0 Chrome/37.0.0.0 Mobile MQQBrowser/6.8 TBS/036849 Safari/537.36 MicroMessenger/6.3.27.880 NetType/WIFI Language/zh_CN'
p214
sg16
S'c6742867b200b0354d300bb6a8908d2f'
p215
sa(dp216
g2
S'30222'
p217
sg4
S'6937'
p218
sg6
S'7470be4cdd895a5288c45b70e34cddc6'
p219
sg8
S'xx9c1ffa66b8c29a3050f80bee3d769e0d'
p220
sg10
S'xxa1eddb067d69156b5a420a68e90e67cd'
p221
sg12
S'xxf4735d1c3b632149266e23022e4c6cd9'
p222
sg14
S'Mozilla/5.0 (Linux; Android 4.4.2; CHM-UL00 Build/HonorCHM-UL00) AppleWebKit/537.36 (KHTML, like Gecko) Version/4.0 Chrome/37.0.0.0 Mobile MQQBrowser/6.8 TBS/036849 Safari/537.36 MicroMessenger/6.3.27.880 NetType/WIFI Language/zh_CN'
p223
sg16
S'c6742867b200b0354d300bb6a8908d2f'
p224
sa(dp225
g2
S'30222'
p226
sg4
S'7131'
p227
sg6
S'7470be4cdd895a5288c45b70e34cddc6'
p228
sg8
S'xx9c1ffa66b8c29a3050f80bee3d769e0d'
p229
sg10
S'xxa1eddb067d69156b5a420a68e90e67cd'
p230
sg12
S'xxf4735d1c3b632149266e23022e4c6cd9'
p231
sg14
S'Mozilla/5.0 (Linux; Android 4.4.2; CHM-UL00 Build/HonorCHM-UL00) AppleWebKit/537.36 (KHTML, like Gecko) Version/4.0 Chrome/37.0.0.0 Mobile MQQBrowser/6.8 TBS/036849 Safari/537.36 MicroMessenger/6.3.27.880 NetType/WIFI Language/zh_CN'
p232
sg16
S'c6742867b200b0354d300bb6a8908d2f'
p233
sa(dp234
g2
S'30222'
p235
sg4
S'7149'
p236
sg6
S'7470be4cdd895a5288c45b70e34cddc6'
p237
sg8
S'xx9c1ffa66b8c29a3050f80bee3d769e0d'
p238
sg10
S'xxa1eddb067d69156b5a420a68e90e67cd'
p239
sg12
S'xxf4735d1c3b632149266e23022e4c6cd9'
p240
sg14
S'Mozilla/5.0 (Linux; Android 4.4.2; CHM-UL00 Build/HonorCHM-UL00) AppleWebKit/537.36 (KHTML, like Gecko) Version/4.0 Chrome/37.0.0.0 Mobile MQQBrowser/6.8 TBS/036849 Safari/537.36 MicroMessenger/6.3.27.880 NetType/WIFI Language/zh_CN'
p241
sg16
S'c6742867b200b0354d300bb6a8908d2f'
p242
sa(dp243
g2
S'30222'
p244
sg4
S'7396'
p245
sg6
S'307d09ef627b5485c55ae945c44f4b07'
p246
sg8
S'xx88adf403c6ea4262f59224e00b6ba03e'
p247
sg10
S'xxa1eddb067d69156b5a420a68e90e67cd'
p248
sg12
S'xxf4735d1c3b632149266e23022e4c6cd9'
p249
sg14
S'Mozilla/5.0 (Linux; Android 4.4.2; CHM-UL00 Build/HonorCHM-UL00) AppleWebKit/537.36 (KHTML, like Gecko) Version/4.0 Chrome/37.0.0.0 Mobile MQQBrowser/6.8 TBS/036849 Safari/537.36 MicroMessenger/6.3.27.880 NetType/NON_NETWORK Language/zh_CN'
p250
sg16
S'2cc9dcf698707cb54074ca0d5d035be4'
p251
sa(dp252
g2
S'30222'
p253
sg4
S'7410'
p254
sg6
S'307d09ef627b5485c55ae945c44f4b07'
p255
sg8
S'xx88adf403c6ea4262f59224e00b6ba03e'
p256
sg10
S'xxa1eddb067d69156b5a420a68e90e67cd'
p257
sg12
S'xxf4735d1c3b632149266e23022e4c6cd9'
p258
sg14
S'Mozilla/5.0 (Linux; Android 4.4.2; CHM-UL00 Build/HonorCHM-UL00) AppleWebKit/537.36 (KHTML, like Gecko) Version/4.0 Chrome/37.0.0.0 Mobile MQQBrowser/6.8 TBS/036849 Safari/537.36 MicroMessenger/6.3.27.880 NetType/NON_NETWORK Language/zh_CN'
p259
sg16
S'2cc9dcf698707cb54074ca0d5d035be4'
p260
sa(dp261
g2
S'30222'
p262
sg4
S'7423'
p263
sg6
S'307d09ef627b5485c55ae945c44f4b07'
p264
sg8
S'xx88adf403c6ea4262f59224e00b6ba03e'
p265
sg10
S'xxa1eddb067d69156b5a420a68e90e67cd'
p266
sg12
S'xxf4735d1c3b632149266e23022e4c6cd9'
p267
sg14
S'Mozilla/5.0 (Linux; Android 4.4.2; CHM-UL00 Build/HonorCHM-UL00) AppleWebKit/537.36 (KHTML, like Gecko) Version/4.0 Chrome/37.0.0.0 Mobile MQQBrowser/6.8 TBS/036849 Safari/537.36 MicroMessenger/6.3.27.880 NetType/NON_NETWORK Language/zh_CN'
p268
sg16
S'2cc9dcf698707cb54074ca0d5d035be4'
p269
sa(dp270
g2
S'30222'
p271
sg4
S'8387'
p272
sg6
S'7470be4cdd895a5288c45b70e34cddc6'
p273
sg8
S'xx9c1ffa66b8c29a3050f80bee3d769e0d'
p274
sg10
S'xxa1eddb067d69156b5a420a68e90e67cd'
p275
sg12
S'xxf4735d1c3b632149266e23022e4c6cd9'
p276
sg14
S'Mozilla/5.0 (Linux; Android 4.4.2; CHM-UL00 Build/HonorCHM-UL00) AppleWebKit/537.36 (KHTML, like Gecko) Version/4.0 Chrome/37.0.0.0 Mobile MQQBrowser/6.8 TBS/036849 Safari/537.36 MicroMessenger/6.3.27.880 NetType/WIFI Language/zh_CN'
p277
sg16
S'c6742867b200b0354d300bb6a8908d2f'
p278
sa(dp279
g2
S'30222'
p280
sg4
S'8403'
p281
sg6
S'7470be4cdd895a5288c45b70e34cddc6'
p282
sg8
S'xx9c1ffa66b8c29a3050f80bee3d769e0d'
p283
sg10
S'xxa1eddb067d69156b5a420a68e90e67cd'
p284
sg12
S'xxf4735d1c3b632149266e23022e4c6cd9'
p285
sg14
S'Mozilla/5.0 (Linux; Android 4.4.2; CHM-UL00 Build/HonorCHM-UL00) AppleWebKit/537.36 (KHTML, like Gecko) Version/4.0 Chrome/37.0.0.0 Mobile MQQBrowser/6.8 TBS/036849 Safari/537.36 MicroMessenger/6.3.27.880 NetType/WIFI Language/zh_CN'
p286
sg16
S'c6742867b200b0354d300bb6a8908d2f'
p287
sa(dp288
g2
S'30222'
p289
sg4
S'8433'
p290
sg6
S'7470be4cdd895a5288c45b70e34cddc6'
p291
sg8
S'xx9c1ffa66b8c29a3050f80bee3d769e0d'
p292
sg10
S'xxa1eddb067d69156b5a420a68e90e67cd'
p293
sg12
S'xxf4735d1c3b632149266e23022e4c6cd9'
p294
sg14
S'Mozilla/5.0 (Linux; Android 4.4.2; CHM-UL00 Build/HonorCHM-UL00) AppleWebKit/537.36 (KHTML, like Gecko) Version/4.0 Chrome/37.0.0.0 Mobile MQQBrowser/6.8 TBS/036849 Safari/537.36 MicroMessenger/6.3.27.880 NetType/WIFI Language/zh_CN'
p295
sg16
S'c6742867b200b0354d300bb6a8908d2f'
p296
sa(dp297
g2
S'30222'
p298
sg4
S'8444'
p299
sg6
S'7470be4cdd895a5288c45b70e34cddc6'
p300
sg8
S'xx9c1ffa66b8c29a3050f80bee3d769e0d'
p301
sg10
S'xxa1eddb067d69156b5a420a68e90e67cd'
p302
sg12
S'xxf4735d1c3b632149266e23022e4c6cd9'
p303
sg14
S'Mozilla/5.0 (Linux; Android 4.4.2; CHM-UL00 Build/HonorCHM-UL00) AppleWebKit/537.36 (KHTML, like Gecko) Version/4.0 Chrome/37.0.0.0 Mobile MQQBrowser/6.8 TBS/036849 Safari/537.36 MicroMessenger/6.3.27.880 NetType/WIFI Language/zh_CN'
p304
sg16
S'c6742867b200b0354d300bb6a8908d2f'
p305
sa(dp306
g2
S'30222'
p307
sg4
S'8458'
p308
sg6
S'7470be4cdd895a5288c45b70e34cddc6'
p309
sg8
S'xx9c1ffa66b8c29a3050f80bee3d769e0d'
p310
sg10
S'xxa1eddb067d69156b5a420a68e90e67cd'
p311
sg12
S'xxf4735d1c3b632149266e23022e4c6cd9'
p312
sg14
S'Mozilla/5.0 (Linux; Android 4.4.2; CHM-UL00 Build/HonorCHM-UL00) AppleWebKit/537.36 (KHTML, like Gecko) Version/4.0 Chrome/37.0.0.0 Mobile MQQBrowser/6.8 TBS/036849 Safari/537.36 MicroMessenger/6.3.27.880 NetType/WIFI Language/zh_CN'
p313
sg16
S'c6742867b200b0354d300bb6a8908d2f'
p314
sa(dp315
g2
S'30222'
p316
sg4
S'8470'
p317
sg6
S'7470be4cdd895a5288c45b70e34cddc6'
p318
sg8
S'xx9c1ffa66b8c29a3050f80bee3d769e0d'
p319
sg10
S'xxa1eddb067d69156b5a420a68e90e67cd'
p320
sg12
S'xxf4735d1c3b632149266e23022e4c6cd9'
p321
sg14
S'Mozilla/5.0 (Linux; Android 4.4.2; CHM-UL00 Build/HonorCHM-UL00) AppleWebKit/537.36 (KHTML, like Gecko) Version/4.0 Chrome/37.0.0.0 Mobile MQQBrowser/6.8 TBS/036849 Safari/537.36 MicroMessenger/6.3.27.880 NetType/WIFI Language/zh_CN'
p322
sg16
S'c6742867b200b0354d300bb6a8908d2f'
p323
sa(dp324
g2
S'30222'
p325
sg4
S'8479'
p326
sg6
S'7470be4cdd895a5288c45b70e34cddc6'
p327
sg8
S'xx9c1ffa66b8c29a3050f80bee3d769e0d'
p328
sg10
S'xxa1eddb067d69156b5a420a68e90e67cd'
p329
sg12
S'xxf4735d1c3b632149266e23022e4c6cd9'
p330
sg14
S'Mozilla/5.0 (Linux; Android 4.4.2; CHM-UL00 Build/HonorCHM-UL00) AppleWebKit/537.36 (KHTML, like Gecko) Version/4.0 Chrome/37.0.0.0 Mobile MQQBrowser/6.8 TBS/036849 Safari/537.36 MicroMessenger/6.3.27.880 NetType/WIFI Language/zh_CN'
p331
sg16
S'c6742867b200b0354d300bb6a8908d2f'
p332
sa(dp333
g2
S'30222'
p334
sg4
S'8487'
p335
sg6
S'7470be4cdd895a5288c45b70e34cddc6'
p336
sg8
S'xx9c1ffa66b8c29a3050f80bee3d769e0d'
p337
sg10
S'xxa1eddb067d69156b5a420a68e90e67cd'
p338
sg12
S'xxf4735d1c3b632149266e23022e4c6cd9'
p339
sg14
S'Mozilla/5.0 (Linux; Android 4.4.2; CHM-UL00 Build/HonorCHM-UL00) AppleWebKit/537.36 (KHTML, like Gecko) Version/4.0 Chrome/37.0.0.0 Mobile MQQBrowser/6.8 TBS/036849 Safari/537.36 MicroMessenger/6.3.27.880 NetType/WIFI Language/zh_CN'
p340
sg16
S'c6742867b200b0354d300bb6a8908d2f'
p341
sa(dp342
g2
S'30222'
p343
sg4
S'8498'
p344
sg6
S'7470be4cdd895a5288c45b70e34cddc6'
p345
sg8
S'xx9c1ffa66b8c29a3050f80bee3d769e0d'
p346
sg10
S'xxa1eddb067d69156b5a420a68e90e67cd'
p347
sg12
S'xxf4735d1c3b632149266e23022e4c6cd9'
p348
sg14
S'Mozilla/5.0 (Linux; Android 4.4.2; CHM-UL00 Build/HonorCHM-UL00) AppleWebKit/537.36 (KHTML, like Gecko) Version/4.0 Chrome/37.0.0.0 Mobile MQQBrowser/6.8 TBS/036849 Safari/537.36 MicroMessenger/6.3.27.880 NetType/WIFI Language/zh_CN'
p349
sg16
S'c6742867b200b0354d300bb6a8908d2f'
p350
sa(dp351
g2
S'30222'
p352
sg4
S'8509'
p353
sg6
S'7470be4cdd895a5288c45b70e34cddc6'
p354
sg8
S'xx9c1ffa66b8c29a3050f80bee3d769e0d'
p355
sg10
S'xxa1eddb067d69156b5a420a68e90e67cd'
p356
sg12
S'xxf4735d1c3b632149266e23022e4c6cd9'
p357
sg14
S'Mozilla/5.0 (Linux; Android 4.4.2; CHM-UL00 Build/HonorCHM-UL00) AppleWebKit/537.36 (KHTML, like Gecko) Version/4.0 Chrome/37.0.0.0 Mobile MQQBrowser/6.8 TBS/036849 Safari/537.36 MicroMessenger/6.3.27.880 NetType/WIFI Language/zh_CN'
p358
sg16
S'c6742867b200b0354d300bb6a8908d2f'
p359
sa(dp360
g2
S'30222'
p361
sg4
S'8518'
p362
sg6
S'7470be4cdd895a5288c45b70e34cddc6'
p363
sg8
S'xx9c1ffa66b8c29a3050f80bee3d769e0d'
p364
sg10
S'xxa1eddb067d69156b5a420a68e90e67cd'
p365
sg12
S'xxf4735d1c3b632149266e23022e4c6cd9'
p366
sg14
S'Mozilla/5.0 (Linux; Android 4.4.2; CHM-UL00 Build/HonorCHM-UL00) AppleWebKit/537.36 (KHTML, like Gecko) Version/4.0 Chrome/37.0.0.0 Mobile MQQBrowser/6.8 TBS/036849 Safari/537.36 MicroMessenger/6.3.27.880 NetType/WIFI Language/zh_CN'
p367
sg16
S'c6742867b200b0354d300bb6a8908d2f'
p368
sa(dp369
g2
S'30222'
p370
sg4
S'8529'
p371
sg6
S'7470be4cdd895a5288c45b70e34cddc6'
p372
sg8
S'xx9c1ffa66b8c29a3050f80bee3d769e0d'
p373
sg10
S'xxa1eddb067d69156b5a420a68e90e67cd'
p374
sg12
S'xxf4735d1c3b632149266e23022e4c6cd9'
p375
sg14
S'Mozilla/5.0 (Linux; Android 4.4.2; CHM-UL00 Build/HonorCHM-UL00) AppleWebKit/537.36 (KHTML, like Gecko) Version/4.0 Chrome/37.0.0.0 Mobile MQQBrowser/6.8 TBS/036849 Safari/537.36 MicroMessenger/6.3.27.880 NetType/WIFI Language/zh_CN'
p376
sg16
S'c6742867b200b0354d300bb6a8908d2f'
p377
sa(dp378
g2
S'30222'
p379
sg4
S'8546'
p380
sg6
S'7470be4cdd895a5288c45b70e34cddc6'
p381
sg8
S'xx9c1ffa66b8c29a3050f80bee3d769e0d'
p382
sg10
S'xxa1eddb067d69156b5a420a68e90e67cd'
p383
sg12
S'xxf4735d1c3b632149266e23022e4c6cd9'
p384
sg14
S'Mozilla/5.0 (Linux; Android 4.4.2; CHM-UL00 Build/HonorCHM-UL00) AppleWebKit/537.36 (KHTML, like Gecko) Version/4.0 Chrome/37.0.0.0 Mobile MQQBrowser/6.8 TBS/036849 Safari/537.36 MicroMessenger/6.3.27.880 NetType/WIFI Language/zh_CN'
p385
sg16
S'c6742867b200b0354d300bb6a8908d2f'
p386
sa(dp387
g2
S'30222'
p388
sg4
S'8562'
p389
sg6
S'7470be4cdd895a5288c45b70e34cddc6'
p390
sg8
S'xx9c1ffa66b8c29a3050f80bee3d769e0d'
p391
sg10
S'xxa1eddb067d69156b5a420a68e90e67cd'
p392
sg12
S'xxf4735d1c3b632149266e23022e4c6cd9'
p393
sg14
S'Mozilla/5.0 (Linux; Android 4.4.2; CHM-UL00 Build/HonorCHM-UL00) AppleWebKit/537.36 (KHTML, like Gecko) Version/4.0 Chrome/37.0.0.0 Mobile MQQBrowser/6.8 TBS/036849 Safari/537.36 MicroMessenger/6.3.27.880 NetType/WIFI Language/zh_CN'
p394
sg16
S'c6742867b200b0354d300bb6a8908d2f'
p395
sa(dp396
g2
S'30222'
p397
sg4
S'8572'
p398
sg6
S'7470be4cdd895a5288c45b70e34cddc6'
p399
sg8
S'xx9c1ffa66b8c29a3050f80bee3d769e0d'
p400
sg10
S'xxa1eddb067d69156b5a420a68e90e67cd'
p401
sg12
S'xxf4735d1c3b632149266e23022e4c6cd9'
p402
sg14
S'Mozilla/5.0 (Linux; Android 4.4.2; CHM-UL00 Build/HonorCHM-UL00) AppleWebKit/537.36 (KHTML, like Gecko) Version/4.0 Chrome/37.0.0.0 Mobile MQQBrowser/6.8 TBS/036849 Safari/537.36 MicroMessenger/6.3.27.880 NetType/WIFI Language/zh_CN'
p403
sg16
S'c6742867b200b0354d300bb6a8908d2f'
p404
sa(dp405
g2
S'30222'
p406
sg4
S'8589'
p407
sg6
S'7470be4cdd895a5288c45b70e34cddc6'
p408
sg8
S'xx9c1ffa66b8c29a3050f80bee3d769e0d'
p409
sg10
S'xxa1eddb067d69156b5a420a68e90e67cd'
p410
sg12
S'xxf4735d1c3b632149266e23022e4c6cd9'
p411
sg14
S'Mozilla/5.0 (Linux; Android 4.4.2; CHM-UL00 Build/HonorCHM-UL00) AppleWebKit/537.36 (KHTML, like Gecko) Version/4.0 Chrome/37.0.0.0 Mobile MQQBrowser/6.8 TBS/036849 Safari/537.36 MicroMessenger/6.3.27.880 NetType/WIFI Language/zh_CN'
p412
sg16
S'c6742867b200b0354d300bb6a8908d2f'
p413
sa(dp414
g2
S'30222'
p415
sg4
S'8612'
p416
sg6
S'7470be4cdd895a5288c45b70e34cddc6'
p417
sg8
S'xx9c1ffa66b8c29a3050f80bee3d769e0d'
p418
sg10
S'xxa1eddb067d69156b5a420a68e90e67cd'
p419
sg12
S'xxf4735d1c3b632149266e23022e4c6cd9'
p420
sg14
S'Mozilla/5.0 (Linux; Android 4.4.2; CHM-UL00 Build/HonorCHM-UL00) AppleWebKit/537.36 (KHTML, like Gecko) Version/4.0 Chrome/37.0.0.0 Mobile MQQBrowser/6.8 TBS/036849 Safari/537.36 MicroMessenger/6.3.27.880 NetType/WIFI Language/zh_CN'
p421
sg16
S'c6742867b200b0354d300bb6a8908d2f'
p422
sa(dp423
g2
S'30222'
p424
sg4
S'8632'
p425
sg6
S'7470be4cdd895a5288c45b70e34cddc6'
p426
sg8
S'xx9c1ffa66b8c29a3050f80bee3d769e0d'
p427
sg10
S'xxa1eddb067d69156b5a420a68e90e67cd'
p428
sg12
S'xxf4735d1c3b632149266e23022e4c6cd9'
p429
sg14
S'Mozilla/5.0 (Linux; Android 4.4.2; CHM-UL00 Build/HonorCHM-UL00) AppleWebKit/537.36 (KHTML, like Gecko) Version/4.0 Chrome/37.0.0.0 Mobile MQQBrowser/6.8 TBS/036849 Safari/537.36 MicroMessenger/6.3.27.880 NetType/WIFI Language/zh_CN'
p430
sg16
S'c6742867b200b0354d300bb6a8908d2f'
p431
sa(dp432
g2
S'30222'
p433
sg4
S'8649'
p434
sg6
S'7470be4cdd895a5288c45b70e34cddc6'
p435
sg8
S'xx9c1ffa66b8c29a3050f80bee3d769e0d'
p436
sg10
S'xxa1eddb067d69156b5a420a68e90e67cd'
p437
sg12
S'xxf4735d1c3b632149266e23022e4c6cd9'
p438
sg14
S'Mozilla/5.0 (Linux; Android 4.4.2; CHM-UL00 Build/HonorCHM-UL00) AppleWebKit/537.36 (KHTML, like Gecko) Version/4.0 Chrome/37.0.0.0 Mobile MQQBrowser/6.8 TBS/036849 Safari/537.36 MicroMessenger/6.3.27.880 NetType/WIFI Language/zh_CN'
p439
sg16
S'c6742867b200b0354d300bb6a8908d2f'
p440
sa(dp441
g2
S'30222'
p442
sg4
S'8665'
p443
sg6
S'7470be4cdd895a5288c45b70e34cddc6'
p444
sg8
S'xx9c1ffa66b8c29a3050f80bee3d769e0d'
p445
sg10
S'xxa1eddb067d69156b5a420a68e90e67cd'
p446
sg12
S'xxf4735d1c3b632149266e23022e4c6cd9'
p447
sg14
S'Mozilla/5.0 (Linux; Android 4.4.2; CHM-UL00 Build/HonorCHM-UL00) AppleWebKit/537.36 (KHTML, like Gecko) Version/4.0 Chrome/37.0.0.0 Mobile MQQBrowser/6.8 TBS/036849 Safari/537.36 MicroMessenger/6.3.27.880 NetType/WIFI Language/zh_CN'
p448
sg16
S'c6742867b200b0354d300bb6a8908d2f'
p449
sa(dp450
g2
S'30222'
p451
sg4
S'8685'
p452
sg6
S'7470be4cdd895a5288c45b70e34cddc6'
p453
sg8
S'xx9c1ffa66b8c29a3050f80bee3d769e0d'
p454
sg10
S'xxa1eddb067d69156b5a420a68e90e67cd'
p455
sg12
S'xxf4735d1c3b632149266e23022e4c6cd9'
p456
sg14
S'Mozilla/5.0 (Linux; Android 4.4.2; CHM-UL00 Build/HonorCHM-UL00) AppleWebKit/537.36 (KHTML, like Gecko) Version/4.0 Chrome/37.0.0.0 Mobile MQQBrowser/6.8 TBS/036849 Safari/537.36 MicroMessenger/6.3.27.880 NetType/WIFI Language/zh_CN'
p457
sg16
S'c6742867b200b0354d300bb6a8908d2f'
p458
sa(dp459
g2
S'30222'
p460
sg4
S'8702'
p461
sg6
S'7470be4cdd895a5288c45b70e34cddc6'
p462
sg8
S'xx9c1ffa66b8c29a3050f80bee3d769e0d'
p463
sg10
S'xxa1eddb067d69156b5a420a68e90e67cd'
p464
sg12
S'xxf4735d1c3b632149266e23022e4c6cd9'
p465
sg14
S'Mozilla/5.0 (Linux; Android 4.4.2; CHM-UL00 Build/HonorCHM-UL00) AppleWebKit/537.36 (KHTML, like Gecko) Version/4.0 Chrome/37.0.0.0 Mobile MQQBrowser/6.8 TBS/036849 Safari/537.36 MicroMessenger/6.3.27.880 NetType/WIFI Language/zh_CN'
p466
sg16
S'c6742867b200b0354d300bb6a8908d2f'
p467
sa(dp468
g2
S'30222'
p469
sg4
S'8719'
p470
sg6
S'7470be4cdd895a5288c45b70e34cddc6'
p471
sg8
S'xx9c1ffa66b8c29a3050f80bee3d769e0d'
p472
sg10
S'xxa1eddb067d69156b5a420a68e90e67cd'
p473
sg12
S'xxf4735d1c3b632149266e23022e4c6cd9'
p474
sg14
S'Mozilla/5.0 (Linux; Android 4.4.2; CHM-UL00 Build/HonorCHM-UL00) AppleWebKit/537.36 (KHTML, like Gecko) Version/4.0 Chrome/37.0.0.0 Mobile MQQBrowser/6.8 TBS/036849 Safari/537.36 MicroMessenger/6.3.27.880 NetType/WIFI Language/zh_CN'
p475
sg16
S'c6742867b200b0354d300bb6a8908d2f'
p476
sa(dp477
g2
S'30222'
p478
sg4
S'8733'
p479
sg6
S'7470be4cdd895a5288c45b70e34cddc6'
p480
sg8
S'xx9c1ffa66b8c29a3050f80bee3d769e0d'
p481
sg10
S'xxa1eddb067d69156b5a420a68e90e67cd'
p482
sg12
S'xxf4735d1c3b632149266e23022e4c6cd9'
p483
sg14
S'Mozilla/5.0 (Linux; Android 4.4.2; CHM-UL00 Build/HonorCHM-UL00) AppleWebKit/537.36 (KHTML, like Gecko) Version/4.0 Chrome/37.0.0.0 Mobile MQQBrowser/6.8 TBS/036849 Safari/537.36 MicroMessenger/6.3.27.880 NetType/WIFI Language/zh_CN'
p484
sg16
S'c6742867b200b0354d300bb6a8908d2f'
p485
sa(dp486
g2
S'30222'
p487
sg4
S'8748'
p488
sg6
S'7470be4cdd895a5288c45b70e34cddc6'
p489
sg8
S'xx9c1ffa66b8c29a3050f80bee3d769e0d'
p490
sg10
S'xxa1eddb067d69156b5a420a68e90e67cd'
p491
sg12
S'xxf4735d1c3b632149266e23022e4c6cd9'
p492
sg14
S'Mozilla/5.0 (Linux; Android 4.4.2; CHM-UL00 Build/HonorCHM-UL00) AppleWebKit/537.36 (KHTML, like Gecko) Version/4.0 Chrome/37.0.0.0 Mobile MQQBrowser/6.8 TBS/036849 Safari/537.36 MicroMessenger/6.3.27.880 NetType/WIFI Language/zh_CN'
p493
sg16
S'c6742867b200b0354d300bb6a8908d2f'
p494
sa(dp495
g2
S'30222'
p496
sg4
S'8761'
p497
sg6
S'7470be4cdd895a5288c45b70e34cddc6'
p498
sg8
S'xx9c1ffa66b8c29a3050f80bee3d769e0d'
p499
sg10
S'xxa1eddb067d69156b5a420a68e90e67cd'
p500
sg12
S'xxf4735d1c3b632149266e23022e4c6cd9'
p501
sg14
S'Mozilla/5.0 (Linux; Android 4.4.2; CHM-UL00 Build/HonorCHM-UL00) AppleWebKit/537.36 (KHTML, like Gecko) Version/4.0 Chrome/37.0.0.0 Mobile MQQBrowser/6.8 TBS/036849 Safari/537.36 MicroMessenger/6.3.27.880 NetType/WIFI Language/zh_CN'
p502
sg16
S'c6742867b200b0354d300bb6a8908d2f'
p503
sa(dp504
g2
S'30222'
p505
sg4
S'8770'
p506
sg6
S'7470be4cdd895a5288c45b70e34cddc6'
p507
sg8
S'xx9c1ffa66b8c29a3050f80bee3d769e0d'
p508
sg10
S'xxa1eddb067d69156b5a420a68e90e67cd'
p509
sg12
S'xxf4735d1c3b632149266e23022e4c6cd9'
p510
sg14
S'Mozilla/5.0 (Linux; Android 4.4.2; CHM-UL00 Build/HonorCHM-UL00) AppleWebKit/537.36 (KHTML, like Gecko) Version/4.0 Chrome/37.0.0.0 Mobile MQQBrowser/6.8 TBS/036849 Safari/537.36 MicroMessenger/6.3.27.880 NetType/WIFI Language/zh_CN'
p511
sg16
S'c6742867b200b0354d300bb6a8908d2f'
p512
sa(dp513
g2
S'30222'
p514
sg4
S'8781'
p515
sg6
S'7470be4cdd895a5288c45b70e34cddc6'
p516
sg8
S'xx9c1ffa66b8c29a3050f80bee3d769e0d'
p517
sg10
S'xxa1eddb067d69156b5a420a68e90e67cd'
p518
sg12
S'xxf4735d1c3b632149266e23022e4c6cd9'
p519
sg14
S'Mozilla/5.0 (Linux; Android 4.4.2; CHM-UL00 Build/HonorCHM-UL00) AppleWebKit/537.36 (KHTML, like Gecko) Version/4.0 Chrome/37.0.0.0 Mobile MQQBrowser/6.8 TBS/036849 Safari/537.36 MicroMessenger/6.3.27.880 NetType/WIFI Language/zh_CN'
p520
sg16
S'c6742867b200b0354d300bb6a8908d2f'
p521
sa(dp522
g2
S'30222'
p523
sg4
S'8793'
p524
sg6
S'7470be4cdd895a5288c45b70e34cddc6'
p525
sg8
S'xx9c1ffa66b8c29a3050f80bee3d769e0d'
p526
sg10
S'xxa1eddb067d69156b5a420a68e90e67cd'
p527
sg12
S'xxf4735d1c3b632149266e23022e4c6cd9'
p528
sg14
S'Mozilla/5.0 (Linux; Android 4.4.2; CHM-UL00 Build/HonorCHM-UL00) AppleWebKit/537.36 (KHTML, like Gecko) Version/4.0 Chrome/37.0.0.0 Mobile MQQBrowser/6.8 TBS/036849 Safari/537.36 MicroMessenger/6.3.27.880 NetType/WIFI Language/zh_CN'
p529
sg16
S'c6742867b200b0354d300bb6a8908d2f'
p530
sa(dp531
g2
S'30222'
p532
sg4
S'8804'
p533
sg6
S'7470be4cdd895a5288c45b70e34cddc6'
p534
sg8
S'xx9c1ffa66b8c29a3050f80bee3d769e0d'
p535
sg10
S'xxa1eddb067d69156b5a420a68e90e67cd'
p536
sg12
S'xxf4735d1c3b632149266e23022e4c6cd9'
p537
sg14
S'Mozilla/5.0 (Linux; Android 4.4.2; CHM-UL00 Build/HonorCHM-UL00) AppleWebKit/537.36 (KHTML, like Gecko) Version/4.0 Chrome/37.0.0.0 Mobile MQQBrowser/6.8 TBS/036849 Safari/537.36 MicroMessenger/6.3.27.880 NetType/WIFI Language/zh_CN'
p538
sg16
S'c6742867b200b0354d300bb6a8908d2f'
p539
sa(dp540
g2
S'30222'
p541
sg4
S'8812'
p542
sg6
S'7470be4cdd895a5288c45b70e34cddc6'
p543
sg8
S'xx9c1ffa66b8c29a3050f80bee3d769e0d'
p544
sg10
S'xxa1eddb067d69156b5a420a68e90e67cd'
p545
sg12
S'xxf4735d1c3b632149266e23022e4c6cd9'
p546
sg14
S'Mozilla/5.0 (Linux; Android 4.4.2; CHM-UL00 Build/HonorCHM-UL00) AppleWebKit/537.36 (KHTML, like Gecko) Version/4.0 Chrome/37.0.0.0 Mobile MQQBrowser/6.8 TBS/036849 Safari/537.36 MicroMessenger/6.3.27.880 NetType/WIFI Language/zh_CN'
p547
sg16
S'c6742867b200b0354d300bb6a8908d2f'
p548
sa(dp549
g2
S'30222'
p550
sg4
S'8822'
p551
sg6
S'7470be4cdd895a5288c45b70e34cddc6'
p552
sg8
S'xx9c1ffa66b8c29a3050f80bee3d769e0d'
p553
sg10
S'xxa1eddb067d69156b5a420a68e90e67cd'
p554
sg12
S'xxf4735d1c3b632149266e23022e4c6cd9'
p555
sg14
S'Mozilla/5.0 (Linux; Android 4.4.2; CHM-UL00 Build/HonorCHM-UL00) AppleWebKit/537.36 (KHTML, like Gecko) Version/4.0 Chrome/37.0.0.0 Mobile MQQBrowser/6.8 TBS/036849 Safari/537.36 MicroMessenger/6.3.27.880 NetType/WIFI Language/zh_CN'
p556
sg16
S'c6742867b200b0354d300bb6a8908d2f'
p557
sa(dp558
g2
S'30222'
p559
sg4
S'8838'
p560
sg6
S'7470be4cdd895a5288c45b70e34cddc6'
p561
sg8
S'xx9c1ffa66b8c29a3050f80bee3d769e0d'
p562
sg10
S'xxa1eddb067d69156b5a420a68e90e67cd'
p563
sg12
S'xxf4735d1c3b632149266e23022e4c6cd9'
p564
sg14
S'Mozilla/5.0 (Linux; Android 4.4.2; CHM-UL00 Build/HonorCHM-UL00) AppleWebKit/537.36 (KHTML, like Gecko) Version/4.0 Chrome/37.0.0.0 Mobile MQQBrowser/6.8 TBS/036849 Safari/537.36 MicroMessenger/6.3.27.880 NetType/WIFI Language/zh_CN'
p565
sg16
S'c6742867b200b0354d300bb6a8908d2f'
p566
sa.