(lp0
(dp1
S'user_id'
p2
S'41195'
p3
sS'data_id'
p4
S'652'
p5
sS'ip'
p6
S'f0af0dc0876ed38e40a97c080b40a423'
p7
sS'phone_B'
p8
S'xxc609fb3864b79156d44c2331a67ab152'
p9
sS'phone_C'
p10
S'xxf0692215d284ed85ce578735b6933e3a'
p11
sS'phone_A'
p12
S'xxf445651dd8baa6965e28bd05bcefd0cf'
p13
sS'user_agent'
p14
S'Mozilla/5.0 (Linux; Android 5.0.2; vivo Y31A Build/LRX22G) AppleWebKit/537.36 (KHTML, like Gecko) Version/4.0 Chrome/37.0.0.0 Mobile MQQBrowser/6.8 TBS/036824 Safari/537.36 MicroMessenger/6.3.27.880 NetType/cmnet Language/zh_CN'
p15
sS'ua'
p16
S'43dbf27fb0057b509b05c181f7bddad8'
p17
sa(dp18
g2
S'41195'
p19
sg4
S'668'
p20
sg6
S'f0af0dc0876ed38e40a97c080b40a423'
p21
sg8
S'xxc609fb3864b79156d44c2331a67ab152'
p22
sg10
S'xxf0692215d284ed85ce578735b6933e3a'
p23
sg12
S'xxf445651dd8baa6965e28bd05bcefd0cf'
p24
sg14
S'Mozilla/5.0 (Linux; Android 5.0.2; vivo Y31A Build/LRX22G) AppleWebKit/537.36 (KHTML, like Gecko) Version/4.0 Chrome/37.0.0.0 Mobile MQQBrowser/6.8 TBS/036824 Safari/537.36 MicroMessenger/6.3.27.880 NetType/cmnet Language/zh_CN'
p25
sg16
S'43dbf27fb0057b509b05c181f7bddad8'
p26
sa(dp27
g2
S'41195'
p28
sg4
S'748'
p29
sg6
S'f0af0dc0876ed38e40a97c080b40a423'
p30
sg8
S'xxc609fb3864b79156d44c2331a67ab152'
p31
sg10
S'xxf0692215d284ed85ce578735b6933e3a'
p32
sg12
S'xxf445651dd8baa6965e28bd05bcefd0cf'
p33
sg14
S'Mozilla/5.0 (Linux; Android 5.0.2; vivo Y31A Build/LRX22G) AppleWebKit/537.36 (KHTML, like Gecko) Version/4.0 Chrome/37.0.0.0 Mobile MQQBrowser/6.8 TBS/036824 Safari/537.36 MicroMessenger/6.3.27.880 NetType/cmnet Language/zh_CN'
p34
sg16
S'43dbf27fb0057b509b05c181f7bddad8'
p35
sa(dp36
g2
S'41195'
p37
sg4
S'761'
p38
sg6
S'f0af0dc0876ed38e40a97c080b40a423'
p39
sg8
S'xxc609fb3864b79156d44c2331a67ab152'
p40
sg10
S'xxf0692215d284ed85ce578735b6933e3a'
p41
sg12
S'xxf445651dd8baa6965e28bd05bcefd0cf'
p42
sg14
S'Mozilla/5.0 (Linux; Android 5.0.2; vivo Y31A Build/LRX22G) AppleWebKit/537.36 (KHTML, like Gecko) Version/4.0 Chrome/37.0.0.0 Mobile MQQBrowser/6.8 TBS/036824 Safari/537.36 MicroMessenger/6.3.27.880 NetType/cmnet Language/zh_CN'
p43
sg16
S'43dbf27fb0057b509b05c181f7bddad8'
p44
sa(dp45
g2
S'41195'
p46
sg4
S'1397'
p47
sg6
S'f0af0dc0876ed38e40a97c080b40a423'
p48
sg8
S'xxc609fb3864b79156d44c2331a67ab152'
p49
sg10
S'xxf0692215d284ed85ce578735b6933e3a'
p50
sg12
S'xxf445651dd8baa6965e28bd05bcefd0cf'
p51
sg14
S'Mozilla/5.0 (Linux; Android 5.0.2; vivo Y31A Build/LRX22G) AppleWebKit/537.36 (KHTML, like Gecko) Version/4.0 Chrome/37.0.0.0 Mobile MQQBrowser/6.8 TBS/036824 Safari/537.36 MicroMessenger/6.3.27.880 NetType/cmnet Language/zh_CN'
p52
sg16
S'43dbf27fb0057b509b05c181f7bddad8'
p53
sa(dp54
g2
S'41195'
p55
sg4
S'1413'
p56
sg6
S'f0af0dc0876ed38e40a97c080b40a423'
p57
sg8
S'xxc609fb3864b79156d44c2331a67ab152'
p58
sg10
S'xxf0692215d284ed85ce578735b6933e3a'
p59
sg12
S'xxf445651dd8baa6965e28bd05bcefd0cf'
p60
sg14
S'Mozilla/5.0 (Linux; Android 5.0.2; vivo Y31A Build/LRX22G) AppleWebKit/537.36 (KHTML, like Gecko) Version/4.0 Chrome/37.0.0.0 Mobile MQQBrowser/6.8 TBS/036824 Safari/537.36 MicroMessenger/6.3.27.880 NetType/cmnet Language/zh_CN'
p61
sg16
S'43dbf27fb0057b509b05c181f7bddad8'
p62
sa(dp63
g2
S'41195'
p64
sg4
S'2234'
p65
sg6
S'f0af0dc0876ed38e40a97c080b40a423'
p66
sg8
S'xxc609fb3864b79156d44c2331a67ab152'
p67
sg10
S'xxf0692215d284ed85ce578735b6933e3a'
p68
sg12
S'xxf445651dd8baa6965e28bd05bcefd0cf'
p69
sg14
S'Mozilla/5.0 (Linux; Android 5.0.2; vivo Y31A Build/LRX22G) AppleWebKit/537.36 (KHTML, like Gecko) Version/4.0 Chrome/37.0.0.0 Mobile MQQBrowser/6.8 TBS/036824 Safari/537.36 MicroMessenger/6.3.27.880 NetType/cmnet Language/zh_CN'
p70
sg16
S'43dbf27fb0057b509b05c181f7bddad8'
p71
sa(dp72
g2
S'41195'
p73
sg4
S'2252'
p74
sg6
S'f0af0dc0876ed38e40a97c080b40a423'
p75
sg8
S'xxc609fb3864b79156d44c2331a67ab152'
p76
sg10
S'xxf0692215d284ed85ce578735b6933e3a'
p77
sg12
S'xxf445651dd8baa6965e28bd05bcefd0cf'
p78
sg14
S'Mozilla/5.0 (Linux; Android 5.0.2; vivo Y31A Build/LRX22G) AppleWebKit/537.36 (KHTML, like Gecko) Version/4.0 Chrome/37.0.0.0 Mobile MQQBrowser/6.8 TBS/036824 Safari/537.36 MicroMessenger/6.3.27.880 NetType/cmnet Language/zh_CN'
p79
sg16
S'43dbf27fb0057b509b05c181f7bddad8'
p80
sa(dp81
g2
S'41195'
p82
sg4
S'2267'
p83
sg6
S'f0af0dc0876ed38e40a97c080b40a423'
p84
sg8
S'xxc609fb3864b79156d44c2331a67ab152'
p85
sg10
S'xxf0692215d284ed85ce578735b6933e3a'
p86
sg12
S'xxf445651dd8baa6965e28bd05bcefd0cf'
p87
sg14
S'Mozilla/5.0 (Linux; Android 5.0.2; vivo Y31A Build/LRX22G) AppleWebKit/537.36 (KHTML, like Gecko) Version/4.0 Chrome/37.0.0.0 Mobile MQQBrowser/6.8 TBS/036824 Safari/537.36 MicroMessenger/6.3.27.880 NetType/cmnet Language/zh_CN'
p88
sg16
S'43dbf27fb0057b509b05c181f7bddad8'
p89
sa(dp90
g2
S'41195'
p91
sg4
S'2281'
p92
sg6
S'f0af0dc0876ed38e40a97c080b40a423'
p93
sg8
S'xxc609fb3864b79156d44c2331a67ab152'
p94
sg10
S'xxf0692215d284ed85ce578735b6933e3a'
p95
sg12
S'xxf445651dd8baa6965e28bd05bcefd0cf'
p96
sg14
S'Mozilla/5.0 (Linux; Android 5.0.2; vivo Y31A Build/LRX22G) AppleWebKit/537.36 (KHTML, like Gecko) Version/4.0 Chrome/37.0.0.0 Mobile MQQBrowser/6.8 TBS/036824 Safari/537.36 MicroMessenger/6.3.27.880 NetType/cmnet Language/zh_CN'
p97
sg16
S'43dbf27fb0057b509b05c181f7bddad8'
p98
sa(dp99
g2
S'41195'
p100
sg4
S'2294'
p101
sg6
S'f0af0dc0876ed38e40a97c080b40a423'
p102
sg8
S'xxc609fb3864b79156d44c2331a67ab152'
p103
sg10
S'xxf0692215d284ed85ce578735b6933e3a'
p104
sg12
S'xxf445651dd8baa6965e28bd05bcefd0cf'
p105
sg14
S'Mozilla/5.0 (Linux; Android 5.0.2; vivo Y31A Build/LRX22G) AppleWebKit/537.36 (KHTML, like Gecko) Version/4.0 Chrome/37.0.0.0 Mobile MQQBrowser/6.8 TBS/036824 Safari/537.36 MicroMessenger/6.3.27.880 NetType/cmnet Language/zh_CN'
p106
sg16
S'43dbf27fb0057b509b05c181f7bddad8'
p107
sa(dp108
g2
S'41195'
p109
sg4
S'2309'
p110
sg6
S'f0af0dc0876ed38e40a97c080b40a423'
p111
sg8
S'xxc609fb3864b79156d44c2331a67ab152'
p112
sg10
S'xxf0692215d284ed85ce578735b6933e3a'
p113
sg12
S'xxf445651dd8baa6965e28bd05bcefd0cf'
p114
sg14
S'Mozilla/5.0 (Linux; Android 5.0.2; vivo Y31A Build/LRX22G) AppleWebKit/537.36 (KHTML, like Gecko) Version/4.0 Chrome/37.0.0.0 Mobile MQQBrowser/6.8 TBS/036824 Safari/537.36 MicroMessenger/6.3.27.880 NetType/cmnet Language/zh_CN'
p115
sg16
S'43dbf27fb0057b509b05c181f7bddad8'
p116
sa(dp117
g2
S'41195'
p118
sg4
S'2321'
p119
sg6
S'f0af0dc0876ed38e40a97c080b40a423'
p120
sg8
S'xxc609fb3864b79156d44c2331a67ab152'
p121
sg10
S'xxf0692215d284ed85ce578735b6933e3a'
p122
sg12
S'xxf445651dd8baa6965e28bd05bcefd0cf'
p123
sg14
S'Mozilla/5.0 (Linux; Android 5.0.2; vivo Y31A Build/LRX22G) AppleWebKit/537.36 (KHTML, like Gecko) Version/4.0 Chrome/37.0.0.0 Mobile MQQBrowser/6.8 TBS/036824 Safari/537.36 MicroMessenger/6.3.27.880 NetType/cmnet Language/zh_CN'
p124
sg16
S'43dbf27fb0057b509b05c181f7bddad8'
p125
sa(dp126
g2
S'41195'
p127
sg4
S'2333'
p128
sg6
S'f0af0dc0876ed38e40a97c080b40a423'
p129
sg8
S'xxc609fb3864b79156d44c2331a67ab152'
p130
sg10
S'xxf0692215d284ed85ce578735b6933e3a'
p131
sg12
S'xxf445651dd8baa6965e28bd05bcefd0cf'
p132
sg14
S'Mozilla/5.0 (Linux; Android 5.0.2; vivo Y31A Build/LRX22G) AppleWebKit/537.36 (KHTML, like Gecko) Version/4.0 Chrome/37.0.0.0 Mobile MQQBrowser/6.8 TBS/036824 Safari/537.36 MicroMessenger/6.3.27.880 NetType/cmnet Language/zh_CN'
p133
sg16
S'43dbf27fb0057b509b05c181f7bddad8'
p134
sa(dp135
g2
S'41195'
p136
sg4
S'2718'
p137
sg6
S'f0af0dc0876ed38e40a97c080b40a423'
p138
sg8
S'xxc609fb3864b79156d44c2331a67ab152'
p139
sg10
S'xxf0692215d284ed85ce578735b6933e3a'
p140
sg12
S'xxf445651dd8baa6965e28bd05bcefd0cf'
p141
sg14
S'Mozilla/5.0 (Linux; Android 5.0.2; vivo Y31A Build/LRX22G) AppleWebKit/537.36 (KHTML, like Gecko) Version/4.0 Chrome/37.0.0.0 Mobile MQQBrowser/6.8 TBS/036824 Safari/537.36 MicroMessenger/6.3.27.880 NetType/cmnet Language/zh_CN'
p142
sg16
S'43dbf27fb0057b509b05c181f7bddad8'
p143
sa(dp144
g2
S'41195'
p145
sg4
S'2737'
p146
sg6
S'f0af0dc0876ed38e40a97c080b40a423'
p147
sg8
S'xxc609fb3864b79156d44c2331a67ab152'
p148
sg10
S'xxf0692215d284ed85ce578735b6933e3a'
p149
sg12
S'xxf445651dd8baa6965e28bd05bcefd0cf'
p150
sg14
S'Mozilla/5.0 (Linux; Android 5.0.2; vivo Y31A Build/LRX22G) AppleWebKit/537.36 (KHTML, like Gecko) Version/4.0 Chrome/37.0.0.0 Mobile MQQBrowser/6.8 TBS/036824 Safari/537.36 MicroMessenger/6.3.27.880 NetType/cmnet Language/zh_CN'
p151
sg16
S'43dbf27fb0057b509b05c181f7bddad8'
p152
sa(dp153
g2
S'41195'
p154
sg4
S'2760'
p155
sg6
S'f0af0dc0876ed38e40a97c080b40a423'
p156
sg8
S'xxc609fb3864b79156d44c2331a67ab152'
p157
sg10
S'xxf0692215d284ed85ce578735b6933e3a'
p158
sg12
S'xxf445651dd8baa6965e28bd05bcefd0cf'
p159
sg14
S'Mozilla/5.0 (Linux; Android 5.0.2; vivo Y31A Build/LRX22G) AppleWebKit/537.36 (KHTML, like Gecko) Version/4.0 Chrome/37.0.0.0 Mobile MQQBrowser/6.8 TBS/036824 Safari/537.36 MicroMessenger/6.3.27.880 NetType/cmnet Language/zh_CN'
p160
sg16
S'43dbf27fb0057b509b05c181f7bddad8'
p161
sa(dp162
g2
S'41195'
p163
sg4
S'2773'
p164
sg6
S'f0af0dc0876ed38e40a97c080b40a423'
p165
sg8
S'xxc609fb3864b79156d44c2331a67ab152'
p166
sg10
S'xxf0692215d284ed85ce578735b6933e3a'
p167
sg12
S'xxf445651dd8baa6965e28bd05bcefd0cf'
p168
sg14
S'Mozilla/5.0 (Linux; Android 5.0.2; vivo Y31A Build/LRX22G) AppleWebKit/537.36 (KHTML, like Gecko) Version/4.0 Chrome/37.0.0.0 Mobile MQQBrowser/6.8 TBS/036824 Safari/537.36 MicroMessenger/6.3.27.880 NetType/cmnet Language/zh_CN'
p169
sg16
S'43dbf27fb0057b509b05c181f7bddad8'
p170
sa(dp171
g2
S'41195'
p172
sg4
S'2783'
p173
sg6
S'f0af0dc0876ed38e40a97c080b40a423'
p174
sg8
S'xxc609fb3864b79156d44c2331a67ab152'
p175
sg10
S'xxf0692215d284ed85ce578735b6933e3a'
p176
sg12
S'xxf445651dd8baa6965e28bd05bcefd0cf'
p177
sg14
S'Mozilla/5.0 (Linux; Android 5.0.2; vivo Y31A Build/LRX22G) AppleWebKit/537.36 (KHTML, like Gecko) Version/4.0 Chrome/37.0.0.0 Mobile MQQBrowser/6.8 TBS/036824 Safari/537.36 MicroMessenger/6.3.27.880 NetType/cmnet Language/zh_CN'
p178
sg16
S'43dbf27fb0057b509b05c181f7bddad8'
p179
sa(dp180
g2
S'41195'
p181
sg4
S'2793'
p182
sg6
S'f0af0dc0876ed38e40a97c080b40a423'
p183
sg8
S'xxc609fb3864b79156d44c2331a67ab152'
p184
sg10
S'xxf0692215d284ed85ce578735b6933e3a'
p185
sg12
S'xxf445651dd8baa6965e28bd05bcefd0cf'
p186
sg14
S'Mozilla/5.0 (Linux; Android 5.0.2; vivo Y31A Build/LRX22G) AppleWebKit/537.36 (KHTML, like Gecko) Version/4.0 Chrome/37.0.0.0 Mobile MQQBrowser/6.8 TBS/036824 Safari/537.36 MicroMessenger/6.3.27.880 NetType/cmnet Language/zh_CN'
p187
sg16
S'43dbf27fb0057b509b05c181f7bddad8'
p188
sa(dp189
g2
S'41195'
p190
sg4
S'2808'
p191
sg6
S'f0af0dc0876ed38e40a97c080b40a423'
p192
sg8
S'xxc609fb3864b79156d44c2331a67ab152'
p193
sg10
S'xxf0692215d284ed85ce578735b6933e3a'
p194
sg12
S'xxf445651dd8baa6965e28bd05bcefd0cf'
p195
sg14
S'Mozilla/5.0 (Linux; Android 5.0.2; vivo Y31A Build/LRX22G) AppleWebKit/537.36 (KHTML, like Gecko) Version/4.0 Chrome/37.0.0.0 Mobile MQQBrowser/6.8 TBS/036824 Safari/537.36 MicroMessenger/6.3.27.880 NetType/cmnet Language/zh_CN'
p196
sg16
S'43dbf27fb0057b509b05c181f7bddad8'
p197
sa(dp198
g2
S'41195'
p199
sg4
S'2825'
p200
sg6
S'f0af0dc0876ed38e40a97c080b40a423'
p201
sg8
S'xxc609fb3864b79156d44c2331a67ab152'
p202
sg10
S'xxf0692215d284ed85ce578735b6933e3a'
p203
sg12
S'xxf445651dd8baa6965e28bd05bcefd0cf'
p204
sg14
S'Mozilla/5.0 (Linux; Android 5.0.2; vivo Y31A Build/LRX22G) AppleWebKit/537.36 (KHTML, like Gecko) Version/4.0 Chrome/37.0.0.0 Mobile MQQBrowser/6.8 TBS/036824 Safari/537.36 MicroMessenger/6.3.27.880 NetType/cmnet Language/zh_CN'
p205
sg16
S'43dbf27fb0057b509b05c181f7bddad8'
p206
sa(dp207
g2
S'41195'
p208
sg4
S'2847'
p209
sg6
S'f0af0dc0876ed38e40a97c080b40a423'
p210
sg8
S'xxc609fb3864b79156d44c2331a67ab152'
p211
sg10
S'xxf0692215d284ed85ce578735b6933e3a'
p212
sg12
S'xxf445651dd8baa6965e28bd05bcefd0cf'
p213
sg14
S'Mozilla/5.0 (Linux; Android 5.0.2; vivo Y31A Build/LRX22G) AppleWebKit/537.36 (KHTML, like Gecko) Version/4.0 Chrome/37.0.0.0 Mobile MQQBrowser/6.8 TBS/036824 Safari/537.36 MicroMessenger/6.3.27.880 NetType/cmnet Language/zh_CN'
p214
sg16
S'43dbf27fb0057b509b05c181f7bddad8'
p215
sa(dp216
g2
S'41195'
p217
sg4
S'2880'
p218
sg6
S'f0af0dc0876ed38e40a97c080b40a423'
p219
sg8
S'xxc609fb3864b79156d44c2331a67ab152'
p220
sg10
S'xxf0692215d284ed85ce578735b6933e3a'
p221
sg12
S'xxf445651dd8baa6965e28bd05bcefd0cf'
p222
sg14
S'Mozilla/5.0 (Linux; Android 5.0.2; vivo Y31A Build/LRX22G) AppleWebKit/537.36 (KHTML, like Gecko) Version/4.0 Chrome/37.0.0.0 Mobile MQQBrowser/6.8 TBS/036824 Safari/537.36 MicroMessenger/6.3.27.880 NetType/cmnet Language/zh_CN'
p223
sg16
S'43dbf27fb0057b509b05c181f7bddad8'
p224
sa(dp225
g2
S'41195'
p226
sg4
S'2923'
p227
sg6
S'f0af0dc0876ed38e40a97c080b40a423'
p228
sg8
S'xxc609fb3864b79156d44c2331a67ab152'
p229
sg10
S'xxf0692215d284ed85ce578735b6933e3a'
p230
sg12
S'xxf445651dd8baa6965e28bd05bcefd0cf'
p231
sg14
S'Mozilla/5.0 (Linux; Android 5.0.2; vivo Y31A Build/LRX22G) AppleWebKit/537.36 (KHTML, like Gecko) Version/4.0 Chrome/37.0.0.0 Mobile MQQBrowser/6.8 TBS/036824 Safari/537.36 MicroMessenger/6.3.27.880 NetType/cmnet Language/zh_CN'
p232
sg16
S'43dbf27fb0057b509b05c181f7bddad8'
p233
sa(dp234
g2
S'41195'
p235
sg4
S'2944'
p236
sg6
S'f0af0dc0876ed38e40a97c080b40a423'
p237
sg8
S'xxc609fb3864b79156d44c2331a67ab152'
p238
sg10
S'xxf0692215d284ed85ce578735b6933e3a'
p239
sg12
S'xxf445651dd8baa6965e28bd05bcefd0cf'
p240
sg14
S'Mozilla/5.0 (Linux; Android 5.0.2; vivo Y31A Build/LRX22G) AppleWebKit/537.36 (KHTML, like Gecko) Version/4.0 Chrome/37.0.0.0 Mobile MQQBrowser/6.8 TBS/036824 Safari/537.36 MicroMessenger/6.3.27.880 NetType/cmnet Language/zh_CN'
p241
sg16
S'43dbf27fb0057b509b05c181f7bddad8'
p242
sa(dp243
g2
S'41195'
p244
sg4
S'2963'
p245
sg6
S'f0af0dc0876ed38e40a97c080b40a423'
p246
sg8
S'xxc609fb3864b79156d44c2331a67ab152'
p247
sg10
S'xxf0692215d284ed85ce578735b6933e3a'
p248
sg12
S'xxf445651dd8baa6965e28bd05bcefd0cf'
p249
sg14
S'Mozilla/5.0 (Linux; Android 5.0.2; vivo Y31A Build/LRX22G) AppleWebKit/537.36 (KHTML, like Gecko) Version/4.0 Chrome/37.0.0.0 Mobile MQQBrowser/6.8 TBS/036824 Safari/537.36 MicroMessenger/6.3.27.880 NetType/cmnet Language/zh_CN'
p250
sg16
S'43dbf27fb0057b509b05c181f7bddad8'
p251
sa(dp252
g2
S'41195'
p253
sg4
S'2978'
p254
sg6
S'f0af0dc0876ed38e40a97c080b40a423'
p255
sg8
S'xxc609fb3864b79156d44c2331a67ab152'
p256
sg10
S'xxf0692215d284ed85ce578735b6933e3a'
p257
sg12
S'xxf445651dd8baa6965e28bd05bcefd0cf'
p258
sg14
S'Mozilla/5.0 (Linux; Android 5.0.2; vivo Y31A Build/LRX22G) AppleWebKit/537.36 (KHTML, like Gecko) Version/4.0 Chrome/37.0.0.0 Mobile MQQBrowser/6.8 TBS/036824 Safari/537.36 MicroMessenger/6.3.27.880 NetType/cmnet Language/zh_CN'
p259
sg16
S'43dbf27fb0057b509b05c181f7bddad8'
p260
sa(dp261
g2
S'41195'
p262
sg4
S'3043'
p263
sg6
S'f0af0dc0876ed38e40a97c080b40a423'
p264
sg8
S'xxc609fb3864b79156d44c2331a67ab152'
p265
sg10
S'xxf0692215d284ed85ce578735b6933e3a'
p266
sg12
S'xxf445651dd8baa6965e28bd05bcefd0cf'
p267
sg14
S'Mozilla/5.0 (Linux; Android 5.0.2; vivo Y31A Build/LRX22G) AppleWebKit/537.36 (KHTML, like Gecko) Version/4.0 Chrome/37.0.0.0 Mobile MQQBrowser/6.8 TBS/036824 Safari/537.36 MicroMessenger/6.3.27.880 NetType/cmnet Language/zh_CN'
p268
sg16
S'43dbf27fb0057b509b05c181f7bddad8'
p269
sa(dp270
g2
S'41195'
p271
sg4
S'3061'
p272
sg6
S'f0af0dc0876ed38e40a97c080b40a423'
p273
sg8
S'xxc609fb3864b79156d44c2331a67ab152'
p274
sg10
S'xxf0692215d284ed85ce578735b6933e3a'
p275
sg12
S'xxf445651dd8baa6965e28bd05bcefd0cf'
p276
sg14
S'Mozilla/5.0 (Linux; Android 5.0.2; vivo Y31A Build/LRX22G) AppleWebKit/537.36 (KHTML, like Gecko) Version/4.0 Chrome/37.0.0.0 Mobile MQQBrowser/6.8 TBS/036824 Safari/537.36 MicroMessenger/6.3.27.880 NetType/cmnet Language/zh_CN'
p277
sg16
S'43dbf27fb0057b509b05c181f7bddad8'
p278
sa(dp279
g2
S'41195'
p280
sg4
S'3082'
p281
sg6
S'f0af0dc0876ed38e40a97c080b40a423'
p282
sg8
S'xxc609fb3864b79156d44c2331a67ab152'
p283
sg10
S'xxf0692215d284ed85ce578735b6933e3a'
p284
sg12
S'xxf445651dd8baa6965e28bd05bcefd0cf'
p285
sg14
S'Mozilla/5.0 (Linux; Android 5.0.2; vivo Y31A Build/LRX22G) AppleWebKit/537.36 (KHTML, like Gecko) Version/4.0 Chrome/37.0.0.0 Mobile MQQBrowser/6.8 TBS/036824 Safari/537.36 MicroMessenger/6.3.27.880 NetType/cmnet Language/zh_CN'
p286
sg16
S'43dbf27fb0057b509b05c181f7bddad8'
p287
sa(dp288
g2
S'41195'
p289
sg4
S'3100'
p290
sg6
S'f0af0dc0876ed38e40a97c080b40a423'
p291
sg8
S'xxc609fb3864b79156d44c2331a67ab152'
p292
sg10
S'xxf0692215d284ed85ce578735b6933e3a'
p293
sg12
S'xxf445651dd8baa6965e28bd05bcefd0cf'
p294
sg14
S'Mozilla/5.0 (Linux; Android 5.0.2; vivo Y31A Build/LRX22G) AppleWebKit/537.36 (KHTML, like Gecko) Version/4.0 Chrome/37.0.0.0 Mobile MQQBrowser/6.8 TBS/036824 Safari/537.36 MicroMessenger/6.3.27.880 NetType/cmnet Language/zh_CN'
p295
sg16
S'43dbf27fb0057b509b05c181f7bddad8'
p296
sa(dp297
g2
S'41195'
p298
sg4
S'3115'
p299
sg6
S'f0af0dc0876ed38e40a97c080b40a423'
p300
sg8
S'xxc609fb3864b79156d44c2331a67ab152'
p301
sg10
S'xxf0692215d284ed85ce578735b6933e3a'
p302
sg12
S'xxf445651dd8baa6965e28bd05bcefd0cf'
p303
sg14
S'Mozilla/5.0 (Linux; Android 5.0.2; vivo Y31A Build/LRX22G) AppleWebKit/537.36 (KHTML, like Gecko) Version/4.0 Chrome/37.0.0.0 Mobile MQQBrowser/6.8 TBS/036824 Safari/537.36 MicroMessenger/6.3.27.880 NetType/cmnet Language/zh_CN'
p304
sg16
S'43dbf27fb0057b509b05c181f7bddad8'
p305
sa(dp306
g2
S'41195'
p307
sg4
S'3248'
p308
sg6
S'f0af0dc0876ed38e40a97c080b40a423'
p309
sg8
S'xxc609fb3864b79156d44c2331a67ab152'
p310
sg10
S'xxf0692215d284ed85ce578735b6933e3a'
p311
sg12
S'xxf445651dd8baa6965e28bd05bcefd0cf'
p312
sg14
S'Mozilla/5.0 (Linux; Android 5.0.2; vivo Y31A Build/LRX22G) AppleWebKit/537.36 (KHTML, like Gecko) Version/4.0 Chrome/37.0.0.0 Mobile MQQBrowser/6.8 TBS/036824 Safari/537.36 MicroMessenger/6.3.27.880 NetType/cmnet Language/zh_CN'
p313
sg16
S'43dbf27fb0057b509b05c181f7bddad8'
p314
sa(dp315
g2
S'41195'
p316
sg4
S'3264'
p317
sg6
S'f0af0dc0876ed38e40a97c080b40a423'
p318
sg8
S'xxc609fb3864b79156d44c2331a67ab152'
p319
sg10
S'xxf0692215d284ed85ce578735b6933e3a'
p320
sg12
S'xxf445651dd8baa6965e28bd05bcefd0cf'
p321
sg14
S'Mozilla/5.0 (Linux; Android 5.0.2; vivo Y31A Build/LRX22G) AppleWebKit/537.36 (KHTML, like Gecko) Version/4.0 Chrome/37.0.0.0 Mobile MQQBrowser/6.8 TBS/036824 Safari/537.36 MicroMessenger/6.3.27.880 NetType/cmnet Language/zh_CN'
p322
sg16
S'43dbf27fb0057b509b05c181f7bddad8'
p323
sa(dp324
g2
S'41195'
p325
sg4
S'3277'
p326
sg6
S'f0af0dc0876ed38e40a97c080b40a423'
p327
sg8
S'xxc609fb3864b79156d44c2331a67ab152'
p328
sg10
S'xxf0692215d284ed85ce578735b6933e3a'
p329
sg12
S'xxf445651dd8baa6965e28bd05bcefd0cf'
p330
sg14
S'Mozilla/5.0 (Linux; Android 5.0.2; vivo Y31A Build/LRX22G) AppleWebKit/537.36 (KHTML, like Gecko) Version/4.0 Chrome/37.0.0.0 Mobile MQQBrowser/6.8 TBS/036824 Safari/537.36 MicroMessenger/6.3.27.880 NetType/cmnet Language/zh_CN'
p331
sg16
S'43dbf27fb0057b509b05c181f7bddad8'
p332
sa(dp333
g2
S'41195'
p334
sg4
S'3293'
p335
sg6
S'f0af0dc0876ed38e40a97c080b40a423'
p336
sg8
S'xxc609fb3864b79156d44c2331a67ab152'
p337
sg10
S'xxf0692215d284ed85ce578735b6933e3a'
p338
sg12
S'xxf445651dd8baa6965e28bd05bcefd0cf'
p339
sg14
S'Mozilla/5.0 (Linux; Android 5.0.2; vivo Y31A Build/LRX22G) AppleWebKit/537.36 (KHTML, like Gecko) Version/4.0 Chrome/37.0.0.0 Mobile MQQBrowser/6.8 TBS/036824 Safari/537.36 MicroMessenger/6.3.27.880 NetType/cmnet Language/zh_CN'
p340
sg16
S'43dbf27fb0057b509b05c181f7bddad8'
p341
sa(dp342
g2
S'41195'
p343
sg4
S'3307'
p344
sg6
S'f0af0dc0876ed38e40a97c080b40a423'
p345
sg8
S'xxc609fb3864b79156d44c2331a67ab152'
p346
sg10
S'xxf0692215d284ed85ce578735b6933e3a'
p347
sg12
S'xxf445651dd8baa6965e28bd05bcefd0cf'
p348
sg14
S'Mozilla/5.0 (Linux; Android 5.0.2; vivo Y31A Build/LRX22G) AppleWebKit/537.36 (KHTML, like Gecko) Version/4.0 Chrome/37.0.0.0 Mobile MQQBrowser/6.8 TBS/036824 Safari/537.36 MicroMessenger/6.3.27.880 NetType/cmnet Language/zh_CN'
p349
sg16
S'43dbf27fb0057b509b05c181f7bddad8'
p350
sa(dp351
g2
S'41195'
p352
sg4
S'3315'
p353
sg6
S'f0af0dc0876ed38e40a97c080b40a423'
p354
sg8
S'xxc609fb3864b79156d44c2331a67ab152'
p355
sg10
S'xxf0692215d284ed85ce578735b6933e3a'
p356
sg12
S'xxf445651dd8baa6965e28bd05bcefd0cf'
p357
sg14
S'Mozilla/5.0 (Linux; Android 5.0.2; vivo Y31A Build/LRX22G) AppleWebKit/537.36 (KHTML, like Gecko) Version/4.0 Chrome/37.0.0.0 Mobile MQQBrowser/6.8 TBS/036824 Safari/537.36 MicroMessenger/6.3.27.880 NetType/cmnet Language/zh_CN'
p358
sg16
S'43dbf27fb0057b509b05c181f7bddad8'
p359
sa(dp360
g2
S'41195'
p361
sg4
S'3323'
p362
sg6
S'f0af0dc0876ed38e40a97c080b40a423'
p363
sg8
S'xxc609fb3864b79156d44c2331a67ab152'
p364
sg10
S'xxf0692215d284ed85ce578735b6933e3a'
p365
sg12
S'xxf445651dd8baa6965e28bd05bcefd0cf'
p366
sg14
S'Mozilla/5.0 (Linux; Android 5.0.2; vivo Y31A Build/LRX22G) AppleWebKit/537.36 (KHTML, like Gecko) Version/4.0 Chrome/37.0.0.0 Mobile MQQBrowser/6.8 TBS/036824 Safari/537.36 MicroMessenger/6.3.27.880 NetType/cmnet Language/zh_CN'
p367
sg16
S'43dbf27fb0057b509b05c181f7bddad8'
p368
sa(dp369
g2
S'41195'
p370
sg4
S'3341'
p371
sg6
S'f0af0dc0876ed38e40a97c080b40a423'
p372
sg8
S'xxc609fb3864b79156d44c2331a67ab152'
p373
sg10
S'xxf0692215d284ed85ce578735b6933e3a'
p374
sg12
S'xxf445651dd8baa6965e28bd05bcefd0cf'
p375
sg14
S'Mozilla/5.0 (Linux; Android 5.0.2; vivo Y31A Build/LRX22G) AppleWebKit/537.36 (KHTML, like Gecko) Version/4.0 Chrome/37.0.0.0 Mobile MQQBrowser/6.8 TBS/036824 Safari/537.36 MicroMessenger/6.3.27.880 NetType/cmnet Language/zh_CN'
p376
sg16
S'43dbf27fb0057b509b05c181f7bddad8'
p377
sa(dp378
g2
S'41195'
p379
sg4
S'3358'
p380
sg6
S'f0af0dc0876ed38e40a97c080b40a423'
p381
sg8
S'xxc609fb3864b79156d44c2331a67ab152'
p382
sg10
S'xxf0692215d284ed85ce578735b6933e3a'
p383
sg12
S'xxf445651dd8baa6965e28bd05bcefd0cf'
p384
sg14
S'Mozilla/5.0 (Linux; Android 5.0.2; vivo Y31A Build/LRX22G) AppleWebKit/537.36 (KHTML, like Gecko) Version/4.0 Chrome/37.0.0.0 Mobile MQQBrowser/6.8 TBS/036824 Safari/537.36 MicroMessenger/6.3.27.880 NetType/cmnet Language/zh_CN'
p385
sg16
S'43dbf27fb0057b509b05c181f7bddad8'
p386
sa(dp387
g2
S'41195'
p388
sg4
S'3376'
p389
sg6
S'f0af0dc0876ed38e40a97c080b40a423'
p390
sg8
S'xxc609fb3864b79156d44c2331a67ab152'
p391
sg10
S'xxf0692215d284ed85ce578735b6933e3a'
p392
sg12
S'xxf445651dd8baa6965e28bd05bcefd0cf'
p393
sg14
S'Mozilla/5.0 (Linux; Android 5.0.2; vivo Y31A Build/LRX22G) AppleWebKit/537.36 (KHTML, like Gecko) Version/4.0 Chrome/37.0.0.0 Mobile MQQBrowser/6.8 TBS/036824 Safari/537.36 MicroMessenger/6.3.27.880 NetType/cmnet Language/zh_CN'
p394
sg16
S'43dbf27fb0057b509b05c181f7bddad8'
p395
sa(dp396
g2
S'41195'
p397
sg4
S'3395'
p398
sg6
S'f0af0dc0876ed38e40a97c080b40a423'
p399
sg8
S'xxc609fb3864b79156d44c2331a67ab152'
p400
sg10
S'xxf0692215d284ed85ce578735b6933e3a'
p401
sg12
S'xxf445651dd8baa6965e28bd05bcefd0cf'
p402
sg14
S'Mozilla/5.0 (Linux; Android 5.0.2; vivo Y31A Build/LRX22G) AppleWebKit/537.36 (KHTML, like Gecko) Version/4.0 Chrome/37.0.0.0 Mobile MQQBrowser/6.8 TBS/036824 Safari/537.36 MicroMessenger/6.3.27.880 NetType/cmnet Language/zh_CN'
p403
sg16
S'43dbf27fb0057b509b05c181f7bddad8'
p404
sa(dp405
g2
S'41195'
p406
sg4
S'3417'
p407
sg6
S'f0af0dc0876ed38e40a97c080b40a423'
p408
sg8
S'xxc609fb3864b79156d44c2331a67ab152'
p409
sg10
S'xxf0692215d284ed85ce578735b6933e3a'
p410
sg12
S'xxf445651dd8baa6965e28bd05bcefd0cf'
p411
sg14
S'Mozilla/5.0 (Linux; Android 5.0.2; vivo Y31A Build/LRX22G) AppleWebKit/537.36 (KHTML, like Gecko) Version/4.0 Chrome/37.0.0.0 Mobile MQQBrowser/6.8 TBS/036824 Safari/537.36 MicroMessenger/6.3.27.880 NetType/cmnet Language/zh_CN'
p412
sg16
S'43dbf27fb0057b509b05c181f7bddad8'
p413
sa(dp414
g2
S'41195'
p415
sg4
S'3431'
p416
sg6
S'f0af0dc0876ed38e40a97c080b40a423'
p417
sg8
S'xxc609fb3864b79156d44c2331a67ab152'
p418
sg10
S'xxf0692215d284ed85ce578735b6933e3a'
p419
sg12
S'xxf445651dd8baa6965e28bd05bcefd0cf'
p420
sg14
S'Mozilla/5.0 (Linux; Android 5.0.2; vivo Y31A Build/LRX22G) AppleWebKit/537.36 (KHTML, like Gecko) Version/4.0 Chrome/37.0.0.0 Mobile MQQBrowser/6.8 TBS/036824 Safari/537.36 MicroMessenger/6.3.27.880 NetType/cmnet Language/zh_CN'
p421
sg16
S'43dbf27fb0057b509b05c181f7bddad8'
p422
sa(dp423
g2
S'41195'
p424
sg4
S'3446'
p425
sg6
S'f0af0dc0876ed38e40a97c080b40a423'
p426
sg8
S'xxc609fb3864b79156d44c2331a67ab152'
p427
sg10
S'xxf0692215d284ed85ce578735b6933e3a'
p428
sg12
S'xxf445651dd8baa6965e28bd05bcefd0cf'
p429
sg14
S'Mozilla/5.0 (Linux; Android 5.0.2; vivo Y31A Build/LRX22G) AppleWebKit/537.36 (KHTML, like Gecko) Version/4.0 Chrome/37.0.0.0 Mobile MQQBrowser/6.8 TBS/036824 Safari/537.36 MicroMessenger/6.3.27.880 NetType/cmnet Language/zh_CN'
p430
sg16
S'43dbf27fb0057b509b05c181f7bddad8'
p431
sa(dp432
g2
S'41195'
p433
sg4
S'3459'
p434
sg6
S'f0af0dc0876ed38e40a97c080b40a423'
p435
sg8
S'xxc609fb3864b79156d44c2331a67ab152'
p436
sg10
S'xxf0692215d284ed85ce578735b6933e3a'
p437
sg12
S'xxf445651dd8baa6965e28bd05bcefd0cf'
p438
sg14
S'Mozilla/5.0 (Linux; Android 5.0.2; vivo Y31A Build/LRX22G) AppleWebKit/537.36 (KHTML, like Gecko) Version/4.0 Chrome/37.0.0.0 Mobile MQQBrowser/6.8 TBS/036824 Safari/537.36 MicroMessenger/6.3.27.880 NetType/cmnet Language/zh_CN'
p439
sg16
S'43dbf27fb0057b509b05c181f7bddad8'
p440
sa(dp441
g2
S'41195'
p442
sg4
S'3473'
p443
sg6
S'f0af0dc0876ed38e40a97c080b40a423'
p444
sg8
S'xxc609fb3864b79156d44c2331a67ab152'
p445
sg10
S'xxf0692215d284ed85ce578735b6933e3a'
p446
sg12
S'xxf445651dd8baa6965e28bd05bcefd0cf'
p447
sg14
S'Mozilla/5.0 (Linux; Android 5.0.2; vivo Y31A Build/LRX22G) AppleWebKit/537.36 (KHTML, like Gecko) Version/4.0 Chrome/37.0.0.0 Mobile MQQBrowser/6.8 TBS/036824 Safari/537.36 MicroMessenger/6.3.27.880 NetType/cmnet Language/zh_CN'
p448
sg16
S'43dbf27fb0057b509b05c181f7bddad8'
p449
sa(dp450
g2
S'41195'
p451
sg4
S'3491'
p452
sg6
S'f0af0dc0876ed38e40a97c080b40a423'
p453
sg8
S'xxc609fb3864b79156d44c2331a67ab152'
p454
sg10
S'xxf0692215d284ed85ce578735b6933e3a'
p455
sg12
S'xxf445651dd8baa6965e28bd05bcefd0cf'
p456
sg14
S'Mozilla/5.0 (Linux; Android 5.0.2; vivo Y31A Build/LRX22G) AppleWebKit/537.36 (KHTML, like Gecko) Version/4.0 Chrome/37.0.0.0 Mobile MQQBrowser/6.8 TBS/036824 Safari/537.36 MicroMessenger/6.3.27.880 NetType/cmnet Language/zh_CN'
p457
sg16
S'43dbf27fb0057b509b05c181f7bddad8'
p458
sa.