(lp0
(dp1
S'user_id'
p2
S'22178'
p3
sS'data_id'
p4
S'284'
p5
sS'ip'
p6
S'79b2b9904f23a9b5f103957129608106'
p7
sS'phone_B'
p8
S'xxdb9da8d1213a839a30d6428490c61fd0'
p9
sS'phone_C'
p10
S'xx1a96fbcb2758ef9597909852842f5834'
p11
sS'phone_A'
p12
S'xxf4ada91cc9f85178dd1e45d21ebf6421'
p13
sS'user_agent'
p14
S'Mozilla/5.0 (Linux; Android 4.4.4; vivo Y27 Build/KTU84P) AppleWebKit/537.36 (KHTML, like Gecko) Version/4.0 Chrome/37.0.0.0 Mobile MQQBrowser/6.8 TBS/036849 Safari/537.36 MicroMessenger/6.3.27.880 NetType/WIFI Language/zh_CN'
p15
sS'ua'
p16
S'55a73b565b5876e23d010d6a376da340'
p17
sa(dp18
g2
S'22178'
p19
sg4
S'298'
p20
sg6
S'79b2b9904f23a9b5f103957129608106'
p21
sg8
S'xxdb9da8d1213a839a30d6428490c61fd0'
p22
sg10
S'xx1a96fbcb2758ef9597909852842f5834'
p23
sg12
S'xxf4ada91cc9f85178dd1e45d21ebf6421'
p24
sg14
S'Mozilla/5.0 (Linux; Android 4.4.4; vivo Y27 Build/KTU84P) AppleWebKit/537.36 (KHTML, like Gecko) Version/4.0 Chrome/37.0.0.0 Mobile MQQBrowser/6.8 TBS/036849 Safari/537.36 MicroMessenger/6.3.27.880 NetType/WIFI Language/zh_CN'
p25
sg16
S'55a73b565b5876e23d010d6a376da340'
p26
sa(dp27
g2
S'22178'
p28
sg4
S'316'
p29
sg6
S'79b2b9904f23a9b5f103957129608106'
p30
sg8
S'xxdb9da8d1213a839a30d6428490c61fd0'
p31
sg10
S'xx1a96fbcb2758ef9597909852842f5834'
p32
sg12
S'xxf4ada91cc9f85178dd1e45d21ebf6421'
p33
sg14
S'Mozilla/5.0 (Linux; Android 4.4.4; vivo Y27 Build/KTU84P) AppleWebKit/537.36 (KHTML, like Gecko) Version/4.0 Chrome/37.0.0.0 Mobile MQQBrowser/6.8 TBS/036849 Safari/537.36 MicroMessenger/6.3.27.880 NetType/WIFI Language/zh_CN'
p34
sg16
S'55a73b565b5876e23d010d6a376da340'
p35
sa(dp36
g2
S'22178'
p37
sg4
S'331'
p38
sg6
S'79b2b9904f23a9b5f103957129608106'
p39
sg8
S'xxdb9da8d1213a839a30d6428490c61fd0'
p40
sg10
S'xx1a96fbcb2758ef9597909852842f5834'
p41
sg12
S'xxf4ada91cc9f85178dd1e45d21ebf6421'
p42
sg14
S'Mozilla/5.0 (Linux; Android 4.4.4; vivo Y27 Build/KTU84P) AppleWebKit/537.36 (KHTML, like Gecko) Version/4.0 Chrome/37.0.0.0 Mobile MQQBrowser/6.8 TBS/036849 Safari/537.36 MicroMessenger/6.3.27.880 NetType/WIFI Language/zh_CN'
p43
sg16
S'55a73b565b5876e23d010d6a376da340'
p44
sa(dp45
g2
S'33123'
p46
sg4
S'2863'
p47
sg6
S'4a04cb2782cc04861ae5d12571e4ddf1'
p48
sg8
S'xx497bc09a7d4ab7000c5235821f85183b'
p49
sg10
S'xx1a96fbcb2758ef9597909852842f5834'
p50
sg12
S'xxf4ada91cc9f85178dd1e45d21ebf6421'
p51
sg14
S'Mozilla/5.0 (Linux; Android 4.4.4; vivo Y27 Build/KTU84P) AppleWebKit/537.36 (KHTML, like Gecko) Version/4.0 Chrome/37.0.0.0 Mobile MQQBrowser/6.8 TBS/036849 Safari/537.36 MicroMessenger/6.3.27.880 NetType/cmnet Language/zh_CN'
p52
sg16
S'e5b527ebc0ea09e682afc006a5117284'
p53
sa(dp54
g2
S'33123'
p55
sg4
S'2886'
p56
sg6
S'4a04cb2782cc04861ae5d12571e4ddf1'
p57
sg8
S'xx497bc09a7d4ab7000c5235821f85183b'
p58
sg10
S'xx1a96fbcb2758ef9597909852842f5834'
p59
sg12
S'xxf4ada91cc9f85178dd1e45d21ebf6421'
p60
sg14
S'Mozilla/5.0 (Linux; Android 4.4.4; vivo Y27 Build/KTU84P) AppleWebKit/537.36 (KHTML, like Gecko) Version/4.0 Chrome/37.0.0.0 Mobile MQQBrowser/6.8 TBS/036849 Safari/537.36 MicroMessenger/6.3.27.880 NetType/cmnet Language/zh_CN'
p61
sg16
S'e5b527ebc0ea09e682afc006a5117284'
p62
sa(dp63
g2
S'33123'
p64
sg4
S'2910'
p65
sg6
S'4a04cb2782cc04861ae5d12571e4ddf1'
p66
sg8
S'xx497bc09a7d4ab7000c5235821f85183b'
p67
sg10
S'xx1a96fbcb2758ef9597909852842f5834'
p68
sg12
S'xxf4ada91cc9f85178dd1e45d21ebf6421'
p69
sg14
S'Mozilla/5.0 (Linux; Android 4.4.4; vivo Y27 Build/KTU84P) AppleWebKit/537.36 (KHTML, like Gecko) Version/4.0 Chrome/37.0.0.0 Mobile MQQBrowser/6.8 TBS/036849 Safari/537.36 MicroMessenger/6.3.27.880 NetType/cmnet Language/zh_CN'
p70
sg16
S'e5b527ebc0ea09e682afc006a5117284'
p71
sa(dp72
g2
S'40176'
p73
sg4
S'3566'
p74
sg6
S'8192f7b004aa891e6ed9262de6e00997'
p75
sg8
S'xxdb9da8d1213a839a30d6428490c61fd0'
p76
sg10
S'xx1a96fbcb2758ef9597909852842f5834'
p77
sg12
S'xxf4ada91cc9f85178dd1e45d21ebf6421'
p78
sg14
S'Mozilla/5.0 (Linux; Android 4.4.4; vivo Y27 Build/KTU84P) AppleWebKit/537.36 (KHTML, like Gecko) Version/4.0 Chrome/37.0.0.0 Mobile MQQBrowser/6.8 TBS/036849 Safari/537.36 MicroMessenger/6.3.27.880 NetType/WIFI Language/zh_CN'
p79
sg16
S'55a73b565b5876e23d010d6a376da340'
p80
sa(dp81
g2
S'40176'
p82
sg4
S'3586'
p83
sg6
S'8192f7b004aa891e6ed9262de6e00997'
p84
sg8
S'xxdb9da8d1213a839a30d6428490c61fd0'
p85
sg10
S'xx1a96fbcb2758ef9597909852842f5834'
p86
sg12
S'xxf4ada91cc9f85178dd1e45d21ebf6421'
p87
sg14
S'Mozilla/5.0 (Linux; Android 4.4.4; vivo Y27 Build/KTU84P) AppleWebKit/537.36 (KHTML, like Gecko) Version/4.0 Chrome/37.0.0.0 Mobile MQQBrowser/6.8 TBS/036849 Safari/537.36 MicroMessenger/6.3.27.880 NetType/WIFI Language/zh_CN'
p88
sg16
S'55a73b565b5876e23d010d6a376da340'
p89
sa(dp90
g2
S'30749'
p91
sg4
S'4946'
p92
sg6
S'50eaccbab87ef98eaf79ea688bc155f6'
p93
sg8
S'xxbc9bc9a5018f6ee0d9eac4d9ea4a8bfe'
p94
sg10
S'xx1a96fbcb2758ef9597909852842f5834'
p95
sg12
S'xxf4ada91cc9f85178dd1e45d21ebf6421'
p96
sg14
S'Mozilla/5.0 (Linux; Android 4.4.4; vivo Y27 Build/KTU84P) AppleWebKit/537.36 (KHTML, like Gecko) Version/4.0 Chrome/37.0.0.0 Mobile MQQBrowser/6.8 TBS/036865 Safari/537.36 MicroMessenger/6.3.27.880 NetType/WIFI Language/zh_CN'
p97
sg16
S'55bd43647cabbe1c8d1603c72650de09'
p98
sa(dp99
g2
S'30749'
p100
sg4
S'4962'
p101
sg6
S'50eaccbab87ef98eaf79ea688bc155f6'
p102
sg8
S'xxbc9bc9a5018f6ee0d9eac4d9ea4a8bfe'
p103
sg10
S'xx1a96fbcb2758ef9597909852842f5834'
p104
sg12
S'xxf4ada91cc9f85178dd1e45d21ebf6421'
p105
sg14
S'Mozilla/5.0 (Linux; Android 4.4.4; vivo Y27 Build/KTU84P) AppleWebKit/537.36 (KHTML, like Gecko) Version/4.0 Chrome/37.0.0.0 Mobile MQQBrowser/6.8 TBS/036865 Safari/537.36 MicroMessenger/6.3.27.880 NetType/WIFI Language/zh_CN'
p106
sg16
S'55bd43647cabbe1c8d1603c72650de09'
p107
sa(dp108
g2
S'30749'
p109
sg4
S'4976'
p110
sg6
S'50eaccbab87ef98eaf79ea688bc155f6'
p111
sg8
S'xxbc9bc9a5018f6ee0d9eac4d9ea4a8bfe'
p112
sg10
S'xx1a96fbcb2758ef9597909852842f5834'
p113
sg12
S'xxf4ada91cc9f85178dd1e45d21ebf6421'
p114
sg14
S'Mozilla/5.0 (Linux; Android 4.4.4; vivo Y27 Build/KTU84P) AppleWebKit/537.36 (KHTML, like Gecko) Version/4.0 Chrome/37.0.0.0 Mobile MQQBrowser/6.8 TBS/036865 Safari/537.36 MicroMessenger/6.3.27.880 NetType/WIFI Language/zh_CN'
p115
sg16
S'55bd43647cabbe1c8d1603c72650de09'
p116
sa(dp117
g2
S'30749'
p118
sg4
S'4993'
p119
sg6
S'50eaccbab87ef98eaf79ea688bc155f6'
p120
sg8
S'xxbc9bc9a5018f6ee0d9eac4d9ea4a8bfe'
p121
sg10
S'xx1a96fbcb2758ef9597909852842f5834'
p122
sg12
S'xxf4ada91cc9f85178dd1e45d21ebf6421'
p123
sg14
S'Mozilla/5.0 (Linux; Android 4.4.4; vivo Y27 Build/KTU84P) AppleWebKit/537.36 (KHTML, like Gecko) Version/4.0 Chrome/37.0.0.0 Mobile MQQBrowser/6.8 TBS/036865 Safari/537.36 MicroMessenger/6.3.27.880 NetType/WIFI Language/zh_CN'
p124
sg16
S'55bd43647cabbe1c8d1603c72650de09'
p125
sa(dp126
g2
S'30749'
p127
sg4
S'5004'
p128
sg6
S'50eaccbab87ef98eaf79ea688bc155f6'
p129
sg8
S'xxbc9bc9a5018f6ee0d9eac4d9ea4a8bfe'
p130
sg10
S'xx1a96fbcb2758ef9597909852842f5834'
p131
sg12
S'xxf4ada91cc9f85178dd1e45d21ebf6421'
p132
sg14
S'Mozilla/5.0 (Linux; Android 4.4.4; vivo Y27 Build/KTU84P) AppleWebKit/537.36 (KHTML, like Gecko) Version/4.0 Chrome/37.0.0.0 Mobile MQQBrowser/6.8 TBS/036865 Safari/537.36 MicroMessenger/6.3.27.880 NetType/WIFI Language/zh_CN'
p133
sg16
S'55bd43647cabbe1c8d1603c72650de09'
p134
sa(dp135
g2
S'30749'
p136
sg4
S'5020'
p137
sg6
S'50eaccbab87ef98eaf79ea688bc155f6'
p138
sg8
S'xxbc9bc9a5018f6ee0d9eac4d9ea4a8bfe'
p139
sg10
S'xx1a96fbcb2758ef9597909852842f5834'
p140
sg12
S'xxf4ada91cc9f85178dd1e45d21ebf6421'
p141
sg14
S'Mozilla/5.0 (Linux; Android 4.4.4; vivo Y27 Build/KTU84P) AppleWebKit/537.36 (KHTML, like Gecko) Version/4.0 Chrome/37.0.0.0 Mobile MQQBrowser/6.8 TBS/036865 Safari/537.36 MicroMessenger/6.3.27.880 NetType/WIFI Language/zh_CN'
p142
sg16
S'55bd43647cabbe1c8d1603c72650de09'
p143
sa(dp144
g2
S'30749'
p145
sg4
S'5042'
p146
sg6
S'50eaccbab87ef98eaf79ea688bc155f6'
p147
sg8
S'xxbc9bc9a5018f6ee0d9eac4d9ea4a8bfe'
p148
sg10
S'xx1a96fbcb2758ef9597909852842f5834'
p149
sg12
S'xxf4ada91cc9f85178dd1e45d21ebf6421'
p150
sg14
S'Mozilla/5.0 (Linux; Android 4.4.4; vivo Y27 Build/KTU84P) AppleWebKit/537.36 (KHTML, like Gecko) Version/4.0 Chrome/37.0.0.0 Mobile MQQBrowser/6.8 TBS/036865 Safari/537.36 MicroMessenger/6.3.27.880 NetType/WIFI Language/zh_CN'
p151
sg16
S'55bd43647cabbe1c8d1603c72650de09'
p152
sa(dp153
g2
S'30749'
p154
sg4
S'5056'
p155
sg6
S'50eaccbab87ef98eaf79ea688bc155f6'
p156
sg8
S'xxbc9bc9a5018f6ee0d9eac4d9ea4a8bfe'
p157
sg10
S'xx1a96fbcb2758ef9597909852842f5834'
p158
sg12
S'xxf4ada91cc9f85178dd1e45d21ebf6421'
p159
sg14
S'Mozilla/5.0 (Linux; Android 4.4.4; vivo Y27 Build/KTU84P) AppleWebKit/537.36 (KHTML, like Gecko) Version/4.0 Chrome/37.0.0.0 Mobile MQQBrowser/6.8 TBS/036865 Safari/537.36 MicroMessenger/6.3.27.880 NetType/WIFI Language/zh_CN'
p160
sg16
S'55bd43647cabbe1c8d1603c72650de09'
p161
sa(dp162
g2
S'49807'
p163
sg4
S'6066'
p164
sg6
S'eb3041579c867c9e7876ecb7cd2e659f'
p165
sg8
S'xx497bc09a7d4ab7000c5235821f85183b'
p166
sg10
S'xx1a96fbcb2758ef9597909852842f5834'
p167
sg12
S'xxf4ada91cc9f85178dd1e45d21ebf6421'
p168
sg14
S'Mozilla/5.0 (Linux; Android 4.4.4; vivo Y27 Build/KTU84P) AppleWebKit/537.36 (KHTML, like Gecko) Version/4.0 Chrome/37.0.0.0 Mobile MQQBrowser/6.8 TBS/036849 Safari/537.36 MicroMessenger/6.3.27.880 NetType/cmnet Language/zh_CN'
p169
sg16
S'e5b527ebc0ea09e682afc006a5117284'
p170
sa(dp171
g2
S'49807'
p172
sg4
S'6081'
p173
sg6
S'eb3041579c867c9e7876ecb7cd2e659f'
p174
sg8
S'xx497bc09a7d4ab7000c5235821f85183b'
p175
sg10
S'xx1a96fbcb2758ef9597909852842f5834'
p176
sg12
S'xxf4ada91cc9f85178dd1e45d21ebf6421'
p177
sg14
S'Mozilla/5.0 (Linux; Android 4.4.4; vivo Y27 Build/KTU84P) AppleWebKit/537.36 (KHTML, like Gecko) Version/4.0 Chrome/37.0.0.0 Mobile MQQBrowser/6.8 TBS/036849 Safari/537.36 MicroMessenger/6.3.27.880 NetType/cmnet Language/zh_CN'
p178
sg16
S'e5b527ebc0ea09e682afc006a5117284'
p179
sa(dp180
g2
S'49807'
p181
sg4
S'6098'
p182
sg6
S'eb3041579c867c9e7876ecb7cd2e659f'
p183
sg8
S'xx497bc09a7d4ab7000c5235821f85183b'
p184
sg10
S'xx1a96fbcb2758ef9597909852842f5834'
p185
sg12
S'xxf4ada91cc9f85178dd1e45d21ebf6421'
p186
sg14
S'Mozilla/5.0 (Linux; Android 4.4.4; vivo Y27 Build/KTU84P) AppleWebKit/537.36 (KHTML, like Gecko) Version/4.0 Chrome/37.0.0.0 Mobile MQQBrowser/6.8 TBS/036849 Safari/537.36 MicroMessenger/6.3.27.880 NetType/cmnet Language/zh_CN'
p187
sg16
S'e5b527ebc0ea09e682afc006a5117284'
p188
sa.