(lp0
(dp1
S'user_id'
p2
S'40245'
p3
sS'data_id'
p4
S'77'
p5
sS'ip'
p6
S'a61db8755608ba52b9d8fd215affffef'
p7
sS'phone_B'
p8
S'xx55a8585309028573e80ea3ad520e893a'
p9
sS'phone_C'
p10
S'xx2adf3e3470a5aea8372c77808537a599'
p11
sS'phone_A'
p12
S'xxf54b4524ea520e5113c0fbd1dd140319'
p13
sS'user_agent'
p14
S'Mozilla/5.0 (Linux; Android 6.0.1; MI 3C Build/MMB29M) AppleWebKit/537.36 (KHTML, like Gecko) Version/4.0 Chrome/37.0.0.0 Mobile MQQBrowser/6.8 TBS/036849 Safari/537.36 MicroMessenger/6.3.27.880 NetType/WIFI Language/zh_CN'
p15
sS'ua'
p16
S'ea06ccaae24a7909a7843ccbaa5c519c'
p17
sa(dp18
g2
S'40245'
p19
sg4
S'83'
p20
sg6
S'a61db8755608ba52b9d8fd215affffef'
p21
sg8
S'xx55a8585309028573e80ea3ad520e893a'
p22
sg10
S'xx2adf3e3470a5aea8372c77808537a599'
p23
sg12
S'xxf54b4524ea520e5113c0fbd1dd140319'
p24
sg14
S'Mozilla/5.0 (Linux; Android 6.0.1; MI 3C Build/MMB29M) AppleWebKit/537.36 (KHTML, like Gecko) Version/4.0 Chrome/37.0.0.0 Mobile MQQBrowser/6.8 TBS/036849 Safari/537.36 MicroMessenger/6.3.27.880 NetType/WIFI Language/zh_CN'
p25
sg16
S'ea06ccaae24a7909a7843ccbaa5c519c'
p26
sa(dp27
g2
S'40245'
p28
sg4
S'90'
p29
sg6
S'a61db8755608ba52b9d8fd215affffef'
p30
sg8
S'xx55a8585309028573e80ea3ad520e893a'
p31
sg10
S'xx2adf3e3470a5aea8372c77808537a599'
p32
sg12
S'xxf54b4524ea520e5113c0fbd1dd140319'
p33
sg14
S'Mozilla/5.0 (Linux; Android 6.0.1; MI 3C Build/MMB29M) AppleWebKit/537.36 (KHTML, like Gecko) Version/4.0 Chrome/37.0.0.0 Mobile MQQBrowser/6.8 TBS/036849 Safari/537.36 MicroMessenger/6.3.27.880 NetType/WIFI Language/zh_CN'
p34
sg16
S'ea06ccaae24a7909a7843ccbaa5c519c'
p35
sa(dp36
g2
S'40245'
p37
sg4
S'96'
p38
sg6
S'a61db8755608ba52b9d8fd215affffef'
p39
sg8
S'xx55a8585309028573e80ea3ad520e893a'
p40
sg10
S'xx2adf3e3470a5aea8372c77808537a599'
p41
sg12
S'xxf54b4524ea520e5113c0fbd1dd140319'
p42
sg14
S'Mozilla/5.0 (Linux; Android 6.0.1; MI 3C Build/MMB29M) AppleWebKit/537.36 (KHTML, like Gecko) Version/4.0 Chrome/37.0.0.0 Mobile MQQBrowser/6.8 TBS/036849 Safari/537.36 MicroMessenger/6.3.27.880 NetType/WIFI Language/zh_CN'
p43
sg16
S'ea06ccaae24a7909a7843ccbaa5c519c'
p44
sa(dp45
g2
S'40245'
p46
sg4
S'107'
p47
sg6
S'a61db8755608ba52b9d8fd215affffef'
p48
sg8
S'xx55a8585309028573e80ea3ad520e893a'
p49
sg10
S'xx2adf3e3470a5aea8372c77808537a599'
p50
sg12
S'xxf54b4524ea520e5113c0fbd1dd140319'
p51
sg14
S'Mozilla/5.0 (Linux; Android 6.0.1; MI 3C Build/MMB29M) AppleWebKit/537.36 (KHTML, like Gecko) Version/4.0 Chrome/37.0.0.0 Mobile MQQBrowser/6.8 TBS/036849 Safari/537.36 MicroMessenger/6.3.27.880 NetType/WIFI Language/zh_CN'
p52
sg16
S'ea06ccaae24a7909a7843ccbaa5c519c'
p53
sa(dp54
g2
S'40245'
p55
sg4
S'117'
p56
sg6
S'a61db8755608ba52b9d8fd215affffef'
p57
sg8
S'xx55a8585309028573e80ea3ad520e893a'
p58
sg10
S'xx2adf3e3470a5aea8372c77808537a599'
p59
sg12
S'xxf54b4524ea520e5113c0fbd1dd140319'
p60
sg14
S'Mozilla/5.0 (Linux; Android 6.0.1; MI 3C Build/MMB29M) AppleWebKit/537.36 (KHTML, like Gecko) Version/4.0 Chrome/37.0.0.0 Mobile MQQBrowser/6.8 TBS/036849 Safari/537.36 MicroMessenger/6.3.27.880 NetType/WIFI Language/zh_CN'
p61
sg16
S'ea06ccaae24a7909a7843ccbaa5c519c'
p62
sa(dp63
g2
S'34023'
p64
sg4
S'2629'
p65
sg6
S'1dd075602c9bf7f1f57d80c141cbf83a'
p66
sg8
S'xx5916dee92bf572ff071daa87abcb1ae2'
p67
sg10
S'xx2adf3e3470a5aea8372c77808537a599'
p68
sg12
S'xxf54b4524ea520e5113c0fbd1dd140319'
p69
sg14
S'Mozilla/5.0 (Linux; Android 6.0.1; MI 3C Build/MMB29M) AppleWebKit/537.36 (KHTML, like Gecko) Version/4.0 Chrome/37.0.0.0 Mobile MQQBrowser/6.8 TBS/036849 Safari/537.36 MicroMessenger/6.3.25.861 NetType/WIFI Language/zh_CN'
p70
sg16
S'397255511e15f9b75d050630418f12c6'
p71
sa(dp72
g2
S'34023'
p73
sg4
S'2653'
p74
sg6
S'1dd075602c9bf7f1f57d80c141cbf83a'
p75
sg8
S'xx5916dee92bf572ff071daa87abcb1ae2'
p76
sg10
S'xx2adf3e3470a5aea8372c77808537a599'
p77
sg12
S'xxf54b4524ea520e5113c0fbd1dd140319'
p78
sg14
S'Mozilla/5.0 (Linux; Android 6.0.1; MI 3C Build/MMB29M) AppleWebKit/537.36 (KHTML, like Gecko) Version/4.0 Chrome/37.0.0.0 Mobile MQQBrowser/6.8 TBS/036849 Safari/537.36 MicroMessenger/6.3.25.861 NetType/WIFI Language/zh_CN'
p79
sg16
S'397255511e15f9b75d050630418f12c6'
p80
sa(dp81
g2
S'44237'
p82
sg4
S'3962'
p83
sg6
S'b1df4a49578969f1442a9d79abf338f9'
p84
sg8
S'xx55a8585309028573e80ea3ad520e893a'
p85
sg10
S'xx2adf3e3470a5aea8372c77808537a599'
p86
sg12
S'xxf54b4524ea520e5113c0fbd1dd140319'
p87
sg14
S'Mozilla/5.0 (Linux; Android 6.0.1; MI 3C Build/MMB29M) AppleWebKit/537.36 (KHTML, like Gecko) Version/4.0 Chrome/37.0.0.0 Mobile MQQBrowser/6.8 TBS/036849 Safari/537.36 MicroMessenger/6.3.27.880 NetType/WIFI Language/zh_CN'
p88
sg16
S'ea06ccaae24a7909a7843ccbaa5c519c'
p89
sa(dp90
g2
S'44237'
p91
sg4
S'3979'
p92
sg6
S'b1df4a49578969f1442a9d79abf338f9'
p93
sg8
S'xx55a8585309028573e80ea3ad520e893a'
p94
sg10
S'xx2adf3e3470a5aea8372c77808537a599'
p95
sg12
S'xxf54b4524ea520e5113c0fbd1dd140319'
p96
sg14
S'Mozilla/5.0 (Linux; Android 6.0.1; MI 3C Build/MMB29M) AppleWebKit/537.36 (KHTML, like Gecko) Version/4.0 Chrome/37.0.0.0 Mobile MQQBrowser/6.8 TBS/036849 Safari/537.36 MicroMessenger/6.3.27.880 NetType/WIFI Language/zh_CN'
p97
sg16
S'ea06ccaae24a7909a7843ccbaa5c519c'
p98
sa.