(lp0
(dp1
S'user_id'
p2
S'21430'
p3
sS'data_id'
p4
S'669'
p5
sS'ip'
p6
S'0f8b3fbd158ce5bb75598246451f6336'
p7
sS'phone_B'
p8
S'xxdcd37d4a26625a56e4613ace3efbeefd'
p9
sS'phone_C'
p10
S'xxb48ee415e7f04d0c3036400572ca45d8'
p11
sS'phone_A'
p12
S'xxf68627072d29fa75a102440f49bcd839'
p13
sS'user_agent'
p14
S'Mozilla/5.0 (Linux; Android 4.3; R831S Build/JLS36C) AppleWebKit/537.36 (KHTML, like Gecko) Version/4.0 Chrome/37.0.0.0 Mobile MQQBrowser/6.8 TBS/036849 Safari/537.36 MicroMessenger/6.3.27.880 NetType/WIFI Language/zh_CN'
p15
sS'ua'
p16
S'5408b0c3b1aff9f4c9ea0928352da0f8'
p17
sa(dp18
g2
S'21430'
p19
sg4
S'682'
p20
sg6
S'0f8b3fbd158ce5bb75598246451f6336'
p21
sg8
S'xxdcd37d4a26625a56e4613ace3efbeefd'
p22
sg10
S'xxb48ee415e7f04d0c3036400572ca45d8'
p23
sg12
S'xxf68627072d29fa75a102440f49bcd839'
p24
sg14
S'Mozilla/5.0 (Linux; Android 4.3; R831S Build/JLS36C) AppleWebKit/537.36 (KHTML, like Gecko) Version/4.0 Chrome/37.0.0.0 Mobile MQQBrowser/6.8 TBS/036849 Safari/537.36 MicroMessenger/6.3.27.880 NetType/WIFI Language/zh_CN'
p25
sg16
S'5408b0c3b1aff9f4c9ea0928352da0f8'
p26
sa(dp27
g2
S'21430'
p28
sg4
S'2522'
p29
sg6
S'0f8b3fbd158ce5bb75598246451f6336'
p30
sg8
S'xxdcd37d4a26625a56e4613ace3efbeefd'
p31
sg10
S'xxb48ee415e7f04d0c3036400572ca45d8'
p32
sg12
S'xxf68627072d29fa75a102440f49bcd839'
p33
sg14
S'Mozilla/5.0 (Linux; Android 4.3; R831S Build/JLS36C) AppleWebKit/537.36 (KHTML, like Gecko) Version/4.0 Chrome/37.0.0.0 Mobile MQQBrowser/6.8 TBS/036849 Safari/537.36 MicroMessenger/6.3.27.880 NetType/WIFI Language/zh_CN'
p34
sg16
S'5408b0c3b1aff9f4c9ea0928352da0f8'
p35
sa(dp36
g2
S'21430'
p37
sg4
S'2548'
p38
sg6
S'0f8b3fbd158ce5bb75598246451f6336'
p39
sg8
S'xxdcd37d4a26625a56e4613ace3efbeefd'
p40
sg10
S'xxb48ee415e7f04d0c3036400572ca45d8'
p41
sg12
S'xxf68627072d29fa75a102440f49bcd839'
p42
sg14
S'Mozilla/5.0 (Linux; Android 4.3; R831S Build/JLS36C) AppleWebKit/537.36 (KHTML, like Gecko) Version/4.0 Chrome/37.0.0.0 Mobile MQQBrowser/6.8 TBS/036849 Safari/537.36 MicroMessenger/6.3.27.880 NetType/WIFI Language/zh_CN'
p43
sg16
S'5408b0c3b1aff9f4c9ea0928352da0f8'
p44
sa(dp45
g2
S'34763'
p46
sg4
S'7787'
p47
sg6
S'3585b94985bc3120cbb5ce82ddfb0782'
p48
sg8
S'xx96bc5e4579f8987339a99d2a387b7b9b'
p49
sg10
S'xxb48ee415e7f04d0c3036400572ca45d8'
p50
sg12
S'xxf68627072d29fa75a102440f49bcd839'
p51
sg14
S'Mozilla/5.0 (Linux; Android 4.3; R831S Build/JLS36C) AppleWebKit/537.36 (KHTML, like Gecko) Version/4.0 Chrome/37.0.0.0 Mobile MQQBrowser/6.8 TBS/036849 Safari/537.36 MicroMessenger/6.3.25.861 NetType/cmnet Language/zh_CN'
p52
sg16
S'b0006281fd58fd7be159ebc76887fdb1'
p53
sa(dp54
g2
S'34763'
p55
sg4
S'7794'
p56
sg6
S'3585b94985bc3120cbb5ce82ddfb0782'
p57
sg8
S'xx96bc5e4579f8987339a99d2a387b7b9b'
p58
sg10
S'xxb48ee415e7f04d0c3036400572ca45d8'
p59
sg12
S'xxf68627072d29fa75a102440f49bcd839'
p60
sg14
S'Mozilla/5.0 (Linux; Android 4.3; R831S Build/JLS36C) AppleWebKit/537.36 (KHTML, like Gecko) Version/4.0 Chrome/37.0.0.0 Mobile MQQBrowser/6.8 TBS/036849 Safari/537.36 MicroMessenger/6.3.25.861 NetType/cmnet Language/zh_CN'
p61
sg16
S'b0006281fd58fd7be159ebc76887fdb1'
p62
sa(dp63
g2
S'34763'
p64
sg4
S'7801'
p65
sg6
S'3585b94985bc3120cbb5ce82ddfb0782'
p66
sg8
S'xx96bc5e4579f8987339a99d2a387b7b9b'
p67
sg10
S'xxb48ee415e7f04d0c3036400572ca45d8'
p68
sg12
S'xxf68627072d29fa75a102440f49bcd839'
p69
sg14
S'Mozilla/5.0 (Linux; Android 4.3; R831S Build/JLS36C) AppleWebKit/537.36 (KHTML, like Gecko) Version/4.0 Chrome/37.0.0.0 Mobile MQQBrowser/6.8 TBS/036849 Safari/537.36 MicroMessenger/6.3.25.861 NetType/cmnet Language/zh_CN'
p70
sg16
S'b0006281fd58fd7be159ebc76887fdb1'
p71
sa.