(lp0
(dp1
S'user_id'
p2
S'29916'
p3
sS'data_id'
p4
S'218'
p5
sS'ip'
p6
S'5b48c78089c6f21a864d9e71cbaf0c9d'
p7
sS'phone_B'
p8
S'xxc599c8b6ac61da031ea6e51289f7bb4a'
p9
sS'phone_C'
p10
S'xx0cd7a6f2e85b8e05fb014b9b634a62b4'
p11
sS'phone_A'
p12
S'xxf8c35e314d0860965b6bf19d12a05cec'
p13
sS'user_agent'
p14
S'Mozilla/5.0 (Linux; Android 5.1; YAMI M8 Build/LMY47D) AppleWebKit/537.36 (KHTML, like Gecko) Version/4.0 Chrome/37.0.0.0 Mobile MQQBrowser/6.8 TBS/036849 Safari/537.36 MicroMessenger/6.3.27.880 NetType/WIFI Language/zh_CN'
p15
sS'ua'
p16
S'ede82e2b778e2569e7ee7c1295fd727e'
p17
sa(dp18
g2
S'29916'
p19
sg4
S'228'
p20
sg6
S'5b48c78089c6f21a864d9e71cbaf0c9d'
p21
sg8
S'xxc599c8b6ac61da031ea6e51289f7bb4a'
p22
sg10
S'xx0cd7a6f2e85b8e05fb014b9b634a62b4'
p23
sg12
S'xxf8c35e314d0860965b6bf19d12a05cec'
p24
sg14
S'Mozilla/5.0 (Linux; Android 5.1; YAMI M8 Build/LMY47D) AppleWebKit/537.36 (KHTML, like Gecko) Version/4.0 Chrome/37.0.0.0 Mobile MQQBrowser/6.8 TBS/036849 Safari/537.36 MicroMessenger/6.3.27.880 NetType/WIFI Language/zh_CN'
p25
sg16
S'ede82e2b778e2569e7ee7c1295fd727e'
p26
sa(dp27
g2
S'29962'
p28
sg4
S'389'
p29
sg6
S'5b48c78089c6f21a864d9e71cbaf0c9d'
p30
sg8
S'xxc599c8b6ac61da031ea6e51289f7bb4a'
p31
sg10
S'xx0cd7a6f2e85b8e05fb014b9b634a62b4'
p32
sg12
S'xxf8c35e314d0860965b6bf19d12a05cec'
p33
sg14
S'Mozilla/5.0 (Linux; Android 5.1; YAMI M8 Build/LMY47D) AppleWebKit/537.36 (KHTML, like Gecko) Version/4.0 Chrome/37.0.0.0 Mobile MQQBrowser/6.8 TBS/036849 Safari/537.36 MicroMessenger/6.3.27.880 NetType/WIFI Language/zh_CN'
p34
sg16
S'ede82e2b778e2569e7ee7c1295fd727e'
p35
sa(dp36
g2
S'29962'
p37
sg4
S'404'
p38
sg6
S'5b48c78089c6f21a864d9e71cbaf0c9d'
p39
sg8
S'xxc599c8b6ac61da031ea6e51289f7bb4a'
p40
sg10
S'xx0cd7a6f2e85b8e05fb014b9b634a62b4'
p41
sg12
S'xxf8c35e314d0860965b6bf19d12a05cec'
p42
sg14
S'Mozilla/5.0 (Linux; Android 5.1; YAMI M8 Build/LMY47D) AppleWebKit/537.36 (KHTML, like Gecko) Version/4.0 Chrome/37.0.0.0 Mobile MQQBrowser/6.8 TBS/036849 Safari/537.36 MicroMessenger/6.3.27.880 NetType/WIFI Language/zh_CN'
p43
sg16
S'ede82e2b778e2569e7ee7c1295fd727e'
p44
sa(dp45
g2
S'43095'
p46
sg4
S'517'
p47
sg6
S'5b48c78089c6f21a864d9e71cbaf0c9d'
p48
sg8
S'xxbc6f661435d955ee359ca74cdacf859d'
p49
sg10
S'xx726440e2dc862b56411461e61ffeb064'
p50
sg12
S'xxf8c35e314d0860965b6bf19d12a05cec'
p51
sg14
S'Mozilla/5.0 (Linux; Android 5.1; YAMI M8 Build/LMY47D) AppleWebKit/537.36 (KHTML, like Gecko) Version/4.0 Chrome/39.0.0.0 Mobile Safari/537.36 MicroMessenger/6.3.27.880 NetType/WIFI Language/zh_CN'
p52
sg16
S'028fe1a95cc326cd3f029886c67ac480'
p53
sa(dp54
g2
S'43095'
p55
sg4
S'535'
p56
sg6
S'5b48c78089c6f21a864d9e71cbaf0c9d'
p57
sg8
S'xxbc6f661435d955ee359ca74cdacf859d'
p58
sg10
S'xx726440e2dc862b56411461e61ffeb064'
p59
sg12
S'xxf8c35e314d0860965b6bf19d12a05cec'
p60
sg14
S'Mozilla/5.0 (Linux; Android 5.1; YAMI M8 Build/LMY47D) AppleWebKit/537.36 (KHTML, like Gecko) Version/4.0 Chrome/39.0.0.0 Mobile Safari/537.36 MicroMessenger/6.3.27.880 NetType/WIFI Language/zh_CN'
p61
sg16
S'028fe1a95cc326cd3f029886c67ac480'
p62
sa(dp63
g2
S'43095'
p64
sg4
S'555'
p65
sg6
S'5b48c78089c6f21a864d9e71cbaf0c9d'
p66
sg8
S'xxbc6f661435d955ee359ca74cdacf859d'
p67
sg10
S'xx726440e2dc862b56411461e61ffeb064'
p68
sg12
S'xxf8c35e314d0860965b6bf19d12a05cec'
p69
sg14
S'Mozilla/5.0 (Linux; Android 5.1; YAMI M8 Build/LMY47D) AppleWebKit/537.36 (KHTML, like Gecko) Version/4.0 Chrome/39.0.0.0 Mobile Safari/537.36 MicroMessenger/6.3.27.880 NetType/WIFI Language/zh_CN'
p70
sg16
S'028fe1a95cc326cd3f029886c67ac480'
p71
sa(dp72
g2
S'29916'
p73
sg4
S'4062'
p74
sg6
S'5b48c78089c6f21a864d9e71cbaf0c9d'
p75
sg8
S'xxc599c8b6ac61da031ea6e51289f7bb4a'
p76
sg10
S'xx0cd7a6f2e85b8e05fb014b9b634a62b4'
p77
sg12
S'xxf8c35e314d0860965b6bf19d12a05cec'
p78
sg14
S'Mozilla/5.0 (Linux; Android 5.1; YAMI M8 Build/LMY47D) AppleWebKit/537.36 (KHTML, like Gecko) Version/4.0 Chrome/37.0.0.0 Mobile MQQBrowser/6.8 TBS/036849 Safari/537.36 MicroMessenger/6.3.27.880 NetType/WIFI Language/zh_CN'
p79
sg16
S'ede82e2b778e2569e7ee7c1295fd727e'
p80
sa(dp81
g2
S'29916'
p82
sg4
S'4090'
p83
sg6
S'5b48c78089c6f21a864d9e71cbaf0c9d'
p84
sg8
S'xxc599c8b6ac61da031ea6e51289f7bb4a'
p85
sg10
S'xx0cd7a6f2e85b8e05fb014b9b634a62b4'
p86
sg12
S'xxf8c35e314d0860965b6bf19d12a05cec'
p87
sg14
S'Mozilla/5.0 (Linux; Android 5.1; YAMI M8 Build/LMY47D) AppleWebKit/537.36 (KHTML, like Gecko) Version/4.0 Chrome/37.0.0.0 Mobile MQQBrowser/6.8 TBS/036849 Safari/537.36 MicroMessenger/6.3.27.880 NetType/WIFI Language/zh_CN'
p88
sg16
S'ede82e2b778e2569e7ee7c1295fd727e'
p89
sa(dp90
g2
S'29916'
p91
sg4
S'4115'
p92
sg6
S'5b48c78089c6f21a864d9e71cbaf0c9d'
p93
sg8
S'xxc599c8b6ac61da031ea6e51289f7bb4a'
p94
sg10
S'xx0cd7a6f2e85b8e05fb014b9b634a62b4'
p95
sg12
S'xxf8c35e314d0860965b6bf19d12a05cec'
p96
sg14
S'Mozilla/5.0 (Linux; Android 5.1; YAMI M8 Build/LMY47D) AppleWebKit/537.36 (KHTML, like Gecko) Version/4.0 Chrome/37.0.0.0 Mobile MQQBrowser/6.8 TBS/036849 Safari/537.36 MicroMessenger/6.3.27.880 NetType/WIFI Language/zh_CN'
p97
sg16
S'ede82e2b778e2569e7ee7c1295fd727e'
p98
sa(dp99
g2
S'29962'
p100
sg4
S'4413'
p101
sg6
S'5b48c78089c6f21a864d9e71cbaf0c9d'
p102
sg8
S'xxc599c8b6ac61da031ea6e51289f7bb4a'
p103
sg10
S'xx0cd7a6f2e85b8e05fb014b9b634a62b4'
p104
sg12
S'xxf8c35e314d0860965b6bf19d12a05cec'
p105
sg14
S'Mozilla/5.0 (Linux; Android 5.1; YAMI M8 Build/LMY47D) AppleWebKit/537.36 (KHTML, like Gecko) Version/4.0 Chrome/37.0.0.0 Mobile MQQBrowser/6.8 TBS/036849 Safari/537.36 MicroMessenger/6.3.27.880 NetType/WIFI Language/zh_CN'
p106
sg16
S'ede82e2b778e2569e7ee7c1295fd727e'
p107
sa(dp108
g2
S'29962'
p109
sg4
S'4434'
p110
sg6
S'5b48c78089c6f21a864d9e71cbaf0c9d'
p111
sg8
S'xxc599c8b6ac61da031ea6e51289f7bb4a'
p112
sg10
S'xx0cd7a6f2e85b8e05fb014b9b634a62b4'
p113
sg12
S'xxf8c35e314d0860965b6bf19d12a05cec'
p114
sg14
S'Mozilla/5.0 (Linux; Android 5.1; YAMI M8 Build/LMY47D) AppleWebKit/537.36 (KHTML, like Gecko) Version/4.0 Chrome/37.0.0.0 Mobile MQQBrowser/6.8 TBS/036849 Safari/537.36 MicroMessenger/6.3.27.880 NetType/WIFI Language/zh_CN'
p115
sg16
S'ede82e2b778e2569e7ee7c1295fd727e'
p116
sa(dp117
g2
S'29962'
p118
sg4
S'4481'
p119
sg6
S'5b48c78089c6f21a864d9e71cbaf0c9d'
p120
sg8
S'xxc599c8b6ac61da031ea6e51289f7bb4a'
p121
sg10
S'xx0cd7a6f2e85b8e05fb014b9b634a62b4'
p122
sg12
S'xxf8c35e314d0860965b6bf19d12a05cec'
p123
sg14
S'Mozilla/5.0 (Linux; Android 5.1; YAMI M8 Build/LMY47D) AppleWebKit/537.36 (KHTML, like Gecko) Version/4.0 Chrome/37.0.0.0 Mobile MQQBrowser/6.8 TBS/036849 Safari/537.36 MicroMessenger/6.3.27.880 NetType/WIFI Language/zh_CN'
p124
sg16
S'ede82e2b778e2569e7ee7c1295fd727e'
p125
sa(dp126
g2
S'29962'
p127
sg4
S'4500'
p128
sg6
S'5b48c78089c6f21a864d9e71cbaf0c9d'
p129
sg8
S'xxc599c8b6ac61da031ea6e51289f7bb4a'
p130
sg10
S'xx0cd7a6f2e85b8e05fb014b9b634a62b4'
p131
sg12
S'xxf8c35e314d0860965b6bf19d12a05cec'
p132
sg14
S'Mozilla/5.0 (Linux; Android 5.1; YAMI M8 Build/LMY47D) AppleWebKit/537.36 (KHTML, like Gecko) Version/4.0 Chrome/37.0.0.0 Mobile MQQBrowser/6.8 TBS/036849 Safari/537.36 MicroMessenger/6.3.27.880 NetType/WIFI Language/zh_CN'
p133
sg16
S'ede82e2b778e2569e7ee7c1295fd727e'
p134
sa(dp135
g2
S'29962'
p136
sg4
S'4520'
p137
sg6
S'5b48c78089c6f21a864d9e71cbaf0c9d'
p138
sg8
S'xxc599c8b6ac61da031ea6e51289f7bb4a'
p139
sg10
S'xx0cd7a6f2e85b8e05fb014b9b634a62b4'
p140
sg12
S'xxf8c35e314d0860965b6bf19d12a05cec'
p141
sg14
S'Mozilla/5.0 (Linux; Android 5.1; YAMI M8 Build/LMY47D) AppleWebKit/537.36 (KHTML, like Gecko) Version/4.0 Chrome/37.0.0.0 Mobile MQQBrowser/6.8 TBS/036849 Safari/537.36 MicroMessenger/6.3.27.880 NetType/WIFI Language/zh_CN'
p142
sg16
S'ede82e2b778e2569e7ee7c1295fd727e'
p143
sa(dp144
g2
S'29962'
p145
sg4
S'4549'
p146
sg6
S'5b48c78089c6f21a864d9e71cbaf0c9d'
p147
sg8
S'xxc599c8b6ac61da031ea6e51289f7bb4a'
p148
sg10
S'xx0cd7a6f2e85b8e05fb014b9b634a62b4'
p149
sg12
S'xxf8c35e314d0860965b6bf19d12a05cec'
p150
sg14
S'Mozilla/5.0 (Linux; Android 5.1; YAMI M8 Build/LMY47D) AppleWebKit/537.36 (KHTML, like Gecko) Version/4.0 Chrome/37.0.0.0 Mobile MQQBrowser/6.8 TBS/036849 Safari/537.36 MicroMessenger/6.3.27.880 NetType/WIFI Language/zh_CN'
p151
sg16
S'ede82e2b778e2569e7ee7c1295fd727e'
p152
sa(dp153
g2
S'29962'
p154
sg4
S'4573'
p155
sg6
S'5b48c78089c6f21a864d9e71cbaf0c9d'
p156
sg8
S'xxc599c8b6ac61da031ea6e51289f7bb4a'
p157
sg10
S'xx0cd7a6f2e85b8e05fb014b9b634a62b4'
p158
sg12
S'xxf8c35e314d0860965b6bf19d12a05cec'
p159
sg14
S'Mozilla/5.0 (Linux; Android 5.1; YAMI M8 Build/LMY47D) AppleWebKit/537.36 (KHTML, like Gecko) Version/4.0 Chrome/37.0.0.0 Mobile MQQBrowser/6.8 TBS/036849 Safari/537.36 MicroMessenger/6.3.27.880 NetType/WIFI Language/zh_CN'
p160
sg16
S'ede82e2b778e2569e7ee7c1295fd727e'
p161
sa(dp162
g2
S'29962'
p163
sg4
S'4594'
p164
sg6
S'5b48c78089c6f21a864d9e71cbaf0c9d'
p165
sg8
S'xxc599c8b6ac61da031ea6e51289f7bb4a'
p166
sg10
S'xx0cd7a6f2e85b8e05fb014b9b634a62b4'
p167
sg12
S'xxf8c35e314d0860965b6bf19d12a05cec'
p168
sg14
S'Mozilla/5.0 (Linux; Android 5.1; YAMI M8 Build/LMY47D) AppleWebKit/537.36 (KHTML, like Gecko) Version/4.0 Chrome/37.0.0.0 Mobile MQQBrowser/6.8 TBS/036849 Safari/537.36 MicroMessenger/6.3.27.880 NetType/WIFI Language/zh_CN'
p169
sg16
S'ede82e2b778e2569e7ee7c1295fd727e'
p170
sa(dp171
g2
S'29962'
p172
sg4
S'4613'
p173
sg6
S'5b48c78089c6f21a864d9e71cbaf0c9d'
p174
sg8
S'xxc599c8b6ac61da031ea6e51289f7bb4a'
p175
sg10
S'xx0cd7a6f2e85b8e05fb014b9b634a62b4'
p176
sg12
S'xxf8c35e314d0860965b6bf19d12a05cec'
p177
sg14
S'Mozilla/5.0 (Linux; Android 5.1; YAMI M8 Build/LMY47D) AppleWebKit/537.36 (KHTML, like Gecko) Version/4.0 Chrome/37.0.0.0 Mobile MQQBrowser/6.8 TBS/036849 Safari/537.36 MicroMessenger/6.3.27.880 NetType/WIFI Language/zh_CN'
p178
sg16
S'ede82e2b778e2569e7ee7c1295fd727e'
p179
sa(dp180
g2
S'29962'
p181
sg4
S'4626'
p182
sg6
S'5b48c78089c6f21a864d9e71cbaf0c9d'
p183
sg8
S'xxc599c8b6ac61da031ea6e51289f7bb4a'
p184
sg10
S'xx0cd7a6f2e85b8e05fb014b9b634a62b4'
p185
sg12
S'xxf8c35e314d0860965b6bf19d12a05cec'
p186
sg14
S'Mozilla/5.0 (Linux; Android 5.1; YAMI M8 Build/LMY47D) AppleWebKit/537.36 (KHTML, like Gecko) Version/4.0 Chrome/37.0.0.0 Mobile MQQBrowser/6.8 TBS/036849 Safari/537.36 MicroMessenger/6.3.27.880 NetType/WIFI Language/zh_CN'
p187
sg16
S'ede82e2b778e2569e7ee7c1295fd727e'
p188
sa(dp189
g2
S'29962'
p190
sg4
S'4639'
p191
sg6
S'5b48c78089c6f21a864d9e71cbaf0c9d'
p192
sg8
S'xxc599c8b6ac61da031ea6e51289f7bb4a'
p193
sg10
S'xx0cd7a6f2e85b8e05fb014b9b634a62b4'
p194
sg12
S'xxf8c35e314d0860965b6bf19d12a05cec'
p195
sg14
S'Mozilla/5.0 (Linux; Android 5.1; YAMI M8 Build/LMY47D) AppleWebKit/537.36 (KHTML, like Gecko) Version/4.0 Chrome/37.0.0.0 Mobile MQQBrowser/6.8 TBS/036849 Safari/537.36 MicroMessenger/6.3.27.880 NetType/WIFI Language/zh_CN'
p196
sg16
S'ede82e2b778e2569e7ee7c1295fd727e'
p197
sa(dp198
g2
S'29962'
p199
sg4
S'4657'
p200
sg6
S'5b48c78089c6f21a864d9e71cbaf0c9d'
p201
sg8
S'xxc599c8b6ac61da031ea6e51289f7bb4a'
p202
sg10
S'xx0cd7a6f2e85b8e05fb014b9b634a62b4'
p203
sg12
S'xxf8c35e314d0860965b6bf19d12a05cec'
p204
sg14
S'Mozilla/5.0 (Linux; Android 5.1; YAMI M8 Build/LMY47D) AppleWebKit/537.36 (KHTML, like Gecko) Version/4.0 Chrome/37.0.0.0 Mobile MQQBrowser/6.8 TBS/036849 Safari/537.36 MicroMessenger/6.3.27.880 NetType/WIFI Language/zh_CN'
p205
sg16
S'ede82e2b778e2569e7ee7c1295fd727e'
p206
sa(dp207
g2
S'29962'
p208
sg4
S'4673'
p209
sg6
S'5b48c78089c6f21a864d9e71cbaf0c9d'
p210
sg8
S'xxc599c8b6ac61da031ea6e51289f7bb4a'
p211
sg10
S'xx0cd7a6f2e85b8e05fb014b9b634a62b4'
p212
sg12
S'xxf8c35e314d0860965b6bf19d12a05cec'
p213
sg14
S'Mozilla/5.0 (Linux; Android 5.1; YAMI M8 Build/LMY47D) AppleWebKit/537.36 (KHTML, like Gecko) Version/4.0 Chrome/37.0.0.0 Mobile MQQBrowser/6.8 TBS/036849 Safari/537.36 MicroMessenger/6.3.27.880 NetType/WIFI Language/zh_CN'
p214
sg16
S'ede82e2b778e2569e7ee7c1295fd727e'
p215
sa(dp216
g2
S'29962'
p217
sg4
S'4693'
p218
sg6
S'5b48c78089c6f21a864d9e71cbaf0c9d'
p219
sg8
S'xxc599c8b6ac61da031ea6e51289f7bb4a'
p220
sg10
S'xx0cd7a6f2e85b8e05fb014b9b634a62b4'
p221
sg12
S'xxf8c35e314d0860965b6bf19d12a05cec'
p222
sg14
S'Mozilla/5.0 (Linux; Android 5.1; YAMI M8 Build/LMY47D) AppleWebKit/537.36 (KHTML, like Gecko) Version/4.0 Chrome/37.0.0.0 Mobile MQQBrowser/6.8 TBS/036849 Safari/537.36 MicroMessenger/6.3.27.880 NetType/WIFI Language/zh_CN'
p223
sg16
S'ede82e2b778e2569e7ee7c1295fd727e'
p224
sa(dp225
g2
S'29962'
p226
sg4
S'4710'
p227
sg6
S'5b48c78089c6f21a864d9e71cbaf0c9d'
p228
sg8
S'xxc599c8b6ac61da031ea6e51289f7bb4a'
p229
sg10
S'xx0cd7a6f2e85b8e05fb014b9b634a62b4'
p230
sg12
S'xxf8c35e314d0860965b6bf19d12a05cec'
p231
sg14
S'Mozilla/5.0 (Linux; Android 5.1; YAMI M8 Build/LMY47D) AppleWebKit/537.36 (KHTML, like Gecko) Version/4.0 Chrome/37.0.0.0 Mobile MQQBrowser/6.8 TBS/036849 Safari/537.36 MicroMessenger/6.3.27.880 NetType/WIFI Language/zh_CN'
p232
sg16
S'ede82e2b778e2569e7ee7c1295fd727e'
p233
sa(dp234
g2
S'29962'
p235
sg4
S'4802'
p236
sg6
S'5b48c78089c6f21a864d9e71cbaf0c9d'
p237
sg8
S'xxc599c8b6ac61da031ea6e51289f7bb4a'
p238
sg10
S'xx0cd7a6f2e85b8e05fb014b9b634a62b4'
p239
sg12
S'xxf8c35e314d0860965b6bf19d12a05cec'
p240
sg14
S'Mozilla/5.0 (Linux; Android 5.1; YAMI M8 Build/LMY47D) AppleWebKit/537.36 (KHTML, like Gecko) Version/4.0 Chrome/37.0.0.0 Mobile MQQBrowser/6.8 TBS/036849 Safari/537.36 MicroMessenger/6.3.27.880 NetType/WIFI Language/zh_CN'
p241
sg16
S'ede82e2b778e2569e7ee7c1295fd727e'
p242
sa(dp243
g2
S'29962'
p244
sg4
S'4862'
p245
sg6
S'5b48c78089c6f21a864d9e71cbaf0c9d'
p246
sg8
S'xxc599c8b6ac61da031ea6e51289f7bb4a'
p247
sg10
S'xx0cd7a6f2e85b8e05fb014b9b634a62b4'
p248
sg12
S'xxf8c35e314d0860965b6bf19d12a05cec'
p249
sg14
S'Mozilla/5.0 (Linux; Android 5.1; YAMI M8 Build/LMY47D) AppleWebKit/537.36 (KHTML, like Gecko) Version/4.0 Chrome/37.0.0.0 Mobile MQQBrowser/6.8 TBS/036849 Safari/537.36 MicroMessenger/6.3.27.880 NetType/WIFI Language/zh_CN'
p250
sg16
S'ede82e2b778e2569e7ee7c1295fd727e'
p251
sa(dp252
g2
S'29962'
p253
sg4
S'4938'
p254
sg6
S'5b48c78089c6f21a864d9e71cbaf0c9d'
p255
sg8
S'xxc599c8b6ac61da031ea6e51289f7bb4a'
p256
sg10
S'xx0cd7a6f2e85b8e05fb014b9b634a62b4'
p257
sg12
S'xxf8c35e314d0860965b6bf19d12a05cec'
p258
sg14
S'Mozilla/5.0 (Linux; Android 5.1; YAMI M8 Build/LMY47D) AppleWebKit/537.36 (KHTML, like Gecko) Version/4.0 Chrome/37.0.0.0 Mobile MQQBrowser/6.8 TBS/036849 Safari/537.36 MicroMessenger/6.3.27.880 NetType/WIFI Language/zh_CN'
p259
sg16
S'ede82e2b778e2569e7ee7c1295fd727e'
p260
sa(dp261
g2
S'29962'
p262
sg4
S'5987'
p263
sg6
S'5b48c78089c6f21a864d9e71cbaf0c9d'
p264
sg8
S'xxc599c8b6ac61da031ea6e51289f7bb4a'
p265
sg10
S'xx0cd7a6f2e85b8e05fb014b9b634a62b4'
p266
sg12
S'xxf8c35e314d0860965b6bf19d12a05cec'
p267
sg14
S'Mozilla/5.0 (Linux; Android 5.1; YAMI M8 Build/LMY47D) AppleWebKit/537.36 (KHTML, like Gecko) Version/4.0 Chrome/37.0.0.0 Mobile MQQBrowser/6.8 TBS/036849 Safari/537.36 MicroMessenger/6.3.27.880 NetType/WIFI Language/zh_CN'
p268
sg16
S'ede82e2b778e2569e7ee7c1295fd727e'
p269
sa(dp270
g2
S'29962'
p271
sg4
S'6000'
p272
sg6
S'5b48c78089c6f21a864d9e71cbaf0c9d'
p273
sg8
S'xxc599c8b6ac61da031ea6e51289f7bb4a'
p274
sg10
S'xx0cd7a6f2e85b8e05fb014b9b634a62b4'
p275
sg12
S'xxf8c35e314d0860965b6bf19d12a05cec'
p276
sg14
S'Mozilla/5.0 (Linux; Android 5.1; YAMI M8 Build/LMY47D) AppleWebKit/537.36 (KHTML, like Gecko) Version/4.0 Chrome/37.0.0.0 Mobile MQQBrowser/6.8 TBS/036849 Safari/537.36 MicroMessenger/6.3.27.880 NetType/WIFI Language/zh_CN'
p277
sg16
S'ede82e2b778e2569e7ee7c1295fd727e'
p278
sa(dp279
g2
S'43095'
p280
sg4
S'7142'
p281
sg6
S'5b48c78089c6f21a864d9e71cbaf0c9d'
p282
sg8
S'xxbc6f661435d955ee359ca74cdacf859d'
p283
sg10
S'xx726440e2dc862b56411461e61ffeb064'
p284
sg12
S'xxf8c35e314d0860965b6bf19d12a05cec'
p285
sg14
S'Mozilla/5.0 (Linux; Android 5.1; YAMI M8 Build/LMY47D) AppleWebKit/537.36 (KHTML, like Gecko) Version/4.0 Chrome/39.0.0.0 Mobile Safari/537.36 MicroMessenger/6.3.27.880 NetType/WIFI Language/zh_CN'
p286
sg16
S'028fe1a95cc326cd3f029886c67ac480'
p287
sa(dp288
g2
S'43095'
p289
sg4
S'7189'
p290
sg6
S'5b48c78089c6f21a864d9e71cbaf0c9d'
p291
sg8
S'xxbc6f661435d955ee359ca74cdacf859d'
p292
sg10
S'xx726440e2dc862b56411461e61ffeb064'
p293
sg12
S'xxf8c35e314d0860965b6bf19d12a05cec'
p294
sg14
S'Mozilla/5.0 (Linux; Android 5.1; YAMI M8 Build/LMY47D) AppleWebKit/537.36 (KHTML, like Gecko) Version/4.0 Chrome/39.0.0.0 Mobile Safari/537.36 MicroMessenger/6.3.27.880 NetType/WIFI Language/zh_CN'
p295
sg16
S'028fe1a95cc326cd3f029886c67ac480'
p296
sa(dp297
g2
S'43095'
p298
sg4
S'7223'
p299
sg6
S'5b48c78089c6f21a864d9e71cbaf0c9d'
p300
sg8
S'xxbc6f661435d955ee359ca74cdacf859d'
p301
sg10
S'xx726440e2dc862b56411461e61ffeb064'
p302
sg12
S'xxf8c35e314d0860965b6bf19d12a05cec'
p303
sg14
S'Mozilla/5.0 (Linux; Android 5.1; YAMI M8 Build/LMY47D) AppleWebKit/537.36 (KHTML, like Gecko) Version/4.0 Chrome/39.0.0.0 Mobile Safari/537.36 MicroMessenger/6.3.27.880 NetType/WIFI Language/zh_CN'
p304
sg16
S'028fe1a95cc326cd3f029886c67ac480'
p305
sa(dp306
g2
S'43095'
p307
sg4
S'7234'
p308
sg6
S'5b48c78089c6f21a864d9e71cbaf0c9d'
p309
sg8
S'xxbc6f661435d955ee359ca74cdacf859d'
p310
sg10
S'xx726440e2dc862b56411461e61ffeb064'
p311
sg12
S'xxf8c35e314d0860965b6bf19d12a05cec'
p312
sg14
S'Mozilla/5.0 (Linux; Android 5.1; YAMI M8 Build/LMY47D) AppleWebKit/537.36 (KHTML, like Gecko) Version/4.0 Chrome/39.0.0.0 Mobile Safari/537.36 MicroMessenger/6.3.27.880 NetType/WIFI Language/zh_CN'
p313
sg16
S'028fe1a95cc326cd3f029886c67ac480'
p314
sa(dp315
g2
S'43095'
p316
sg4
S'7248'
p317
sg6
S'5b48c78089c6f21a864d9e71cbaf0c9d'
p318
sg8
S'xxbc6f661435d955ee359ca74cdacf859d'
p319
sg10
S'xx726440e2dc862b56411461e61ffeb064'
p320
sg12
S'xxf8c35e314d0860965b6bf19d12a05cec'
p321
sg14
S'Mozilla/5.0 (Linux; Android 5.1; YAMI M8 Build/LMY47D) AppleWebKit/537.36 (KHTML, like Gecko) Version/4.0 Chrome/39.0.0.0 Mobile Safari/537.36 MicroMessenger/6.3.27.880 NetType/WIFI Language/zh_CN'
p322
sg16
S'028fe1a95cc326cd3f029886c67ac480'
p323
sa(dp324
g2
S'43095'
p325
sg4
S'7260'
p326
sg6
S'5b48c78089c6f21a864d9e71cbaf0c9d'
p327
sg8
S'xxbc6f661435d955ee359ca74cdacf859d'
p328
sg10
S'xx726440e2dc862b56411461e61ffeb064'
p329
sg12
S'xxf8c35e314d0860965b6bf19d12a05cec'
p330
sg14
S'Mozilla/5.0 (Linux; Android 5.1; YAMI M8 Build/LMY47D) AppleWebKit/537.36 (KHTML, like Gecko) Version/4.0 Chrome/39.0.0.0 Mobile Safari/537.36 MicroMessenger/6.3.27.880 NetType/WIFI Language/zh_CN'
p331
sg16
S'028fe1a95cc326cd3f029886c67ac480'
p332
sa(dp333
g2
S'43095'
p334
sg4
S'7273'
p335
sg6
S'5b48c78089c6f21a864d9e71cbaf0c9d'
p336
sg8
S'xxbc6f661435d955ee359ca74cdacf859d'
p337
sg10
S'xx726440e2dc862b56411461e61ffeb064'
p338
sg12
S'xxf8c35e314d0860965b6bf19d12a05cec'
p339
sg14
S'Mozilla/5.0 (Linux; Android 5.1; YAMI M8 Build/LMY47D) AppleWebKit/537.36 (KHTML, like Gecko) Version/4.0 Chrome/39.0.0.0 Mobile Safari/537.36 MicroMessenger/6.3.27.880 NetType/WIFI Language/zh_CN'
p340
sg16
S'028fe1a95cc326cd3f029886c67ac480'
p341
sa(dp342
g2
S'43095'
p343
sg4
S'7293'
p344
sg6
S'5b48c78089c6f21a864d9e71cbaf0c9d'
p345
sg8
S'xxbc6f661435d955ee359ca74cdacf859d'
p346
sg10
S'xx726440e2dc862b56411461e61ffeb064'
p347
sg12
S'xxf8c35e314d0860965b6bf19d12a05cec'
p348
sg14
S'Mozilla/5.0 (Linux; Android 5.1; YAMI M8 Build/LMY47D) AppleWebKit/537.36 (KHTML, like Gecko) Version/4.0 Chrome/39.0.0.0 Mobile Safari/537.36 MicroMessenger/6.3.27.880 NetType/WIFI Language/zh_CN'
p349
sg16
S'028fe1a95cc326cd3f029886c67ac480'
p350
sa(dp351
g2
S'43095'
p352
sg4
S'7310'
p353
sg6
S'5b48c78089c6f21a864d9e71cbaf0c9d'
p354
sg8
S'xxbc6f661435d955ee359ca74cdacf859d'
p355
sg10
S'xx726440e2dc862b56411461e61ffeb064'
p356
sg12
S'xxf8c35e314d0860965b6bf19d12a05cec'
p357
sg14
S'Mozilla/5.0 (Linux; Android 5.1; YAMI M8 Build/LMY47D) AppleWebKit/537.36 (KHTML, like Gecko) Version/4.0 Chrome/39.0.0.0 Mobile Safari/537.36 MicroMessenger/6.3.27.880 NetType/WIFI Language/zh_CN'
p358
sg16
S'028fe1a95cc326cd3f029886c67ac480'
p359
sa(dp360
g2
S'43095'
p361
sg4
S'7327'
p362
sg6
S'5b48c78089c6f21a864d9e71cbaf0c9d'
p363
sg8
S'xxbc6f661435d955ee359ca74cdacf859d'
p364
sg10
S'xx726440e2dc862b56411461e61ffeb064'
p365
sg12
S'xxf8c35e314d0860965b6bf19d12a05cec'
p366
sg14
S'Mozilla/5.0 (Linux; Android 5.1; YAMI M8 Build/LMY47D) AppleWebKit/537.36 (KHTML, like Gecko) Version/4.0 Chrome/39.0.0.0 Mobile Safari/537.36 MicroMessenger/6.3.27.880 NetType/WIFI Language/zh_CN'
p367
sg16
S'028fe1a95cc326cd3f029886c67ac480'
p368
sa(dp369
g2
S'43095'
p370
sg4
S'7341'
p371
sg6
S'5b48c78089c6f21a864d9e71cbaf0c9d'
p372
sg8
S'xxbc6f661435d955ee359ca74cdacf859d'
p373
sg10
S'xx726440e2dc862b56411461e61ffeb064'
p374
sg12
S'xxf8c35e314d0860965b6bf19d12a05cec'
p375
sg14
S'Mozilla/5.0 (Linux; Android 5.1; YAMI M8 Build/LMY47D) AppleWebKit/537.36 (KHTML, like Gecko) Version/4.0 Chrome/39.0.0.0 Mobile Safari/537.36 MicroMessenger/6.3.27.880 NetType/WIFI Language/zh_CN'
p376
sg16
S'028fe1a95cc326cd3f029886c67ac480'
p377
sa(dp378
g2
S'43095'
p379
sg4
S'7354'
p380
sg6
S'5b48c78089c6f21a864d9e71cbaf0c9d'
p381
sg8
S'xxbc6f661435d955ee359ca74cdacf859d'
p382
sg10
S'xx726440e2dc862b56411461e61ffeb064'
p383
sg12
S'xxf8c35e314d0860965b6bf19d12a05cec'
p384
sg14
S'Mozilla/5.0 (Linux; Android 5.1; YAMI M8 Build/LMY47D) AppleWebKit/537.36 (KHTML, like Gecko) Version/4.0 Chrome/39.0.0.0 Mobile Safari/537.36 MicroMessenger/6.3.27.880 NetType/WIFI Language/zh_CN'
p385
sg16
S'028fe1a95cc326cd3f029886c67ac480'
p386
sa(dp387
g2
S'43095'
p388
sg4
S'7367'
p389
sg6
S'5b48c78089c6f21a864d9e71cbaf0c9d'
p390
sg8
S'xxbc6f661435d955ee359ca74cdacf859d'
p391
sg10
S'xx726440e2dc862b56411461e61ffeb064'
p392
sg12
S'xxf8c35e314d0860965b6bf19d12a05cec'
p393
sg14
S'Mozilla/5.0 (Linux; Android 5.1; YAMI M8 Build/LMY47D) AppleWebKit/537.36 (KHTML, like Gecko) Version/4.0 Chrome/39.0.0.0 Mobile Safari/537.36 MicroMessenger/6.3.27.880 NetType/WIFI Language/zh_CN'
p394
sg16
S'028fe1a95cc326cd3f029886c67ac480'
p395
sa(dp396
g2
S'43095'
p397
sg4
S'7383'
p398
sg6
S'5b48c78089c6f21a864d9e71cbaf0c9d'
p399
sg8
S'xxbc6f661435d955ee359ca74cdacf859d'
p400
sg10
S'xx726440e2dc862b56411461e61ffeb064'
p401
sg12
S'xxf8c35e314d0860965b6bf19d12a05cec'
p402
sg14
S'Mozilla/5.0 (Linux; Android 5.1; YAMI M8 Build/LMY47D) AppleWebKit/537.36 (KHTML, like Gecko) Version/4.0 Chrome/39.0.0.0 Mobile Safari/537.36 MicroMessenger/6.3.27.880 NetType/WIFI Language/zh_CN'
p403
sg16
S'028fe1a95cc326cd3f029886c67ac480'
p404
sa(dp405
g2
S'43095'
p406
sg4
S'7394'
p407
sg6
S'5b48c78089c6f21a864d9e71cbaf0c9d'
p408
sg8
S'xxbc6f661435d955ee359ca74cdacf859d'
p409
sg10
S'xx726440e2dc862b56411461e61ffeb064'
p410
sg12
S'xxf8c35e314d0860965b6bf19d12a05cec'
p411
sg14
S'Mozilla/5.0 (Linux; Android 5.1; YAMI M8 Build/LMY47D) AppleWebKit/537.36 (KHTML, like Gecko) Version/4.0 Chrome/39.0.0.0 Mobile Safari/537.36 MicroMessenger/6.3.27.880 NetType/WIFI Language/zh_CN'
p412
sg16
S'028fe1a95cc326cd3f029886c67ac480'
p413
sa(dp414
g2
S'43095'
p415
sg4
S'7406'
p416
sg6
S'5b48c78089c6f21a864d9e71cbaf0c9d'
p417
sg8
S'xxbc6f661435d955ee359ca74cdacf859d'
p418
sg10
S'xx726440e2dc862b56411461e61ffeb064'
p419
sg12
S'xxf8c35e314d0860965b6bf19d12a05cec'
p420
sg14
S'Mozilla/5.0 (Linux; Android 5.1; YAMI M8 Build/LMY47D) AppleWebKit/537.36 (KHTML, like Gecko) Version/4.0 Chrome/39.0.0.0 Mobile Safari/537.36 MicroMessenger/6.3.27.880 NetType/WIFI Language/zh_CN'
p421
sg16
S'028fe1a95cc326cd3f029886c67ac480'
p422
sa(dp423
g2
S'43095'
p424
sg4
S'7434'
p425
sg6
S'5b48c78089c6f21a864d9e71cbaf0c9d'
p426
sg8
S'xxbc6f661435d955ee359ca74cdacf859d'
p427
sg10
S'xx726440e2dc862b56411461e61ffeb064'
p428
sg12
S'xxf8c35e314d0860965b6bf19d12a05cec'
p429
sg14
S'Mozilla/5.0 (Linux; Android 5.1; YAMI M8 Build/LMY47D) AppleWebKit/537.36 (KHTML, like Gecko) Version/4.0 Chrome/39.0.0.0 Mobile Safari/537.36 MicroMessenger/6.3.27.880 NetType/WIFI Language/zh_CN'
p430
sg16
S'028fe1a95cc326cd3f029886c67ac480'
p431
sa(dp432
g2
S'43095'
p433
sg4
S'7480'
p434
sg6
S'5b48c78089c6f21a864d9e71cbaf0c9d'
p435
sg8
S'xxbc6f661435d955ee359ca74cdacf859d'
p436
sg10
S'xx726440e2dc862b56411461e61ffeb064'
p437
sg12
S'xxf8c35e314d0860965b6bf19d12a05cec'
p438
sg14
S'Mozilla/5.0 (Linux; Android 5.1; YAMI M8 Build/LMY47D) AppleWebKit/537.36 (KHTML, like Gecko) Version/4.0 Chrome/39.0.0.0 Mobile Safari/537.36 MicroMessenger/6.3.27.880 NetType/WIFI Language/zh_CN'
p439
sg16
S'028fe1a95cc326cd3f029886c67ac480'
p440
sa.