(lp0
(dp1
S'user_id'
p2
S'31400'
p3
sS'data_id'
p4
S'2625'
p5
sS'ip'
p6
S'783ec5c440b55f32ca4f1c46a5126757'
p7
sS'phone_B'
p8
S'xxf2e143acbb13d7574582230aedd99119'
p9
sS'phone_C'
p10
S'xxc9295af4e0dc725c4d8ab19fe11a9587'
p11
sS'phone_A'
p12
S'xxf9f25894c86a15a1bdb785f22b1e9f69'
p13
sS'user_agent'
p14
S'Mozilla/5.0 (Linux; Android 4.4.4; 3007 Build/KTU84P) AppleWebKit/537.36 (KHTML, like Gecko) Version/4.0 Chrome/37.0.0.0 Mobile MQQBrowser/6.8 TBS/036849 Safari/537.36 MicroMessenger/6.3.25.861 NetType/WIFI Language/zh_CN'
p15
sS'ua'
p16
S'65f2dcdc489962fb6cea97bf945bb644'
p17
sa(dp18
g2
S'31400'
p19
sg4
S'2643'
p20
sg6
S'783ec5c440b55f32ca4f1c46a5126757'
p21
sg8
S'xxf2e143acbb13d7574582230aedd99119'
p22
sg10
S'xxc9295af4e0dc725c4d8ab19fe11a9587'
p23
sg12
S'xxf9f25894c86a15a1bdb785f22b1e9f69'
p24
sg14
S'Mozilla/5.0 (Linux; Android 4.4.4; 3007 Build/KTU84P) AppleWebKit/537.36 (KHTML, like Gecko) Version/4.0 Chrome/37.0.0.0 Mobile MQQBrowser/6.8 TBS/036849 Safari/537.36 MicroMessenger/6.3.25.861 NetType/WIFI Language/zh_CN'
p25
sg16
S'65f2dcdc489962fb6cea97bf945bb644'
p26
sa(dp27
g2
S'40436'
p28
sg4
S'6385'
p29
sg6
S'f68b84c369cd31b3c5ccd9b154fbe8e4'
p30
sg8
S'xx9d523ffaad34e6504a1794abe97ffd11'
p31
sg10
S'xxd106300ff461d0201462db42829ecebc'
p32
sg12
S'xxf9f25894c86a15a1bdb785f22b1e9f69'
p33
sg14
S'Mozilla/5.0 (Linux; Android 4.4.4; 3007 Build/KTU84P) AppleWebKit/537.36 (KHTML, like Gecko) Version/4.0 Chrome/37.0.0.0 Mobile MQQBrowser/6.8 TBS/036865 Safari/537.36 MicroMessenger/6.3.25.861 NetType/WIFI Language/zh_CN'
p34
sg16
S'60dbdfe934fed27117065de682074d0d'
p35
sa(dp36
g2
S'40436'
p37
sg4
S'6402'
p38
sg6
S'f68b84c369cd31b3c5ccd9b154fbe8e4'
p39
sg8
S'xx9d523ffaad34e6504a1794abe97ffd11'
p40
sg10
S'xxd106300ff461d0201462db42829ecebc'
p41
sg12
S'xxf9f25894c86a15a1bdb785f22b1e9f69'
p42
sg14
S'Mozilla/5.0 (Linux; Android 4.4.4; 3007 Build/KTU84P) AppleWebKit/537.36 (KHTML, like Gecko) Version/4.0 Chrome/37.0.0.0 Mobile MQQBrowser/6.8 TBS/036865 Safari/537.36 MicroMessenger/6.3.25.861 NetType/WIFI Language/zh_CN'
p43
sg16
S'60dbdfe934fed27117065de682074d0d'
p44
sa(dp45
g2
S'40436'
p46
sg4
S'6781'
p47
sg6
S'f68b84c369cd31b3c5ccd9b154fbe8e4'
p48
sg8
S'xxaf8d5226f546da42b5b803e267e0abe5'
p49
sg10
S'xxd106300ff461d0201462db42829ecebc'
p50
sg12
S'xxf9f25894c86a15a1bdb785f22b1e9f69'
p51
sg14
S'Mozilla/5.0 (Linux; Android 4.4.4; 3007 Build/KTU84P) AppleWebKit/537.36 (KHTML, like Gecko) Version/4.0 Chrome/37.0.0.0 Mobile MQQBrowser/6.8 TBS/036865 Safari/537.36 MicroMessenger/6.3.25.861 NetType/NON_NETWORK Language/zh_CN'
p52
sg16
S'df26a82445efccd912a5b681d1a1593b'
p53
sa(dp54
g2
S'40436'
p55
sg4
S'6862'
p56
sg6
S'f68b84c369cd31b3c5ccd9b154fbe8e4'
p57
sg8
S'xxaf8d5226f546da42b5b803e267e0abe5'
p58
sg10
S'xxd106300ff461d0201462db42829ecebc'
p59
sg12
S'xxf9f25894c86a15a1bdb785f22b1e9f69'
p60
sg14
S'Mozilla/5.0 (Linux; Android 4.4.4; 3007 Build/KTU84P) AppleWebKit/537.36 (KHTML, like Gecko) Version/4.0 Chrome/37.0.0.0 Mobile MQQBrowser/6.8 TBS/036865 Safari/537.36 MicroMessenger/6.3.25.861 NetType/NON_NETWORK Language/zh_CN'
p61
sg16
S'df26a82445efccd912a5b681d1a1593b'
p62
sa.