(lp0
(dp1
S'user_id'
p2
S'30922'
p3
sS'data_id'
p4
S'1487'
p5
sS'ip'
p6
S'509368e6f61d2e7b8daf31e0cb12da6d'
p7
sS'phone_B'
p8
S'xxbcc534f4a19a675150abd3d05d563fb6'
p9
sS'phone_C'
p10
S'xx82b314b6fc5bbfd9ceb7043404c0a6e0'
p11
sS'phone_A'
p12
S'xxf92bdf128efd368fdfa2d7756db03f2e'
p13
sS'user_agent'
p14
S'Mozilla/5.0 (Linux; Android 4.4.4; SM-G5108Q Build/KTU84P) AppleWebKit/537.36 (KHTML, like Gecko) Version/4.0 Chrome/37.0.0.0 Mobile MQQBrowser/6.8 TBS/036849 Safari/537.36 MicroMessenger/6.3.27.880 NetType/WIFI Language/zh_CN'
p15
sS'ua'
p16
S'b80bdb878a81f623215b3f24803d167e'
p17
sa(dp18
g2
S'30922'
p19
sg4
S'1504'
p20
sg6
S'509368e6f61d2e7b8daf31e0cb12da6d'
p21
sg8
S'xxbcc534f4a19a675150abd3d05d563fb6'
p22
sg10
S'xx82b314b6fc5bbfd9ceb7043404c0a6e0'
p23
sg12
S'xxf92bdf128efd368fdfa2d7756db03f2e'
p24
sg14
S'Mozilla/5.0 (Linux; Android 4.4.4; SM-G5108Q Build/KTU84P) AppleWebKit/537.36 (KHTML, like Gecko) Version/4.0 Chrome/37.0.0.0 Mobile MQQBrowser/6.8 TBS/036849 Safari/537.36 MicroMessenger/6.3.27.880 NetType/WIFI Language/zh_CN'
p25
sg16
S'b80bdb878a81f623215b3f24803d167e'
p26
sa(dp27
g2
S'30922'
p28
sg4
S'1519'
p29
sg6
S'509368e6f61d2e7b8daf31e0cb12da6d'
p30
sg8
S'xxbcc534f4a19a675150abd3d05d563fb6'
p31
sg10
S'xx82b314b6fc5bbfd9ceb7043404c0a6e0'
p32
sg12
S'xxf92bdf128efd368fdfa2d7756db03f2e'
p33
sg14
S'Mozilla/5.0 (Linux; Android 4.4.4; SM-G5108Q Build/KTU84P) AppleWebKit/537.36 (KHTML, like Gecko) Version/4.0 Chrome/37.0.0.0 Mobile MQQBrowser/6.8 TBS/036849 Safari/537.36 MicroMessenger/6.3.27.880 NetType/WIFI Language/zh_CN'
p34
sg16
S'b80bdb878a81f623215b3f24803d167e'
p35
sa.