(lp0
(dp1
S'user_id'
p2
S'5381'
p3
sS'data_id'
p4
S'756'
p5
sS'ip'
p6
S'5b48c78089c6f21a864d9e71cbaf0c9d'
p7
sS'phone_B'
p8
S'xx002b6a5597857d1ac0100e2c884a4426'
p9
sS'phone_C'
p10
S'xxa7c37b31476894a9d5495958bd0a8705'
p11
sS'phone_A'
p12
S'xxfb8c8e7a2c5251729e057ad83d7036fc'
p13
sS'user_agent'
p14
S'Mozilla/5.0 (Linux; Android 5.1; 1501_M02 Build/LMY47D) AppleWebKit/537.36 (KHTML, like Gecko) Version/4.0 Chrome/37.0.0.0 Mobile MQQBrowser/6.8 TBS/036849 Safari/537.36 MicroMessenger/6.3.27.880 NetType/WIFI Language/zh_CN'
p15
sS'ua'
p16
S'3bfb92458f1694fe7aa7c1ab97a75768'
p17
sa(dp18
g2
S'5381'
p19
sg4
S'768'
p20
sg6
S'5b48c78089c6f21a864d9e71cbaf0c9d'
p21
sg8
S'xx002b6a5597857d1ac0100e2c884a4426'
p22
sg10
S'xxa7c37b31476894a9d5495958bd0a8705'
p23
sg12
S'xxfb8c8e7a2c5251729e057ad83d7036fc'
p24
sg14
S'Mozilla/5.0 (Linux; Android 5.1; 1501_M02 Build/LMY47D) AppleWebKit/537.36 (KHTML, like Gecko) Version/4.0 Chrome/37.0.0.0 Mobile MQQBrowser/6.8 TBS/036849 Safari/537.36 MicroMessenger/6.3.27.880 NetType/WIFI Language/zh_CN'
p25
sg16
S'3bfb92458f1694fe7aa7c1ab97a75768'
p26
sa(dp27
g2
S'17962'
p28
sg4
S'900'
p29
sg6
S'5b48c78089c6f21a864d9e71cbaf0c9d'
p30
sg8
S'xx002b6a5597857d1ac0100e2c884a4426'
p31
sg10
S'xxa7c37b31476894a9d5495958bd0a8705'
p32
sg12
S'xxfb8c8e7a2c5251729e057ad83d7036fc'
p33
sg14
S'Mozilla/5.0 (Linux; Android 5.1; 1501_M02 Build/LMY47D) AppleWebKit/537.36 (KHTML, like Gecko) Version/4.0 Chrome/37.0.0.0 Mobile MQQBrowser/6.8 TBS/036849 Safari/537.36 MicroMessenger/6.3.27.880 NetType/WIFI Language/zh_CN'
p34
sg16
S'3bfb92458f1694fe7aa7c1ab97a75768'
p35
sa(dp36
g2
S'5461'
p37
sg4
S'982'
p38
sg6
S'5b48c78089c6f21a864d9e71cbaf0c9d'
p39
sg8
S'xx002b6a5597857d1ac0100e2c884a4426'
p40
sg10
S'xxa7c37b31476894a9d5495958bd0a8705'
p41
sg12
S'xxfb8c8e7a2c5251729e057ad83d7036fc'
p42
sg14
S'Mozilla/5.0 (Linux; Android 5.1; 1501_M02 Build/LMY47D) AppleWebKit/537.36 (KHTML, like Gecko) Version/4.0 Chrome/37.0.0.0 Mobile MQQBrowser/6.8 TBS/036849 Safari/537.36 MicroMessenger/6.3.27.880 NetType/WIFI Language/zh_CN'
p43
sg16
S'3bfb92458f1694fe7aa7c1ab97a75768'
p44
sa(dp45
g2
S'5461'
p46
sg4
S'1002'
p47
sg6
S'5b48c78089c6f21a864d9e71cbaf0c9d'
p48
sg8
S'xx002b6a5597857d1ac0100e2c884a4426'
p49
sg10
S'xxa7c37b31476894a9d5495958bd0a8705'
p50
sg12
S'xxfb8c8e7a2c5251729e057ad83d7036fc'
p51
sg14
S'Mozilla/5.0 (Linux; Android 5.1; 1501_M02 Build/LMY47D) AppleWebKit/537.36 (KHTML, like Gecko) Version/4.0 Chrome/37.0.0.0 Mobile MQQBrowser/6.8 TBS/036849 Safari/537.36 MicroMessenger/6.3.27.880 NetType/WIFI Language/zh_CN'
p52
sg16
S'3bfb92458f1694fe7aa7c1ab97a75768'
p53
sa(dp54
g2
S'42117'
p55
sg4
S'2102'
p56
sg6
S'd333c7d9d10bd1478d7210b706941414'
p57
sg8
S'xxd67eed04b50b6e1dbdb66003e09a928d'
p58
sg10
S'xxa2688a2f031d413266952588af165010'
p59
sg12
S'xxfb8c8e7a2c5251729e057ad83d7036fc'
p60
sg14
S'Mozilla/5.0 (Linux; Android 5.1; 1501_M02 Build/LMY47D) AppleWebKit/537.36 (KHTML, like Gecko) Version/4.0 Chrome/37.0.0.0 Mobile MQQBrowser/6.8 TBS/036849 Safari/537.36 MicroMessenger/6.3.27.880 NetType/WIFI Language/zh_CN'
p61
sg16
S'3bfb92458f1694fe7aa7c1ab97a75768'
p62
sa(dp63
g2
S'42117'
p64
sg4
S'2117'
p65
sg6
S'd333c7d9d10bd1478d7210b706941414'
p66
sg8
S'xxd67eed04b50b6e1dbdb66003e09a928d'
p67
sg10
S'xxa2688a2f031d413266952588af165010'
p68
sg12
S'xxfb8c8e7a2c5251729e057ad83d7036fc'
p69
sg14
S'Mozilla/5.0 (Linux; Android 5.1; 1501_M02 Build/LMY47D) AppleWebKit/537.36 (KHTML, like Gecko) Version/4.0 Chrome/37.0.0.0 Mobile MQQBrowser/6.8 TBS/036849 Safari/537.36 MicroMessenger/6.3.27.880 NetType/WIFI Language/zh_CN'
p70
sg16
S'3bfb92458f1694fe7aa7c1ab97a75768'
p71
sa(dp72
g2
S'42117'
p73
sg4
S'2131'
p74
sg6
S'd333c7d9d10bd1478d7210b706941414'
p75
sg8
S'xxd67eed04b50b6e1dbdb66003e09a928d'
p76
sg10
S'xxa2688a2f031d413266952588af165010'
p77
sg12
S'xxfb8c8e7a2c5251729e057ad83d7036fc'
p78
sg14
S'Mozilla/5.0 (Linux; Android 5.1; 1501_M02 Build/LMY47D) AppleWebKit/537.36 (KHTML, like Gecko) Version/4.0 Chrome/37.0.0.0 Mobile MQQBrowser/6.8 TBS/036849 Safari/537.36 MicroMessenger/6.3.27.880 NetType/WIFI Language/zh_CN'
p79
sg16
S'3bfb92458f1694fe7aa7c1ab97a75768'
p80
sa(dp81
g2
S'19171'
p82
sg4
S'2247'
p83
sg6
S'c17e96ac34d43b5a75b94e6c10c2580f'
p84
sg8
S'xx002b6a5597857d1ac0100e2c884a4426'
p85
sg10
S'xxa7c37b31476894a9d5495958bd0a8705'
p86
sg12
S'xxfb8c8e7a2c5251729e057ad83d7036fc'
p87
sg14
S'Mozilla/5.0 (Linux; Android 5.1; 1501_M02 Build/LMY47D) AppleWebKit/537.36 (KHTML, like Gecko) Version/4.0 Chrome/37.0.0.0 Mobile MQQBrowser/6.8 TBS/036849 Safari/537.36 MicroMessenger/6.3.27.880 NetType/WIFI Language/zh_CN'
p88
sg16
S'3bfb92458f1694fe7aa7c1ab97a75768'
p89
sa(dp90
g2
S'19171'
p91
sg4
S'2263'
p92
sg6
S'c17e96ac34d43b5a75b94e6c10c2580f'
p93
sg8
S'xx002b6a5597857d1ac0100e2c884a4426'
p94
sg10
S'xxa7c37b31476894a9d5495958bd0a8705'
p95
sg12
S'xxfb8c8e7a2c5251729e057ad83d7036fc'
p96
sg14
S'Mozilla/5.0 (Linux; Android 5.1; 1501_M02 Build/LMY47D) AppleWebKit/537.36 (KHTML, like Gecko) Version/4.0 Chrome/37.0.0.0 Mobile MQQBrowser/6.8 TBS/036849 Safari/537.36 MicroMessenger/6.3.27.880 NetType/WIFI Language/zh_CN'
p97
sg16
S'3bfb92458f1694fe7aa7c1ab97a75768'
p98
sa(dp99
g2
S'19171'
p100
sg4
S'2275'
p101
sg6
S'c17e96ac34d43b5a75b94e6c10c2580f'
p102
sg8
S'xx002b6a5597857d1ac0100e2c884a4426'
p103
sg10
S'xxa7c37b31476894a9d5495958bd0a8705'
p104
sg12
S'xxfb8c8e7a2c5251729e057ad83d7036fc'
p105
sg14
S'Mozilla/5.0 (Linux; Android 5.1; 1501_M02 Build/LMY47D) AppleWebKit/537.36 (KHTML, like Gecko) Version/4.0 Chrome/37.0.0.0 Mobile MQQBrowser/6.8 TBS/036849 Safari/537.36 MicroMessenger/6.3.27.880 NetType/WIFI Language/zh_CN'
p106
sg16
S'3bfb92458f1694fe7aa7c1ab97a75768'
p107
sa(dp108
g2
S'31935'
p109
sg4
S'2419'
p110
sg6
S'c17e96ac34d43b5a75b94e6c10c2580f'
p111
sg8
S'xx002b6a5597857d1ac0100e2c884a4426'
p112
sg10
S'xxa7c37b31476894a9d5495958bd0a8705'
p113
sg12
S'xxfb8c8e7a2c5251729e057ad83d7036fc'
p114
sg14
S'Mozilla/5.0 (Linux; Android 5.1; 1501_M02 Build/LMY47D) AppleWebKit/537.36 (KHTML, like Gecko) Version/4.0 Chrome/37.0.0.0 Mobile MQQBrowser/6.8 TBS/036849 Safari/537.36 MicroMessenger/6.3.27.880 NetType/WIFI Language/zh_CN'
p115
sg16
S'3bfb92458f1694fe7aa7c1ab97a75768'
p116
sa(dp117
g2
S'31935'
p118
sg4
S'2439'
p119
sg6
S'c17e96ac34d43b5a75b94e6c10c2580f'
p120
sg8
S'xx002b6a5597857d1ac0100e2c884a4426'
p121
sg10
S'xxa7c37b31476894a9d5495958bd0a8705'
p122
sg12
S'xxfb8c8e7a2c5251729e057ad83d7036fc'
p123
sg14
S'Mozilla/5.0 (Linux; Android 5.1; 1501_M02 Build/LMY47D) AppleWebKit/537.36 (KHTML, like Gecko) Version/4.0 Chrome/37.0.0.0 Mobile MQQBrowser/6.8 TBS/036849 Safari/537.36 MicroMessenger/6.3.27.880 NetType/WIFI Language/zh_CN'
p124
sg16
S'3bfb92458f1694fe7aa7c1ab97a75768'
p125
sa(dp126
g2
S'19171'
p127
sg4
S'2568'
p128
sg6
S'c17e96ac34d43b5a75b94e6c10c2580f'
p129
sg8
S'xx002b6a5597857d1ac0100e2c884a4426'
p130
sg10
S'xxa7c37b31476894a9d5495958bd0a8705'
p131
sg12
S'xxfb8c8e7a2c5251729e057ad83d7036fc'
p132
sg14
S'Mozilla/5.0 (Linux; Android 5.1; 1501_M02 Build/LMY47D) AppleWebKit/537.36 (KHTML, like Gecko) Version/4.0 Chrome/37.0.0.0 Mobile MQQBrowser/6.8 TBS/036849 Safari/537.36 MicroMessenger/6.3.27.880 NetType/WIFI Language/zh_CN'
p133
sg16
S'3bfb92458f1694fe7aa7c1ab97a75768'
p134
sa(dp135
g2
S'19171'
p136
sg4
S'2584'
p137
sg6
S'c17e96ac34d43b5a75b94e6c10c2580f'
p138
sg8
S'xx002b6a5597857d1ac0100e2c884a4426'
p139
sg10
S'xxa7c37b31476894a9d5495958bd0a8705'
p140
sg12
S'xxfb8c8e7a2c5251729e057ad83d7036fc'
p141
sg14
S'Mozilla/5.0 (Linux; Android 5.1; 1501_M02 Build/LMY47D) AppleWebKit/537.36 (KHTML, like Gecko) Version/4.0 Chrome/37.0.0.0 Mobile MQQBrowser/6.8 TBS/036849 Safari/537.36 MicroMessenger/6.3.27.880 NetType/WIFI Language/zh_CN'
p142
sg16
S'3bfb92458f1694fe7aa7c1ab97a75768'
p143
sa(dp144
g2
S'19171'
p145
sg4
S'2589'
p146
sg6
S'c17e96ac34d43b5a75b94e6c10c2580f'
p147
sg8
S'xx002b6a5597857d1ac0100e2c884a4426'
p148
sg10
S'xxa7c37b31476894a9d5495958bd0a8705'
p149
sg12
S'xxfb8c8e7a2c5251729e057ad83d7036fc'
p150
sg14
S'Mozilla/5.0 (Linux; Android 5.1; 1501_M02 Build/LMY47D) AppleWebKit/537.36 (KHTML, like Gecko) Version/4.0 Chrome/37.0.0.0 Mobile MQQBrowser/6.8 TBS/036849 Safari/537.36 MicroMessenger/6.3.27.880 NetType/WIFI Language/zh_CN'
p151
sg16
S'3bfb92458f1694fe7aa7c1ab97a75768'
p152
sa(dp153
g2
S'19171'
p154
sg4
S'2606'
p155
sg6
S'c17e96ac34d43b5a75b94e6c10c2580f'
p156
sg8
S'xx002b6a5597857d1ac0100e2c884a4426'
p157
sg10
S'xxa7c37b31476894a9d5495958bd0a8705'
p158
sg12
S'xxfb8c8e7a2c5251729e057ad83d7036fc'
p159
sg14
S'Mozilla/5.0 (Linux; Android 5.1; 1501_M02 Build/LMY47D) AppleWebKit/537.36 (KHTML, like Gecko) Version/4.0 Chrome/37.0.0.0 Mobile MQQBrowser/6.8 TBS/036849 Safari/537.36 MicroMessenger/6.3.27.880 NetType/WIFI Language/zh_CN'
p160
sg16
S'3bfb92458f1694fe7aa7c1ab97a75768'
p161
sa(dp162
g2
S'19171'
p163
sg4
S'2660'
p164
sg6
S'c17e96ac34d43b5a75b94e6c10c2580f'
p165
sg8
S'xx002b6a5597857d1ac0100e2c884a4426'
p166
sg10
S'xxa7c37b31476894a9d5495958bd0a8705'
p167
sg12
S'xxfb8c8e7a2c5251729e057ad83d7036fc'
p168
sg14
S'Mozilla/5.0 (Linux; Android 5.1; 1501_M02 Build/LMY47D) AppleWebKit/537.36 (KHTML, like Gecko) Version/4.0 Chrome/37.0.0.0 Mobile MQQBrowser/6.8 TBS/036849 Safari/537.36 MicroMessenger/6.3.27.880 NetType/WIFI Language/zh_CN'
p169
sg16
S'3bfb92458f1694fe7aa7c1ab97a75768'
p170
sa(dp171
g2
S'19171'
p172
sg4
S'2682'
p173
sg6
S'c17e96ac34d43b5a75b94e6c10c2580f'
p174
sg8
S'xx002b6a5597857d1ac0100e2c884a4426'
p175
sg10
S'xxa7c37b31476894a9d5495958bd0a8705'
p176
sg12
S'xxfb8c8e7a2c5251729e057ad83d7036fc'
p177
sg14
S'Mozilla/5.0 (Linux; Android 5.1; 1501_M02 Build/LMY47D) AppleWebKit/537.36 (KHTML, like Gecko) Version/4.0 Chrome/37.0.0.0 Mobile MQQBrowser/6.8 TBS/036849 Safari/537.36 MicroMessenger/6.3.27.880 NetType/WIFI Language/zh_CN'
p178
sg16
S'3bfb92458f1694fe7aa7c1ab97a75768'
p179
sa(dp180
g2
S'19171'
p181
sg4
S'2690'
p182
sg6
S'c17e96ac34d43b5a75b94e6c10c2580f'
p183
sg8
S'xx002b6a5597857d1ac0100e2c884a4426'
p184
sg10
S'xxa7c37b31476894a9d5495958bd0a8705'
p185
sg12
S'xxfb8c8e7a2c5251729e057ad83d7036fc'
p186
sg14
S'Mozilla/5.0 (Linux; Android 5.1; 1501_M02 Build/LMY47D) AppleWebKit/537.36 (KHTML, like Gecko) Version/4.0 Chrome/37.0.0.0 Mobile MQQBrowser/6.8 TBS/036849 Safari/537.36 MicroMessenger/6.3.27.880 NetType/WIFI Language/zh_CN'
p187
sg16
S'3bfb92458f1694fe7aa7c1ab97a75768'
p188
sa(dp189
g2
S'19171'
p190
sg4
S'2733'
p191
sg6
S'c17e96ac34d43b5a75b94e6c10c2580f'
p192
sg8
S'xx002b6a5597857d1ac0100e2c884a4426'
p193
sg10
S'xxa7c37b31476894a9d5495958bd0a8705'
p194
sg12
S'xxfb8c8e7a2c5251729e057ad83d7036fc'
p195
sg14
S'Mozilla/5.0 (Linux; Android 5.1; 1501_M02 Build/LMY47D) AppleWebKit/537.36 (KHTML, like Gecko) Version/4.0 Chrome/37.0.0.0 Mobile MQQBrowser/6.8 TBS/036849 Safari/537.36 MicroMessenger/6.3.27.880 NetType/WIFI Language/zh_CN'
p196
sg16
S'3bfb92458f1694fe7aa7c1ab97a75768'
p197
sa(dp198
g2
S'19171'
p199
sg4
S'2753'
p200
sg6
S'c17e96ac34d43b5a75b94e6c10c2580f'
p201
sg8
S'xx002b6a5597857d1ac0100e2c884a4426'
p202
sg10
S'xxa7c37b31476894a9d5495958bd0a8705'
p203
sg12
S'xxfb8c8e7a2c5251729e057ad83d7036fc'
p204
sg14
S'Mozilla/5.0 (Linux; Android 5.1; 1501_M02 Build/LMY47D) AppleWebKit/537.36 (KHTML, like Gecko) Version/4.0 Chrome/37.0.0.0 Mobile MQQBrowser/6.8 TBS/036849 Safari/537.36 MicroMessenger/6.3.27.880 NetType/WIFI Language/zh_CN'
p205
sg16
S'3bfb92458f1694fe7aa7c1ab97a75768'
p206
sa(dp207
g2
S'19171'
p208
sg4
S'2763'
p209
sg6
S'c17e96ac34d43b5a75b94e6c10c2580f'
p210
sg8
S'xx002b6a5597857d1ac0100e2c884a4426'
p211
sg10
S'xxa7c37b31476894a9d5495958bd0a8705'
p212
sg12
S'xxfb8c8e7a2c5251729e057ad83d7036fc'
p213
sg14
S'Mozilla/5.0 (Linux; Android 5.1; 1501_M02 Build/LMY47D) AppleWebKit/537.36 (KHTML, like Gecko) Version/4.0 Chrome/37.0.0.0 Mobile MQQBrowser/6.8 TBS/036849 Safari/537.36 MicroMessenger/6.3.27.880 NetType/WIFI Language/zh_CN'
p214
sg16
S'3bfb92458f1694fe7aa7c1ab97a75768'
p215
sa(dp216
g2
S'5381'
p217
sg4
S'2772'
p218
sg6
S'5b48c78089c6f21a864d9e71cbaf0c9d'
p219
sg8
S'xx002b6a5597857d1ac0100e2c884a4426'
p220
sg10
S'xxa7c37b31476894a9d5495958bd0a8705'
p221
sg12
S'xxfb8c8e7a2c5251729e057ad83d7036fc'
p222
sg14
S'Mozilla/5.0 (Linux; Android 5.1; 1501_M02 Build/LMY47D) AppleWebKit/537.36 (KHTML, like Gecko) Version/4.0 Chrome/37.0.0.0 Mobile MQQBrowser/6.8 TBS/036849 Safari/537.36 MicroMessenger/6.3.27.880 NetType/WIFI Language/zh_CN'
p223
sg16
S'3bfb92458f1694fe7aa7c1ab97a75768'
p224
sa(dp225
g2
S'5381'
p226
sg4
S'2782'
p227
sg6
S'5b48c78089c6f21a864d9e71cbaf0c9d'
p228
sg8
S'xx002b6a5597857d1ac0100e2c884a4426'
p229
sg10
S'xxa7c37b31476894a9d5495958bd0a8705'
p230
sg12
S'xxfb8c8e7a2c5251729e057ad83d7036fc'
p231
sg14
S'Mozilla/5.0 (Linux; Android 5.1; 1501_M02 Build/LMY47D) AppleWebKit/537.36 (KHTML, like Gecko) Version/4.0 Chrome/37.0.0.0 Mobile MQQBrowser/6.8 TBS/036849 Safari/537.36 MicroMessenger/6.3.27.880 NetType/WIFI Language/zh_CN'
p232
sg16
S'3bfb92458f1694fe7aa7c1ab97a75768'
p233
sa(dp234
g2
S'17962'
p235
sg4
S'2909'
p236
sg6
S'5b48c78089c6f21a864d9e71cbaf0c9d'
p237
sg8
S'xx002b6a5597857d1ac0100e2c884a4426'
p238
sg10
S'xxa7c37b31476894a9d5495958bd0a8705'
p239
sg12
S'xxfb8c8e7a2c5251729e057ad83d7036fc'
p240
sg14
S'Mozilla/5.0 (Linux; Android 5.1; 1501_M02 Build/LMY47D) AppleWebKit/537.36 (KHTML, like Gecko) Version/4.0 Chrome/37.0.0.0 Mobile MQQBrowser/6.8 TBS/036849 Safari/537.36 MicroMessenger/6.3.27.880 NetType/WIFI Language/zh_CN'
p241
sg16
S'3bfb92458f1694fe7aa7c1ab97a75768'
p242
sa(dp243
g2
S'17962'
p244
sg4
S'2922'
p245
sg6
S'5b48c78089c6f21a864d9e71cbaf0c9d'
p246
sg8
S'xx002b6a5597857d1ac0100e2c884a4426'
p247
sg10
S'xxa7c37b31476894a9d5495958bd0a8705'
p248
sg12
S'xxfb8c8e7a2c5251729e057ad83d7036fc'
p249
sg14
S'Mozilla/5.0 (Linux; Android 5.1; 1501_M02 Build/LMY47D) AppleWebKit/537.36 (KHTML, like Gecko) Version/4.0 Chrome/37.0.0.0 Mobile MQQBrowser/6.8 TBS/036849 Safari/537.36 MicroMessenger/6.3.27.880 NetType/WIFI Language/zh_CN'
p250
sg16
S'3bfb92458f1694fe7aa7c1ab97a75768'
p251
sa(dp252
g2
S'5461'
p253
sg4
S'3069'
p254
sg6
S'5b48c78089c6f21a864d9e71cbaf0c9d'
p255
sg8
S'xx002b6a5597857d1ac0100e2c884a4426'
p256
sg10
S'xxa7c37b31476894a9d5495958bd0a8705'
p257
sg12
S'xxfb8c8e7a2c5251729e057ad83d7036fc'
p258
sg14
S'Mozilla/5.0 (Linux; Android 5.1; 1501_M02 Build/LMY47D) AppleWebKit/537.36 (KHTML, like Gecko) Version/4.0 Chrome/37.0.0.0 Mobile MQQBrowser/6.8 TBS/036849 Safari/537.36 MicroMessenger/6.3.27.880 NetType/WIFI Language/zh_CN'
p259
sg16
S'3bfb92458f1694fe7aa7c1ab97a75768'
p260
sa(dp261
g2
S'5461'
p262
sg4
S'3089'
p263
sg6
S'5b48c78089c6f21a864d9e71cbaf0c9d'
p264
sg8
S'xx002b6a5597857d1ac0100e2c884a4426'
p265
sg10
S'xxa7c37b31476894a9d5495958bd0a8705'
p266
sg12
S'xxfb8c8e7a2c5251729e057ad83d7036fc'
p267
sg14
S'Mozilla/5.0 (Linux; Android 5.1; 1501_M02 Build/LMY47D) AppleWebKit/537.36 (KHTML, like Gecko) Version/4.0 Chrome/37.0.0.0 Mobile MQQBrowser/6.8 TBS/036849 Safari/537.36 MicroMessenger/6.3.27.880 NetType/WIFI Language/zh_CN'
p268
sg16
S'3bfb92458f1694fe7aa7c1ab97a75768'
p269
sa(dp270
g2
S'19171'
p271
sg4
S'3282'
p272
sg6
S'c17e96ac34d43b5a75b94e6c10c2580f'
p273
sg8
S'xx002b6a5597857d1ac0100e2c884a4426'
p274
sg10
S'xxa7c37b31476894a9d5495958bd0a8705'
p275
sg12
S'xxfb8c8e7a2c5251729e057ad83d7036fc'
p276
sg14
S'Mozilla/5.0 (Linux; Android 5.1; 1501_M02 Build/LMY47D) AppleWebKit/537.36 (KHTML, like Gecko) Version/4.0 Chrome/37.0.0.0 Mobile MQQBrowser/6.8 TBS/036849 Safari/537.36 MicroMessenger/6.3.27.880 NetType/WIFI Language/zh_CN'
p277
sg16
S'3bfb92458f1694fe7aa7c1ab97a75768'
p278
sa(dp279
g2
S'19171'
p280
sg4
S'3294'
p281
sg6
S'c17e96ac34d43b5a75b94e6c10c2580f'
p282
sg8
S'xx002b6a5597857d1ac0100e2c884a4426'
p283
sg10
S'xxa7c37b31476894a9d5495958bd0a8705'
p284
sg12
S'xxfb8c8e7a2c5251729e057ad83d7036fc'
p285
sg14
S'Mozilla/5.0 (Linux; Android 5.1; 1501_M02 Build/LMY47D) AppleWebKit/537.36 (KHTML, like Gecko) Version/4.0 Chrome/37.0.0.0 Mobile MQQBrowser/6.8 TBS/036849 Safari/537.36 MicroMessenger/6.3.27.880 NetType/WIFI Language/zh_CN'
p286
sg16
S'3bfb92458f1694fe7aa7c1ab97a75768'
p287
sa(dp288
g2
S'31935'
p289
sg4
S'3359'
p290
sg6
S'c17e96ac34d43b5a75b94e6c10c2580f'
p291
sg8
S'xx002b6a5597857d1ac0100e2c884a4426'
p292
sg10
S'xxa7c37b31476894a9d5495958bd0a8705'
p293
sg12
S'xxfb8c8e7a2c5251729e057ad83d7036fc'
p294
sg14
S'Mozilla/5.0 (Linux; Android 5.1; 1501_M02 Build/LMY47D) AppleWebKit/537.36 (KHTML, like Gecko) Version/4.0 Chrome/37.0.0.0 Mobile MQQBrowser/6.8 TBS/036849 Safari/537.36 MicroMessenger/6.3.27.880 NetType/WIFI Language/zh_CN'
p295
sg16
S'3bfb92458f1694fe7aa7c1ab97a75768'
p296
sa(dp297
g2
S'31935'
p298
sg4
S'3382'
p299
sg6
S'c17e96ac34d43b5a75b94e6c10c2580f'
p300
sg8
S'xx002b6a5597857d1ac0100e2c884a4426'
p301
sg10
S'xxa7c37b31476894a9d5495958bd0a8705'
p302
sg12
S'xxfb8c8e7a2c5251729e057ad83d7036fc'
p303
sg14
S'Mozilla/5.0 (Linux; Android 5.1; 1501_M02 Build/LMY47D) AppleWebKit/537.36 (KHTML, like Gecko) Version/4.0 Chrome/37.0.0.0 Mobile MQQBrowser/6.8 TBS/036849 Safari/537.36 MicroMessenger/6.3.27.880 NetType/WIFI Language/zh_CN'
p304
sg16
S'3bfb92458f1694fe7aa7c1ab97a75768'
p305
sa(dp306
g2
S'31935'
p307
sg4
S'3397'
p308
sg6
S'c17e96ac34d43b5a75b94e6c10c2580f'
p309
sg8
S'xx002b6a5597857d1ac0100e2c884a4426'
p310
sg10
S'xxa7c37b31476894a9d5495958bd0a8705'
p311
sg12
S'xxfb8c8e7a2c5251729e057ad83d7036fc'
p312
sg14
S'Mozilla/5.0 (Linux; Android 5.1; 1501_M02 Build/LMY47D) AppleWebKit/537.36 (KHTML, like Gecko) Version/4.0 Chrome/37.0.0.0 Mobile MQQBrowser/6.8 TBS/036849 Safari/537.36 MicroMessenger/6.3.27.880 NetType/WIFI Language/zh_CN'
p313
sg16
S'3bfb92458f1694fe7aa7c1ab97a75768'
p314
sa(dp315
g2
S'32057'
p316
sg4
S'3467'
p317
sg6
S'c17e96ac34d43b5a75b94e6c10c2580f'
p318
sg8
S'xx002b6a5597857d1ac0100e2c884a4426'
p319
sg10
S'xxa7c37b31476894a9d5495958bd0a8705'
p320
sg12
S'xxfb8c8e7a2c5251729e057ad83d7036fc'
p321
sg14
S'Mozilla/5.0 (Linux; Android 5.1; 1501_M02 Build/LMY47D) AppleWebKit/537.36 (KHTML, like Gecko) Version/4.0 Chrome/37.0.0.0 Mobile MQQBrowser/6.8 TBS/036849 Safari/537.36 MicroMessenger/6.3.27.880 NetType/WIFI Language/zh_CN'
p322
sg16
S'3bfb92458f1694fe7aa7c1ab97a75768'
p323
sa(dp324
g2
S'32071'
p325
sg4
S'3537'
p326
sg6
S'c17e96ac34d43b5a75b94e6c10c2580f'
p327
sg8
S'xx002b6a5597857d1ac0100e2c884a4426'
p328
sg10
S'xxa7c37b31476894a9d5495958bd0a8705'
p329
sg12
S'xxfb8c8e7a2c5251729e057ad83d7036fc'
p330
sg14
S'Mozilla/5.0 (Linux; Android 5.1; 1501_M02 Build/LMY47D) AppleWebKit/537.36 (KHTML, like Gecko) Version/4.0 Chrome/37.0.0.0 Mobile MQQBrowser/6.8 TBS/036849 Safari/537.36 MicroMessenger/6.3.27.880 NetType/WIFI Language/zh_CN'
p331
sg16
S'3bfb92458f1694fe7aa7c1ab97a75768'
p332
sa(dp333
g2
S'23683'
p334
sg4
S'3631'
p335
sg6
S'c17e96ac34d43b5a75b94e6c10c2580f'
p336
sg8
S'xx55481450374760ad57cf37e48b504ce8'
p337
sg10
S'xxdc168aaf644cd7f3874866be7671a8a7'
p338
sg12
S'xxfb8c8e7a2c5251729e057ad83d7036fc'
p339
sg14
S'Mozilla/5.0 (Linux; Android 5.1; 1501_M02 Build/LMY47D) AppleWebKit/537.36 (KHTML, like Gecko) Version/4.0 Chrome/39.0.0.0 Mobile Safari/537.36 MicroMessenger/6.3.27.880 NetType/WIFI Language/zh_CN'
p340
sg16
S'405d4603a34338531b83825c5fe16684'
p341
sa(dp342
g2
S'19171'
p343
sg4
S'4611'
p344
sg6
S'c17e96ac34d43b5a75b94e6c10c2580f'
p345
sg8
S'xx002b6a5597857d1ac0100e2c884a4426'
p346
sg10
S'xxa7c37b31476894a9d5495958bd0a8705'
p347
sg12
S'xxfb8c8e7a2c5251729e057ad83d7036fc'
p348
sg14
S'Mozilla/5.0 (Linux; Android 5.1; 1501_M02 Build/LMY47D) AppleWebKit/537.36 (KHTML, like Gecko) Version/4.0 Chrome/37.0.0.0 Mobile MQQBrowser/6.8 TBS/036849 Safari/537.36 MicroMessenger/6.3.27.880 NetType/WIFI Language/zh_CN'
p349
sg16
S'3bfb92458f1694fe7aa7c1ab97a75768'
p350
sa(dp351
g2
S'19171'
p352
sg4
S'4623'
p353
sg6
S'c17e96ac34d43b5a75b94e6c10c2580f'
p354
sg8
S'xx002b6a5597857d1ac0100e2c884a4426'
p355
sg10
S'xxa7c37b31476894a9d5495958bd0a8705'
p356
sg12
S'xxfb8c8e7a2c5251729e057ad83d7036fc'
p357
sg14
S'Mozilla/5.0 (Linux; Android 5.1; 1501_M02 Build/LMY47D) AppleWebKit/537.36 (KHTML, like Gecko) Version/4.0 Chrome/37.0.0.0 Mobile MQQBrowser/6.8 TBS/036849 Safari/537.36 MicroMessenger/6.3.27.880 NetType/WIFI Language/zh_CN'
p358
sg16
S'3bfb92458f1694fe7aa7c1ab97a75768'
p359
sa(dp360
g2
S'42117'
p361
sg4
S'4672'
p362
sg6
S'd333c7d9d10bd1478d7210b706941414'
p363
sg8
S'xxd67eed04b50b6e1dbdb66003e09a928d'
p364
sg10
S'xxa2688a2f031d413266952588af165010'
p365
sg12
S'xxfb8c8e7a2c5251729e057ad83d7036fc'
p366
sg14
S'Mozilla/5.0 (Linux; Android 5.1; 1501_M02 Build/LMY47D) AppleWebKit/537.36 (KHTML, like Gecko) Version/4.0 Chrome/37.0.0.0 Mobile MQQBrowser/6.8 TBS/036849 Safari/537.36 MicroMessenger/6.3.27.880 NetType/WIFI Language/zh_CN'
p367
sg16
S'3bfb92458f1694fe7aa7c1ab97a75768'
p368
sa(dp369
g2
S'31935'
p370
sg4
S'4688'
p371
sg6
S'c17e96ac34d43b5a75b94e6c10c2580f'
p372
sg8
S'xx002b6a5597857d1ac0100e2c884a4426'
p373
sg10
S'xxa7c37b31476894a9d5495958bd0a8705'
p374
sg12
S'xxfb8c8e7a2c5251729e057ad83d7036fc'
p375
sg14
S'Mozilla/5.0 (Linux; Android 5.1; 1501_M02 Build/LMY47D) AppleWebKit/537.36 (KHTML, like Gecko) Version/4.0 Chrome/37.0.0.0 Mobile MQQBrowser/6.8 TBS/036849 Safari/537.36 MicroMessenger/6.3.27.880 NetType/WIFI Language/zh_CN'
p376
sg16
S'3bfb92458f1694fe7aa7c1ab97a75768'
p377
sa(dp378
g2
S'42117'
p379
sg4
S'4691'
p380
sg6
S'd333c7d9d10bd1478d7210b706941414'
p381
sg8
S'xxd67eed04b50b6e1dbdb66003e09a928d'
p382
sg10
S'xxa2688a2f031d413266952588af165010'
p383
sg12
S'xxfb8c8e7a2c5251729e057ad83d7036fc'
p384
sg14
S'Mozilla/5.0 (Linux; Android 5.1; 1501_M02 Build/LMY47D) AppleWebKit/537.36 (KHTML, like Gecko) Version/4.0 Chrome/37.0.0.0 Mobile MQQBrowser/6.8 TBS/036849 Safari/537.36 MicroMessenger/6.3.27.880 NetType/WIFI Language/zh_CN'
p385
sg16
S'3bfb92458f1694fe7aa7c1ab97a75768'
p386
sa(dp387
g2
S'31935'
p388
sg4
S'4703'
p389
sg6
S'c17e96ac34d43b5a75b94e6c10c2580f'
p390
sg8
S'xx002b6a5597857d1ac0100e2c884a4426'
p391
sg10
S'xxa7c37b31476894a9d5495958bd0a8705'
p392
sg12
S'xxfb8c8e7a2c5251729e057ad83d7036fc'
p393
sg14
S'Mozilla/5.0 (Linux; Android 5.1; 1501_M02 Build/LMY47D) AppleWebKit/537.36 (KHTML, like Gecko) Version/4.0 Chrome/37.0.0.0 Mobile MQQBrowser/6.8 TBS/036849 Safari/537.36 MicroMessenger/6.3.27.880 NetType/WIFI Language/zh_CN'
p394
sg16
S'3bfb92458f1694fe7aa7c1ab97a75768'
p395
sa(dp396
g2
S'42117'
p397
sg4
S'4731'
p398
sg6
S'd333c7d9d10bd1478d7210b706941414'
p399
sg8
S'xxd67eed04b50b6e1dbdb66003e09a928d'
p400
sg10
S'xxa2688a2f031d413266952588af165010'
p401
sg12
S'xxfb8c8e7a2c5251729e057ad83d7036fc'
p402
sg14
S'Mozilla/5.0 (Linux; Android 5.1; 1501_M02 Build/LMY47D) AppleWebKit/537.36 (KHTML, like Gecko) Version/4.0 Chrome/37.0.0.0 Mobile MQQBrowser/6.8 TBS/036849 Safari/537.36 MicroMessenger/6.3.27.880 NetType/WIFI Language/zh_CN'
p403
sg16
S'3bfb92458f1694fe7aa7c1ab97a75768'
p404
sa(dp405
g2
S'32057'
p406
sg4
S'4805'
p407
sg6
S'c17e96ac34d43b5a75b94e6c10c2580f'
p408
sg8
S'xx002b6a5597857d1ac0100e2c884a4426'
p409
sg10
S'xxa7c37b31476894a9d5495958bd0a8705'
p410
sg12
S'xxfb8c8e7a2c5251729e057ad83d7036fc'
p411
sg14
S'Mozilla/5.0 (Linux; Android 5.1; 1501_M02 Build/LMY47D) AppleWebKit/537.36 (KHTML, like Gecko) Version/4.0 Chrome/37.0.0.0 Mobile MQQBrowser/6.8 TBS/036849 Safari/537.36 MicroMessenger/6.3.27.880 NetType/WIFI Language/zh_CN'
p412
sg16
S'3bfb92458f1694fe7aa7c1ab97a75768'
p413
sa(dp414
g2
S'32071'
p415
sg4
S'4878'
p416
sg6
S'c17e96ac34d43b5a75b94e6c10c2580f'
p417
sg8
S'xx002b6a5597857d1ac0100e2c884a4426'
p418
sg10
S'xxa7c37b31476894a9d5495958bd0a8705'
p419
sg12
S'xxfb8c8e7a2c5251729e057ad83d7036fc'
p420
sg14
S'Mozilla/5.0 (Linux; Android 5.1; 1501_M02 Build/LMY47D) AppleWebKit/537.36 (KHTML, like Gecko) Version/4.0 Chrome/37.0.0.0 Mobile MQQBrowser/6.8 TBS/036849 Safari/537.36 MicroMessenger/6.3.27.880 NetType/WIFI Language/zh_CN'
p421
sg16
S'3bfb92458f1694fe7aa7c1ab97a75768'
p422
sa(dp423
g2
S'5381'
p424
sg4
S'4901'
p425
sg6
S'5b48c78089c6f21a864d9e71cbaf0c9d'
p426
sg8
S'xx002b6a5597857d1ac0100e2c884a4426'
p427
sg10
S'xxa7c37b31476894a9d5495958bd0a8705'
p428
sg12
S'xxfb8c8e7a2c5251729e057ad83d7036fc'
p429
sg14
S'Mozilla/5.0 (Linux; Android 5.1; 1501_M02 Build/LMY47D) AppleWebKit/537.36 (KHTML, like Gecko) Version/4.0 Chrome/37.0.0.0 Mobile MQQBrowser/6.8 TBS/036849 Safari/537.36 MicroMessenger/6.3.27.880 NetType/WIFI Language/zh_CN'
p430
sg16
S'3bfb92458f1694fe7aa7c1ab97a75768'
p431
sa(dp432
g2
S'5381'
p433
sg4
S'4915'
p434
sg6
S'5b48c78089c6f21a864d9e71cbaf0c9d'
p435
sg8
S'xx002b6a5597857d1ac0100e2c884a4426'
p436
sg10
S'xxa7c37b31476894a9d5495958bd0a8705'
p437
sg12
S'xxfb8c8e7a2c5251729e057ad83d7036fc'
p438
sg14
S'Mozilla/5.0 (Linux; Android 5.1; 1501_M02 Build/LMY47D) AppleWebKit/537.36 (KHTML, like Gecko) Version/4.0 Chrome/37.0.0.0 Mobile MQQBrowser/6.8 TBS/036849 Safari/537.36 MicroMessenger/6.3.27.880 NetType/WIFI Language/zh_CN'
p439
sg16
S'3bfb92458f1694fe7aa7c1ab97a75768'
p440
sa(dp441
g2
S'23683'
p442
sg4
S'4948'
p443
sg6
S'c17e96ac34d43b5a75b94e6c10c2580f'
p444
sg8
S'xx55481450374760ad57cf37e48b504ce8'
p445
sg10
S'xxdc168aaf644cd7f3874866be7671a8a7'
p446
sg12
S'xxfb8c8e7a2c5251729e057ad83d7036fc'
p447
sg14
S'Mozilla/5.0 (Linux; Android 5.1; 1501_M02 Build/LMY47D) AppleWebKit/537.36 (KHTML, like Gecko) Version/4.0 Chrome/39.0.0.0 Mobile Safari/537.36 MicroMessenger/6.3.27.880 NetType/WIFI Language/zh_CN'
p448
sg16
S'405d4603a34338531b83825c5fe16684'
p449
sa(dp450
g2
S'17962'
p451
sg4
S'4979'
p452
sg6
S'5b48c78089c6f21a864d9e71cbaf0c9d'
p453
sg8
S'xx002b6a5597857d1ac0100e2c884a4426'
p454
sg10
S'xxa7c37b31476894a9d5495958bd0a8705'
p455
sg12
S'xxfb8c8e7a2c5251729e057ad83d7036fc'
p456
sg14
S'Mozilla/5.0 (Linux; Android 5.1; 1501_M02 Build/LMY47D) AppleWebKit/537.36 (KHTML, like Gecko) Version/4.0 Chrome/37.0.0.0 Mobile MQQBrowser/6.8 TBS/036849 Safari/537.36 MicroMessenger/6.3.27.880 NetType/WIFI Language/zh_CN'
p457
sg16
S'3bfb92458f1694fe7aa7c1ab97a75768'
p458
sa(dp459
g2
S'17962'
p460
sg4
S'4995'
p461
sg6
S'5b48c78089c6f21a864d9e71cbaf0c9d'
p462
sg8
S'xx002b6a5597857d1ac0100e2c884a4426'
p463
sg10
S'xxa7c37b31476894a9d5495958bd0a8705'
p464
sg12
S'xxfb8c8e7a2c5251729e057ad83d7036fc'
p465
sg14
S'Mozilla/5.0 (Linux; Android 5.1; 1501_M02 Build/LMY47D) AppleWebKit/537.36 (KHTML, like Gecko) Version/4.0 Chrome/37.0.0.0 Mobile MQQBrowser/6.8 TBS/036849 Safari/537.36 MicroMessenger/6.3.27.880 NetType/WIFI Language/zh_CN'
p466
sg16
S'3bfb92458f1694fe7aa7c1ab97a75768'
p467
sa(dp468
g2
S'17962'
p469
sg4
S'5006'
p470
sg6
S'5b48c78089c6f21a864d9e71cbaf0c9d'
p471
sg8
S'xx002b6a5597857d1ac0100e2c884a4426'
p472
sg10
S'xxa7c37b31476894a9d5495958bd0a8705'
p473
sg12
S'xxfb8c8e7a2c5251729e057ad83d7036fc'
p474
sg14
S'Mozilla/5.0 (Linux; Android 5.1; 1501_M02 Build/LMY47D) AppleWebKit/537.36 (KHTML, like Gecko) Version/4.0 Chrome/37.0.0.0 Mobile MQQBrowser/6.8 TBS/036849 Safari/537.36 MicroMessenger/6.3.27.880 NetType/WIFI Language/zh_CN'
p475
sg16
S'3bfb92458f1694fe7aa7c1ab97a75768'
p476
sa(dp477
g2
S'19171'
p478
sg4
S'5078'
p479
sg6
S'c17e96ac34d43b5a75b94e6c10c2580f'
p480
sg8
S'xx002b6a5597857d1ac0100e2c884a4426'
p481
sg10
S'xxa7c37b31476894a9d5495958bd0a8705'
p482
sg12
S'xxfb8c8e7a2c5251729e057ad83d7036fc'
p483
sg14
S'Mozilla/5.0 (Linux; Android 5.1; 1501_M02 Build/LMY47D) AppleWebKit/537.36 (KHTML, like Gecko) Version/4.0 Chrome/37.0.0.0 Mobile MQQBrowser/6.8 TBS/036849 Safari/537.36 MicroMessenger/6.3.27.880 NetType/WIFI Language/zh_CN'
p484
sg16
S'3bfb92458f1694fe7aa7c1ab97a75768'
p485
sa(dp486
g2
S'5461'
p487
sg4
S'5090'
p488
sg6
S'5b48c78089c6f21a864d9e71cbaf0c9d'
p489
sg8
S'xx002b6a5597857d1ac0100e2c884a4426'
p490
sg10
S'xxa7c37b31476894a9d5495958bd0a8705'
p491
sg12
S'xxfb8c8e7a2c5251729e057ad83d7036fc'
p492
sg14
S'Mozilla/5.0 (Linux; Android 5.1; 1501_M02 Build/LMY47D) AppleWebKit/537.36 (KHTML, like Gecko) Version/4.0 Chrome/37.0.0.0 Mobile MQQBrowser/6.8 TBS/036849 Safari/537.36 MicroMessenger/6.3.27.880 NetType/WIFI Language/zh_CN'
p493
sg16
S'3bfb92458f1694fe7aa7c1ab97a75768'
p494
sa(dp495
g2
S'5461'
p496
sg4
S'5109'
p497
sg6
S'5b48c78089c6f21a864d9e71cbaf0c9d'
p498
sg8
S'xx002b6a5597857d1ac0100e2c884a4426'
p499
sg10
S'xxa7c37b31476894a9d5495958bd0a8705'
p500
sg12
S'xxfb8c8e7a2c5251729e057ad83d7036fc'
p501
sg14
S'Mozilla/5.0 (Linux; Android 5.1; 1501_M02 Build/LMY47D) AppleWebKit/537.36 (KHTML, like Gecko) Version/4.0 Chrome/37.0.0.0 Mobile MQQBrowser/6.8 TBS/036849 Safari/537.36 MicroMessenger/6.3.27.880 NetType/WIFI Language/zh_CN'
p502
sg16
S'3bfb92458f1694fe7aa7c1ab97a75768'
p503
sa(dp504
g2
S'19171'
p505
sg4
S'5348'
p506
sg6
S'c17e96ac34d43b5a75b94e6c10c2580f'
p507
sg8
S'xx002b6a5597857d1ac0100e2c884a4426'
p508
sg10
S'xxa7c37b31476894a9d5495958bd0a8705'
p509
sg12
S'xxfb8c8e7a2c5251729e057ad83d7036fc'
p510
sg14
S'Mozilla/5.0 (Linux; Android 5.1; 1501_M02 Build/LMY47D) AppleWebKit/537.36 (KHTML, like Gecko) Version/4.0 Chrome/37.0.0.0 Mobile MQQBrowser/6.8 TBS/036849 Safari/537.36 MicroMessenger/6.3.27.880 NetType/WIFI Language/zh_CN'
p511
sg16
S'3bfb92458f1694fe7aa7c1ab97a75768'
p512
sa(dp513
g2
S'31935'
p514
sg4
S'5404'
p515
sg6
S'c17e96ac34d43b5a75b94e6c10c2580f'
p516
sg8
S'xx002b6a5597857d1ac0100e2c884a4426'
p517
sg10
S'xxa7c37b31476894a9d5495958bd0a8705'
p518
sg12
S'xxfb8c8e7a2c5251729e057ad83d7036fc'
p519
sg14
S'Mozilla/5.0 (Linux; Android 5.1; 1501_M02 Build/LMY47D) AppleWebKit/537.36 (KHTML, like Gecko) Version/4.0 Chrome/37.0.0.0 Mobile MQQBrowser/6.8 TBS/036849 Safari/537.36 MicroMessenger/6.3.27.880 NetType/WIFI Language/zh_CN'
p520
sg16
S'3bfb92458f1694fe7aa7c1ab97a75768'
p521
sa(dp522
g2
S'4488'
p523
sg4
S'5875'
p524
sg6
S'9db254181b615a445e7c265f0fc9bd45'
p525
sg8
S'xx002b6a5597857d1ac0100e2c884a4426'
p526
sg10
S'xxa7c37b31476894a9d5495958bd0a8705'
p527
sg12
S'xxfb8c8e7a2c5251729e057ad83d7036fc'
p528
sg14
S'Mozilla/5.0 (Linux; Android 5.1; 1501_M02 Build/LMY47D) AppleWebKit/537.36 (KHTML, like Gecko) Version/4.0 Chrome/37.0.0.0 Mobile MQQBrowser/6.8 TBS/036849 Safari/537.36 MicroMessenger/6.3.27.880 NetType/WIFI Language/zh_CN'
p529
sg16
S'3bfb92458f1694fe7aa7c1ab97a75768'
p530
sa(dp531
g2
S'32071'
p532
sg4
S'5885'
p533
sg6
S'c17e96ac34d43b5a75b94e6c10c2580f'
p534
sg8
S'xx002b6a5597857d1ac0100e2c884a4426'
p535
sg10
S'xxa7c37b31476894a9d5495958bd0a8705'
p536
sg12
S'xxfb8c8e7a2c5251729e057ad83d7036fc'
p537
sg14
S'Mozilla/5.0 (Linux; Android 5.1; 1501_M02 Build/LMY47D) AppleWebKit/537.36 (KHTML, like Gecko) Version/4.0 Chrome/37.0.0.0 Mobile MQQBrowser/6.8 TBS/036849 Safari/537.36 MicroMessenger/6.3.27.880 NetType/WIFI Language/zh_CN'
p538
sg16
S'3bfb92458f1694fe7aa7c1ab97a75768'
p539
sa(dp540
g2
S'4488'
p541
sg4
S'5893'
p542
sg6
S'9db254181b615a445e7c265f0fc9bd45'
p543
sg8
S'xx002b6a5597857d1ac0100e2c884a4426'
p544
sg10
S'xxa7c37b31476894a9d5495958bd0a8705'
p545
sg12
S'xxfb8c8e7a2c5251729e057ad83d7036fc'
p546
sg14
S'Mozilla/5.0 (Linux; Android 5.1; 1501_M02 Build/LMY47D) AppleWebKit/537.36 (KHTML, like Gecko) Version/4.0 Chrome/37.0.0.0 Mobile MQQBrowser/6.8 TBS/036849 Safari/537.36 MicroMessenger/6.3.27.880 NetType/WIFI Language/zh_CN'
p547
sg16
S'3bfb92458f1694fe7aa7c1ab97a75768'
p548
sa(dp549
g2
S'48412'
p550
sg4
S'6401'
p551
sg6
S'4b01904083c8b7f712228ff725ff42e0'
p552
sg8
S'xx002b6a5597857d1ac0100e2c884a4426'
p553
sg10
S'xxa7c37b31476894a9d5495958bd0a8705'
p554
sg12
S'xxfb8c8e7a2c5251729e057ad83d7036fc'
p555
sg14
S'Mozilla/5.0 (Linux; Android 5.1; 1501_M02 Build/LMY47D) AppleWebKit/537.36 (KHTML, like Gecko) Version/4.0 Chrome/37.0.0.0 Mobile MQQBrowser/6.8 TBS/036849 Safari/537.36 MicroMessenger/6.3.27.880 NetType/WIFI Language/zh_CN'
p556
sg16
S'3bfb92458f1694fe7aa7c1ab97a75768'
p557
sa(dp558
g2
S'48412'
p559
sg4
S'6416'
p560
sg6
S'4b01904083c8b7f712228ff725ff42e0'
p561
sg8
S'xx002b6a5597857d1ac0100e2c884a4426'
p562
sg10
S'xxa7c37b31476894a9d5495958bd0a8705'
p563
sg12
S'xxfb8c8e7a2c5251729e057ad83d7036fc'
p564
sg14
S'Mozilla/5.0 (Linux; Android 5.1; 1501_M02 Build/LMY47D) AppleWebKit/537.36 (KHTML, like Gecko) Version/4.0 Chrome/37.0.0.0 Mobile MQQBrowser/6.8 TBS/036849 Safari/537.36 MicroMessenger/6.3.27.880 NetType/WIFI Language/zh_CN'
p565
sg16
S'3bfb92458f1694fe7aa7c1ab97a75768'
p566
sa(dp567
g2
S'48412'
p568
sg4
S'6432'
p569
sg6
S'4b01904083c8b7f712228ff725ff42e0'
p570
sg8
S'xx002b6a5597857d1ac0100e2c884a4426'
p571
sg10
S'xxa7c37b31476894a9d5495958bd0a8705'
p572
sg12
S'xxfb8c8e7a2c5251729e057ad83d7036fc'
p573
sg14
S'Mozilla/5.0 (Linux; Android 5.1; 1501_M02 Build/LMY47D) AppleWebKit/537.36 (KHTML, like Gecko) Version/4.0 Chrome/37.0.0.0 Mobile MQQBrowser/6.8 TBS/036849 Safari/537.36 MicroMessenger/6.3.27.880 NetType/WIFI Language/zh_CN'
p574
sg16
S'3bfb92458f1694fe7aa7c1ab97a75768'
p575
sa(dp576
g2
S'42117'
p577
sg4
S'7271'
p578
sg6
S'd333c7d9d10bd1478d7210b706941414'
p579
sg8
S'xxd67eed04b50b6e1dbdb66003e09a928d'
p580
sg10
S'xxa2688a2f031d413266952588af165010'
p581
sg12
S'xxfb8c8e7a2c5251729e057ad83d7036fc'
p582
sg14
S'Mozilla/5.0 (Linux; Android 5.1; 1501_M02 Build/LMY47D) AppleWebKit/537.36 (KHTML, like Gecko) Version/4.0 Chrome/37.0.0.0 Mobile MQQBrowser/6.8 TBS/036849 Safari/537.36 MicroMessenger/6.3.27.880 NetType/WIFI Language/zh_CN'
p583
sg16
S'3bfb92458f1694fe7aa7c1ab97a75768'
p584
sa(dp585
g2
S'42117'
p586
sg4
S'7290'
p587
sg6
S'd333c7d9d10bd1478d7210b706941414'
p588
sg8
S'xxd67eed04b50b6e1dbdb66003e09a928d'
p589
sg10
S'xxa2688a2f031d413266952588af165010'
p590
sg12
S'xxfb8c8e7a2c5251729e057ad83d7036fc'
p591
sg14
S'Mozilla/5.0 (Linux; Android 5.1; 1501_M02 Build/LMY47D) AppleWebKit/537.36 (KHTML, like Gecko) Version/4.0 Chrome/37.0.0.0 Mobile MQQBrowser/6.8 TBS/036849 Safari/537.36 MicroMessenger/6.3.27.880 NetType/WIFI Language/zh_CN'
p592
sg16
S'3bfb92458f1694fe7aa7c1ab97a75768'
p593
sa(dp594
g2
S'30009'
p595
sg4
S'8694'
p596
sg6
S'84c6fea1a0efc618b52a026523e50a51'
p597
sg8
S'xx8e53ada57954d1d51f7f2a644cbfe5e5'
p598
sg10
S'xxa7c37b31476894a9d5495958bd0a8705'
p599
sg12
S'xxfb8c8e7a2c5251729e057ad83d7036fc'
p600
sg14
S'Mozilla/5.0 (Linux; Android 5.1; 1501_M02 Build/LMY47D) AppleWebKit/537.36 (KHTML, like Gecko) Version/4.0 Chrome/37.0.0.0 Mobile MQQBrowser/6.8 TBS/036869 Safari/537.36 MicroMessenger/6.3.27.880 NetType/WIFI Language/zh_CN'
p601
sg16
S'cc0ef078f947da215e60de587fdd7a48'
p602
sa(dp603
g2
S'30009'
p604
sg4
S'8715'
p605
sg6
S'84c6fea1a0efc618b52a026523e50a51'
p606
sg8
S'xx8e53ada57954d1d51f7f2a644cbfe5e5'
p607
sg10
S'xxa7c37b31476894a9d5495958bd0a8705'
p608
sg12
S'xxfb8c8e7a2c5251729e057ad83d7036fc'
p609
sg14
S'Mozilla/5.0 (Linux; Android 5.1; 1501_M02 Build/LMY47D) AppleWebKit/537.36 (KHTML, like Gecko) Version/4.0 Chrome/37.0.0.0 Mobile MQQBrowser/6.8 TBS/036869 Safari/537.36 MicroMessenger/6.3.27.880 NetType/WIFI Language/zh_CN'
p610
sg16
S'cc0ef078f947da215e60de587fdd7a48'
p611
sa(dp612
g2
S'30009'
p613
sg4
S'8726'
p614
sg6
S'84c6fea1a0efc618b52a026523e50a51'
p615
sg8
S'xx8e53ada57954d1d51f7f2a644cbfe5e5'
p616
sg10
S'xxa7c37b31476894a9d5495958bd0a8705'
p617
sg12
S'xxfb8c8e7a2c5251729e057ad83d7036fc'
p618
sg14
S'Mozilla/5.0 (Linux; Android 5.1; 1501_M02 Build/LMY47D) AppleWebKit/537.36 (KHTML, like Gecko) Version/4.0 Chrome/37.0.0.0 Mobile MQQBrowser/6.8 TBS/036869 Safari/537.36 MicroMessenger/6.3.27.880 NetType/WIFI Language/zh_CN'
p619
sg16
S'cc0ef078f947da215e60de587fdd7a48'
p620
sa(dp621
g2
S'46899'
p622
sg4
S'8755'
p623
sg6
S'10d6e9ba5a7f89e5422202990b7f2ea2'
p624
sg8
S'xx6c20bc7ab3896854e993f9fbbfd7bed0'
p625
sg10
S'xx44b386ada77927e7cb405d14b2070dda'
p626
sg12
S'xxfb8c8e7a2c5251729e057ad83d7036fc'
p627
sg14
S'Mozilla/5.0 (Linux; Android 5.1; 1501_M02 Build/LMY47D) AppleWebKit/537.36 (KHTML, like Gecko) Version/4.0 Chrome/37.0.0.0 Mobile MQQBrowser/6.8 TBS/036849 Safari/537.36 MicroMessenger/6.3.27.880 NetType/WIFI Language/zh_CN'
p628
sg16
S'3bfb92458f1694fe7aa7c1ab97a75768'
p629
sa(dp630
g2
S'46899'
p631
sg4
S'8767'
p632
sg6
S'10d6e9ba5a7f89e5422202990b7f2ea2'
p633
sg8
S'xx6c20bc7ab3896854e993f9fbbfd7bed0'
p634
sg10
S'xx44b386ada77927e7cb405d14b2070dda'
p635
sg12
S'xxfb8c8e7a2c5251729e057ad83d7036fc'
p636
sg14
S'Mozilla/5.0 (Linux; Android 5.1; 1501_M02 Build/LMY47D) AppleWebKit/537.36 (KHTML, like Gecko) Version/4.0 Chrome/37.0.0.0 Mobile MQQBrowser/6.8 TBS/036849 Safari/537.36 MicroMessenger/6.3.27.880 NetType/WIFI Language/zh_CN'
p637
sg16
S'3bfb92458f1694fe7aa7c1ab97a75768'
p638
sa.