(lp0
(dp1
S'user_id'
p2
S'47315'
p3
sS'data_id'
p4
S'4823'
p5
sS'ip'
p6
S'98a7d9a4ff2e97e34f24f1ab39ba3feb'
p7
sS'phone_B'
p8
S'xxb5d1703e05a52cd53b705bb9ebde919c'
p9
sS'phone_C'
p10
S'xxea4dbb7528b6265d6773b4d0dccf37ee'
p11
sS'phone_A'
p12
S'xxfebe3e964716a37b22f2b51b9b9878d0'
p13
sS'user_agent'
p14
S'Mozilla/5.0 (Linux; Android 4.4.4; OPPO R7s Build/KTU84P) AppleWebKit/537.36 (KHTML, like Gecko) Version/4.0 Chrome/37.0.0.0 Mobile MQQBrowser/6.8 TBS/036849 Safari/537.36 MicroMessenger/6.3.27.880 NetType/WIFI Language/zh_CN'
p15
sS'ua'
p16
S'82471dce68c89a4ad53eac577a6c7a6d'
p17
sa(dp18
g2
S'47315'
p19
sg4
S'4838'
p20
sg6
S'98a7d9a4ff2e97e34f24f1ab39ba3feb'
p21
sg8
S'xxb5d1703e05a52cd53b705bb9ebde919c'
p22
sg10
S'xxea4dbb7528b6265d6773b4d0dccf37ee'
p23
sg12
S'xxfebe3e964716a37b22f2b51b9b9878d0'
p24
sg14
S'Mozilla/5.0 (Linux; Android 4.4.4; OPPO R7s Build/KTU84P) AppleWebKit/537.36 (KHTML, like Gecko) Version/4.0 Chrome/37.0.0.0 Mobile MQQBrowser/6.8 TBS/036849 Safari/537.36 MicroMessenger/6.3.27.880 NetType/WIFI Language/zh_CN'
p25
sg16
S'82471dce68c89a4ad53eac577a6c7a6d'
p26
sa(dp27
g2
S'47315'
p28
sg4
S'4857'
p29
sg6
S'98a7d9a4ff2e97e34f24f1ab39ba3feb'
p30
sg8
S'xxb5d1703e05a52cd53b705bb9ebde919c'
p31
sg10
S'xxea4dbb7528b6265d6773b4d0dccf37ee'
p32
sg12
S'xxfebe3e964716a37b22f2b51b9b9878d0'
p33
sg14
S'Mozilla/5.0 (Linux; Android 4.4.4; OPPO R7s Build/KTU84P) AppleWebKit/537.36 (KHTML, like Gecko) Version/4.0 Chrome/37.0.0.0 Mobile MQQBrowser/6.8 TBS/036849 Safari/537.36 MicroMessenger/6.3.27.880 NetType/WIFI Language/zh_CN'
p34
sg16
S'82471dce68c89a4ad53eac577a6c7a6d'
p35
sa(dp36
g2
S'49793'
p37
sg4
S'5022'
p38
sg6
S'14a8139824366f89d3837ee0e7072d27'
p39
sg8
S'xxc2db9f9bcf2e8d4ba314c83a8892e417'
p40
sg10
S'xxea4dbb7528b6265d6773b4d0dccf37ee'
p41
sg12
S'xxfebe3e964716a37b22f2b51b9b9878d0'
p42
sg14
S'Mozilla/5.0 (Linux; Android 4.4.4; OPPO R7s Build/KTU84P) AppleWebKit/537.36 (KHTML, like Gecko) Version/4.0 Chrome/37.0.0.0 Mobile MQQBrowser/6.8 TBS/036865 Safari/537.36 MicroMessenger/6.3.27.880 NetType/cmnet Language/zh_CN'
p43
sg16
S'1f8135497c380dc702c64887881b85d1'
p44
sa(dp45
g2
S'49793'
p46
sg4
S'5044'
p47
sg6
S'14a8139824366f89d3837ee0e7072d27'
p48
sg8
S'xxc2db9f9bcf2e8d4ba314c83a8892e417'
p49
sg10
S'xxea4dbb7528b6265d6773b4d0dccf37ee'
p50
sg12
S'xxfebe3e964716a37b22f2b51b9b9878d0'
p51
sg14
S'Mozilla/5.0 (Linux; Android 4.4.4; OPPO R7s Build/KTU84P) AppleWebKit/537.36 (KHTML, like Gecko) Version/4.0 Chrome/37.0.0.0 Mobile MQQBrowser/6.8 TBS/036865 Safari/537.36 MicroMessenger/6.3.27.880 NetType/cmnet Language/zh_CN'
p52
sg16
S'1f8135497c380dc702c64887881b85d1'
p53
sa(dp54
g2
S'49833'
p55
sg4
S'7533'
p56
sg6
S'd2eb85d3de1bb2f3fe6c58fe3d120242'
p57
sg8
S'xx3fe72b0187ac16eeb87b88e358a22102'
p58
sg10
S'xx69d2cb0bb7e4c2f89ef3831463127dd5'
p59
sg12
S'xxfebe3e964716a37b22f2b51b9b9878d0'
p60
sg14
S'Mozilla/5.0 (Linux; Android 4.4.4; OPPO R7s Build/KTU84P) AppleWebKit/537.36 (KHTML, like Gecko) Version/4.0 Chrome/37.0.0.0 Mobile MQQBrowser/6.2 TBS/036558 Safari/537.36 MicroMessenger/6.3.25.861 NetType/cmnet Language/zh_CN'
p61
sg16
S'2747ef0f271f31fd82c02f96759bb01e'
p62
sa(dp63
g2
S'49833'
p64
sg4
S'7544'
p65
sg6
S'd2eb85d3de1bb2f3fe6c58fe3d120242'
p66
sg8
S'xx3fe72b0187ac16eeb87b88e358a22102'
p67
sg10
S'xx69d2cb0bb7e4c2f89ef3831463127dd5'
p68
sg12
S'xxfebe3e964716a37b22f2b51b9b9878d0'
p69
sg14
S'Mozilla/5.0 (Linux; Android 4.4.4; OPPO R7s Build/KTU84P) AppleWebKit/537.36 (KHTML, like Gecko) Version/4.0 Chrome/37.0.0.0 Mobile MQQBrowser/6.2 TBS/036558 Safari/537.36 MicroMessenger/6.3.25.861 NetType/cmnet Language/zh_CN'
p70
sg16
S'2747ef0f271f31fd82c02f96759bb01e'
p71
sa(dp72
g2
S'49833'
p73
sg4
S'7555'
p74
sg6
S'd2eb85d3de1bb2f3fe6c58fe3d120242'
p75
sg8
S'xx3fe72b0187ac16eeb87b88e358a22102'
p76
sg10
S'xx69d2cb0bb7e4c2f89ef3831463127dd5'
p77
sg12
S'xxfebe3e964716a37b22f2b51b9b9878d0'
p78
sg14
S'Mozilla/5.0 (Linux; Android 4.4.4; OPPO R7s Build/KTU84P) AppleWebKit/537.36 (KHTML, like Gecko) Version/4.0 Chrome/37.0.0.0 Mobile MQQBrowser/6.2 TBS/036558 Safari/537.36 MicroMessenger/6.3.25.861 NetType/cmnet Language/zh_CN'
p79
sg16
S'2747ef0f271f31fd82c02f96759bb01e'
p80
sa(dp81
g2
S'49833'
p82
sg4
S'7565'
p83
sg6
S'd2eb85d3de1bb2f3fe6c58fe3d120242'
p84
sg8
S'xx3fe72b0187ac16eeb87b88e358a22102'
p85
sg10
S'xx69d2cb0bb7e4c2f89ef3831463127dd5'
p86
sg12
S'xxfebe3e964716a37b22f2b51b9b9878d0'
p87
sg14
S'Mozilla/5.0 (Linux; Android 4.4.4; OPPO R7s Build/KTU84P) AppleWebKit/537.36 (KHTML, like Gecko) Version/4.0 Chrome/37.0.0.0 Mobile MQQBrowser/6.2 TBS/036558 Safari/537.36 MicroMessenger/6.3.25.861 NetType/cmnet Language/zh_CN'
p88
sg16
S'2747ef0f271f31fd82c02f96759bb01e'
p89
sa(dp90
g2
S'49833'
p91
sg4
S'7578'
p92
sg6
S'd2eb85d3de1bb2f3fe6c58fe3d120242'
p93
sg8
S'xx3fe72b0187ac16eeb87b88e358a22102'
p94
sg10
S'xx69d2cb0bb7e4c2f89ef3831463127dd5'
p95
sg12
S'xxfebe3e964716a37b22f2b51b9b9878d0'
p96
sg14
S'Mozilla/5.0 (Linux; Android 4.4.4; OPPO R7s Build/KTU84P) AppleWebKit/537.36 (KHTML, like Gecko) Version/4.0 Chrome/37.0.0.0 Mobile MQQBrowser/6.2 TBS/036558 Safari/537.36 MicroMessenger/6.3.25.861 NetType/cmnet Language/zh_CN'
p97
sg16
S'2747ef0f271f31fd82c02f96759bb01e'
p98
sa.