(lp0
(dp1
S'user_id'
p2
S'46763'
p3
sS'data_id'
p4
S'2145'
p5
sS'ip'
p6
S'1c8cb4e5c3acfa7834c09f8a7622eb2a'
p7
sS'phone_B'
p8
S'xxeb01fce73f4f4b1e8770896bd7a83136'
p9
sS'phone_C'
p10
S'xx3c9c214b826b52014556bbe502736d86'
p11
sS'phone_A'
p12
S'xxff7e1abe72c7bd6f6dfa8bf83bdfe811'
p13
sS'user_agent'
p14
S'Mozilla/5.0 (Linux; Android 4.4.4; C630Lv Build/KTU84P) AppleWebKit/537.36 (KHTML, like Gecko) Version/4.0 Chrome/37.0.0.0 Mobile MQQBrowser/6.8 TBS/036849 Safari/537.36 MicroMessenger/6.3.27.880 NetType/WIFI Language/zh_CN'
p15
sS'ua'
p16
S'087619afd43a30d293dae8027052acc8'
p17
sa(dp18
g2
S'46763'
p19
sg4
S'2155'
p20
sg6
S'1c8cb4e5c3acfa7834c09f8a7622eb2a'
p21
sg8
S'xxeb01fce73f4f4b1e8770896bd7a83136'
p22
sg10
S'xx3c9c214b826b52014556bbe502736d86'
p23
sg12
S'xxff7e1abe72c7bd6f6dfa8bf83bdfe811'
p24
sg14
S'Mozilla/5.0 (Linux; Android 4.4.4; C630Lv Build/KTU84P) AppleWebKit/537.36 (KHTML, like Gecko) Version/4.0 Chrome/37.0.0.0 Mobile MQQBrowser/6.8 TBS/036849 Safari/537.36 MicroMessenger/6.3.27.880 NetType/WIFI Language/zh_CN'
p25
sg16
S'087619afd43a30d293dae8027052acc8'
p26
sa(dp27
g2
S'46763'
p28
sg4
S'2162'
p29
sg6
S'1c8cb4e5c3acfa7834c09f8a7622eb2a'
p30
sg8
S'xxeb01fce73f4f4b1e8770896bd7a83136'
p31
sg10
S'xx3c9c214b826b52014556bbe502736d86'
p32
sg12
S'xxff7e1abe72c7bd6f6dfa8bf83bdfe811'
p33
sg14
S'Mozilla/5.0 (Linux; Android 4.4.4; C630Lv Build/KTU84P) AppleWebKit/537.36 (KHTML, like Gecko) Version/4.0 Chrome/37.0.0.0 Mobile MQQBrowser/6.8 TBS/036849 Safari/537.36 MicroMessenger/6.3.27.880 NetType/WIFI Language/zh_CN'
p34
sg16
S'087619afd43a30d293dae8027052acc8'
p35
sa(dp36
g2
S'46763'
p37
sg4
S'2180'
p38
sg6
S'1c8cb4e5c3acfa7834c09f8a7622eb2a'
p39
sg8
S'xxeb01fce73f4f4b1e8770896bd7a83136'
p40
sg10
S'xx3c9c214b826b52014556bbe502736d86'
p41
sg12
S'xxff7e1abe72c7bd6f6dfa8bf83bdfe811'
p42
sg14
S'Mozilla/5.0 (Linux; Android 4.4.4; C630Lv Build/KTU84P) AppleWebKit/537.36 (KHTML, like Gecko) Version/4.0 Chrome/37.0.0.0 Mobile MQQBrowser/6.8 TBS/036849 Safari/537.36 MicroMessenger/6.3.27.880 NetType/WIFI Language/zh_CN'
p43
sg16
S'087619afd43a30d293dae8027052acc8'
p44
sa(dp45
g2
S'46763'
p46
sg4
S'2322'
p47
sg6
S'1c8cb4e5c3acfa7834c09f8a7622eb2a'
p48
sg8
S'xxeb01fce73f4f4b1e8770896bd7a83136'
p49
sg10
S'xx3c9c214b826b52014556bbe502736d86'
p50
sg12
S'xxff7e1abe72c7bd6f6dfa8bf83bdfe811'
p51
sg14
S'Mozilla/5.0 (Linux; Android 4.4.4; C630Lv Build/KTU84P) AppleWebKit/537.36 (KHTML, like Gecko) Version/4.0 Chrome/37.0.0.0 Mobile MQQBrowser/6.8 TBS/036849 Safari/537.36 MicroMessenger/6.3.27.880 NetType/WIFI Language/zh_CN'
p52
sg16
S'087619afd43a30d293dae8027052acc8'
p53
sa(dp54
g2
S'46763'
p55
sg4
S'2336'
p56
sg6
S'1c8cb4e5c3acfa7834c09f8a7622eb2a'
p57
sg8
S'xxeb01fce73f4f4b1e8770896bd7a83136'
p58
sg10
S'xx3c9c214b826b52014556bbe502736d86'
p59
sg12
S'xxff7e1abe72c7bd6f6dfa8bf83bdfe811'
p60
sg14
S'Mozilla/5.0 (Linux; Android 4.4.4; C630Lv Build/KTU84P) AppleWebKit/537.36 (KHTML, like Gecko) Version/4.0 Chrome/37.0.0.0 Mobile MQQBrowser/6.8 TBS/036849 Safari/537.36 MicroMessenger/6.3.27.880 NetType/WIFI Language/zh_CN'
p61
sg16
S'087619afd43a30d293dae8027052acc8'
p62
sa(dp63
g2
S'46763'
p64
sg4
S'2351'
p65
sg6
S'1c8cb4e5c3acfa7834c09f8a7622eb2a'
p66
sg8
S'xxeb01fce73f4f4b1e8770896bd7a83136'
p67
sg10
S'xx3c9c214b826b52014556bbe502736d86'
p68
sg12
S'xxff7e1abe72c7bd6f6dfa8bf83bdfe811'
p69
sg14
S'Mozilla/5.0 (Linux; Android 4.4.4; C630Lv Build/KTU84P) AppleWebKit/537.36 (KHTML, like Gecko) Version/4.0 Chrome/37.0.0.0 Mobile MQQBrowser/6.8 TBS/036849 Safari/537.36 MicroMessenger/6.3.27.880 NetType/WIFI Language/zh_CN'
p70
sg16
S'087619afd43a30d293dae8027052acc8'
p71
sa(dp72
g2
S'46763'
p73
sg4
S'2372'
p74
sg6
S'1c8cb4e5c3acfa7834c09f8a7622eb2a'
p75
sg8
S'xxeb01fce73f4f4b1e8770896bd7a83136'
p76
sg10
S'xx3c9c214b826b52014556bbe502736d86'
p77
sg12
S'xxff7e1abe72c7bd6f6dfa8bf83bdfe811'
p78
sg14
S'Mozilla/5.0 (Linux; Android 4.4.4; C630Lv Build/KTU84P) AppleWebKit/537.36 (KHTML, like Gecko) Version/4.0 Chrome/37.0.0.0 Mobile MQQBrowser/6.8 TBS/036849 Safari/537.36 MicroMessenger/6.3.27.880 NetType/WIFI Language/zh_CN'
p79
sg16
S'087619afd43a30d293dae8027052acc8'
p80
sa(dp81
g2
S'46763'
p82
sg4
S'2389'
p83
sg6
S'1c8cb4e5c3acfa7834c09f8a7622eb2a'
p84
sg8
S'xxeb01fce73f4f4b1e8770896bd7a83136'
p85
sg10
S'xx3c9c214b826b52014556bbe502736d86'
p86
sg12
S'xxff7e1abe72c7bd6f6dfa8bf83bdfe811'
p87
sg14
S'Mozilla/5.0 (Linux; Android 4.4.4; C630Lv Build/KTU84P) AppleWebKit/537.36 (KHTML, like Gecko) Version/4.0 Chrome/37.0.0.0 Mobile MQQBrowser/6.8 TBS/036849 Safari/537.36 MicroMessenger/6.3.27.880 NetType/WIFI Language/zh_CN'
p88
sg16
S'087619afd43a30d293dae8027052acc8'
p89
sa(dp90
g2
S'46763'
p91
sg4
S'2408'
p92
sg6
S'1c8cb4e5c3acfa7834c09f8a7622eb2a'
p93
sg8
S'xxeb01fce73f4f4b1e8770896bd7a83136'
p94
sg10
S'xx3c9c214b826b52014556bbe502736d86'
p95
sg12
S'xxff7e1abe72c7bd6f6dfa8bf83bdfe811'
p96
sg14
S'Mozilla/5.0 (Linux; Android 4.4.4; C630Lv Build/KTU84P) AppleWebKit/537.36 (KHTML, like Gecko) Version/4.0 Chrome/37.0.0.0 Mobile MQQBrowser/6.8 TBS/036849 Safari/537.36 MicroMessenger/6.3.27.880 NetType/WIFI Language/zh_CN'
p97
sg16
S'087619afd43a30d293dae8027052acc8'
p98
sa(dp99
g2
S'46763'
p100
sg4
S'2431'
p101
sg6
S'1c8cb4e5c3acfa7834c09f8a7622eb2a'
p102
sg8
S'xxeb01fce73f4f4b1e8770896bd7a83136'
p103
sg10
S'xx3c9c214b826b52014556bbe502736d86'
p104
sg12
S'xxff7e1abe72c7bd6f6dfa8bf83bdfe811'
p105
sg14
S'Mozilla/5.0 (Linux; Android 4.4.4; C630Lv Build/KTU84P) AppleWebKit/537.36 (KHTML, like Gecko) Version/4.0 Chrome/37.0.0.0 Mobile MQQBrowser/6.8 TBS/036849 Safari/537.36 MicroMessenger/6.3.27.880 NetType/WIFI Language/zh_CN'
p106
sg16
S'087619afd43a30d293dae8027052acc8'
p107
sa.