(lp0
(dp1
S'user_id'
p2
S'7994'
p3
sS'data_id'
p4
S'1575'
p5
sS'ip'
p6
S'03058ff25b1b7f26625c3e6dad07f9c3'
p7
sS'phone_B'
p8
S'xx3a9bbea814b0d99b13ebc3c4c6b2915e'
p9
sS'phone_C'
p10
S'xx14b70e746e301bcd2eaa185383317439'
p11
sS'phone_A'
p12
S'xxffb3171b9843e36aadab886eadb137a4'
p13
sS'user_agent'
p14
S'Mozilla/5.0 (Linux; Android 4.3; GT-I9300 Build/JSS15J) AppleWebKit/537.36 (KHTML, like Gecko) Version/4.0 Chrome/37.0.0.0 Mobile MQQBrowser/6.8 TBS/036849 Safari/537.36 MicroMessenger/6.3.27.880 NetType/WIFI Language/zh_CN'
p15
sS'ua'
p16
S'9392f9c277ec5e4d42beb08b9fb9122e'
p17
sa(dp18
g2
S'7994'
p19
sg4
S'1593'
p20
sg6
S'03058ff25b1b7f26625c3e6dad07f9c3'
p21
sg8
S'xx3a9bbea814b0d99b13ebc3c4c6b2915e'
p22
sg10
S'xx14b70e746e301bcd2eaa185383317439'
p23
sg12
S'xxffb3171b9843e36aadab886eadb137a4'
p24
sg14
S'Mozilla/5.0 (Linux; Android 4.3; GT-I9300 Build/JSS15J) AppleWebKit/537.36 (KHTML, like Gecko) Version/4.0 Chrome/37.0.0.0 Mobile MQQBrowser/6.8 TBS/036849 Safari/537.36 MicroMessenger/6.3.27.880 NetType/WIFI Language/zh_CN'
p25
sg16
S'9392f9c277ec5e4d42beb08b9fb9122e'
p26
sa(dp27
g2
S'25784'
p28
sg4
S'2563'
p29
sg6
S'03058ff25b1b7f26625c3e6dad07f9c3'
p30
sg8
S'xx3a9bbea814b0d99b13ebc3c4c6b2915e'
p31
sg10
S'xx14b70e746e301bcd2eaa185383317439'
p32
sg12
S'xxffb3171b9843e36aadab886eadb137a4'
p33
sg14
S'Mozilla/5.0 (Linux; Android 4.3; GT-I9300 Build/JSS15J) AppleWebKit/537.36 (KHTML, like Gecko) Version/4.0 Chrome/37.0.0.0 Mobile MQQBrowser/6.8 TBS/036849 Safari/537.36 MicroMessenger/6.3.27.880 NetType/WIFI Language/zh_CN'
p34
sg16
S'9392f9c277ec5e4d42beb08b9fb9122e'
p35
sa(dp36
g2
S'25784'
p37
sg4
S'2580'
p38
sg6
S'03058ff25b1b7f26625c3e6dad07f9c3'
p39
sg8
S'xx3a9bbea814b0d99b13ebc3c4c6b2915e'
p40
sg10
S'xx14b70e746e301bcd2eaa185383317439'
p41
sg12
S'xxffb3171b9843e36aadab886eadb137a4'
p42
sg14
S'Mozilla/5.0 (Linux; Android 4.3; GT-I9300 Build/JSS15J) AppleWebKit/537.36 (KHTML, like Gecko) Version/4.0 Chrome/37.0.0.0 Mobile MQQBrowser/6.8 TBS/036849 Safari/537.36 MicroMessenger/6.3.27.880 NetType/WIFI Language/zh_CN'
p43
sg16
S'9392f9c277ec5e4d42beb08b9fb9122e'
p44
sa(dp45
g2
S'25784'
p46
sg4
S'2623'
p47
sg6
S'03058ff25b1b7f26625c3e6dad07f9c3'
p48
sg8
S'xx3a9bbea814b0d99b13ebc3c4c6b2915e'
p49
sg10
S'xx14b70e746e301bcd2eaa185383317439'
p50
sg12
S'xxffb3171b9843e36aadab886eadb137a4'
p51
sg14
S'Mozilla/5.0 (Linux; Android 4.3; GT-I9300 Build/JSS15J) AppleWebKit/537.36 (KHTML, like Gecko) Version/4.0 Chrome/37.0.0.0 Mobile MQQBrowser/6.8 TBS/036849 Safari/537.36 MicroMessenger/6.3.27.880 NetType/WIFI Language/zh_CN'
p52
sg16
S'9392f9c277ec5e4d42beb08b9fb9122e'
p53
sa(dp54
g2
S'25784'
p55
sg4
S'3108'
p56
sg6
S'03058ff25b1b7f26625c3e6dad07f9c3'
p57
sg8
S'xx3a9bbea814b0d99b13ebc3c4c6b2915e'
p58
sg10
S'xx14b70e746e301bcd2eaa185383317439'
p59
sg12
S'xxffb3171b9843e36aadab886eadb137a4'
p60
sg14
S'Mozilla/5.0 (Linux; Android 4.3; GT-I9300 Build/JSS15J) AppleWebKit/537.36 (KHTML, like Gecko) Version/4.0 Chrome/37.0.0.0 Mobile MQQBrowser/6.8 TBS/036849 Safari/537.36 MicroMessenger/6.3.27.880 NetType/WIFI Language/zh_CN'
p61
sg16
S'9392f9c277ec5e4d42beb08b9fb9122e'
p62
sa(dp63
g2
S'25784'
p64
sg4
S'3128'
p65
sg6
S'03058ff25b1b7f26625c3e6dad07f9c3'
p66
sg8
S'xx3a9bbea814b0d99b13ebc3c4c6b2915e'
p67
sg10
S'xx14b70e746e301bcd2eaa185383317439'
p68
sg12
S'xxffb3171b9843e36aadab886eadb137a4'
p69
sg14
S'Mozilla/5.0 (Linux; Android 4.3; GT-I9300 Build/JSS15J) AppleWebKit/537.36 (KHTML, like Gecko) Version/4.0 Chrome/37.0.0.0 Mobile MQQBrowser/6.8 TBS/036849 Safari/537.36 MicroMessenger/6.3.27.880 NetType/WIFI Language/zh_CN'
p70
sg16
S'9392f9c277ec5e4d42beb08b9fb9122e'
p71
sa(dp72
g2
S'25784'
p73
sg4
S'3353'
p74
sg6
S'03058ff25b1b7f26625c3e6dad07f9c3'
p75
sg8
S'xx3a9bbea814b0d99b13ebc3c4c6b2915e'
p76
sg10
S'xx14b70e746e301bcd2eaa185383317439'
p77
sg12
S'xxffb3171b9843e36aadab886eadb137a4'
p78
sg14
S'Mozilla/5.0 (Linux; Android 4.3; GT-I9300 Build/JSS15J) AppleWebKit/537.36 (KHTML, like Gecko) Version/4.0 Chrome/37.0.0.0 Mobile MQQBrowser/6.8 TBS/036849 Safari/537.36 MicroMessenger/6.3.27.880 NetType/WIFI Language/zh_CN'
p79
sg16
S'9392f9c277ec5e4d42beb08b9fb9122e'
p80
sa(dp81
g2
S'25784'
p82
sg4
S'3372'
p83
sg6
S'03058ff25b1b7f26625c3e6dad07f9c3'
p84
sg8
S'xx3a9bbea814b0d99b13ebc3c4c6b2915e'
p85
sg10
S'xx14b70e746e301bcd2eaa185383317439'
p86
sg12
S'xxffb3171b9843e36aadab886eadb137a4'
p87
sg14
S'Mozilla/5.0 (Linux; Android 4.3; GT-I9300 Build/JSS15J) AppleWebKit/537.36 (KHTML, like Gecko) Version/4.0 Chrome/37.0.0.0 Mobile MQQBrowser/6.8 TBS/036849 Safari/537.36 MicroMessenger/6.3.27.880 NetType/WIFI Language/zh_CN'
p88
sg16
S'9392f9c277ec5e4d42beb08b9fb9122e'
p89
sa(dp90
g2
S'25784'
p91
sg4
S'3731'
p92
sg6
S'03058ff25b1b7f26625c3e6dad07f9c3'
p93
sg8
S'xx3a9bbea814b0d99b13ebc3c4c6b2915e'
p94
sg10
S'xx14b70e746e301bcd2eaa185383317439'
p95
sg12
S'xxffb3171b9843e36aadab886eadb137a4'
p96
sg14
S'Mozilla/5.0 (Linux; Android 4.3; GT-I9300 Build/JSS15J) AppleWebKit/537.36 (KHTML, like Gecko) Version/4.0 Chrome/37.0.0.0 Mobile MQQBrowser/6.8 TBS/036849 Safari/537.36 MicroMessenger/6.3.27.880 NetType/WIFI Language/zh_CN'
p97
sg16
S'9392f9c277ec5e4d42beb08b9fb9122e'
p98
sa(dp99
g2
S'25784'
p100
sg4
S'4305'
p101
sg6
S'03058ff25b1b7f26625c3e6dad07f9c3'
p102
sg8
S'xx3a9bbea814b0d99b13ebc3c4c6b2915e'
p103
sg10
S'xx14b70e746e301bcd2eaa185383317439'
p104
sg12
S'xxffb3171b9843e36aadab886eadb137a4'
p105
sg14
S'Mozilla/5.0 (Linux; Android 4.3; GT-I9300 Build/JSS15J) AppleWebKit/537.36 (KHTML, like Gecko) Version/4.0 Chrome/37.0.0.0 Mobile MQQBrowser/6.8 TBS/036849 Safari/537.36 MicroMessenger/6.3.27.880 NetType/WIFI Language/zh_CN'
p106
sg16
S'9392f9c277ec5e4d42beb08b9fb9122e'
p107
sa(dp108
g2
S'25784'
p109
sg4
S'4356'
p110
sg6
S'03058ff25b1b7f26625c3e6dad07f9c3'
p111
sg8
S'xx3a9bbea814b0d99b13ebc3c4c6b2915e'
p112
sg10
S'xx14b70e746e301bcd2eaa185383317439'
p113
sg12
S'xxffb3171b9843e36aadab886eadb137a4'
p114
sg14
S'Mozilla/5.0 (Linux; Android 4.3; GT-I9300 Build/JSS15J) AppleWebKit/537.36 (KHTML, like Gecko) Version/4.0 Chrome/37.0.0.0 Mobile MQQBrowser/6.8 TBS/036849 Safari/537.36 MicroMessenger/6.3.27.880 NetType/WIFI Language/zh_CN'
p115
sg16
S'9392f9c277ec5e4d42beb08b9fb9122e'
p116
sa(dp117
g2
S'25784'
p118
sg4
S'4387'
p119
sg6
S'03058ff25b1b7f26625c3e6dad07f9c3'
p120
sg8
S'xx3a9bbea814b0d99b13ebc3c4c6b2915e'
p121
sg10
S'xx14b70e746e301bcd2eaa185383317439'
p122
sg12
S'xxffb3171b9843e36aadab886eadb137a4'
p123
sg14
S'Mozilla/5.0 (Linux; Android 4.3; GT-I9300 Build/JSS15J) AppleWebKit/537.36 (KHTML, like Gecko) Version/4.0 Chrome/37.0.0.0 Mobile MQQBrowser/6.8 TBS/036849 Safari/537.36 MicroMessenger/6.3.27.880 NetType/WIFI Language/zh_CN'
p124
sg16
S'9392f9c277ec5e4d42beb08b9fb9122e'
p125
sa(dp126
g2
S'25784'
p127
sg4
S'4780'
p128
sg6
S'03058ff25b1b7f26625c3e6dad07f9c3'
p129
sg8
S'xx3a9bbea814b0d99b13ebc3c4c6b2915e'
p130
sg10
S'xx14b70e746e301bcd2eaa185383317439'
p131
sg12
S'xxffb3171b9843e36aadab886eadb137a4'
p132
sg14
S'Mozilla/5.0 (Linux; Android 4.3; GT-I9300 Build/JSS15J) AppleWebKit/537.36 (KHTML, like Gecko) Version/4.0 Chrome/37.0.0.0 Mobile MQQBrowser/6.8 TBS/036849 Safari/537.36 MicroMessenger/6.3.27.880 NetType/WIFI Language/zh_CN'
p133
sg16
S'9392f9c277ec5e4d42beb08b9fb9122e'
p134
sa(dp135
g2
S'25784'
p136
sg4
S'4883'
p137
sg6
S'03058ff25b1b7f26625c3e6dad07f9c3'
p138
sg8
S'xx3a9bbea814b0d99b13ebc3c4c6b2915e'
p139
sg10
S'xx14b70e746e301bcd2eaa185383317439'
p140
sg12
S'xxffb3171b9843e36aadab886eadb137a4'
p141
sg14
S'Mozilla/5.0 (Linux; Android 4.3; GT-I9300 Build/JSS15J) AppleWebKit/537.36 (KHTML, like Gecko) Version/4.0 Chrome/37.0.0.0 Mobile MQQBrowser/6.8 TBS/036849 Safari/537.36 MicroMessenger/6.3.27.880 NetType/WIFI Language/zh_CN'
p142
sg16
S'9392f9c277ec5e4d42beb08b9fb9122e'
p143
sa(dp144
g2
S'46170'
p145
sg4
S'4913'
p146
sg6
S'b1df4a49578969f1442a9d79abf338f9'
p147
sg8
S'xx3a9bbea814b0d99b13ebc3c4c6b2915e'
p148
sg10
S'xx14b70e746e301bcd2eaa185383317439'
p149
sg12
S'xxffb3171b9843e36aadab886eadb137a4'
p150
sg14
S'Mozilla/5.0 (Linux; Android 4.3; GT-I9300 Build/JSS15J) AppleWebKit/537.36 (KHTML, like Gecko) Version/4.0 Chrome/37.0.0.0 Mobile MQQBrowser/6.8 TBS/036849 Safari/537.36 MicroMessenger/6.3.27.880 NetType/WIFI Language/zh_CN'
p151
sg16
S'9392f9c277ec5e4d42beb08b9fb9122e'
p152
sa(dp153
g2
S'46170'
p154
sg4
S'4927'
p155
sg6
S'b1df4a49578969f1442a9d79abf338f9'
p156
sg8
S'xx3a9bbea814b0d99b13ebc3c4c6b2915e'
p157
sg10
S'xx14b70e746e301bcd2eaa185383317439'
p158
sg12
S'xxffb3171b9843e36aadab886eadb137a4'
p159
sg14
S'Mozilla/5.0 (Linux; Android 4.3; GT-I9300 Build/JSS15J) AppleWebKit/537.36 (KHTML, like Gecko) Version/4.0 Chrome/37.0.0.0 Mobile MQQBrowser/6.8 TBS/036849 Safari/537.36 MicroMessenger/6.3.27.880 NetType/WIFI Language/zh_CN'
p160
sg16
S'9392f9c277ec5e4d42beb08b9fb9122e'
p161
sa(dp162
g2
S'46170'
p163
sg4
S'4939'
p164
sg6
S'b1df4a49578969f1442a9d79abf338f9'
p165
sg8
S'xx3a9bbea814b0d99b13ebc3c4c6b2915e'
p166
sg10
S'xx14b70e746e301bcd2eaa185383317439'
p167
sg12
S'xxffb3171b9843e36aadab886eadb137a4'
p168
sg14
S'Mozilla/5.0 (Linux; Android 4.3; GT-I9300 Build/JSS15J) AppleWebKit/537.36 (KHTML, like Gecko) Version/4.0 Chrome/37.0.0.0 Mobile MQQBrowser/6.8 TBS/036849 Safari/537.36 MicroMessenger/6.3.27.880 NetType/WIFI Language/zh_CN'
p169
sg16
S'9392f9c277ec5e4d42beb08b9fb9122e'
p170
sa(dp171
g2
S'25784'
p172
sg4
S'4986'
p173
sg6
S'03058ff25b1b7f26625c3e6dad07f9c3'
p174
sg8
S'xx3a9bbea814b0d99b13ebc3c4c6b2915e'
p175
sg10
S'xx14b70e746e301bcd2eaa185383317439'
p176
sg12
S'xxffb3171b9843e36aadab886eadb137a4'
p177
sg14
S'Mozilla/5.0 (Linux; Android 4.3; GT-I9300 Build/JSS15J) AppleWebKit/537.36 (KHTML, like Gecko) Version/4.0 Chrome/37.0.0.0 Mobile MQQBrowser/6.8 TBS/036849 Safari/537.36 MicroMessenger/6.3.27.880 NetType/WIFI Language/zh_CN'
p178
sg16
S'9392f9c277ec5e4d42beb08b9fb9122e'
p179
sa(dp180
g2
S'25784'
p181
sg4
S'4999'
p182
sg6
S'03058ff25b1b7f26625c3e6dad07f9c3'
p183
sg8
S'xx3a9bbea814b0d99b13ebc3c4c6b2915e'
p184
sg10
S'xx14b70e746e301bcd2eaa185383317439'
p185
sg12
S'xxffb3171b9843e36aadab886eadb137a4'
p186
sg14
S'Mozilla/5.0 (Linux; Android 4.3; GT-I9300 Build/JSS15J) AppleWebKit/537.36 (KHTML, like Gecko) Version/4.0 Chrome/37.0.0.0 Mobile MQQBrowser/6.8 TBS/036849 Safari/537.36 MicroMessenger/6.3.27.880 NetType/WIFI Language/zh_CN'
p187
sg16
S'9392f9c277ec5e4d42beb08b9fb9122e'
p188
sa(dp189
g2
S'7994'
p190
sg4
S'5191'
p191
sg6
S'03058ff25b1b7f26625c3e6dad07f9c3'
p192
sg8
S'xx3a9bbea814b0d99b13ebc3c4c6b2915e'
p193
sg10
S'xx14b70e746e301bcd2eaa185383317439'
p194
sg12
S'xxffb3171b9843e36aadab886eadb137a4'
p195
sg14
S'Mozilla/5.0 (Linux; Android 4.3; GT-I9300 Build/JSS15J) AppleWebKit/537.36 (KHTML, like Gecko) Version/4.0 Chrome/37.0.0.0 Mobile MQQBrowser/6.8 TBS/036849 Safari/537.36 MicroMessenger/6.3.27.880 NetType/WIFI Language/zh_CN'
p196
sg16
S'9392f9c277ec5e4d42beb08b9fb9122e'
p197
sa(dp198
g2
S'7994'
p199
sg4
S'5625'
p200
sg6
S'03058ff25b1b7f26625c3e6dad07f9c3'
p201
sg8
S'xx3a9bbea814b0d99b13ebc3c4c6b2915e'
p202
sg10
S'xx14b70e746e301bcd2eaa185383317439'
p203
sg12
S'xxffb3171b9843e36aadab886eadb137a4'
p204
sg14
S'Mozilla/5.0 (Linux; Android 4.3; GT-I9300 Build/JSS15J) AppleWebKit/537.36 (KHTML, like Gecko) Version/4.0 Chrome/37.0.0.0 Mobile MQQBrowser/6.8 TBS/036849 Safari/537.36 MicroMessenger/6.3.27.880 NetType/WIFI Language/zh_CN'
p205
sg16
S'9392f9c277ec5e4d42beb08b9fb9122e'
p206
sa(dp207
g2
S'7994'
p208
sg4
S'5735'
p209
sg6
S'03058ff25b1b7f26625c3e6dad07f9c3'
p210
sg8
S'xx3a9bbea814b0d99b13ebc3c4c6b2915e'
p211
sg10
S'xx14b70e746e301bcd2eaa185383317439'
p212
sg12
S'xxffb3171b9843e36aadab886eadb137a4'
p213
sg14
S'Mozilla/5.0 (Linux; Android 4.3; GT-I9300 Build/JSS15J) AppleWebKit/537.36 (KHTML, like Gecko) Version/4.0 Chrome/37.0.0.0 Mobile MQQBrowser/6.8 TBS/036849 Safari/537.36 MicroMessenger/6.3.27.880 NetType/WIFI Language/zh_CN'
p214
sg16
S'9392f9c277ec5e4d42beb08b9fb9122e'
p215
sa(dp216
g2
S'7994'
p217
sg4
S'5753'
p218
sg6
S'03058ff25b1b7f26625c3e6dad07f9c3'
p219
sg8
S'xx3a9bbea814b0d99b13ebc3c4c6b2915e'
p220
sg10
S'xx14b70e746e301bcd2eaa185383317439'
p221
sg12
S'xxffb3171b9843e36aadab886eadb137a4'
p222
sg14
S'Mozilla/5.0 (Linux; Android 4.3; GT-I9300 Build/JSS15J) AppleWebKit/537.36 (KHTML, like Gecko) Version/4.0 Chrome/37.0.0.0 Mobile MQQBrowser/6.8 TBS/036849 Safari/537.36 MicroMessenger/6.3.27.880 NetType/WIFI Language/zh_CN'
p223
sg16
S'9392f9c277ec5e4d42beb08b9fb9122e'
p224
sa(dp225
g2
S'25784'
p226
sg4
S'5923'
p227
sg6
S'03058ff25b1b7f26625c3e6dad07f9c3'
p228
sg8
S'xx3a9bbea814b0d99b13ebc3c4c6b2915e'
p229
sg10
S'xx14b70e746e301bcd2eaa185383317439'
p230
sg12
S'xxffb3171b9843e36aadab886eadb137a4'
p231
sg14
S'Mozilla/5.0 (Linux; Android 4.3; GT-I9300 Build/JSS15J) AppleWebKit/537.36 (KHTML, like Gecko) Version/4.0 Chrome/37.0.0.0 Mobile MQQBrowser/6.8 TBS/036849 Safari/537.36 MicroMessenger/6.3.27.880 NetType/WIFI Language/zh_CN'
p232
sg16
S'9392f9c277ec5e4d42beb08b9fb9122e'
p233
sa(dp234
g2
S'25784'
p235
sg4
S'5942'
p236
sg6
S'03058ff25b1b7f26625c3e6dad07f9c3'
p237
sg8
S'xx3a9bbea814b0d99b13ebc3c4c6b2915e'
p238
sg10
S'xx14b70e746e301bcd2eaa185383317439'
p239
sg12
S'xxffb3171b9843e36aadab886eadb137a4'
p240
sg14
S'Mozilla/5.0 (Linux; Android 4.3; GT-I9300 Build/JSS15J) AppleWebKit/537.36 (KHTML, like Gecko) Version/4.0 Chrome/37.0.0.0 Mobile MQQBrowser/6.8 TBS/036849 Safari/537.36 MicroMessenger/6.3.27.880 NetType/WIFI Language/zh_CN'
p241
sg16
S'9392f9c277ec5e4d42beb08b9fb9122e'
p242
sa(dp243
g2
S'25784'
p244
sg4
S'6438'
p245
sg6
S'03058ff25b1b7f26625c3e6dad07f9c3'
p246
sg8
S'xx3a9bbea814b0d99b13ebc3c4c6b2915e'
p247
sg10
S'xx14b70e746e301bcd2eaa185383317439'
p248
sg12
S'xxffb3171b9843e36aadab886eadb137a4'
p249
sg14
S'Mozilla/5.0 (Linux; Android 4.3; GT-I9300 Build/JSS15J) AppleWebKit/537.36 (KHTML, like Gecko) Version/4.0 Chrome/37.0.0.0 Mobile MQQBrowser/6.8 TBS/036849 Safari/537.36 MicroMessenger/6.3.27.880 NetType/WIFI Language/zh_CN'
p250
sg16
S'9392f9c277ec5e4d42beb08b9fb9122e'
p251
sa(dp252
g2
S'25784'
p253
sg4
S'6455'
p254
sg6
S'03058ff25b1b7f26625c3e6dad07f9c3'
p255
sg8
S'xx3a9bbea814b0d99b13ebc3c4c6b2915e'
p256
sg10
S'xx14b70e746e301bcd2eaa185383317439'
p257
sg12
S'xxffb3171b9843e36aadab886eadb137a4'
p258
sg14
S'Mozilla/5.0 (Linux; Android 4.3; GT-I9300 Build/JSS15J) AppleWebKit/537.36 (KHTML, like Gecko) Version/4.0 Chrome/37.0.0.0 Mobile MQQBrowser/6.8 TBS/036849 Safari/537.36 MicroMessenger/6.3.27.880 NetType/WIFI Language/zh_CN'
p259
sg16
S'9392f9c277ec5e4d42beb08b9fb9122e'
p260
sa(dp261
g2
S'7994'
p262
sg4
S'6769'
p263
sg6
S'03058ff25b1b7f26625c3e6dad07f9c3'
p264
sg8
S'xx3a9bbea814b0d99b13ebc3c4c6b2915e'
p265
sg10
S'xx14b70e746e301bcd2eaa185383317439'
p266
sg12
S'xxffb3171b9843e36aadab886eadb137a4'
p267
sg14
S'Mozilla/5.0 (Linux; Android 4.3; GT-I9300 Build/JSS15J) AppleWebKit/537.36 (KHTML, like Gecko) Version/4.0 Chrome/37.0.0.0 Mobile MQQBrowser/6.8 TBS/036849 Safari/537.36 MicroMessenger/6.3.27.880 NetType/WIFI Language/zh_CN'
p268
sg16
S'9392f9c277ec5e4d42beb08b9fb9122e'
p269
sa(dp270
g2
S'7994'
p271
sg4
S'6788'
p272
sg6
S'03058ff25b1b7f26625c3e6dad07f9c3'
p273
sg8
S'xx3a9bbea814b0d99b13ebc3c4c6b2915e'
p274
sg10
S'xx14b70e746e301bcd2eaa185383317439'
p275
sg12
S'xxffb3171b9843e36aadab886eadb137a4'
p276
sg14
S'Mozilla/5.0 (Linux; Android 4.3; GT-I9300 Build/JSS15J) AppleWebKit/537.36 (KHTML, like Gecko) Version/4.0 Chrome/37.0.0.0 Mobile MQQBrowser/6.8 TBS/036849 Safari/537.36 MicroMessenger/6.3.27.880 NetType/WIFI Language/zh_CN'
p277
sg16
S'9392f9c277ec5e4d42beb08b9fb9122e'
p278
sa(dp279
g2
S'7994'
p280
sg4
S'7210'
p281
sg6
S'03058ff25b1b7f26625c3e6dad07f9c3'
p282
sg8
S'xx3a9bbea814b0d99b13ebc3c4c6b2915e'
p283
sg10
S'xx14b70e746e301bcd2eaa185383317439'
p284
sg12
S'xxffb3171b9843e36aadab886eadb137a4'
p285
sg14
S'Mozilla/5.0 (Linux; Android 4.3; GT-I9300 Build/JSS15J) AppleWebKit/537.36 (KHTML, like Gecko) Version/4.0 Chrome/37.0.0.0 Mobile MQQBrowser/6.8 TBS/036849 Safari/537.36 MicroMessenger/6.3.27.880 NetType/WIFI Language/zh_CN'
p286
sg16
S'9392f9c277ec5e4d42beb08b9fb9122e'
p287
sa(dp288
g2
S'7994'
p289
sg4
S'7450'
p290
sg6
S'03058ff25b1b7f26625c3e6dad07f9c3'
p291
sg8
S'xx3a9bbea814b0d99b13ebc3c4c6b2915e'
p292
sg10
S'xx14b70e746e301bcd2eaa185383317439'
p293
sg12
S'xxffb3171b9843e36aadab886eadb137a4'
p294
sg14
S'Mozilla/5.0 (Linux; Android 4.3; GT-I9300 Build/JSS15J) AppleWebKit/537.36 (KHTML, like Gecko) Version/4.0 Chrome/37.0.0.0 Mobile MQQBrowser/6.8 TBS/036849 Safari/537.36 MicroMessenger/6.3.27.880 NetType/WIFI Language/zh_CN'
p295
sg16
S'9392f9c277ec5e4d42beb08b9fb9122e'
p296
sa(dp297
g2
S'7994'
p298
sg4
S'7463'
p299
sg6
S'03058ff25b1b7f26625c3e6dad07f9c3'
p300
sg8
S'xx3a9bbea814b0d99b13ebc3c4c6b2915e'
p301
sg10
S'xx14b70e746e301bcd2eaa185383317439'
p302
sg12
S'xxffb3171b9843e36aadab886eadb137a4'
p303
sg14
S'Mozilla/5.0 (Linux; Android 4.3; GT-I9300 Build/JSS15J) AppleWebKit/537.36 (KHTML, like Gecko) Version/4.0 Chrome/37.0.0.0 Mobile MQQBrowser/6.8 TBS/036849 Safari/537.36 MicroMessenger/6.3.27.880 NetType/WIFI Language/zh_CN'
p304
sg16
S'9392f9c277ec5e4d42beb08b9fb9122e'
p305
sa(dp306
g2
S'25784'
p307
sg4
S'7616'
p308
sg6
S'03058ff25b1b7f26625c3e6dad07f9c3'
p309
sg8
S'xx3a9bbea814b0d99b13ebc3c4c6b2915e'
p310
sg10
S'xx14b70e746e301bcd2eaa185383317439'
p311
sg12
S'xxffb3171b9843e36aadab886eadb137a4'
p312
sg14
S'Mozilla/5.0 (Linux; Android 4.3; GT-I9300 Build/JSS15J) AppleWebKit/537.36 (KHTML, like Gecko) Version/4.0 Chrome/37.0.0.0 Mobile MQQBrowser/6.8 TBS/036849 Safari/537.36 MicroMessenger/6.3.27.880 NetType/WIFI Language/zh_CN'
p313
sg16
S'9392f9c277ec5e4d42beb08b9fb9122e'
p314
sa(dp315
g2
S'25784'
p316
sg4
S'7996'
p317
sg6
S'03058ff25b1b7f26625c3e6dad07f9c3'
p318
sg8
S'xx3a9bbea814b0d99b13ebc3c4c6b2915e'
p319
sg10
S'xx14b70e746e301bcd2eaa185383317439'
p320
sg12
S'xxffb3171b9843e36aadab886eadb137a4'
p321
sg14
S'Mozilla/5.0 (Linux; Android 4.3; GT-I9300 Build/JSS15J) AppleWebKit/537.36 (KHTML, like Gecko) Version/4.0 Chrome/37.0.0.0 Mobile MQQBrowser/6.8 TBS/036849 Safari/537.36 MicroMessenger/6.3.27.880 NetType/WIFI Language/zh_CN'
p322
sg16
S'9392f9c277ec5e4d42beb08b9fb9122e'
p323
sa(dp324
g2
S'25784'
p325
sg4
S'8018'
p326
sg6
S'03058ff25b1b7f26625c3e6dad07f9c3'
p327
sg8
S'xx3a9bbea814b0d99b13ebc3c4c6b2915e'
p328
sg10
S'xx14b70e746e301bcd2eaa185383317439'
p329
sg12
S'xxffb3171b9843e36aadab886eadb137a4'
p330
sg14
S'Mozilla/5.0 (Linux; Android 4.3; GT-I9300 Build/JSS15J) AppleWebKit/537.36 (KHTML, like Gecko) Version/4.0 Chrome/37.0.0.0 Mobile MQQBrowser/6.8 TBS/036849 Safari/537.36 MicroMessenger/6.3.27.880 NetType/WIFI Language/zh_CN'
p331
sg16
S'9392f9c277ec5e4d42beb08b9fb9122e'
p332
sa(dp333
g2
S'7994'
p334
sg4
S'8235'
p335
sg6
S'03058ff25b1b7f26625c3e6dad07f9c3'
p336
sg8
S'xx3a9bbea814b0d99b13ebc3c4c6b2915e'
p337
sg10
S'xx14b70e746e301bcd2eaa185383317439'
p338
sg12
S'xxffb3171b9843e36aadab886eadb137a4'
p339
sg14
S'Mozilla/5.0 (Linux; Android 4.3; GT-I9300 Build/JSS15J) AppleWebKit/537.36 (KHTML, like Gecko) Version/4.0 Chrome/37.0.0.0 Mobile MQQBrowser/6.8 TBS/036849 Safari/537.36 MicroMessenger/6.3.27.880 NetType/WIFI Language/zh_CN'
p340
sg16
S'9392f9c277ec5e4d42beb08b9fb9122e'
p341
sa(dp342
g2
S'7994'
p343
sg4
S'8255'
p344
sg6
S'03058ff25b1b7f26625c3e6dad07f9c3'
p345
sg8
S'xx3a9bbea814b0d99b13ebc3c4c6b2915e'
p346
sg10
S'xx14b70e746e301bcd2eaa185383317439'
p347
sg12
S'xxffb3171b9843e36aadab886eadb137a4'
p348
sg14
S'Mozilla/5.0 (Linux; Android 4.3; GT-I9300 Build/JSS15J) AppleWebKit/537.36 (KHTML, like Gecko) Version/4.0 Chrome/37.0.0.0 Mobile MQQBrowser/6.8 TBS/036849 Safari/537.36 MicroMessenger/6.3.27.880 NetType/WIFI Language/zh_CN'
p349
sg16
S'9392f9c277ec5e4d42beb08b9fb9122e'
p350
sa(dp351
g2
S'7994'
p352
sg4
S'8507'
p353
sg6
S'03058ff25b1b7f26625c3e6dad07f9c3'
p354
sg8
S'xx3a9bbea814b0d99b13ebc3c4c6b2915e'
p355
sg10
S'xx14b70e746e301bcd2eaa185383317439'
p356
sg12
S'xxffb3171b9843e36aadab886eadb137a4'
p357
sg14
S'Mozilla/5.0 (Linux; Android 4.3; GT-I9300 Build/JSS15J) AppleWebKit/537.36 (KHTML, like Gecko) Version/4.0 Chrome/37.0.0.0 Mobile MQQBrowser/6.8 TBS/036849 Safari/537.36 MicroMessenger/6.3.27.880 NetType/WIFI Language/zh_CN'
p358
sg16
S'9392f9c277ec5e4d42beb08b9fb9122e'
p359
sa(dp360
g2
S'7994'
p361
sg4
S'8705'
p362
sg6
S'03058ff25b1b7f26625c3e6dad07f9c3'
p363
sg8
S'xx3a9bbea814b0d99b13ebc3c4c6b2915e'
p364
sg10
S'xx14b70e746e301bcd2eaa185383317439'
p365
sg12
S'xxffb3171b9843e36aadab886eadb137a4'
p366
sg14
S'Mozilla/5.0 (Linux; Android 4.3; GT-I9300 Build/JSS15J) AppleWebKit/537.36 (KHTML, like Gecko) Version/4.0 Chrome/37.0.0.0 Mobile MQQBrowser/6.8 TBS/036849 Safari/537.36 MicroMessenger/6.3.27.880 NetType/WIFI Language/zh_CN'
p367
sg16
S'9392f9c277ec5e4d42beb08b9fb9122e'
p368
sa(dp369
g2
S'7994'
p370
sg4
S'8721'
p371
sg6
S'03058ff25b1b7f26625c3e6dad07f9c3'
p372
sg8
S'xx3a9bbea814b0d99b13ebc3c4c6b2915e'
p373
sg10
S'xx14b70e746e301bcd2eaa185383317439'
p374
sg12
S'xxffb3171b9843e36aadab886eadb137a4'
p375
sg14
S'Mozilla/5.0 (Linux; Android 4.3; GT-I9300 Build/JSS15J) AppleWebKit/537.36 (KHTML, like Gecko) Version/4.0 Chrome/37.0.0.0 Mobile MQQBrowser/6.8 TBS/036849 Safari/537.36 MicroMessenger/6.3.27.880 NetType/WIFI Language/zh_CN'
p376
sg16
S'9392f9c277ec5e4d42beb08b9fb9122e'
p377
sa.