(lp0
(dp1
S'user_id'
p2
S'38321'
p3
sS'data_id'
p4
S'3211'
p5
sS'ip'
p6
S'75cb0be92dfe4e164a05a394b3b3d58c'
p7
sS'phone_B'
p8
S'xxf96f3fb2142f06e7229ba071b6c66884'
p9
sS'phone_C'
p10
S'xxa1eddb067d69156b5a420a68e90e67cd'
p11
sS'phone_A'
p12
S'xx0264a058bf3f981644f30af214c91cae'
p13
sS'user_agent'
p14
S'Mozilla/5.0 (Linux; Android 4.4.2; HONOR H30-L01M Build/HonorH30-L01M) AppleWebKit/537.36 (KHTML, like Gecko) Version/4.0 Chrome/37.0.0.0 Mobile MQQBrowser/6.8 TBS/036849 Safari/537.36 MicroMessenger/6.3.27.880 NetType/cmnet Language/zh_CN'
p15
sS'ua'
p16
S'967f9877ef7976fb14d3d945ac9372d7'
p17
sa(dp18
g2
S'40089'
p19
sg4
S'4335'
p20
sg6
S'8f7e5329568bfba15b6d1bba023d4313'
p21
sg8
S'xx5e9a9db9250c110d047ca3ee82605472'
p22
sg10
S'xxb47a9352f7bd5d04e19d5d2a5b6d92a0'
p23
sg12
S'xx0264a058bf3f981644f30af214c91cae'
p24
sg14
S'Mozilla/5.0 (Linux; Android 4.4.2; HONOR H30-L01M Build/HonorH30-L01M) AppleWebKit/537.36 (KHTML, like Gecko) Version/4.0 Chrome/37.0.0.0 Mobile MQQBrowser/6.8 TBS/036824 Safari/537.36 MicroMessenger/6.3.27.880 NetType/cmnet Language/zh_CN'
p25
sg16
S'5ba39a3fd39dd306f43e705cd12bdfd6'
p26
sa(dp27
g2
S'49844'
p28
sg4
S'7842'
p29
sg6
S'ffc9b3936a3facb8844495bd69bbc29e'
p30
sg8
S'xxde80f4e343a83b42ebc9f139e48f6372'
p31
sg10
S'xxfa1d68e77d66e42794cd40f28b49de56'
p32
sg12
S'xx0264a058bf3f981644f30af214c91cae'
p33
sg14
S'Mozilla/5.0 (Linux; Android 4.4.2; HONOR H30-L01M Build/HonorH30-L01M) AppleWebKit/537.36 (KHTML, like Gecko) Version/4.0 Chrome/30.0.0.0 Mobile Safari/537.36 MicroMessenger/6.3.27.880 NetType/cmnet Language/zh_CN'
p34
sg16
S'3f83f3c2a0ed833343edccc3b4d65041'
p35
sa.