(lp0
(dp1
S'user_id'
p2
S'5376'
p3
sS'data_id'
p4
S'78'
p5
sS'ip'
p6
S'9a3bb90ea999051f1b5a6584aa020244'
p7
sS'phone_B'
p8
S'xx6167b391b7e97497497cd47433b9e3cc'
p9
sS'phone_C'
p10
S'xx7c11889d568b644595fc506dc352723e'
p11
sS'phone_A'
p12
S'xx03a578a7a7a96e7ff20390a07263c7fe'
p13
sS'user_agent'
p14
S'Mozilla/5.0 (Linux; Android 4.4.4; 1107 Build/KTU84P) AppleWebKit/537.36 (KHTML, like Gecko) Version/4.0 Chrome/37.0.0.0 Mobile MQQBrowser/6.8 TBS/036824 Safari/537.36 MicroMessenger/6.3.25.861 NetType/WIFI Language/zh_CN'
p15
sS'ua'
p16
S'a99ab370e64d24f26be3f68dcc313bb1'
p17
sa(dp18
g2
S'32447'
p19
sg4
S'8664'
p20
sg6
S'1537e900b1b6ba3d5ce5c92ff8a89779'
p21
sg8
S'xx227bfd37b35c55fbbf09f50563f8394a'
p22
sg10
S'xx5238f37c535cff86b8355230f1604fa5'
p23
sg12
S'xx03a578a7a7a96e7ff20390a07263c7fe'
p24
sg14
S'Mozilla/5.0 (Linux; Android 4.4.4; 1107 Build/KTU84P) AppleWebKit/537.36 (KHTML, like Gecko) Version/4.0 Chrome/37.0.0.0 Mobile MQQBrowser/6.8 TBS/036865 Safari/537.36 MicroMessenger/6.3.27.880 NetType/WIFI Language/zh_CN'
p25
sg16
S'bd9238cf66bb6d9e32550fe29321a014'
p26
sa.