(lp0
(dp1
S'user_id'
p2
S'36707'
p3
sS'data_id'
p4
S'159'
p5
sS'ip'
p6
S'716045ac0a643389933fb93fd735fce7'
p7
sS'phone_B'
p8
S'xx7ce99c05f90e1498d99592426171d009'
p9
sS'phone_C'
p10
S'xx8601ce131e6e5e19eff7e99d40353041'
p11
sS'phone_A'
p12
S'xx061cf2504f95ea3f48ce7edc48a35f92'
p13
sS'user_agent'
p14
S'Mozilla/5.0 (Linux; Android 6.0; CAM-AL00 Build/HONORCAM-AL00) AppleWebKit/537.36 (KHTML, like Gecko) Version/4.0 Chrome/37.0.0.0 Mobile MQQBrowser/6.8 TBS/036869 Safari/537.36 MicroMessenger/6.3.27.880 NetType/WIFI Language/zh_CN'
p15
sS'ua'
p16
S'e7568f8b109179c40fce357c326d0db0'
p17
sa(dp18
g2
S'36707'
p19
sg4
S'1300'
p20
sg6
S'716045ac0a643389933fb93fd735fce7'
p21
sg8
S'xx08b5d456842c6a69ff9b90bcbcc5afdf'
p22
sg10
S'xx7352d0022cc98241f3307c3b2eef0180'
p23
sg12
S'xx061cf2504f95ea3f48ce7edc48a35f92'
p24
sg14
S'Mozilla/5.0 (Linux; Android 6.0; CAM-AL00 Build/HONORCAM-AL00) AppleWebKit/537.36 (KHTML, like Gecko) Version/4.0 Chrome/37.0.0.0 Mobile MQQBrowser/6.8 TBS/036869 Safari/537.36 MicroMessenger/6.3.27.880 NetType/WIFI Language/zh_CN'
p25
sg16
S'e7568f8b109179c40fce357c326d0db0'
p26
sa.