(lp0
(dp1
S'user_id'
p2
S'37422'
p3
sS'data_id'
p4
S'7136'
p5
sS'ip'
p6
S'9d19e70a6352561d1fdecd2c51b68330'
p7
sS'phone_B'
p8
S'xx179380264706dcde556d1178fac93525'
p9
sS'phone_C'
p10
S'xx5add7633312aa76ae2cc0af4d18631f5'
p11
sS'phone_A'
p12
S'xx14c368c181f324e44dd551d67aff47dd'
p13
sS'user_agent'
p14
S'Mozilla/5.0 (Linux; Android 5.0.2; vivo Y35A Build/LRX22G) AppleWebKit/537.36 (KHTML, like Gecko) Version/4.0 Chrome/37.0.0.0 Mobile MQQBrowser/6.8 TBS/036849 Safari/537.36 MicroMessenger/6.3.27.880 NetType/WIFI Language/zh_CN'
p15
sS'ua'
p16
S'f3d500c9b0c03c6358b9736de7fda897'
p17
sa(dp18
g2
S'49845'
p19
sg4
S'7848'
p20
sg6
S'ed857e0979c1e42c84092e3fef49eb75'
p21
sg8
S'xxd4953d7477a82244b93089f047806818'
p22
sg10
S'xx052622e5a0755b0da6e17d3d8ebc73d1'
p23
sg12
S'xx14c368c181f324e44dd551d67aff47dd'
p24
sg14
S'Mozilla/5.0 (Linux; Android 5.0.2; vivo Y35A Build/LRX22G) AppleWebKit/537.36 (KHTML, like Gecko) Version/4.0 Chrome/37.0.0.0 Mobile Safari/537.36 MicroMessenger/6.3.27.880 NetType/cmnet Language/zh_CN'
p25
sg16
S'a281a5892a31e87b657e8fc9e63e568d'
p26
sa(dp27
g2
S'47084'
p28
sg4
S'8074'
p29
sg6
S'e29483f5d48909ce7997109bb3c0c935'
p30
sg8
S'xxa0e5979f479314f685a5511a1fa8a068'
p31
sg10
S'xxe883e72bc2e7ebd6ac8bb2868d56c5eb'
p32
sg12
S'xx14c368c181f324e44dd551d67aff47dd'
p33
sg14
S'Mozilla/5.0 (Linux; Android 5.0.2; vivo Y35A Build/LRX22G) AppleWebKit/537.36 (KHTML, like Gecko) Version/4.0 Chrome/37.0.0.0 Mobile MQQBrowser/6.8 TBS/036849 Safari/537.36 MicroMessenger/6.3.27.880 NetType/WIFI Language/zh_CN'
p34
sg16
S'f3d500c9b0c03c6358b9736de7fda897'
p35
sa.