(lp0
(dp1
S'user_id'
p2
S'30548'
p3
sS'data_id'
p4
S'345'
p5
sS'ip'
p6
S'8c45aec587d8586e0964fb81b7ce4547'
p7
sS'phone_B'
p8
S'xx8c0e59ce07ae46905e0bdbf6402cb53c'
p9
sS'phone_C'
p10
S'xx1973121695db2f180215a77f8aceaf46'
p11
sS'phone_A'
p12
S'xx1c11a32f7bf3b83531c4d48a544ab82a'
p13
sS'user_agent'
p14
S'Mozilla/5.0 (Linux; Android 5.0; vivo Y33 Build/LRX21M) AppleWebKit/537.36 (KHTML, like Gecko) Version/4.0 Chrome/37.0.0.0 Mobile MQQBrowser/6.8 TBS/036849 Safari/537.36 MicroMessenger/6.3.27.880 NetType/WIFI Language/zh_CN'
p15
sS'ua'
p16
S'59434e3dad8651142fed4cde8cc13d30'
p17
sa(dp18
g2
S'49816'
p19
sg4
S'6524'
p20
sg6
S'd992942af7bc5f9aa683b083e37c771a'
p21
sg8
S'xxcaf55a3c1efc9911c8a6d6e786186e8d'
p22
sg10
S'xx7265de9e5324cc2f429710a879facd1b'
p23
sg12
S'xx1c11a32f7bf3b83531c4d48a544ab82a'
p24
sg14
S'Mozilla/5.0 (Linux; Android 5.0; vivo Y33 Build/LRX21M) AppleWebKit/537.36 (KHTML, like Gecko) Version/4.0 Chrome/37.0.0.0 Mobile MQQBrowser/6.8 TBS/036849 Safari/537.36 MicroMessenger/6.3.27.880 NetType/cmnet Language/zh_CN'
p25
sg16
S'aa67f664da8f5f8891c9b482d538c437'
p26
sa.