(lp0
(dp1
S'user_id'
p2
S'45796'
p3
sS'data_id'
p4
S'3176'
p5
sS'ip'
p6
S'ea6d332b05359b807d00a4990d32ec71'
p7
sS'phone_B'
p8
S'xx4cd8949535e547aeae3199551c7671a8'
p9
sS'phone_C'
p10
S'xxfa1d68e77d66e42794cd40f28b49de56'
p11
sS'phone_A'
p12
S'xx21c8b381b98685003fa3935923828c64'
p13
sS'user_agent'
p14
S'Mozilla/5.0 (Linux; Android 4.4.2; CHM-TL00 Build/HonorCHM-TL00) AppleWebKit/537.36 (KHTML, like Gecko) Version/4.0 Chrome/30.0.0.0 Mobile Safari/537.36 MicroMessenger/6.3.27.880 NetType/cmnet Language/zh_CN'
p15
sS'ua'
p16
S'02028a2dd0ea9e910115869ce2d186d3'
p17
sa(dp18
g2
S'30436'
p19
sg4
S'3750'
p20
sg6
S'57ca18c69ff9385f5f6f4451bb388d5a'
p21
sg8
S'xx48de54dc75eea67a8a4636e098a30f1c'
p22
sg10
S'xxb47a9352f7bd5d04e19d5d2a5b6d92a0'
p23
sg12
S'xx21c8b381b98685003fa3935923828c64'
p24
sg14
S'Mozilla/5.0 (Linux; Android 4.4.2; CHM-TL00 Build/HonorCHM-TL00) AppleWebKit/537.36 (KHTML, like Gecko) Version/4.0 Chrome/37.0.0.0 Mobile MQQBrowser/6.8 TBS/036849 Safari/537.36 MicroMessenger/6.3.27.880 NetType/cmnet Language/zh_CN'
p25
sg16
S'155a6abac1dc60e2e81ea6045a4c41b1'
p26
sa(dp27
g2
S'28990'
p28
sg4
S'8358'
p29
sg6
S'5362a3ad03126dbd5ec4835f64a352a3'
p30
sg8
S'xx05b5dfa07afa4973cbefb2b85c0b6939'
p31
sg10
S'xxa1eddb067d69156b5a420a68e90e67cd'
p32
sg12
S'xx21c8b381b98685003fa3935923828c64'
p33
sg14
S'Mozilla/5.0 (Linux; Android 4.4.2; CHM-TL00 Build/HonorCHM-TL00) AppleWebKit/537.36 (KHTML, like Gecko) Version/4.0 Chrome/37.0.0.0 Mobile MQQBrowser/6.8 TBS/036849 Safari/537.36 MicroMessenger/6.3.27.880 NetType/WIFI Language/zh_CN'
p34
sg16
S'409dfedc6459a562c7a2926611c25736'
p35
sa.