(lp0
(dp1
S'user_id'
p2
S'36616'
p3
sS'data_id'
p4
S'13'
p5
sS'ip'
p6
S'f23eff39a2e678a77bb517242bc40d94'
p7
sS'phone_B'
p8
S'xxfd32693b4353929b62e13ad38a167eae'
p9
sS'phone_C'
p10
S'xx33da841852f262a0d8d976e467a70d31'
p11
sS'phone_A'
p12
S'xx22a6129d643a2911de30c1ba2300303e'
p13
sS'user_agent'
p14
S'Mozilla/5.0 (Linux; Android 5.0.2; Redmi Note 2 Build/LRX22G) AppleWebKit/537.36 (KHTML, like Gecko) Version/4.0 Chrome/37.0.0.0 Mobile MQQBrowser/6.8 TBS/036849 Safari/537.36 MicroMessenger/6.3.27.880 NetType/cmnet Language/zh_CN'
p15
sS'ua'
p16
S'8099cc2732272fbf0be707d60643a2c4'
p17
sa(dp18
g2
S'46082'
p19
sg4
S'6089'
p20
sg6
S'b6f412a08f7c92e1441560dc1997abb0'
p21
sg8
S'xxf67092dbe92e26b545c7e84de8d21581'
p22
sg10
S'xx029f581d3ccab28d8a91aae0b2c5c96f'
p23
sg12
S'xx22a6129d643a2911de30c1ba2300303e'
p24
sg14
S'Mozilla/5.0 (Linux; Android 5.0.2; Redmi Note 2 Build/LRX22G) AppleWebKit/537.36 (KHTML, like Gecko) Version/4.0 Chrome/37.0.0.0 Mobile Safari/537.36 MicroMessenger/6.3.27.880 NetType/WIFI Language/zh_CN'
p25
sg16
S'96fd4c8df72b81e5c0fd8cd12705eafa'
p26
sa.