(lp0
(dp1
S'user_id'
p2
S'20332'
p3
sS'data_id'
p4
S'41'
p5
sS'ip'
p6
S'8a4fd3c7f338c790c410d13b8e02ee22'
p7
sS'phone_B'
p8
S'xx39f58fe8420c95988b4923f4ecec2d7b'
p9
sS'phone_C'
p10
S'xx72999533ad0b2519baee41025ec716c1'
p11
sS'phone_A'
p12
S'xx278c162870272e6bac7959868624ab3c'
p13
sS'user_agent'
p14
S'Mozilla/5.0 (Linux; Android 5.1; WP_V2 Build/LMY47D) AppleWebKit/537.36 (KHTML, like Gecko) Version/4.0 Chrome/37.0.0.0 Mobile MQQBrowser/6.8 TBS/036824 Safari/537.36 MicroMessenger/6.3.27.880 NetType/cmnet Language/zh_CN'
p15
sS'ua'
p16
S'b622612dc16fe6b65e9d332fd0fdf7a7'
p17
sa(dp18
g2
S'43104'
p19
sg4
S'1126'
p20
sg6
S'5b48c78089c6f21a864d9e71cbaf0c9d'
p21
sg8
S'xxdf51be01d8e80fa215da5783bf744a1e'
p22
sg10
S'xxee8c9af14ebad53f4510645f71e5b59f'
p23
sg12
S'xx278c162870272e6bac7959868624ab3c'
p24
sg14
S'Mozilla/5.0 (Linux; Android 5.1; WP_V2 Build/LMY47D) AppleWebKit/537.36 (KHTML, like Gecko) Version/4.0 Chrome/39.0.0.0 Mobile Safari/537.36 MicroMessenger/6.3.27.880 NetType/WIFI Language/zh_CN'
p25
sg16
S'3f528128cb168897f0c9377e4d2905c0'
p26
sa(dp27
g2
S'5450'
p28
sg4
S'1227'
p29
sg6
S'5b48c78089c6f21a864d9e71cbaf0c9d'
p30
sg8
S'xx336df4556b39efa0b1e289f0c8ef4527'
p31
sg10
S'xx908bf547724305c5350bdee33b4fd8bf'
p32
sg12
S'xx278c162870272e6bac7959868624ab3c'
p33
sg14
S'Mozilla/5.0 (Linux; Android 5.1; WP_V2 Build/LMY47D) AppleWebKit/537.36 (KHTML, like Gecko) Version/4.0 Chrome/37.0.0.0 Mobile MQQBrowser/6.8 TBS/036849 Safari/537.36 MicroMessenger/6.3.27.880 NetType/WIFI Language/zh_CN'
p34
sg16
S'6e5d91d9361b08404a4e33ac3d42e79a'
p35
sa(dp36
g2
S'4595'
p37
sg4
S'7445'
p38
sg6
S'd66c95a4c1c7aa3ad1fe1162a8491ff3'
p39
sg8
S'xx7a9370a1f1b3ce17d444213da7c9d659'
p40
sg10
S'xx5b896e7332cd15a0a1e7ec85569e20e9'
p41
sg12
S'xx278c162870272e6bac7959868624ab3c'
p42
sg14
S'Mozilla/5.0 (Linux; Android 5.1; WP_V2 Build/LMY47D) AppleWebKit/537.36 (KHTML, like Gecko) Version/4.0 Chrome/37.0.0.0 Mobile MQQBrowser/6.8 TBS/036869 Safari/537.36 MicroMessenger/6.3.27.880 NetType/WIFI Language/zh_CN'
p43
sg16
S'c022a685bf97c45f611d95d6d7404d8e'
p44
sa(dp45
g2
S'32578'
p46
sg4
S'7811'
p47
sg6
S'd66c95a4c1c7aa3ad1fe1162a8491ff3'
p48
sg8
S'xx288736afed4a5eaea99043371b406cab'
p49
sg10
S'xx0cd7a6f2e85b8e05fb014b9b634a62b4'
p50
sg12
S'xx278c162870272e6bac7959868624ab3c'
p51
sg14
S'Mozilla/5.0 (Linux; Android 5.1; WP_V2 Build/LMY47D) AppleWebKit/537.36 (KHTML, like Gecko) Version/4.0 Chrome/37.0.0.0 Mobile MQQBrowser/6.8 TBS/036869 Safari/537.36 MicroMessenger/6.3.27.880 NetType/WIFI Language/zh_CN'
p52
sg16
S'c022a685bf97c45f611d95d6d7404d8e'
p53
sa.