(lp0
(dp1
S'user_id'
p2
S'44827'
p3
sS'data_id'
p4
S'240'
p5
sS'ip'
p6
S'b1600bdca2a74f5f77f8758d9e6f829f'
p7
sS'phone_B'
p8
S'xx311deb8d3c203ab3be72863ea5170221'
p9
sS'phone_C'
p10
S'xx5ba6e83ab19ca3a94d39ebfc36eb8d6b'
p11
sS'phone_A'
p12
S'xx28bb0bca72f8136dc896c0477386b47c'
p13
sS'user_agent'
p14
S'Mozilla/5.0 (Linux; Android 4.4.4; HM NOTE 1S Build/KTU84P) AppleWebKit/537.36 (KHTML, like Gecko) Version/4.0 Chrome/37.0.0.0 Mobile MQQBrowser/6.8 TBS/036865 Safari/537.36 MicroMessenger/6.3.27.880 NetType/WIFI Language/zh_CN'
p15
sS'ua'
p16
S'9c2ab98bbdd34ad93d961a9e37f55148'
p17
sa(dp18
g2
S'33360'
p19
sg4
S'1240'
p20
sg6
S'34c156f810d734131375eac471ebece3'
p21
sg8
S'xx55cdb67f553863a4fa8fd6e8b1ad3abe'
p22
sg10
S'xx05b061af4b8e431874e3030795007468'
p23
sg12
S'xx28bb0bca72f8136dc896c0477386b47c'
p24
sg14
S'Mozilla/5.0 (Linux; Android 4.4.4; HM NOTE 1S Build/KTU84P) AppleWebKit/537.36 (KHTML, like Gecko) Version/4.0 Chrome/37.0.0.0 Mobile MQQBrowser/6.8 TBS/036869 Safari/537.36 MicroMessenger/6.3.27.880 NetType/WIFI Language/zh_CN'
p25
sg16
S'e9601ae84135a9d157eaf645ba85f10e'
p26
sa.