(lp0
(dp1
S'user_id'
p2
S'49742'
p3
sS'data_id'
p4
S'694'
p5
sS'ip'
p6
S'd0088bbb724aad1d00c2f73fd5f65f85'
p7
sS'phone_B'
p8
S'xxc911b858ea2e46f4877450bf09d4b939'
p9
sS'phone_C'
p10
S'xxd5f9d5e3946bb0d8b5e333afe0f28bdd'
p11
sS'phone_A'
p12
S'xx2e3e535b94e1f8c3f23a3143b94328e1'
p13
sS'user_agent'
p14
S'Mozilla/5.0 (Linux; Android 5.0.2; vivo Y37 Build/LRX22G) AppleWebKit/537.36 (KHTML, like Gecko) Version/4.0 Chrome/37.0.0.0 Mobile MQQBrowser/6.8 TBS/036869 Safari/537.36 MicroMessenger/6.3.25.861 NetType/WIFI Language/zh_CN'
p15
sS'ua'
p16
S'548b7de9bcb757e3a0fc8c380a865d63'
p17
sa(dp18
g2
S'30147'
p19
sg4
S'1615'
p20
sg6
S'3e0d3ab94f3382ccc8516c2fb682adf3'
p21
sg8
S'xx11831bfb0785482666c215c2822ae3b0'
p22
sg10
S'xxfe297c479ac40a9d5d8d40a11ca37955'
p23
sg12
S'xx2e3e535b94e1f8c3f23a3143b94328e1'
p24
sg14
S'Mozilla/5.0 (Linux; Android 5.0.2; vivo Y37 Build/LRX22G) AppleWebKit/537.36 (KHTML, like Gecko) Version/4.0 Chrome/37.0.0.0 Mobile MQQBrowser/6.8 TBS/036824 Safari/537.36 MicroMessenger/6.3.25.861 NetType/WIFI Language/zh_CN'
p25
sg16
S'11388fe5737a2539b2929cf26495939a'
p26
sa.