(lp0
(dp1
S'user_id'
p2
S'35855'
p3
sS'data_id'
p4
S'14'
p5
sS'ip'
p6
S'7470be4cdd895a5288c45b70e34cddc6'
p7
sS'phone_B'
p8
S'xx47018d70d80e20331cf1aa2e84006ccd'
p9
sS'phone_C'
p10
S'xxdaac1a2a72e947c418e3a77eab0fe51e'
p11
sS'phone_A'
p12
S'xx2e6bd6e8058173f544bb03fa729ed788'
p13
sS'user_agent'
p14
S'Mozilla/5.0 (Linux; Android 5.1.1; vivo X7 Build/LMY47V) AppleWebKit/537.36 (KHTML, like Gecko) Version/4.0 Chrome/37.0.0.0 Mobile MQQBrowser/6.8 TBS/036869 Safari/537.36 MicroMessenger/6.3.27.880 NetType/WIFI Language/zh_CN'
p15
sS'ua'
p16
S'7229623074e3ff9cba8c0fe66eee8cd3'
p17
sa(dp18
g2
S'6447'
p19
sg4
S'2835'
p20
sg6
S'93aca6a245ab92d06f99899f0c016e6d'
p21
sg8
S'xx28b488c0c969c5588c06f0e74b3d9caa'
p22
sg10
S'xxe4de87140e1bdb5e853a6fb37f537c00'
p23
sg12
S'xx2e6bd6e8058173f544bb03fa729ed788'
p24
sg14
S'Mozilla/5.0 (Linux; Android 5.1.1; vivo X7 Build/LMY47V) AppleWebKit/537.36 (KHTML, like Gecko) Version/4.0 Chrome/37.0.0.0 Mobile MQQBrowser/6.8 TBS/036869 Safari/537.36 MicroMessenger/6.3.27.880 NetType/cmnet Language/zh_CN'
p25
sg16
S'efe0d542a8c67cd3528aaf7accde9f74'
p26
sa(dp27
g2
S'33132'
p28
sg4
S'3545'
p29
sg6
S'68caf753a98483aa8f8b9f741c3481c6'
p30
sg8
S'xx15ffe61dd02edece3a279077631c2277'
p31
sg10
S'xxc438a5bda8775e499832adebd81c9e4d'
p32
sg12
S'xx2e6bd6e8058173f544bb03fa729ed788'
p33
sg14
S'Mozilla/5.0 (Linux; Android 5.1.1; vivo X7 Build/LMY47V) AppleWebKit/537.36 (KHTML, like Gecko) Version/4.0 Chrome/37.0.0.0 Mobile MQQBrowser/6.8 TBS/036849 Safari/537.36 MicroMessenger/6.3.27.880 NetType/cmnet Language/zh_CN'
p34
sg16
S'ddc70171039de5153c7a5d500b79221b'
p35
sa.