(lp0
(dp1
S'user_id'
p2
S'23553'
p3
sS'data_id'
p4
S'1548'
p5
sS'ip'
p6
S'c053915e38aa9f35ab188f266fa74b8a'
p7
sS'phone_B'
p8
S'xx43ad1c57428bb93852ebe56a1b567faf'
p9
sS'phone_C'
p10
S'xxf56cd5f1d0f3109e4206944447fd078e'
p11
sS'phone_A'
p12
S'xx307e60c3a4936501b771f663b0b24d53'
p13
sS'user_agent'
p14
S'Mozilla/5.0 (Linux; Android 4.3; R2017 Build/JLS36C) AppleWebKit/537.36 (KHTML, like Gecko) Version/4.0 Chrome/37.0.0.0 Mobile MQQBrowser/6.8 TBS/036849 Safari/537.36 MicroMessenger/6.3.27.880 NetType/WIFI Language/zh_CN'
p15
sS'ua'
p16
S'4164399e3e69e06bdb4c94927ce41a8b'
p17
sa(dp18
g2
S'30623'
p19
sg4
S'2519'
p20
sg6
S'c053915e38aa9f35ab188f266fa74b8a'
p21
sg8
S'xx4c2a6ed8b6b594e3e374cf13f58ad277'
p22
sg10
S'xx8aa5639ec66a4ca2995a97656ab287df'
p23
sg12
S'xx307e60c3a4936501b771f663b0b24d53'
p24
sg14
S'Mozilla/5.0 (Linux; Android 4.3; R2017 Build/JLS36C) AppleWebKit/537.36 (KHTML, like Gecko) Version/4.0 Chrome/37.0.0.0 Mobile MQQBrowser/6.8 TBS/036849 Safari/537.36 MicroMessenger/6.3.27.880 NetType/WIFI Language/zh_CN'
p25
sg16
S'4164399e3e69e06bdb4c94927ce41a8b'
p26
sa(dp27
g2
S'32485'
p28
sg4
S'6354'
p29
sg6
S'd66158796d5c9dab1579e3eddfe99576'
p30
sg8
S'xx524e4435bc3a8a1b8fd55c889473cf65'
p31
sg10
S'xx5f9d5f4f337f58c08e0090c7b817f07a'
p32
sg12
S'xx307e60c3a4936501b771f663b0b24d53'
p33
sg14
S'Mozilla/5.0 (Linux; Android 4.3; R2017 Build/JLS36C) AppleWebKit/537.36 (KHTML, like Gecko) Version/4.0 Chrome/37.0.0.0 Mobile MQQBrowser/6.8 TBS/036849 Safari/537.36 MicroMessenger/6.3.27.880 NetType/cmnet Language/zh_CN'
p34
sg16
S'd8f0746abb0567f842215c0c5fe53704'
p35
sa.