(lp0
(dp1
S'user_id'
p2
S'31429'
p3
sS'data_id'
p4
S'129'
p5
sS'ip'
p6
S'ce007e11f3a51fcd3cd90d7ea97dda2d'
p7
sS'phone_B'
p8
S'xx77417c4666047abce398709926965abb'
p9
sS'phone_C'
p10
S'xx09c8d5b1b4d1f173c693be7067262bfa'
p11
sS'phone_A'
p12
S'xx3deabb15612f261095244eb0f184d384'
p13
sS'user_agent'
p14
S'Mozilla/5.0 (Linux; Android 5.1; XM-T Build/LMY47D) AppleWebKit/537.36 (KHTML, like Gecko) Version/4.0 Chrome/37.0.0.0 Mobile MQQBrowser/6.8 TBS/036849 Safari/537.36 MicroMessenger/6.3.27.880 NetType/NON_NETWORK Language/zh_CN'
p15
sS'ua'
p16
S'2f7bb05566cee3017d4e11cd4108f85a'
p17
sa(dp18
g2
S'32937'
p19
sg4
S'2679'
p20
sg6
S'ce007e11f3a51fcd3cd90d7ea97dda2d'
p21
sg8
S'xx09eae3ee77129a42d3ad36a5c24b2a52'
p22
sg10
S'xx969d576b04d0c1e454bca088ce167334'
p23
sg12
S'xx3deabb15612f261095244eb0f184d384'
p24
sg14
S'Mozilla/5.0 (Linux; Android 5.1; XM-T Build/LMY47D) AppleWebKit/537.36 (KHTML, like Gecko) Version/4.0 Chrome/37.0.0.0 Mobile MQQBrowser/6.8 TBS/036869 Safari/537.36 MicroMessenger/6.3.27.880 NetType/WIFI Language/zh_CN'
p25
sg16
S'c25a99cb158c113b34caf6d8a827961d'
p26
sa.