(lp0
(dp1
S'user_id'
p2
S'25'
p3
sS'data_id'
p4
S'2467'
p5
sS'ip'
p6
S'73ede5e346b8c0de1d4f0dcb4bc19f1e'
p7
sS'phone_B'
p8
S'xx4953f07a6b7cc9c7319421e7956265ed'
p9
sS'phone_C'
p10
S'xx516fae660602b9d42a4e18ac1164822d'
p11
sS'phone_A'
p12
S'xx3d4eb15198295f5a40d62bd83188a091'
p13
sS'user_agent'
p14
S'Mozilla/5.0 (Linux; Android 4.4.4; R8207 Build/KTU84P) AppleWebKit/537.36 (KHTML, like Gecko) Version/4.0 Chrome/37.0.0.0 Mobile MQQBrowser/6.8 TBS/036849 Safari/537.36 MicroMessenger/6.3.27.880 NetType/WIFI Language/zh_CN'
p15
sS'ua'
p16
S'89ee4200195ed0c9d8825b6faf068ed6'
p17
sa(dp18
g2
S'35088'
p19
sg4
S'7204'
p20
sg6
S'1c9d5f1110bb0d698c2e46c485ecb775'
p21
sg8
S'xx035699d6e33377842ae945b556ec417e'
p22
sg10
S'xx8d15881930ad5c0bcd838734aae1189b'
p23
sg12
S'xx3d4eb15198295f5a40d62bd83188a091'
p24
sg14
S'Mozilla/5.0 (Linux; Android 4.4.4; R8207 Build/KTU84P) AppleWebKit/537.36 (KHTML, like Gecko) Version/4.0 Chrome/37.0.0.0 Mobile MQQBrowser/6.8 TBS/036866 Safari/537.36 MicroMessenger/6.3.27.880 NetType/cmnet Language/zh_CN'
p25
sg16
S'91df267cfc680b4f5997165dc8ba6545'
p26
sa.