(lp0
(dp1
S'user_id'
p2
S'31112'
p3
sS'data_id'
p4
S'1652'
p5
sS'ip'
p6
S'4858c0313511bb266b0125685e7b2430'
p7
sS'phone_B'
p8
S'xxc9905e94c350162b1ae5e6e414cee7ba'
p9
sS'phone_C'
p10
S'xx7c11889d568b644595fc506dc352723e'
p11
sS'phone_A'
p12
S'xx4138183feb0c1f213f6bf6210f3e2bdf'
p13
sS'user_agent'
p14
S'Mozilla/5.0 (Linux; Android 4.4.4; A31c Build/KTU84P) AppleWebKit/537.36 (KHTML, like Gecko) Version/4.0 Chrome/37.0.0.0 Mobile MQQBrowser/6.8 TBS/036849 Safari/537.36 MicroMessenger/6.3.27.880 NetType/ctlte Language/zh_CN'
p15
sS'ua'
p16
S'a07ee3b34f378635ccbc21b78e15e49f'
p17
sa(dp18
g2
S'32396'
p19
sg4
S'8651'
p20
sg6
S'84c6fea1a0efc618b52a026523e50a51'
p21
sg8
S'xxed457e6f7c9da25f0503122183d1c0ca'
p22
sg10
S'xx0fd8297ca224a3e8c8ff886c3e121685'
p23
sg12
S'xx4138183feb0c1f213f6bf6210f3e2bdf'
p24
sg14
S'Mozilla/5.0 (Linux; Android 4.4.4; A31c Build/KTU84P) AppleWebKit/537.36 (KHTML, like Gecko) Version/4.0 Chrome/37.0.0.0 Mobile MQQBrowser/6.8 TBS/036849 Safari/537.36 MicroMessenger/6.3.27.880 NetType/WIFI Language/zh_CN'
p25
sg16
S'd8f43384aeecbafbb88376c01395ae48'
p26
sa.