(lp0
(dp1
S'user_id'
p2
S'37906'
p3
sS'data_id'
p4
S'1730'
p5
sS'ip'
p6
S'54c0a3ebf3f5e3f60e07e6d3c93b54c7'
p7
sS'phone_B'
p8
S'xx15154fedf4472c566bb7c570f63e34c8'
p9
sS'phone_C'
p10
S'xxe4de87140e1bdb5e853a6fb37f537c00'
p11
sS'phone_A'
p12
S'xx469e29cb6df1002428466d824c825f5e'
p13
sS'user_agent'
p14
S'Mozilla/5.0 (Linux; Android 5.1.1; vivo X7Plus Build/LMY47V) AppleWebKit/537.36 (KHTML, like Gecko) Version/4.0 Chrome/37.0.0.0 Mobile MQQBrowser/6.8 TBS/036849 Safari/537.36 MicroMessenger/6.3.27.880 NetType/WIFI Language/zh_CN'
p15
sS'ua'
p16
S'b98027314821f35382b99f2bd68a8ccf'
p17
sa(dp18
g2
S'4563'
p19
sg4
S'3117'
p20
sg6
S'6dbdd589264149cc9a5522c5ca5eaa39'
p21
sg8
S'xx19452eaa5d05dd0c0bde9b51550fdda7'
p22
sg10
S'xxdaac1a2a72e947c418e3a77eab0fe51e'
p23
sg12
S'xx469e29cb6df1002428466d824c825f5e'
p24
sg14
S'Mozilla/5.0 (Linux; Android 5.1.1; vivo X7Plus Build/LMY47V) AppleWebKit/537.36 (KHTML, like Gecko) Version/4.0 Chrome/37.0.0.0 Mobile MQQBrowser/6.8 TBS/036824 Safari/537.36 MicroMessenger/6.3.25.861 NetType/WIFI Language/zh_CN'
p25
sg16
S'd760786176a4f211cbda21fae6cc441a'
p26
sa(dp27
g2
S'49859'
p28
sg4
S'8823'
p29
sg6
S'c0c7a0d7ae70a530a6b6d719e633c264'
p30
sg8
S'xx4245d4a3f5c95aeca39b70b61547944a'
p31
sg10
S'xxbbad53e94e04a2cb9e2e78c4965605da'
p32
sg12
S'xx469e29cb6df1002428466d824c825f5e'
p33
sg14
S'Mozilla/5.0 (Linux; Android 5.1.1; vivo X7Plus Build/LMY47V) AppleWebKit/537.36 (KHTML, like Gecko) Version/4.0 Chrome/39.0.0.0 Mobile Safari/537.36 MicroMessenger/6.3.27.880 NetType/WIFI Language/zh_CN'
p34
sg16
S'f56a10de70154e605c42644919e4dbc8'
p35
sa.