(lp0
(dp1
S'user_id'
p2
S'36350'
p3
sS'data_id'
p4
S'1666'
p5
sS'ip'
p6
S'477fe2e4191a0efd497a87af99164716'
p7
sS'phone_B'
p8
S'xxd1a06550049b429b63709da71920b594'
p9
sS'phone_C'
p10
S'xx38dec9110f78c3215b2869cf76de651b'
p11
sS'phone_A'
p12
S'xx463bf93494c8662431a459b35148f826'
p13
sS'user_agent'
p14
S'Mozilla/5.0 (Linux; Android 5.0.2; M821 Build/LRX22G) AppleWebKit/537.36 (KHTML, like Gecko) Version/4.0 Chrome/37.0.0.0 Mobile MQQBrowser/6.8 TBS/036849 Safari/537.36 MicroMessenger/6.3.27.880 NetType/WIFI Language/zh_CN'
p15
sS'ua'
p16
S'1217da25d765b52ceefad233ee284dbe'
p17
sa(dp18
g2
S'30124'
p19
sg4
S'3954'
p20
sg6
S'37194393ea51a38c28ea435d9a763fde'
p21
sg8
S'xx2209da3015de30bc7af4f2acb3013614'
p22
sg10
S'xxb93971d958f862bd2f165b172bb123cf'
p23
sg12
S'xx463bf93494c8662431a459b35148f826'
p24
sg14
S'Mozilla/5.0 (Linux; Android 5.0.2; M821 Build/LRX22G) AppleWebKit/537.36 (KHTML, like Gecko) Version/4.0 Chrome/37.0.0.0 Mobile MQQBrowser/6.8 TBS/036849 Safari/537.36 MicroMessenger/6.3.27.880 NetType/WIFI Language/zh_CN'
p25
sg16
S'1217da25d765b52ceefad233ee284dbe'
p26
sa.