(lp0
(dp1
S'user_id'
p2
S'40036'
p3
sS'data_id'
p4
S'1890'
p5
sS'ip'
p6
S'37ec7b91655b3c964292df15710fad2a'
p7
sS'phone_B'
p8
S'xxb30ea4d8e684226aea874d95c5d9cc54'
p9
sS'phone_C'
p10
S'xx873a7a3df4823db742b72532905bfa34'
p11
sS'phone_A'
p12
S'xx48d7bc10323ae92503153aa430b355d9'
p13
sS'user_agent'
p14
S'Mozilla/5.0 (Linux; Android 4.4.2; 2013023 Build/HM2013023) AppleWebKit/537.36 (KHTML, like Gecko) Version/4.0 Chrome/37.0.0.0 Mobile MQQBrowser/6.8 TBS/036849 Safari/537.36 MicroMessenger/6.3.27.880 NetType/WIFI Language/zh_CN'
p15
sS'ua'
p16
S'81c578a1dbc4c2d251e36d6b72ae4e73'
p17
sa(dp18
g2
S'25201'
p19
sg4
S'5926'
p20
sg6
S'b1348b829d79248da6ef34ff6293c1dc'
p21
sg8
S'xxa5327d6d9eb27749361c51ec02b5a262'
p22
sg10
S'xx9ae35e62a9c1d9d93f8d0f5a01dd6f48'
p23
sg12
S'xx48d7bc10323ae92503153aa430b355d9'
p24
sg14
S'Mozilla/5.0 (Linux; Android 4.4.2; 2013023 Build/HM2013023) AppleWebKit/537.36 (KHTML, like Gecko) Version/4.0 Chrome/37.0.0.0 Mobile MQQBrowser/6.2 TBS/036557 Safari/537.36 MicroMessenger/6.3.25.861 NetType/WIFI Language/zh_CN'
p25
sg16
S'94b529bd3ec95f75f972a299b96b58c1'
p26
sa(dp27
g2
S'25201'
p28
sg4
S'6517'
p29
sg6
S'b1348b829d79248da6ef34ff6293c1dc'
p30
sg8
S'xx5c542a1826a3fefff4e24992f84ec199'
p31
sg10
S'xx2781381632920d9f8101ee5bf1ebc92e'
p32
sg12
S'xx48d7bc10323ae92503153aa430b355d9'
p33
sg14
S'Mozilla/5.0 (Linux; Android 4.4.2; 2013023 Build/HM2013023) AppleWebKit/537.36 (KHTML, like Gecko) Version/4.0 Chrome/37.0.0.0 Mobile MQQBrowser/6.2 TBS/036557 Safari/537.36 MicroMessenger/6.3.25.861 NetType/WIFI Language/zh_CN'
p34
sg16
S'94b529bd3ec95f75f972a299b96b58c1'
p35
sa.