(lp0
(dp1
S'user_id'
p2
S'49739'
p3
sS'data_id'
p4
S'527'
p5
sS'ip'
p6
S'7ad6ba29c8e2117fc5d1ce0cf6043119'
p7
sS'phone_B'
p8
S'xxd2170f3112a298b79c7760acebed3376'
p9
sS'phone_C'
p10
S'xx9158be43a7940005404467d991c074b8'
p11
sS'phone_A'
p12
S'xx49f999d691e04ee6b11822e75567b138'
p13
sS'user_agent'
p14
S'Mozilla/5.0 (Linux; Android 5.1.1; vivo X6S A Build/LMY47V) AppleWebKit/537.36 (KHTML, like Gecko) Version/4.0 Chrome/37.0.0.0 Mobile MQQBrowser/6.8 TBS/036849 Safari/537.36 MicroMessenger/6.3.27.880 NetType/WIFI Language/zh_CN'
p15
sS'ua'
p16
S'e364ae5985a2d220b5957a33729cb1ee'
p17
sa(dp18
g2
S'31500'
p19
sg4
S'918'
p20
sg6
S'7e2000ebab7c43b0c7fc851d1e875257'
p21
sg8
S'xx3c6bded674fc8ebcabb94c115ef850cd'
p22
sg10
S'xxdaac1a2a72e947c418e3a77eab0fe51e'
p23
sg12
S'xx49f999d691e04ee6b11822e75567b138'
p24
sg14
S'Mozilla/5.0 (Linux; Android 5.1.1; vivo X6S A Build/LMY47V) AppleWebKit/537.36 (KHTML, like Gecko) Version/4.0 Chrome/37.0.0.0 Mobile MQQBrowser/6.8 TBS/036849 Safari/537.36 MicroMessenger/6.3.27.880 NetType/WIFI Language/zh_CN'
p25
sg16
S'e364ae5985a2d220b5957a33729cb1ee'
p26
sa.