(lp0
(dp1
S'user_id'
p2
S'23438'
p3
sS'data_id'
p4
S'328'
p5
sS'ip'
p6
S'9f413568f8a0bca8e8c2ce24f56bc1cb'
p7
sS'phone_B'
p8
S'xx2b89c20cd75a6448dcebe395841108ac'
p9
sS'phone_C'
p10
S'xx926a933e2e8467dd68707a1e86312229'
p11
sS'phone_A'
p12
S'xx4b560da510d8f256082dbb80ecdedf07'
p13
sS'user_agent'
p14
S'Mozilla/5.0 (Linux; Android 5.1; vivo X6D Build/LMY47I) AppleWebKit/537.36 (KHTML, like Gecko) Version/4.0 Chrome/37.0.0.0 Mobile MQQBrowser/6.8 TBS/036860 Safari/537.36 MicroMessenger/6.3.27.880 NetType/cmnet Language/zh_CN'
p15
sS'ua'
p16
S'a1bfc61f2655b208ef20b07ace32e85f'
p17
sa(dp18
g2
S'38386'
p19
sg4
S'1113'
p20
sg6
S'3a8f168d24ee7940ce6a0c2d49953446'
p21
sg8
S'xx4bf3973b92bd0f26c28d3e9f8a6171cb'
p22
sg10
S'xx4c6804416186a82a185eb02ff2c2e960'
p23
sg12
S'xx4b560da510d8f256082dbb80ecdedf07'
p24
sg14
S'Mozilla/5.0 (Linux; Android 5.1; vivo X6D Build/LMY47I) AppleWebKit/537.36 (KHTML, like Gecko) Version/4.0 Chrome/37.0.0.0 Mobile MQQBrowser/6.8 TBS/036849 Safari/537.36 MicroMessenger/6.3.27.880 NetType/WIFI Language/zh_CN'
p25
sg16
S'cffc4f1a9edec58060e5ffa14dd7c1bf'
p26
sa(dp27
g2
S'47617'
p28
sg4
S'1361'
p29
sg6
S'c79aaf8cd2dd549616d334c1307c2091'
p30
sg8
S'xx46abab2cd73bdefb94e82af39283c96e'
p31
sg10
S'xx2f1d01a4f429bd2e0b0962919852a5c0'
p32
sg12
S'xx4b560da510d8f256082dbb80ecdedf07'
p33
sg14
S'Mozilla/5.0 (Linux; Android 5.1; vivo X6D Build/LMY47I) AppleWebKit/537.36 (KHTML, like Gecko) Version/4.0 Chrome/37.0.0.0 Mobile MQQBrowser/6.8 TBS/036849 Safari/537.36 MicroMessenger/6.3.27.880 NetType/WIFI Language/zh_CN'
p34
sg16
S'cffc4f1a9edec58060e5ffa14dd7c1bf'
p35
sa(dp36
g2
S'43495'
p37
sg4
S'4023'
p38
sg6
S'da483ddb1df7c41182fb82462b464082'
p39
sg8
S'xx7b662f012a9bcbdcfcbf07e75f5c05d5'
p40
sg10
S'xxed0fc20f75f0b2ef8ff467062b527ae3'
p41
sg12
S'xx4b560da510d8f256082dbb80ecdedf07'
p42
sg14
S'Mozilla/5.0 (Linux; Android 5.1; vivo X6D Build/LMY47I) AppleWebKit/537.36 (KHTML, like Gecko) Version/4.0 Chrome/37.0.0.0 Mobile MQQBrowser/6.8 TBS/036824 Safari/537.36 MicroMessenger/6.3.27.880 NetType/3gnet Language/zh_CN'
p43
sg16
S'9c82f4caba395717047096ea4274444f'
p44
sa.