(lp0
(dp1
S'user_id'
p2
S'32957'
p3
sS'data_id'
p4
S'63'
p5
sS'ip'
p6
S'509368e6f61d2e7b8daf31e0cb12da6d'
p7
sS'phone_B'
p8
S'xxbfaf878acde63ff529ae6536e266b6ad'
p9
sS'phone_C'
p10
S'xx4b5e027968565e3d029c7ca543300625'
p11
sS'phone_A'
p12
S'xx5279d56c87e9aee40bc3f4b031c2315d'
p13
sS'user_agent'
p14
S'Mozilla/5.0 (Linux; Android 5.0.2; PLK-TL01H Build/HONORPLK-TL01H) AppleWebKit/537.36 (KHTML, like Gecko) Version/4.0 Chrome/37.0.0.0 Mobile MQQBrowser/6.8 TBS/036869 Safari/537.36 MicroMessenger/6.3.27.880 NetType/WIFI Language/zh_CN'
p15
sS'ua'
p16
S'3a01fa4161b694c611fc37d2ccc86ffa'
p17
sa(dp18
g2
S'10088'
p19
sg4
S'2148'
p20
sg6
S'b2fd0c0f5938fdc9d7ca80f4943fd215'
p21
sg8
S'xxf2c8acac30f6fc77bb3ef5b70bebf88b'
p22
sg10
S'xx56173981ee3abe7f88e74c71a7a2ce7f'
p23
sg12
S'xx5279d56c87e9aee40bc3f4b031c2315d'
p24
sg14
S'Mozilla/5.0 (Linux; Android 6.0; PLK-TL01H Build/HONORPLK-TL01H) AppleWebKit/537.36 (KHTML, like Gecko) Version/4.0 Chrome/37.0.0.0 Mobile MQQBrowser/6.8 TBS/036862 Safari/537.36 MicroMessenger/6.3.27.880 NetType/WIFI Language/zh_CN'
p25
sg16
S'ac037caec67a2134df06eddfb252402a'
p26
sa.