(lp0
(dp1
S'user_id'
p2
S'34144'
p3
sS'data_id'
p4
S'5164'
p5
sS'ip'
p6
S'783ec5c440b55f32ca4f1c46a5126757'
p7
sS'phone_B'
p8
S'xx821f3645d48d6cdccc574d2b5f0f0809'
p9
sS'phone_C'
p10
S'xxa2688a2f031d413266952588af165010'
p11
sS'phone_A'
p12
S'xx53a3ea1202546d69ea2e4e1d2abd59a1'
p13
sS'user_agent'
p14
S'Mozilla/5.0 (Linux; Android 5.1; F100 Build/LMY47D) AppleWebKit/537.36 (KHTML, like Gecko) Version/4.0 Chrome/37.0.0.0 Mobile MQQBrowser/6.8 TBS/036824 Safari/537.36 MicroMessenger/6.3.27.880 NetType/WIFI Language/zh_CN'
p15
sS'ua'
p16
S'aae86d6b179334b7468a0c469b2316fa'
p17
sa(dp18
g2
S'20656'
p19
sg4
S'5779'
p20
sg6
S'6b415139e3d8c4a4ed08169940815b46'
p21
sg8
S'xx75c1a6281907cfb84cd041bd8199bd33'
p22
sg10
S'xxb3f71883a95e667a432eae58874d6418'
p23
sg12
S'xx53a3ea1202546d69ea2e4e1d2abd59a1'
p24
sg14
S'Mozilla/5.0 (Linux; Android 5.1; F100 Build/LMY47D) AppleWebKit/537.36 (KHTML, like Gecko) Version/4.0 Chrome/37.0.0.0 Mobile MQQBrowser/6.8 TBS/036849 Safari/537.36 MicroMessenger/6.3.27.880 NetType/WIFI Language/zh_CN'
p25
sg16
S'04eed2cb7939835dd37303fe54cea13f'
p26
sa.