(lp0
(dp1
S'user_id'
p2
S'10672'
p3
sS'data_id'
p4
S'50'
p5
sS'ip'
p6
S'70650d592bfe20862c4f96a4a9fe77d6'
p7
sS'phone_B'
p8
S'xx7c7a4302fd998b8e0cb3021f56b8ad61'
p9
sS'phone_C'
p10
S'xx21ef2add7f5cbd50376b35ff47e55e00'
p11
sS'phone_A'
p12
S'xx54d65f2ed9cba4765e7435531e43ce4c'
p13
sS'user_agent'
p14
S'Mozilla/5.0 (Linux; Android 5.1.1; vivo Y51 Build/LMY47V) AppleWebKit/537.36 (KHTML, like Gecko) Version/4.0 Chrome/37.0.0.0 Mobile MQQBrowser/6.8 TBS/036849 Safari/537.36 MicroMessenger/6.3.25.861 NetType/WIFI Language/zh_CN'
p15
sS'ua'
p16
S'7a3dc9ad2725f8288ba3b0f9e1455161'
p17
sa(dp18
g2
S'46991'
p19
sg4
S'399'
p20
sg6
S'd66c95a4c1c7aa3ad1fe1162a8491ff3'
p21
sg8
S'xxbad50ca228801aab2eb9c0578a7b2f97'
p22
sg10
S'xx08291002af28f82cb5420307ad66e899'
p23
sg12
S'xx54d65f2ed9cba4765e7435531e43ce4c'
p24
sg14
S'Mozilla/5.0 (Linux; Android 5.1.1; vivo Y51 Build/LMY47V) AppleWebKit/537.36 (KHTML, like Gecko) Version/4.0 Chrome/37.0.0.0 Mobile MQQBrowser/6.8 TBS/036849 Safari/537.36 MicroMessenger/6.3.27.880 NetType/WIFI Language/zh_CN'
p25
sg16
S'77b657f38dffa1cc71bcfe1a15e55eb5'
p26
sa.