(lp0
(dp1
S'user_id'
p2
S'49762'
p3
sS'data_id'
p4
S'2426'
p5
sS'ip'
p6
S'7355930dc9ffeda1c797a05f22d679a1'
p7
sS'phone_B'
p8
S'xx97a763316ca73ddac30ec2eacc590122'
p9
sS'phone_C'
p10
S'xx12c8d148104736d95b9c60883f569522'
p11
sS'phone_A'
p12
S'xx56f4cecf34ce21896cf67f702409e60b'
p13
sS'user_agent'
p14
S'Mozilla/5.0 (Linux; Android 4.4.4; vivo X5S L Build/KTU84P) AppleWebKit/537.36 (KHTML, like Gecko) Version/4.0 Chrome/37.0.0.0 Mobile MQQBrowser/6.8 TBS/036844 Safari/537.36 MicroMessenger/6.3.27.880 NetType/WIFI Language/zh_CN'
p15
sS'ua'
p16
S'f104e0d133f8d70b57209b72d2f97ddf'
p17
sa(dp18
g2
S'35063'
p19
sg4
S'5553'
p20
sg6
S'1dc889c5d6202d34a546b88afcfd9686'
p21
sg8
S'xxb569a4dd57bf175c950a3ad99fab7cc5'
p22
sg10
S'xxdc7ecc030b2995d647abb07267596eee'
p23
sg12
S'xx56f4cecf34ce21896cf67f702409e60b'
p24
sg14
S'Mozilla/5.0 (Linux; Android 4.4.4; vivo X5S L Build/KTU84P) AppleWebKit/537.36 (KHTML, like Gecko) Version/4.0 Chrome/37.0.0.0 Mobile MQQBrowser/6.8 TBS/036824 Safari/537.36 MicroMessenger/6.3.27.880 NetType/WIFI Language/zh_CN'
p25
sg16
S'5edd04e20492c253c0f04f1959ef4da9'
p26
sa.