(lp0
(dp1
S'user_id'
p2
S'31995'
p3
sS'data_id'
p4
S'2119'
p5
sS'ip'
p6
S'73baca6214145f3aef5601aad16be804'
p7
sS'phone_B'
p8
S'xx2e4b5c2d18466d4f074ceb67355f59be'
p9
sS'phone_C'
p10
S'xx2050f76acae0dfb24d27a023e0748342'
p11
sS'phone_A'
p12
S'xx596f759b60965f681c524e236607ee17'
p13
sS'user_agent'
p14
S'Mozilla/5.0 (Linux; Android 6.0; 1503-A01 Build/MRA58K) AppleWebKit/537.36 (KHTML, like Gecko) Version/4.0 Chrome/37.0.0.0 Mobile MQQBrowser/6.8 TBS/036849 Safari/537.36 MicroMessenger/6.3.27.880 NetType/cmnet Language/zh_CN'
p15
sS'ua'
p16
S'24f75cb04ba794803d509e1835773301'
p17
sa(dp18
g2
S'33301'
p19
sg4
S'7280'
p20
sg6
S'8ff4f00eae305300fb7a833b5295822c'
p21
sg8
S'xxfe59b5f22502e524e6b0536f0c45a256'
p22
sg10
S'xx52f68d3da61da11acf329c8054c5aef3'
p23
sg12
S'xx596f759b60965f681c524e236607ee17'
p24
sg14
S'Mozilla/5.0 (Linux; Android 6.0; 1503-A01 Build/MRA58K) AppleWebKit/537.36 (KHTML, like Gecko) Version/4.0 Chrome/37.0.0.0 Mobile MQQBrowser/6.8 TBS/036849 Safari/537.36 MicroMessenger/6.3.27.880 NetType/3gnet Language/zh_CN'
p25
sg16
S'13412237dda565109b56bb059f960e77'
p26
sa.