(lp0
(dp1
S'user_id'
p2
S'25860'
p3
sS'data_id'
p4
S'171'
p5
sS'ip'
p6
S'fff0f9c3c91c0d54dddb8398eef86169'
p7
sS'phone_B'
p8
S'xx25445e9f5ed870b3d7d633b8e6651b01'
p9
sS'phone_C'
p10
S'xx2adf3e3470a5aea8372c77808537a599'
p11
sS'phone_A'
p12
S'xx6802b2044cf104938c79d172b67ef12b'
p13
sS'user_agent'
p14
S'Mozilla/5.0 (Linux; Android 6.0.1; MI 4LTE Build/MMB29M) AppleWebKit/537.36 (KHTML, like Gecko) Version/4.0 Chrome/37.0.0.0 Mobile MQQBrowser/6.8 TBS/036849 Safari/537.36 MicroMessenger/6.3.27.880 NetType/cmnet Language/zh_CN'
p15
sS'ua'
p16
S'09dd93f5b1142768f0a77c22d4ce180f'
p17
sa(dp18
g2
S'4467'
p19
sg4
S'4040'
p20
sg6
S'd0043c7fcf1c9edc8c6d978743676b56'
p21
sg8
S'xxb7b21a9016f2e502eb68cdea4eb681b8'
p22
sg10
S'xx3ce7ff13eb470676c2ea32effbfd4a77'
p23
sg12
S'xx6802b2044cf104938c79d172b67ef12b'
p24
sg14
S'Mozilla/5.0 (Linux; Android 6.0.1; MI 4LTE Build/MMB29M) AppleWebKit/537.36 (KHTML, like Gecko) Version/4.0 Chrome/37.0.0.0 Mobile MQQBrowser/6.8 TBS/036869 Safari/537.36 MicroMessenger/6.3.27.880 NetType/WIFI Language/zh_CN'
p25
sg16
S'34bda778fb95066b2421201bd1f4209e'
p26
sa.