(lp0
(dp1
S'user_id'
p2
S'42572'
p3
sS'data_id'
p4
S'780'
p5
sS'ip'
p6
S'de17a6a29674548500739afde18b53d1'
p7
sS'phone_B'
p8
S'xxd81b005079bf69419f06d8e1fa37d5e2'
p9
sS'phone_C'
p10
S'xxa08ef96bf76b77805513e806b52f05f2'
p11
sS'phone_A'
p12
S'xx6e0e378c1ed4c3bb3a994b5b0e743ff1'
p13
sS'user_agent'
p14
S'Mozilla/5.0 (Linux; Android 4.4.4; Hisense M20-T Build/KTU84P) AppleWebKit/537.36 (KHTML, like Gecko) Version/4.0 Chrome/37.0.0.0 Mobile MQQBrowser/6.8 TBS/036849 Safari/537.36 MicroMessenger/6.3.27.880 NetType/WIFI Language/zh_CN'
p15
sS'ua'
p16
S'bda3d95bcc79fd3fd5b07b27d24829c1'
p17
sa(dp18
g2
S'32412'
p19
sg4
S'7366'
p20
sg6
S'175b45cc5a9b735c4cdb9e07c003b981'
p21
sg8
S'xx637d7b22358efbdcef429a045df898cb'
p22
sg10
S'xxf0ce69602a68e5d82c03993c78018e89'
p23
sg12
S'xx6e0e378c1ed4c3bb3a994b5b0e743ff1'
p24
sg14
S'Mozilla/5.0 (Linux; Android 4.4.4; Hisense M20-T Build/KTU84P) AppleWebKit/537.36 (KHTML, like Gecko) Version/4.0 Chrome/37.0.0.0 Mobile MQQBrowser/6.8 TBS/036860 Safari/537.36 MicroMessenger/6.3.27.880 NetType/WIFI Language/zh_CN'
p25
sg16
S'4b625f5f7d85f576b1abf8b9d4141208'
p26
sa.