(lp0
(dp1
S'user_id'
p2
S'38048'
p3
sS'data_id'
p4
S'2077'
p5
sS'ip'
p6
S'219b2b48b3631f43e1b51043080e5914'
p7
sS'phone_B'
p8
S'xxa8ef4b3516856fa492345cc8e0d35505'
p9
sS'phone_C'
p10
S'xx6c0472f0f0aba6ab7cf6dcdd4645c73d'
p11
sS'phone_A'
p12
S'xx7014c7bd1e2a4f715dc154a6a02cc2ca'
p13
sS'user_agent'
p14
S'Mozilla/5.0 (Linux; Android 4.4.2; H60-L01 Build/HDH60-L01) AppleWebKit/537.36 (KHTML, like Gecko) Version/4.0 Chrome/37.0.0.0 Mobile MQQBrowser/6.8 TBS/036849 Safari/537.36 MicroMessenger/6.3.27.880 NetType/cmnet Language/zh_CN'
p15
sS'ua'
p16
S'07a8d52a34198db60144b6763bb6d55d'
p17
sa(dp18
g2
S'44244'
p19
sg4
S'2181'
p20
sg6
S'd66c95a4c1c7aa3ad1fe1162a8491ff3'
p21
sg8
S'xx310d1ab4a4f40e144a3c6eb5d306fec5'
p22
sg10
S'xx0c81605298799701020b68b51cdb644f'
p23
sg12
S'xx7014c7bd1e2a4f715dc154a6a02cc2ca'
p24
sg14
S'Mozilla/5.0 (Linux; Android 4.4.2; H60-L01 Build/HDH60-L01) AppleWebKit/537.36 (KHTML, like Gecko) Version/4.0 Chrome/37.0.0.0 Mobile MQQBrowser/6.8 TBS/036869 Safari/537.36 MicroMessenger/6.3.27.880 NetType/WIFI Language/zh_CN'
p25
sg16
S'a734d91dc9d1905dfc66a6ebf36fe939'
p26
sa.