(lp0
(dp1
S'user_id'
p2
S'5857'
p3
sS'data_id'
p4
S'146'
p5
sS'ip'
p6
S'd66c95a4c1c7aa3ad1fe1162a8491ff3'
p7
sS'phone_B'
p8
S'xx261ae21c73348075fa6bfe145803453e'
p9
sS'phone_C'
p10
S'xx7c11889d568b644595fc506dc352723e'
p11
sS'phone_A'
p12
S'xx70f16fb312003f3874f7aef96c54c83f'
p13
sS'user_agent'
p14
S'Mozilla/5.0 (Linux; Android 4.4.4; A31 Build/KTU84P) AppleWebKit/537.36 (KHTML, like Gecko) Version/4.0 Chrome/37.0.0.0 Mobile MQQBrowser/6.8 TBS/036849 Safari/537.36 MicroMessenger/6.3.27.880 NetType/WIFI Language/zh_CN'
p15
sS'ua'
p16
S'd7da8665b21ec6015c4745e4e18491e2'
p17
sa(dp18
g2
S'29498'
p19
sg4
S'8505'
p20
sg6
S'ff6a447819c973a2be563bbc0dc1b5db'
p21
sg8
S'xx16c8df88b7c64b7d920b6e0b9f3145d7'
p22
sg10
S'xx0fd8297ca224a3e8c8ff886c3e121685'
p23
sg12
S'xx70f16fb312003f3874f7aef96c54c83f'
p24
sg14
S'Mozilla/5.0 (Linux; Android 4.4.4; A31 Build/KTU84P) AppleWebKit/537.36 (KHTML, like Gecko) Version/4.0 Chrome/37.0.0.0 Mobile MQQBrowser/6.8 TBS/036849 Safari/537.36 MicroMessenger/6.3.27.880 NetType/WIFI Language/zh_CN'
p25
sg16
S'd7da8665b21ec6015c4745e4e18491e2'
p26
sa.