(lp0
(dp1
S'user_id'
p2
S'48431'
p3
sS'data_id'
p4
S'1410'
p5
sS'ip'
p6
S'21678c5c2cb28f9427d740d238454637'
p7
sS'phone_B'
p8
S'xxcaf0cbb2dc256b7ad1e20259a1264ca9'
p9
sS'phone_C'
p10
S'xx40feee7018cd510b89697d144cbc2e47'
p11
sS'phone_A'
p12
S'xx7ff4953c85d7212e987bb59f9140addc'
p13
sS'user_agent'
p14
S'Mozilla/5.0 (Linux; Android 5.1.1; vivo V3 Build/LMY47V) AppleWebKit/537.36 (KHTML, like Gecko) Version/4.0 Chrome/37.0.0.0 Mobile MQQBrowser/6.8 TBS/036849 Safari/537.36 MicroMessenger/6.3.27.880 NetType/WIFI Language/zh_CN'
p15
sS'ua'
p16
S'1c4c036063ced5b65e8b63d29afc114b'
p17
sa(dp18
g2
S'42348'
p19
sg4
S'6529'
p20
sg6
S'21678c5c2cb28f9427d740d238454637'
p21
sg8
S'xx3acb5a51bec789aed33b98c6ace21a51'
p22
sg10
S'xx46e4fb83f5880bd7bc20ade1f2b7de4d'
p23
sg12
S'xx7ff4953c85d7212e987bb59f9140addc'
p24
sg14
S'Mozilla/5.0 (Linux; Android 5.1.1; vivo V3 Build/LMY47V) AppleWebKit/537.36 (KHTML, like Gecko) Version/4.0 Chrome/37.0.0.0 Mobile MQQBrowser/6.8 TBS/036849 Safari/537.36 MicroMessenger/6.3.27.880 NetType/WIFI Language/zh_CN'
p25
sg16
S'1c4c036063ced5b65e8b63d29afc114b'
p26
sa.