(lp0
(dp1
S'user_id'
p2
S'7399'
p3
sS'data_id'
p4
S'3245'
p5
sS'ip'
p6
S'03058ff25b1b7f26625c3e6dad07f9c3'
p7
sS'phone_B'
p8
S'xx20ff69a5c7ae517059f97e520943c78f'
p9
sS'phone_C'
p10
S'xx74afc448a18f3259942dc10e23848c7d'
p11
sS'phone_A'
p12
S'xx86a872dc9be239d58afd7602c85750a9'
p13
sS'user_agent'
p14
S'Mozilla/5.0 (Linux; Android 5.0.2; Letv X501 Build/DAXCNCU5501304131S) AppleWebKit/537.36 (KHTML, like Gecko) Version/4.0 Chrome/37.0.0.0 Mobile MQQBrowser/6.8 TBS/036824 Safari/537.36 MicroMessenger/6.3.25.861 NetType/WIFI Language/zh_CN'
p15
sS'ua'
p16
S'5a3815be15475577e3ebf4f28379329b'
p17
sa(dp18
g2
S'46627'
p19
sg4
S'3429'
p20
sg6
S'03058ff25b1b7f26625c3e6dad07f9c3'
p21
sg8
S'xxc230961aa49b513ff69512d8f1487cda'
p22
sg10
S'xx34977a3fe3081bdff11c942eb316a46f'
p23
sg12
S'xx86a872dc9be239d58afd7602c85750a9'
p24
sg14
S'Mozilla/5.0 (Linux; Android 5.0.2; Letv X501 Build/DAXCNCU5501304131S) AppleWebKit/537.36 (KHTML, like Gecko) Version/4.0 Chrome/37.0.0.0 Mobile MQQBrowser/6.8 TBS/036824 Safari/537.36 MicroMessenger/6.3.25.861 NetType/WIFI Language/zh_CN'
p25
sg16
S'5a3815be15475577e3ebf4f28379329b'
p26
sa(dp27
g2
S'43541'
p28
sg4
S'7203'
p29
sg6
S'6857f71e4441648634da0f203af8440b'
p30
sg8
S'xx55b4d33e426b882930f68e5744c169bc'
p31
sg10
S'xx5fd3585ef8c913354fa75cd550f7132e'
p32
sg12
S'xx86a872dc9be239d58afd7602c85750a9'
p33
sg14
S'Mozilla/5.0 (Linux; Android 5.0.2; Letv X501 Build/DAXCNCU5501304131S) AppleWebKit/537.36 (KHTML, like Gecko) Version/4.0 Chrome/37.0.0.0 Mobile MQQBrowser/6.8 TBS/036849 Safari/537.36 MicroMessenger/6.3.27.880 NetType/WIFI Language/zh_CN'
p34
sg16
S'382d81ac50aaa13240a0f6034b1fda24'
p35
sa.