(lp0
(dp1
S'user_id'
p2
S'19939'
p3
sS'data_id'
p4
S'347'
p5
sS'ip'
p6
S'd66c95a4c1c7aa3ad1fe1162a8491ff3'
p7
sS'phone_B'
p8
S'xxbb369c4ddd8719fb9ac0abc0f256f0b2'
p9
sS'phone_C'
p10
S'xx03be2750ef1431c9ff6bd97440bdc3f9'
p11
sS'phone_A'
p12
S'xx89cbc501879bb45be58d481207e8119d'
p13
sS'user_agent'
p14
S'Mozilla/5.0 (Linux; Android 4.4.4; vivo Y13iL Build/KTU84P) AppleWebKit/537.36 (KHTML, like Gecko) Version/4.0 Chrome/37.0.0.0 Mobile MQQBrowser/6.8 TBS/036849 Safari/537.36 MicroMessenger/6.3.27.880 NetType/WIFI Language/zh_CN'
p15
sS'ua'
p16
S'ab134044f2629c8286207d30d0c70ade'
p17
sa(dp18
g2
S'28587'
p19
sg4
S'6972'
p20
sg6
S'8cf4467423fca9f0e4d1ff915a5e7466'
p21
sg8
S'xxb54ab33787a05cddc36f581e2562b440'
p22
sg10
S'xxd779d117bc8fc13ca362992653410547'
p23
sg12
S'xx89cbc501879bb45be58d481207e8119d'
p24
sg14
S'Mozilla/5.0 (Linux; Android 4.4.4; vivo Y13iL Build/KTU84P) AppleWebKit/537.36 (KHTML, like Gecko) Version/4.0 Chrome/37.0.0.0 Mobile MQQBrowser/6.8 TBS/036849 Safari/537.36 MicroMessenger/6.3.27.880 NetType/WIFI Language/zh_CN'
p25
sg16
S'ab134044f2629c8286207d30d0c70ade'
p26
sa(dp27
g2
S'49836'
p28
sg4
S'7503'
p29
sg6
S'a2cc057e70d667a9b68a39d6cb3938e2'
p30
sg8
S'xxf8f511adfed3688b9d04f605d9ad872c'
p31
sg10
S'xx1ddb63a7c2fa0bf686d9d11447694627'
p32
sg12
S'xx89cbc501879bb45be58d481207e8119d'
p33
sg14
S'Mozilla/5.0 (Linux; Android 4.4.4; vivo Y13iL Build/KTU84P) AppleWebKit/537.36 (KHTML, like Gecko) Version/4.0 Chrome/37.0.0.0 Mobile MQQBrowser/6.8 TBS/036849 Safari/537.36 MicroMessenger/6.3.27.880 NetType/WIFI Language/zh_CN'
p34
sg16
S'ab134044f2629c8286207d30d0c70ade'
p35
sa.