(lp0
(dp1
S'user_id'
p2
S'47465'
p3
sS'data_id'
p4
S'122'
p5
sS'ip'
p6
S'c79aaf8cd2dd549616d334c1307c2091'
p7
sS'phone_B'
p8
S'xxaed5167fea152a28da3f48abf7205fc5'
p9
sS'phone_C'
p10
S'xx75eb04d49442c6583b07d86e7db074ab'
p11
sS'phone_A'
p12
S'xx8b4e04a1663ced8bb6940fcba647029e'
p13
sS'user_agent'
p14
S'Mozilla/5.0 (Linux; Android 5.1.1; vivo V3Max A Build/LMY47V) AppleWebKit/537.36 (KHTML, like Gecko) Version/4.0 Chrome/37.0.0.0 Mobile MQQBrowser/6.8 TBS/036869 Safari/537.36 MicroMessenger/6.3.27.880 NetType/WIFI Language/zh_CN'
p15
sS'ua'
p16
S'586c66c309997aa98f0c463bc7a487ff'
p17
sa(dp18
g2
S'49838'
p19
sg4
S'7610'
p20
sg6
S'cdf02256edfac43f2cb62279c64d3465'
p21
sg8
S'xxe456fbb509f0505cb8295440f4b6e341'
p22
sg10
S'xx3d80f66db1f321a9fad7042b895304ef'
p23
sg12
S'xx8b4e04a1663ced8bb6940fcba647029e'
p24
sg14
S'Mozilla/5.0 (Linux; Android 5.1.1; vivo V3Max A Build/LMY47V) AppleWebKit/537.36 (KHTML, like Gecko) Version/4.0 Chrome/37.0.0.0 Mobile MQQBrowser/6.8 TBS/036849 Safari/537.36 MicroMessenger/6.3.27.880 NetType/cmnet Language/zh_CN'
p25
sg16
S'78e3fd4b68a9f540b7d27857083b0d9b'
p26
sa.