(lp0
(dp1
S'user_id'
p2
S'16476'
p3
sS'data_id'
p4
S'1707'
p5
sS'ip'
p6
S'dff0a49386c171e6213607eedee6655f'
p7
sS'phone_B'
p8
S'xx57ac64a5c6625b5f109d2b79575d6989'
p9
sS'phone_C'
p10
S'xxf184c8f88197d10b8d3344ac0323a7ee'
p11
sS'phone_A'
p12
S'xx90b9d2fe67808aa5534f965d005cde41'
p13
sS'user_agent'
p14
S'Mozilla/5.0 (Linux; Android 4.4.4; HM NOTE 1LTE Build/KTU84P) AppleWebKit/537.36 (KHTML, like Gecko) Version/4.0 Chrome/37.0.0.0 Mobile MQQBrowser/6.8 TBS/036824 Safari/537.36 MicroMessenger/6.3.27.880 NetType/3gnet Language/zh_CN'
p15
sS'ua'
p16
S'f957f69ef0c2702b7a36803fc354473c'
p17
sa(dp18
g2
S'36232'
p19
sg4
S'2143'
p20
sg6
S'9066a8e191c07b8cfe9738e4a4ef5755'
p21
sg8
S'xx7e82c19dcb2f22986320b8397f85eb93'
p22
sg10
S'xxb3170eab56695e2338dc62c847e83266'
p23
sg12
S'xx90b9d2fe67808aa5534f965d005cde41'
p24
sg14
S'Mozilla/5.0 (Linux; Android 4.4.4; HM NOTE 1LTE Build/KTU84P) AppleWebKit/537.36 (KHTML, like Gecko) Version/4.0 Chrome/37.0.0.0 Mobile MQQBrowser/6.8 TBS/036849 Safari/537.36 MicroMessenger/6.3.25.861 NetType/cmnet Language/zh_CN'
p25
sg16
S'3e72e703230a3645158f92454fe6a5af'
p26
sa(dp27
g2
S'39659'
p28
sg4
S'3715'
p29
sg6
S'3bb4caaf0603dfe1f7c390525c4eedc6'
p30
sg8
S'xxac103218fdc4d9e3a0713d12c30c4a06'
p31
sg10
S'xxc7c43528ca827712e366797f14e4ce28'
p32
sg12
S'xx90b9d2fe67808aa5534f965d005cde41'
p33
sg14
S'Mozilla/5.0 (Linux; Android 4.4.4; HM NOTE 1LTE Build/KTU84P) AppleWebKit/537.36 (KHTML, like Gecko) Version/4.0 Chrome/37.0.0.0 Mobile MQQBrowser/6.8 TBS/036849 Safari/537.36 MicroMessenger/6.3.25.861 NetType/WIFI Language/zh_CN'
p34
sg16
S'f7f9b2afe8fcb0ad5dfa0543ebf387ff'
p35
sa.