(lp0
(dp1
S'user_id'
p2
S'37947'
p3
sS'data_id'
p4
S'564'
p5
sS'ip'
p6
S'd093be3332e3d940e1a1d7fd6b6344e9'
p7
sS'phone_B'
p8
S'xx2721ff23d2cef794749c76e0bee120f1'
p9
sS'phone_C'
p10
S'xxf0692215d284ed85ce578735b6933e3a'
p11
sS'phone_A'
p12
S'xx9a937216a26cd6869e41cdf7858a8f43'
p13
sS'user_agent'
p14
S'Mozilla/5.0 (Linux; Android 5.0.2; vivo Y31 Build/LRX22G) AppleWebKit/537.36 (KHTML, like Gecko) Version/4.0 Chrome/37.0.0.0 Mobile MQQBrowser/6.8 TBS/036869 Safari/537.36 MicroMessenger/6.3.27.880 NetType/cmnet Language/zh_CN'
p15
sS'ua'
p16
S'e8b722bafab80659d0a7e2fe961eca69'
p17
sa(dp18
g2
S'20800'
p19
sg4
S'1347'
p20
sg6
S'22d28e31b2562d5e9a44cb2d2218b6b6'
p21
sg8
S'xxa4f116b5bfe81830ff0c16dce22deb87'
p22
sg10
S'xx500d85066176ca0cec843e2c50d7fe54'
p23
sg12
S'xx9a937216a26cd6869e41cdf7858a8f43'
p24
sg14
S'Mozilla/5.0 (Linux; Android 5.0.2; vivo Y31 Build/LRX22G) AppleWebKit/537.36 (KHTML, like Gecko) Version/4.0 Chrome/37.0.0.0 Mobile MQQBrowser/6.8 TBS/036869 Safari/537.36 MicroMessenger/6.3.27.880 NetType/WIFI Language/zh_CN'
p25
sg16
S'023501355d0febb3ce002b4888d88c71'
p26
sa.