(lp0
(dp1
S'user_id'
p2
S'29102'
p3
sS'data_id'
p4
S'139'
p5
sS'ip'
p6
S'b253f55e3b55d7835e02fe1ae6520dde'
p7
sS'phone_B'
p8
S'xxa62e5b194283a94899abf195651a1659'
p9
sS'phone_C'
p10
S'xx72763e39f3b27868a30bf164b8ce8da4'
p11
sS'phone_A'
p12
S'xxa38b18199ed008b7a72b334a6e0f8566'
p13
sS'user_agent'
p14
S'Mozilla/5.0 (Linux; Android 6.0.1; KIW-TL00 Build/HONORKIW-TL00) AppleWebKit/537.36 (KHTML, like Gecko) Version/4.0 Chrome/37.0.0.0 Mobile MQQBrowser/6.8 TBS/036849 Safari/537.36 MicroMessenger/6.3.27.880 NetType/WIFI Language/zh_CN'
p15
sS'ua'
p16
S'f6ebc150f5b8c821c5b8f7dea2fd1316'
p17
sa(dp18
g2
S'43466'
p19
sg4
S'3677'
p20
sg6
S'fca8f5236f19ebce72d5785aa76f8758'
p21
sg8
S'xx9a6ec1b278a8bd9e953a9de19029354c'
p22
sg10
S'xxf4cb082a68851e39083e9eba01fb0da9'
p23
sg12
S'xxa38b18199ed008b7a72b334a6e0f8566'
p24
sg14
S'Mozilla/5.0 (Linux; Android 6.0.1; KIW-TL00 Build/HONORKIW-TL00) AppleWebKit/537.36 (KHTML, like Gecko) Version/4.0 Chrome/37.0.0.0 Mobile MQQBrowser/6.8 TBS/036849 Safari/537.36 MicroMessenger/6.3.27.880 NetType/WIFI Language/zh_CN'
p25
sg16
S'f6ebc150f5b8c821c5b8f7dea2fd1316'
p26
sa.