(lp0
(dp1
S'user_id'
p2
S'49768'
p3
sS'data_id'
p4
S'2912'
p5
sS'ip'
p6
S'ddcaa6b23e1feafe6cad41f0f4bed22c'
p7
sS'phone_B'
p8
S'xx29502472ccefa545c270a5f5efa28c7b'
p9
sS'phone_C'
p10
S'xx15f02ec2b91d9276089fef5e73cf6b28'
p11
sS'phone_A'
p12
S'xxa42c1fa3b7370c0d797b1798c1701d07'
p13
sS'user_agent'
p14
S'Mozilla/5.0 (Linux; Android 5.0; R7Plus Build/LRX21M) AppleWebKit/537.36 (KHTML, like Gecko) Version/4.0 Chrome/37.0.0.0 Mobile MQQBrowser/6.8 TBS/036849 Safari/537.36 MicroMessenger/6.3.27.880 NetType/cmnet Language/zh_CN'
p15
sS'ua'
p16
S'f7b2864c1adf9e76310677e1db6050db'
p17
sa(dp18
g2
S'46452'
p19
sg4
S'4444'
p20
sg6
S'a18c26d9021a13a196df021c19b76578'
p21
sg8
S'xxee86d769c94ca44a8788020629152fdc'
p22
sg10
S'xxda3e5446895fd49bf4a97200bf96a0f0'
p23
sg12
S'xxa42c1fa3b7370c0d797b1798c1701d07'
p24
sg14
S'Mozilla/5.0 (Linux; Android 5.0; R7Plus Build/LRX21M) AppleWebKit/537.36 (KHTML, like Gecko) Version/4.0 Chrome/37.0.0.0 Mobile MQQBrowser/6.8 TBS/036849 Safari/537.36 MicroMessenger/6.3.27.880 NetType/cmnet Language/zh_CN'
p25
sg16
S'f7b2864c1adf9e76310677e1db6050db'
p26
sa(dp27
g2
S'36799'
p28
sg4
S'7617'
p29
sg6
S'6d30fd308b481f5c4ad3ceb345fcac51'
p30
sg8
S'xx6a73eaa3fab7c8d17abeedee5bc99004'
p31
sg10
S'xx79d51aefeeae382e7df89aad96374a38'
p32
sg12
S'xxa42c1fa3b7370c0d797b1798c1701d07'
p33
sg14
S'Mozilla/5.0 (Linux; Android 5.0; R7Plus Build/LRX21M) AppleWebKit/537.36 (KHTML, like Gecko) Version/4.0 Chrome/37.0.0.0 Mobile MQQBrowser/6.8 TBS/036849 Safari/537.36 MicroMessenger/6.3.27.880 NetType/cmnet Language/zh_CN'
p34
sg16
S'f7b2864c1adf9e76310677e1db6050db'
p35
sa.