(lp0
(dp1
S'user_id'
p2
S'45806'
p3
sS'data_id'
p4
S'3145'
p5
sS'ip'
p6
S'8c8e70ad6fe9f9ee05980e758647ba38'
p7
sS'phone_B'
p8
S'xx056577534a7423280cdb63876d513dc3'
p9
sS'phone_C'
p10
S'xx95f4632b9f13694a03787626648e9998'
p11
sS'phone_A'
p12
S'xxadd2b655c647ace2ba93a30a87b9a13c'
p13
sS'user_agent'
p14
S'Mozilla/5.0 (Linux; Android 5.1.1; KIW-TL00H Build/HONORKIW-TL00H) AppleWebKit/537.36 (KHTML, like Gecko) Version/4.0 Chrome/37.0.0.0 Mobile MQQBrowser/6.8 TBS/036849 Safari/537.36 MicroMessenger/6.3.27.880 NetType/cmnet Language/zh_CN'
p15
sS'ua'
p16
S'd856e55d8e87527be3b5ae7c8c278f51'
p17
sa(dp18
g2
S'24021'
p19
sg4
S'3375'
p20
sg6
S'a186d3e35461a64da1494433ef5b2c1c'
p21
sg8
S'xx9c8c22729750cca38378cae53fd98aa4'
p22
sg10
S'xx01360b0d21a7251257ca464552de09e1'
p23
sg12
S'xxadd2b655c647ace2ba93a30a87b9a13c'
p24
sg14
S'Mozilla/5.0 (Linux; Android 6.0.1; KIW-TL00H Build/HONORKIW-TL00H) AppleWebKit/537.36 (KHTML, like Gecko) Version/4.0 Chrome/37.0.0.0 Mobile MQQBrowser/6.8 TBS/036849 Safari/537.36 MicroMessenger/6.3.27.880 NetType/cmnet Language/zh_CN'
p25
sg16
S'e3e116062cffb8dcab581b64a6db9809'
p26
sa(dp27
g2
S'38327'
p28
sg4
S'3857'
p29
sg6
S'10a6506fa1cacff77aa2a8dc428c6c24'
p30
sg8
S'xxda92734413b8c176f4f4743c622916d3'
p31
sg10
S'xxf5e91a1c43c75a70c163f72442acc408'
p32
sg12
S'xxadd2b655c647ace2ba93a30a87b9a13c'
p33
sg14
S'Mozilla/5.0 (Linux; Android 5.1.1; KIW-TL00H Build/HONORKIW-TL00H) AppleWebKit/537.36 (KHTML, like Gecko) Version/4.0 Chrome/37.0.0.0 Mobile MQQBrowser/6.8 TBS/036849 Safari/537.36 MicroMessenger/6.3.27.880 NetType/WIFI Language/zh_CN'
p34
sg16
S'31582b355dc59e1f4aaa9ab10d5c90fa'
p35
sa.