(lp0
(dp1
S'user_id'
p2
S'33207'
p3
sS'data_id'
p4
S'191'
p5
sS'ip'
p6
S'71a5cb77f047009749ba3db533fa0732'
p7
sS'phone_B'
p8
S'xx9072fc1167b716fbb7d93e21726faeab'
p9
sS'phone_C'
p10
S'xxd2d1322c94225bf72057c5e674c3ab14'
p11
sS'phone_A'
p12
S'xxaf63fe8296b1da6e5ea7580dda2522b3'
p13
sS'user_agent'
p14
S'Mozilla/5.0 (Linux; Android 5.0.2; F103 Build/LRX21M) AppleWebKit/537.36 (KHTML, like Gecko) Version/4.0 Chrome/37.0.0.0 Mobile MQQBrowser/6.8 TBS/036849 Safari/537.36 MicroMessenger/6.3.27.880 NetType/WIFI Language/zh_CN'
p15
sS'ua'
p16
S'3ea0af991a0efede943042bbdc8a765e'
p17
sa(dp18
g2
S'48488'
p19
sg4
S'2988'
p20
sg6
S'ffa598e601fb6d42317babdd99e9dbcd'
p21
sg8
S'xxd13b4b452c67135139360dc45a496e86'
p22
sg10
S'xx57b8748256ca48c6952a08f822e74030'
p23
sg12
S'xxaf63fe8296b1da6e5ea7580dda2522b3'
p24
sg14
S'Mozilla/5.0 (Linux; Android 5.0; F103 Build/LRX21M) AppleWebKit/537.36 (KHTML, like Gecko) Version/4.0 Chrome/37.0.0.0 Mobile MQQBrowser/6.8 TBS/036814 Safari/537.36 MicroMessenger/6.3.27.880 NetType/WIFI Language/zh_CN'
p25
sg16
S'c8c3aa5a4d003c505b52e92b084914bb'
p26
sa.