(lp0
(dp1
S'user_id'
p2
S'35075'
p3
sS'data_id'
p4
S'5010'
p5
sS'ip'
p6
S'6d9be4f3deb5c49bc8d2d61f4a867a09'
p7
sS'phone_B'
p8
S'xx6561a805d878d2d2645fe9094c11c776'
p9
sS'phone_C'
p10
S'xx2fc281c040f7e66306f1dff2a9d65551'
p11
sS'phone_A'
p12
S'xxb0cc16f2a9904a14a8e187874e6b6a74'
p13
sS'user_agent'
p14
S'Mozilla/5.0 (Linux; Android 4.4.4; L833-1 Build/KOT49H) AppleWebKit/537.36 (KHTML, like Gecko) Version/4.0 Chrome/37.0.0.0 Mobile MQQBrowser/6.8 TBS/036849 Safari/537.36 MicroMessenger/6.3.27.880 NetType/WIFI Language/zh_CN'
p15
sS'ua'
p16
S'5ebe74be2a039fc6817c0f710bd0b295'
p17
sa(dp18
g2
S'33935'
p19
sg4
S'6236'
p20
sg6
S'6d9be4f3deb5c49bc8d2d61f4a867a09'
p21
sg8
S'xxf5b7bf38c8ee484b083308618c5845ac'
p22
sg10
S'xxaef30ea57653772b80655091bfa8537f'
p23
sg12
S'xxb0cc16f2a9904a14a8e187874e6b6a74'
p24
sg14
S'Mozilla/5.0 (Linux; Android 4.4.4; L833-1 Build/KOT49H) AppleWebKit/537.36 (KHTML, like Gecko) Version/4.0 Chrome/30.0.0.0 Mobile Safari/537.36 MicroMessenger/6.3.27.880 NetType/WIFI Language/zh_CN'
p25
sg16
S'2ce6089f5dd1ecf68227d4dc6cb3a61a'
p26
sa.