(lp0
(dp1
S'user_id'
p2
S'47574'
p3
sS'data_id'
p4
S'330'
p5
sS'ip'
p6
S'a9e8e53824340659367f1904559c70b5'
p7
sS'phone_B'
p8
S'xx31ac48bd69a7d163cbb813fa8d966e3e'
p9
sS'phone_C'
p10
S'xx187835aa663823c02a0fd4a58258fed8'
p11
sS'phone_A'
p12
S'xxb59626609c745f16674e091043dd1add'
p13
sS'user_agent'
p14
S'Mozilla/5.0 (Linux; Android 5.1; m3 Build/LMY47I) AppleWebKit/537.36 (KHTML, like Gecko) Version/4.0 Chrome/37.0.0.0 Mobile MQQBrowser/6.8 TBS/036849 Safari/537.36 MicroMessenger/6.3.25.861 NetType/WIFI Language/zh_CN'
p15
sS'ua'
p16
S'3040de4d9a1520625f26f6a6e7f93216'
p17
sa(dp18
g2
S'32722'
p19
sg4
S'837'
p20
sg6
S'52a0bab373c81620f2a13e511f182807'
p21
sg8
S'xx0e1a5e64b9589db780ef144af631889e'
p22
sg10
S'xxfaa9b187d15f260fce56440494337126'
p23
sg12
S'xxb59626609c745f16674e091043dd1add'
p24
sg14
S'Mozilla/5.0 (Linux; Android 5.1; m3 Build/LMY47I) AppleWebKit/537.36 (KHTML, like Gecko) Version/4.0 Chrome/37.0.0.0 Mobile MQQBrowser/6.8 TBS/036865 Safari/537.36 MicroMessenger/6.3.27.880 NetType/cmnet Language/zh_CN'
p25
sg16
S'ebf53a4bef1ca2ced4db625e2f5b6d4e'
p26
sa.