(lp0
(dp1
S'user_id'
p2
S'19307'
p3
sS'data_id'
p4
S'150'
p5
sS'ip'
p6
S'79b2b9904f23a9b5f103957129608106'
p7
sS'phone_B'
p8
S'xxdfe6b713e3b4558930a1bd6aa0f5f570'
p9
sS'phone_C'
p10
S'xx735186072d5994cda8147412d31f90b3'
p11
sS'phone_A'
p12
S'xxc5bb625321e9fac5a8a19a6014971183'
p13
sS'user_agent'
p14
S'Mozilla/5.0 (Linux; Android 4.4.4; MI 3W Build/KTU84P) AppleWebKit/537.36 (KHTML, like Gecko) Version/4.0 Chrome/37.0.0.0 Mobile MQQBrowser/6.8 TBS/036849 Safari/537.36 MicroMessenger/6.3.27.880 NetType/WIFI Language/zh_CN'
p15
sS'ua'
p16
S'96e8b32735533b6b2c0af51c42ca9b27'
p17
sa(dp18
g2
S'10687'
p19
sg4
S'771'
p20
sg6
S'bb253c38f47e65ae996b4ea409b55318'
p21
sg8
S'xx66277935bebb11fc87ee179483884bfc'
p22
sg10
S'xxd9087b7cfb123a34278000eb05b0e18f'
p23
sg12
S'xxc5bb625321e9fac5a8a19a6014971183'
p24
sg14
S'Mozilla/5.0 (Linux; Android 4.4.4; MI 3W Build/KTU84P) AppleWebKit/537.36 (KHTML, like Gecko) Version/4.0 Chrome/37.0.0.0 Mobile MQQBrowser/6.8 TBS/036849 Safari/537.36 MicroMessenger/6.3.27.880 NetType/WIFI Language/zh_CN'
p25
sg16
S'96e8b32735533b6b2c0af51c42ca9b27'
p26
sa.