(lp0
(dp1
S'user_id'
p2
S'8651'
p3
sS'data_id'
p4
S'1377'
p5
sS'ip'
p6
S'032c203bce8c4679f158b3e98ea55f79'
p7
sS'phone_B'
p8
S'xxf33309ab2e6aab0934900f654726777b'
p9
sS'phone_C'
p10
S'xxc1cd734209e018836686af9790a79ffe'
p11
sS'phone_A'
p12
S'xxc8b20d403e3697b80acbae6eba7cd198'
p13
sS'user_agent'
p14
S'Mozilla/5.0 (Linux; Android 5.1; MX5 Build/LMY47I) AppleWebKit/537.36 (KHTML, like Gecko) Version/4.0 Chrome/37.0.0.0 Mobile MQQBrowser/6.8 TBS/036849 Safari/537.36 MicroMessenger/6.3.27.880 NetType/WIFI Language/zh_CN'
p15
sS'ua'
p16
S'0d63fb649fb38b87ec3ff9c3edd37d37'
p17
sa(dp18
g2
S'47437'
p19
sg4
S'4476'
p20
sg6
S'abad02f2fe898d8c3c955487be4d167e'
p21
sg8
S'xxa6dfc66dc1c315da9062bec3454b195e'
p22
sg10
S'xxc7b2fece2e10c769b8b065ad8e0d18a7'
p23
sg12
S'xxc8b20d403e3697b80acbae6eba7cd198'
p24
sg14
S'Mozilla/5.0 (Linux; Android 5.1; MX5 Build/LMY47I) AppleWebKit/537.36 (KHTML, like Gecko) Version/4.0 Chrome/37.0.0.0 Mobile MQQBrowser/6.8 TBS/036849 Safari/537.36 MicroMessenger/6.3.27.880 NetType/cmnet Language/zh_CN'
p25
sg16
S'b1f3f749187c03d72433fec40f4083e2'
p26
sa.