(lp0
(dp1
S'user_id'
p2
S'21712'
p3
sS'data_id'
p4
S'2839'
p5
sS'ip'
p6
S'cb1f876f264de3e6820a60f9f976cfd5'
p7
sS'phone_B'
p8
S'xx1435c3af4b26f1c714592ce3429ee992'
p9
sS'phone_C'
p10
S'xx01360b0d21a7251257ca464552de09e1'
p11
sS'phone_A'
p12
S'xxcb1b9c75adfea3a37420b3849dedb192'
p13
sS'user_agent'
p14
S'Mozilla/5.0 (Linux; Android 6.0.1; KIW-AL10 Build/HONORKIW-AL10) AppleWebKit/537.36 (KHTML, like Gecko) Version/4.0 Chrome/37.0.0.0 Mobile MQQBrowser/6.8 TBS/036849 Safari/537.36 MicroMessenger/6.3.27.880 NetType/WIFI Language/zh_CN'
p15
sS'ua'
p16
S'fb77222674e7289dd1ed90df9f88e78b'
p17
sa(dp18
g2
S'49769'
p19
sg4
S'4378'
p20
sg6
S'6b8292cd01348b012a4f15655f0a7058'
p21
sg8
S'xx366832a7a574614105733dc6288b5b9e'
p22
sg10
S'xxf5e91a1c43c75a70c163f72442acc408'
p23
sg12
S'xxcb1b9c75adfea3a37420b3849dedb192'
p24
sg14
S'Mozilla/5.0 (Linux; Android 5.1.1; KIW-AL10 Build/HONORKIW-AL10) AppleWebKit/537.36 (KHTML, like Gecko) Version/4.0 Chrome/37.0.0.0 Mobile MQQBrowser/6.8 TBS/036849 Safari/537.36 MicroMessenger/6.3.27.880 NetType/ctlte Language/zh_CN'
p25
sg16
S'4b1a1c023470848ffc10ddddd3bd9781'
p26
sa(dp27
g2
S'45634'
p28
sg4
S'4689'
p29
sg6
S'b70d85bf78bf55a8ab113483e63cce38'
p30
sg8
S'xxb12ceaf215ad1ac1bfcf826a2f56621d'
p31
sg10
S'xx72763e39f3b27868a30bf164b8ce8da4'
p32
sg12
S'xxcb1b9c75adfea3a37420b3849dedb192'
p33
sg14
S'Mozilla/5.0 (Linux; Android 6.0.1; KIW-AL10 Build/HONORKIW-AL10) AppleWebKit/537.36 (KHTML, like Gecko) Version/4.0 Chrome/37.0.0.0 Mobile MQQBrowser/6.8 TBS/036849 Safari/537.36 MicroMessenger/6.3.27.880 NetType/ctnet Language/zh_CN'
p34
sg16
S'd1ad5fec60321976f970575359049ef3'
p35
sa.