(lp0
(dp1
S'user_id'
p2
S'49858'
p3
sS'data_id'
p4
S'8683'
p5
sS'ip'
p6
S'f68b84c369cd31b3c5ccd9b154fbe8e4'
p7
sS'phone_B'
p8
S'xxed3716e52929096a82d2667b679d18ae'
p9
sS'phone_C'
p10
S'xx68696933f1202cd81407bce3cb4ab9f9'
p11
sS'phone_A'
p12
S'xxcddac200cc03034927d1c89a5219b4fa'
p13
sS'user_agent'
p14
S'Mozilla/5.0 (Linux; Android 5.0.2; MI 2 Build/LRX22G) AppleWebKit/537.36 (KHTML, like Gecko) Version/4.0 Chrome/37.0.0.0 Mobile Safari/537.36 MicroMessenger/6.3.27.880 NetType/WIFI Language/zh_CN'
p15
sS'ua'
p16
S'fa3da1d2e377b22c47f331540d4c8e02'
p17
sa(dp18
g2
S'49858'
p19
sg4
S'8731'
p20
sg6
S'f68b84c369cd31b3c5ccd9b154fbe8e4'
p21
sg8
S'xxa3c4c1b9227174dc7cbaf585dfe3d4d9'
p22
sg10
S'xxb34150ab73057c974bdb437d15b9dcde'
p23
sg12
S'xxcddac200cc03034927d1c89a5219b4fa'
p24
sg14
S'Mozilla/5.0 (Linux; Android 5.0.2; MI 2 Build/LRX22G) AppleWebKit/537.36 (KHTML, like Gecko) Version/4.0 Chrome/37.0.0.0 Mobile MQQBrowser/6.8 TBS/036849 Safari/537.36 MicroMessenger/6.3.27.880 NetType/WIFI Language/zh_CN'
p25
sg16
S'fc56fad660adbf283b72dabecc953dba'
p26
sa.