(lp0
(dp1
S'user_id'
p2
S'29553'
p3
sS'data_id'
p4
S'2494'
p5
sS'ip'
p6
S'50eaccbab87ef98eaf79ea688bc155f6'
p7
sS'phone_B'
p8
S'xx9e17e7fcc96e0b6fc5ab439b1b26c486'
p9
sS'phone_C'
p10
S'xx0cd7a6f2e85b8e05fb014b9b634a62b4'
p11
sS'phone_A'
p12
S'xxd1019e570281618efe53bbd3784e7892'
p13
sS'user_agent'
p14
S'Mozilla/5.0 (Linux; Android 5.1; WP Build/LMY47D) AppleWebKit/537.36 (KHTML, like Gecko) Version/4.0 Chrome/37.0.0.0 Mobile MQQBrowser/6.8 TBS/036849 Safari/537.36 MicroMessenger/6.3.25.861 NetType/WIFI Language/zh_CN'
p15
sS'ua'
p16
S'c21114ff5fe76ce8fb68d6c252f3814b'
p17
sa(dp18
g2
S'42973'
p19
sg4
S'7168'
p20
sg6
S'de17a6a29674548500739afde18b53d1'
p21
sg8
S'xx9e7a78c624261ce6a33de864f5e35307'
p22
sg10
S'xx726440e2dc862b56411461e61ffeb064'
p23
sg12
S'xxd1019e570281618efe53bbd3784e7892'
p24
sg14
S'Mozilla/5.0 (Linux; Android 5.1; WP Build/LMY47D) AppleWebKit/537.36 (KHTML, like Gecko) Version/4.0 Chrome/39.0.0.0 Mobile Safari/537.36 MicroMessenger/6.3.27.880 NetType/WIFI Language/zh_CN'
p25
sg16
S'bf0b38feb800258bdc287350f9d252c1'
p26
sa.