(lp0
(dp1
S'user_id'
p2
S'28982'
p3
sS'data_id'
p4
S'250'
p5
sS'ip'
p6
S'03058ff25b1b7f26625c3e6dad07f9c3'
p7
sS'phone_B'
p8
S'xxf29b2c6f581cf9b134c9bc4ebe5c83c1'
p9
sS'phone_C'
p10
S'xx39d378f51b72092d97bfc6eda90c14b6'
p11
sS'phone_A'
p12
S'xxd2f3224e8d64811106c9fbcf07713f6b'
p13
sS'user_agent'
p14
S'Mozilla/5.0 (Linux; Android 5.0; vivo Y35 Build/LRX21M) AppleWebKit/537.36 (KHTML, like Gecko) Version/4.0 Chrome/37.0.0.0 Mobile MQQBrowser/6.8 TBS/036869 Safari/537.36 MicroMessenger/6.3.27.880 NetType/WIFI Language/zh_CN'
p15
sS'ua'
p16
S'e1efaa0d59b06436070f3097d291cbe8'
p17
sa(dp18
g2
S'49756'
p19
sg4
S'1842'
p20
sg6
S'9142abacd728c754a024ec48d763ab72'
p21
sg8
S'xx190163dfba7f68c9a8449cd2586d7641'
p22
sg10
S'xxd2d1322c94225bf72057c5e674c3ab14'
p23
sg12
S'xxd2f3224e8d64811106c9fbcf07713f6b'
p24
sg14
S'Mozilla/5.0 (Linux; Android 5.0; vivo Y35 Build/LRX21M) AppleWebKit/537.36 (KHTML, like Gecko) Version/4.0 Chrome/37.0.0.0 Mobile MQQBrowser/6.8 TBS/036849 Safari/537.36 MicroMessenger/6.3.27.880 NetType/WIFI Language/zh_CN'
p25
sg16
S'6934461e74db39349a9ec268d77f98df'
p26
sa.