(lp0
(dp1
S'user_id'
p2
S'25353'
p3
sS'data_id'
p4
S'21'
p5
sS'ip'
p6
S'b52c8d5aff546b09480169059053e291'
p7
sS'phone_B'
p8
S'xx6ffd52ce06ec0077683571a9145cc8a6'
p9
sS'phone_C'
p10
S'xx2826f2985898bb89ef75c03c3ce99dfe'
p11
sS'phone_A'
p12
S'xxd2df6fd64888331a9da06da38ea68732'
p13
sS'user_agent'
p14
S'Mozilla/5.0 (Linux; Android 5.1; BF_T13 Build/LMY47D) AppleWebKit/537.36 (KHTML, like Gecko) Version/4.0 Chrome/37.0.0.0 Mobile MQQBrowser/6.8 TBS/036849 Safari/537.36 MicroMessenger/6.3.27.880 NetType/cmnet Language/zh_CN'
p15
sS'ua'
p16
S'609b3d2aea6dde276cd846200810bf30'
p17
sa(dp18
g2
S'7012'
p19
sg4
S'1372'
p20
sg6
S'03f52a4f7e66c7ccc384ce91e7bd50e9'
p21
sg8
S'xxee74f6883f930b0536951b7de9bc6de2'
p22
sg10
S'xx0cd7a6f2e85b8e05fb014b9b634a62b4'
p23
sg12
S'xxd2df6fd64888331a9da06da38ea68732'
p24
sg14
S'Mozilla/5.0 (Linux; Android 5.1; BF_T13 Build/LMY47D) AppleWebKit/537.36 (KHTML, like Gecko) Version/4.0 Chrome/37.0.0.0 Mobile MQQBrowser/6.8 TBS/036849 Safari/537.36 MicroMessenger/6.3.27.880 NetType/WIFI Language/zh_CN'
p25
sg16
S'a30ef72bb35fcd8cf1b1f77a4054198a'
p26
sa.