(lp0
(dp1
S'user_id'
p2
S'49734'
p3
sS'data_id'
p4
S'32'
p5
sS'ip'
p6
S'37ec7b91655b3c964292df15710fad2a'
p7
sS'phone_B'
p8
S'xxe18dc4a6ba0037555ec112e6ad8d7f7d'
p9
sS'phone_C'
p10
S'xx6ed8ff5e09b587394005bf65dd99a610'
p11
sS'phone_A'
p12
S'xxd346f4e5136c77ee119605b1d4c13860'
p13
sS'user_agent'
p14
S'Mozilla/5.0 (Linux; Android 5.1; m2 note Build/LMY47D) AppleWebKit/537.36 (KHTML, like Gecko) Version/4.0 Chrome/37.0.0.0 Mobile MQQBrowser/6.8 TBS/036849 Safari/537.36 MicroMessenger/6.3.27.880 NetType/WIFI Language/zh_CN'
p15
sS'ua'
p16
S'69501ccff5d70c741a68086ca6c1b6ee'
p17
sa(dp18
g2
S'23506'
p19
sg4
S'464'
p20
sg6
S'1bc56cd3638c72501bf5de7fc861eaac'
p21
sg8
S'xxc540df5555b0776255414405f3717eff'
p22
sg10
S'xxdbf94ccae2856247b57669df9afdc12f'
p23
sg12
S'xxd346f4e5136c77ee119605b1d4c13860'
p24
sg14
S'Mozilla/5.0 (Linux; Android 5.1; m2 note Build/LMY47D) AppleWebKit/537.36 (KHTML, like Gecko) Version/4.0 Chrome/37.0.0.0 Mobile MQQBrowser/6.8 TBS/036849 Safari/537.36 MicroMessenger/6.3.27.880 NetType/cmnet Language/zh_CN'
p25
sg16
S'6a5a9e7373c23029d389b3a204f5ba34'
p26
sa(dp27
g2
S'32451'
p28
sg4
S'7266'
p29
sg6
S'8cf4467423fca9f0e4d1ff915a5e7466'
p30
sg8
S'xx2275a80813258718ed6161ab56372b3e'
p31
sg10
S'xx9ec73aa309af8aac91d6d9e6ba924df3'
p32
sg12
S'xxd346f4e5136c77ee119605b1d4c13860'
p33
sg14
S'Mozilla/5.0 (Linux; Android 5.1; m2 note Build/LMY47D) AppleWebKit/537.36 (KHTML, like Gecko) Version/4.0 Chrome/37.0.0.0 Mobile MQQBrowser/6.8 TBS/036849 Safari/537.36 MicroMessenger/6.3.27.880 NetType/WIFI Language/zh_CN'
p34
sg16
S'69501ccff5d70c741a68086ca6c1b6ee'
p35
sa.