(lp0
(dp1
S'user_id'
p2
S'29479'
p3
sS'data_id'
p4
S'26'
p5
sS'ip'
p6
S'5b48c78089c6f21a864d9e71cbaf0c9d'
p7
sS'phone_B'
p8
S'xx17d1012a6993a2731a0e118b58cbe659'
p9
sS'phone_C'
p10
S'xx33da841852f262a0d8d976e467a70d31'
p11
sS'phone_A'
p12
S'xxd8ea3481c96f6447a2139f6d60be78cd'
p13
sS'user_agent'
p14
S'Mozilla/5.0 (Linux; Android 5.0.2; Redmi Note 3 Build/LRX22G) AppleWebKit/537.36 (KHTML, like Gecko) Version/4.0 Chrome/37.0.0.0 Mobile MQQBrowser/6.8 TBS/036849 Safari/537.36 MicroMessenger/6.3.27.880 NetType/WIFI Language/zh_CN'
p15
sS'ua'
p16
S'a4c2670cc8e6857a906a17fd7388d62c'
p17
sa(dp18
g2
S'38051'
p19
sg4
S'1857'
p20
sg6
S'f010042e2180c9da189927896f421f74'
p21
sg8
S'xx8f24d949b6f8c2fcb793073e407a8a18'
p22
sg10
S'xxb8c0bbfc753f58683003b1ffe3f8145b'
p23
sg12
S'xxd8ea3481c96f6447a2139f6d60be78cd'
p24
sg14
S'Mozilla/5.0 (Linux; Android 5.0.2; Redmi Note 3 Build/LRX22G) AppleWebKit/537.36 (KHTML, like Gecko) Version/4.0 Chrome/37.0.0.0 Mobile MQQBrowser/6.8 TBS/036849 Safari/537.36 MicroMessenger/6.3.27.880 NetType/cmnet Language/zh_CN'
p25
sg16
S'fe0295c57b5e24b4e8612aa732b1f27f'
p26
sa.