(lp0
(dp1
S'user_id'
p2
S'4683'
p3
sS'data_id'
p4
S'1011'
p5
sS'ip'
p6
S'533b45ae3853088ffa0a5d1b2601cade'
p7
sS'phone_B'
p8
S'xxb7f1babd73c87d1e705f50738dbd68f7'
p9
sS'phone_C'
p10
S'xxe729292fc1ef6a3177a20f2a3c1846af'
p11
sS'phone_A'
p12
S'xxdb8512bee0b316adb676f901d860b68b'
p13
sS'user_agent'
p14
S'Mozilla/5.0 (Linux; Android 4.4.4; vivo Y23L Build/KTU84P) AppleWebKit/537.36 (KHTML, like Gecko) Version/4.0 Chrome/37.0.0.0 Mobile MQQBrowser/6.8 TBS/036849 Safari/537.36 MicroMessenger/6.3.27.880 NetType/WIFI Language/zh_CN'
p15
sS'ua'
p16
S'4f93a4ba22f616a9ba31991b469b1f9c'
p17
sa(dp18
g2
S'37380'
p19
sg4
S'1389'
p20
sg6
S'3bb4caaf0603dfe1f7c390525c4eedc6'
p21
sg8
S'xx223791dd5e472fc65a2ab414dffcd92a'
p22
sg10
S'xxd328304be2214906ecf8b73a7fd3448e'
p23
sg12
S'xxdb8512bee0b316adb676f901d860b68b'
p24
sg14
S'Mozilla/5.0 (Linux; Android 4.4.4; vivo Y23L Build/KTU84P) AppleWebKit/537.36 (KHTML, like Gecko) Version/4.0 Chrome/37.0.0.0 Mobile MQQBrowser/6.8 TBS/036849 Safari/537.36 MicroMessenger/6.3.25.861 NetType/WIFI Language/zh_CN'
p25
sg16
S'e0a694c97192c5e21d1387a91c9d86e9'
p26
sa(dp27
g2
S'32449'
p28
sg4
S'3185'
p29
sg6
S'783ec5c440b55f32ca4f1c46a5126757'
p30
sg8
S'xx8ee2f39208f373bf124e7eddd61e8cde'
p31
sg10
S'xx109408be96dd6c37de78d2c106bb968f'
p32
sg12
S'xxdb8512bee0b316adb676f901d860b68b'
p33
sg14
S'Mozilla/5.0 (Linux; Android 4.4.4; vivo Y23L Build/KTU84P) AppleWebKit/537.36 (KHTML, like Gecko) Version/4.0 Chrome/37.0.0.0 Mobile MQQBrowser/6.8 TBS/036849 Safari/537.36 MicroMessenger/6.3.27.880 NetType/WIFI Language/zh_CN'
p34
sg16
S'4f93a4ba22f616a9ba31991b469b1f9c'
p35
sa.