(lp0
(dp1
S'user_id'
p2
S'45461'
p3
sS'data_id'
p4
S'15'
p5
sS'ip'
p6
S'd66c95a4c1c7aa3ad1fe1162a8491ff3'
p7
sS'phone_B'
p8
S'xxf8b6a05b378c3dd2898f88ed740457a1'
p9
sS'phone_C'
p10
S'xxe180077fe8d7d78330cdf873114ffaa6'
p11
sS'phone_A'
p12
S'xxe4a0a03afeb80cd9df55c5b298481634'
p13
sS'user_agent'
p14
S'Mozilla/5.0 (Linux; Android 5.1.1; OPPO A33 Build/LMY47V) AppleWebKit/537.36 (KHTML, like Gecko) Version/4.0 Chrome/37.0.0.0 Mobile MQQBrowser/6.8 TBS/036849 Safari/537.36 MicroMessenger/6.3.27.880 NetType/WIFI Language/zh_CN'
p15
sS'ua'
p16
S'55d774ba7ececccc8a12796376d7fb63'
p17
sa(dp18
g2
S'23925'
p19
sg4
S'8635'
p20
sg6
S'd85ca461688d413c41d106c8d7b66150'
p21
sg8
S'xx9e1b1e815ded48c8a3917a29e9743902'
p22
sg10
S'xxa25649ae450e81b3a1bdf8c39b974ce7'
p23
sg12
S'xxe4a0a03afeb80cd9df55c5b298481634'
p24
sg14
S'Mozilla/5.0 (Linux; Android 5.1.1; OPPO A33 Build/LMY47V) AppleWebKit/537.36 (KHTML, like Gecko) Version/4.0 Chrome/37.0.0.0 Mobile MQQBrowser/6.8 TBS/036824 Safari/537.36 MicroMessenger/6.3.27.880 NetType/WIFI Language/zh_CN'
p25
sg16
S'de2b19cd128a8b78d9ec0b5f08e1a332'
p26
sa.