(lp0
(dp1
S'user_id'
p2
S'17159'
p3
sS'data_id'
p4
S'7748'
p5
sS'ip'
p6
S'd66c95a4c1c7aa3ad1fe1162a8491ff3'
p7
sS'phone_B'
p8
S'xxf3c7c09f2a360cb599198e07ea5c1e4e'
p9
sS'phone_C'
p10
S'xx7b095e7288d4e18b0040f72dda7e33b0'
p11
sS'phone_A'
p12
S'xxf03d20b408448cfae6e78b3f14b8283f'
p13
sS'user_agent'
p14
S'Mozilla/5.0 (Linux; Android 5.0; SM-N9008V Build/LRX21V) AppleWebKit/537.36 (KHTML, like Gecko) Version/4.0 Chrome/37.0.0.0 Mobile MQQBrowser/6.8 TBS/036824 Safari/537.36 MicroMessenger/6.3.25.861 NetType/WIFI Language/zh_CN'
p15
sS'ua'
p16
S'b39c20cf73bff2f670234e6de885cbea'
p17
sa(dp18
g2
S'17159'
p19
sg4
S'8045'
p20
sg6
S'd66c95a4c1c7aa3ad1fe1162a8491ff3'
p21
sg8
S'xx7d301b2f4e4bc5d096f00eb978452f9f'
p22
sg10
S'xx297169ab513b75523ad555634c9ae91a'
p23
sg12
S'xxf03d20b408448cfae6e78b3f14b8283f'
p24
sg14
S'Mozilla/5.0 (Linux; Android 5.0; SM-N9008V Build/LRX21V) AppleWebKit/537.36 (KHTML, like Gecko) Version/4.0 Chrome/37.0.0.0 Mobile MQQBrowser/6.8 TBS/036824 Safari/537.36 MicroMessenger/6.3.25.861 NetType/WIFI Language/zh_CN'
p25
sg16
S'b39c20cf73bff2f670234e6de885cbea'
p26
sa.