(lp0
(dp1
S'user_id'
p2
S'31881'
p3
sS'data_id'
p4
S'57'
p5
sS'ip'
p6
S'783ec5c440b55f32ca4f1c46a5126757'
p7
sS'phone_B'
p8
S'xx9302e84897386746c1395e2d82ed2f26'
p9
sS'phone_C'
p10
S'xxef3e00e203f834cd43e95db4d50c5f90'
p11
sS'phone_A'
p12
S'xxf2658fc52299b8afc2688b5583ed7b9b'
p13
sS'user_agent'
p14
S'Mozilla/5.0 (Linux; Android 4.4.4; vivo Y13L Build/KTU84P) AppleWebKit/537.36 (KHTML, like Gecko) Version/4.0 Chrome/37.0.0.0 Mobile MQQBrowser/6.8 TBS/036864 Safari/537.36 MicroMessenger/6.3.27.880 NetType/WIFI Language/zh_CN'
p15
sS'ua'
p16
S'e6e78e403bfa6fbef104a8fa16e519af'
p17
sa(dp18
g2
S'31204'
p19
sg4
S'1934'
p20
sg6
S'ce007e11f3a51fcd3cd90d7ea97dda2d'
p21
sg8
S'xx9a64a9f8d377ae2f85b93aec334be8bc'
p22
sg10
S'xx109408be96dd6c37de78d2c106bb968f'
p23
sg12
S'xxf2658fc52299b8afc2688b5583ed7b9b'
p24
sg14
S'Mozilla/5.0 (Linux; Android 4.4.4; vivo Y13L Build/KTU84P) AppleWebKit/537.36 (KHTML, like Gecko) Version/4.0 Chrome/37.0.0.0 Mobile MQQBrowser/6.8 TBS/036865 Safari/537.36 MicroMessenger/6.3.27.880 NetType/WIFI Language/zh_CN'
p25
sg16
S'41abc16c6c24a19b8d21f17736b8cf66'
p26
sa(dp27
g2
S'19891'
p28
sg4
S'5258'
p29
sg6
S'7470be4cdd895a5288c45b70e34cddc6'
p30
sg8
S'xx520eb32543e36193a70a36ba67350a42'
p31
sg10
S'xxd328304be2214906ecf8b73a7fd3448e'
p32
sg12
S'xxf2658fc52299b8afc2688b5583ed7b9b'
p33
sg14
S'Mozilla/5.0 (Linux; Android 4.4.4; vivo Y13L Build/KTU84P) AppleWebKit/537.36 (KHTML, like Gecko) Version/4.0 Chrome/37.0.0.0 Mobile MQQBrowser/6.8 TBS/036849 Safari/537.36 MicroMessenger/6.3.27.880 NetType/WIFI Language/zh_CN'
p34
sg16
S'a26a0c4db1f3df2198a8c60ec557f4a2'
p35
sa(dp36
g2
S'30491'
p37
sg4
S'7082'
p38
sg6
S'51ba00020549124547f0f1148a84a8d2'
p39
sg8
S'xx40a61a39211c57c229f33061823609e0'
p40
sg10
S'xx84800c058cb705ff6d0c0471bc308c12'
p41
sg12
S'xxf2658fc52299b8afc2688b5583ed7b9b'
p42
sg14
S'Mozilla/5.0 (Linux; Android 4.4.4; vivo Y13L Build/KTU84P) AppleWebKit/537.36 (KHTML, like Gecko) Version/4.0 Chrome/33.0.0.0 Mobile Safari/537.36 MicroMessenger/6.3.27.880 NetType/3gnet Language/zh_CN'
p43
sg16
S'f3bc7d64bf5ab549ffc37f0377346646'
p44
sa.