(lp0
(dp1
S'user_id'
p2
S'34779'
p3
sS'data_id'
p4
S'4187'
p5
sS'ip'
p6
S'79e5fd9e2c0d28192feaa82ff01aa111'
p7
sS'phone_B'
p8
S'xx2e215c28b3c49b9468bf4f03718e1c8e'
p9
sS'phone_C'
p10
S'xx98e2899c52e680b1771234ae94d31b9f'
p11
sS'phone_A'
p12
S'xxf323525007bb440b3bb643a7467555d6'
p13
sS'user_agent'
p14
S'Mozilla/5.0 (Linux; Android 6.0; NEM-AL10 Build/HONORNEM-AL10) AppleWebKit/537.36 (KHTML, like Gecko) Version/4.0 Chrome/37.0.0.0 Mobile MQQBrowser/6.8 TBS/036849 Safari/537.36 MicroMessenger/6.3.27.880 NetType/cmnet Language/en'
p15
sS'ua'
p16
S'bd65749c6ff7ce4c363ae05d117dc63f'
p17
sa(dp18
g2
S'41374'
p19
sg4
S'6947'
p20
sg6
S'79a5be6af82a3eabd97f274d69b7d391'
p21
sg8
S'xxf44b6d6add44017af6c05c1ecedc58b0'
p22
sg10
S'xxb97f9323cbd03196520282f9ff0004e2'
p23
sg12
S'xxf323525007bb440b3bb643a7467555d6'
p24
sg14
S'Mozilla/5.0 (Linux; Android 6.0; NEM-AL10 Build/HONORNEM-AL10) AppleWebKit/537.36 (KHTML, like Gecko) Version/4.0 Chrome/37.0.0.0 Mobile MQQBrowser/6.8 TBS/036861 Safari/537.36 MicroMessenger/6.3.27.880 NetType/cmnet Language/zh_CN'
p25
sg16
S'5215c51230bf43b55f040e8893777ae6'
p26
sa.