(lp0
(dp1
S'user_id'
p2
S'29023'
p3
sS'data_id'
p4
S'1926'
p5
sS'ip'
p6
S'cbb5213867fd345f0c9e699b16abb6cb'
p7
sS'phone_B'
p8
S'xx2251c26ad73b3d39e3f341e6aa852542'
p9
sS'phone_C'
p10
S'xx14c53d93d47a0cb4c7e46443ae11c0cc'
p11
sS'phone_A'
p12
S'xxf3357d5ee6d2556a1b60c87c0db945ca'
p13
sS'user_agent'
p14
S'Mozilla/5.0 (Linux; Android 5.1; vivo V3M A Build/LMY47I) AppleWebKit/537.36 (KHTML, like Gecko) Version/4.0 Chrome/37.0.0.0 Mobile MQQBrowser/6.8 TBS/036849 Safari/537.36 MicroMessenger/6.3.27.880 NetType/WIFI Language/zh_CN'
p15
sS'ua'
p16
S'b38d8d1e94f1b09912c4b0cad8e14139'
p17
sa(dp18
g2
S'31377'
p19
sg4
S'3500'
p20
sg6
S'509368e6f61d2e7b8daf31e0cb12da6d'
p21
sg8
S'xxadadcbc0a757c16593ed1baefa5e2cc0'
p22
sg10
S'xx3eec4bab2d3850819c5cdf39cc93ab59'
p23
sg12
S'xxf3357d5ee6d2556a1b60c87c0db945ca'
p24
sg14
S'Mozilla/5.0 (Linux; Android 5.1; vivo V3M A Build/LMY47I) AppleWebKit/537.36 (KHTML, like Gecko) Version/4.0 Chrome/37.0.0.0 Mobile MQQBrowser/6.8 TBS/036849 Safari/537.36 MicroMessenger/6.3.27.880 NetType/WIFI Language/zh_CN'
p25
sg16
S'b38d8d1e94f1b09912c4b0cad8e14139'
p26
sa.