(lp0
(dp1
S'user_id'
p2
S'34262'
p3
sS'data_id'
p4
S'3453'
p5
sS'ip'
p6
S'509368e6f61d2e7b8daf31e0cb12da6d'
p7
sS'phone_B'
p8
S'xxdaf057bcb7d640a09c0caa0e1544e849'
p9
sS'phone_C'
p10
S'xx6f5d8ce9eb5af92ce0fb630074056b9b'
p11
sS'phone_A'
p12
S'xxf3fe5c0a538174446f767248b459971f'
p13
sS'user_agent'
p14
S'Mozilla/5.0 (Linux; Android 5.0; vivo X5Pro D Build/LRX21M) AppleWebKit/537.36 (KHTML, like Gecko) Version/4.0 Chrome/37.0.0.0 Mobile MQQBrowser/6.8 TBS/036849 Safari/537.36 MicroMessenger/6.3.27.880 NetType/WIFI Language/zh_CN'
p15
sS'ua'
p16
S'c86b2bcc197e7613cc2cc0eb945514b3'
p17
sa(dp18
g2
S'49802'
p19
sg4
S'5879'
p20
sg6
S'7ad6ba29c8e2117fc5d1ce0cf6043119'
p21
sg8
S'xx10bffbe873edcd8faec660355990a946'
p22
sg10
S'xxb4a0c9ee09fd92e5aff3f1f9a92c9322'
p23
sg12
S'xxf3fe5c0a538174446f767248b459971f'
p24
sg14
S'Mozilla/5.0 (Linux; Android 5.0; vivo X5Pro D Build/LRX21M) AppleWebKit/537.36 (KHTML, like Gecko) Version/4.0 Chrome/37.0.0.0 Mobile MQQBrowser/6.8 TBS/036869 Safari/537.36 MicroMessenger/6.3.27.880 NetType/WIFI Language/zh_CN'
p25
sg16
S'15a1ef381ba74ef93c099bd3f63dfca9'
p26
sa.