(lp0
(dp1
S'user_id'
p2
S'42664'
p3
sS'data_id'
p4
S'5830'
p5
sS'ip'
p6
S'50eaccbab87ef98eaf79ea688bc155f6'
p7
sS'phone_B'
p8
S'xx4ffaf3d31413d95719ed4e29fd1ffd8e'
p9
sS'phone_C'
p10
S'xx5b5385f495527d021fa348ab45b341b6'
p11
sS'phone_A'
p12
S'xxf4b565abd205be6f261e7ac329a73509'
p13
sS'user_agent'
p14
S'Mozilla/5.0 (Linux; Android 5.0.2; vivo X6A Build/LRX22G) AppleWebKit/537.36 (KHTML, like Gecko) Version/4.0 Chrome/37.0.0.0 Mobile MQQBrowser/6.8 TBS/036849 Safari/537.36 MicroMessenger/6.3.27.880 NetType/WIFI Language/zh_CN'
p15
sS'ua'
p16
S'd1faa91d8b4225251ba1b4a85b0f033a'
p17
sa(dp18
g2
S'49817'
p19
sg4
S'6528'
p20
sg6
S'7730bc40ab1f3f6e04b01da51ab4a5be'
p21
sg8
S'xx895c83c75e337f3ed1b07365ed485203'
p22
sg10
S'xxacd85f1c9871326680d4b0d21e43b856'
p23
sg12
S'xxf4b565abd205be6f261e7ac329a73509'
p24
sg14
S'Mozilla/5.0 (Linux; Android 5.0.2; vivo X6A Build/LRX22G) AppleWebKit/537.36 (KHTML, like Gecko) Version/4.0 Chrome/37.0.0.0 Mobile MQQBrowser/6.8 TBS/036849 Safari/537.36 MicroMessenger/6.3.25.861 NetType/3gnet Language/zh_CN'
p25
sg16
S'cdee1a6ca2ba5c6300dbdf5932919eec'
p26
sa.