(lp0
(dp1
S'user_id'
p2
S'29916'
p3
sS'data_id'
p4
S'218'
p5
sS'ip'
p6
S'5b48c78089c6f21a864d9e71cbaf0c9d'
p7
sS'phone_B'
p8
S'xxc599c8b6ac61da031ea6e51289f7bb4a'
p9
sS'phone_C'
p10
S'xx0cd7a6f2e85b8e05fb014b9b634a62b4'
p11
sS'phone_A'
p12
S'xxf8c35e314d0860965b6bf19d12a05cec'
p13
sS'user_agent'
p14
S'Mozilla/5.0 (Linux; Android 5.1; YAMI M8 Build/LMY47D) AppleWebKit/537.36 (KHTML, like Gecko) Version/4.0 Chrome/37.0.0.0 Mobile MQQBrowser/6.8 TBS/036849 Safari/537.36 MicroMessenger/6.3.27.880 NetType/WIFI Language/zh_CN'
p15
sS'ua'
p16
S'ede82e2b778e2569e7ee7c1295fd727e'
p17
sa(dp18
g2
S'43095'
p19
sg4
S'517'
p20
sg6
S'5b48c78089c6f21a864d9e71cbaf0c9d'
p21
sg8
S'xxbc6f661435d955ee359ca74cdacf859d'
p22
sg10
S'xx726440e2dc862b56411461e61ffeb064'
p23
sg12
S'xxf8c35e314d0860965b6bf19d12a05cec'
p24
sg14
S'Mozilla/5.0 (Linux; Android 5.1; YAMI M8 Build/LMY47D) AppleWebKit/537.36 (KHTML, like Gecko) Version/4.0 Chrome/39.0.0.0 Mobile Safari/537.36 MicroMessenger/6.3.27.880 NetType/WIFI Language/zh_CN'
p25
sg16
S'028fe1a95cc326cd3f029886c67ac480'
p26
sa.