(lp0
(dp1
S'user_id'
p2
S'31400'
p3
sS'data_id'
p4
S'2625'
p5
sS'ip'
p6
S'783ec5c440b55f32ca4f1c46a5126757'
p7
sS'phone_B'
p8
S'xxf2e143acbb13d7574582230aedd99119'
p9
sS'phone_C'
p10
S'xxc9295af4e0dc725c4d8ab19fe11a9587'
p11
sS'phone_A'
p12
S'xxf9f25894c86a15a1bdb785f22b1e9f69'
p13
sS'user_agent'
p14
S'Mozilla/5.0 (Linux; Android 4.4.4; 3007 Build/KTU84P) AppleWebKit/537.36 (KHTML, like Gecko) Version/4.0 Chrome/37.0.0.0 Mobile MQQBrowser/6.8 TBS/036849 Safari/537.36 MicroMessenger/6.3.25.861 NetType/WIFI Language/zh_CN'
p15
sS'ua'
p16
S'65f2dcdc489962fb6cea97bf945bb644'
p17
sa(dp18
g2
S'40436'
p19
sg4
S'6385'
p20
sg6
S'f68b84c369cd31b3c5ccd9b154fbe8e4'
p21
sg8
S'xx9d523ffaad34e6504a1794abe97ffd11'
p22
sg10
S'xxd106300ff461d0201462db42829ecebc'
p23
sg12
S'xxf9f25894c86a15a1bdb785f22b1e9f69'
p24
sg14
S'Mozilla/5.0 (Linux; Android 4.4.4; 3007 Build/KTU84P) AppleWebKit/537.36 (KHTML, like Gecko) Version/4.0 Chrome/37.0.0.0 Mobile MQQBrowser/6.8 TBS/036865 Safari/537.36 MicroMessenger/6.3.25.861 NetType/WIFI Language/zh_CN'
p25
sg16
S'60dbdfe934fed27117065de682074d0d'
p26
sa.