(lp0
(dp1
S'user_id'
p2
S'5381'
p3
sS'data_id'
p4
S'756'
p5
sS'ip'
p6
S'5b48c78089c6f21a864d9e71cbaf0c9d'
p7
sS'phone_B'
p8
S'xx002b6a5597857d1ac0100e2c884a4426'
p9
sS'phone_C'
p10
S'xxa7c37b31476894a9d5495958bd0a8705'
p11
sS'phone_A'
p12
S'xxfb8c8e7a2c5251729e057ad83d7036fc'
p13
sS'user_agent'
p14
S'Mozilla/5.0 (Linux; Android 5.1; 1501_M02 Build/LMY47D) AppleWebKit/537.36 (KHTML, like Gecko) Version/4.0 Chrome/37.0.0.0 Mobile MQQBrowser/6.8 TBS/036849 Safari/537.36 MicroMessenger/6.3.27.880 NetType/WIFI Language/zh_CN'
p15
sS'ua'
p16
S'3bfb92458f1694fe7aa7c1ab97a75768'
p17
sa(dp18
g2
S'42117'
p19
sg4
S'2102'
p20
sg6
S'd333c7d9d10bd1478d7210b706941414'
p21
sg8
S'xxd67eed04b50b6e1dbdb66003e09a928d'
p22
sg10
S'xxa2688a2f031d413266952588af165010'
p23
sg12
S'xxfb8c8e7a2c5251729e057ad83d7036fc'
p24
sg14
S'Mozilla/5.0 (Linux; Android 5.1; 1501_M02 Build/LMY47D) AppleWebKit/537.36 (KHTML, like Gecko) Version/4.0 Chrome/37.0.0.0 Mobile MQQBrowser/6.8 TBS/036849 Safari/537.36 MicroMessenger/6.3.27.880 NetType/WIFI Language/zh_CN'
p25
sg16
S'3bfb92458f1694fe7aa7c1ab97a75768'
p26
sa(dp27
g2
S'23683'
p28
sg4
S'3631'
p29
sg6
S'c17e96ac34d43b5a75b94e6c10c2580f'
p30
sg8
S'xx55481450374760ad57cf37e48b504ce8'
p31
sg10
S'xxdc168aaf644cd7f3874866be7671a8a7'
p32
sg12
S'xxfb8c8e7a2c5251729e057ad83d7036fc'
p33
sg14
S'Mozilla/5.0 (Linux; Android 5.1; 1501_M02 Build/LMY47D) AppleWebKit/537.36 (KHTML, like Gecko) Version/4.0 Chrome/39.0.0.0 Mobile Safari/537.36 MicroMessenger/6.3.27.880 NetType/WIFI Language/zh_CN'
p34
sg16
S'405d4603a34338531b83825c5fe16684'
p35
sa(dp36
g2
S'46899'
p37
sg4
S'8755'
p38
sg6
S'10d6e9ba5a7f89e5422202990b7f2ea2'
p39
sg8
S'xx6c20bc7ab3896854e993f9fbbfd7bed0'
p40
sg10
S'xx44b386ada77927e7cb405d14b2070dda'
p41
sg12
S'xxfb8c8e7a2c5251729e057ad83d7036fc'
p42
sg14
S'Mozilla/5.0 (Linux; Android 5.1; 1501_M02 Build/LMY47D) AppleWebKit/537.36 (KHTML, like Gecko) Version/4.0 Chrome/37.0.0.0 Mobile MQQBrowser/6.8 TBS/036849 Safari/537.36 MicroMessenger/6.3.27.880 NetType/WIFI Language/zh_CN'
p43
sg16
S'3bfb92458f1694fe7aa7c1ab97a75768'
p44
sa.