(lp0
(dp1
S'user_id'
p2
S'47315'
p3
sS'data_id'
p4
S'4823'
p5
sS'ip'
p6
S'98a7d9a4ff2e97e34f24f1ab39ba3feb'
p7
sS'phone_B'
p8
S'xxb5d1703e05a52cd53b705bb9ebde919c'
p9
sS'phone_C'
p10
S'xxea4dbb7528b6265d6773b4d0dccf37ee'
p11
sS'phone_A'
p12
S'xxfebe3e964716a37b22f2b51b9b9878d0'
p13
sS'user_agent'
p14
S'Mozilla/5.0 (Linux; Android 4.4.4; OPPO R7s Build/KTU84P) AppleWebKit/537.36 (KHTML, like Gecko) Version/4.0 Chrome/37.0.0.0 Mobile MQQBrowser/6.8 TBS/036849 Safari/537.36 MicroMessenger/6.3.27.880 NetType/WIFI Language/zh_CN'
p15
sS'ua'
p16
S'82471dce68c89a4ad53eac577a6c7a6d'
p17
sa(dp18
g2
S'49833'
p19
sg4
S'7533'
p20
sg6
S'd2eb85d3de1bb2f3fe6c58fe3d120242'
p21
sg8
S'xx3fe72b0187ac16eeb87b88e358a22102'
p22
sg10
S'xx69d2cb0bb7e4c2f89ef3831463127dd5'
p23
sg12
S'xxfebe3e964716a37b22f2b51b9b9878d0'
p24
sg14
S'Mozilla/5.0 (Linux; Android 4.4.4; OPPO R7s Build/KTU84P) AppleWebKit/537.36 (KHTML, like Gecko) Version/4.0 Chrome/37.0.0.0 Mobile MQQBrowser/6.2 TBS/036558 Safari/537.36 MicroMessenger/6.3.25.861 NetType/cmnet Language/zh_CN'
p25
sg16
S'2747ef0f271f31fd82c02f96759bb01e'
p26
sa.